(lp0
(dp1
S'href'
p2
S'http://www.reuters.com/article/rbssFinancialServicesAndRealEstateNews/idUSHKG9578120071126'
p3
sS'ts'
p4
S'20071125\xc2\xa011:57 PM EST'
p5
sS'title'
p6
S'HK shares rally broadly but China Bluechemical sinks'
p7
sa(dp8
g2
S'http://www.reuters.com/article/bondsNews/idUST29238120071126'
p9
sg4
S'20071125\xc2\xa011:55 PM EST'
p10
sg6
S'REFILE-TREASURIES-Fall in Asia on firm U.S. shopping data,stocks'
p11
sa(dp12
g2
S'http://www.reuters.com/article/newsOne/idUSFLE56120120071126'
p13
sg4
S'20071125\xc2\xa011:50 PM EST'
p14
sg6
S'Syria to attend Middle East conference'
p15
sa(dp16
g2
S'http://www.reuters.com/article/rbssFinancialServicesAndRealEstateNews/idUSSYD16789720071126'
p17
sg4
S'20071125\xc2\xa011:50 PM EST'
p18
sg6
S'KfW launches, prices A$200 mln 2012 bond increase'
p19
sa(dp20
g2
S'http://www.reuters.com/article/companyNewsAndPR/idUST29470120071126'
p21
sg4
S'20071125\xc2\xa011:43 PM EST'
p22
sg6
S'Japan stocks rise, China investment report helps'
p23
sa(dp24
g2
S'http://www.reuters.com/article/fundsFundsNews/idUSPEK29815720071126'
p25
sg4
S'20071125\xc2\xa011:41 PM EST'
p26
sg6
S'Franklin wins mandate to manage ICBC QDII fund'
p27
sa(dp28
g2
S'http://www.reuters.com/article/rbssFinancialServicesAndRealEstateNews/idUSHKG16666520071126'
p29
sg4
S'20071125\xc2\xa011:40 PM EST'
p30
sg6
S'Emerging debt-Asia bonds recover but caution prevails'
p31
sa(dp32
g2
S'http://www.reuters.com/article/pressRelease/idUS34074+26-Nov-2007+PRN20071126'
p33
sg4
S'20071125\xc2\xa011:30 PM EST'
p34
sg6
S'Following Is a Test Release'
p35
sa(dp36
g2
S'http://www.reuters.com/article/rbssIndustryMaterialsUtilitiesNews/idUSSP32401920071126'
p37
sg4
S'20071125\xc2\xa011:27 PM EST'
p38
sg6
S"UPDATE 2-Australia's Zinifex on lookout for acquisitions"
p39
sa(dp40
g2
S'http://www.reuters.com/article/rbssConsumerGoodsAndRetailNews/idUSSEO26844520071126'
p41
sg4
S'20071125\xc2\xa011:27 PM EST'
p42
sg6
S'Seoul shares extend gains to 4 pct on exporters'
p43
sa(dp44
g2
S'http://www.reuters.com/article/rbssIndustryMaterialsUtilitiesNews/idUSBJC00012220071126'
p45
sg4
S'20071125\xc2\xa011:25 PM EST'
p46
sg6
S'Sarkozy turns up pressure on China over yuan'
p47
sa(dp48
g2
S'http://www.reuters.com/article/rbssIndustryMaterialsUtilitiesNews/idUSSHA29756820071126'
p49
sg4
S'20071125\xc2\xa011:24 PM EST'
p50
sg6
S'China urged to set up iron ore reserve -industry exec'
p51
sa(dp52
g2
S'http://www.reuters.com/article/peopleNews/idUSSAT36159920071126'
p53
sg4
S'20071125\xc2\xa011:22 PM EST'
p54
sg6
S'Sly Stone makes his first NY stand in 32 years'
p55
sa(dp56
g2
S'http://www.reuters.com/article/businessNews/idUSSP14171520071126'
p57
sg4
S'20071125\xc2\xa011:20 PM EST'
p58
sg6
S"Indonesia's Inco workers end strike"
p59
sa(dp60
g2
S'http://www.reuters.com/article/inDepthNews/idUSN2548212720071126'
p61
sg4
S'20071125\xc2\xa011:19 PM EST'
p62
sg6
S'GE uses training to build customers in Asia'
p63
sa(dp64
g2
S'http://www.reuters.com/article/inDepthNews/idUSN2549204120071126'
p65
sg4
S'20071125\xc2\xa011:19 PM EST'
p66
sg6
S"FACTBOX-Five facts about GE's management training"
p67
sa(dp68
g2
S'http://www.reuters.com/article/pressRelease/idUS33253+26-Nov-2007+BW20071126'
p69
sg4
S'20071125\xc2\xa011:19 PM EST'
p70
sg6
S'GE Healthcare Re-Imagines Radiology at RSNA Conference; Company Showcases Innovative...'
p71
sa(dp72
g2
S'http://www.reuters.com/article/latestCrisis/idUST228650'
p73
sg4
S'20071125\xc2\xa011:16 PM EST'
p74
sg6
S'Japan says whaling will not halt despite Australia'
p75
sa(dp76
g2
S'http://www.reuters.com/article/entertainmentNews/idUSHO58214620071126'
p77
sg4
S'20071125\xc2\xa011:14 PM EST'
p78
sg6
S'"Enchanted" charms audiences at weekend box office'
p79
sa(dp80
g2
S'http://www.reuters.com/article/mergersNews/idUSTKV00294520071126'
p81
sg4
S'20071125\xc2\xa011:11 PM EST'
p82
sg6
S'Dubai International Capital takes Sony stake'
p83
sa(dp84
g2
S'http://www.reuters.com/article/rbssIndustryMaterialsUtilitiesNews/idUSSYD14951520071126'
p85
sg4
S'20071125\xc2\xa011:09 PM EST'
p86
sg6
S"UPDATE 2-Australia's Zinifex on lookout for acquisitions"
p87
sa(dp88
g2
S'http://www.reuters.com/article/businessNews/idUSBJC00012120071126'
p89
sg4
S'20071125\xc2\xa011:09 PM EST'
p90
sg6
S'China buys 10 Airbus planes, more to come'
p91
sa(dp92
g2
S'http://www.reuters.com/article/politicsNews/idUSSEO29408420071126'
p93
sg4
S'20071125\xc2\xa011:03 PM EST'
p94
sg6
S'U.S. reportedly stations diplomat in North Korea'
p95
sa(dp96
g2
S'http://www.reuters.com/article/bondsNews/idUSN21OST20071126'
p97
sg4
S'20071125\xc2\xa011:00 PM EST'
p98
sg6
S'PRESS DIGEST - Washington Post - Nov 26'
p99
sa(dp100
g2
S'http://www.reuters.com/article/companyNewsAndPR/idUSL2636283520071126'
p101
sg4
S'20071125\xc2\xa011:00 PM EST'
p102
sg6
S'PRESS DIGEST - British business - =6'
p103
sa(dp104
g2
S'http://www.reuters.com/article/mergersNews/idUSL2553373120071126'
p105
sg4
S'20071125\xc2\xa011:00 PM EST'
p106
sg6
S'Airbus must save 1.5 bln euros due dollar-EADS CEO'
p107
sa(dp108
g2
S'http://www.reuters.com/article/pressRelease/idUS31862+26-Nov-2007+PRN20071126'
p109
sg4
S'20071125\xc2\xa011:00 PM EST'
p110
sg6
S'Following Is a Test Release'
p111
sa(dp112
g2
S'http://www.reuters.com/article/pressRelease/idUS31849+26-Nov-2007+BW20071126'
p113
sg4
S'20071125\xc2\xa011:00 PM EST'
p114
sg6
S'East Asia and Pacific Mobile Forecast Provides over 65 Operational and Financial...'
p115
sa(dp116
g2
S'http://www.reuters.com/article/pressRelease/idUS31846+26-Nov-2007+BW20071126'
p117
sg4
S'20071125\xc2\xa011:00 PM EST'
p118
sg6
S'New Report Examines the Market for Spirits in Asia-Pacific'
p119
sa(dp120
g2
S'http://www.reuters.com/article/ousiv/idUSN2434571720071126'
p121
sg4
S'20071125\xc2\xa010:56 PM EST'
p122
sg6
S'Shopping crowds swell, but are they buying?'
p123
sa(dp124
g2
S'http://www.reuters.com/article/bondsNews/idUSTKW00290120071126'
p125
sg4
S'20071125\xc2\xa010:46 PM EST'
p126
sg6
S'JGB futures fall more than half point as stocks up'
p127
sa(dp128
g2
S'http://www.reuters.com/article/mergersNews/idUST23330620071126'
p129
sg4
S'20071125\xc2\xa010:44 PM EST'
p130
sg6
S'CORRECTED - CORRECTED-UPDATE 3-Japan Tobacco, Nissin to buy Katokichi in $1'
p131
sa(dp132
g2
S'http://www.reuters.com/article/inDepthNews/idUSL251568820071126'
p133
sg4
S'20071125\xc2\xa010:44 PM EST'
p134
sg6
S'Parcel firm TNT exports road approach to Asia'
p135
sa(dp136
g2
S'http://www.reuters.com/article/companyNewsAndPR/idUST15676920071126'
p137
sg4
S'20071125\xc2\xa010:42 PM EST'
p138
sg6
S"Japan's TOPIX, Nikkei climb 2 pct, led by banks"
p139
sa(dp140
g2
S'http://www.reuters.com/article/pressRelease/idUS30003+26-Nov-2007+BW20071126'
p141
sg4
S'20071125\xc2\xa010:36 PM EST'
p142
sg6
S"Malibu Farmers Insurance Agent Bart Baker, Retired Firefighter, Helps Save Customer's..."
p143
sa(dp144
g2
S'http://www.reuters.com/article/pressRelease/idUS29479+26-Nov-2007+PRN20071126'
p145
sg4
S'20071125\xc2\xa010:30 PM EST'
p146
sg6
S'Following Is a Test Release'
p147
sa(dp148
g2
S'http://www.reuters.com/article/environmentNews/idUSN2331958920071126'
p149
sg4
S'20071125\xc2\xa010:27 PM EST'
p150
sg6
S'Enbridge sees big wind farm running in a year'
p151
sa(dp152
g2
S'http://www.reuters.com/article/rbssIndustryMaterialsUtilitiesNews/idUSHKG29734920071126'
p153
sg4
S'20071125\xc2\xa010:25 PM EST'
p154
sg6
S"China's BYD Elec plans about US$800 mln HK IPO"
p155
sa(dp156
g2
S'http://www.reuters.com/article/scienceNews/idUSBLA46832720071126'
p157
sg4
S'20071125\xc2\xa010:22 PM EST'
p158
sg6
S'Fortune-tellers popular in Islamic Iran'
p159
sa(dp160
g2
S'http://www.reuters.com/article/companyNewsAndPR/idUST7945320071126'
p161
sg4
S'20071125\xc2\xa010:20 PM EST'
p162
sg6
S'CORRECTED - CORRECTED-(OFFICIAL)-UPDATE 1-Softbank aims for 50,000 base stat'
p163
sa(dp164
g2
S'http://www.reuters.com/article/companyNewsAndPR/idUSTKV00294420071126'
p165
sg4
S'20071125\xc2\xa010:17 PM EST'
p166
sg6
S'CORRECTED - CORRECTED-(OFFICIAL)-Softbank aims for over 50,000 base stations'
p167
sa(dp168
g2
S'http://www.reuters.com/article/pressRelease/idUS28387+26-Nov-2007+BW20071126'
p169
sg4
S'20071125\xc2\xa010:16 PM EST'
p170
sg6
S'Chiyoda Singapore Awarded EPC Contract from Vopak for Large Tank Terminal in Singapore'
p171
sa(dp172
g2
S'http://www.reuters.com/article/rbssEnergyNews/idUSL2636450320071126'
p173
sg4
S'20071125\xc2\xa010:15 PM EST'
p174
sg6
S'Maurel & Prom '
p175
sa(dp176
g2
S'http://www.reuters.com/article/rbssIndustryMaterialsUtilitiesNews/idUSHKG26178320071126'
p177
sg4
S'20071125\xc2\xa010:09 PM EST'
p178
sg6
S'Sinotrans eyes acquisitions in focus on dry bulk'
p179
sa(dp180
g2
S'http://www.reuters.com/article/tokyoMktRpt/idUST28397420071126'
p181
sg4
S'20071125\xc2\xa010:09 PM EST'
p182
sg6
S'Japan stocks power higher on autos, banks, high-tech'
p183
sa(dp184
g2
S'http://www.reuters.com/article/newsOne/idUSJAK14479920071126'
p185
sg4
S'20071125\xc2\xa010:05 PM EST'
p186
sg6
S'Quakes kill at least three on Indonesian island'
p187
sa(dp188
g2
S'http://www.reuters.com/article/pressRelease/idUS27075+26-Nov-2007+PRN20071126'
p189
sg4
S'20071125\xc2\xa010:00 PM EST'
p190
sg6
S'Following Is a Test Release'
p191
sa(dp192
g2
S'http://www.reuters.com/article/pressRelease/idUS27040+26-Nov-2007+BW20071126'
p193
sg4
S'20071125\xc2\xa010:00 PM EST'
p194
sg6
S'New Report Examines Potential Interconnect Technologies And Solutions And Make Recommendations...'
p195
sa(dp196
g2
S'http://www.reuters.com/article/rbssIndustryMaterialsUtilitiesNews/idUSPEK29537520071126'
p197
sg4
S'20071125\xc2\xa009:58 PM EST'
p198
sg6
S"CORRECTED - CORRECTED-France's Areva to seal 8 bln euro China deal"
p199
sa(dp200
g2
S'http://www.reuters.com/article/homepageCrisis/idUSL25323392._CH_.2400'
p201
sg4
S'20071125\xc2\xa009:56 PM EST'
p202
sg6
S'Quakes kill at least three on Indonesian island'
p203
sa(dp204
g2
S'http://www.reuters.com/article/latestCrisis/idUSL25323392'
p205
sg4
S'20071125\xc2\xa009:56 PM EST'
p206
sg6
S'Quakes kill at least three on Indonesian island'
p207
sa(dp208
g2
S'http://www.reuters.com/article/rbssIndustryMaterialsUtilitiesNews/idUSBJC00012020071126'
p209
sg4
S'20071125\xc2\xa009:53 PM EST'
p210
sg6
S'China denies report of rival bid for Rio'
p211
sa(dp212
g2
S'http://www.reuters.com/article/hongkongMktRpt/idUSHKG10257120071126'
p213
sg4
S'20071125\xc2\xa009:49 PM EST'
p214
sg6
S'HK Hot Stocks: China BlueChemical sinks, gold plays up'
p215
sa(dp216
g2
S'http://www.reuters.com/article/rbssHealthcareNews/idUSPEK29767620071126'
p217
sg4
S'20071125\xc2\xa009:44 PM EST'
p218
sg6
S'RPT-Sanofi spends 100 mln euros on China vaccines plant'
p219
sa(dp220
g2
S'http://www.reuters.com/article/bondsNews/idUST8063220071126'
p221
sg4
S'20071125\xc2\xa009:42 PM EST'
p222
sg6
S'JGBs fall as stocks inch up, Treasuries ease'
p223
sa(dp224
g2
S'http://www.reuters.com/article/ousiv/idUSN2435139020071126'
p225
sg4
S'20071125\xc2\xa009:31 PM EST'
p226
sg6
S'NatWest 3 bankers set for rearraignment in Texas'
p227
sa(dp228
g2
S'http://www.reuters.com/article/latestCrisis/idUSMAN163485'
p229
sg4
S'20071125\xc2\xa009:30 PM EST'
p230
sg6
S'Typhoon hits northern Philippines, heads for Taiwan'
p231
sa(dp232
g2
S'http://www.reuters.com/article/businessNews/idUSSYD15295720071126'
p233
sg4
S'20071125\xc2\xa009:30 PM EST'
p234
sg6
S'Rio declares force majeure at Australia coal mine'
p235
sa(dp236
g2
S'http://www.reuters.com/article/pressRelease/idUS24623+26-Nov-2007+PRN20071126'
p237
sg4
S'20071125\xc2\xa009:30 PM EST'
p238
sg6
S'Following Is a Test Release'
p239
sa(dp240
g2
S'http://www.reuters.com/article/companyNewsAndPR/idUSPEK15746720071126'
p241
sg4
S'20071125\xc2\xa009:26 PM EST'
p242
sg6
S'China trade reputation rests on safety, says EU'
p243
sa(dp244
g2
S'http://www.reuters.com/article/hongkongMktRpt/idUSHKF07873720071126'
p245
sg4
S'20071125\xc2\xa009:22 PM EST'
p246
sg6
S'CORRECTED-HK shares in broad rally after Wall Street advance'
p247
sa(dp248
g2
S'http://www.reuters.com/article/ousiv/idUSSEO27358920071126'
p249
sg4
S'20071125\xc2\xa009:22 PM EST'
p250
sg6
S'Korean Air says to launch budget carrier in 2008'
p251
sa(dp252
g2
S'http://www.reuters.com/article/topNews/idUSN2546520071126'
p253
sg4
S'20071125\xc2\xa009:14 PM EST'
p254
sg6
S'Bolivian protesters clash with police, storm jail'
p255
sa(dp256
g2
S'http://www.reuters.com/article/sportsNews/idUSB15261120071126'
p257
sg4
S'20071125\xc2\xa009:13 PM EST'
p258
sg6
S'Vikings punish Manning errors, Raiders end streak'
p259
sa(dp260
g2
S'http://www.reuters.com/article/tokyoMktRpt/idUST2423120071126'
p261
sg4
S'20071125\xc2\xa009:07 PM EST'
p262
sg6
S'Japan stocks climb on banks, auto firms, high techs'
p263
sa(dp264
g2
S'http://www.reuters.com/article/mergersNews/idUSSP12623020071126'
p265
sg4
S'20071125\xc2\xa009:03 PM EST'
p266
sg6
S"China's Citic Securities eyes HK listing-FT report"
p267
sa(dp268
g2
S'http://www.reuters.com/article/rbssIndustryMaterialsUtilitiesNews/idUSBJC00011920071126'
p269
sg4
S'20071125\xc2\xa009:03 PM EST'
p270
sg6
S'Weak dollar a vital danger for Airbus -CEO Gallois'
p271
sa(dp272
g2
S'http://www.reuters.com/article/pressRelease/idUS21995+26-Nov-2007+PRN20071126'
p273
sg4
S'20071125\xc2\xa009:00 PM EST'
p274
sg6
S'Following Is a Test Release'
p275
sa(dp276
g2
S'http://www.reuters.com/article/pressRelease/idUS21971+26-Nov-2007+BW20071126'
p277
sg4
S'20071125\xc2\xa009:00 PM EST'
p278
sg6
S"Examine The Path To Get To 'Big Broadband' While Surmounting Blockages And Avoiding..."
p279
sa(dp280
g2
S'http://www.reuters.com/article/pressRelease/idUS21970+26-Nov-2007+BW20071126'
p281
sg4
S'20071125\xc2\xa009:00 PM EST'
p282
sg6
S'New Report Is An Essential Source For Key Data Relating To The India Orthopedic Devices...'
p283
sa(dp284
g2
S'http://www.reuters.com/article/companyNewsAndPR/idUSL2669928120071126'
p285
sg4
S'20071125\xc2\xa008:59 PM EST'
p286
sg6
S'PRESS DIGEST - Financial Times - =4'
p287
sa(dp288
g2
S'http://www.reuters.com/article/rbssConsumerGoodsAndRetailNews/idUSSEO26982420071126'
p289
sg4
S'20071125\xc2\xa008:58 PM EST'
p290
sg6
S'Seoul shares up 3 pct on exporters, financials'
p291
sa(dp292
g2
S'http://www.reuters.com/article/latestCrisis/idUSHAN167314'
p293
sg4
S'20071125\xc2\xa008:58 PM EST'
p294
sg6
S'PRESS DIGEST - Vietnam newspapers - November 26'
p295
sa(dp296
g2
S'http://www.reuters.com/article/rbssConsumerGoodsAndRetailNews/idUSSEO30985620071126'
p297
sg4
S'20071125\xc2\xa008:45 PM EST'
p298
sg6
S'Seoul shares up on exporters, banks; LG Elec jumps'
p299
sa(dp300
g2
S'http://www.reuters.com/article/companyNewsAndPR/idUSSHA27124620071126'
p301
sg4
S'20071125\xc2\xa008:39 PM EST'
p302
sg6
S'DHL Express says to invest $175 mln in Shanghai hub'
p303
sa(dp304
g2
S'http://www.reuters.com/article/rbssConsumerGoodsAndRetailNews/idUSJAK13189920071126'
p305
sg4
S'20071125\xc2\xa008:38 PM EST'
p306
sg6
S'PRESS DIGEST-Indonesian Business News - Nov 26'
p307
sa(dp308
g2
S'http://www.reuters.com/article/latestCrisis/idUSPEK264585'
p309
sg4
S'20071125\xc2\xa008:30 PM EST'
p310
sg6
S'China domestic violence complaints soar 70 pct'
p311
sa(dp312
g2
S'http://www.reuters.com/article/pressRelease/idUS19464+26-Nov-2007+PRN20071126'
p313
sg4
S'20071125\xc2\xa008:30 PM EST'
p314
sg6
S'Following Is a Test Release'
p315
sa(dp316
g2
S'http://www.reuters.com/article/rbssFinancialServicesAndRealEstateNews/idUSBKK22363920071126'
p317
sg4
S'20071125\xc2\xa008:26 PM EST'
p318
sg6
S'PRESS DIGEST - Thai newspapers - November 26'
p319
sa(dp320
g2
S'http://www.reuters.com/article/rbssIndustryMaterialsUtilitiesNews/idUSPEK1474620071126'
p321
sg4
S'20071125\xc2\xa008:26 PM EST'
p322
sg6
S'China may gatecrash BHP bid for Rio -report'
p323
sa(dp324
g2
S'http://www.reuters.com/article/rbssIndustryMaterialsUtilitiesNews/idUSHKG29456020071126'
p325
sg4
S'20071125\xc2\xa008:25 PM EST'
p326
sg6
S'PRESS DIGEST - Hong Kong - Nov 26'
p327
sa(dp328
g2
S'http://www.reuters.com/article/topNews/idUSN2528704020071126'
p329
sg4
S'20071125\xc2\xa008:22 PM EST'
p330
sg6
S'Seven dead in Brazilian stadium disaster'
p331
sa(dp332
g2
S'http://www.reuters.com/article/businessNews/idUSTKF00290420071126'
p333
sg4
S'20071125\xc2\xa008:13 PM EST'
p334
sg6
S'Markets rise after Wall Street rebound'
p335
sa(dp336
g2
S'http://www.reuters.com/article/newsMaps/idUSSP13148520071126'
p337
sg4
S'20071125\xc2\xa008:11 PM EST'
p338
sg6
S'Quake measuring 4.3 hits Indian capital area'
p339
sa(dp340
g2
S'http://www.reuters.com/article/ousiv/idUSN2331621620071126'
p341
sg4
S'20071125\xc2\xa008:10 PM EST'
p342
sg6
S"Housing, dollar, oil on stocks' radar"
p343
sa(dp344
g2
S'http://www.reuters.com/article/rbssConsumerGoodsAndRetailNews/idUSHKG33568520071126'
p345
sg4
S'20071125\xc2\xa008:07 PM EST'
p346
sg6
S'TABLE-Parkson Retail Q3 net profit up 45.4 pct'
p347
sa(dp348
g2
S'http://www.reuters.com/article/bondsNews/idUST30400620071126'
p349
sg4
S'20071125\xc2\xa008:00 PM EST'
p350
sg6
S'JGBs fall as stocks inch up, Treasuries ease'
p351
sa(dp352
g2
S'http://www.reuters.com/article/pressRelease/idUS16668+26-Nov-2007+PRN20071126'
p353
sg4
S'20071125\xc2\xa008:00 PM EST'
p354
sg6
S'Following Is a Test Release'
p355
sa(dp356
g2
S'http://www.reuters.com/article/pressRelease/idUS16635+26-Nov-2007+BW20071126'
p357
sg4
S'20071125\xc2\xa008:00 PM EST'
p358
sg6
S"The Magic of Macy's: Cyber Monday Exclusive Web-Busters"
p359
sa(dp360
g2
S'http://www.reuters.com/article/ousiv/idUSN2030232020071126'
p361
sg4
S'20071125\xc2\xa007:59 PM EST'
p362
sg6
S'A first-hand look at U.S. corporate cultures'
p363
sa(dp364
g2
S'http://www.reuters.com/article/tokyoMktRpt/idUST24663120071126'
p365
sg4
S'20071125\xc2\xa007:57 PM EST'
p366
sg6
S'Japan stocks edge up, banks and autos strong'
p367
sa(dp368
g2
S'http://www.reuters.com/article/latestCrisis/idUSN25465'
p369
sg4
S'20071125\xc2\xa007:56 PM EST'
p370
sg6
S'Bolivian protesters clash with police, storm jail'
p371
sa(dp372
g2
S'http://www.reuters.com/article/latestCrisis/idUSSP131485'
p373
sg4
S'20071125\xc2\xa007:49 PM EST'
p374
sg6
S'Quake measuring 4.3 hits Indian capital area'
p375
sa(dp376
g2
S'http://www.reuters.com/article/rbssIndustryMaterialsUtilitiesNews/idUSSYD16568320071126'
p377
sg4
S'20071125\xc2\xa007:48 PM EST'
p378
sg6
S'Ivernia: would take months to clear lead stockpile'
p379
sa(dp380
g2
S'http://www.reuters.com/article/rbssIndustryMaterialsUtilitiesNews/idUSSYU00355520071126'
p381
sg4
S'20071125\xc2\xa007:39 PM EST'
p382
sg6
S'Rio declares force majeure at Australia coal mine'
p383
sa(dp384
g2
S'http://www.reuters.com/article/rbssFinancialServicesAndRealEstateNews/idUSSYU00355420071126'
p385
sg4
S'20071125\xc2\xa007:39 PM EST'
p386
sg6
S'Goodman sets margin of A$325 mln hybrid at +190bp'
p387
sa(dp388
g2
S'http://www.reuters.com/article/privateEquity/idUSSIN16434220071126'
p389
sg4
S'20071125\xc2\xa007:37 PM EST'
p390
sg6
S'DBS Asset Management aims to reach $34 bln in 5 yrs-paper'
p391
sa(dp392
g2
S'http://www.reuters.com/article/latestCrisis/idUSL25172847'
p393
sg4
S'20071125\xc2\xa007:31 PM EST'
p394
sg6
S'Syria to attend Middle East conference in U.S.'
p395
sa(dp396
g2
S'http://www.reuters.com/article/pressRelease/idUS12949+26-Nov-2007+PRN20071126'
p397
sg4
S'20071125\xc2\xa007:30 PM EST'
p398
sg6
S'Following Is a Test Release'
p399
sa(dp400
g2
S'http://www.reuters.com/article/rbssTechMediaTelecomNews/idUSKLR13650520071126'
p401
sg4
S'20071125\xc2\xa007:29 PM EST'
p402
sg6
S'PRESS DIGEST - Malaysia - Nov 26'
p403
sa(dp404
g2
S'http://www.reuters.com/article/companyNewsAndPR/idUST26618120071126'
p405
sg4
S'20071125\xc2\xa007:27 PM EST'
p406
sg6
S"Japan's Hitachi eyes elevator demand in India"
p407
sa(dp408
g2
S'http://www.reuters.com/article/rbssHealthcareNews/idUSKLR13177620071126'
p409
sg4
S'20071125\xc2\xa007:25 PM EST'
p410
sg6
S'Malaysia Hot Stocks-Market to extend gains, planters eyed'
p411
sa(dp412
g2
S'http://www.reuters.com/article/fundsFundsNews/idUSSP306520071126'
p413
sg4
S'20071125\xc2\xa007:25 PM EST'
p414
sg6
S'PRESS DIGEST-Financial Times, Wall St Journal Asia editions'
p415
sa(dp416
g2
S'http://www.reuters.com/article/rbssFinancialServicesAndRealEstateNews/idUSSEO29972520071126'
p417
sg4
S'20071125\xc2\xa007:06 PM EST'
p418
sg6
S'South Korean shares opens up 1.7 pct on exporters'
p419
sa(dp420
g2
S'http://www.reuters.com/article/rbssFinancialServicesAndRealEstateNews/idUSL2529159620071126'
p421
sg4
S'20071125\xc2\xa007:01 PM EST'
p422
sg6
S"UK's Brown focuses on long-term despite credit crunch"
p423
sa(dp424
g2
S'http://www.reuters.com/article/bondsNews/idUSL2335126420071126'
p425
sg4
S'20071125\xc2\xa007:01 PM EST'
p426
sg6
S'Britons face credit challenge in Xmas run-up-study'
p427
sa(dp428
g2
S'http://www.reuters.com/article/pressRelease/idUS10035+26-Nov-2007+PRN20071126'
p429
sg4
S'20071125\xc2\xa007:00 PM EST'
p430
sg6
S'Following Is a Test Release'
p431
sa(dp432
g2
S'http://www.reuters.com/article/governmentFilingsNews/idUSL2333014220071126'
p433
sg4
S'20071125\xc2\xa007:00 PM EST'
p434
sg6
S'Carbon price vital but inadequate in climate crisis'
p435
sa(dp436
g2
S'http://www.reuters.com/article/pressRelease/idUS10019+26-Nov-2007+BW20071126'
p437
sg4
S'20071125\xc2\xa007:00 PM EST'
p438
sg6
S'OKI Printing Solutions (NZ) to Sponsor 2008 World Championship Sailing Regatta'
p439
sa(dp440
g2
S'http://www.reuters.com/article/filmNews/idUSN2364190520071125'
p441
sg4
S'20071125\xc2\xa006:59 PM EST'
p442
sg6
S'"Enchanted" pays homage to other Disney films'
p443
sa(dp444
g2
S'http://www.reuters.com/article/filmNews/idUSN2321821820071125'
p445
sg4
S'20071125\xc2\xa006:59 PM EST'
p446
sg6
S'"Shrek the Third" DVD generates green'
p447
sa(dp448
g2
S'http://www.reuters.com/article/entertainmentNews/idUSHO58214620071125'
p449
sg4
S'20071125\xc2\xa006:58 PM EST'
p450
sg6
S'"Enchanted" charms audiences at weekend box office'
p451
sa(dp452
g2
S'http://www.reuters.com/article/newsMaps/idUSSP13148520071125'
p453
sg4
S'20071125\xc2\xa006:56 PM EST'
p454
sg6
S'Quake measuring 4.3 hits Indian capital area'
p455
sa(dp456
g2
S'http://www.reuters.com/article/companyNewsAndPR/idUSN2533405920071125'
p457
sg4
S'20071125\xc2\xa006:56 PM EST'
p458
sg6
S"UPDATE 2-'Enchanted' charms audiences at weekend box office"
p459
sa(dp460
g2
S'http://www.reuters.com/article/companyNewsAndPR/idUST29494720071125'
p461
sg4
S'20071125\xc2\xa006:54 PM EST'
p462
sg6
S'Foreign brokers place net Japan stock sell orders'
p463
sa(dp464
g2
S'http://www.reuters.com/article/newsMaps/idUSL2516654220071125'
p465
sg4
S'20071125\xc2\xa006:50 PM EST'
p466
sg6
S'Clashes, buildings torched in Paris suburb'
p467
sa(dp468
g2
S'http://www.reuters.com/article/rbssConsumerGoodsAndRetailNews/idUSKLR13608420071125'
p469
sg4
S'20071125\xc2\xa006:50 PM EST'
p470
sg6
S'Malaysia Hot Stocks - Factors to watch'
p471
sa(dp472
g2
S'http://www.reuters.com/article/newsMaps/idUSL241334520071125'
p473
sg4
S'20071125\xc2\xa006:50 PM EST'
p474
sg6
S'Ruling conservatives edge ahead in Croatian vote'
p475
sa(dp476
g2
S'http://www.reuters.com/article/rbssIndustryMaterialsUtilitiesNews/idUSSIN17151420071125'
p477
sg4
S'20071125\xc2\xa006:41 PM EST'
p478
sg6
S'PRESS DIGEST - Singapore newspapers - Nov 26'
p479
sa(dp480
g2
S'http://www.reuters.com/article/latestCrisis/idUSSP135326'
p481
sg4
S'20071125\xc2\xa006:37 PM EST'
p482
sg6
S'Major tremor felt in Delhi - Reuters witness'
p483
sa(dp484
g2
S'http://www.reuters.com/article/rbssConsumerGoodsAndRetailNews/idUSHKG29420720071125'
p485
sg4
S'20071125\xc2\xa006:36 PM EST'
p486
sg6
S'Uni-President plans up to $529 mln Hong Kong IPO -source'
p487
sa(dp488
g2
S'http://www.reuters.com/article/bondsNews/idUSN2533294820071125'
p489
sg4
S'20071125\xc2\xa006:35 PM EST'
p490
sg6
S'UPDATE 1-Crews gain upper hand on fierce Malibu fire'
p491
sa(dp492
g2
S'http://www.reuters.com/article/latestCrisis/idUSN25332948'
p493
sg4
S'20071125\xc2\xa006:35 PM EST'
p494
sg6
S'Crews gain upper hand on fierce Malibu fire'
p495
sa(dp496
g2
S'http://www.reuters.com/article/companyNewsAndPR/idUSN2522699120071125'
p497
sg4
S'20071125\xc2\xa006:34 PM EST'
p498
sg6
S"YRC Worldwide shares seen attractive - Barron's"
p499
sa(dp500
g2
S'http://www.reuters.com/article/pressRelease/idUS76619+25-Nov-2007+PRN20071125'
p501
sg4
S'20071125\xc2\xa006:30 PM EST'
p502
sg6
S'Following Is a Test Release'
p503
sa(dp504
g2
S'http://www.reuters.com/article/pressRelease/idUS56031+26-Nov-2007+MW20071125'
p505
sg4
S'20071125\xc2\xa006:30 PM EST'
p506
sg6
S' Gemini Explorations Inc Commences Sampling of Proposed JV Mining Concessions to Expand the Los Chorros Gold Project'
p507
sa(dp508
g2
S'http://www.reuters.com/article/pressRelease/idUS56026+26-Nov-2007+MW20071125'
p509
sg4
S'20071125\xc2\xa006:30 PM EST'
p510
sg6
S' QED Connect Wins Contract With Easter Seals Greater Washington-Baltimore Region'
p511
sa(dp512
g2
S'http://www.reuters.com/article/rbssFinancialServicesAndRealEstateNews/idUSSEO26726420071125'
p513
sg4
S'20071125\xc2\xa006:29 PM EST'
p514
sg6
S'Seoul shares seen higher on exporters, banks'
p515
sa(dp516
g2
S'http://www.reuters.com/article/companyNewsAndPR/idUSN2533571520071125'
p517
sg4
S'20071125\xc2\xa006:26 PM EST'
p518
sg6
S"New gyms may boost Town Sports shares - Barron's"
p519
sa(dp520
g2
S'http://www.reuters.com/article/companyNewsAndPR/idUSL2519888720071125'
p521
sg4
S'20071125\xc2\xa006:23 PM EST'
p522
sg6
S'FACTBOX-German train drivers to decide on new wage offer'
p523
sa(dp524
g2
S'http://www.reuters.com/article/companyNewsAndPR/idUSN2533523820071125'
p525
sg4
S'20071125\xc2\xa006:22 PM EST'
p526
sg6
S"IBM shares may be cheap - Barron's"
p527
sa(dp528
g2
S'http://www.reuters.com/article/companyNewsAndPR/idUSN2533179620071125'
p529
sg4
S'20071125\xc2\xa006:20 PM EST'
p530
sg6
S"Private equity deal spreads may pay off-Barron's"
p531
sa(dp532
g2
S'http://www.reuters.com/article/pressRelease/idUS54338+26-Nov-2007+MW20071125'
p533
sg4
S'20071125\xc2\xa006:20 PM EST'
p534
sg6
S' DSM NeoResins+ completes new factory for waterborne alkyd resins in Hoek van Holland, the Netherlands'
p535
sa(dp536
g2
S'http://www.reuters.com/article/tokyoMktRpt/idUST31024120071125'
p537
sg4
S'20071125\xc2\xa006:16 PM EST'
p538
sg6
S'Japan stocks seen rising on Wall Street, yen'
p539
sa(dp540
g2
S'http://www.reuters.com/article/rbssConsumerGoodsAndRetailNews/idUSSYD16420620071125'
p541
sg4
S'20071125\xc2\xa006:08 PM EST'
p542
sg6
S'UPDATE 1-Tabcorp says horse flu to cut pretax earnings'
p543
sa(dp544
g2
S'http://www.reuters.com/article/latestCrisis/idUSHAM576695'
p545
sg4
S'20071125\xc2\xa006:08 PM EST'
p546
sg6
S'Kosovo ready if Serbia resists independence'
p547
sa(dp548
g2
S'http://www.reuters.com/article/ousiv/idUSN2331299620071125'
p549
sg4
S'20071125\xc2\xa006:07 PM EST'
p550
sg6
S'E*Trade may be in talks with other brokers'
p551
sa(dp552
g2
S'http://www.reuters.com/article/ousiv/idUSN2030232020071125'
p553
sg4
S'20071125\xc2\xa006:07 PM EST'
p554
sg6
S'A first-hand look at U.S. corporate cultures'
p555
sa(dp556
g2
S'http://www.reuters.com/article/ousiv/idUSN2435139020071125'
p557
sg4
S'20071125\xc2\xa006:07 PM EST'
p558
sg6
S'NatWest 3 bankers set for rearraignment in Texas'
p559
sa(dp560
g2
S'http://www.reuters.com/article/ousiv/idUSL2365200020071125'
p561
sg4
S'20071125\xc2\xa006:07 PM EST'
p562
sg6
S'Ifo and housing data take the spotlight'
p563
sa(dp564
g2
S'http://www.reuters.com/article/ousiv/idUSN2434571720071125'
p565
sg4
S'20071125\xc2\xa006:07 PM EST'
p566
sg6
S'Shopping crowds swell, but are they buying?'
p567
sa(dp568
g2
S'http://www.reuters.com/article/ousiv/idUSBAT00196420071125'
p569
sg4
S'20071125\xc2\xa006:07 PM EST'
p570
sg6
S'EADS says weak dollar threatens Airbus'
p571
sa(dp572
g2
S'http://www.reuters.com/article/ousiv/idUSN2331948520071125'
p573
sg4
S'20071125\xc2\xa006:07 PM EST'
p574
sg6
S'Freddie to raise $5 bln in preferred stock sale: report'
p575
sa(dp576
g2
S'http://www.reuters.com/article/ousivMolt/idUSL2515442820071125'
p577
sg4
S'20071125\xc2\xa006:06 PM EST'
p578
sg6
S'Northern Rock to name Virgin as preferred bidder'
p579
sa(dp580
g2
S'http://www.reuters.com/article/mergersNews/idUSL259043820071125'
p581
sg4
S'20071125\xc2\xa006:05 PM EST'
p582
sg6
S'UPDATE 1-N.Rock to name Virgin preferred bidder-source'
p583
sa(dp584
g2
S'http://www.reuters.com/article/rbssFinancialServicesAndRealEstateNews/idUSHKG23290220071125'
p585
sg4
S'20071125\xc2\xa006:04 PM EST'
p586
sg6
S'USI says to inject $144 mln properties into Winsor'
p587
sa(dp588
g2
S'http://www.reuters.com/article/technologyNews/idUSN2522709620071125'
p589
sg4
S'20071125\xc2\xa006:00 PM EST'
p590
sg6
S'MTV\'s "Rock Band" takes on "Guitar Hero"'
p591
sa(dp592
g2
S'http://www.reuters.com/article/pressRelease/idUS74927+25-Nov-2007+PRN20071125'
p593
sg4
S'20071125\xc2\xa006:00 PM EST'
p594
sg6
S'Following Is a Test Release'
p595
sa(dp596
g2
S'http://www.reuters.com/article/homepageCrisis/idUSL25268549._CH_.2400'
p597
sg4
S'20071125\xc2\xa006:00 PM EST'
p598
sg6
S'Darfur talks must switch tactics or fail -- group'
p599
sa(dp600
g2
S'http://www.reuters.com/article/latestCrisis/idUSL25268549'
p601
sg4
S'20071125\xc2\xa006:00 PM EST'
p602
sg6
S'Darfur talks must switch tactics or fail -- group'
p603
sa(dp604
g2
S'http://www.reuters.com/article/pressRelease/idUS74912+25-Nov-2007+BW20071125'
p605
sg4
S'20071125\xc2\xa006:00 PM EST'
p606
sg6
S'New Report Gives An Instant Overview Of The Australian Crude Oil Market, And Also...'
p607
sa(dp608
g2
S'http://www.reuters.com/article/pressRelease/idUS50339+26-Nov-2007+MW20071125'
p609
sg4
S'20071125\xc2\xa006:00 PM EST'
p610
sg6
S' African Copper PLC-Mowana Mine Project Update'
p611
sa(dp612
g2
S'http://www.reuters.com/article/pressRelease/idUS50127+26-Nov-2007+MW20071125'
p613
sg4
S'20071125\xc2\xa006:00 PM EST'
p614
sg6
S' JumpTV Inc.: Purchase of Own Shares'
p615
sa(dp616
g2
S'http://www.reuters.com/article/rbssHealthcareNews/idUSSYD28474720071125'
p617
sg4
S'20071125\xc2\xa005:58 PM EST'
p618
sg6
S"UPDATE 1-Australia's Healthscope, Symbion on trading halt"
p619
sa(dp620
g2
S'http://www.reuters.com/article/televisionNews/idUSN2322146120071125'
p621
sg4
S'20071125\xc2\xa005:55 PM EST'
p622
sg6
S'NBC slates vintage "Leno" during WGA strike'
p623
sa(dp624
g2
S'http://www.reuters.com/article/televisionNews/idUSB5587420071125'
p625
sg4
S'20071125\xc2\xa005:55 PM EST'
p626
sg6
S"Hulk Hogan's wife files for divorce: report"
p627
sa(dp628
g2
S'http://www.reuters.com/article/televisionNews/idUSN2533120620071125'
p629
sg4
S'20071125\xc2\xa005:55 PM EST'
p630
sg6
S'Post-"Sopranos," HBO not bleeding subscribers'
p631
sa(dp632
g2
S'http://www.reuters.com/article/rbssHealthcareNews/idUSSYU00355320071125'
p633
sg4
S'20071125\xc2\xa005:47 PM EST'
p634
sg6
S"Australia's Healthscope, Symbion on trading halt"
p635
sa(dp636
g2
S'http://www.reuters.com/article/musicNews/idUSN2333380620071125'
p637
sg4
S'20071125\xc2\xa005:44 PM EST'
p638
sg6
S'Interactive Web videos clicking with bands'
p639
sa(dp640
g2
S'http://www.reuters.com/article/musicNews/idUSL2466041820071125'
p641
sg4
S'20071125\xc2\xa005:44 PM EST'
p642
sg6
S'Bono and The Edge give surprise London set'
p643
sa(dp644
g2
S'http://www.reuters.com/article/musicNews/idUSSAT36159920071125'
p645
sg4
S'20071125\xc2\xa005:44 PM EST'
p646
sg6
S'Sly Stone makes his first NY stand in 32 years'
p647
sa(dp648
g2
S'http://www.reuters.com/article/musicNews/idUSN2358049520071125'
p649
sg4
S'20071125\xc2\xa005:44 PM EST'
p650
sg6
S'Dylan reworks "Hard Rain\'s" for Spanish expo'
p651
sa(dp652
g2
S'http://www.reuters.com/article/musicNews/idUSN2333388220071125'
p653
sg4
S'20071125\xc2\xa005:44 PM EST'
p654
sg6
S"Q&A-Singer-songwriter; Chapman living in the 'Moment'"
p655
sa(dp656
g2
S'http://www.reuters.com/article/musicNews/idUSN2333388120071125'
p657
sg4
S'20071125\xc2\xa005:44 PM EST'
p658
sg6
S'Anne Murray partners with "Friends and Legends"'
p659
sa(dp660
g2
S'http://www.reuters.com/article/musicNews/idUSN2333387620071125'
p661
sg4
S'20071125\xc2\xa005:44 PM EST'
p662
sg6
S'Club aims to return San Francisco to jazz glory'
p663
sa(dp664
g2
S'http://www.reuters.com/article/musicNews/idUSN2333386220071125'
p665
sg4
S'20071125\xc2\xa005:44 PM EST'
p666
sg6
S'Spatting brothers relink for Jesus and Mary Chain'
p667
sa(dp668
g2
S'http://www.reuters.com/article/musicNews/idUSN2333386120071125'
p669
sg4
S'20071125\xc2\xa005:44 PM EST'
p670
sg6
S'"Idol" runner-up Lewis realizes "Dream"'
p671
sa(dp672
g2
S'http://www.reuters.com/article/mediaNews/idUSN2532660420071125'
p673
sg4
S'20071125\xc2\xa005:42 PM EST'
p674
sg6
S"CORRECTED - UPDATE 1-'Enchanted' charms audiences at weekend box office"
p675
sa(dp676
g2
S'http://www.reuters.com/article/rbssConsumerGoodsAndRetailNews/idUSSYU00355220071125'
p677
sg4
S'20071125\xc2\xa005:42 PM EST'
p678
sg6
S'Tabcorp says horse flu to cut pretax earnings'
p679
sa(dp680
g2
S'http://www.reuters.com/article/topNews/idUSL0630141120071125'
p681
sg4
S'20071125\xc2\xa005:41 PM EST'
p682
sg6
S'Sharif returns to Pakistan from exile'
p683
sa(dp684
g2
S'http://www.reuters.com/article/newsMaps/idUSN2533017420071125'
p685
sg4
S'20071125\xc2\xa005:35 PM EST'
p686
sg6
S'Uribe is lying in hostage flap: Chavez'
p687
sa(dp688
g2
S'http://www.reuters.com/article/newsMaps/idUSN2536376520071125'
p689
sg4
S'20071125\xc2\xa005:35 PM EST'
p690
sg6
S"Brazil's Lula defends Chavez as referendum nears"
p691
sa(dp692
g2
S'http://www.reuters.com/article/pressRelease/idUS73524+25-Nov-2007+PRN20071125'
p693
sg4
S'20071125\xc2\xa005:30 PM EST'
p694
sg6
S'Following Is a Test Release'
p695
sa(dp696
g2
S'http://www.reuters.com/article/rbssIndustryMaterialsUtilitiesNews/idUSSYD14951520071125'
p697
sg4
S'20071125\xc2\xa005:27 PM EST'
p698
sg6
S"UPDATE 1-Australia's Zinifex says costs will crimp profit"
p699
sa(dp700
g2
S'http://www.reuters.com/article/rbssIndustryMaterialsUtilitiesNews/idUSSYU00355120071125'
p701
sg4
S'20071125\xc2\xa005:05 PM EST'
p702
sg6
S"Australia's Zinifex: Nyrstar sale to lift profit"
p703
sa(dp704
g2
S'http://www.reuters.com/article/pressRelease/idUS43042+26-Nov-2007+MW20071125'
p705
sg4
S'20071125\xc2\xa005:05 PM EST'
p706
sg6
S' TeraRecon Appoints New President'
p707
sa(dp708
g2
S'http://www.reuters.com/article/topNews/idUSN2536541020071125'
p709
sg4
S'20071125\xc2\xa005:00 PM EST'
p710
sg6
S'Retail traffic up with spending down in holiday start'
p711
sa(dp712
g2
S'http://www.reuters.com/article/pressRelease/idUS71907+25-Nov-2007+PRN20071125'
p713
sg4
S'20071125\xc2\xa005:00 PM EST'
p714
sg6
S'Following Is a Test Release'
p715
sa(dp716
g2
S'http://www.reuters.com/article/pressRelease/idUS71890+25-Nov-2007+BW20071125'
p717
sg4
S'20071125\xc2\xa005:00 PM EST'
p718
sg6
S'Assess Market Attractiveness by Reviewing Size and Growth Forecasts for the Potential...'
p719
sa(dp720
g2
S'http://www.reuters.com/article/pressRelease/idUS41825+26-Nov-2007+MW20071125'
p721
sg4
S'20071125\xc2\xa005:00 PM EST'
p722
sg6
S' TeleTech Expands Global Footprint Into South Africa'
p723
sa(dp724
g2
S'http://www.reuters.com/article/ousiv/idUSN2332199020071125'
p725
sg4
S'20071125\xc2\xa004:53 PM EST'
p726
sg6
S'Topps Meat to liquidate after huge beef recall'
p727
sa(dp728
g2
S'http://www.reuters.com/article/ousivMolt/idUSL2572905820071125'
p729
sg4
S'20071125\xc2\xa004:52 PM EST'
p730
sg6
S'N.Rock to name Virgin team preferred bidder: source'
p731
sa(dp732
g2
S'http://www.reuters.com/article/topNews/idUSFLE56120120071125'
p733
sg4
S'20071125\xc2\xa004:49 PM EST'
p734
sg6
S'Syria to attend U.S. Middle East conference'
p735
sa(dp736
g2
S'http://www.reuters.com/article/topNews/idUSRYA23395720071125'
p737
sg4
S'20071125\xc2\xa004:33 PM EST'
p738
sg6
S'At least 10 killed in Qaeda clash in Baghdad: police'
p739
sa(dp740
g2
S'http://www.reuters.com/article/rbssFinancialServicesAndRealEstateNews/idUSL253125720071125'
p741
sg4
S'20071125\xc2\xa004:31 PM EST'
p742
sg6
S"UPDATE 1-Portugal's BPI and BCP say merger talks fail"
p743
sa(dp744
g2
S'http://www.reuters.com/article/pressRelease/idUS70012+25-Nov-2007+PRN20071125'
p745
sg4
S'20071125\xc2\xa004:30 PM EST'
p746
sg6
S'Following Is a Test Release'
p747
sa(dp748
g2
S'http://www.reuters.com/article/rbssIndustryMaterialsUtilitiesNews/idUSSYD14879620071125'
p749
sg4
S'20071125\xc2\xa004:29 PM EST'
p750
sg6
S'RPT-Rio to flaunt own prospects in Monday presentation'
p751
sa(dp752
g2
S'http://www.reuters.com/article/companyNewsAndPR/idUSL2545192520071125'
p753
sg4
S'20071125\xc2\xa004:27 PM EST'
p754
sg6
S'Iran could help Europe meet energy needs-Total'
p755
sa(dp756
g2
S'http://www.reuters.com/article/latestCrisis/idUSANW527524'
p757
sg4
S'20071125\xc2\xa004:26 PM EST'
p758
sg6
S'FACTBOX-Security developments in Iraq, Nov 25'
p759
sa(dp760
g2
S'http://www.reuters.com/article/pressRelease/idUS69467+25-Nov-2007+BW20071125'
p761
sg4
S'20071125\xc2\xa004:22 PM EST'
p762
sg6
S'Statement by the President regarding the November 27 Annapolis Conference'
p763
sa(dp764
g2
S'http://www.reuters.com/article/innovationNews/idUSL2532383820071125'
p765
sg4
S'20071125\xc2\xa004:20 PM EST'
p766
sg6
S'N.Rock to name Virgin team as preferred bidder: report'
p767
sa(dp768
g2
S'http://www.reuters.com/article/latestCrisis/idUSL25320678'
p769
sg4
S'20071125\xc2\xa004:18 PM EST'
p770
sg6
S'Troops kill 10 Qaeda suspects in Iraq -US military'
p771
sa(dp772
g2
S'http://www.reuters.com/article/newsOne/idUSN2434852920071125'
p773
sg4
S'20071125\xc2\xa004:12 PM EST'
p774
sg6
S'Crews gain upper hand on Malibu fire'
p775
sa(dp776
g2
S'http://www.reuters.com/article/bondsNews/idUSN2533067620071125'
p777
sg4
S'20071125\xc2\xa004:10 PM EST'
p778
sg6
S'UPDATE 1-Crews gain upper hand on Malibu fire'
p779
sa(dp780
g2
S'http://www.reuters.com/article/latestCrisis/idUSN25330676'
p781
sg4
S'20071125\xc2\xa004:10 PM EST'
p782
sg6
S'Crews gain upper hand on Malibu fire'
p783
sa(dp784
g2
S'http://www.reuters.com/article/scienceNews/idUSJAK14479920071125'
p785
sg4
S'20071125\xc2\xa004:06 PM EST'
p786
sg6
S'Series of quakes hit off Indonesian islands'
p787
sa(dp788
g2
S'http://www.reuters.com/article/latestCrisis/idUSN25470434'
p789
sg4
S'20071125\xc2\xa004:05 PM EST'
p790
sg6
S"Venezuela's Chavez says Uribe lies in hostage flap"
p791
sa(dp792
g2
S'http://www.reuters.com/article/pressRelease/idUS68221+25-Nov-2007+BW20071125'
p793
sg4
S'20071125\xc2\xa004:05 PM EST'
p794
sg6
S'Top 25 Team Rankings of the Harris Interactive College Football Poll'
p795
sa(dp796
g2
S'http://www.reuters.com/article/pressRelease/idUS67949+25-Nov-2007+PRN20071125'
p797
sg4
S'20071125\xc2\xa004:00 PM EST'
p798
sg6
S'Following Is a Test Release'
p799
sa(dp800
g2
S'http://www.reuters.com/article/sportsNews/idUSL2355309320071125'
p801
sg4
S'20071125\xc2\xa003:54 PM EST'
p802
sg6
S'More than 150 nations await World Cup draw'
p803
sa(dp804
g2
S'http://www.reuters.com/article/newsMaps/idUSL2514495620071125'
p805
sg4
S'20071125\xc2\xa003:44 PM EST'
p806
sg6
S'Russian police round up anti-Putin protesters'
p807
sa(dp808
g2
S'http://www.reuters.com/article/latestCrisis/idUSN25330045'
p809
sg4
S'20071125\xc2\xa003:32 PM EST'
p810
sg6
S'Colombia has "spit in our face": Venezuela\'s Chavez'
p811
sa(dp812
g2
S'http://www.reuters.com/article/pressRelease/idUS66182+25-Nov-2007+PRN20071125'
p813
sg4
S'20071125\xc2\xa003:30 PM EST'
p814
sg6
S'Following Is a Test Release'
p815
sa(dp816
g2
S'http://www.reuters.com/article/pressRelease/idUS66122+25-Nov-2007+PRN20071125'
p817
sg4
S'20071125\xc2\xa003:29 PM EST'
p818
sg6
S'Black Friday Sees $531 Million in Online Retail Spending, Up 22 Percent Versus Last...'
p819
sa(dp820
g2
S'http://www.reuters.com/article/pressReleasesMolt/idUSN2520396620071125'
p821
sg4
S'20071125\xc2\xa003:25 PM EST'
p822
sg6
S"Harley-Davidson shares have room to run: Barron's"
p823
sa(dp824
g2
S'http://www.reuters.com/article/rbssFinancialServicesAndRealEstateNews/idUSL2529709920071125'
p825
sg4
S'20071125\xc2\xa003:23 PM EST'
p826
sg6
S'BPI and BCP say merger talks fail'
p827
sa(dp828
g2
S'http://www.reuters.com/article/worldNews/idUSL2516044820071125'
p829
sg4
S'20071125\xc2\xa003:23 PM EST'
p830
sg6
S'Hezbollah raises specter of long Lebanon power void'
p831
sa(dp832
g2
S'http://www.reuters.com/article/pressRelease/idUS65421+25-Nov-2007+PRN20071125'
p833
sg4
S'20071125\xc2\xa003:15 PM EST'
p834
sg6
S'NEWSWEEK: International Editions: Highlights and Exclusives December 3, 2007 Issue'
p835
sa(dp836
g2
S'http://www.reuters.com/article/pressRelease/idUS65158+25-Nov-2007+BW20071125'
p837
sg4
S'20071125\xc2\xa003:11 PM EST'
p838
sg6
S'International Stem Cell Corporation CEO Issues Statement on De-Differentiation Research...'
p839
sa(dp840
g2
S'http://www.reuters.com/article/entertainmentNews/idUSN2536490120071125'
p841
sg4
S'20071125\xc2\xa003:07 PM EST'
p842
sg6
S'"Enchanted" charms audiences at weekend box office'
p843
sa(dp844
g2
S'http://www.reuters.com/article/pressRelease/idUS64363+25-Nov-2007+PRN20071125'
p845
sg4
S'20071125\xc2\xa003:00 PM EST'
p846
sg6
S'Following Is a Test Release'
p847
sa(dp848
g2
S'http://www.reuters.com/article/pressRelease/idUS64354+25-Nov-2007+PRN20071125'
p849
sg4
S'20071125\xc2\xa003:00 PM EST'
p850
sg6
S'Siemens Showcases Its Most Comprehensive and Advanced Breast Care Portfolio'
p851
sa(dp852
g2
S'http://www.reuters.com/article/pressRelease/idUS64345+25-Nov-2007+BW20071125'
p853
sg4
S'20071125\xc2\xa003:00 PM EST'
p854
sg6
S'Marler Clark Comments on American Foods Group Recall of Ground Beef Products due...'
p855
sa(dp856
g2
S'http://www.reuters.com/article/topNews/idUSN2434766720071125'
p857
sg4
S'20071125\xc2\xa002:55 PM EST'
p858
sg6
S'Last from Antarctica shipwreck reach Chile'
p859
sa(dp860
g2
S'http://www.reuters.com/article/environmentNews/idUSSAT46055620071125'
p861
sg4
S'20071125\xc2\xa002:51 PM EST'
p862
sg6
S'Commonwealth fails to back climate targets'
p863
sa(dp864
g2
S'http://www.reuters.com/article/environmentNews/idUSN2331958920071125'
p865
sg4
S'20071125\xc2\xa002:51 PM EST'
p866
sg6
S'Enbridge sees big wind farm running in a year'
p867
sa(dp868
g2
S'http://www.reuters.com/article/environmentNews/idUSL2519416620071125'
p869
sg4
S'20071125\xc2\xa002:51 PM EST'
p870
sg6
S'Commonwealth not strong enough on climate: St. Kitts'
p871
sa(dp872
g2
S'http://www.reuters.com/article/environmentNews/idUSL2241148420071125'
p873
sg4
S'20071125\xc2\xa002:51 PM EST'
p874
sg6
S'Renewable energy goal based on GDP'
p875
sa(dp876
g2
S'http://www.reuters.com/article/environmentNews/idUSL2188747620071125'
p877
sg4
S'20071125\xc2\xa002:51 PM EST'
p878
sg6
S'Evolution seen key to saving fish stocks'
p879
sa(dp880
g2
S'http://www.reuters.com/article/environmentNews/idUSFLE36103820071125'
p881
sg4
S'20071125\xc2\xa002:51 PM EST'
p882
sg6
S'Carbon dioxide at record high, stoking warming: WMO'
p883
sa(dp884
g2
S'http://www.reuters.com/article/topNews/idUSL2518480220071125'
p885
sg4
S'20071125\xc2\xa002:50 PM EST'
p886
sg6
S'Disasters quadruple over last 20 years: Oxfam'
p887
sa(dp888
g2
S'http://www.reuters.com/article/entertainmentNews/idUSN2522709520071125'
p889
sg4
S'20071125\xc2\xa002:42 PM EST'
p890
sg6
S'Q&A;: McCartney channels inspiration into "Full" slate'
p891
sa(dp892
g2
S'http://www.reuters.com/article/rbssEnergyNews/idUSL2531083020071125'
p893
sg4
S'20071125\xc2\xa002:41 PM EST'
p894
sg6
S"Total CEO unimpressed with L'Oreal's Sanofi price"
p895
sa(dp896
g2
S'http://www.reuters.com/article/pressRelease/idUS62517+25-Nov-2007+PRN20071125'
p897
sg4
S'20071125\xc2\xa002:30 PM EST'
p898
sg6
S'Following Is a Test Release'
p899
sa(dp900
g2
S'http://www.reuters.com/article/pressRelease/idUS61964+25-Nov-2007+PRN20071125'
p901
sg4
S'20071125\xc2\xa002:19 PM EST'
p902
sg6
S'NEWSWEEK: Media Lead Sheet/December 3, 2007 Issue (on newsstands Monday, November...'
p903
sa(dp904
g2
S'http://www.reuters.com/article/companyNewsAndPR/idUSL2529051520071125'
p905
sg4
S'20071125\xc2\xa002:17 PM EST'
p906
sg6
S'UPDATE 1-RWE abandons power plant project after local vote'
p907
sa(dp908
g2
S'http://www.reuters.com/article/sportsNews/idUSL2549973520071125'
p909
sg4
S'20071125\xc2\xa002:16 PM EST'
p910
sg6
S'Gay and Defar named as IAAF athletes of the year'
p911
sa(dp912
g2
S'http://www.reuters.com/article/peopleNews/idUSN2060414420071125'
p913
sg4
S'20071125\xc2\xa002:12 PM EST'
p914
sg6
S'Actor Kiel takes new role as author'
p915
sa(dp916
g2
S'http://www.reuters.com/article/peopleNews/idUSN2046017020071125'
p917
sg4
S'20071125\xc2\xa002:12 PM EST'
p918
sg6
S'Needs of dying children wins heart of actress'
p919
sa(dp920
g2
S'http://www.reuters.com/article/peopleNews/idUSL233776820071125'
p921
sg4
S'20071125\xc2\xa002:12 PM EST'
p922
sg6
S"Winehouse's husband remanded in custody"
p923
sa(dp924
g2
S'http://www.reuters.com/article/peopleNews/idUSHO56911020071125'
p925
sg4
S'20071125\xc2\xa002:12 PM EST'
p926
sg6
S'Beckham accused of Sydney cancer kids snub'
p927
sa(dp928
g2
S'http://www.reuters.com/article/companyNewsAndPR/idUSN2536595920071125'
p929
sg4
S'20071125\xc2\xa002:08 PM EST'
p930
sg6
S'The top films at the North American box office'
p931
sa(dp932
g2
S'http://www.reuters.com/article/companyNewsAndPR/idUSL2355682420071125'
p933
sg4
S'20071125\xc2\xa002:08 PM EST'
p934
sg6
S"RWE power plant project questioned by locals' vote"
p935
sa(dp936
g2
S'http://www.reuters.com/article/mergersNews/idUSL2528735720071125'
p937
sg4
S'20071125\xc2\xa002:08 PM EST'
p938
sg6
S'UPDATE 1-French bank Natixis hit by financial crisis in Q3'
p939
sa(dp940
g2
S'http://www.reuters.com/article/bondsNews/idUSN2521604520071125'
p941
sg4
S'20071125\xc2\xa002:08 PM EST'
p942
sg6
S'WEEKAHEAD-Emerging debt: stick to fundamentals after selloff'
p943
sa(dp944
g2
S'http://www.reuters.com/article/peopleNews/idUSSYD14797420071125'
p945
sg4
S'20071125\xc2\xa002:01 PM EST'
p946
sg6
S'Beckham accused of Sydney cancer kids snub'
p947
sa(dp948
g2
S'http://www.reuters.com/article/pressRelease/idUS60825+25-Nov-2007+PRN20071125'
p949
sg4
S'20071125\xc2\xa002:00 PM EST'
p950
sg6
S'Following Is a Test Release'
p951
sa(dp952
g2
S'http://www.reuters.com/article/entertainmentNews/idUSDEL17508220071125'
p953
sg4
S'20071125\xc2\xa001:48 PM EST'
p954
sg6
S'"Elizabeth" director inspired by cockroaches tale'
p955
sa(dp956
g2
S'http://www.reuters.com/article/pressRelease/idUS60438+25-Nov-2007+PRN20071125'
p957
sg4
S'20071125\xc2\xa001:43 PM EST'
p958
sg6
S"Nearly 50% of Workers to Shop Online Tomorrow, 'Cyber Monday'"
p959
sa(dp960
g2
S'http://www.reuters.com/article/entertainmentNews/idUSPEK27542620071125'
p961
sg4
S'20071125\xc2\xa001:34 PM EST'
p962
sg6
S'Jet Li breaks record with $13 mln paycheck'
p963
sa(dp964
g2
S'http://www.reuters.com/article/pressRelease/idUS60037+25-Nov-2007+PRN20071125'
p965
sg4
S'20071125\xc2\xa001:30 PM EST'
p966
sg6
S'Following Is a Test Release'
p967
sa(dp968
g2
S'http://www.reuters.com/article/mergersNews/idUSL2527798720071125'
p969
sg4
S'20071125\xc2\xa001:22 PM EST'
p970
sg6
S'UPDATE 1-Arcandor finds buyer for Karstadt property-paper'
p971
sa(dp972
g2
S'http://www.reuters.com/article/governmentFilingsNews/idUSB26857820071125'
p973
sg4
S'20071125\xc2\xa001:16 PM EST'
p974
sg6
S'France tackles China over Danone, Schneider legal spats'
p975
sa(dp976
g2
S'http://www.reuters.com/article/latestCrisis/idUSN25269716'
p977
sg4
S'20071125\xc2\xa001:04 PM EST'
p978
sg6
S'Last from Antarctica shipwreck reach Chile'
p979
sa(dp980
g2
S'http://www.reuters.com/article/tnBasicIndustries-SP/idUSL2523964620071125'
p981
sg4
S'20071125\xc2\xa001:03 PM EST'
p982
sg6
S'Ford unveils updated Focus model for Europe'
p983
sa(dp984
g2
S'http://www.reuters.com/article/worldNews/idUSN2541391920071125'
p985
sg4
S'20071125\xc2\xa001:03 PM EST'
p986
sg6
S'U.S. says troubled by Kasparov arrest in Moscow'
p987
sa(dp988
g2
S'http://www.reuters.com/article/latestCrisis/idUSJAK162363'
p989
sg4
S'20071125\xc2\xa001:01 PM EST'
p990
sg6
S"Earthquake hits off coast of Indonesia's Sumatra -agency"
p991
sa(dp992
g2
S'http://www.reuters.com/article/pressRelease/idUS58965+25-Nov-2007+PRN20071125'
p993
sg4
S'20071125\xc2\xa001:00 PM EST'
p994
sg6
S'Following Is a Test Release'
p995
sa(dp996
g2
S'http://www.reuters.com/article/latestCrisis/idUSN25413919'
p997
sg4
S'20071125\xc2\xa012:53 PM EST'
p998
sg6
S'U.S. says troubled by Kasparov arrest in Moscow'
p999
sa(dp1000
g2
S'http://www.reuters.com/article/pressRelease/idUS58745+25-Nov-2007+PRN20071125'
p1001
sg4
S'20071125\xc2\xa012:51 PM EST'
p1002
sg6
S"NEWSWEEK: 'Golden Compass' Author Pullman on Catholic League's Claim That the Film..."
p1003
sa(dp1004
g2
S'http://www.reuters.com/article/pressRelease/idUS58251+25-Nov-2007+MW20071125'
p1005
sg4
S'20071125\xc2\xa012:36 PM EST'
p1006
sg6
S' Natixis: Results at September 30, 2007(1) First Nine Months of 2007'
p1007
sa(dp1008
g2
S'http://www.reuters.com/article/pressRelease/idUS58025+25-Nov-2007+PRN20071125'
p1009
sg4
S'20071125\xc2\xa012:30 PM EST'
p1010
sg6
S'Following Is a Test Release'
p1011
sa(dp1012
g2
S'http://www.reuters.com/article/pressRelease/idUS58022+25-Nov-2007+BW20071125'
p1013
sg4
S'20071125\xc2\xa012:30 PM EST'
p1014
sg6
S'MEMSCAP Finalizes the Acquisition of Laboratoires La Licorne'
p1015
sa(dp1016
g2
S'http://www.reuters.com/article/latestCrisis/idUSN25363459'
p1017
sg4
S'20071125\xc2\xa012:27 PM EST'
p1018
sg6
S'California fire partly contained, winds die down'
p1019
sa(dp1020
g2
S'http://www.reuters.com/article/bondsNews/idUSN2536345920071125'
p1021
sg4
S'20071125\xc2\xa012:27 PM EST'
p1022
sg6
S'California fire partly contained, winds die down'
p1023
sa(dp1024
g2
S'http://www.reuters.com/article/latestCrisis/idUSL25268581'
p1025
sg4
S'20071125\xc2\xa012:27 PM EST'
p1026
sg6
S'Gunmen enter Chadian towns, beat aid staff'
p1027
sa(dp1028
g2
S'http://www.reuters.com/article/scienceNews/idUSL2519900420071125'
p1029
sg4
S'20071125\xc2\xa012:25 PM EST'
p1030
sg6
S'Scientists urge $2-3 billion study of ocean health'
p1031
sa(dp1032
g2
S'http://www.reuters.com/article/filmNews/idUSPEK31243620071125'
p1033
sg4
S'20071125\xc2\xa012:25 PM EST'
p1034
sg6
S'Hollywood giants sue Chinese Internet site: report'
p1035
sa(dp1036
g2
S'http://www.reuters.com/article/filmNews/idUSN2122220920071125'
p1037
sg4
S'20071125\xc2\xa012:25 PM EST'
p1038
sg6
S'Pitt pulls out of thriller "Play"'
p1039
sa(dp1040
g2
S'http://www.reuters.com/article/filmNews/idUSN2118636920071125'
p1041
sg4
S'20071125\xc2\xa012:25 PM EST'
p1042
sg6
S'Dennis Quaid twins recovering from medical overdose'
p1043
sa(dp1044
g2
S'http://www.reuters.com/article/rbssFinancialServicesAndRealEstateNews/idUSPAC00896020071125'
p1045
sg4
S'20071125\xc2\xa012:18 PM EST'
p1046
sg6
S'French bank Natixis hit by financial crisis in Q3'
p1047
sa(dp1048
g2
S'http://www.reuters.com/article/pressRelease/idUS57589+25-Nov-2007+PRN20071125'
p1049
sg4
S'20071125\xc2\xa012:17 PM EST'
p1050
sg6
S"NEWSWEEK: Cover: Rudy's Roots"
p1051
sa(dp1052
g2
S'http://www.reuters.com/article/latestCrisis/idUSL25279849'
p1053
sg4
S'20071125\xc2\xa012:12 PM EST'
p1054
sg6
S'Commonwealth condemns EU for cutting sugar deal'
p1055
sa(dp1056
g2
S'http://www.reuters.com/article/bondsNews/idUSPEK27417520071125'
p1057
sg4
S'20071125\xc2\xa012:09 PM EST'
p1058
sg6
S'UPDATE 3-Sarkozy leans on China to let its currency rise'
p1059
sa(dp1060
g2
S'http://www.reuters.com/article/topNews/idUSL2513493420071125'
p1061
sg4
S'20071125\xc2\xa012:02 PM EST'
p1062
sg6
S'Arabs give U.S., Israel benefit of doubt at Annapolis'
p1063
sa(dp1064
g2
S'http://www.reuters.com/article/topNews/idUSL2522656720071125'
p1065
sg4
S'20071125\xc2\xa012:02 PM EST'
p1066
sg6
S'FACTBOX: What Bush, Olmert and Abbas hope to achieve'
p1067
sa(dp1068
g2
S'http://www.reuters.com/article/topNews/idUSL2522443720071125'
p1069
sg4
S'20071125\xc2\xa012:02 PM EST'
p1070
sg6
S'FACTBOX: Palestinian President Mahmoud Abbas'
p1071
sa(dp1072
g2
S'http://www.reuters.com/article/topNews/idUSL2522376520071125'
p1073
sg4
S'20071125\xc2\xa012:02 PM EST'
p1074
sg6
S"FACTBOX: Israel's Prime Minister Ehud Olmert"
p1075
sa(dp1076
g2
S'http://www.reuters.com/article/topNews/idUSL2522232920071125'
p1077
sg4
S'20071125\xc2\xa012:02 PM EST'
p1078
sg6
S'FACTBOX: Olmert and Abbas: the distance between them'
p1079
sa(dp1080
g2
S'http://www.reuters.com/article/topNews/idUSL2522017020071125'
p1081
sg4
S'20071125\xc2\xa012:02 PM EST'
p1082
sg6
S'FACTBOX: Where past Middle East peace talks faltered'
p1083
sa(dp1084
g2
S'http://www.reuters.com/article/topNews/idUSL2521695220071125'
p1085
sg4
S'20071125\xc2\xa012:02 PM EST'
p1086
sg6
S'Hamas, from sidelines, speaks in different voices'
p1087
sa(dp1088
g2
S'http://www.reuters.com/article/topNews/idUSL2519771020071125'
p1089
sg4
S'20071125\xc2\xa012:02 PM EST'
p1090
sg6
S'CHRONOLOGY: Middle East peacemaking'
p1091
sa(dp1092
g2
S'http://www.reuters.com/article/topNews/idUSL2518561320071125'
p1093
sg4
S'20071125\xc2\xa012:02 PM EST'
p1094
sg6
S'Hezbollah dismisses Annapolis talks as "media show"'
p1095
sa(dp1096
g2
S'http://www.reuters.com/article/topNews/idUSL2517751320071125'
p1097
sg4
S'20071125\xc2\xa012:02 PM EST'
p1098
sg6
S'Pray for success of Annapolis conference, Pope urges'
p1099
sa(dp1100
g2
S'http://www.reuters.com/article/topNews/idUSL2515789720071125'
p1101
sg4
S'20071125\xc2\xa012:02 PM EST'
p1102
sg6
S'"If Annapolis fails, smash me," souvenir mug says'
p1103
sa(dp1104
g2
S'http://www.reuters.com/article/topNews/idUSL2524475320071125'
p1105
sg4
S'20071125\xc2\xa012:02 PM EST'
p1106
sg6
S'Skeptical Palestinians see limited Annapolis gains'
p1107
sa(dp1108
g2
S'http://www.reuters.com/article/pressRelease/idUS56898+25-Nov-2007+PRN20071125'
p1109
sg4
S'20071125\xc2\xa012:00 PM EST'
p1110
sg6
S'Siemens Introduces Its New Generation of Artis Interventional Imaging Systems'
p1111
sa(dp1112
g2
S'http://www.reuters.com/article/topNews/idUSFLE56090720071125'
p1113
sg4
S'20071125\xc2\xa012:00 PM EST'
p1114
sg6
S'CORRECTED: Syria to join US-led Middle East conference'
p1115
sa(dp1116
g2
S'http://www.reuters.com/article/pressRelease/idUS56852+25-Nov-2007+PRN20071125'
p1117
sg4
S'20071125\xc2\xa012:00 PM EST'
p1118
sg6
S'Following Is a Test Release'
p1119
sa(dp1120
g2
S'http://www.reuters.com/article/pressRelease/idUS56846+25-Nov-2007+PRN20071125'
p1121
sg4
S'20071125\xc2\xa012:00 PM EST'
p1122
sg6
S'Chase Daniel, Tim Tebow, Pat White, Ben Mauk Announced as Week Thirteen Nominees...'
p1123
sa(dp1124
g2
S'http://www.reuters.com/article/latestCrisis/idUSJAK144799'
p1125
sg4
S'20071125\xc2\xa011:59 AM EST'
p1126
sg6
S"Earthquake hits off Indonesia's coast -agency"
p1127
sa(dp1128
g2
S'http://www.reuters.com/article/pressRelease/idUS16716+26-Nov-2007+MW20071125'
p1129
sg4
S'20071125\xc2\xa011:59 AM EST'
p1130
sg6
S' Vans Triple Crown Brings World-Class Surfers and Their Admirers'
p1131
sa(dp1132
g2
S'http://www.reuters.com/article/topNews/idUSL2517284720071125'
p1133
sg4
S'20071125\xc2\xa011:55 AM EST'
p1134
sg6
S'Syria to join US-led Middle East conference'
p1135
sa(dp1136
g2
S'http://www.reuters.com/article/environmentNews/idUSL2268988620071125'
p1137
sg4
S'20071125\xc2\xa011:51 AM EST'
p1138
sg6
S'WW2 bombs may have contaminated Baltic fish'
p1139
sa(dp1140
g2
S'http://www.reuters.com/article/environmentNews/idUSHKG29302520071125'
p1141
sg4
S'20071125\xc2\xa011:51 AM EST'
p1142
sg6
S'History shows climate changes led to war'
p1143
sa(dp1144
g2
S'http://www.reuters.com/article/environmentNews/idUSPEK29909320071125'
p1145
sg4
S'20071125\xc2\xa011:51 AM EST'
p1146
sg6
S'China wants rich nations to take lead in climate talks'
p1147
sa(dp1148
g2
S'http://www.reuters.com/article/topNews/idUSL0667667620071125'
p1149
sg4
S'20071125\xc2\xa011:48 AM EST'
p1150
sg6
S'Row mars Iraq parliament hearing on Baathists bill'
p1151
sa(dp1152
g2
S'http://www.reuters.com/article/topNews/idUSL2521107520071125'
p1153
sg4
S'20071125\xc2\xa011:48 AM EST'
p1154
sg6
S'Iraq says border improved but more security needed'
p1155
sa(dp1156
g2
S'http://www.reuters.com/article/topNews/idUSOWE54931520071125'
p1157
sg4
S'20071125\xc2\xa011:47 AM EST'
p1158
sg6
S'CORRECTED: Syria says will go to Annapolis conference'
p1159
sa(dp1160
g2
S'http://www.reuters.com/article/latestCrisis/idUSL25211075'
p1161
sg4
S'20071125\xc2\xa011:46 AM EST'
p1162
sg6
S'Iraq says border improved but more security needed'
p1163
sa(dp1164
g2
S'http://www.reuters.com/article/rbssConsumerGoodsAndRetailNews/idUSL2525570620071125'
p1165
sg4
S'20071125\xc2\xa011:40 AM EST'
p1166
sg6
S'Party frocks, sexy undies lift John Lewis sales'
p1167
sa(dp1168
g2
S'http://www.reuters.com/article/topNews/idUSL2517836620071125'
p1169
sg4
S'20071125\xc2\xa011:38 AM EST'
p1170
sg6
S'World Anglican leader launches attack on U.S.'
p1171
sa(dp1172
g2
S'http://www.reuters.com/article/pressRelease/idUS55715+25-Nov-2007+PRN20071125'
p1173
sg4
S'20071125\xc2\xa011:30 AM EST'
p1174
sg6
S'Following Is a Test Release'
p1175
sa(dp1176
g2
S'http://www.reuters.com/article/latestCrisis/idUSL25269383'
p1177
sg4
S'20071125\xc2\xa011:27 AM EST'
p1178
sg6
S'Earthquake hits off coast of Indonesia - agency'
p1179
sa(dp1180
g2
S'http://www.reuters.com/article/companyNewsAndPR/idUSN2536406520071125'
p1181
sg4
S'20071125\xc2\xa011:25 AM EST'
p1182
sg6
S'RPT-PREVIEW-EU officials to talk tough on trade in China'
p1183
sa(dp1184
g2
S'http://www.reuters.com/article/newsMaps/idUSFLE55660620071125'
p1185
sg4
S'20071125\xc2\xa011:16 AM EST'
p1186
sg6
S'Sharif makes it back to Pakistan second time lucky'
p1187
sa(dp1188
g2
S'http://www.reuters.com/article/rbssTechMediaTelecomNews/idUSL2524146920071125'
p1189
sg4
S'20071125\xc2\xa011:13 AM EST'
p1190
sg6
S"Israel's Bezeq losing market share to cable firms"
p1191
sa(dp1192
g2
S'http://www.reuters.com/article/latestCrisis/idUSL25236175'
p1193
sg4
S'20071125\xc2\xa011:04 AM EST'
p1194
sg6
S'Turkish police use tear gas against Kurd protesters'
p1195
sa(dp1196
g2
S'http://www.reuters.com/article/pressRelease/idUS54534+25-Nov-2007+PRN20071125'
p1197
sg4
S'20071125\xc2\xa011:00 AM EST'
p1198
sg6
S'Following Is a Test Release'
p1199
sa(dp1200
g2
S'http://www.reuters.com/article/pressRelease/idUS54515+25-Nov-2007+BW20071125'
p1201
sg4
S'20071125\xc2\xa011:00 AM EST'
p1202
sg6
S'Philips Unveils Computed Tomography (CT) System That Scans the Heart in Two Beats...'
p1203
sa(dp1204
g2
S'http://www.reuters.com/article/pressRelease/idUS54433+25-Nov-2007+MW20071125'
p1205
sg4
S'20071125\xc2\xa010:57 AM EST'
p1206
sg6
S' Investing Systems Network Features Holiday Specials on Their Best Selling Stock Picking Software and Technical Trading'
p1207
sa(dp1208
g2
S'http://www.reuters.com/article/latestCrisis/idUSL25239425'
p1209
sg4
S'20071125\xc2\xa010:54 AM EST'
p1210
sg6
S'Storm-hit Bangladesh prepares for US-aided airlift'
p1211
sa(dp1212
g2
S'http://www.reuters.com/article/mediaNews/idUSL2524490720071125'
p1213
sg4
S'20071125\xc2\xa010:51 AM EST'
p1214
sg6
S'UPDATE 1-Georgians rally against leader Saakashvili'
p1215
sa(dp1216
g2
S'http://www.reuters.com/article/rbssFinancialServicesAndRealEstateNews/idUSL2521888220071125'
p1217
sg4
S'20071125\xc2\xa010:49 AM EST'
p1218
sg6
S'UK firms and workers fear credit crunch -studies'
p1219
sa(dp1220
g2
S'http://www.reuters.com/article/consumerproducts-SP/idUSL2523549920071125'
p1221
sg4
S'20071125\xc2\xa010:41 AM EST'
p1222
sg6
S'UPDATE 1-M&B; and pub firm Punch bat away bid speculation'
p1223
sa(dp1224
g2
S'http://www.reuters.com/article/newsMaps/idUSFLE55626920071125'
p1225
sg4
S'20071125\xc2\xa010:38 AM EST'
p1226
sg6
S'CORRECTED: Sharif makes it back to Pakistan second time lucky'
p1227
sa(dp1228
g2
S'http://www.reuters.com/article/latestCrisis/idUSL25244753'
p1229
sg4
S'20071125\xc2\xa010:37 AM EST'
p1230
sg6
S'Sceptical Palestinians see limited Annapolis gains'
p1231
sa(dp1232
g2
S'http://www.reuters.com/article/latestCrisis/idUSB228717'
p1233
sg4
S'20071125\xc2\xa010:35 AM EST'
p1234
sg6
S'Commonwealth united on Pakistan, split on climate'
p1235
sa(dp1236
g2
S'http://www.reuters.com/article/rbssTechMediaTelecomNews/idUSJER00244420071125'
p1237
sg4
S'20071125\xc2\xa010:31 AM EST'
p1238
sg6
S'DIARY - Israel - To December 23'
p1239
sa(dp1240
g2
S'http://www.reuters.com/article/pressRelease/idUS53397+25-Nov-2007+PRN20071125'
p1241
sg4
S'20071125\xc2\xa010:30 AM EST'
p1242
sg6
S'Following Is a Test Release'
p1243
sa(dp1244
g2
S'http://www.reuters.com/article/rbssFinancialServicesAndRealEstateNews/idUSL254972820071125'
p1245
sg4
S'20071125\xc2\xa010:25 AM EST'
p1246
sg6
S'UPDATE 1-Schroders cuts UK property fund values by eighth'
p1247
sa(dp1248
g2
S'http://www.reuters.com/article/ousivMolt/idUSN2331621620071125'
p1249
sg4
S'20071125\xc2\xa010:22 AM EST'
p1250
sg6
S"Housing, dollar, oil on stocks' radar"
p1251
sa(dp1252
g2
S'http://www.reuters.com/article/usMktRpt/idUSN2533690720071125'
p1253
sg4
S'20071125\xc2\xa010:21 AM EST'
p1254
sg6
S"RPT-Wall St Week Ahead: Housing, dollar, oil on stocks' radar"
p1255
sa(dp1256
g2
S'http://www.reuters.com/article/latestCrisis/idUSL25216952'
p1257
sg4
S'20071125\xc2\xa010:19 AM EST'
p1258
sg6
S'ANALYSIS-Hamas, from sidelines, speaks in different voices'
p1259
sa(dp1260
g2
S'http://www.reuters.com/article/companyNewsAndPR/idUSL2523298820071125'
p1261
sg4
S'20071125\xc2\xa010:16 AM EST'
p1262
sg6
S'Germany should rethink nuclear plan -RWE chief'
p1263
sa(dp1264
g2
S'http://www.reuters.com/article/topNews/idUSL2522624520071125'
p1265
sg4
S'20071125\xc2\xa010:10 AM EST'
p1266
sg6
S'Syria accepts invitation to Annapolis conference'
p1267
sa(dp1268
g2
S'http://www.reuters.com/article/companyNewsAndPR/idUSL2352234920071125'
p1269
sg4
S'20071125\xc2\xa010:06 AM EST'
p1270
sg6
S'Sanofi spends 100 mln euros on China vaccine plant'
p1271
sa(dp1272
g2
S'http://www.reuters.com/article/rbssFinancialServicesAndRealEstateNews/idUSL2522794620071125'
p1273
sg4
S'20071125\xc2\xa010:01 AM EST'
p1274
sg6
S'Paragon plans sell off to shore up funds - report'
p1275
sa(dp1276
g2
S'http://www.reuters.com/article/pressRelease/idUS52239+25-Nov-2007+PRN20071125'
p1277
sg4
S'20071125\xc2\xa010:00 AM EST'
p1278
sg6
S'Following Is a Test Release'
p1279
sa(dp1280
g2
S'http://www.reuters.com/article/pressRelease/idUS52229+25-Nov-2007+BW20071125'
p1281
sg4
S'20071125\xc2\xa010:00 AM EST'
p1282
sg6
S"Bay Area Children's Organizations Join Forces to Offer Ice Skating Event to Seriously..."
p1283
sa(dp1284
g2
S'http://www.reuters.com/article/pressRelease/idUS52228+25-Nov-2007+BW20071125'
p1285
sg4
S'20071125\xc2\xa010:00 AM EST'
p1286
sg6
S'Canon U.S.A. Showcases Its Line of Portable and Digital Radiography Solutions at...'
p1287
sa(dp1288
g2
S'http://www.reuters.com/article/companyNewsAndPR/idUSL2523035520071125'
p1289
sg4
S'20071125\xc2\xa009:57 AM EST'
p1290
sg6
S'Ampal, Clal Electronics to join in wind projects'
p1291
sa(dp1292
g2
S'http://www.reuters.com/article/companyNewsAndPR/idUSL2523834020071125'
p1293
sg4
S'20071125\xc2\xa009:54 AM EST'
p1294
sg6
S"RPT-France's Total maybe interested in Areva stake"
p1295
sa(dp1296
g2
S'http://www.reuters.com/article/rbssFinancialServicesAndRealEstateNews/idUSL242884820071125'
p1297
sg4
S'20071125\xc2\xa009:49 AM EST'
p1298
sg6
S'Algeria union lauds freeze of bank privatisation'
p1299
sa(dp1300
g2
S'http://www.reuters.com/article/newsMaps/idUSL2521028720071125'
p1301
sg4
S'20071125\xc2\xa009:44 AM EST'
p1302
sg6
S"USSR's hawkish KGB chief Kryuchkov dies at 83"
p1303
sa(dp1304
g2
S'http://www.reuters.com/article/homepageCrisis/idUSL25197981._CH_.2400'
p1305
sg4
S'20071125\xc2\xa009:42 AM EST'
p1306
sg6
S'Gunmen enter Chad towns,beat aid staff as fears rise'
p1307
sa(dp1308
g2
S'http://www.reuters.com/article/latestCrisis/idUSL25197981'
p1309
sg4
S'20071125\xc2\xa009:42 AM EST'
p1310
sg6
S'Gunmen enter Chad towns,beat aid staff as fears rise'
p1311
sa(dp1312
g2
S'http://www.reuters.com/article/latestCrisis/idUSL25199004'
p1313
sg4
S'20071125\xc2\xa009:42 AM EST'
p1314
sg6
S'Scientists urge $2-3 billion study of ocean health'
p1315
sa(dp1316
g2
S'http://www.reuters.com/article/topNews/idUSL2516033820071125'
p1317
sg4
S'20071125\xc2\xa009:41 AM EST'
p1318
sg6
S'Fire extinguished on evacuated North Sea oil platform'
p1319
sa(dp1320
g2
S'http://www.reuters.com/article/bondsNews/idUSL2522474620071125'
p1321
sg4
S'20071125\xc2\xa009:33 AM EST'
p1322
sg6
S'UPDATE 1-Sarkozy says China should help limit FX imbalances'
p1323
sa(dp1324
g2
S'http://www.reuters.com/article/worldNews/idUSISL11495320071125'
p1325
sg4
S'20071125\xc2\xa009:31 AM EST'
p1326
sg6
S'Sharif makes it back to Pakistan second time lucky'
p1327
sa(dp1328
g2
S'http://www.reuters.com/article/pressRelease/idUS51166+25-Nov-2007+PRN20071125'
p1329
sg4
S'20071125\xc2\xa009:30 AM EST'
p1330
sg6
S'Following Is a Test Release'
p1331
sa(dp1332
g2
S'http://www.reuters.com/article/companyNewsAndPR/idUSPEK28225120071125'
p1333
sg4
S'20071125\xc2\xa009:26 AM EST'
p1334
sg6
S'Sanofi says Biogen price a little high'
p1335
sa(dp1336
g2
S'http://www.reuters.com/article/rbssConsumerGoodsAndRetailNews/idUSL2521533420071125'
p1337
sg4
S'20071125\xc2\xa009:24 AM EST'
p1338
sg6
S'MARKETS-EGYPT-CLOSER =2'
p1339
sa(dp1340
g2
S'http://www.reuters.com/article/topNews/idUSISL15804720071125'
p1341
sg4
S'20071125\xc2\xa009:23 AM EST'
p1342
sg6
S"FACTBOX: Five facts on Pakistan's ex-leader Nawaz Sharif"
p1343
sa(dp1344
g2
S'http://www.reuters.com/article/pressRelease/idUS50955+25-Nov-2007+PRN20071125'
p1345
sg4
S'20071125\xc2\xa009:22 AM EST'
p1346
sg6
S'RSNA 2007: Siemens Medical Solutions Unveils an Unprecedented Number of Leading-Edge...'
p1347
sa(dp1348
g2
S'http://www.reuters.com/article/topNews/idUSISL15013420071125'
p1349
sg4
S'20071125\xc2\xa009:21 AM EST'
p1350
sg6
S'"We want democracy, nothing else" :Sharif'
p1351
sa(dp1352
g2
S'http://www.reuters.com/article/latestCrisis/idUSL24686432'
p1353
sg4
S'20071125\xc2\xa009:21 AM EST'
p1354
sg6
S'Darfur rebels reject new Chinese peacekeepers'
p1355
sa(dp1356
g2
S'http://www.reuters.com/article/topNews/idUSISL13727520071125'
p1357
sg4
S'20071125\xc2\xa009:20 AM EST'
p1358
sg6
S'Former Pakistani PM Sharif arrives home from exile'
p1359
sa(dp1360
g2
S'http://www.reuters.com/article/homepageCrisis/idUSISL146622._CH_.2400'
p1361
sg4
S'20071125\xc2\xa009:16 AM EST'
p1362
sg6
S'Former PM Sharif returns from exile to Pakistan'
p1363
sa(dp1364
g2
S'http://www.reuters.com/article/latestCrisis/idUSISL146622'
p1365
sg4
S'20071125\xc2\xa009:16 AM EST'
p1366
sg6
S'Former PM Sharif returns from exile to Pakistan'
p1367
sa(dp1368
g2
S'http://www.reuters.com/article/latestCrisis/idUSL25177694'
p1369
sg4
S'20071125\xc2\xa009:11 AM EST'
p1370
sg6
S"Row mars Iraq parl't hearing on Baathists bill"
p1371
sa(dp1372
g2
S'http://www.reuters.com/article/pressRelease/idUS50392+25-Nov-2007+MW20071125'
p1373
sg4
S'20071125\xc2\xa009:08 AM EST'
p1374
sg6
S' Powerball Jackpot Leaps to $155 Million; $1 Million Power Play Prize Won!'
p1375
sa(dp1376
g2
S'http://www.reuters.com/article/rbssEnergyNews/idUSL2516469620071125'
p1377
sg4
S'20071125\xc2\xa009:07 AM EST'
p1378
sg6
S'UPDATE 6-Fire extinguished on evacuated North Sea oil platform'
p1379
sa(dp1380
g2
S'http://www.reuters.com/article/topNews/idUSL2521974620071125'
p1381
sg4
S'20071125\xc2\xa009:03 AM EST'
p1382
sg6
S'Israel welcomes Syrian participation in conference'
p1383
sa(dp1384
g2
S'http://www.reuters.com/article/pressRelease/idUS50092+25-Nov-2007+PRN20071125'
p1385
sg4
S'20071125\xc2\xa009:00 AM EST'
p1386
sg6
S'Following Is a Test Release'
p1387
sa(dp1388
g2
S'http://www.reuters.com/article/pressRelease/idUS50090+25-Nov-2007+PRN20071125'
p1389
sg4
S'20071125\xc2\xa009:00 AM EST'
p1390
sg6
S'PA Historical and Museum Commission to Unveil Three Rivers Stadium State Historical...'
p1391
sa(dp1392
g2
S'http://www.reuters.com/article/latestCrisis/idUSL25219746'
p1393
sg4
S'20071125\xc2\xa008:56 AM EST'
p1394
sg6
S'Israel welcomes Syrian participation in conference'
p1395
sa(dp1396
g2
S'http://www.reuters.com/article/rbssFinancialServicesAndRealEstateNews/idUSL2521686420071125'
p1397
sg4
S'20071125\xc2\xa008:50 AM EST'
p1398
sg6
S'Schroders cuts UK property fund values'
p1399
sa(dp1400
g2
S'http://www.reuters.com/article/mergersNews/idUSL2571806220071125'
p1401
sg4
S'20071125\xc2\xa008:47 AM EST'
p1402
sg6
S'UPDATE 1-Lufthansa to decide on Alitalia by year-end -paper'
p1403
sa(dp1404
g2
S'http://www.reuters.com/article/sportsNews/idUSL2521452820071125'
p1405
sg4
S'20071125\xc2\xa008:43 AM EST'
p1406
sg6
S"America's unlikely challenge comes up short in China"
p1407
sa(dp1408
g2
S'http://www.reuters.com/article/mergersNews/idUSL2520479120071125'
p1409
sg4
S'20071125\xc2\xa008:43 AM EST'
p1410
sg6
S"Rank rejects Harrah's swap deal - report"
p1411
sa(dp1412
g2
S'http://www.reuters.com/article/newsOne/idUSYAT53362220071125'
p1413
sg4
S'20071125\xc2\xa008:37 AM EST'
p1414
sg6
S"Iraq Shi'ite party urges deal on federalism"
p1415
sa(dp1416
g2
S'http://www.reuters.com/article/topNews/idUSOWE44008620071125'
p1417
sg4
S'20071125\xc2\xa008:34 AM EST'
p1418
sg6
S'Syria to attend Annapolis conference: diplomats'
p1419
sa(dp1420
g2
S'http://www.reuters.com/article/topNews/idUSL2521057620071125'
p1421
sg4
S'20071125\xc2\xa008:34 AM EST'
p1422
sg6
S'Israeli troops kill three Palestinians in raids'
p1423
sa(dp1424
g2
S'http://www.reuters.com/article/latestCrisis/idUSL25210576'
p1425
sg4
S'20071125\xc2\xa008:30 AM EST'
p1426
sg6
S'Israeli troops kill three Palestinians in raids'
p1427
sa(dp1428
g2
S'http://www.reuters.com/article/pressRelease/idUS48923+25-Nov-2007+PRN20071125'
p1429
sg4
S'20071125\xc2\xa008:30 AM EST'
p1430
sg6
S'Following Is a Test Release'
p1431
sa(dp1432
g2
S'http://www.reuters.com/article/scienceNews/idUSL2524062620071125'
p1433
sg4
S'20071125\xc2\xa008:28 AM EST'
p1434
sg6
S'Rare South China tiger cub born in SAfrica'
p1435
sa(dp1436
g2
S'http://www.reuters.com/article/latestCrisis/idUSL25240626'
p1437
sg4
S'20071125\xc2\xa008:27 AM EST'
p1438
sg6
S'Rare South China tiger cub born in SAfrica'
p1439
sa(dp1440
g2
S'http://www.reuters.com/article/rbssConsumerGoodsAndRetailNews/idUSL2516688020071125'
p1441
sg4
S'20071125\xc2\xa008:26 AM EST'
p1442
sg6
S'M&B; says no talks with pub firm Punch'
p1443
sa(dp1444
g2
S'http://www.reuters.com/article/newsMaps/idUSL2518486520071125'
p1445
sg4
S'20071125\xc2\xa008:24 AM EST'
p1446
sg6
S'Oxford Union told to review holocaust denier invite'
p1447
sa(dp1448
g2
S'http://www.reuters.com/article/latestCrisis/idUSL25194166'
p1449
sg4
S'20071125\xc2\xa008:07 AM EST'
p1450
sg6
S'Commonwealth not strong enough on climate-St. Kitts'
p1451
sa(dp1452
g2
S'http://www.reuters.com/article/topNews/idUSHAF53956620071125'
p1453
sg4
S'20071125\xc2\xa008:07 AM EST'
p1454
sg6
S'Iran says IAEA closes more files over atomic work'
p1455
sa(dp1456
g2
S'http://www.reuters.com/article/environmentNews/idUSKLR14853020071125'
p1457
sg4
S'20071125\xc2\xa008:04 AM EST'
p1458
sg6
S'Palm oil industry closer to "green" labeling'
p1459
sa(dp1460
g2
S'http://www.reuters.com/article/homepageCrisis/idUSL25184802._CH_.2400'
p1461
sg4
S'20071125\xc2\xa008:03 AM EST'
p1462
sg6
S'Disasters quadruple over last 20 years - Oxfam'
p1463
sa(dp1464
g2
S'http://www.reuters.com/article/latestCrisis/idUSL25184802'
p1465
sg4
S'20071125\xc2\xa008:03 AM EST'
p1466
sg6
S'Disasters quadruple over last 20 years - Oxfam'
p1467
sa(dp1468
g2
S'http://www.reuters.com/article/latestCrisis/idUSHAF539566'
p1469
sg4
S'20071125\xc2\xa008:02 AM EST'
p1470
sg6
S'Iran says IAEA closes more files over atomic work'
p1471
sa(dp1472
g2
S'http://www.reuters.com/article/pressRelease/idUS47998+25-Nov-2007+PRN20071125'
p1473
sg4
S'20071125\xc2\xa008:02 AM EST'
p1474
sg6
S'Lotto Extra Winning Numbers'
p1475
sa(dp1476
g2
S'http://www.reuters.com/article/pressRelease/idUS47908+25-Nov-2007+PRN20071125'
p1477
sg4
S'20071125\xc2\xa008:00 AM EST'
p1478
sg6
S'U.S. Census Bureau Daily Feature for November 25'
p1479
sa(dp1480
g2
S'http://www.reuters.com/article/pressRelease/idUS47907+25-Nov-2007+PRN20071125'
p1481
sg4
S'20071125\xc2\xa008:00 AM EST'
p1482
sg6
S'Following Is a Test Release'
p1483
sa(dp1484
g2
S'http://www.reuters.com/article/pressRelease/idUS47817+25-Nov-2007+PRN20071125'
p1485
sg4
S'20071125\xc2\xa007:57 AM EST'
p1486
sg6
S'Lotto Winning Numbers'
p1487
sa(dp1488
g2
S'http://www.reuters.com/article/pressRelease/idUS47780+25-Nov-2007+PRN20071125'
p1489
sg4
S'20071125\xc2\xa007:54 AM EST'
p1490
sg6
S'Take-Five Winning Numbers'
p1491
sa(dp1492
g2
S'http://www.reuters.com/article/topNews/idUSL2519025920071125'
p1493
sg4
S'20071125\xc2\xa007:39 AM EST'
p1494
sg6
S'Israel believes Syria will attend Annapolis'
p1495
sa(dp1496
g2
S'http://www.reuters.com/article/latestCrisis/idUSL25190259'
p1497
sg4
S'20071125\xc2\xa007:37 AM EST'
p1498
sg6
S'Israel believes Syria will attend Annapolis'
p1499
sa(dp1500
g2
S'http://www.reuters.com/article/newsMaps/idUSL2517232920071125'
p1501
sg4
S'20071125\xc2\xa007:36 AM EST'
p1502
sg6
S"Jordan's king swears in new government"
p1503
sa(dp1504
g2
S'http://www.reuters.com/article/pressRelease/idUS47290+25-Nov-2007+PRN20071125'
p1505
sg4
S'20071125\xc2\xa007:36 AM EST'
p1506
sg6
S'Strauss Group: Further Organic Double-Digit Growth in Sales, With Continuous Improvement...'
p1507
sa(dp1508
g2
S'http://www.reuters.com/article/latestCrisis/idUSSP300722'
p1509
sg4
S'20071125\xc2\xa007:34 AM EST'
p1510
sg6
S'Police say lack leads over Indian bomb blasts'
p1511
sa(dp1512
g2
S'http://www.reuters.com/article/sportsNews/idUSPEK5515020071125'
p1513
sg4
S'20071125\xc2\xa007:33 AM EST'
p1514
sg6
S'Monty and Warren win first World Cup for Scotland'
p1515
sa(dp1516
g2
S'http://www.reuters.com/article/sportsNews/idUSPEK30479620071125'
p1517
sg4
S'20071125\xc2\xa007:33 AM EST'
p1518
sg6
S'Monty predicts great future for World Cup winner Warren'
p1519
sa(dp1520
g2
S'http://www.reuters.com/article/latestCrisis/idUSL25172278'
p1521
sg4
S'20071125\xc2\xa007:31 AM EST'
p1522
sg6
S'Four Egyptians shot dead in gunfight with police'
p1523
sa(dp1524
g2
S'http://www.reuters.com/article/pressRelease/idUS47167+25-Nov-2007+PRN20071125'
p1525
sg4
S'20071125\xc2\xa007:30 AM EST'
p1526
sg6
S'Following Is a Test Release'
p1527
sa(dp1528
g2
S'http://www.reuters.com/article/mergersNews/idUSL2516902720071125'
p1529
sg4
S'20071125\xc2\xa007:27 AM EST'
p1530
sg6
S'PCH foreign owners to opt out to allow ORL deal'
p1531
sa(dp1532
g2
S'http://www.reuters.com/article/pressRelease/idUS47066+25-Nov-2007+BW20071125'
p1533
sg4
S'20071125\xc2\xa007:24 AM EST'
p1534
sg6
S'Ampal Forms Joint Venture with Clal Electronics Industries Ltd. for Development and...'
p1535
sa(dp1536
g2
S'http://www.reuters.com/article/rbssEnergyNews/idUSL2520355820071125'
p1537
sg4
S'20071125\xc2\xa007:19 AM EST'
p1538
sg6
S'N.Sea rig fire unlikely to hit Brent exports-source'
p1539
sa(dp1540
g2
S'http://www.reuters.com/article/worldNews/idUSPEK27686320071125'
p1541
sg4
S'20071125\xc2\xa007:07 AM EST'
p1542
sg6
S'China dam collapse kills six, seven missing'
p1543
sa(dp1544
g2
S'http://www.reuters.com/article/newsMaps/idUSL2517120620071125'
p1545
sg4
S'20071125\xc2\xa007:04 AM EST'
p1546
sg6
S'Third U.S. general in a week visits Turkey over PKK'
p1547
sa(dp1548
g2
S'http://www.reuters.com/article/reutersEdge/idUSL1858640220071125'
p1549
sg4
S'20071125\xc2\xa007:02 AM EST'
p1550
sg6
S'WITNESS: From London to Helsinki on two little wheels'
p1551
sa(dp1552
g2
S'http://www.reuters.com/article/homepageCrisis/idUSL25177513._CH_.2400'
p1553
sg4
S'20071125\xc2\xa007:01 AM EST'
p1554
sg6
S'Pray for success of Annapolis conference, Pope urges'
p1555
sa(dp1556
g2
S'http://www.reuters.com/article/latestCrisis/idUSL25177513'
p1557
sg4
S'20071125\xc2\xa007:01 AM EST'
p1558
sg6
S'Pray for success of Annapolis conference, Pope urges'
p1559
sa(dp1560
g2
S'http://www.reuters.com/article/pressRelease/idUS46511+25-Nov-2007+PRN20071125'
p1561
sg4
S'20071125\xc2\xa007:00 AM EST'
p1562
sg6
S'Following Is a Test Release'
p1563
sa(dp1564
g2
S'http://www.reuters.com/article/latestCrisis/idUSPEK276863'
p1565
sg4
S'20071125\xc2\xa006:56 AM EST'
p1566
sg6
S'China dam collapse kills six, seven missing'
p1567
sa(dp1568
g2
S'http://www.reuters.com/article/rbssTechMediaTelecomNews/idUSL2513761320071125'
p1569
sg4
S'20071125\xc2\xa006:55 AM EST'
p1570
sg6
S'Lagardere Active launches Russian celebrity weekly'
p1571
sa(dp1572
g2
S'http://www.reuters.com/article/rbssConsumerGoodsAndRetailNews/idUSL2516722920071125'
p1573
sg4
S'20071125\xc2\xa006:52 AM EST'
p1574
sg6
S"CORRECTED - Israel's Strauss Q3 net profit drops, sales rise"
p1575
sa(dp1576
g2
S'http://www.reuters.com/article/latestCrisis/idUSL25171206'
p1577
sg4
S'20071125\xc2\xa006:49 AM EST'
p1578
sg6
S'Third U.S. general in a week visits Turkey over PKK'
p1579
sa(dp1580
g2
S'http://www.reuters.com/article/mergersNews/idUSL2517246520071125'
p1581
sg4
S'20071125\xc2\xa006:48 AM EST'
p1582
sg6
S'Arcandor finds buyer for Karstadt property - paper'
p1583
sa(dp1584
g2
S'http://www.reuters.com/article/topNews/idUSANW52752420071125'
p1585
sg4
S'20071125\xc2\xa006:35 AM EST'
p1586
sg6
S'FACTBOX: Security developments in Iraq, Nov 25'
p1587
sa(dp1588
g2
S'http://www.reuters.com/article/pressRelease/idUS45577+25-Nov-2007+PRN20071125'
p1589
sg4
S'20071125\xc2\xa006:30 AM EST'
p1590
sg6
S'Following Is a Test Release'
p1591
sa(dp1592
g2
S'http://www.reuters.com/article/rbssIndustryMaterialsUtilitiesNews/idUSL2512607620071125'
p1593
sg4
S'20071125\xc2\xa006:15 AM EST'
p1594
sg6
S'Germany rejects EU energy unbundling argument'
p1595
sa(dp1596
g2
S'http://www.reuters.com/article/pressRelease/idUS44685+25-Nov-2007+PRN20071125'
p1597
sg4
S'20071125\xc2\xa006:00 AM EST'
p1598
sg6
S'Following Is a Test Release'
p1599
sa(dp1600
g2
S'http://www.reuters.com/article/pressRelease/idUS44679+25-Nov-2007+BW20071125'
p1601
sg4
S'20071125\xc2\xa006:00 AM EST'
p1602
sg6
S'Toshiba Previews Advanced 3T MR System at RSNA'
p1603
sa(dp1604
g2
S'http://www.reuters.com/article/pressRelease/idUS44677+25-Nov-2007+BW20071125'
p1605
sg4
S'20071125\xc2\xa006:00 AM EST'
p1606
sg6
S'Toshiba Showcases Infinix VF-i/BP at RSNA'
p1607
sa(dp1608
g2
S'http://www.reuters.com/article/worldNews/idUSHAM52217520071125'
p1609
sg4
S'20071125\xc2\xa005:59 AM EST'
p1610
sg6
S'Serbs prepare rude reception for independent Kosovo'
p1611
sa(dp1612
g2
S'http://www.reuters.com/article/pressRelease/idUS44642+25-Nov-2007+PRN20071125'
p1613
sg4
S'20071125\xc2\xa005:59 AM EST'
p1614
sg6
S'GOOD MORNING -- November 25, 2007'
p1615
sa(dp1616
g2
S'http://www.reuters.com/article/newsMaps/idUSKLR16504820071125'
p1617
sg4
S'20071125\xc2\xa005:58 AM EST'
p1618
sg6
S'Indian protest rocks Malaysia ahead of polls'
p1619
sa(dp1620
g2
S'http://www.reuters.com/article/innovationNews/idUSL2513100420071125'
p1621
sg4
S'20071125\xc2\xa005:49 AM EST'
p1622
sg6
S'Lufthansa to decide on Alitalia by year-end: paper'
p1623
sa(dp1624
g2
S'http://www.reuters.com/article/topNews/idUSL2512947520071125'
p1625
sg4
S'20071125\xc2\xa005:40 AM EST'
p1626
sg6
S'Baghdad car bomb kills nine, wounds 30: official'
p1627
sa(dp1628
g2
S'http://www.reuters.com/article/topNews/idUSL2516410520071125'
p1629
sg4
S'20071125\xc2\xa005:40 AM EST'
p1630
sg6
S'Iraq parliament hears draft law on former Baathists'
p1631
sa(dp1632
g2
S'http://www.reuters.com/article/latestCrisis/idUSL25164105'
p1633
sg4
S'20071125\xc2\xa005:38 AM EST'
p1634
sg6
S'Iraq parliament hears draft law on former Baathists'
p1635
sa(dp1636
g2
S'http://www.reuters.com/article/latestCrisis/idUSHAM522175'
p1637
sg4
S'20071125\xc2\xa005:33 AM EST'
p1638
sg6
S'Serbs prepare rude reception for independent Kosovo'
p1639
sa(dp1640
g2
S'http://www.reuters.com/article/pressRelease/idUS43057+25-Nov-2007+PRN20071125'
p1641
sg4
S'20071125\xc2\xa005:30 AM EST'
p1642
sg6
S'Following Is a Test Release'
p1643
sa(dp1644
g2
S'http://www.reuters.com/article/companyNewsAndPR/idUSL2513880720071125'
p1645
sg4
S'20071125\xc2\xa005:29 AM EST'
p1646
sg6
S'Tel Aviv bourse to reset indexes by free float'
p1647
sa(dp1648
g2
S'http://www.reuters.com/article/newsOne/idUSISL15271720071125'
p1649
sg4
S'20071125\xc2\xa005:23 AM EST'
p1650
sg6
S'NATO and Afghan forces kill 65 Taliban: ministry'
p1651
sa(dp1652
g2
S'http://www.reuters.com/article/bondsNews/idUSL2515772520071125'
p1653
sg4
S'20071125\xc2\xa005:23 AM EST'
p1654
sg6
S'Israel\'s credit rating to rise to "A" -newspaper'
p1655
sa(dp1656
g2
S'http://www.reuters.com/article/latestCrisis/idUSL25159623'
p1657
sg4
S'20071125\xc2\xa005:16 AM EST'
p1658
sg6
S'Iraq parliament hears draft law on former Baathists'
p1659
sa(dp1660
g2
S'http://www.reuters.com/article/latestCrisis/idUSISL148305'
p1661
sg4
S'20071125\xc2\xa005:10 AM EST'
p1662
sg6
S'NATO and Afghan forces kill 65 Taliban - ministry'
p1663
sa(dp1664
g2
S'http://www.reuters.com/article/bankingfinancial-SP/idUSL2515582120071125'
p1665
sg4
S'20071125\xc2\xa005:10 AM EST'
p1666
sg6
S'UBS has 6.2 pct stake in Northern Rock -paper'
p1667
sa(dp1668
g2
S'http://www.reuters.com/article/latestCrisis/idUSDHA156706'
p1669
sg4
S'20071125\xc2\xa005:02 AM EST'
p1670
sg6
S'Bangladesh wants relief coordination after storm'
p1671
sa(dp1672
g2
S'http://www.reuters.com/article/homepageCrisis/idUSDHA156706._CH_.2400'
p1673
sg4
S'20071125\xc2\xa005:02 AM EST'
p1674
sg6
S'Bangladesh wants relief coordination after storm'
p1675
sa(dp1676
g2
S'http://www.reuters.com/article/pressRelease/idUS41188+25-Nov-2007+PRN20071125'
p1677
sg4
S'20071125\xc2\xa005:00 AM EST'
p1678
sg6
S'Following Is a Test Release'
p1679
sa(dp1680
g2
S'http://www.reuters.com/article/peopleNews/idUSL2215100120071125'
p1681
sg4
S'20071125\xc2\xa004:57 AM EST'
p1682
sg6
S'Boy George in court charged with false imprisonment'
p1683
sa(dp1684
g2
S'http://www.reuters.com/article/topNews/idUSL2338155120071125'
p1685
sg4
S'20071125\xc2\xa004:46 AM EST'
p1686
sg6
S"Australia's new PM Rudd acts swiftly on climate"
p1687
sa(dp1688
g2
S'http://www.reuters.com/article/topNews/idUSL2515001120071125'
p1689
sg4
S'20071125\xc2\xa004:42 AM EST'
p1690
sg6
S'Abbas in Washington ahead of Annapolis talks'
p1691
sa(dp1692
g2
S'http://www.reuters.com/article/topNews/idUSBLA53457920071125'
p1693
sg4
S'20071125\xc2\xa004:41 AM EST'
p1694
sg6
S'Mideast meet will erode Palestinian rights: Iran'
p1695
sa(dp1696
g2
S'http://www.reuters.com/article/pressRelease/idUS38973+25-Nov-2007+PRN20071125'
p1697
sg4
S'20071125\xc2\xa004:30 AM EST'
p1698
sg6
S'Following Is a Test Release'
p1699
sa(dp1700
g2
S'http://www.reuters.com/article/latestCrisis/idUSL25150011'
p1701
sg4
S'20071125\xc2\xa004:28 AM EST'
p1702
sg6
S'Abbas in Washington ahead of Annapolis talks'
p1703
sa(dp1704
g2
S'http://www.reuters.com/article/topNews/idUSN1422839520071125'
p1705
sg4
S'20071125\xc2\xa004:02 AM EST'
p1706
sg6
S'Negotiations to resume Sunday in Broadway strike'
p1707
sa(dp1708
g2
S'http://www.reuters.com/article/pressRelease/idUS36776+25-Nov-2007+PRN20071125'
p1709
sg4
S'20071125\xc2\xa004:00 AM EST'
p1710
sg6
S'Following Is a Test Release'
p1711
sa(dp1712
g2
S'http://www.reuters.com/article/rbssFinancialServicesAndRealEstateNews/idUSL2561926820071125'
p1713
sg4
S'20071125\xc2\xa003:55 AM EST'
p1714
sg6
S'Swiss Life CEO to stand down, join board - paper'
p1715
sa(dp1716
g2
S'http://www.reuters.com/article/newsMaps/idUSPEK26989720071125'
p1717
sg4
S'20071125\xc2\xa003:44 AM EST'
p1718
sg6
S'Tibetans riot in rural town, police seal area'
p1719
sa(dp1720
g2
S'http://www.reuters.com/article/newsMaps/idUSDHA15284320071125'
p1721
sg4
S'20071125\xc2\xa003:38 AM EST'
p1722
sg6
S'One killed, 50 missing in Bangladesh boat sinking'
p1723
sa(dp1724
g2
S'http://www.reuters.com/article/latestCrisis/idUSDHA152843'
p1725
sg4
S'20071125\xc2\xa003:36 AM EST'
p1726
sg6
S'One killed, 50 missing in Bangladesh boat sinking'
p1727
sa(dp1728
g2
S'http://www.reuters.com/article/topNews/idUSISL14679220071125'
p1729
sg4
S'20071125\xc2\xa003:35 AM EST'
p1730
sg6
S'Pakistan says killed 30 militants in scenic valley'
p1731
sa(dp1732
g2
S'http://www.reuters.com/article/gc06/idUSL2513790320071125'
p1733
sg4
S'20071125\xc2\xa003:31 AM EST'
p1734
sg6
S'Swiss central banker says credit crisis worsened'
p1735
sa(dp1736
g2
S'http://www.reuters.com/article/pressRelease/idUS34767+25-Nov-2007+PRN20071125'
p1737
sg4
S'20071125\xc2\xa003:30 AM EST'
p1738
sg6
S'Following Is a Test Release'
p1739
sa(dp1740
g2
S'http://www.reuters.com/article/latestCrisis/idUSL25174084'
p1741
sg4
S'20071125\xc2\xa003:25 AM EST'
p1742
sg6
S'Baghdad car bomb kills nine, wounds 30 -official'
p1743
sa(dp1744
g2
S'http://www.reuters.com/article/ousiv/idUSOSO00096220071125'
p1745
sg4
S'20071125\xc2\xa003:21 AM EST'
p1746
sg6
S'Greenspan says flexibility cuts risk of recession'
p1747
sa(dp1748
g2
S'http://www.reuters.com/article/topNews/idUSN2435440120071125'
p1749
sg4
S'20071125\xc2\xa003:13 AM EST'
p1750
sg6
S'Eunice Kennedy Shriver hospitalized in Boston'
p1751
sa(dp1752
g2
S'http://www.reuters.com/article/rbssIndustryMaterialsUtilitiesNews/idUSL2513164820071125'
p1753
sg4
S'20071125\xc2\xa003:10 AM EST'
p1754
sg6
S'TABLE-Israel Corp Q3 net profit drops on financing costs'
p1755
sa(dp1756
g2
S'http://www.reuters.com/article/rbssFinancialServicesAndRealEstateNews/idUSL2513039020071125'
p1757
sg4
S'20071125\xc2\xa003:08 AM EST'
p1758
sg6
S'Kuwait cbank gov eyes more foreign banks -report'
p1759
sa(dp1760
g2
S'http://www.reuters.com/article/rbssFinancialServicesAndRealEstateNews/idUSHKG27452420071125'
p1761
sg4
S'20071125\xc2\xa003:02 AM EST'
p1762
sg6
S'Beijing Capital Land buys sites for $614 mln'
p1763
sa(dp1764
g2
S'http://www.reuters.com/article/pressRelease/idUS32911+25-Nov-2007+PRN20071125'
p1765
sg4
S'20071125\xc2\xa003:00 AM EST'
p1766
sg6
S'Following Is a Test Release'
p1767
sa(dp1768
g2
S'http://www.reuters.com/article/newsMaps/idUSDEL30204420071125'
p1769
sg4
S'20071125\xc2\xa002:48 AM EST'
p1770
sg6
S'Nepal Maoists threaten return to armed revolt: report'
p1771
sa(dp1772
g2
S'http://www.reuters.com/article/pressRelease/idUS32487+25-Nov-2007+PRN20071125'
p1773
sg4
S'20071125\xc2\xa002:30 AM EST'
p1774
sg6
S'Following Is a Test Release'
p1775
sa(dp1776
g2
S'http://www.reuters.com/article/latestCrisis/idUSDEL302044'
p1777
sg4
S'20071125\xc2\xa002:29 AM EST'
p1778
sg6
S'Nepal Maoists threaten return to armed revolt-report'
p1779
sa(dp1780
g2
S'http://www.reuters.com/article/rbssTechMediaTelecomNews/idUSSP13096320071125'
p1781
sg4
S'20071125\xc2\xa002:26 AM EST'
p1782
sg6
S'Vodafone Essar plans $500 mln foreign loan-paper'
p1783
sa(dp1784
g2
S'http://www.reuters.com/article/latestCrisis/idUSL25129475'
p1785
sg4
S'20071125\xc2\xa002:22 AM EST'
p1786
sg6
S'Three Baghdad bombs kill 3, wound 15 - police'
p1787
sa(dp1788
g2
S'http://www.reuters.com/article/sportsNews/idUSB11933420071125'
p1789
sg4
S'20071125\xc2\xa002:18 AM EST'
p1790
sg6
S"Allen's late three-pointer lifts Celtics to another win"
p1791
sa(dp1792
g2
S'http://www.reuters.com/article/sportsNews/idUSB7839420071125'
p1793
sg4
S'20071125\xc2\xa002:17 AM EST'
p1794
sg6
S'Capitals win second game in a row for interim coach'
p1795
sa(dp1796
g2
S'http://www.reuters.com/article/topNews/idUSISL10670320071125'
p1797
sg4
S'20071125\xc2\xa002:15 AM EST'
p1798
sg6
S'Pakistani media challenges emergency rule'
p1799
sa(dp1800
g2
S'http://www.reuters.com/article/topNews/idUSSP15565420071125'
p1801
sg4
S'20071125\xc2\xa002:00 AM EST'
p1802
sg6
S'China and Indonesia welcome Rudd win in Australia'
p1803
sa(dp1804
g2
S'http://www.reuters.com/article/pressRelease/idUS32087+25-Nov-2007+PRN20071125'
p1805
sg4
S'20071125\xc2\xa002:00 AM EST'
p1806
sg6
S'Following Is a Test Release'
p1807
sa(dp1808
g2
S'http://www.reuters.com/article/topNews/idUSSYD22280720071125'
p1809
sg4
S'20071125\xc2\xa001:52 AM EST'
p1810
sg6
S'Lawyer, surfer set to be Australia foreign minister'
p1811
sa(dp1812
g2
S'http://www.reuters.com/article/latestCrisis/idUSSP155654'
p1813
sg4
S'20071125\xc2\xa001:34 AM EST'
p1814
sg6
S'China, Indonesia welcome Rudd win in Australia'
p1815
sa(dp1816
g2
S'http://www.reuters.com/article/latestCrisis/idUSCOL68143'
p1817
sg4
S'20071125\xc2\xa001:30 AM EST'
p1818
sg6
S'Sri Lanka air force hits rebels; 10 die in clashes'
p1819
sa(dp1820
g2
S'http://www.reuters.com/article/pressRelease/idUS31612+25-Nov-2007+PRN20071125'
p1821
sg4
S'20071125\xc2\xa001:30 AM EST'
p1822
sg6
S'Following Is a Test Release'
p1823
sa(dp1824
g2
S'http://www.reuters.com/article/sportsNews/idUSISS10462220071125'
p1825
sg4
S'20071125\xc2\xa001:12 AM EST'
p1826
sg6
S'NBA results'
p1827
sa(dp1828
g2
S'http://www.reuters.com/article/sportsNews/idUSISS10459020071125'
p1829
sg4
S'20071125\xc2\xa001:09 AM EST'
p1830
sg6
S'NHL results'
p1831
sa(dp1832
g2
S'http://www.reuters.com/article/pressRelease/idUS31031+25-Nov-2007+PRN20071125'
p1833
sg4
S'20071125\xc2\xa001:00 AM EST'
p1834
sg6
S'Following Is a Test Release'
p1835
sa(dp1836
g2
S'http://www.reuters.com/article/latestCrisis/idUSPEK269897'
p1837
sg4
S'20071125\xc2\xa012:51 AM EST'
p1838
sg6
S'Tibetans riot in rural town, police seal area'
p1839
sa(dp1840
g2
S'http://www.reuters.com/article/homepageCrisis/idUSSYD311062._CH_.2400'
p1841
sg4
S'20071125\xc2\xa012:41 AM EST'
p1842
sg6
S"Australia's new PM Rudd acts swiftly on climate"
p1843
sa(dp1844
g2
S'http://www.reuters.com/article/latestCrisis/idUSSYD311062'
p1845
sg4
S'20071125\xc2\xa012:41 AM EST'
p1846
sg6
S"Australia's new PM Rudd acts swiftly on climate"
p1847
sa(dp1848
g2
S'http://www.reuters.com/article/pressRelease/idUS30628+25-Nov-2007+PRN20071125'
p1849
sg4
S'20071125\xc2\xa012:30 AM EST'
p1850
sg6
S'Following Is a Test Release'
p1851
sa(dp1852
g2
S'http://www.reuters.com/article/featuredCrisis/idUSCOL143725'
p1853
sg4
S'20071125\xc2\xa012:20 AM EST'
p1854
sg6
S'Sri Lanka air force hits rebels; 10 die in clashes'
p1855
sa(dp1856
g2
S'http://www.reuters.com/article/pressRelease/idUS29290+25-Nov-2007+PRN20071125'
p1857
sg4
S'20071125\xc2\xa012:00 AM EST'
p1858
sg6
S'Following Is a Test Release'
p1859
sa(dp1860
g2
S'http://www.reuters.com/news/video/videoStory?storyID=WAO1195046219006'
p1861
sg4
S'20071125\xc2\xa007:28 PM EST'
p1862
sg6
S'\xe5\x8d\x97\xe4\xba\xac\xe5\xa4\xa7\xe8\x99\x90\xe6\xae\xba\xe3\x81\xab\xe7\x95\xb0\xe8\xab\x96\xe3\x82\x92\xe5\x94\xb1\xe3\x81\x88\xe3\x82\x8b\xe6\x98\xa0\xe7\x94\xbb\xe3\x80\x8c\xe5\x8d\x97\xe4\xba\xac\xe3\x81\xae\xe7\x9c\x9f\xe5\xae\x9f\xe3\x80\x8d\xef\xbc\x8826\xe6\x97\xa5\xef\xbc\x89'
p1863
sa(dp1864
g2
S'http://www.reuters.com/news/video/videoStory?storyID=ftpo1195054780008'
p1865
sg4
S'20071125\xc2\xa007:28 PM EST'
p1866
sg6
S'Movie refutes Nanjing massacre'
p1867
sa(dp1868
g2
S'http://www.reuters.com/news/video/videoStory?storyID=WAO1195046218989'
p1869
sg4
S'20071125\xc2\xa007:23 PM EST'
p1870
sg6
S"Talk of the Town: Jet Li's pay"
p1871
sa(dp1872
g2
S'http://www.reuters.com/news/video/videoStory?storyID=ftpo1195054780003'
p1873
sg4
S'20071125\xc2\xa007:11 PM EST'
p1874
sg6
S'Sharif returns to Pakistan'
p1875
sa(dp1876
g2
S'http://www.reuters.com/news/video/videoStory?storyID=ftpo1195054779988'
p1877
sg4
S'20071125\xc2\xa003:39 PM EST'
p1878
sg6
S"Commonwealth summit 'success'"
p1879
sa(dp1880
g2
S'http://www.reuters.com/news/video/videoStory?storyID=ftpo1195054779983'
p1881
sg4
S'20071125\xc2\xa002:45 PM EST'
p1882
sg6
S'Malibu millionaires burned out'
p1883
sa(dp1884
g2
S'http://www.reuters.com/news/video/videoStory?storyID=ftpo1195054779978'
p1885
sg4
S'20071125\xc2\xa001:25 PM EST'
p1886
sg6
S'Mideast prepares to talk'
p1887
sa(dp1888
g2
S'http://www.reuters.com/news/video/videoStory?storyID=WAO1195046218930'
p1889
sg4
S'20071125\xc2\xa012:49 PM EST'
p1890
sg6
S'Farming in the desert'
p1891
sa(dp1892
g2
S'http://www.reuters.com/news/video/videoStory?storyID=ftpo1195054779973'
p1893
sg4
S'20071125\xc2\xa012:35 PM EST'
p1894
sg6
S'Former PM is welcomed home'
p1895
sa(dp1896
g2
S'http://www.reuters.com/news/video/videoStory?storyID=ftpo1195054779968'
p1897
sg4
S'20071125\xc2\xa011:15 AM EST'
p1898
sg6
S'Conference gloom in Gaza'
p1899
sa(dp1900
g2
S'http://www.reuters.com/news/video/videoStory?storyID=WAO1195046218925'
p1901
sg4
S'20071125\xc2\xa010:46 AM EST'
p1902
sg6
S'Sharif arrives in Pakistan'
p1903
sa(dp1904
g2
S'http://www.reuters.com/news/video/videoStory?storyID=ftpo1195054779963'
p1905
sg4
S'20071125\xc2\xa008:58 AM EST'
p1906
sg6
S'Elephants make it big as musicians'
p1907
sa(dp1908
g2
S'http://www.reuters.com/news/video/videoStory?storyID=ftpo1195054779958'
p1909
sg4
S'20071125\xc2\xa008:51 AM EST'
p1910
sg6
S'Cyclone victims need more aid'
p1911
sa(dp1912
g2
S'http://www.reuters.com/news/video/videoStory?storyID=WAO1195046218920'
p1913
sg4
S'20071125\xc2\xa005:28 AM EST'
p1914
sg6
S'Police break up protest in Malaysia'
p1915
sa(dp1916
g2
S'http://www.reuters.com/news/video/videoStory?storyID=ftpo1195054779938'
p1917
sg4
S'20071125\xc2\xa005:26 AM EST'
p1918
sg6
S'Explorer passengers speak out'
p1919
sa(dp1920
g2
S'http://www.reuters.com/news/video/videoStory?storyID=ftpo1195054779933'
p1921
sg4
S'20071125\xc2\xa004:15 AM EST'
p1922
sg6
S'Climate deal gets top billing'
p1923
sa.