(lp0
(dp1
S'href'
p2
S'http://www.reuters.com/article/worldNews/idUSBKK19821220070825'
p3
sS'ts'
p4
S'20070824\xc2\xa011:51 PM EDT'
p5
sS'title'
p6
S'Bomb kills one in Muslim Thai south'
p7
sa(dp8
g2
S'http://www.reuters.com/article/latestCrisis/idUSBKK198212'
p9
sg4
S'20070824\xc2\xa011:49 PM EDT'
p10
sg6
S'Bomb kills one, wounds 10 in Muslim Thai south'
p11
sa(dp12
g2
S'http://www.reuters.com/article/worldNews/idUSB73575820070825'
p13
sg4
S'20070824\xc2\xa011:44 PM EDT'
p14
sg6
S'Detained Myanmar activists face legal action'
p15
sa(dp16
g2
S'http://www.reuters.com/article/domesticNews/idUSKRA51299220070825'
p17
sg4
S'20070824\xc2\xa011:36 PM EDT'
p18
sg6
S'Presbyterian Church rebukes "lesbian evangelist"'
p19
sa(dp20
g2
S'http://www.reuters.com/article/companyNewsAndPR/idUSL2510830420070825'
p21
sg4
S'20070824\xc2\xa011:29 PM EDT'
p22
sg6
S'PRESS DIGEST - Financial Times - Aug 25'
p23
sa(dp24
g2
S'http://www.reuters.com/article/companyNewsAndPR/idUSL2516810820070825'
p25
sg4
S'20070824\xc2\xa011:28 PM EDT'
p26
sg6
S'PRESS DIGEST - British business - Aug 25'
p27
sa(dp28
g2
S'http://www.reuters.com/article/sportsNews/idUSTP27301420070825'
p29
sg4
S'20070824\xc2\xa011:23 PM EDT'
p30
sg6
S'Chinese basketball star Yao Ming seeks Taiwan visit'
p31
sa(dp32
g2
S'http://www.reuters.com/article/companyNewsAndPR/idUSN23OSTBIZ20070825'
p33
sg4
S'20070824\xc2\xa011:22 PM EDT'
p34
sg6
S'PRESS DIGEST - Washington Post Business - Aug. 25'
p35
sa(dp36
g2
S'http://www.reuters.com/article/ousiv/idUSN2434970120070825'
p37
sg4
S'20070824\xc2\xa011:21 PM EDT'
p38
sg6
S'Ford, GM propose health care fund to union: sources'
p39
sa(dp40
g2
S'http://www.reuters.com/article/companyNewsAndPR/idUSSHA20824420070825'
p41
sg4
S'20070824\xc2\xa011:19 PM EDT'
p42
sg6
S'Chinese developer wins $582 mln Shanghai land deal'
p43
sa(dp44
g2
S'http://www.reuters.com/article/musicNews/idUSN2437018820070825'
p45
sg4
S'20070824\xc2\xa011:05 PM EDT'
p46
sg6
S"Docu reveals Lanois' recording studio strategy"
p47
sa(dp48
g2
S'http://www.reuters.com/article/bondsNews/idUSN23OST20070825'
p49
sg4
S'20070824\xc2\xa011:02 PM EDT'
p50
sg6
S'PRESS DIGEST - Washington Post - Aug. 25'
p51
sa(dp52
g2
S'http://www.reuters.com/article/entertainmentNews/idUSN2433968020070825'
p53
sg4
S'20070824\xc2\xa011:02 PM EDT'
p54
sg6
S'Q&A;: Paul Anka still doing it his way'
p55
sa(dp56
g2
S'http://www.reuters.com/article/latestCrisis/idUSN24153351'
p57
sg4
S'20070824\xc2\xa010:53 PM EDT'
p58
sg6
S'Panama wants Spaniard extradited over toxic syrup'
p59
sa(dp60
g2
S'http://www.reuters.com/article/musicNews/idUSN2437019220070825'
p61
sg4
S'20070824\xc2\xa010:30 PM EDT'
p62
sg6
S'Classical labels veer toward crowd-pleasers'
p63
sa(dp64
g2
S'http://www.reuters.com/article/musicNews/idUSN2425240120070825'
p65
sg4
S'20070824\xc2\xa010:25 PM EDT'
p66
sg6
S'Killers corralling rarities for b-sides album'
p67
sa(dp68
g2
S'http://www.reuters.com/article/entertainmentNews/idUSN2437012520070825'
p69
sg4
S'20070824\xc2\xa010:24 PM EDT'
p70
sg6
S'Black Eyed Peas\' will.i.am shares solo "Songs"'
p71
sa(dp72
g2
S'http://www.reuters.com/article/sportsNews/idUSSP19632320070825'
p73
sg4
S'20070824\xc2\xa010:20 PM EDT'
p74
sg6
S"Brewers' Fielder has suspension cut to two games"
p75
sa(dp76
g2
S'http://www.reuters.com/article/companyNewsAndPR/idUSN2435252220070825'
p77
sg4
S'20070824\xc2\xa010:01 PM EDT'
p78
sg6
S"UPDATE 6-NFL's Vick says guilty in dogfighting case, suspended"
p79
sa(dp80
g2
S'http://www.reuters.com/article/companyNewsAndPR/idUSSIN21898720070825'
p81
sg4
S'20070824\xc2\xa009:59 PM EDT'
p82
sg6
S'Singapore STATS says five directors have resigned'
p83
sa(dp84
g2
S'http://www.reuters.com/article/musicNews/idUSN2324105920070825'
p85
sg4
S'20070824\xc2\xa009:51 PM EDT'
p86
sg6
S'Reggae singer still "Beautiful" atop chart'
p87
sa(dp88
g2
S'http://www.reuters.com/article/ousiv/idUSN2434131120070825'
p89
sg4
S'20070824\xc2\xa009:32 PM EDT'
p90
sg6
S'Home Depot up as investors eye supply sale'
p91
sa(dp92
g2
S'http://www.reuters.com/article/newsOne/idUSN2436784720070825'
p93
sg4
S'20070824\xc2\xa009:18 PM EDT'
p94
sg6
S"Judge clears way for Noriega's French extradition"
p95
sa(dp96
g2
S'http://www.reuters.com/article/domesticNews/idUSN2223569520070825'
p97
sg4
S'20070824\xc2\xa009:16 PM EDT'
p98
sg6
S'Central U.S. storms, floods spread more havoc'
p99
sa(dp100
g2
S'http://www.reuters.com/article/musicNews/idUSN2319907220070825'
p101
sg4
S'20070824\xc2\xa009:16 PM EDT'
p102
sg6
S'Vedder to perform at movie premiere in Toronto'
p103
sa(dp104
g2
S'http://www.reuters.com/article/musicNews/idUSN2245497020070825'
p105
sg4
S'20070824\xc2\xa009:16 PM EDT'
p106
sg6
S'New York judge sends pregnant Foxy Brown to jail'
p107
sa(dp108
g2
S'http://www.reuters.com/article/ousiv/idUSN2434235620070825'
p109
sg4
S'20070824\xc2\xa009:14 PM EDT'
p110
sg6
S"Qualcomm's legal battles make it a risky bet"
p111
sa(dp112
g2
S'http://www.reuters.com/article/gc06/idUSN2433591220070825'
p113
sg4
S'20070824\xc2\xa009:14 PM EDT'
p114
sg6
S'July new home sales and durables orders rise'
p115
sa(dp116
g2
S'http://www.reuters.com/article/businessNews/idUSN0135773520070825'
p117
sg4
S'20070824\xc2\xa009:13 PM EDT'
p118
sg6
S'Bulls crave more calm as Fed in focus'
p119
sa(dp120
g2
S'http://www.reuters.com/article/worldNews/idUSN2433981420070825'
p121
sg4
S'20070824\xc2\xa008:51 PM EDT'
p122
sg6
S'UK woman in trans-Pacific rowing attempt rescued'
p123
sa(dp124
g2
S'http://www.reuters.com/article/domesticNews/idUSKRA50306120070825'
p125
sg4
S'20070824\xc2\xa008:51 PM EDT'
p126
sg6
S'CORRECTION: Presbyterian Church rebukes "lesbian evangelist"'
p127
sa(dp128
g2
S'http://www.reuters.com/article/companyNewsAndPR/idUSN2437309020070825'
p129
sg4
S'20070824\xc2\xa008:47 PM EDT'
p130
sg6
S'Nike terminates contract with NFL player Vick'
p131
sa(dp132
g2
S'http://www.reuters.com/article/musicNews/idUSL2288202620070825'
p133
sg4
S'20070824\xc2\xa008:47 PM EDT'
p134
sg6
S'Arena rapped after Stones light up'
p135
sa(dp136
g2
S'http://www.reuters.com/article/musicNews/idUSN2219254620070825'
p137
sg4
S'20070824\xc2\xa008:46 PM EDT'
p138
sg6
S"Ticketmaster sees Live Nation tie-up ending in '08"
p139
sa(dp140
g2
S'http://www.reuters.com/article/sportsNews/idUSKRA50101220070825'
p141
sg4
S'20070824\xc2\xa008:16 PM EDT'
p142
sg6
S'Dodgers sign pitcher Wells'
p143
sa(dp144
g2
S'http://www.reuters.com/article/sportsNews/idUSKRA50067120070825'
p145
sg4
S'20070824\xc2\xa008:11 PM EDT'
p146
sg6
S'CORRECTION: Dodgers sign pitcher Wells'
p147
sa(dp148
g2
S'http://www.reuters.com/article/sportsNews/idUSN2220782320070825'
p149
sg4
S'20070824\xc2\xa008:09 PM EDT'
p150
sg6
S'Eagle helps Choi grab halfway lead at Barclays'
p151
sa(dp152
g2
S'http://www.reuters.com/article/sportsNews/idUSSP21530720070825'
p153
sg4
S'20070824\xc2\xa008:09 PM EDT'
p154
sg6
S'Beem heating up at right time in Barclays Classic'
p155
sa(dp156
g2
S'http://www.reuters.com/article/worldNews/idUSN2212503520070825'
p157
sg4
S'20070824\xc2\xa008:06 PM EDT'
p158
sg6
S'Jamaica postpones election due to Hurricane Dean'
p159
sa(dp160
g2
S'http://www.reuters.com/article/domesticNews/idUSN2434843420070825'
p161
sg4
S'20070824\xc2\xa008:05 PM EDT'
p162
sg6
S'Californians could get $1.3 billion in energy ruling'
p163
sa(dp164
g2
S'http://www.reuters.com/article/topNews/idUSN2435952020070824'
p165
sg4
S'20070824\xc2\xa007:54 PM EDT'
p166
sg6
S'Ex-Klansman gets life for Mississippi killings'
p167
sa(dp168
g2
S'http://www.reuters.com/article/latestCrisis/idUSN24344760'
p169
sg4
S'20070824\xc2\xa007:51 PM EDT'
p170
sg6
S'ANALYSIS-Warner call on Iraq troops an alert for Bush'
p171
sa(dp172
g2
S'http://www.reuters.com/article/sportsNews/idUSSP21517020070824'
p173
sg4
S'20070824\xc2\xa007:50 PM EDT'
p174
sg6
S'Tired Beckham ruled out of Colorado match'
p175
sa(dp176
g2
S'http://www.reuters.com/article/domesticNews/idUSN2223569520070824'
p177
sg4
S'20070824\xc2\xa007:50 PM EDT'
p178
sg6
S'Central U.S. storms, floods spread more havoc'
p179
sa(dp180
g2
S'http://www.reuters.com/article/domesticNews/idUSWNAS287820070824'
p181
sg4
S'20070824\xc2\xa007:50 PM EDT'
p182
sg6
S'310,000 still without power in the Midwest'
p183
sa(dp184
g2
S'http://www.reuters.com/article/companyNewsAndPR/idUSN2437858620070824'
p185
sg4
S'20070824\xc2\xa007:48 PM EDT'
p186
sg6
S'UPDATE 2-310,000 still without power in US Midwest'
p187
sa(dp188
g2
S'http://www.reuters.com/article/latestCrisis/idUSN24378586'
p189
sg4
S'20070824\xc2\xa007:48 PM EDT'
p190
sg6
S'310,000 still without power in US Midwest'
p191
sa(dp192
g2
S'http://www.reuters.com/article/topNews/idUSN2435375620070824'
p193
sg4
S'20070824\xc2\xa007:46 PM EDT'
p194
sg6
S'Gen. Pace denies will urge troop cut in Iraq'
p195
sa(dp196
g2
S'http://www.reuters.com/article/latestCrisis/idUSN24353756'
p197
sg4
S'20070824\xc2\xa007:45 PM EDT'
p198
sg6
S'Gen. Pace denies will urge U.S. troop cut in Iraq'
p199
sa(dp200
g2
S'http://www.reuters.com/article/companyNewsAndPR/idUSN2436382120070824'
p201
sg4
S'20070824\xc2\xa007:39 PM EDT'
p202
sg6
S'Customer relation software co. SugarCRM revs jump'
p203
sa(dp204
g2
S'http://www.reuters.com/article/reviewsNews/idUSN2446820420070824'
p205
sg4
S'20070824\xc2\xa007:38 PM EDT'
p206
sg6
S'Billboard CD reviews: Lovett, Anka'
p207
sa(dp208
g2
S'http://www.reuters.com/article/reviewsNews/idUSN2437017220070824'
p209
sg4
S'20070824\xc2\xa007:38 PM EDT'
p210
sg6
S'Billboard DVD review: Kiss'
p211
sa(dp212
g2
S'http://www.reuters.com/article/reviewsNews/idUSN2431077920070824'
p213
sg4
S'20070824\xc2\xa007:38 PM EDT'
p214
sg6
S'Bob Saget revels in naughty words'
p215
sa(dp216
g2
S'http://www.reuters.com/article/reviewsNews/idUSN2429572020070824'
p217
sg4
S'20070824\xc2\xa007:38 PM EDT'
p218
sg6
S'A "Midsummer" delight in Central Park'
p219
sa(dp220
g2
S'http://www.reuters.com/article/reviewsNews/idUSN2429561420070824'
p221
sg4
S'20070824\xc2\xa007:38 PM EDT'
p222
sg6
S'"Deep Water" -- eight months in a leaky boat'
p223
sa(dp224
g2
S'http://www.reuters.com/article/reviewsNews/idUSN2429560920070824'
p225
sg4
S'20070824\xc2\xa007:38 PM EDT'
p226
sg6
S'"September" massacre movie has little appeal'
p227
sa(dp228
g2
S'http://www.reuters.com/article/reviewsNews/idUSN2420307420070824'
p229
sg4
S'20070824\xc2\xa007:38 PM EDT'
p230
sg6
S'"Illegal Tender" a worthy bet'
p231
sa(dp232
g2
S'http://www.reuters.com/article/reviewsNews/idUSN2139155420070824'
p233
sg4
S'20070824\xc2\xa007:37 PM EDT'
p234
sg6
S'"Shoot \'Em Up" - the title says it all'
p235
sa(dp236
g2
S'http://www.reuters.com/article/companyNewsAndPR/idUSN2437774220070824'
p237
sg4
S'20070824\xc2\xa007:36 PM EDT'
p238
sg6
S'UPDATE 1-Zurich Financial to pay $30 mln to settle suit'
p239
sa(dp240
g2
S'http://www.reuters.com/article/companyNewsAndPR/idUSN2420834420070824'
p241
sg4
S'20070824\xc2\xa007:32 PM EDT'
p242
sg6
S'UPDATE 1-Rambus to pursue claims against a former executive'
p243
sa(dp244
g2
S'http://www.reuters.com/article/sportsNews/idUSN2220782320070824'
p245
sg4
S'20070824\xc2\xa007:18 PM EDT'
p246
sg6
S'Eagle helps Choi grab halfway lead at Barclays'
p247
sa(dp248
g2
S'http://www.reuters.com/article/sportsNews/idUSN2436879420070824'
p249
sg4
S'20070824\xc2\xa007:18 PM EDT'
p250
sg6
S'Commercial helps charitable Choi to raise his game'
p251
sa(dp252
g2
S'http://www.reuters.com/article/companyNewsAndPR/idUSN2437697920070824'
p253
sg4
S'20070824\xc2\xa007:16 PM EDT'
p254
sg6
S'CORRECTED-Zurich Financial to pay $30 mln to settle suit'
p255
sa(dp256
g2
S'http://www.reuters.com/article/bondsNews/idUSWNAS288320070824'
p257
sg4
S'20070824\xc2\xa007:13 PM EDT'
p258
sg6
S'Calpine reaches power-sales pact with California authorities'
p259
sa(dp260
g2
S'http://www.reuters.com/article/sportsNews/idUSSP21579920070824'
p261
sg4
S'20070824\xc2\xa007:11 PM EDT'
p262
sg6
S'Dodgers sign pitcher Wells'
p263
sa(dp264
g2
S'http://www.reuters.com/article/topNews/idUSN2436784720070824'
p265
sg4
S'20070824\xc2\xa007:10 PM EDT'
p266
sg6
S"Judge clears way for Noriega's French extradition"
p267
sa(dp268
g2
S'http://www.reuters.com/article/musicNews/idUSN2219803020070824'
p269
sg4
S'20070824\xc2\xa007:09 PM EDT'
p270
sg6
S'"High School Musical 2" tops class on pop chart'
p271
sa(dp272
g2
S'http://www.reuters.com/article/musicNews/idUSN2324105920070824'
p273
sg4
S'20070824\xc2\xa007:09 PM EDT'
p274
sg6
S'Reggae singer still "Beautiful" atop chart'
p275
sa(dp276
g2
S'http://www.reuters.com/article/musicNews/idUSN2219254620070824'
p277
sg4
S'20070824\xc2\xa007:09 PM EDT'
p278
sg6
S"Ticketmaster sees Live Nation tie-up ending in '08"
p279
sa(dp280
g2
S'http://www.reuters.com/article/musicNews/idUSN2319907220070824'
p281
sg4
S'20070824\xc2\xa007:09 PM EDT'
p282
sg6
S'Vedder to perform at movie premiere in Toronto'
p283
sa(dp284
g2
S'http://www.reuters.com/article/musicNews/idUSL2288202620070824'
p285
sg4
S'20070824\xc2\xa007:09 PM EDT'
p286
sg6
S'Arena rapped after Stones light up'
p287
sa(dp288
g2
S'http://www.reuters.com/article/musicNews/idUSN2437019220070824'
p289
sg4
S'20070824\xc2\xa007:09 PM EDT'
p290
sg6
S'Classical labels veer toward crowd-pleasers'
p291
sa(dp292
g2
S'http://www.reuters.com/article/musicNews/idUSN2437018820070824'
p293
sg4
S'20070824\xc2\xa007:09 PM EDT'
p294
sg6
S"Docu reveals Lanois' recording studio strategy"
p295
sa(dp296
g2
S'http://www.reuters.com/article/musicNews/idUSN2245497020070824'
p297
sg4
S'20070824\xc2\xa007:09 PM EDT'
p298
sg6
S'New York judge sends pregnant Foxy Brown to jail'
p299
sa(dp300
g2
S'http://www.reuters.com/article/musicNews/idUSN2425240120070824'
p301
sg4
S'20070824\xc2\xa007:09 PM EDT'
p302
sg6
S'Killers corralling rarities for b-sides album'
p303
sa(dp304
g2
S'http://www.reuters.com/article/domesticNews/idUSN2437341220070824'
p305
sg4
S'20070824\xc2\xa007:08 PM EDT'
p306
sg6
S"Pit bulls seized in raid on rapper DMX's home"
p307
sa(dp308
g2
S'http://www.reuters.com/article/reutersEdge/idUSN2430505220070824'
p309
sg4
S'20070824\xc2\xa007:04 PM EDT'
p310
sg6
S'Big funds stick with commods indexes after declines'
p311
sa(dp312
g2
S'http://www.reuters.com/article/politicsNews/idUSN2427402920070824'
p313
sg4
S'20070824\xc2\xa007:03 PM EDT'
p314
sg6
S'Detroit lawyer charged for 2004 Edwards donations'
p315
sa(dp316
g2
S'http://www.reuters.com/article/politicsNews/idUSN2437705620070824'
p317
sg4
S'20070824\xc2\xa007:01 PM EDT'
p318
sg6
S'Washington eyes precision bomb sale to Singapore'
p319
sa(dp320
g2
S'http://www.reuters.com/article/lifestyleMolt/idUSL2453280420070824'
p321
sg4
S'20070824\xc2\xa007:01 PM EDT'
p322
sg6
S'"The Sims" creator completes next game'
p323
sa(dp324
g2
S'http://www.reuters.com/article/companyNewsAndPR/idUSWNAS288120070824'
p325
sg4
S'20070824\xc2\xa006:54 PM EDT'
p326
sg6
S'Align Tech says appeals court agrees 86 Ormco claims invalid'
p327
sa(dp328
g2
S'http://www.reuters.com/article/topNews/idUSN2435142120070824'
p329
sg4
S'20070824\xc2\xa006:50 PM EDT'
p330
sg6
S"NFL's Vick suspended after admitting guilty"
p331
sa(dp332
g2
S'http://www.reuters.com/article/topNews/idUSN2435367020070824'
p333
sg4
S'20070824\xc2\xa006:50 PM EDT'
p334
sg6
S'FACTBOX: Vick admits guilt in dogfight case'
p335
sa(dp336
g2
S'http://www.reuters.com/article/governmentFilingsNews/idUSN8O37425120070824'
p337
sg4
S'20070824\xc2\xa006:47 PM EDT'
p338
sg6
S'UPDATE 1-PokerTek puts CFO on leave due to credit card use'
p339
sa(dp340
g2
S'http://www.reuters.com/article/bondsNews/idUSN2437748520070824'
p341
sg4
S'20070824\xc2\xa006:46 PM EDT'
p342
sg6
S'California budget signed; bond sales to resume'
p343
sa(dp344
g2
S'http://www.reuters.com/article/ousiv/idUSN2458729720070824'
p345
sg4
S'20070824\xc2\xa006:43 PM EDT'
p346
sg6
S'Wall Street wonders about lack of borrowing from Fed'
p347
sa(dp348
g2
S'http://www.reuters.com/article/ousiv/idUSN2434970120070824'
p349
sg4
S'20070824\xc2\xa006:43 PM EDT'
p350
sg6
S'Ford, GM propose health care fund to union: sources'
p351
sa(dp352
g2
S'http://www.reuters.com/article/ousiv/idUSN2434235620070824'
p353
sg4
S'20070824\xc2\xa006:43 PM EDT'
p354
sg6
S"Qualcomm's legal battles make it a risky bet"
p355
sa(dp356
g2
S'http://www.reuters.com/article/latestCrisis/idUSN22125035'
p357
sg4
S'20070824\xc2\xa006:43 PM EDT'
p358
sg6
S'Jamaica postpones election due to Hurricane Dean'
p359
sa(dp360
g2
S'http://www.reuters.com/article/businessNews/idUSN2433591220070824'
p361
sg4
S'20070824\xc2\xa006:43 PM EDT'
p362
sg6
S'July new home sales and durables orders rise'
p363
sa(dp364
g2
S'http://www.reuters.com/article/sportsNews/idUSN2437128920070824'
p365
sg4
S'20070824\xc2\xa006:38 PM EDT'
p366
sg6
S'Indians minor leaguer suspended after testing positive'
p367
sa(dp368
g2
S'http://www.reuters.com/article/businessNews/idUSN0135773520070824'
p369
sg4
S'20070824\xc2\xa006:37 PM EDT'
p370
sg6
S'Bulls crave more calm as Fed in focus'
p371
sa(dp372
g2
S'http://www.reuters.com/article/domesticNews/idUSN2417360020070824'
p373
sg4
S'20070824\xc2\xa006:34 PM EDT'
p374
sg6
S"Many keep away from Bonds's big celebration"
p375
sa(dp376
g2
S'http://www.reuters.com/article/usMktRpt/idUSN2437318220070824'
p377
sg4
S'20070824\xc2\xa006:32 PM EDT'
p378
sg6
S'Wall St Week Ahead: Bulls crave more calm, Fed in focus'
p379
sa(dp380
g2
S'http://www.reuters.com/article/musicNews/idUSN2131172320070824'
p381
sg4
S'20070824\xc2\xa006:30 PM EDT'
p382
sg6
S'Live Nation aims to entice Madonna with deal'
p383
sa(dp384
g2
S'http://www.reuters.com/article/musicNews/idUSN2121558420070824'
p385
sg4
S'20070824\xc2\xa006:29 PM EDT'
p386
sg6
S'Stones roll out late-era albums free of copy curbs'
p387
sa(dp388
g2
S'http://www.reuters.com/article/inPlayBriefing/idUSIN20070824182326ALGN20070824'
p389
sg4
S'20070824\xc2\xa006:23 PM EDT'
p390
sg6
S'Align Technology announces victory in Ormco patent litigation; 86 Ormco claims ruled invalid by U.S. Court of Appeals'
p391
sa(dp392
g2
S'http://www.reuters.com/article/environmentNews/idUSN2437434520070824'
p393
sg4
S'20070824\xc2\xa006:18 PM EDT'
p394
sg6
S'USDA declares counties disaster areas in 3 states'
p395
sa(dp396
g2
S'http://www.reuters.com/article/environmentNews/idUSN2437298920070824'
p397
sg4
S'20070824\xc2\xa006:18 PM EDT'
p398
sg6
S'Modest start to Kyoto trade on Chicago exchange'
p399
sa(dp400
g2
S'http://www.reuters.com/article/environmentNews/idUSN2434068220070824'
p401
sg4
S'20070824\xc2\xa006:18 PM EDT'
p402
sg6
S'GM testing engine that could up fuel savings by 15 percent'
p403
sa(dp404
g2
S'http://www.reuters.com/article/environmentNews/idUSL2469034420070824'
p405
sg4
S'20070824\xc2\xa006:18 PM EDT'
p406
sg6
S'Forest fires kill 16 as Greece asks EU for help'
p407
sa(dp408
g2
S'http://www.reuters.com/article/environmentNews/idUSL2457394520070824'
p409
sg4
S'20070824\xc2\xa006:18 PM EDT'
p410
sg6
S'UK flooding report calls for tougher city defenses'
p411
sa(dp412
g2
S'http://www.reuters.com/article/environmentNews/idUSL2420728620070824'
p413
sg4
S'20070824\xc2\xa006:18 PM EDT'
p414
sg6
S'Merkel puts climate, skills atop German agenda'
p415
sa(dp416
g2
S'http://www.reuters.com/article/environmentNews/idUSHAN23681720070824'
p417
sg4
S'20070824\xc2\xa006:18 PM EDT'
p418
sg6
S'Bird flu hits poultry in two Vietnam provinces'
p419
sa(dp420
g2
S'http://www.reuters.com/article/topNews/idUSN2435609920070824'
p421
sg4
S'20070824\xc2\xa006:10 PM EDT'
p422
sg6
S'Ex-astronaut apologizes in love triangle case'
p423
sa(dp424
g2
S'http://www.reuters.com/article/environmentNews/idUSL2481723220070824'
p425
sg4
S'20070824\xc2\xa006:10 PM EDT'
p426
sg6
S'Seventeen die in Greece as fires sweep SE Europe'
p427
sa(dp428
g2
S'http://www.reuters.com/article/businessNews/idUSN2030800420070824'
p429
sg4
S'20070824\xc2\xa006:06 PM EDT'
p430
sg6
S'Indexes rally on strong data as turbulence eases'
p431
sa(dp432
g2
S'http://www.reuters.com/article/sportsNews/idUSL2406542720070824'
p433
sg4
S'20070824\xc2\xa006:03 PM EDT'
p434
sg6
S'Reggie Miller ends comeback talk'
p435
sa(dp436
g2
S'http://www.reuters.com/article/governmentFilingsNews/idUSWNAS287620070824'
p437
sg4
S'20070824\xc2\xa006:02 PM EDT'
p438
sg6
S'Rambus says panel for terminating claims in derivative actions'
p439
sa(dp440
g2
S'http://www.reuters.com/article/latestCrisis/idUSL24817232'
p441
sg4
S'20070824\xc2\xa006:02 PM EDT'
p442
sg6
S'Seventeen die in Greece as fires sweep SE Europe'
p443
sa(dp444
g2
S'http://www.reuters.com/article/economicNews/idUSN2437586820070824'
p445
sg4
S'20070824\xc2\xa005:59 PM EDT'
p446
sg6
S'UPDATE 1-Brazil Meirelles: Gradualism best monetary policy'
p447
sa(dp448
g2
S'http://www.reuters.com/article/governmentFilingsNews/idUSWEN068520070824'
p449
sg4
S'20070824\xc2\xa005:58 PM EDT'
p450
sg6
S'PokerTek says puts CFO Daniels on leave'
p451
sa(dp452
g2
S'http://www.reuters.com/article/usMktRpt/idUSN2437579820070824'
p453
sg4
S'20070824\xc2\xa005:57 PM EDT'
p454
sg6
S'US STOCKS-Indexes rally on strong data as turbulence eases'
p455
sa(dp456
g2
S'http://www.reuters.com/article/inPlayBriefing/idUSIN20070824175548PTEK20070824'
p457
sg4
S'20070824\xc2\xa005:55 PM EDT'
p458
sg6
S'PokerTek annonces in 8-K its CFO has been placed on administrative leave pending investigation'
p459
sa(dp460
g2
S'http://www.reuters.com/article/mergersNews/idUSWNAS287720070824'
p461
sg4
S'20070824\xc2\xa005:53 PM EDT'
p462
sg6
S"Home BancShares to buy Arkansas' Centennial Bancshares"
p463
sa(dp464
g2
S'http://www.reuters.com/article/companyNewsAndPR/idUSN2436491720070824'
p465
sg4
S'20070824\xc2\xa005:50 PM EDT'
p466
sg6
S'Intel rolls out new chips for business market'
p467
sa(dp468
g2
S'http://www.reuters.com/article/companyNewsAndPR/idUSN2464186520070824'
p469
sg4
S'20070824\xc2\xa005:49 PM EDT'
p470
sg6
S'REUTER MONEYGRAPH-IMF SDR RATES-AUG 24 US 1.52941'
p471
sa(dp472
g2
S'http://www.reuters.com/article/companyNewsAndPR/idUSWNAS287920070824'
p473
sg4
S'20070824\xc2\xa005:49 PM EDT'
p474
sg6
S'Apcon settles patent dispute with MRV Communications'
p475
sa(dp476
g2
S'http://www.reuters.com/article/politicsNews/idUSN2436551920070824'
p477
sg4
S'20070824\xc2\xa005:49 PM EDT'
p478
sg6
S'Washington eyes big arm sales to Israel, Egypt'
p479
sa(dp480
g2
S'http://www.reuters.com/article/businessNews/idUSPEK14997020070824'
p481
sg4
S'20070824\xc2\xa005:46 PM EDT'
p482
sg6
S'ECB rise not certain as Asia subprime fears grow'
p483
sa(dp484
g2
S'http://www.reuters.com/article/bondsNews/idUSL2439053120070824'
p485
sg4
S'20070824\xc2\xa005:44 PM EDT'
p486
sg6
S'CREDIT WRAPUP 5-ECB rise not certain, Asia subprime fears grow'
p487
sa(dp488
g2
S'http://www.reuters.com/article/economicNews/idUSN2433652620070824'
p489
sg4
S'20070824\xc2\xa005:43 PM EDT'
p490
sg6
S'WRAPUP 2-U.S. July new home sales, durables orders rise'
p491
sa(dp492
g2
S'http://www.reuters.com/article/technologyNews/idUSL2479046020070824'
p493
sg4
S'20070824\xc2\xa005:42 PM EDT'
p494
sg6
S'"Tongue Sucker" wins prestigious 2007 design award'
p495
sa(dp496
g2
S'http://www.reuters.com/article/governmentFilingsNews/idUSN2437522420070824'
p497
sg4
S'20070824\xc2\xa005:37 PM EDT'
p498
sg6
S'Sonics Inc. files for $80 million IPO'
p499
sa(dp500
g2
S'http://www.reuters.com/article/economicNews/idUSN243477020070824'
p501
sg4
S'20070824\xc2\xa005:36 PM EDT'
p502
sg6
S'DIARY-Federal Reserve Events'
p503
sa(dp504
g2
S'http://www.reuters.com/article/governmentFilingsNews/idUSWNAS287520070824'
p505
sg4
S'20070824\xc2\xa005:36 PM EDT'
p506
sg6
S'Evercore files for offering of about 20.2 million shares'
p507
sa(dp508
g2
S'http://www.reuters.com/article/scienceNews/idUSN2434114620070824'
p509
sg4
S'20070824\xc2\xa005:35 PM EDT'
p510
sg6
S'NASA orders fix for space shuttle tank'
p511
sa(dp512
g2
S'http://www.reuters.com/article/filmNews/idUSN2436808820070824'
p513
sg4
S'20070824\xc2\xa005:35 PM EDT'
p514
sg6
S'The latest in film publicity? A barf bag'
p515
sa(dp516
g2
S'http://www.reuters.com/article/economicNews/idUSN2462466420070824'
p517
sg4
S'20070824\xc2\xa005:35 PM EDT'
p518
sg6
S'Brazil Meirelles: gradualism best monetary policy'
p519
sa(dp520
g2
S'http://www.reuters.com/article/healthNews/idUSROB47764920070824'
p521
sg4
S'20070824\xc2\xa005:34 PM EDT'
p522
sg6
S'Novartis tells European MDs of Prexige measures'
p523
sa(dp524
g2
S'http://www.reuters.com/article/companyNewsAndPR/idUSN2437343520070824'
p525
sg4
S'20070824\xc2\xa005:33 PM EDT'
p526
sg6
S'Brazil aviation official resigns after July crash'
p527
sa(dp528
g2
S'http://www.reuters.com/article/inDepthNews/idUSL2463444920070824'
p529
sg4
S'20070824\xc2\xa005:32 PM EDT'
p530
sg6
S'Silk Road oasis of Samarkand ages fast'
p531
sa(dp532
g2
S'http://www.reuters.com/article/healthNews/idUSROB47737520070824'
p533
sg4
S'20070824\xc2\xa005:30 PM EDT'
p534
sg6
S'Oxygen therapy benefits only some COPD patients'
p535
sa(dp536
g2
S'http://www.reuters.com/article/inPlayBriefing/idUSIN20070824172944MRVC20070824'
p537
sg4
S'20070824\xc2\xa005:29 PM EDT'
p538
sg6
S'APCON and MRV Communications settle patent dispute'
p539
sa(dp540
g2
S'http://www.reuters.com/article/companyNewsAndPR/idUSBNG21000220070824'
p541
sg4
S'20070824\xc2\xa005:29 PM EDT'
p542
sg6
S'UPDATE 1-Selectica gets CEO to resign over option backdating'
p543
sa(dp544
g2
S'http://www.reuters.com/article/tnBasicIndustries-SP/idUSWNAS285320070824'
p545
sg4
S'20070824\xc2\xa005:29 PM EDT'
p546
sg6
S'International Paper says reached labor agreement'
p547
sa(dp548
g2
S'http://www.reuters.com/article/tnBasicIndustries-SP/idUSRAT00321420070824'
p549
sg4
S'20070824\xc2\xa005:29 PM EDT'
p550
sg6
S'Alitalia to cease to be Italian: Unicredit CEO'
p551
sa(dp552
g2
S'http://www.reuters.com/article/tnBasicIndustries-SP/idUSN2433580020070824'
p553
sg4
S'20070824\xc2\xa005:29 PM EDT'
p554
sg6
S'Fraser Papers to shutter New Brunswick lumber mill'
p555
sa(dp556
g2
S'http://www.reuters.com/article/tnBasicIndustries-SP/idUSN2433450420070824'
p557
sg4
S'20070824\xc2\xa005:29 PM EDT'
p558
sg6
S'Dana Corp asks Appaloosa for proposal by Sept. 21'
p559
sa(dp560
g2
S'http://www.reuters.com/article/tnBasicIndustries-SP/idUSN2426915120070824'
p561
sg4
S'20070824\xc2\xa005:29 PM EDT'
p562
sg6
S'U.S. airline merger frenzy unlikely anytime soon'
p563
sa(dp564
g2
S'http://www.reuters.com/article/tnBasicIndustries-SP/idUSBOM20372520070824'
p565
sg4
S'20070824\xc2\xa005:29 PM EDT'
p566
sg6
S"India's Tata says has interest in Jaguar, Land Rover"
p567
sa(dp568
g2
S'http://www.reuters.com/article/healthNews/idUSROB47731420070824'
p569
sg4
S'20070824\xc2\xa005:29 PM EDT'
p570
sg6
S'Breast cancer decline attributed to drop in HRT'
p571
sa(dp572
g2
S'http://www.reuters.com/article/globalMarketsNews/idUST19710920070824'
p573
sg4
S'20070824\xc2\xa005:28 PM EDT'
p574
sg6
S'Dollar slips vs euro as credit concerns ease'
p575
sa(dp576
g2
S'http://www.reuters.com/article/domesticNews/idUSN2437253120070824'
p577
sg4
S'20070824\xc2\xa005:27 PM EDT'
p578
sg6
S'Notorious killer sentenced to death in Florida'
p579
sa(dp580
g2
S'http://www.reuters.com/article/companyNewsAndPR/idUSN2437695720070824'
p581
sg4
S'20070824\xc2\xa005:27 PM EDT'
p582
sg6
S'Argentina stocks, bonds rise amid regional upswing'
p583
sa(dp584
g2
S'http://www.reuters.com/article/companyNewsAndPR/idUSN2462798920070824'
p585
sg4
S'20070824\xc2\xa005:26 PM EDT'
p586
sg6
S'FOREX-Dollar slips vs euro as credit concerns ease'
p587
sa(dp588
g2
S'http://www.reuters.com/article/topNews/idUSN2435809420070824'
p589
sg4
S'20070824\xc2\xa005:26 PM EDT'
p590
sg6
S'FACTBOX: Judge denies Noriega repatriation request'
p591
sa(dp592
g2
S'http://www.reuters.com/article/inPlayBriefing/idUSIN20070824172639LRCX20070824'
p593
sg4
S'20070824\xc2\xa005:26 PM EDT'
p594
sg6
S'Lam Research delays 10-K, cites option review as reason'
p595
sa(dp596
g2
S'http://www.reuters.com/article/governmentFilingsNews/idUSN2437442920070824'
p597
sg4
S'20070824\xc2\xa005:26 PM EDT'
p598
sg6
S'Trico Marine files for $250 mln debt, stock shelf'
p599
sa(dp600
g2
S'http://www.reuters.com/article/companyNewsAndPR/idUSN2437431620070824'
p601
sg4
S'20070824\xc2\xa005:26 PM EDT'
p602
sg6
S'UPDATE 1-Chevron may cut crude buys after Pascagoula fire'
p603
sa(dp604
g2
S'http://www.reuters.com/article/newsOne/idUSN2436761120070824'
p605
sg4
S'20070824\xc2\xa005:25 PM EDT'
p606
sg6
S'Giuliani to push tax cuts to woo voters'
p607
sa(dp608
g2
S'http://www.reuters.com/article/companyNewsAndPR/idUSN2462657420070824'
p609
sg4
S'20070824\xc2\xa005:24 PM EDT'
p610
sg6
S"Moody's Commodities Index"
p611
sa(dp612
g2
S'http://www.reuters.com/article/topNews/idUSL2422314420070824'
p613
sg4
S'20070824\xc2\xa005:22 PM EDT'
p614
sg6
S'U.S. bomb kills 3 British soldiers in Afghanistan'
p615
sa(dp616
g2
S'http://www.reuters.com/article/topNews/idUSN2436004320070824'
p617
sg4
S'20070824\xc2\xa005:22 PM EDT'
p618
sg6
S"Hackers claim to untie Apple's iPhone from AT&T;"
p619
sa(dp620
g2
S'http://www.reuters.com/article/latestCrisis/idUSN24369195'
p621
sg4
S'20070824\xc2\xa005:21 PM EDT'
p622
sg6
S"US judge clears way for Noriega's French extradition"
p623
sa(dp624
g2
S'http://www.reuters.com/article/bondsNews/idUSN2430877420070824'
p625
sg4
S'20070824\xc2\xa005:21 PM EDT'
p626
sg6
S'U.S. distressed debt ratio rises in August -S&P;'
p627
sa(dp628
g2
S'http://www.reuters.com/article/environmentNews/idUSHKG27555520070824'
p629
sg4
S'20070824\xc2\xa005:19 PM EDT'
p630
sg6
S'Climate, biofuel new challenge to poverty alleviation'
p631
sa(dp632
g2
S'http://www.reuters.com/article/tnBasicIndustries-SP/idUSWNAS287420070824'
p633
sg4
S'20070824\xc2\xa005:19 PM EDT'
p634
sg6
S'Fraser Papers to shutter New Brunswick lumber mill'
p635
sa(dp636
g2
S'http://www.reuters.com/article/inPlayBriefing/idUSIN20070824171801RMBS20070824'
p637
sg4
S'20070824\xc2\xa005:18 PM EDT'
p638
sg6
S'Rambus provides update regarding independent review of past stock option practices'
p639
sa(dp640
g2
S'http://www.reuters.com/article/bondsNews/idUSN2437254720070824'
p641
sg4
S'20070824\xc2\xa005:13 PM EDT'
p642
sg6
S'UPDATE 4-Toronto stocks jump as resources lure investors'
p643
sa(dp644
g2
S'http://www.reuters.com/article/companyNewsAndPR/idUSN2437325220070824'
p645
sg4
S'20070824\xc2\xa005:13 PM EDT'
p646
sg6
S'Chevron may cancel crude shipments to Pascagoula'
p647
sa(dp648
g2
S'http://www.reuters.com/article/sportsNews/idUSN2437198720070824'
p649
sg4
S'20070824\xc2\xa005:11 PM EDT'
p650
sg6
S'Free agent center Foyle signed by the Magic'
p651
sa(dp652
g2
S'http://www.reuters.com/article/bondsNews/idUSN2436878820070824'
p653
sg4
S'20070824\xc2\xa005:10 PM EDT'
p654
sg6
S'Chile stocks rebound with region, peso gains'
p655
sa(dp656
g2
S'http://www.reuters.com/article/bankingfinancial-SP/idUSWNA075920070824'
p657
sg4
S'20070824\xc2\xa005:08 PM EDT'
p658
sg6
S'S&P; cuts 7 Bear Stearns Asset Backed Trust classes'
p659
sa(dp660
g2
S'http://www.reuters.com/article/bankingfinancial-SP/idUSN2457190520070824'
p661
sg4
S'20070824\xc2\xa005:08 PM EDT'
p662
sg6
S'Fitch cuts Countrywide, GMAC servicer ratings'
p663
sa(dp664
g2
S'http://www.reuters.com/article/bankingfinancial-SP/idUSN2434951920070824'
p665
sg4
S'20070824\xc2\xa005:08 PM EDT'
p666
sg6
S'Fitch affirms ratings on $317 bln of ABCP debt'
p667
sa(dp668
g2
S'http://www.reuters.com/article/bankingfinancial-SP/idUSN2434751220070824'
p669
sg4
S'20070824\xc2\xa005:08 PM EDT'
p670
sg6
S'Consortium may find ABN takeover unattractive'
p671
sa(dp672
g2
S'http://www.reuters.com/article/bankingfinancial-SP/idUSN2432828320070824'
p673
sg4
S'20070824\xc2\xa005:08 PM EDT'
p674
sg6
S'Bear rivals say courting prime broker clients'
p675
sa(dp676
g2
S'http://www.reuters.com/article/bankingfinancial-SP/idUSN2432363220070824'
p677
sg4
S'20070824\xc2\xa005:08 PM EDT'
p678
sg6
S'Royal Bank of Canada profit up, but stock dips'
p679
sa(dp680
g2
S'http://www.reuters.com/article/bankingfinancial-SP/idUSN2244729220070824'
p681
sg4
S'20070824\xc2\xa005:08 PM EDT'
p682
sg6
S"Suddenly, UBS' LBO stance doesn't look so bad"
p683
sa(dp684
g2
S'http://www.reuters.com/article/bankingfinancial-SP/idUSL2476094620070824'
p685
sg4
S'20070824\xc2\xa005:08 PM EDT'
p686
sg6
S"Russia's Sberbank net profit gain beats forecast"
p687
sa(dp688
g2
S'http://www.reuters.com/article/bankingfinancial-SP/idUSWNAS282120070824'
p689
sg4
S'20070824\xc2\xa005:08 PM EDT'
p690
sg6
S'Ex-Bear Stearns exec collects in dispute'
p691
sa(dp692
g2
S'http://www.reuters.com/article/governmentFilingsNews/idUSN2437383420070824'
p693
sg4
S'20070824\xc2\xa005:07 PM EDT'
p694
sg6
S'UPDATE 1-MedAssets files with US SEC for $230 million IPO'
p695
sa(dp696
g2
S'http://www.reuters.com/article/health-SP/idUSBNG24214220070824'
p697
sg4
S'20070824\xc2\xa005:03 PM EDT'
p698
sg6
S'Teva gets FDA OK for generic of herpes drug Famvir'
p699
sa(dp700
g2
S'http://www.reuters.com/article/health-SP/idUSN2437009420070824'
p701
sg4
S'20070824\xc2\xa005:03 PM EDT'
p702
sg6
S'Genentech submits data for breast cancer drug combo'
p703
sa(dp704
g2
S'http://www.reuters.com/article/health-SP/idUSL2427091320070824'
p705
sg4
S'20070824\xc2\xa005:03 PM EDT'
p706
sg6
S"Spain approves CSL's Gardasil anti-cancer vaccine"
p707
sa(dp708
g2
S'http://www.reuters.com/article/bondsNews/idUSN2436652920070824'
p709
sg4
S'20070824\xc2\xa005:02 PM EDT'
p710
sg6
S'Canadian dollar ends higher as market calms'
p711
sa(dp712
g2
S'http://www.reuters.com/article/inPlayBriefing/idUSIN20070824170222SVN20070824'
p713
sg4
S'20070824\xc2\xa005:02 PM EDT'
p714
sg6
S'Sun-Times Media Group advises on short-term investment portfolio'
p715
sa(dp716
g2
S'http://www.reuters.com/article/companyNewsAndPR/idUSN2445420070824'
p717
sg4
S'20070824\xc2\xa005:00 PM EDT'
p718
sg6
S'CORRECTED - CORRECTED - N.Y. Money Closing - Aug 24 2007'
p719
sa(dp720
g2
S'http://www.reuters.com/article/governmentFilingsNews/idUSN2437309320070824'
p721
sg4
S'20070824\xc2\xa004:59 PM EDT'
p722
sg6
S'MedAssets files with US SEC for $230 million IPO'
p723
sa(dp724
g2
S'http://www.reuters.com/article/bondsNews/idUSN2437252020070824'
p725
sg4
S'20070824\xc2\xa004:53 PM EDT'
p726
sg6
S'Canadian rating agency DBRS to review ABCP criteria'
p727
sa(dp728
g2
S'http://www.reuters.com/article/consumerproducts-SP/idUSN2432259520070824'
p729
sg4
S'20070824\xc2\xa004:52 PM EDT'
p730
sg6
S'Burger King net tops Street, shares fall on capex'
p731
sa(dp732
g2
S'http://www.reuters.com/article/consumerproducts-SP/idUSWNAS286220070824'
p733
sg4
S'20070824\xc2\xa004:52 PM EDT'
p734
sg6
S'General Mills prices $700 million note offering'
p735
sa(dp736
g2
S'http://www.reuters.com/article/consumerproducts-SP/idUSWLB093020070824'
p737
sg4
S'20070824\xc2\xa004:52 PM EDT'
p738
sg6
S'AB Foods to invest 70 mln stg in China beet sugar'
p739
sa(dp740
g2
S'http://www.reuters.com/article/consumerproducts-SP/idUSN2434201320070824'
p741
sg4
S'20070824\xc2\xa004:52 PM EDT'
p742
sg6
S'Smithfield to sell 60 mln pounds pork to China'
p743
sa(dp744
g2
S'http://www.reuters.com/article/consumerproducts-SP/idUSN2432358020070824'
p745
sg4
S'20070824\xc2\xa004:52 PM EDT'
p746
sg6
S'Heinz 1st-qtr net up'
p747
sa(dp748
g2
S'http://www.reuters.com/article/storyStocksBriefing/idUSST2007082416491920070824'
p749
sg4
S'20070824\xc2\xa004:49 PM EDT'
p750
sg6
S'Stock Market Update - Fri Aug 24 16:49:19 EDT 2007'
p751
sa(dp752
g2
S'http://www.reuters.com/article/governmentFilingsNews/idUSN2441483020070824'
p753
sg4
S'20070824\xc2\xa004:48 PM EDT'
p754
sg6
S"Bill Gates' fund raises stake in Republic Services"
p755
sa(dp756
g2
S'http://www.reuters.com/article/bondsNews/idUSN2436797420070824'
p757
sg4
S'20070824\xc2\xa004:46 PM EDT'
p758
sg6
S'S&P; cuts commercial paper of two SIV-lites'
p759
sa(dp760
g2
S'http://www.reuters.com/article/bondsNews/idUSN2460238920070824'
p761
sg4
S'20070824\xc2\xa004:44 PM EDT'
p762
sg6
S'TREASURIES-Bonds mixed, short-dated debt dips in safety unwind'
p763
sa(dp764
g2
S'http://www.reuters.com/article/newIssuesNews/idUSWNAS287020070824'
p765
sg4
S'20070824\xc2\xa004:42 PM EDT'
p766
sg6
S'Marsh & Mclennan sets accelerated share buyback'
p767
sa(dp768
g2
S'http://www.reuters.com/article/bondsNews/idUSN2446711220070824'
p769
sg4
S'20070824\xc2\xa004:41 PM EDT'
p770
sg6
S'UPDATE 3-Toronto stocks jump as resources lure investors'
p771
sa(dp772
g2
S'http://www.reuters.com/article/companyNewsAndPR/idUSWNAS286720070824'
p773
sg4
S'20070824\xc2\xa004:34 PM EDT'
p774
sg6
S'Selectica gets CEO to resign over stock-option backdating'
p775
sa(dp776
g2
S'http://www.reuters.com/article/bondsNews/idUSN2436515020070824'
p777
sg4
S'20070824\xc2\xa004:33 PM EDT'
p778
sg6
S'US STOCKS-Indexes rally on strong data as turbulence ebbs'
p779
sa(dp780
g2
S'http://www.reuters.com/article/healthNews/idUSROB47396920070824'
p781
sg4
S'20070824\xc2\xa004:33 PM EDT'
p782
sg6
S'Pain sensitivity in IBS patients may psychological'
p783
sa(dp784
g2
S'http://www.reuters.com/article/governmentFilingsNews/idUSN2446644620070824'
p785
sg4
S'20070824\xc2\xa004:32 PM EDT'
p786
sg6
S'Genco Shipping files for $525 million shelf offer'
p787
sa(dp788
g2
S'http://www.reuters.com/article/healthNews/idUSROB47387420070824'
p789
sg4
S'20070824\xc2\xa004:32 PM EDT'
p790
sg6
S'Alcohol may lower risk of kidney cancer'
p791
sa(dp792
g2
S'http://www.reuters.com/article/inPlayBriefing/idUSIN20070824163021UNM20070824'
p793
sg4
S'20070824\xc2\xa004:30 PM EDT'
p794
sg6
S'UNUMProvident Chief Financial Officer to adopt 10b5-1 Plan'
p795
sa(dp796
g2
S'http://www.reuters.com/article/companyNewsAndPR/idUSN2436004220070824'
p797
sg4
S'20070824\xc2\xa004:30 PM EDT'
p798
sg6
S'Brazil stocks rise in line with Wall St; real firm'
p799
sa(dp800
g2
S'http://www.reuters.com/article/healthNews/idUSROB47376720070824'
p801
sg4
S'20070824\xc2\xa004:30 PM EDT'
p802
sg6
S'Frovatriptan may prevent puncture-related headache'
p803
sa(dp804
g2
S'http://www.reuters.com/article/bondsNews/idUSN2459377020070824'
p805
sg4
S'20070824\xc2\xa004:29 PM EDT'
p806
sg6
S'Mexico markets gain on US data, reform optimism'
p807
sa(dp808
g2
S'http://www.reuters.com/article/globalMarketsNews/idUSN2420715220070824'
p809
sg4
S'20070824\xc2\xa004:26 PM EDT'
p810
sg6
S'Nasdaq short-interest falls in July'
p811
sa(dp812
g2
S'http://www.reuters.com/article/bondsNews/idUSTOR00200820070824'
p813
sg4
S'20070824\xc2\xa004:26 PM EDT'
p814
sg6
S'BoC aims to leave C$300 mln in settlement system'
p815
sa(dp816
g2
S'http://www.reuters.com/article/latestCrisis/idUSN24368950'
p817
sg4
S'20070824\xc2\xa004:24 PM EDT'
p818
sg6
S'Montreal evacuates part of Metro on crack fears'
p819
sa(dp820
g2
S'http://www.reuters.com/article/companyNewsAndPR/idUSN2436866820070824'
p821
sg4
S'20070824\xc2\xa004:24 PM EDT'
p822
sg6
S'FOREX-Dollar slips vs euro as credit concerns ease'
p823
sa(dp824
g2
S'http://www.reuters.com/article/companyNewsAndPR/idUSWNAS286620070824'
p825
sg4
S'20070824\xc2\xa004:21 PM EDT'
p826
sg6
S"Anadys Pharmaceuticals' CEO to step down"
p827
sa(dp828
g2
S'http://www.reuters.com/article/companyNewsAndPR/idUSWNAS286820070824'
p829
sg4
S'20070824\xc2\xa004:21 PM EDT'
p830
sg6
S'Hana Biosciences says CEO leaves, replacement named'
p831
sa(dp832
g2
S'http://www.reuters.com/article/governmentFilingsNews/idUSWEN068220070824'
p833
sg4
S'20070824\xc2\xa004:21 PM EDT'
p834
sg6
S'H&R; Block dissident wins backing of 2 proxy firms'
p835
sa(dp836
g2
S'http://www.reuters.com/article/stockTickerBriefing/idUSSI2007082416220420070824'
p837
sg4
S'20070824\xc2\xa004:20 PM EDT'
p838
sg6
S'Stock Market Update - Fri Aug 24 16:20:01 EDT 2007'
p839
sa(dp840
g2
S'http://www.reuters.com/article/africaCrisis/idUSL24702533'
p841
sg4
S'20070824\xc2\xa004:20 PM EDT'
p842
sg6
S'Niger president declares state of alert in north'
p843
sa(dp844
g2
S'http://www.reuters.com/article/economicNews/idUSWBT00746720070824'
p845
sg4
S'20070824\xc2\xa004:15 PM EDT'
p846
sg6
S'US business loans rose $11.2 bln in latest week-Fed'
p847
sa(dp848
g2
S'http://www.reuters.com/article/worldNews/idUSL2467420420070824'
p849
sg4
S'20070824\xc2\xa004:14 PM EDT'
p850
sg6
S"Militants' families evacuated from Lebanon camp"
p851
sa(dp852
g2
S'http://www.reuters.com/article/worldNews/idUSN2433960220070824'
p853
sg4
S'20070824\xc2\xa004:13 PM EDT'
p854
sg6
S'U.N. Council extends Lebanon peace force for year'
p855
sa(dp856
g2
S'http://www.reuters.com/article/bondsNews/idUSN2458373820070824'
p857
sg4
S'20070824\xc2\xa004:13 PM EDT'
p858
sg6
S'New Issue - General Mills sells $700 mln in notes'
p859
sa(dp860
g2
S'http://www.reuters.com/article/mergersNews/idUSN2432865920070824'
p861
sg4
S'20070824\xc2\xa004:13 PM EDT'
p862
sg6
S'UPDATE 3-CML seeks deal with Medisys, may face opposition'
p863
sa(dp864
g2
S'http://www.reuters.com/article/bondsNews/idUSN2436777720070824'
p865
sg4
S'20070824\xc2\xa004:13 PM EDT'
p866
sg6
S'US STOCKS-Indexes rally as calm prevails, data helps'
p867
sa(dp868
g2
S'http://www.reuters.com/article/technology-media-telco-SP/idUSTP28121920070824'
p869
sg4
S'20070824\xc2\xa004:12 PM EDT'
p870
sg6
S'TSMC to increase stake in Vanguard International'
p871
sa(dp872
g2
S'http://www.reuters.com/article/technology-media-telco-SP/idUSN2433344320070824'
p873
sg4
S'20070824\xc2\xa004:12 PM EDT'
p874
sg6
S"Take-Two's Manhunt 2 game approved for sale"
p875
sa(dp876
g2
S'http://www.reuters.com/article/technology-media-telco-SP/idUSL2482156620070824'
p877
sg4
S'20070824\xc2\xa004:12 PM EDT'
p878
sg6
S'D.Telekom still seeks business unit head: magazine'
p879
sa(dp880
g2
S'http://www.reuters.com/article/technology-media-telco-SP/idUSL2479502420070824'
p881
sg4
S'20070824\xc2\xa004:12 PM EDT'
p882
sg6
S'Premiere says plans capital increase; shares drop'
p883
sa(dp884
g2
S'http://www.reuters.com/article/technology-media-telco-SP/idUSL2441930820070824'
p885
sg4
S'20070824\xc2\xa004:12 PM EDT'
p886
sg6
S'Belgacom H1 beats consensus, share buyback possible'
p887
sa(dp888
g2
S'http://www.reuters.com/article/technology-media-telco-SP/idUSBNG20037620070824'
p889
sg4
S'20070824\xc2\xa004:12 PM EDT'
p890
sg6
S'Hearst offers to buy rest of Hearst-Argyle stake'
p891
sa(dp892
g2
S'http://www.reuters.com/article/latestCrisis/idUSN24358094'
p893
sg4
S'20070824\xc2\xa004:11 PM EDT'
p894
sg6
S'FACTBOX-US judge denies Noriega repatriation request'
p895
sa(dp896
g2
S'http://www.reuters.com/article/companyNewsAndPR/idUSN2246670620070824'
p897
sg4
S'20070824\xc2\xa004:10 PM EDT'
p898
sg6
S'U.S. LNG import capacity on verge of doubling'
p899
sa(dp900
g2
S'http://www.reuters.com/article/companyNewsAndPR/idUSN2436817620070824'
p901
sg4
S'20070824\xc2\xa004:10 PM EDT'
p902
sg6
S'UPDATE 1-IMM specs flip bets to net long yen - CFTC'
p903
sa(dp904
g2
S'http://www.reuters.com/article/companyNewsAndPR/idUSN2432853220070824'
p905
sg4
S'20070824\xc2\xa004:10 PM EDT'
p906
sg6
S'Bay Street Week Ahead-Safety in the eye of the storm'
p907
sa(dp908
g2
S'http://www.reuters.com/article/flashAlerts/idUSN2436927020070824'
p909
sg4
S'20070824\xc2\xa004:09 PM EDT'
p910
sg6
S'Dow ends up 143.48 (1.08 pct) at 13,379.36; Nasdaq up 34.13 (1'
p911
sa(dp912
g2
S'http://www.reuters.com/article/bondsNews/idUSN2458129620070824'
p913
sg4
S'20070824\xc2\xa004:09 PM EDT'
p914
sg6
S'US CREDIT-MGM spreads may now depend on debt reduction'
p915
sa(dp916
g2
S'http://www.reuters.com/article/tnBasicIndustries-SP/idUSBOM19125920070824'
p917
sg4
S'20070824\xc2\xa004:07 PM EDT'
p918
sg6
S'Air India, Indian Airlines merger gets ministry nod'
p919
sa(dp920
g2
S'http://www.reuters.com/article/companyNewsAndPR/idUSTOR00200720070824'
p921
sg4
S'20070824\xc2\xa004:06 PM EDT'
p922
sg6
S'Toronto stocks rise as resources rally'
p923
sa(dp924
g2
S'http://www.reuters.com/article/inPlayBriefing/idUSIN20070824160539HNAB20070824'
p925
sg4
S'20070824\xc2\xa004:05 PM EDT'
p926
sg6
S'Hana Biosciences appoints Steven Deitcher President and CEO'
p927
sa(dp928
g2
S'http://www.reuters.com/article/inPlayBriefing/idUSIN20070824160406SLTC20070824'
p929
sg4
S'20070824\xc2\xa004:04 PM EDT'
p930
sg6
S'Selectica announces findings of Special Committee'
p931
sa(dp932
g2
S'http://www.reuters.com/article/latestCrisis/idUSN24367847'
p933
sg4
S'20070824\xc2\xa004:03 PM EDT'
p934
sg6
S"U.S. judge denies Noriega's repatriation request"
p935
sa(dp936
g2
S'http://www.reuters.com/article/topNews/idUSYAT71336220070824'
p937
sg4
S'20070824\xc2\xa004:00 PM EDT'
p938
sg6
S'Baghdad clash kills 18, intelligence outlook grim'
p939
sa(dp940
g2
S'http://www.reuters.com/article/topNews/idUSN2435649220070824'
p941
sg4
S'20070824\xc2\xa004:00 PM EDT'
p942
sg6
S'New U.S. armored trucks are symbolic targets: general'
p943
sa(dp944
g2
S'http://www.reuters.com/article/topNews/idUSN2326617520070824'
p945
sg4
S'20070824\xc2\xa004:00 PM EDT'
p946
sg6
S'Republican call on Iraq troops an alert for Bush'
p947
sa(dp948
g2
S'http://www.reuters.com/article/inPlayBriefing/idUSIN20070824160025ANDS20070824'
p949
sg4
S'20070824\xc2\xa004:00 PM EDT'
p950
sg6
S'Anadys Pharma appoints Steve Worland as President and Chief Executive Officer'
p951
sa(dp952
g2
S'http://www.reuters.com/article/bondsNews/idUSN24TBAL20070824'
p953
sg4
S'20070824\xc2\xa004:00 PM EDT'
p954
sg6
S'U.S. Treasury balances at Fed higher on Aug 23'
p955
sa(dp956
g2
S'http://www.reuters.com/article/bankingfinancial-SP/idUSHKG27322420070824'
p957
sg4
S'20070824\xc2\xa003:59 PM EDT'
p958
sg6
S'Bank of China, DBS skid on subprime-related exposure'
p959
sa(dp960
g2
S'http://www.reuters.com/article/mergersNews/idUSSP14848420070824'
p961
sg4
S'20070824\xc2\xa003:57 PM EDT'
p962
sg6
S'UPDATE 3-Deals of the day -- mergers and acquisitions'
p963
sa(dp964
g2
S'http://www.reuters.com/article/peopleNews/idUSL2464609420070824'
p965
sg4
S'20070824\xc2\xa003:56 PM EDT'
p966
sg6
S'Fanny Ardant angers Italy over her guerrilla "hero"'
p967
sa(dp968
g2
S'http://www.reuters.com/article/peopleNews/idUSL2391612020070824'
p969
sg4
S'20070824\xc2\xa003:56 PM EDT'
p970
sg6
S'Top Italian film-maker mugged and beaten in Rome'
p971
sa(dp972
g2
S'http://www.reuters.com/article/peopleNews/idUSDEL13796920070824'
p973
sg4
S'20070824\xc2\xa003:56 PM EDT'
p974
sg6
S'Bollywood actor Khan to be jailed for poaching'
p975
sa(dp976
g2
S'http://www.reuters.com/article/entertainmentNews/idUSN2436446820070824'
p977
sg4
S'20070824\xc2\xa003:56 PM EDT'
p978
sg6
S'NY Met Opera singer Rose Bampton dies'
p979
sa(dp980
g2
S'http://www.reuters.com/article/industryNews/idUSN2220923720070824'
p981
sg4
S'20070824\xc2\xa003:52 PM EDT'
p982
sg6
S"America's foreign news deficit may benefit BBC"
p983
sa(dp984
g2
S'http://www.reuters.com/article/industryNews/idUSN2430205020070824'
p985
sg4
S'20070824\xc2\xa003:52 PM EDT'
p986
sg6
S'Anchor away as Fox pulls reality series'
p987
sa(dp988
g2
S'http://www.reuters.com/article/industryNews/idUSN2329585820070824'
p989
sg4
S'20070824\xc2\xa003:52 PM EDT'
p990
sg6
S'De Havilland lawsuit resonates through Hollywood'
p991
sa(dp992
g2
S'http://www.reuters.com/article/industryNews/idUSN2321742120070824'
p993
sg4
S'20070824\xc2\xa003:52 PM EDT'
p994
sg6
S'"Cold Case" star uncovers more cash'
p995
sa(dp996
g2
S'http://www.reuters.com/article/industryNews/idUSN2320950120070824'
p997
sg4
S'20070824\xc2\xa003:52 PM EDT'
p998
sg6
S'Cable channels bask in summer warmth'
p999
sa(dp1000
g2
S'http://www.reuters.com/article/latestCrisis/idUSN24364788'
p1001
sg4
S'20070824\xc2\xa003:52 PM EDT'
p1002
sg6
S'ANALYSIS-Republican call on Iraq troops an alert for Bush'
p1003
sa(dp1004
g2
S'http://www.reuters.com/article/politicsNews/idUSN2428506720070824'
p1005
sg4
S'20070824\xc2\xa003:52 PM EDT'
p1006
sg6
S'TV, radio look for record ad money in election'
p1007
sa(dp1008
g2
S'http://www.reuters.com/article/topNews/idUSN2434181020070824'
p1009
sg4
S'20070824\xc2\xa003:49 PM EDT'
p1010
sg6
S'Romney wants tax breaks to expand U.S. health cover'
p1011
sa(dp1012
g2
S'http://www.reuters.com/article/companyNewsAndPR/idUSL2489556620070824'
p1013
sg4
S'20070824\xc2\xa003:48 PM EDT'
p1014
sg6
S'UPDATE 5-Gold rises on weak dollar, options-related buying'
p1015
sa(dp1016
g2
S'http://www.reuters.com/article/newsOne/idUSN2433300420070824'
p1017
sg4
S'20070824\xc2\xa003:45 PM EDT'
p1018
sg6
S'Colombian warlord violates deal, faces extradition'
p1019
sa(dp1020
g2
S'http://www.reuters.com/article/latestCrisis/idUSN24364879'
p1021
sg4
S'20070824\xc2\xa003:44 PM EDT'
p1022
sg6
S'Hundreds of Colombians flee fighting to Ecuador'
p1023
sa(dp1024
g2
S'http://www.reuters.com/article/bondsNews/idUSN2436581020070824'
p1025
sg4
S'20070824\xc2\xa003:43 PM EDT'
p1026
sg6
S'US STOCKS-Indexes rally as data helps fuel calm'
p1027
sa(dp1028
g2
S'http://www.reuters.com/article/companyNewsAndPR/idUSN2441231320070824'
p1029
sg4
S'20070824\xc2\xa003:41 PM EDT'
p1030
sg6
S'UPDATE 2-Toronto stock index up 100 points on resources'
p1031
sa(dp1032
g2
S'http://www.reuters.com/article/africaCrisis/idUSL24595559'
p1033
sg4
S'20070824\xc2\xa003:41 PM EDT'
p1034
sg6
S'Niger president declares state of alert in north'
p1035
sa(dp1036
g2
S'http://www.reuters.com/article/politicsNews/idUSDEL23878320070824'
p1037
sg4
S'20070824\xc2\xa003:39 PM EDT'
p1038
sg6
S'Nearly half of Indians back U.S. nuclear deal: survey'
p1039
sa(dp1040
g2
S'http://www.reuters.com/article/politicsNews/idUSSP22815120070824'
p1041
sg4
S'20070824\xc2\xa003:39 PM EDT'
p1042
sg6
S'Political clock ticks against India-U.S. nuclear deal'
p1043
sa(dp1044
g2
S'http://www.reuters.com/article/newsOne/idUSN2435506020070824'
p1045
sg4
S'20070824\xc2\xa003:39 PM EDT'
p1046
sg6
S"Letters reveal Mother Teresa's doubt about faith"
p1047
sa(dp1048
g2
S'http://www.reuters.com/article/latestCrisis/idUSN24356492'
p1049
sg4
S'20070824\xc2\xa003:38 PM EDT'
p1050
sg6
S'New US armored trucks are symbolic targets-general'
p1051
sa(dp1052
g2
S'http://www.reuters.com/article/companyNewsAndPR/idUSN2436240820070824'
p1053
sg4
S'20070824\xc2\xa003:37 PM EDT'
p1054
sg6
S'ADR Report-ADRs climb on demand for energy and steel upgrade'
p1055
sa(dp1056
g2
S'http://www.reuters.com/article/companyNewsAndPR/idUSN2436510420070824'
p1057
sg4
S'20070824\xc2\xa003:36 PM EDT'
p1058
sg6
S'Canadian spot gas falls again on futures, forecasts'
p1059
sa(dp1060
g2
S'http://www.reuters.com/article/companyNewsAndPR/idUSN2455509320070824'
p1061
sg4
S'20070824\xc2\xa003:36 PM EDT'
p1062
sg6
S'US gold ends up on weak dlr, options-related buying'
p1063
sa(dp1064
g2
S'http://www.reuters.com/article/inPlayBriefing/idUSIN20070824153506BONDX20070824'
p1065
sg4
S'20070824\xc2\xa003:35 PM EDT'
p1066
sg6
S'Bond Watch: Mixed-Up Week '
p1067
sa(dp1068
g2
S'http://www.reuters.com/article/newsOne/idUSKIM47039020070824'
p1069
sg4
S'20070824\xc2\xa003:33 PM EDT'
p1070
sg6
S'Political clock ticks against India-U.S. nuclear deal'
p1071
sa(dp1072
g2
S'http://www.reuters.com/article/mergersNews/idUSWNAS286420070824'
p1073
sg4
S'20070824\xc2\xa003:32 PM EDT'
p1074
sg6
S'Hearst to buy rest of Hearst-Argyle stake at $23.50/shr'
p1075
sa(dp1076
g2
S'http://www.reuters.com/article/inPlayBriefing/idUSIN20070824153155OPENX20070824'
p1077
sg4
S'20070824\xc2\xa003:31 PM EDT'
p1078
sg6
S'Earnings Preview for the week of Aug 27th-31sth: '
p1079
sa(dp1080
g2
S'http://www.reuters.com/article/companyNewsAndPR/idUSN2442234820070824'
p1081
sg4
S'20070824\xc2\xa003:31 PM EDT'
p1082
sg6
S"Century Aluminum's Jamaica plant unharmed by storm"
p1083
sa(dp1084
g2
S'http://www.reuters.com/article/scienceNews/idUSN2329057520070824'
p1085
sg4
S'20070824\xc2\xa003:31 PM EDT'
p1086
sg6
S'Gaping hole found in universe'
p1087
sa(dp1088
g2
S'http://www.reuters.com/article/stockTickerBriefing/idUSSI2007082415291220070824'
p1089
sg4
S'20070824\xc2\xa003:30 PM EDT'
p1090
sg6
S'Stock Market Update - Fri Aug 24 15:30:01 EDT 2007'
p1091
sa(dp1092
g2
S'http://www.reuters.com/article/inPlayBriefing/idUSIN20070824152924OPENX20070824'
p1093
sg4
S'20070824\xc2\xa003:29 PM EDT'
p1094
sg6
S'Conference/Events Calendar for the week of August 27-31:'
p1095
sa(dp1096
g2
S'http://www.reuters.com/article/bondsNews/idUSN2446328420070824'
p1097
sg4
S'20070824\xc2\xa003:28 PM EDT'
p1098
sg6
S'UPDATE 1-WCI shares rise on deal speculation'
p1099
sa(dp1100
g2
S'http://www.reuters.com/article/latestCrisis/idUSL24176177'
p1101
sg4
S'20070824\xc2\xa003:27 PM EDT'
p1102
sg6
S'U.S. bomb kills 3 British soldiers in Afghanistan'
p1103
sa(dp1104
g2
S'http://www.reuters.com/article/topNews/idUSKIM47000520070824'
p1105
sg4
S'20070824\xc2\xa003:27 PM EDT'
p1106
sg6
S'CORRECTED: Political clock ticks against India-U.S. nuclear deal'
p1107
sa(dp1108
g2
S'http://www.reuters.com/article/politicsNews/idUSN2436965820070824'
p1109
sg4
S'20070824\xc2\xa003:25 PM EDT'
p1110
sg6
S'Sen. Schumer urges Big 4 on mortgage accounting'
p1111
sa(dp1112
g2
S'http://www.reuters.com/article/topNews/idUSL2483196220070824'
p1113
sg4
S'20070824\xc2\xa003:24 PM EDT'
p1114
sg6
S'Georgia says it fired at Russian plane this week'
p1115
sa(dp1116
g2
S'http://www.reuters.com/article/healthNews/idUSCOL46958420070824'
p1117
sg4
S'20070824\xc2\xa003:24 PM EDT'
p1118
sg6
S'Exercise may restore some youth to blood vessels'
p1119
sa(dp1120
g2
S'http://www.reuters.com/article/inPlayBriefing/idUSIN20070824152313TECHX20070824'
p1121
sg4
S'20070824\xc2\xa003:23 PM EDT'
p1122
sg6
S'Market View: Steady march higher '
p1123
sa(dp1124
g2
S'http://www.reuters.com/article/latestCrisis/idUSL24833078'
p1125
sg4
S'20070824\xc2\xa003:22 PM EDT'
p1126
sg6
S'Georgia says it fired at Russian plane this week'
p1127
sa(dp1128
g2
S'http://www.reuters.com/article/bondsNews/idUSN2435933120070824'
p1129
sg4
S'20070824\xc2\xa003:20 PM EDT'
p1130
sg6
S'Fed accepting asset-backed paper as collateral'
p1131
sa(dp1132
g2
S'http://www.reuters.com/article/health-SP/idUSN8O35465220070824'
p1133
sg4
S'20070824\xc2\xa003:16 PM EDT'
p1134
sg6
S'Genentech submits data for breast cancer drug combo'
p1135
sa(dp1136
g2
S'http://www.reuters.com/article/healthNews/idUSCOL46916820070824'
p1137
sg4
S'20070824\xc2\xa003:14 PM EDT'
p1138
sg6
S'Overweight women less likely to keep breast-feeding'
p1139
sa(dp1140
g2
S'http://www.reuters.com/article/inPlayBriefing/idUSIN20070824150805HTV20070824'
p1141
sg4
S'20070824\xc2\xa003:08 PM EDT'
p1142
sg6
S'Hearst-Argyle TV annouces proposed price of $23.50 in cash per share for 27% public stake'
p1143
sa(dp1144
g2
S'http://www.reuters.com/article/inPlayBriefing/idUSIN20070824150546CKXE20070824'
p1145
sg4
S'20070824\xc2\xa003:05 PM EDT'
p1146
sg6
S'CKX Inc. announces filing of registration statement by FX Real Estate and Entertainment'
p1147
sa(dp1148
g2
S'http://www.reuters.com/article/latestCrisis/idUSN24362475'
p1149
sg4
S'20070824\xc2\xa003:04 PM EDT'
p1150
sg6
S'Hundreds of Colombians flee fighting to Ecuador'
p1151
sa(dp1152
g2
S'http://www.reuters.com/article/companyNewsAndPR/idUSN2454154920070824'
p1153
sg4
S'20070824\xc2\xa003:02 PM EDT'
p1154
sg6
S'Baker Hughes-US rig count up 21, Canada down 2'
p1155
sa(dp1156
g2
S'http://www.reuters.com/article/televisionNews/idUSKRA37754320070824'
p1157
sg4
S'20070824\xc2\xa003:00 PM EDT'
p1158
sg6
S'Sleepy? Cut out late-night Internet and TV'
p1159
sa(dp1160
g2
S'http://www.reuters.com/article/companyNewsAndPR/idUSN2453925020070824'
p1161
sg4
S'20070824\xc2\xa003:00 PM EDT'
p1162
sg6
S'FOREX-Dollar, yen slide as credit concerns ease'
p1163
sa(dp1164
g2
S'http://www.reuters.com/article/stockTickerBriefing/idUSSI2007082415020420070824'
p1165
sg4
S'20070824\xc2\xa003:00 PM EDT'
p1166
sg6
S'Stock Market Update - Fri Aug 24 15:00:01 EDT 2007'
p1167
sa(dp1168
g2
S'http://www.reuters.com/article/entertainmentNews/idUSN2428313720070824'
p1169
sg4
S'20070824\xc2\xa002:59 PM EDT'
p1170
sg6
S'Networks plan Katrina anniversary coverage'
p1171
sa(dp1172
g2
S'http://www.reuters.com/article/bondsNews/idUSN2435950520070824'
p1173
sg4
S'20070824\xc2\xa002:59 PM EDT'
p1174
sg6
S'Fla. says global markets too stormy for notes deal'
p1175
sa(dp1176
g2
S'http://www.reuters.com/article/inPlayBriefing/idUSIN20070824145913BONDX20070824'
p1177
sg4
S'20070824\xc2\xa002:59 PM EDT'
p1178
sg6
S'BondWatch : Add That to Not Easing '
p1179
sa(dp1180
g2
S'http://www.reuters.com/article/inPlayBriefing/idUSIN20070824145524TECHX20070824'
p1181
sg4
S'20070824\xc2\xa002:55 PM EDT'
p1182
sg6
S'Market View: New session highs near 50 day'
p1183
sa(dp1184
g2
S'http://www.reuters.com/article/usMktRpt/idUSN2435548420070824'
p1185
sg4
S'20070824\xc2\xa002:55 PM EDT'
p1186
sg6
S'US STOCKS-Indexes jump, boosted by economic data'
p1187
sa(dp1188
g2
S'http://www.reuters.com/article/companyNewsAndPR/idUSTOR00200620070824'
p1189
sg4
S'20070824\xc2\xa002:54 PM EDT'
p1190
sg6
S'Toronto stock index up 100 points on resources'
p1191
sa(dp1192
g2
S'http://www.reuters.com/article/bondsNews/idUSN2453554820070824'
p1193
sg4
S'20070824\xc2\xa002:52 PM EDT'
p1194
sg6
S'UPDATE 2-Market volatility will not hurt Brazil growth-officials'
p1195
sa(dp1196
g2
S'http://www.reuters.com/article/gc04/idUSPEK22048120070824'
p1197
sg4
S'20070824\xc2\xa002:51 PM EDT'
p1198
sg6
S'Beijing scraps red armbands for a stylish Olympics'
p1199
sa(dp1200
g2
S'http://www.reuters.com/article/bondsNews/idUSN2436144120070824'
p1201
sg4
S'20070824\xc2\xa002:51 PM EDT'
p1202
sg6
S'UPDATE 1-No Fed ops for 2nd day since crisis began'
p1203
sa(dp1204
g2
S'http://www.reuters.com/article/sportsNews/idUSGOR46765720070824'
p1205
sg4
S'20070824\xc2\xa002:51 PM EDT'
p1206
sg6
S'Michalek signs six-year deal with Sharks'
p1207
sa(dp1208
g2
S'http://www.reuters.com/article/mergersNews/idUSN2436987320070824'
p1209
sg4
S'20070824\xc2\xa002:50 PM EDT'
p1210
sg6
S'S&P; cuts National Grid, KeySpan on acquisition'
p1211
sa(dp1212
g2
S'http://www.reuters.com/article/innovationNews/idUSWEB684320070824'
p1213
sg4
S'20070824\xc2\xa002:47 PM EDT'
p1214
sg6
S'Consortium may find ABN takeover unattractive'
p1215
sa(dp1216
g2
S'http://www.reuters.com/article/latestCrisis/idUSL24570754'
p1217
sg4
S'20070824\xc2\xa002:40 PM EDT'
p1218
sg6
S'Israeli forces kill boy, Palestinian militants'
p1219
sa(dp1220
g2
S'http://www.reuters.com/article/healthNews/idUSCOL46706220070824'
p1221
sg4
S'20070824\xc2\xa002:38 PM EDT'
p1222
sg6
S'NSAIDs may protect against bladder cancer'
p1223
sa(dp1224
g2
S'http://www.reuters.com/article/healthNews/idUSCOL46698520070824'
p1225
sg4
S'20070824\xc2\xa002:37 PM EDT'
p1226
sg6
S'Many families happy with dementia care at hospices'
p1227
sa(dp1228
g2
S'http://www.reuters.com/article/fundsFundsNews/idUSN2434154820070824'
p1229
sg4
S'20070824\xc2\xa002:37 PM EDT'
p1230
sg6
S'UPDATE 1-MOVES-Standard Bank, BMO Financial, Barclays Capital'
p1231
sa(dp1232
g2
S'http://www.reuters.com/article/domesticNews/idUSN2440535620070824'
p1233
sg4
S'20070824\xc2\xa002:37 PM EDT'
p1234
sg6
S'Lawsuit claims "Hannah Montana" idea stolen'
p1235
sa(dp1236
g2
S'http://www.reuters.com/article/healthNews/idUSCOL46695420070824'
p1237
sg4
S'20070824\xc2\xa002:36 PM EDT'
p1238
sg6
S'Oral contraceptives, other factors reduce bone mass'
p1239
sa(dp1240
g2
S'http://www.reuters.com/article/stockTickerBriefing/idUSSI2007082414333320070824'
p1241
sg4
S'20070824\xc2\xa002:35 PM EDT'
p1242
sg6
S'Stock Market Update - Fri Aug 24 14:35:01 EDT 2007'
p1243
sa(dp1244
g2
S'http://www.reuters.com/article/homepageCrisis/idUSN24359178._CH_.2400'
p1245
sg4
S'20070824\xc2\xa002:31 PM EDT'
p1246
sg6
S'U.N. to launch North Korea flood appeal next week'
p1247
sa(dp1248
g2
S'http://www.reuters.com/article/latestCrisis/idUSN24359178'
p1249
sg4
S'20070824\xc2\xa002:31 PM EDT'
p1250
sg6
S'U.N. to launch North Korea flood appeal next week'
p1251
sa(dp1252
g2
S'http://www.reuters.com/article/health-SP/idUSWNAS282420070824'
p1253
sg4
S'20070824\xc2\xa002:27 PM EDT'
p1254
sg6
S'Precision Therapeutics files for $80.5 mln IPO'
p1255
sa(dp1256
g2
S'http://www.reuters.com/article/health-SP/idUSSYU00297820070824'
p1257
sg4
S'20070824\xc2\xa002:27 PM EDT'
p1258
sg6
S'Sonic Healthcare completes A$400 mln placement'
p1259
sa(dp1260
g2
S'http://www.reuters.com/article/health-SP/idUSN2327507920070824'
p1261
sg4
S'20070824\xc2\xa002:27 PM EDT'
p1262
sg6
S'US FDA proposes sunscreen rule, cancer warning'
p1263
sa(dp1264
g2
S'http://www.reuters.com/article/latestCrisis/idUSL24690344'
p1265
sg4
S'20070824\xc2\xa002:27 PM EDT'
p1266
sg6
S'Forest fires kill 16 as Greece asks EU for help'
p1267
sa(dp1268
g2
S'http://www.reuters.com/article/topNews/idUSN1527542420070824'
p1269
sg4
S'20070824\xc2\xa002:24 PM EDT'
p1270
sg6
S'Morning-after pill sales jump as U.S. access eases'
p1271
sa(dp1272
g2
S'http://www.reuters.com/article/innovationNews/idUSN2446022320070824'
p1273
sg4
S'20070824\xc2\xa002:17 PM EDT'
p1274
sg6
S'Citgo sells Eagle oil products line to Explorer'
p1275
sa(dp1276
g2
S'http://www.reuters.com/article/globalMarketsNews/idUSSP5715420070824'
p1277
sg4
S'20070824\xc2\xa002:14 PM EDT'
p1278
sg6
S'Oil jumps as U.S. refinery woes spur supply concerns'
p1279
sa(dp1280
g2
S'http://www.reuters.com/article/bondsNews/idUSN2435870320070824'
p1281
sg4
S'20070824\xc2\xa002:09 PM EDT'
p1282
sg6
S'Chile stocks rise on U.S. housing data, peso gains'
p1283
sa(dp1284
g2
S'http://www.reuters.com/article/latestCrisis/idUSN24343263'
p1285
sg4
S'20070824\xc2\xa002:08 PM EDT'
p1286
sg6
S'Brazil health inspectors to go on strike from Tuesday'
p1287
sa(dp1288
g2
S'http://www.reuters.com/article/reutersEdge/idUSN1525154820070824'
p1289
sg4
S'20070824\xc2\xa002:08 PM EDT'
p1290
sg6
S'Colombia turns to machetes and spades in coca war'
p1291
sa(dp1292
g2
S'http://www.reuters.com/article/homepageCrisis/idUSL24697805._CH_.2400'
p1293
sg4
S'20070824\xc2\xa002:07 PM EDT'
p1294
sg6
S'Congo troop movements spark fear of return to war'
p1295
sa(dp1296
g2
S'http://www.reuters.com/article/africaCrisis/idUSL24697805'
p1297
sg4
S'20070824\xc2\xa002:07 PM EDT'
p1298
sg6
S'Congo troop movements spark fear of return to war'
p1299
sa(dp1300
g2
S'http://www.reuters.com/article/boxOfficeCharts/idUSN2435880920070824'
p1301
sg4
S'20070824\xc2\xa002:06 PM EDT'
p1302
sg6
S'VIDEO MONITOR - VH-1'
p1303
sa(dp1304
g2
S'http://www.reuters.com/article/boxOfficeCharts/idUSN2435879220070824'
p1305
sg4
S'20070824\xc2\xa002:06 PM EDT'
p1306
sg6
S'VIDEO MONITOR - MTV'
p1307
sa(dp1308
g2
S'http://www.reuters.com/article/boxOfficeCharts/idUSN2435877020070824'
p1309
sg4
S'20070824\xc2\xa002:06 PM EDT'
p1310
sg6
S'VIDEO MONITOR - CMT'
p1311
sa(dp1312
g2
S'http://www.reuters.com/article/boxOfficeCharts/idUSN2435236420070824'
p1313
sg4
S'20070824\xc2\xa002:06 PM EDT'
p1314
sg6
S'VIDEO MONITOR - BET'
p1315
sa(dp1316
g2
S'http://www.reuters.com/article/technology-media-telco-SP/idUSKLR23654520070824'
p1317
sg4
S'20070824\xc2\xa002:05 PM EDT'
p1318
sg6
S"Malaysia's Megan says Philips to end licence pacts"
p1319
sa(dp1320
g2
S'http://www.reuters.com/article/companyNewsAndPR/idUSN2435688420070824'
p1321
sg4
S'20070824\xc2\xa002:05 PM EDT'
p1322
sg6
S"Brazil's CVRD halts French plant after accident"
p1323
sa(dp1324
g2
S'http://www.reuters.com/article/economicNews/idUSN2433963620070824'
p1325
sg4
S'20070824\xc2\xa002:02 PM EDT'
p1326
sg6
S'UPDATE 3-Mexico holds key rate steady, eyes credit crisis'
p1327
sa(dp1328
g2
S'http://www.reuters.com/article/businessNews/idUSN2434131120070824'
p1329
sg4
S'20070824\xc2\xa002:01 PM EDT'
p1330
sg6
S'Home Depot up as investors eye supply sale'
p1331
sa(dp1332
g2
S'http://www.reuters.com/article/stockTickerBriefing/idUSSI2007082414000020070824'
p1333
sg4
S'20070824\xc2\xa002:00 PM EDT'
p1334
sg6
S'Stock Market Update - Fri Aug 24 14:00:01 EDT 2007'
p1335
sa(dp1336
g2
S'http://www.reuters.com/article/companyNewsAndPR/idUSN2435350720070824'
p1337
sg4
S'20070824\xc2\xa001:57 PM EDT'
p1338
sg6
S'Chevron declares force majeure on some crude buys'
p1339
sa(dp1340
g2
S'http://www.reuters.com/article/usMktRpt/idUSN2435569720070824'
p1341
sg4
S'20070824\xc2\xa001:54 PM EDT'
p1342
sg6
S'US STOCKS-Indexes gain, boosted by energy, homes data'
p1343
sa(dp1344
g2
S'http://www.reuters.com/article/reutersEdge/idUSN2330280620070824'
p1345
sg4
S'20070824\xc2\xa001:52 PM EDT'
p1346
sg6
S'Dog days of summer for private equity-backed IPOs'
p1347
sa(dp1348
g2
S'http://www.reuters.com/article/domesticNews/idUSN2435471120070824'
p1349
sg4
S'20070824\xc2\xa001:51 PM EDT'
p1350
sg6
S'Presbyterian Church rebukes "lesbian evangelist"'
p1351
sa(dp1352
g2
S'http://www.reuters.com/article/bondsNews/idUSL2482253820070824'
p1353
sg4
S'20070824\xc2\xa001:51 PM EDT'
p1354
sg6
S'RLPC-M.Stanley sells 375 mln euro loan portfolio-traders'
p1355
sa(dp1356
g2
S'http://www.reuters.com/article/technology-media-telco-SP-A/idUSN2325314820070824'
p1357
sg4
S'20070824\xc2\xa001:49 PM EDT'
p1358
sg6
S'Monster.com waited five days to disclose theft'
p1359
sa(dp1360
g2
S'http://www.reuters.com/article/businessNews/idUSN2432127020070824'
p1361
sg4
S'20070824\xc2\xa001:49 PM EDT'
p1362
sg6
S'Merrill could face big subprime write down'
p1363
sa(dp1364
g2
S'http://www.reuters.com/article/latestCrisis/idUSL24831962'
p1365
sg4
S'20070824\xc2\xa001:47 PM EDT'
p1366
sg6
S'Georgia says it fired at Russian plane this week'
p1367
sa(dp1368
g2
S'http://www.reuters.com/article/businessNews/idUSN2432499620070824'
p1369
sg4
S'20070824\xc2\xa001:45 PM EDT'
p1370
sg6
S'AnnTaylor keeps outlook; says to target boomers'
p1371
sa(dp1372
g2
S'http://www.reuters.com/article/environmentNews/idUSDHA20454420070824'
p1373
sg4
S'20070824\xc2\xa001:45 PM EDT'
p1374
sg6
S'Deaths mount despite ebbing floods in Bangladesh'
p1375
sa(dp1376
g2
S'http://www.reuters.com/article/businessNews/idUSL2486412420070824'
p1377
sg4
S'20070824\xc2\xa001:43 PM EDT'
p1378
sg6
S'GM official says firm on track for turnaround: report'
p1379
sa(dp1380
g2
S'http://www.reuters.com/article/entertainmentNews/idUSL2482636820070824'
p1381
sg4
S'20070824\xc2\xa001:43 PM EDT'
p1382
sg6
S'Playboy bunnies to make London comeback'
p1383
sa(dp1384
g2
S'http://www.reuters.com/article/tnBasicIndustries-SP/idUSBOM20466620070824'
p1385
sg4
S'20070824\xc2\xa001:41 PM EDT'
p1386
sg6
S'India Mahindra to begin exports to Brazil end-2007'
p1387
sa(dp1388
g2
S'http://www.reuters.com/article/tnBasicIndustries-SP/idUSPEK26508520070824'
p1389
sg4
S'20070824\xc2\xa001:41 PM EDT'
p1390
sg6
S"Rockwell sees 20 pct '07 sales growth in China"
p1391
sa(dp1392
g2
S'http://www.reuters.com/article/businessNews/idUSN2445160820070824'
p1393
sg4
S'20070824\xc2\xa001:41 PM EDT'
p1394
sg6
S'Wachovia sues Thornburg Mortgage'
p1395
sa(dp1396
g2
S'http://www.reuters.com/article/bondsNews/idUSN2435569920070824'
p1397
sg4
S'20070824\xc2\xa001:39 PM EDT'
p1398
sg6
S'FACTBOX-Gold, silver exchange-traded funds (ETF) holdings'
p1399
sa(dp1400
g2
S'http://www.reuters.com/article/billboardCharts/idUSN2435583120070824'
p1401
sg4
S'20070824\xc2\xa001:36 PM EDT'
p1402
sg6
S'EUROCHART HOT 100 SINGLES'
p1403
sa(dp1404
g2
S'http://www.reuters.com/article/billboardCharts/idUSN2435581620070824'
p1405
sg4
S'20070824\xc2\xa001:36 PM EDT'
p1406
sg6
S'EUROPEAN TOP ALBUMS'
p1407
sa(dp1408
g2
S'http://www.reuters.com/article/health-SP/idUSBNG21018820070824'
p1409
sg4
S'20070824\xc2\xa001:35 PM EDT'
p1410
sg6
S'ZymoGenetics shares fall as FDA extends review of key product'
p1411
sa(dp1412
g2
S'http://www.reuters.com/article/bondsNews/idUSN2435504920070824'
p1413
sg4
S'20070824\xc2\xa001:34 PM EDT'
p1414
sg6
S'Mexico stocks, peso gain after U.S. housing data'
p1415
sa(dp1416
g2
S'http://www.reuters.com/article/worldNews/idUSL2482439720070824'
p1417
sg4
S'20070824\xc2\xa001:33 PM EDT'
p1418
sg6
S'Ugandan government accused of "state homophobia"'
p1419
sa(dp1420
g2
S'http://www.reuters.com/article/worldNews/idUSKIM46138820070824'
p1421
sg4
S'20070824\xc2\xa001:32 PM EDT'
p1422
sg6
S'Silk Road oasis of Samarkand ages fast'
p1423
sa(dp1424
g2
S'http://www.reuters.com/article/innovationNews/idUSN2434437120070824'
p1425
sg4
S'20070824\xc2\xa001:32 PM EDT'
p1426
sg6
S'Wal-Mart shares move on stake rumors: sources'
p1427
sa(dp1428
g2
S'http://www.reuters.com/article/worldNews/idUSL2481709520070824'
p1429
sg4
S'20070824\xc2\xa001:31 PM EDT'
p1430
sg6
S'U.S. observers see encouraging signs in Turkmenistan'
p1431
sa(dp1432
g2
S'http://www.reuters.com/article/technologyNews/idUSL2333566320070824'
p1433
sg4
S'20070824\xc2\xa001:30 PM EDT'
p1434
sg6
S'Online gaming offers escape from piracy'
p1435
sa(dp1436
g2
S'http://www.reuters.com/article/bondsNews/idUSN2434918220070824'
p1437
sg4
S'20070824\xc2\xa001:29 PM EDT'
p1438
sg6
S"Canada's Alberta boosts budget surplus estimate"
p1439
sa(dp1440
g2
S'http://www.reuters.com/article/newsOne/idUSL2477763820070824'
p1441
sg4
S'20070824\xc2\xa001:29 PM EDT'
p1442
sg6
S'Iran to settle IAEA issues in phases: diplomats'
p1443
sa(dp1444
g2
S'http://www.reuters.com/article/innovationNews/idUSL2479364020070824'
p1445
sg4
S'20070824\xc2\xa001:28 PM EDT'
p1446
sg6
S'TPG still interested in Alitalia: source'
p1447
sa(dp1448
g2
S'http://www.reuters.com/article/fundsFundsNews/idUSN2433543620070824'
p1449
sg4
S'20070824\xc2\xa001:27 PM EDT'
p1450
sg6
S'Hedge fund manager JW Henry spends on new estate'
p1451
sa(dp1452
g2
S'http://www.reuters.com/article/inPlayBriefing/idUSIN20070824132730TECHX20070824'
p1453
sg4
S'20070824\xc2\xa001:27 PM EDT'
p1454
sg6
S'Semi HOLDRs -SMH- providing upside leadership in recent trade'
p1455
sa(dp1456
g2
S'http://www.reuters.com/article/innovationNews/idUSN2433606620070824'
p1457
sg4
S'20070824\xc2\xa001:26 PM EDT'
p1458
sg6
S'Sidor in deal to avoid Venezuela nationalization'
p1459
sa(dp1460
g2
S'http://www.reuters.com/article/worldNews/idUSISL17689420070824'
p1461
sg4
S'20070824\xc2\xa001:26 PM EDT'
p1462
sg6
S"Pakistan ruling damages Musharraf's plan: papers"
p1463
sa(dp1464
g2
S'http://www.reuters.com/article/companyNewsAndPR/idUSN2435018820070824'
p1465
sg4
S'20070824\xc2\xa001:26 PM EDT'
p1466
sg6
S'Mexico stocks surge 2 pct on U.S. housing data'
p1467
sa(dp1468
g2
S'http://www.reuters.com/article/gc06/idUSL2482173520070824'
p1469
sg4
S'20070824\xc2\xa001:25 PM EDT'
p1470
sg6
S'U.S. subprime concerns drain Italian ABS liquidity'
p1471
sa(dp1472
g2
S'http://www.reuters.com/article/stockTickerBriefing/idUSSI2007082413275320070824'
p1473
sg4
S'20070824\xc2\xa001:25 PM EDT'
p1474
sg6
S'Stock Market Update - Fri Aug 24 13:25:01 EDT 2007'
p1475
sa(dp1476
g2
S'http://www.reuters.com/article/newsOne/idUSL2478403920070824'
p1477
sg4
S'20070824\xc2\xa001:22 PM EDT'
p1478
sg6
S'FACTBOX: Military deaths in Afghanistan'
p1479
sa(dp1480
g2
S'http://www.reuters.com/article/reutersEdge/idUSN2442390820070824'
p1481
sg4
S'20070824\xc2\xa001:21 PM EDT'
p1482
sg6
S'Job market may be in for bleak Christmas'
p1483
sa(dp1484
g2
S'http://www.reuters.com/article/businessNews/idUSN2432677620070824'
p1485
sg4
S'20070824\xc2\xa001:19 PM EDT'
p1486
sg6
S'Orders for long-lasting goods jump'
p1487
sa(dp1488
g2
S'http://www.reuters.com/article/technology-media-telco-SP/idUSL247010320070824'
p1489
sg4
S'20070824\xc2\xa001:15 PM EDT'
p1490
sg6
S'France Telecom confirms talks with Apple on iPhone'
p1491
sa(dp1492
g2
S'http://www.reuters.com/article/latestCrisis/idUSL24827194'
p1493
sg4
S'20070824\xc2\xa001:14 PM EDT'
p1494
sg6
S'Israeli forces kill militant and boy -Palestinians'
p1495
sa(dp1496
g2
S'http://www.reuters.com/article/companyNewsAndPR/idUSN2435288820070824'
p1497
sg4
S'20070824\xc2\xa001:13 PM EDT'
p1498
sg6
S'Mexico stocks, peso gain after U.S. housing data'
p1499
sa(dp1500
g2
S'http://www.reuters.com/article/innovationNews/idUSWNAS284720070824'
p1501
sg4
S'20070824\xc2\xa001:12 PM EDT'
p1502
sg6
S'National Grid completes KeySpan acquisition'
p1503
sa(dp1504
g2
S'http://www.reuters.com/article/inPlayBriefing/idUSIN20070824130845VSEA20070824'
p1505
sg4
S'20070824\xc2\xa001:08 PM EDT'
p1506
sg6
S'Varian Semi sets new 52-wk intraday high'
p1507
sa(dp1508
g2
S'http://www.reuters.com/article/businessNews/idUSBOM9268420070824'
p1509
sg4
S'20070824\xc2\xa001:03 PM EDT'
p1510
sg6
S"India's Tata says has interest in Jaguar, Land Rover"
p1511
sa(dp1512
g2
S'http://www.reuters.com/article/latestCrisis/idUSGRA426246'
p1513
sg4
S'20070824\xc2\xa001:02 PM EDT'
p1514
sg6
S'Baghdad clash kills 18, intelligence outlook grim'
p1515
sa(dp1516
g2
S'http://www.reuters.com/article/bondsNews/idUSN2435123720070824'
p1517
sg4
S'20070824\xc2\xa001:01 PM EDT'
p1518
sg6
S'UPDATE 1-Brazil growth still on track -central bank head'
p1519
sa(dp1520
g2
S'http://www.reuters.com/article/innovationNews/idUSWNAS285920070824'
p1521
sg4
S'20070824\xc2\xa001:00 PM EDT'
p1522
sg6
S'Luxottica gets early antitrust nod for Oakley acquisition'
p1523
sa(dp1524
g2
S'http://www.reuters.com/article/stockTickerBriefing/idUSSI2007082413011020070824'
p1525
sg4
S'20070824\xc2\xa001:00 PM EDT'
p1526
sg6
S'Stock Market Update - Fri Aug 24 13:00:01 EDT 2007'
p1527
sa(dp1528
g2
S'http://www.reuters.com/article/companyNewsAndPR/idUSL2483127920070824'
p1529
sg4
S'20070824\xc2\xa012:58 PM EDT'
p1530
sg6
S'UPDATE 1-D.Telekom still seeks business unit head -magazine'
p1531
sa(dp1532
g2
S'http://www.reuters.com/article/technology-media-telco-SP-A/idUSL2374018520070824'
p1533
sg4
S'20070824\xc2\xa012:57 PM EDT'
p1534
sg6
S'Sony PS2 has life in it yet after years in market'
p1535
sa(dp1536
g2
S'http://www.reuters.com/article/businessNews/idUSWNAS282320070824'
p1537
sg4
S'20070824\xc2\xa012:57 PM EDT'
p1538
sg6
S'Burger King net tops Street, shares fall on capex'
p1539
sa(dp1540
g2
S'http://www.reuters.com/article/bondsNews/idUSWNA073120070824'
p1541
sg4
S'20070824\xc2\xa012:56 PM EDT'
p1542
sg6
S"Fitch downgrades Countrywide Home Loans' servicer ratings"
p1543
sa(dp1544
g2
S'http://www.reuters.com/article/inDepthNews/idUSL2479635220070824'
p1545
sg4
S'20070824\xc2\xa012:56 PM EDT'
p1546
sg6
S'Hunky Vlad, slim Sarko -- playing with PR fire'
p1547
sa(dp1548
g2
S'http://www.reuters.com/article/companyNewsAndPR/idUSN2328087720070824'
p1549
sg4
S'20070824\xc2\xa012:55 PM EDT'
p1550
sg6
S'CORRECTED - Smithfield in talks with China company on pork'
p1551
sa(dp1552
g2
S'http://www.reuters.com/article/companyNewsAndPR/idUSN2443361620070824'
p1553
sg4
S'20070824\xc2\xa012:50 PM EDT'
p1554
sg6
S'FX OUTLOOK-Dollar seen falling in week ahead'
p1555
sa(dp1556
g2
S'http://www.reuters.com/article/innovationNews/idUSL2482495020070824'
p1557
sg4
S'20070824\xc2\xa012:45 PM EDT'
p1558
sg6
S'No truth to talk of lower RBS-led ABN bid: sources'
p1559
sa(dp1560
g2
S'http://www.reuters.com/article/consumerproducts-SP/idUST27043120070824'
p1561
sg4
S'20070824\xc2\xa012:44 PM EDT'
p1562
sg6
S'Japan drinks makers cash in on heatwave'
p1563
sa(dp1564
g2
S'http://www.reuters.com/article/bankingfinancial-SP/idUSL2479369420070824'
p1565
sg4
S'20070824\xc2\xa012:44 PM EDT'
p1566
sg6
S'Pop Emilia to bid for Intesa branches'
p1567
sa(dp1568
g2
S'http://www.reuters.com/article/bankingfinancial-SP/idUSKLR23878620070824'
p1569
sg4
S'20070824\xc2\xa012:44 PM EDT'
p1570
sg6
S"Malaysia's Bumi-Commerce doubles profit, boosts div"
p1571
sa(dp1572
g2
S'http://www.reuters.com/article/bankingfinancial-SP/idUSN2434371220070824'
p1573
sg4
S'20070824\xc2\xa012:44 PM EDT'
p1574
sg6
S'Wachovia sues Thornburg Mortgage for $5.1 million'
p1575
sa(dp1576
g2
S'http://www.reuters.com/article/companyNewsAndPR/idUSN2444998620070824'
p1577
sg4
S'20070824\xc2\xa012:43 PM EDT'
p1578
sg6
S'CME welcomes talks with Vietnam to trade coffee'
p1579
sa(dp1580
g2
S'http://www.reuters.com/article/scienceNews/idUSL2374409220070824'
p1581
sg4
S'20070824\xc2\xa012:41 PM EDT'
p1582
sg6
S'Research sheds light on out-of-body experiences'
p1583
sa(dp1584
g2
S'http://www.reuters.com/article/politicsNews/idUSN2326666620070824'
p1585
sg4
S'20070824\xc2\xa012:40 PM EDT'
p1586
sg6
S'U.S. to push food, product safety at APEC summit'
p1587
sa(dp1588
g2
S'http://www.reuters.com/article/africaCrisis/idUSL24767195'
p1589
sg4
S'20070824\xc2\xa012:38 PM EDT'
p1590
sg6
S'FACTBOX-Sierra Leone, land of diamonds and poverty'
p1591
sa(dp1592
g2
S'http://www.reuters.com/article/companyNewsAndPR/idUSBNG23652720070824'
p1593
sg4
S'20070824\xc2\xa012:38 PM EDT'
p1594
sg6
S'UPDATE 2-China Sunergy posts Q2 loss, shares tumble'
p1595
sa(dp1596
g2
S'http://www.reuters.com/article/inPlayBriefing/idUSIN20070824123711TECHX20070824'
p1597
sg4
S'20070824\xc2\xa012:37 PM EDT'
p1598
sg6
S'Market View: China Index -FXI- approaching July/all time high'
p1599
sa(dp1600
g2
S'http://www.reuters.com/article/globalMarketsNews/idUSHKG35375120070824'
p1601
sg4
S'20070824\xc2\xa012:36 PM EDT'
p1602
sg6
S'Global stocks, bonds up after data'
p1603
sa(dp1604
g2
S'http://www.reuters.com/article/healthNews/idUSCOL45920420070824'
p1605
sg4
S'20070824\xc2\xa012:34 PM EDT'
p1606
sg6
S'Early exposure to farm animals lowers IBD risk'
p1607
sa(dp1608
g2
S'http://www.reuters.com/article/africaCrisis/idUSL24826175'
p1609
sg4
S'20070824\xc2\xa012:33 PM EDT'
p1610
sg6
S'Gunmen kill another journalist in Somalia'
p1611
sa(dp1612
g2
S'http://www.reuters.com/article/reutersEdge/idUSN2445118420070824'
p1613
sg4
S'20070824\xc2\xa012:33 PM EDT'
p1614
sg6
S'Subprime mortgage issuers test appetite for risk'
p1615
sa(dp1616
g2
S'http://www.reuters.com/article/gc06/idUSDIS45934520070824'
p1617
sg4
S'20070824\xc2\xa012:30 PM EDT'
p1618
sg6
S'Fed rate cut may haunt Wall Street'
p1619
sa(dp1620
g2
S'http://www.reuters.com/article/stockTickerBriefing/idUSSI2007082412283120070824'
p1621
sg4
S'20070824\xc2\xa012:30 PM EDT'
p1622
sg6
S'Stock Market Update - Fri Aug 24 12:30:01 EDT 2007'
p1623
sa(dp1624
g2
S'http://www.reuters.com/article/usMktRpt/idUSN2444728420070824'
p1625
sg4
S'20070824\xc2\xa012:29 PM EDT'
p1626
sg6
S'US STOCKS-Indexes advance, helped by strong data'
p1627
sa(dp1628
g2
S'http://www.reuters.com/article/homepageCrisis/idUSL24337313._CH_.2400'
p1629
sg4
S'20070824\xc2\xa012:24 PM EDT'
p1630
sg6
S'Sudan must implement southern deal, AU says'
p1631
sa(dp1632
g2
S'http://www.reuters.com/article/africaCrisis/idUSL24337313'
p1633
sg4
S'20070824\xc2\xa012:24 PM EDT'
p1634
sg6
S'Sudan must implement southern deal, AU says'
p1635
sa(dp1636
g2
S'http://www.reuters.com/article/storyStocksBriefing/idUSST20070824122235cbirkner20070824'
p1637
sg4
S'20070824\xc2\xa012:22 PM EDT'
p1638
sg6
S'Stock Market Update - Fri Aug 24 12:22:34 EDT 2007'
p1639
sa(dp1640
g2
S'http://www.reuters.com/article/londonMktRpt/idUSL2479823820070824'
p1641
sg4
S'20070824\xc2\xa012:22 PM EDT'
p1642
sg6
S'FTSE ends up as economy news trumps credit worries'
p1643
sa(dp1644
g2
S'http://www.reuters.com/article/consumerproducts-SP-A/idUSPEK20135720070824'
p1645
sg4
S'20070824\xc2\xa012:21 PM EDT'
p1646
sg6
S'Product quality headaches to help China in long run'
p1647
sa(dp1648
g2
S'http://www.reuters.com/article/bankingfinancial-SP/idUSL2482162320070824'
p1649
sg4
S'20070824\xc2\xa012:16 PM EDT'
p1650
sg6
S'"Nothing" to talk group to lower ABN bid-sources'
p1651
sa(dp1652
g2
S'http://www.reuters.com/article/bankingfinancial-SP/idUSL2481710220070824'
p1653
sg4
S'20070824\xc2\xa012:16 PM EDT'
p1654
sg6
S'Sberbank Q1 net profit beats expectations'
p1655
sa(dp1656
g2
S'http://www.reuters.com/article/bondsNews/idUSN2434628120070824'
p1657
sg4
S'20070824\xc2\xa012:12 PM EDT'
p1658
sg6
S"Credit crunch won't hit Brazil growth -cen bank"
p1659
sa(dp1660
g2
S'http://www.reuters.com/article/companyNewsAndPR/idUSN2442232820070824'
p1661
sg4
S'20070824\xc2\xa012:11 PM EDT'
p1662
sg6
S'FOREX-Dollar drops as credit concerns outweigh US data'
p1663
sa(dp1664
g2
S'http://www.reuters.com/article/africaCrisis/idUSL24257936'
p1665
sg4
S'20070824\xc2\xa012:09 PM EDT'
p1666
sg6
S'CHRONOLOGY-Attacks on journalists in Somalia'
p1667
sa(dp1668
g2
S'http://www.reuters.com/article/bondsNews/idUSN2434586420070824'
p1669
sg4
S'20070824\xc2\xa012:07 PM EDT'
p1670
sg6
S"UPDATE 1-Canada's Flaherty says monitoring credit crunch"
p1671
sa(dp1672
g2
S'http://www.reuters.com/article/inPlayBriefing/idUSIN20070824120639TECHX20070824'
p1673
sg4
S'20070824\xc2\xa012:06 PM EDT'
p1674
sg6
S'Sector leadership: Seeing some minor improvement in recent trade'
p1675
sa(dp1676
g2
S'http://www.reuters.com/article/gc06/idUSL2481436720070824'
p1677
sg4
S'20070824\xc2\xa012:05 PM EDT'
p1678
sg6
S'Nordea CEO sees minor impact from subprime fallout'
p1679
sa(dp1680
g2
S'http://www.reuters.com/article/tnBasicIndustries-SP/idUST14741220070824'
p1681
sg4
S'20070824\xc2\xa012:04 PM EDT'
p1682
sg6
S'Isuzu, Hino to jointly develop engines - paper'
p1683
sa(dp1684
g2
S'http://www.reuters.com/article/economicNews/idUSN2434301620070824'
p1685
sg4
S'20070824\xc2\xa012:04 PM EDT'
p1686
sg6
S'UPDATE 2-Canada forecasts faster growth, bigger surplus'
p1687
sa(dp1688
g2
S'http://www.reuters.com/article/technology-media-telco-SP/idUSSHA26723120070824'
p1689
sg4
S'20070824\xc2\xa012:02 PM EDT'
p1690
sg6
S'NEC Elec sets up new China office, partnership'
p1691
sa(dp1692
g2
S'http://www.reuters.com/article/technology-media-telco-SP/idUSSHA25220620070824'
p1693
sg4
S'20070824\xc2\xa012:02 PM EDT'
p1694
sg6
S'STMicro seeking China production partner -source'
p1695
sa(dp1696
g2
S'http://www.reuters.com/article/inPlayBriefing/idUSIN20070824120225BONDX20070824'
p1697
sg4
S'20070824\xc2\xa012:02 PM EDT'
p1698
sg6
S'Bond Watch: Bonds Tick Higher'
p1699
sa(dp1700
g2
S'http://www.reuters.com/article/worldNews/idUSL2469543120070824'
p1701
sg4
S'20070824\xc2\xa012:02 PM EDT'
p1702
sg6
S"Turkey's Gul set to win presidency next week"
p1703
sa(dp1704
g2
S'http://www.reuters.com/article/economicNews/idUSN1344537220070824'
p1705
sg4
S'20070824\xc2\xa012:00 PM EDT'
p1706
sg6
S'TABLE-Canada indicators survey - Aug 27-31'
p1707
sa(dp1708
g2
S'http://www.reuters.com/article/stockTickerBriefing/idUSSI2007082412014920070824'
p1709
sg4
S'20070824\xc2\xa012:00 PM EDT'
p1710
sg6
S'Stock Market Update - Fri Aug 24 12:00:01 EDT 2007'
p1711
sa(dp1712
g2
S'http://www.reuters.com/article/governmentFilingsNews/idUSWNAS285620070824'
p1713
sg4
S'20070824\xc2\xa011:56 AM EDT'
p1714
sg6
S'Double Eagle adopts shareholder rights plan'
p1715
sa(dp1716
g2
S'http://www.reuters.com/article/innovationNews/idUSL2473955020070824'
p1717
sg4
S'20070824\xc2\xa011:55 AM EDT'
p1718
sg6
S'Stricken German bank set for fast sale: sources'
p1719
sa(dp1720
g2
S'http://www.reuters.com/article/industryNews/idUSN2320439020070824'
p1721
sg4
S'20070824\xc2\xa011:54 AM EDT'
p1722
sg6
S'A double win as "Hogs" goes wild on DVD'
p1723
sa(dp1724
g2
S'http://www.reuters.com/article/entertainmentNews/idUSN2430461120070824'
p1725
sg4
S'20070824\xc2\xa011:54 AM EDT'
p1726
sg6
S'Directors cut: No screeners for DGA Awards'
p1727
sa(dp1728
g2
S'http://www.reuters.com/article/companyNewsAndPR/idUSN2434487420070824'
p1729
sg4
S'20070824\xc2\xa011:53 AM EDT'
p1730
sg6
S"UPDATE 1-Chile's LAN sees 20 pct traffic growth in 2007/08"
p1731
sa(dp1732
g2
S'http://www.reuters.com/article/africaCrisis/idUSL24688706'
p1733
sg4
S'20070824\xc2\xa011:42 AM EDT'
p1734
sg6
S'Congo villagers threatened by hungry elephant herds'
p1735
sa(dp1736
g2
S'http://www.reuters.com/article/bondsNews/idUSTOR00200520070824'
p1737
sg4
S'20070824\xc2\xa011:41 AM EDT'
p1738
sg6
S"Canada's Flaherty says watching subprime issues"
p1739
sa(dp1740
g2
S'http://www.reuters.com/article/globalMarketsNews/idUSL2481902720070824'
p1741
sg4
S'20070824\xc2\xa011:41 AM EDT'
p1742
sg6
S'Strong U.S. data keeps European stocks rally alive'
p1743
sa(dp1744
g2
S'http://www.reuters.com/article/worldNews/idUSL2415792920070824'
p1745
sg4
S'20070824\xc2\xa011:40 AM EDT'
p1746
sg6
S'Bosnian Serb jailed for 12 years over war crimes'
p1747
sa(dp1748
g2
S'http://www.reuters.com/article/inPlayBriefing/idUSIN20070824114018CHNR20070824'
p1749
sg4
S'20070824\xc2\xa011:40 AM EDT'
p1750
sg6
S'China Natl Resources announces investors purchased a total of 2,187,500 units'
p1751
sa(dp1752
g2
S'http://www.reuters.com/article/companyNewsAndPR/idUSL2481570920070824'
p1753
sg4
S'20070824\xc2\xa011:39 AM EDT'
p1754
sg6
S'Strong U.S. data keeps European stocks rally alive'
p1755
sa(dp1756
g2
S'http://www.reuters.com/article/latestCrisis/idUSL24157929'
p1757
sg4
S'20070824\xc2\xa011:37 AM EDT'
p1758
sg6
S'Bosnian Serb jailed for 12 years over war crimes'
p1759
sa(dp1760
g2
S'http://www.reuters.com/article/inPlayBriefing/idUSIN20070824113529DBLE20070824'
p1761
sg4
S'20070824\xc2\xa011:35 AM EDT'
p1762
sg6
S'Double Eagle Petro adopts shareholder rights plan'
p1763
sa(dp1764
g2
S'http://www.reuters.com/article/companyNewsAndPR/idUSN2434352920070824'
p1765
sg4
S'20070824\xc2\xa011:33 AM EDT'
p1766
sg6
S"Chile's LAN sees 20 pct traffic growth in 2007/08"
p1767
sa(dp1768
g2
S'http://www.reuters.com/article/televisionNews/idUSN2430506520070824'
p1769
sg4
S'20070824\xc2\xa011:31 AM EDT'
p1770
sg6
S"Handler's staying up late on E!"
p1771
sa(dp1772
g2
S'http://www.reuters.com/article/entertainmentNews/idUSL2478652220070824'
p1773
sg4
S'20070824\xc2\xa011:30 AM EDT'
p1774
sg6
S'British TV network axes Celebrity Big Brother 2008'
p1775
sa(dp1776
g2
S'http://www.reuters.com/article/bankingfinancial-SP/idUSPEK14052120070824'
p1777
sg4
S'20070824\xc2\xa011:29 AM EDT'
p1778
sg6
S"China's CICC eyes $1 bln QDII investment -paper"
p1779
sa(dp1780
g2
S'http://www.reuters.com/article/companyNewsAndPR/idUSN2434375120070824'
p1781
sg4
S'20070824\xc2\xa011:25 AM EDT'
p1782
sg6
S'CME hogs speed higher on pork sale to China, funds'
p1783
sa(dp1784
g2
S'http://www.reuters.com/article/stockTickerBriefing/idUSSI2007082411272720070824'
p1785
sg4
S'20070824\xc2\xa011:25 AM EDT'
p1786
sg6
S'Stock Market Update - Fri Aug 24 11:25:01 EDT 2007'
p1787
sa(dp1788
g2
S'http://www.reuters.com/article/topNews/idUSL2474678020070824'
p1789
sg4
S'20070824\xc2\xa011:25 AM EDT'
p1790
sg6
S'FACTBOX: Military and civilian deaths in Iraq'
p1791
sa(dp1792
g2
S'http://www.reuters.com/article/mergersNews/idUSN2433392620070824'
p1793
sg4
S'20070824\xc2\xa011:24 AM EDT'
p1794
sg6
S'UPDATE 2-FPI sells final assets to High Liner, Ocean Choice'
p1795
sa(dp1796
g2
S'http://www.reuters.com/article/latestCrisis/idUSL24746780'
p1797
sg4
S'20070824\xc2\xa011:22 AM EDT'
p1798
sg6
S'FACTBOX-Military and civilian deaths in Iraq'
p1799
sa(dp1800
g2
S'http://www.reuters.com/article/companyNewsAndPR/idUSL24188420070824'
p1801
sg4
S'20070824\xc2\xa011:21 AM EDT'
p1802
sg6
S"FACTBOX-Germany's Merkel sets agenda for next two years"
p1803
sa(dp1804
g2
S'http://www.reuters.com/article/gc06/idUSL2431685120070824'
p1805
sg4
S'20070824\xc2\xa011:21 AM EDT'
p1806
sg6
S'EU watchdogs to talk subprime with rating agencies'
p1807
sa(dp1808
g2
S'http://www.reuters.com/article/gc06/idUSL2478446420070824'
p1809
sg4
S'20070824\xc2\xa011:20 AM EDT'
p1810
sg6
S'Italy savings culture spares banks from subprime woe'
p1811
sa(dp1812
g2
S'http://www.reuters.com/article/companyNewsAndPR/idUSN2434219320070824'
p1813
sg4
S'20070824\xc2\xa011:19 AM EDT'
p1814
sg6
S'Exelon ComEd working to restore power to 245,000'
p1815
sa(dp1816
g2
S'http://www.reuters.com/article/latestCrisis/idUSN24342193'
p1817
sg4
S'20070824\xc2\xa011:19 AM EDT'
p1818
sg6
S'Exelon ComEd working to restore power to 245,000'
p1819
sa(dp1820
g2
S'http://www.reuters.com/article/health-SP/idUSWNAS285520070824'
p1821
sg4
S'20070824\xc2\xa011:18 AM EDT'
p1822
sg6
S"Israel's Teva gets FDA OK for generic herpes drug, Famvir"
p1823
sa(dp1824
g2
S'http://www.reuters.com/article/latestCrisis/idUSL24800101'
p1825
sg4
S'20070824\xc2\xa011:16 AM EDT'
p1826
sg6
S"Militants' families evacuated from Lebanon camp"
p1827
sa(dp1828
g2
S'http://www.reuters.com/article/inPlayBriefing/idUSIN20070824111610BONDX20070824'
p1829
sg4
S'20070824\xc2\xa011:16 AM EDT'
p1830
sg6
S'Bond Watch: Flowed Out '
p1831
sa(dp1832
g2
S'http://www.reuters.com/article/bondsNews/idUSN2434201720070824'
p1833
sg4
S'20070824\xc2\xa011:15 AM EDT'
p1834
sg6
S'Venezuela confirms signed accord with steelmaker Sidor'
p1835
sa(dp1836
g2
S'http://www.reuters.com/article/topNews/idUSL2479223320070824'
p1837
sg4
S'20070824\xc2\xa011:14 AM EDT'
p1838
sg6
S'France opens door to helping Iraqi troops, police'
p1839
sa(dp1840
g2
S'http://www.reuters.com/article/governmentFilingsNews/idUSWNA070920070824'
p1841
sg4
S'20070824\xc2\xa011:09 AM EDT'
p1842
sg6
S'HSBC Bank reports 5.37 pct stake in Orient-Express Hotels'
p1843
sa(dp1844
g2
S'http://www.reuters.com/article/newsOne/idUSN2431097520070824'
p1845
sg4
S'20070824\xc2\xa011:07 AM EDT'
p1846
sg6
S'Gen. Pace may urge U.S. troop cut in Iraq: report'
p1847
sa(dp1848
g2
S'http://www.reuters.com/article/newsOne/idUSL2426524920070824'
p1849
sg4
S'20070824\xc2\xa011:07 AM EDT'
p1850
sg6
S'FACTBOX: Security developments in Iraq, Aug 24'
p1851
sa(dp1852
g2
S'http://www.reuters.com/article/newsOne/idUSL2353098020070824'
p1853
sg4
S'20070824\xc2\xa011:07 AM EDT'
p1854
sg6
S'Iraqi translators struggle for safety and a visa'
p1855
sa(dp1856
g2
S'http://www.reuters.com/article/newsOne/idUSGRA43991020070824'
p1857
sg4
S'20070824\xc2\xa011:07 AM EDT'
p1858
sg6
S'Iraq Kurds accuse Iran of cross-border shelling'
p1859
sa(dp1860
g2
S'http://www.reuters.com/article/newsOne/idUSDEL5743220070824'
p1861
sg4
S'20070824\xc2\xa011:07 AM EDT'
p1862
sg6
S'Indian guru makes peace angels of Iraqi youths'
p1863
sa(dp1864
g2
S'http://www.reuters.com/article/bondsNews/idUSL2482033320070824'
p1865
sg4
S'20070824\xc2\xa011:07 AM EDT'
p1866
sg6
S'UPDATE 1-ECB keeps options open on Sept. rate hike -sources'
p1867
sa(dp1868
g2
S'http://www.reuters.com/article/bondsNews/idUSL2449643520070824'
p1869
sg4
S'20070824\xc2\xa011:07 AM EDT'
p1870
sg6
S'UPDATE 1-ECB keeps options open on Sept. rate hike -sources'
p1871
sa(dp1872
g2
S'http://www.reuters.com/article/technologyNews/idUST27107220070824'
p1873
sg4
S'20070824\xc2\xa011:02 AM EDT'
p1874
sg6
S'Nokia battery case to cost Matsushita up to $172 mln'
p1875
sa(dp1876
g2
S'http://www.reuters.com/article/gc06/idUSN2433453720070824'
p1877
sg4
S'20070824\xc2\xa011:00 AM EDT'
p1878
sg6
S'Fannie July mortgage holdings jump'
p1879
sa(dp1880
g2
S'http://www.reuters.com/article/bondsNews/idUSN2439604920070824'
p1881
sg4
S'20070824\xc2\xa011:00 AM EDT'
p1882
sg6
S'UPDATE 2-Fannie July mortgage holdings jump, slim growth room'
p1883
sa(dp1884
g2
S'http://www.reuters.com/article/internetNews/idUSL2478621120070824'
p1885
sg4
S'20070824\xc2\xa011:00 AM EDT'
p1886
sg6
S'Teen fined for YouTube karaoke video'
p1887
sa(dp1888
g2
S'http://www.reuters.com/article/stockTickerBriefing/idUSSI2007082411010420070824'
p1889
sg4
S'20070824\xc2\xa011:00 AM EDT'
p1890
sg6
S'Stock Market Update - Fri Aug 24 11:00:01 EDT 2007'
p1891
sa(dp1892
g2
S'http://www.reuters.com/article/bondsNews/idUSNEUBD420070824'
p1893
sg4
S'20070824\xc2\xa010:56 AM EDT'
p1894
sg6
S'Forward Calendar - U.S. corporate bond new issues'
p1895
sa(dp1896
g2
S'http://www.reuters.com/article/worldNews/idUSL247647720070824'
p1897
sg4
S'20070824\xc2\xa010:56 AM EDT'
p1898
sg6
S'Book shows a power-hungry Sarkozy with sweet tooth'
p1899
sa(dp1900
g2
S'http://www.reuters.com/article/bondsNews/idUSN0716431820070824'
p1901
sg4
S'20070824\xc2\xa010:56 AM EDT'
p1902
sg6
S'Fannie Mae, Freddie Mac bill sale calendar'
p1903
sa(dp1904
g2
S'http://www.reuters.com/article/companyNewsAndPR/idUSN04GENCYBO20070824'
p1905
sg4
S'20070824\xc2\xa010:55 AM EDT'
p1906
sg6
S'U.S. agency 2007 note sales calendar'
p1907
sa(dp1908
g2
S'http://www.reuters.com/article/consumerproducts-SP/idUSN2329843920070824'
p1909
sg4
S'20070824\xc2\xa010:55 AM EDT'
p1910
sg6
S'Wal-Mart seeks more toy tests before holidays'
p1911
sa(dp1912
g2
S'http://www.reuters.com/article/topNews/idUSISL23333120070824'
p1913
sg4
S'20070824\xc2\xa010:52 AM EDT'
p1914
sg6
S'Suicide attacks kill six in NW Pakistan'
p1915
sa(dp1916
g2
S'http://www.reuters.com/article/inPlayBriefing/idUSIN20070824105027TEVA20070824'
p1917
sg4
S'20070824\xc2\xa010:50 AM EDT'
p1918
sg6
S'Teva Pharm announces approval of generic famvir tablets'
p1919
sa(dp1920
g2
S'http://www.reuters.com/article/bankingfinancial-SP/idUSHKG27871120070824'
p1921
sg4
S'20070824\xc2\xa010:50 AM EDT'
p1922
sg6
S'Bank of China arm HK stock scheme begins next week'
p1923
sa(dp1924
g2
S'http://www.reuters.com/article/peopleNews/idUSN2327798520070824'
p1925
sg4
S'20070824\xc2\xa010:45 AM EDT'
p1926
sg6
S'Gibson meets orders in drunken driving case: attorney'
p1927
sa(dp1928
g2
S'http://www.reuters.com/article/domesticNews/idUSN2330074420070824'
p1929
sg4
S'20070824\xc2\xa010:45 AM EDT'
p1930
sg6
S'Nicole Richie serves 1 hour in jail for DUI'
p1931
sa(dp1932
g2
S'http://www.reuters.com/article/entertainmentNews/idUSDEL24414320070824'
p1933
sg4
S'20070824\xc2\xa010:45 AM EDT'
p1934
sg6
S'Bollywood Bachchan says wife Aishwarya comes first'
p1935
sa(dp1936
g2
S'http://www.reuters.com/article/lifestyleMolt/idUSMAN18276020070824'
p1937
sg4
S'20070824\xc2\xa010:42 AM EDT'
p1938
sg6
S'Travel Postcard: 48 Hours in Manila'
p1939
sa(dp1940
g2
S'http://www.reuters.com/article/bondsNews/idUSN2433809620070824'
p1941
sg4
S'20070824\xc2\xa010:42 AM EDT'
p1942
sg6
S'Mexico stocks, peso gain after U.S. housing data'
p1943
sa(dp1944
g2
S'http://www.reuters.com/article/usMktRpt/idUSN2433677320070824'
p1945
sg4
S'20070824\xc2\xa010:42 AM EDT'
p1946
sg6
S'US STOCKS-Indexes rise after strong housing data'
p1947
sa(dp1948
g2
S'http://www.reuters.com/article/companyNewsAndPR/idUSN2438290320070824'
p1949
sg4
S'20070824\xc2\xa010:39 AM EDT'
p1950
sg6
S'FOREX-Dollar retreats as credit concerns offset strong data'
p1951
sa(dp1952
g2
S'http://www.reuters.com/article/companyNewsAndPR/idUSN2437770620070824'
p1953
sg4
S'20070824\xc2\xa010:38 AM EDT'
p1954
sg6
S'U.S. gold futures rise early as dollar falls'
p1955
sa(dp1956
g2
S'http://www.reuters.com/article/newsOne/idUSN2432654220070824'
p1957
sg4
S'20070824\xc2\xa010:38 AM EDT'
p1958
sg6
S'More homeowners say house value declines: survey'
p1959
sa(dp1960
g2
S'http://www.reuters.com/article/bondsNews/idUSL249710820070824'
p1961
sg4
S'20070824\xc2\xa010:37 AM EDT'
p1962
sg6
S'WRAPUP 1-Europe business confidence shows signs of weakness'
p1963
sa(dp1964
g2
S'http://www.reuters.com/article/tnBasicIndustries-SP/idUSSYD21573420070824'
p1965
sg4
S'20070824\xc2\xa010:36 AM EDT'
p1966
sg6
S'PaperlinX profit up 23 pct on savings, restructure'
p1967
sa(dp1968
g2
S'http://www.reuters.com/article/tnBasicIndustries-SP/idUSSEL00008820070824'
p1969
sg4
S'20070824\xc2\xa010:36 AM EDT'
p1970
sg6
S"S.Korea's Daewoo Eng to cancel $490 mln in shares"
p1971
sa(dp1972
g2
S'http://www.reuters.com/article/businessNews/idUSL0757467320070824'
p1973
sg4
S'20070824\xc2\xa010:35 AM EDT'
p1974
sg6
S'FACTBOX-Markets react to credit fears -- the numbers'
p1975
sa(dp1976
g2
S'http://www.reuters.com/article/companyNewsAndPR/idUSWNAS285220070824'
p1977
sg4
S'20070824\xc2\xa010:34 AM EDT'
p1978
sg6
S'Smithfield to sell 60 mln pounds of pork in China'
p1979
sa(dp1980
g2
S'http://www.reuters.com/article/newIssuesNews/idUSWNAS285120070824'
p1981
sg4
S'20070824\xc2\xa010:34 AM EDT'
p1982
sg6
S'Cortex Pharma to raise $14.2 mln from stock, warrant offering'
p1983
sa(dp1984
g2
S'http://www.reuters.com/article/oddlyEnoughNews/idUSN2328980320070824'
p1985
sg4
S'20070824\xc2\xa010:33 AM EDT'
p1986
sg6
S'Country to change time zone by 30 minutes'
p1987
sa(dp1988
g2
S'http://www.reuters.com/article/businessNews/idUSN2325105220070824'
p1989
sg4
S'20070824\xc2\xa010:33 AM EDT'
p1990
sg6
S'CHRONOLOGY-Events leading up to August market volatility'
p1991
sa(dp1992
g2
S'http://www.reuters.com/article/companyNewsAndPR/idUSL2479222020070824'
p1993
sg4
S'20070824\xc2\xa010:32 AM EDT'
p1994
sg6
S'Heads roll in Europe as subprime crisis takes toll'
p1995
sa(dp1996
g2
S'http://www.reuters.com/article/companyNewsAndPR/idUSN2433509720070824'
p1997
sg4
S'20070824\xc2\xa010:30 AM EDT'
p1998
sg6
S'UPDATE 1-Toronto stocks edge up after US housing data'
p1999
sa(dp2000
g2
S'http://www.reuters.com/article/economicNews/idUSNAT00309820070824'
p2001
sg4
S'20070824\xc2\xa010:30 AM EDT'
p2002
sg6
S'Gauge of U.S. economy falls last week - ECRI'
p2003
sa(dp2004
g2
S'http://www.reuters.com/article/stockTickerBriefing/idUSSI2007082410332520070824'
p2005
sg4
S'20070824\xc2\xa010:30 AM EDT'
p2006
sg6
S'Stock Market Update - Fri Aug 24 10:30:01 EDT 2007'
p2007
sa(dp2008
g2
S'http://www.reuters.com/article/environmentNews/idUSPEK28174120070824'
p2009
sg4
S'20070824\xc2\xa010:29 AM EDT'
p2010
sg6
S'Floods wreak havoc in China province, 7 dead'
p2011
sa(dp2012
g2
S'http://www.reuters.com/article/bondsNews/idUSN2433772620070824'
p2013
sg4
S'20070824\xc2\xa010:29 AM EDT'
p2014
sg6
S'Fed does not do market operations so far on Friday'
p2015
sa(dp2016
g2
S'http://www.reuters.com/article/scienceNews/idUSSP22885120070824'
p2017
sg4
S'20070824\xc2\xa010:29 AM EDT'
p2018
sg6
S'Sony develops sweet little bio battery'
p2019
sa(dp2020
g2
S'http://www.reuters.com/article/newsOne/idUSL2328950920070824'
p2021
sg4
S'20070824\xc2\xa010:27 AM EDT'
p2022
sg6
S"Bush's Middle East peace bid seen floundering"
p2023
sa(dp2024
g2
S'http://www.reuters.com/article/newsOne/idUSL2478759620070824'
p2025
sg4
S'20070824\xc2\xa010:27 AM EDT'
p2026
sg6
S'Fatah protest in Gaza against Hamas turns violent'
p2027
sa(dp2028
g2
S'http://www.reuters.com/article/latestCrisis/idUSL24340187'
p2029
sg4
S'20070824\xc2\xa010:22 AM EDT'
p2030
sg6
S'Fatah protest in Gaza against Hamas turns violent'
p2031
sa(dp2032
g2
S'http://www.reuters.com/article/inPlayBriefing/idUSIN20070824102039SFD20070824'
p2033
sg4
S'20070824\xc2\xa010:20 AM EDT'
p2034
sg6
S'Smithfield Foods announces agreement for pork exports to China'
p2035
sa(dp2036
g2
S'http://www.reuters.com/article/consumerproducts-SP/idUSN2329077220070824'
p2037
sg4
S'20070824\xc2\xa010:20 AM EDT'
p2038
sg6
S'Gap net profit up 19 pct, plans $1.5 bln buyback'
p2039
sa(dp2040
g2
S'http://www.reuters.com/article/reutersEdge/idUSN2436325720070824'
p2041
sg4
S'20070824\xc2\xa010:19 AM EDT'
p2042
sg6
S'INSTANT VIEW 3: July new home sales higher than expected'
p2043
sa(dp2044
g2
S'http://www.reuters.com/article/bankingfinancial-SP/idUSN2433442920070824'
p2045
sg4
S'20070824\xc2\xa010:18 AM EDT'
p2046
sg6
S'Fannie Mae shares fall after portfolio jumps'
p2047
sa(dp2048
g2
S'http://www.reuters.com/article/politicsNews/idUSL2415137020070824'
p2049
sg4
S'20070824\xc2\xa010:17 AM EDT'
p2050
sg6
S'Russia denies sale of 98 planes to Venezuela'
p2051
sa(dp2052
g2
S'http://www.reuters.com/article/inPlayBriefing/idUSIN20070824101717XOM20070824'
p2053
sg4
S'20070824\xc2\xa010:17 AM EDT'
p2054
sg6
S'Exxon Mobil breaks above resistance'
p2055
sa(dp2056
g2
S'http://www.reuters.com/article/gc06/idUSWEN068020070824'
p2057
sg4
S'20070824\xc2\xa010:15 AM EDT'
p2058
sg6
S'Florida mortgage broker faces involuntary Ch. 11'
p2059
sa(dp2060
g2
S'http://www.reuters.com/article/gc06/idUSL2411386620070824'
p2061
sg4
S'20070824\xc2\xa010:14 AM EDT'
p2062
sg6
S'Rates on the rise for UK subprime mortgage borrowers'
p2063
sa(dp2064
g2
S'http://www.reuters.com/article/inPlayBriefing/idUSIN20070824101309TECHX20070824'
p2065
sg4
S'20070824\xc2\xa010:13 AM EDT'
p2066
sg6
S'Market View: Show me time for bulls'
p2067
sa(dp2068
g2
S'http://www.reuters.com/article/worldNews/idUSL2484626220070824'
p2069
sg4
S'20070824\xc2\xa010:12 AM EDT'
p2070
sg6
S"Mohamed al-Fayed's unanswered Diana questions"
p2071
sa(dp2072
g2
S'http://www.reuters.com/article/worldNews/idUSL2487793420070824'
p2073
sg4
S'20070824\xc2\xa010:12 AM EDT'
p2074
sg6
S'Royal family have "ice water in veins": al-Fayed'
p2075
sa(dp2076
g2
S'http://www.reuters.com/article/worldNews/idUSL2447757420070824'
p2077
sg4
S'20070824\xc2\xa010:12 AM EDT'
p2078
sg6
S'Prince William ends Seychelles holiday'
p2079
sa(dp2080
g2
S'http://www.reuters.com/article/lifestyleMolt/idUSL2469995620070824'
p2081
sg4
S'20070824\xc2\xa010:10 AM EDT'
p2082
sg6
S'"Most expensive pair of Lederhosen" sold for $115,000'
p2083
sa(dp2084
g2
S'http://www.reuters.com/article/inPlayBriefing/idUSIN20070824100922COR20070824'
p2085
sg4
S'20070824\xc2\xa010:09 AM EDT'
p2086
sg6
S'Cortex Pharm to raise $14.2 mln in registered direct offering'
p2087
sa(dp2088
g2
S'http://www.reuters.com/article/companyNewsAndPR/idUSNYH00053220070824'
p2089
sg4
S'20070824\xc2\xa010:08 AM EDT'
p2090
sg6
S'FOREX-Dollar trims losses vs yen after US housing data'
p2091
sa(dp2092
g2
S'http://www.reuters.com/article/companyNewsAndPR/idUSNYE00016520070824'
p2093
sg4
S'20070824\xc2\xa010:08 AM EDT'
p2094
sg6
S'TREASURIES-Bond prices pare gains on sturdy home sales'
p2095
sa(dp2096
g2
S'http://www.reuters.com/article/latestCrisis/idUSISL233331'
p2097
sg4
S'20070824\xc2\xa010:07 AM EDT'
p2098
sg6
S'Suicide attacks kill six in NW Pakistan'
p2099
sa(dp2100
g2
S'http://www.reuters.com/article/usMktRpt/idUSN2433509820070824'
p2101
sg4
S'20070824\xc2\xa010:07 AM EDT'
p2102
sg6
S'US STOCKS-Indexes rise after strong new home sales data'
p2103
sa(dp2104
g2
S'http://www.reuters.com/article/stockTickerBriefing/idUSSI2007082410042320070824'
p2105
sg4
S'20070824\xc2\xa010:05 AM EDT'
p2106
sg6
S'Stock Market Update - Fri Aug 24 10:05:01 EDT 2007'
p2107
sa(dp2108
g2
S'http://www.reuters.com/article/companyNewsAndPR/idUSL1778447120070824'
p2109
sg4
S'20070824\xc2\xa010:04 AM EDT'
p2110
sg6
S'DIARY - European Central Bank (ECB) events to December 2007'
p2111
sa(dp2112
g2
S'http://www.reuters.com/article/inPlayBriefing/idUSIN20070824100343SNN20070824'
p2113
sg4
S'20070824\xc2\xa010:03 AM EDT'
p2114
sg6
S'Smith & Nephew wins gender knee system clearance'
p2115
sa(dp2116
g2
S'http://www.reuters.com/article/worldNews/idUSL2417602320070824'
p2117
sg4
S'20070824\xc2\xa010:02 AM EDT'
p2118
sg6
S'Two Spanish police wounded by ETA bomb'
p2119
sa(dp2120
g2
S'http://www.reuters.com/article/companyNewsAndPR/idUSN2433521820070824'
p2121
sg4
S'20070824\xc2\xa010:02 AM EDT'
p2122
sg6
S'UPDATE 1-Krispy Kreme realigns operations'
p2123
sa(dp2124
g2
S'http://www.reuters.com/article/tnBasicIndustries-SP/idUSN2327200020070824'
p2125
sg4
S'20070824\xc2\xa010:01 AM EDT'
p2126
sg6
S'Lockheed sees growing interest in Patriot missile'
p2127
sa(dp2128
g2
S'http://www.reuters.com/article/bankingfinancial-SP/idUSL2473904020070824'
p2129
sg4
S'20070824\xc2\xa010:01 AM EDT'
p2130
sg6
S'UniCredit uses greenshoe option on Bialetti shares'
p2131
sa(dp2132
g2
S'http://www.reuters.com/article/companyNewsAndPR/idUSN2435415820070824'
p2133
sg4
S'20070824\xc2\xa009:58 AM EDT'
p2134
sg6
S'FOREX-Dollar falls vs yen, euro as risk aversion returns'
p2135
sa(dp2136
g2
S'http://www.reuters.com/article/newsOne/idUSDEL8109820070824'
p2137
sg4
S'20070824\xc2\xa009:57 AM EDT'
p2138
sg6
S'TIMELINE: Twists and turns in the India-U.S. nuclear deal'
p2139
sa(dp2140
g2
S'http://www.reuters.com/article/worldNews/idUSL2491882720070824'
p2141
sg4
S'20070824\xc2\xa009:56 AM EDT'
p2142
sg6
S'TIMELINE: Basque separatist group ETA'
p2143
sa(dp2144
g2
S'http://www.reuters.com/article/oddlyEnoughNews/idUST26245420070824'
p2145
sg4
S'20070824\xc2\xa009:55 AM EDT'
p2146
sg6
S'Housewife hid $3 million in forex gains'
p2147
sa(dp2148
g2
S'http://www.reuters.com/article/companyNewsAndPR/idUSL2418608420070824'
p2149
sg4
S'20070824\xc2\xa009:54 AM EDT'
p2150
sg6
S'UPDATE 2-Eni says has 60 days to find Kashagan compromise'
p2151
sa(dp2152
g2
S'http://www.reuters.com/article/latestCrisis/idUSL24176023'
p2153
sg4
S'20070824\xc2\xa009:54 AM EDT'
p2154
sg6
S'Two Spanish police wounded by ETA bomb'
p2155
sa(dp2156
g2
S'http://www.reuters.com/article/bondsNews/idUSN2431956420070824'
p2157
sg4
S'20070824\xc2\xa009:54 AM EDT'
p2158
sg6
S'Canadian dollar up on U.S. dollar weakness'
p2159
sa(dp2160
g2
S'http://www.reuters.com/article/businessNews/idUSL2432215620070824'
p2161
sg4
S'20070824\xc2\xa009:53 AM EDT'
p2162
sg6
S'German soccer team to keep wearing Adidas'
p2163
sa(dp2164
g2
S'http://www.reuters.com/article/bankingfinancial-SP/idUSSYD8177720070824'
p2165
sg4
S'20070824\xc2\xa009:52 AM EDT'
p2166
sg6
S'Insurance Australia profit slips 27 pct on storms'
p2167
sa(dp2168
g2
S'http://www.reuters.com/article/inPlayBriefing/idUSIN20070824095154TECHX20070824'
p2169
sg4
S'20070824\xc2\xa009:51 AM EDT'
p2170
sg6
S'Market View: Dow edges back into the black'
p2171
sa(dp2172
g2
S'http://www.reuters.com/article/bondsNews/idUSN2433329820070824'
p2173
sg4
S'20070824\xc2\xa009:50 AM EDT'
p2174
sg6
S'Mexico stocks flat before cenbank rate statement'
p2175
sa(dp2176
g2
S'http://www.reuters.com/article/inPlayBriefing/idUSIN20070824095007OPENX20070824'
p2177
sg4
S'20070824\xc2\xa009:50 AM EDT'
p2178
sg6
S'Reminder: New Home Sales data is due out in approx 10 minutes'
p2179
sa(dp2180
g2
S'http://www.reuters.com/article/governmentFilingsNews/idUSWNA068520070824'
p2181
sg4
S'20070824\xc2\xa009:48 AM EDT'
p2182
sg6
S'Southwestern Electric files for offering worth $660 mln'
p2183
sa(dp2184
g2
S'http://www.reuters.com/article/companyNewsAndPR/idUSBNG16901520070824'
p2185
sg4
S'20070824\xc2\xa009:48 AM EDT'
p2186
sg6
S'UPDATE 1-MeadWestvaco to sell forestlands to Penn Virginia'
p2187
sa(dp2188
g2
S'http://www.reuters.com/article/companyNewsAndPR/idUSN2433226720070824'
p2189
sg4
S'20070824\xc2\xa009:48 AM EDT'
p2190
sg6
S'US STOCKS-Indexes flat as credit, housing jitters nag'
p2191
sa(dp2192
g2
S'http://www.reuters.com/article/tnBasicIndustries-SP/idUSWNAS284820070824'
p2193
sg4
S'20070824\xc2\xa009:47 AM EDT'
p2194
sg6
S'Dana Corp asks Appaloosa for proposal by Sept. 21'
p2195
sa(dp2196
g2
S'http://www.reuters.com/article/mergersNews/idUSPRWP1420070824'
p2197
sg4
S'20070824\xc2\xa009:46 AM EDT'
p2198
sg6
S'EU mergers and takeovers =2'
p2199
sa(dp2200
g2
S'http://www.reuters.com/article/bondsNews/idUSN2426337920070824'
p2201
sg4
S'20070824\xc2\xa009:46 AM EDT'
p2202
sg6
S'Fannie July mortgage holdings jump, just below cap'
p2203
sa(dp2204
g2
S'http://www.reuters.com/article/reutersEdge/idUSL2444154320070824'
p2205
sg4
S'20070824\xc2\xa009:45 AM EDT'
p2206
sg6
S'Summer rains cloud wheat harvest as prices soar'
p2207
sa(dp2208
g2
S'http://www.reuters.com/article/oddlyEnoughNews/idUSL2429875520070824'
p2209
sg4
S'20070824\xc2\xa009:45 AM EDT'
p2210
sg6
S'Shoplifter nabbed trying to exchange stolen shoes'
p2211
sa(dp2212
g2
S'http://www.reuters.com/article/oddlyEnoughNews/idUSL243962920070824'
p2213
sg4
S'20070824\xc2\xa009:45 AM EDT'
p2214
sg6
S"Excuse me, I'd like to buy your B-52"
p2215
sa(dp2216
g2
S'http://www.reuters.com/article/companyNewsAndPR/idUSN2432652420070824'
p2217
sg4
S'20070824\xc2\xa009:44 AM EDT'
p2218
sg6
S'Toronto stocks dip, await US housing data'
p2219
sa(dp2220
g2
S'http://www.reuters.com/article/inPlayBriefing/idUSIN20070824094325TECHX20070824'
p2221
sg4
S'20070824\xc2\xa009:43 AM EDT'
p2222
sg6
S'Sector Watch'
p2223
sa(dp2224
g2
S'http://www.reuters.com/article/inDepthNews/idUSL2388769220070824'
p2225
sg4
S'20070824\xc2\xa009:43 AM EDT'
p2226
sg6
S'Diana conspiracy theories flourish'
p2227
sa(dp2228
g2
S'http://www.reuters.com/article/bondsNews/idUSN2325879220070824'
p2229
sg4
S'20070824\xc2\xa009:42 AM EDT'
p2230
sg6
S'Venezuela, Sidor sign accord avoiding nationalization'
p2231
sa(dp2232
g2
S'http://www.reuters.com/article/stockTickerBriefing/idUSSI2007082409421420070824'
p2233
sg4
S'20070824\xc2\xa009:40 AM EDT'
p2234
sg6
S'Stock Market Update - Fri Aug 24 09:40:01 EDT 2007'
p2235
sa(dp2236
g2
S'http://www.reuters.com/article/mergersNews/idUSWNA068420070824'
p2237
sg4
S'20070824\xc2\xa009:39 AM EDT'
p2238
sg6
S'FPI to sell assets to High Liner, Ocean Choice'
p2239
sa(dp2240
g2
S'http://www.reuters.com/article/companyNewsAndPR/idUSN2433230620070824'
p2241
sg4
S'20070824\xc2\xa009:38 AM EDT'
p2242
sg6
S'US STOCKS-Wall St opens flat, housing data awaited'
p2243
sa(dp2244
g2
S'http://www.reuters.com/article/mergersNews/idUSL2479951320070824'
p2245
sg4
S'20070824\xc2\xa009:37 AM EDT'
p2246
sg6
S'Parques Reunidos to buy U.S. parks for $330 mln'
p2247
sa(dp2248
g2
S'http://www.reuters.com/article/reutersEdge/idUSN2431177420070824'
p2249
sg4
S'20070824\xc2\xa009:37 AM EDT'
p2250
sg6
S'Scouts see Iowa, Minnesota corn yields up'
p2251
sa(dp2252
g2
S'http://www.reuters.com/article/shortStoriesBriefing/idUSSH20070824093744NTCT20070824'
p2253
sg4
S'20070824\xc2\xa009:36 AM EDT'
p2254
sg6
S'Stock Market Update - Fri Aug 24 09:36:49 EDT 2007'
p2255
sa(dp2256
g2
S'http://www.reuters.com/article/shortStoriesBriefing/idUSSH20070824070607MPEL20070824'
p2257
sg4
S'20070824\xc2\xa009:36 AM EDT'
p2258
sg6
S'Stock Market Update - Fri Aug 24 09:36:18 EDT 2007'
p2259
sa(dp2260
g2
S'http://www.reuters.com/article/inPlayBriefing/idUSIN20070824093615VIDE20070824'
p2261
sg4
S'20070824\xc2\xa009:36 AM EDT'
p2262
sg6
S'Video Display to provide propulsion for unmanned vehicle'
p2263
sa(dp2264
g2
S'http://www.reuters.com/article/shortStoriesBriefing/idUSSH20070824072308BITI20070824'
p2265
sg4
S'20070824\xc2\xa009:35 AM EDT'
p2266
sg6
S'Stock Market Update - Fri Aug 24 09:35:59 EDT 2007'
p2267
sa(dp2268
g2
S'http://www.reuters.com/article/domesticNews/idUSWNAS278320070824'
p2269
sg4
S'20070824\xc2\xa009:35 AM EDT'
p2270
sg6
S'Monster.com took 5 days to disclose data theft'
p2271
sa(dp2272
g2
S'http://www.reuters.com/article/shortStoriesBriefing/idUSSH20070824080131HRL20070824'
p2273
sg4
S'20070824\xc2\xa009:35 AM EDT'
p2274
sg6
S'Stock Market Update - Fri Aug 24 09:35:09 EDT 2007'
p2275
sa(dp2276
g2
S'http://www.reuters.com/article/economicNews/idUSN2433330620070824'
p2277
sg4
S'20070824\xc2\xa009:34 AM EDT'
p2278
sg6
S'TABLE-Revisions to building permits-Commerce Dept'
p2279
sa(dp2280
g2
S'http://www.reuters.com/article/shortStoriesBriefing/idUSSH20070824084257BCSI20070824'
p2281
sg4
S'20070824\xc2\xa009:34 AM EDT'
p2282
sg6
S'Stock Market Update - Fri Aug 24 09:34:39 EDT 2007'
p2283
sa(dp2284
g2
S'http://www.reuters.com/article/reutersEdge/idUSN2326462120070824'
p2285
sg4
S'20070824\xc2\xa009:34 AM EDT'
p2286
sg6
S'Rains boost crop potential in central Iowa'
p2287
sa(dp2288
g2
S'http://www.reuters.com/article/shortStoriesBriefing/idUSSH20070824084411CSGP20070824'
p2289
sg4
S'20070824\xc2\xa009:34 AM EDT'
p2290
sg6
S'Stock Market Update - Fri Aug 24 09:34:21 EDT 2007'
p2291
sa(dp2292
g2
S'http://www.reuters.com/article/shortStoriesBriefing/idUSSH20070824090524ROCM20070824'
p2293
sg4
S'20070824\xc2\xa009:34 AM EDT'
p2294
sg6
S'Stock Market Update - Fri Aug 24 09:34:07 EDT 2007'
p2295
sa(dp2296
g2
S'http://www.reuters.com/article/shortStoriesBriefing/idUSSH20070824063938FL20070824'
p2297
sg4
S'20070824\xc2\xa009:33 AM EDT'
p2298
sg6
S'Stock Market Update - Fri Aug 24 09:33:50 EDT 2007'
p2299
sa(dp2300
g2
S'http://www.reuters.com/article/shortStoriesBriefing/idUSSH20070824092119CHU20070824'
p2301
sg4
S'20070824\xc2\xa009:33 AM EDT'
p2302
sg6
S'Stock Market Update - Fri Aug 24 09:33:38 EDT 2007'
p2303
sa(dp2304
g2
S'http://www.reuters.com/article/mergersNews/idUSWNAS284320070824'
p2305
sg4
S'20070824\xc2\xa009:32 AM EDT'
p2306
sg6
S'Lodgian to cut jobs, resume talks on possible sale'
p2307
sa(dp2308
g2
S'http://www.reuters.com/article/inPlayBriefing/idUSIN20070824093156AHR20070824'
p2309
sg4
S'20070824\xc2\xa009:31 AM EDT'
p2310
sg6
S'Anthracite Capital announces pricing of $60 mln Convertible Senior Notes offering'
p2311
sa(dp2312
g2
S'http://www.reuters.com/article/storyStocksBriefing/idUSST20070824093011cbirkner20070824'
p2313
sg4
S'20070824\xc2\xa009:30 AM EDT'
p2314
sg6
S'Stock Market Update - Fri Aug 24 09:30:09 EDT 2007'
p2315
sa(dp2316
g2
S'http://www.reuters.com/article/companyNewsAndPR/idUSWNA068320070824'
p2317
sg4
S'20070824\xc2\xa009:30 AM EDT'
p2318
sg6
S'Sherritt gets $2.1 bln financing for Ambatovy'
p2319
sa(dp2320
g2
S'http://www.reuters.com/article/globalMarketsNews/idUSN2433181020070824'
p2321
sg4
S'20070824\xc2\xa009:28 AM EDT'
p2322
sg6
S'Burger King shares up on earnings'
p2323
sa(dp2324
g2
S'http://www.reuters.com/article/companyNewsAndPR/idUSN2433046520070824'
p2325
sg4
S'20070824\xc2\xa009:27 AM EDT'
p2326
sg6
S'MMNEWS-Cost to insure Countrywide debt rises'
p2327
sa(dp2328
g2
S'http://www.reuters.com/article/companyNewsAndPR/idUSL2479846020070824'
p2329
sg4
S'20070824\xc2\xa009:26 AM EDT'
p2330
sg6
S'CORRECTED - UPDATE 1-Paris, Rotterdam courts to rule Monday on Mittal EGM'
p2331
sa(dp2332
g2
S'http://www.reuters.com/article/fundsFundsNews/idUSBNG17755320070824'
p2333
sg4
S'20070824\xc2\xa009:25 AM EDT'
p2334
sg6
S'MOVES-Barclays Capital, Riverstone Holdings'
p2335
sa(dp2336
g2
S'http://www.reuters.com/article/storyStocksBriefing/idUSST20070824092512pohare20070824'
p2337
sg4
S'20070824\xc2\xa009:25 AM EDT'
p2338
sg6
S'Stock Market Update - Fri Aug 24 09:25:03 EDT 2007'
p2339
sa(dp2340
g2
S'http://www.reuters.com/article/companyNewsAndPR/idUSN2433794520070824'
p2341
sg4
S'20070824\xc2\xa009:23 AM EDT'
p2342
sg6
S'NY COMEX aluminum delivery notices'
p2343
sa(dp2344
g2
S'http://www.reuters.com/article/mergersNews/idUSWNAS284120070824'
p2345
sg4
S'20070824\xc2\xa009:22 AM EDT'
p2346
sg6
S'Topps urges shareholders to vote for Tornante-Madison deal'
p2347
sa(dp2348
g2
S'http://www.reuters.com/article/worldNews/idUSIST00109620070824'
p2349
sg4
S'20070824\xc2\xa009:22 AM EDT'
p2350
sg6
S"Turkey's Gul fails to win presidency in second vote"
p2351
sa(dp2352
g2
S'http://www.reuters.com/article/pressReleasesMolt/idUSWNAS284520070824'
p2353
sg4
S'20070824\xc2\xa009:19 AM EDT'
p2354
sg6
S'Krispy Kreme realigns operations'
p2355
sa(dp2356
g2
S'http://www.reuters.com/article/economicNews/idUSN2427250120070824'
p2357
sg4
S'20070824\xc2\xa009:19 AM EDT'
p2358
sg6
S'UPDATE 2-U.S. July durable goods orders rise sharply'
p2359
sa(dp2360
g2
S'http://www.reuters.com/article/companyNewsAndPR/idUSWNAS284420070824'
p2361
sg4
S'20070824\xc2\xa009:17 AM EDT'
p2362
sg6
S'Farmer Brothers promotes operating chief as CEO'
p2363
sa(dp2364
g2
S'http://www.reuters.com/article/entertainmentNews/idUSN2327275820070824'
p2365
sg4
S'20070824\xc2\xa009:16 AM EDT'
p2366
sg6
S'Lohan ordered to serve one day in jail'
p2367
sa(dp2368
g2
S'http://www.reuters.com/article/inPlayBriefing/idUSIN20070824091552TECHX20070824'
p2369
sg4
S'20070824\xc2\xa009:15 AM EDT'
p2370
sg6
S'Market View: Support and Resistance'
p2371
sa(dp2372
g2
S'http://www.reuters.com/article/stockTickerBriefing/idUSSI200708240915280120070824'
p2373
sg4
S'20070824\xc2\xa009:15 AM EDT'
p2374
sg6
S'Stock Market Update - Fri Aug 24 09:15:26 EDT 2007'
p2375
sa(dp2376
g2
S'http://www.reuters.com/article/usMktRpt/idUSN2432909220070824'
p2377
sg4
S'20070824\xc2\xa009:12 AM EDT'
p2378
sg6
S'RPT-US STOCKS-Wall St seen opening flat after durable goods data'
p2379
sa(dp2380
g2
S'http://www.reuters.com/article/companyNewsAndPR/idUSWNAS284620070824'
p2381
sg4
S'20070824\xc2\xa009:09 AM EDT'
p2382
sg6
S"Georgia Gulf to shut Royal Group's Winnipeg plant"
p2383
sa(dp2384
g2
S'http://www.reuters.com/article/newIssuesNews/idUSWNAS283920070824'
p2385
sg4
S'20070824\xc2\xa009:07 AM EDT'
p2386
sg6
S'Vermillion to privately place about 24.4 mln shrs'
p2387
sa(dp2388
g2
S'http://www.reuters.com/article/tnBasicIndustries-SP/idUSN2331373820070824'
p2389
sg4
S'20070824\xc2\xa009:06 AM EDT'
p2390
sg6
S'GD gets potential $2.5 bln U.S. ship deal'
p2391
sa(dp2392
g2
S'http://www.reuters.com/article/globalMarketsNews/idUSN2432595520070824'
p2393
sg4
S'20070824\xc2\xa009:06 AM EDT'
p2394
sg6
S'AnnTaylor stock up after earnings'
p2395
sa(dp2396
g2
S'http://www.reuters.com/article/companyNewsAndPR/idUSN2431779420070824'
p2397
sg4
S'20070824\xc2\xa009:05 AM EDT'
p2398
sg6
S'RPT-FOREX-Dollar falls vs yen on return of risk aversion'
p2399
sa(dp2400
g2
S'http://www.reuters.com/article/domesticNews/idUSN2326352920070824'
p2401
sg4
S'20070824\xc2\xa009:04 AM EDT'
p2402
sg6
S'Monster.com waited 5 days to disclose data theft'
p2403
sa(dp2404
g2
S'http://www.reuters.com/article/companyNewsAndPR/idUSWNAS283620070824'
p2405
sg4
S'20070824\xc2\xa009:03 AM EDT'
p2406
sg6
S'MeadWestvaco to sell forestlands to Penn Virginia for $93.1 mln'
p2407
sa(dp2408
g2
S'http://www.reuters.com/article/entertainmentNews/idUSN2430205120070824'
p2409
sg4
S'20070824\xc2\xa009:01 AM EDT'
p2410
sg6
S'New cop drama premieres on the Web'
p2411
sa(dp2412
g2
S'http://www.reuters.com/article/inPlayBriefing/idUSIN20070824090104DNA20070824'
p2413
sg4
S'20070824\xc2\xa009:01 AM EDT'
p2414
sg6
S'Genentech announces resubmission of supplemental biologics license application for Avastin in combination with paclitaxel'
p2415
sa(dp2416
g2
S'http://www.reuters.com/article/companyNewsAndPR/idUSWNAS284020070824'
p2417
sg4
S'20070824\xc2\xa009:00 AM EDT'
p2418
sg6
S"Hill Int'l gets $55.9 mln contract in Libya"
p2419
sa(dp2420
g2
S'http://www.reuters.com/article/billboardCharts/idUSN2427546520070824'
p2421
sg4
S'20070824\xc2\xa009:00 AM EDT'
p2422
sg6
S'Hot Latin Tracks for the 9/1/2007 issue'
p2423
sa(dp2424
g2
S'http://www.reuters.com/article/inPlayBriefing/idUSIN20070824090046FARM20070824'
p2425
sg4
S'20070824\xc2\xa009:00 AM EDT'
p2426
sg6
S"Farmer Brothers to name Roger ''Rocky'' Laverty Chief Executive Officer"
p2427
sa(dp2428
g2
S'http://www.reuters.com/article/billboardCharts/idUSN2427545020070824'
p2429
sg4
S'20070824\xc2\xa009:00 AM EDT'
p2430
sg6
S'Hot Adult Contemporary Tracks for the 9/1/2007 issue'
p2431
sa(dp2432
g2
S'http://www.reuters.com/article/billboardCharts/idUSN2427543220070824'
p2433
sg4
S'20070824\xc2\xa009:00 AM EDT'
p2434
sg6
S'Hot Dance Music/Club Play for the 9/1/2007 issue'
p2435
sa(dp2436
g2
S'http://www.reuters.com/article/billboardCharts/idUSN2427540520070824'
p2437
sg4
S'20070824\xc2\xa009:00 AM EDT'
p2438
sg6
S'Hot Rap Tracks for the 9/1/2007 issue'
p2439
sa(dp2440
g2
S'http://www.reuters.com/article/billboardCharts/idUSN2427537220070824'
p2441
sg4
S'20070824\xc2\xa009:00 AM EDT'
p2442
sg6
S'The Billboard Hot 100 for the 9/1/2007 issue'
p2443
sa(dp2444
g2
S'http://www.reuters.com/article/billboardCharts/idUSN2427544420070824'
p2445
sg4
S'20070824\xc2\xa009:00 AM EDT'
p2446
sg6
S'Hot R&B;/Hip-Hop Singles & Tracks for the 9/1/2007 issue'
p2447
sa(dp2448
g2
S'http://www.reuters.com/article/boxOfficeCharts/idUSN2427552920070824'
p2449
sg4
S'20070824\xc2\xa009:00 AM EDT'
p2450
sg6
S'Top VHS Sales for the 9/1/2007 issue'
p2451
sa(dp2452
g2
S'http://www.reuters.com/article/billboardCharts/idUSN2427538220070824'
p2453
sg4
S'20070824\xc2\xa009:00 AM EDT'
p2454
sg6
S'Hot Modern Rock Tracks for the 9/1/2007 issue'
p2455
sa(dp2456
g2
S'http://www.reuters.com/article/billboardCharts/idUSN2427535220070824'
p2457
sg4
S'20070824\xc2\xa009:00 AM EDT'
p2458
sg6
S'Top Jazz Albums for the 9/1/2007 issue'
p2459
sa(dp2460
g2
S'http://www.reuters.com/article/billboardCharts/idUSN2427530020070824'
p2461
sg4
S'20070824\xc2\xa009:00 AM EDT'
p2462
sg6
S'Top Internet Albums for the 9/1/2007 issue'
p2463
sa(dp2464
g2
S'http://www.reuters.com/article/billboardCharts/idUSN2427523120070824'
p2465
sg4
S'20070824\xc2\xa009:00 AM EDT'
p2466
sg6
S'Top Electronic Albums for the 9/1/2007 issue'
p2467
sa(dp2468
g2
S'http://www.reuters.com/article/boxOfficeCharts/idUSN2427550620070824'
p2469
sg4
S'20070824\xc2\xa009:00 AM EDT'
p2470
sg6
S'Top DVD Sales for the 9/1/2007 issue'
p2471
sa(dp2472
g2
S'http://www.reuters.com/article/billboardCharts/idUSN2427532220070824'
p2473
sg4
S'20070824\xc2\xa009:00 AM EDT'
p2474
sg6
S'Top Soundtracks for the 9/1/2007 issue'
p2475
sa(dp2476
g2
S'http://www.reuters.com/article/billboardCharts/idUSN2427521620070824'
p2477
sg4
S'20070824\xc2\xa009:00 AM EDT'
p2478
sg6
S'Top Pop Catalog Albums for the 9/1/2007 issue'
p2479
sa(dp2480
g2
S'http://www.reuters.com/article/boxOfficeCharts/idUSN2427548520070824'
p2481
sg4
S'20070824\xc2\xa009:00 AM EDT'
p2482
sg6
S'Top Kid Video for the 9/1/2007 issue'
p2483
sa(dp2484
g2
S'http://www.reuters.com/article/billboardCharts/idUSN2427520420070824'
p2485
sg4
S'20070824\xc2\xa009:00 AM EDT'
p2486
sg6
S'Top Country Albums for the 9/1/2007 issue'
p2487
sa(dp2488
g2
S'http://www.reuters.com/article/billboardCharts/idUSN2427541620070824'
p2489
sg4
S'20070824\xc2\xa009:00 AM EDT'
p2490
sg6
S'Hot Country Singles & Tracks for the 9/1/2007 issue'
p2491
sa(dp2492
g2
S'http://www.reuters.com/article/billboardCharts/idUSN2427531020070824'
p2493
sg4
S'20070824\xc2\xa009:00 AM EDT'
p2494
sg6
S'Top Latin Albums for the 9/1/2007 issue'
p2495
sa(dp2496
g2
S'http://www.reuters.com/article/billboardCharts/idUSN2427518320070824'
p2497
sg4
S'20070824\xc2\xa009:00 AM EDT'
p2498
sg6
S'Top R&B;/Hip-Hop Albums for the 9/1/2007 issue'
p2499
sa(dp2500
g2
S'http://www.reuters.com/article/billboardCharts/idUSN2427533220070824'
p2501
sg4
S'20070824\xc2\xa009:00 AM EDT'
p2502
sg6
S'Top Classical Albums for the 9/1/2007 issue'
p2503
sa(dp2504
g2
S'http://www.reuters.com/article/billboardCharts/idUSN2427524120070824'
p2505
sg4
S'20070824\xc2\xa009:00 AM EDT'
p2506
sg6
S'Top Heatseekers for the 9/1/2007 issue'
p2507
sa(dp2508
g2
S'http://www.reuters.com/article/billboardCharts/idUSN2437900720070824'
p2509
sg4
S'20070824\xc2\xa009:00 AM EDT'
p2510
sg6
S'The Billboard 200 for the 9/1/2007 issue'
p2511
sa(dp2512
g2
S'http://www.reuters.com/article/billboardCharts/idUSN2427528120070824'
p2513
sg4
S'20070824\xc2\xa009:00 AM EDT'
p2514
sg6
S'Top Independent Albums for the 9/1/2007 issue'
p2515
sa(dp2516
g2
S'http://www.reuters.com/article/bondsNews/idUSN2432827520070824'
p2517
sg4
S'20070824\xc2\xa008:59 AM EDT'
p2518
sg6
S'US junk bond funds report $379.7 mln net outflow'
p2519
sa(dp2520
g2
S'http://www.reuters.com/article/inPlayBriefing/idUSIN200708240859300120070824'
p2521
sg4
S'20070824\xc2\xa008:59 AM EDT'
p2522
sg6
S'S&P; futures vs fair value: +0.3. Nasdaq futures vs fair value: -4.0.'
p2523
sa(dp2524
g2
S'http://www.reuters.com/article/stockTickerBriefing/idUSSI200708240859300120070824'
p2525
sg4
S'20070824\xc2\xa008:59 AM EDT'
p2526
sg6
S'Stock Market Update - Fri Aug 24 08:59:28 EDT 2007'
p2527
sa(dp2528
g2
S'http://www.reuters.com/article/inPlayBriefing/idUSIN20070824085852LGN20070824'
p2529
sg4
S'20070824\xc2\xa008:58 AM EDT'
p2530
sg6
S'Lodgian provides interim information on its pursuit of strategic alternatives; implementing share repurchases and a cost reduction initiative'
p2531
sa(dp2532
g2
S'http://www.reuters.com/article/companyNewsAndPR/idUSN2432256120070824'
p2533
sg4
S'20070824\xc2\xa008:57 AM EDT'
p2534
sg6
S'REUTER MONEYGRAPH-IMF SDR RATES-AUG 24 US 1.52941'
p2535
sa(dp2536
g2
S'http://www.reuters.com/article/worldNews/idUSPEK26520820070824'
p2537
sg4
S'20070824\xc2\xa008:56 AM EDT'
p2538
sg6
S"China stops activist's wife leaving country"
p2539
sa(dp2540
g2
S'http://www.reuters.com/article/companyNewsAndPR/idUSN2432292420070824'
p2541
sg4
S'20070824\xc2\xa008:53 AM EDT'
p2542
sg6
S'Toronto stocks seen easing, eyeing US data'
p2543
sa(dp2544
g2
S'http://www.reuters.com/article/reutersEdge/idUSN2431026020070824'
p2545
sg4
S'20070824\xc2\xa008:52 AM EDT'
p2546
sg6
S'INSTANT VIEW 3: July durable goods rise sharply'
p2547
sa(dp2548
g2
S'http://www.reuters.com/article/worldNews/idUSSP23909120070824'
p2549
sg4
S'20070824\xc2\xa008:49 AM EDT'
p2550
sg6
S'Embattled Japan PM woos back conservatives'
p2551
sa(dp2552
g2
S'http://www.reuters.com/article/worldNews/idUST26857120070824'
p2553
sg4
S'20070824\xc2\xa008:49 AM EDT'
p2554
sg6
S'Japan PM rapped by party for huge election loss'
p2555
sa(dp2556
g2
S'http://www.reuters.com/article/gc06/idUSL2492113220070824'
p2557
sg4
S'20070824\xc2\xa008:45 AM EDT'
p2558
sg6
S'Hungary banks have no direct subprime exposure'
p2559
sa(dp2560
g2
S'http://www.reuters.com/article/companyNewsAndPR/idUSL13236320070824'
p2561
sg4
S'20070824\xc2\xa008:45 AM EDT'
p2562
sg6
S'Europe shrs pare losses after US durables data'
p2563
sa(dp2564
g2
S'http://www.reuters.com/article/worldNews/idUSL2376915720070824'
p2565
sg4
S'20070824\xc2\xa008:43 AM EDT'
p2566
sg6
S"Sporadic bush war wearies CAR's forgotten rebels"
p2567
sa(dp2568
g2
S'http://www.reuters.com/article/companyNewsAndPR/idUSWNAS283720070824'
p2569
sg4
S'20070824\xc2\xa008:43 AM EDT'
p2570
sg6
S'Quanta Capital buys back floating-rate capital securities'
p2571
sa(dp2572
g2
S'http://www.reuters.com/article/worldNews/idUSL2459149420070824'
p2573
sg4
S'20070824\xc2\xa008:43 AM EDT'
p2574
sg6
S'FACTBOX: Chad-CAR-Sudan triangle is crucible of violence'
p2575
sa(dp2576
g2
S'http://www.reuters.com/article/latestCrisis/idUSL24272796'
p2577
sg4
S'20070824\xc2\xa008:43 AM EDT'
p2578
sg6
S'Families of militants flee Lebanon camp- army'
p2579
sa(dp2580
g2
S'http://www.reuters.com/article/companyNewsAndPR/idUSWNA067020070824'
p2581
sg4
S'20070824\xc2\xa008:43 AM EDT'
p2582
sg6
S'CML HealthCare interested in deal with Medisys'
p2583
sa(dp2584
g2
S'http://www.reuters.com/article/businessNews/idUSN2432645620070824'
p2585
sg4
S'20070824\xc2\xa008:42 AM EDT'
p2586
sg6
S'Emerson orders up in last 3 months'
p2587
sa(dp2588
g2
S'http://www.reuters.com/article/latestCrisis/idUSL24591494'
p2589
sg4
S'20070824\xc2\xa008:42 AM EDT'
p2590
sg6
S'FACTBOX-Chad-CAR-Sudan triangle is crucible of violence'
p2591
sa(dp2592
g2
S'http://www.reuters.com/article/bondsNews/idUSNYE00016420070824'
p2593
sg4
S'20070824\xc2\xa008:39 AM EDT'
p2594
sg6
S'TREASURIES-Bonds trim gains on stonger durables report'
p2595
sa(dp2596
g2
S'http://www.reuters.com/article/latestCrisis/idUSL24789261'
p2597
sg4
S'20070824\xc2\xa008:38 AM EDT'
p2598
sg6
S'Gunmen kill another journalist in Somalia'
p2599
sa(dp2600
g2
S'http://www.reuters.com/article/storyStocksBriefing/idUSST20070824083822cbirkner20070824'
p2601
sg4
S'20070824\xc2\xa008:38 AM EDT'
p2602
sg6
S'Stock Market Update - Fri Aug 24 08:38:21 EDT 2007'
p2603
sa(dp2604
g2
S'http://www.reuters.com/article/inPlayBriefing/idUSIN200708240838130120070824'
p2605
sg4
S'20070824\xc2\xa008:38 AM EDT'
p2606
sg6
S'S&P; futures vs fair value: +1.1. Nasdaq futures vs fair value: -1.2.'
p2607
sa(dp2608
g2
S'http://www.reuters.com/article/stockTickerBriefing/idUSSI200708240838130120070824'
p2609
sg4
S'20070824\xc2\xa008:38 AM EDT'
p2610
sg6
S'Stock Market Update - Fri Aug 24 08:38:10 EDT 2007'
p2611
sa(dp2612
g2
S'http://www.reuters.com/article/companyNewsAndPR/idUSN2432625320070824'
p2613
sg4
S'20070824\xc2\xa008:38 AM EDT'
p2614
sg6
S'US STOCKS-S&P;, Dow futures gain after durable goods data'
p2615
sa(dp2616
g2
S'http://www.reuters.com/article/companyNewsAndPR/idUSWNAS283520070824'
p2617
sg4
S'20070824\xc2\xa008:37 AM EDT'
p2618
sg6
S'Trex CFO resigns'
p2619
sa(dp2620
g2
S'http://www.reuters.com/article/companyNewsAndPR/idUSNYH00053020070824'
p2621
sg4
S'20070824\xc2\xa008:36 AM EDT'
p2622
sg6
S'FOREX-Dollar trims losses vs euro, yen after US durables'
p2623
sa(dp2624
g2
S'http://www.reuters.com/article/worldNews/idUSPEK27626820070824'
p2625
sg4
S'20070824\xc2\xa008:34 AM EDT'
p2626
sg6
S"Fresh mine flood adds to China's missing miners"
p2627
sa(dp2628
g2
S'http://www.reuters.com/article/technology-media-telco-SP/idUSWEB683120070824'
p2629
sg4
S'20070824\xc2\xa008:34 AM EDT'
p2630
sg6
S'Premiere says plans capital increase; shares fall'
p2631
sa(dp2632
g2
S'http://www.reuters.com/article/bondsNews/idUSN2432593620070824'
p2633
sg4
S'20070824\xc2\xa008:34 AM EDT'
p2634
sg6
S'US corporate credit default swaps open wider-Barclays'
p2635
sa(dp2636
g2
S'http://www.reuters.com/article/companyNewsAndPR/idUSBRE00110720070824'
p2637
sg4
S'20070824\xc2\xa008:32 AM EDT'
p2638
sg6
S'Judge delays ruling on Mittal meeting-shareholders'
p2639
sa(dp2640
g2
S'http://www.reuters.com/article/businessNews/idUSWEN067920070824'
p2641
sg4
S'20070824\xc2\xa008:31 AM EDT'
p2642
sg6
S'Tribune says July ad revenue fell'
p2643
sa(dp2644
g2
S'http://www.reuters.com/article/inPlayBriefing/idUSIN20070824083103MWV20070824'
p2645
sg4
S'20070824\xc2\xa008:31 AM EDT'
p2646
sg6
S'MeadWestvaco announces agreement to sell Elkins, West Virginia, forestlands to Penn Virginia Resource Partners'
p2647
sa(dp2648
g2
S'http://www.reuters.com/article/inPlayBriefing/idUSIN20070824083016TWP20070824'
p2649
sg4
S'20070824\xc2\xa008:30 AM EDT'
p2650
sg6
S'Trex announces resignation of CFO'
p2651
sa(dp2652
g2
S'http://www.reuters.com/article/globalMarketsNews/idUSL2388679020070824'
p2653
sg4
S'20070824\xc2\xa008:27 AM EDT'
p2654
sg6
S'Gold steadies, vulnerable as credit worries presist'
p2655
sa(dp2656
g2
S'http://www.reuters.com/article/latestCrisis/idUSPEK280583'
p2657
sg4
S'20070824\xc2\xa008:27 AM EDT'
p2658
sg6
S"Fresh mine flood adds to China's missing miners"
p2659
sa(dp2660
g2
S'http://www.reuters.com/article/companyNewsAndPR/idUSWNAS283120070824'
p2661
sg4
S'20070824\xc2\xa008:25 AM EDT'
p2662
sg6
S'AsiaInfo raises Q3 earnings outlook'
p2663
sa(dp2664
g2
S'http://www.reuters.com/article/globalMarketsNews/idUSL245988520070824'
p2665
sg4
S'20070824\xc2\xa008:22 AM EDT'
p2666
sg6
S'Credit worries weigh on industrial metals'
p2667
sa(dp2668
g2
S'http://www.reuters.com/article/inPlayBriefing/idUSIN20070824082201BONDX20070824'
p2669
sg4
S'20070824\xc2\xa008:22 AM EDT'
p2670
sg6
S'Bond Watch: Chugging Higher '
p2671
sa(dp2672
g2
S'http://www.reuters.com/article/latestCrisis/idUSCOL94125'
p2673
sg4
S'20070824\xc2\xa008:20 AM EDT'
p2674
sg6
S"Sri Lanka's Jaffna a top danger spot for media-report"
p2675
sa(dp2676
g2
S'http://www.reuters.com/article/companyNewsAndPR/idUSWNAS283220070824'
p2677
sg4
S'20070824\xc2\xa008:18 AM EDT'
p2678
sg6
S'Pixelplus gets positive decision from Korean Patent Court'
p2679
sa(dp2680
g2
S'http://www.reuters.com/article/storyStocksBriefing/idUSST20070824081602cbirkner20070824'
p2681
sg4
S'20070824\xc2\xa008:16 AM EDT'
p2682
sg6
S'Stock Market Update - Fri Aug 24 08:16:00 EDT 2007'
p2683
sa(dp2684
g2
S'http://www.reuters.com/article/inPlayBriefing/idUSIN20070824081458BONDX20070824'
p2685
sg4
S'20070824\xc2\xa008:14 AM EDT'
p2686
sg6
S'Economic Calendar'
p2687
sa(dp2688
g2
S'http://www.reuters.com/article/latestCrisis/idUSHAN236817'
p2689
sg4
S'20070824\xc2\xa008:13 AM EDT'
p2690
sg6
S'Bird flu hits poultry in two Vietnam provinces'
p2691
sa(dp2692
g2
S'http://www.reuters.com/article/oddlyEnoughNews/idUSL248039520070824'
p2693
sg4
S'20070824\xc2\xa008:13 AM EDT'
p2694
sg6
S'Man leaves dead mother in armchair for two years'
p2695
sa(dp2696
g2
S'http://www.reuters.com/article/oddlyEnoughNews/idUST25395220070824'
p2697
sg4
S'20070824\xc2\xa008:12 AM EDT'
p2698
sg6
S'China nips and tucks transsexual TV'
p2699
sa(dp2700
g2
S'http://www.reuters.com/article/mergersNews/idUSL2424557920070824'
p2701
sg4
S'20070824\xc2\xa008:11 AM EDT'
p2702
sg6
S'UPDATE 1-Browne returns to energy sector via private equity'
p2703
sa(dp2704
g2
S'http://www.reuters.com/article/businessNews/idUSWNAS282820070824'
p2705
sg4
S'20070824\xc2\xa008:07 AM EDT'
p2706
sg6
S'Heinz quarterly profit rises'
p2707
sa(dp2708
g2
S'http://www.reuters.com/article/governmentFilingsNews/idUSL2419267420070824'
p2709
sg4
S'20070824\xc2\xa008:07 AM EDT'
p2710
sg6
S'UK\'s FSA to plug legal "gap" on EU share rules'
p2711
sa(dp2712
g2
S'http://www.reuters.com/article/tnBasicIndustries-SP/idUSWBT00746220070824'
p2713
sg4
S'20070824\xc2\xa008:05 AM EDT'
p2714
sg6
S'Raytheon/CSC venture win $816 million US space deal'
p2715
sa(dp2716
g2
S'http://www.reuters.com/article/domesticNews/idUSL2481346520070824'
p2717
sg4
S'20070824\xc2\xa008:04 AM EDT'
p2718
sg6
S'Hasselhoff wins libel damages'
p2719
sa(dp2720
g2
S'http://www.reuters.com/article/latestCrisis/idUSL24784039'
p2721
sg4
S'20070824\xc2\xa008:04 AM EDT'
p2722
sg6
S'FACTBOX-Military deaths in Afghanistan'
p2723
sa(dp2724
g2
S'http://www.reuters.com/article/latestCrisis/idUSDEL225071'
p2725
sg4
S'20070824\xc2\xa008:03 AM EDT'
p2726
sg6
S'Bollywood actor Khan to be jailed for poaching'
p2727
sa(dp2728
g2
S'http://www.reuters.com/article/inPlayBriefing/idUSIN20070824080318ASIA20070824'
p2729
sg4
S'20070824\xc2\xa008:03 AM EDT'
p2730
sg6
S'AsiaInfo raises Q3 EPS guidance above single estimate; reaffirms net revenue guidance'
p2731
sa(dp2732
g2
S'http://www.reuters.com/article/consumerproducts-SP/idUSWNAS283020070824'
p2733
sg4
S'20070824\xc2\xa008:02 AM EDT'
p2734
sg6
S'AnnTaylor 2nd-qtr profit falls on weak traffic'
p2735
sa(dp2736
g2
S'http://www.reuters.com/article/latestCrisis/idUSL23769157'
p2737
sg4
S'20070824\xc2\xa008:02 AM EDT'
p2738
sg6
S"FEATURE-Sporadic bush war wearies CAR's forgotten rebels"
p2739
sa(dp2740
g2
S'http://www.reuters.com/article/inPlayBriefing/idUSIN20070824080132PXPL20070824'
p2741
sg4
S'20070824\xc2\xa008:01 AM EDT'
p2742
sg6
S'Pixelplus obtains a positive decision from the Korean Patent Court on the cancellation and invalidation of item 12 of the disputed sensor patent'
p2743
sa(dp2744
g2
S'http://www.reuters.com/article/inPlayBriefing/idUSIN20070824080045TRB20070824'
p2745
sg4
S'20070824\xc2\xa008:00 AM EDT'
p2746
sg6
S'Tribune revenues down 5.9% in July'
p2747
sa(dp2748
g2
S'http://www.reuters.com/article/inPlayBriefing/idUSIN200708240800400120070824'
p2749
sg4
S'20070824\xc2\xa008:00 AM EDT'
p2750
sg6
S'S&P; futures vs fair value: -2.0. Nasdaq futures vs fair value: -6.0.'
p2751
sa(dp2752
g2
S'http://www.reuters.com/article/stockTickerBriefing/idUSSI200708240800400120070824'
p2753
sg4
S'20070824\xc2\xa008:00 AM EDT'
p2754
sg6
S'Stock Market Update - Fri Aug 24 08:00:39 EDT 2007'
p2755
sa(dp2756
g2
S'http://www.reuters.com/article/latestCrisis/idUSGRA439910'
p2757
sg4
S'20070824\xc2\xa007:57 AM EDT'
p2758
sg6
S'Iraq Kurds accuse Iran of cross-border shelling'
p2759
sa(dp2760
g2
S'http://www.reuters.com/article/companyNewsAndPR/idUSN2442402420070824'
p2761
sg4
S'20070824\xc2\xa007:57 AM EDT'
p2762
sg6
S'UPDATE 1-Exelon Ill. Braidwood 2 reactor shut'
p2763
sa(dp2764
g2
S'http://www.reuters.com/article/companyNewsAndPR/idUST21353820070824'
p2765
sg4
S'20070824\xc2\xa007:57 AM EDT'
p2766
sg6
S'UPDATE 2-Japan MOF Shinohara: volatile FX mkt not desirable'
p2767
sa(dp2768
g2
S'http://www.reuters.com/article/companyNewsAndPR/idUSBRE00110620070824'
p2769
sg4
S'20070824\xc2\xa007:52 AM EDT'
p2770
sg6
S'Arcelor shareholders seek to block Mittal EGM'
p2771
sa(dp2772
g2
S'http://www.reuters.com/article/companyNewsAndPR/idUSL2476225920070824'
p2773
sg4
S'20070824\xc2\xa007:52 AM EDT'
p2774
sg6
S'FOREX-Yen up, dollar down as risk back in focus'
p2775
sa(dp2776
g2
S'http://www.reuters.com/article/companyNewsAndPR/idUSL2425051620070824'
p2777
sg4
S'20070824\xc2\xa007:50 AM EDT'
p2778
sg6
S'ENEL '
p2779
sa(dp2780
g2
S'http://www.reuters.com/article/inPlayBriefing/idUSIN20070824075019ANN20070824'
p2781
sg4
S'20070824\xc2\xa007:50 AM EDT'
p2782
sg6
S'AnnTaylor beats by $0.02; reaffirms Y08 guidance; authorizes new $300 mln share repurchase program'
p2783
sa(dp2784
g2
S'http://www.reuters.com/article/companyNewsAndPR/idUSN2432052820070824'
p2785
sg4
S'20070824\xc2\xa007:48 AM EDT'
p2786
sg6
S'PRESS DIGEST - Canada - Aug 24'
p2787
sa(dp2788
g2
S'http://www.reuters.com/article/latestCrisis/idUSL24787596'
p2789
sg4
S'20070824\xc2\xa007:47 AM EDT'
p2790
sg6
S'Fatah protest in Gaza against Hamas turns violent'
p2791
sa(dp2792
g2
S'http://www.reuters.com/article/domesticNews/idUSN2327118820070824'
p2793
sg4
S'20070824\xc2\xa007:47 AM EDT'
p2794
sg6
S'Jamba Juice Calif. customers warned on hepatitis A'
p2795
sa(dp2796
g2
S'http://www.reuters.com/article/companyNewsAndPR/idUSN2425135720070824'
p2797
sg4
S'20070824\xc2\xa007:47 AM EDT'
p2798
sg6
S'Entergy Miss. Grand Gulf reactor ramps up to 40 pct'
p2799
sa(dp2800
g2
S'http://www.reuters.com/article/companyNewsAndPR/idUSL2472792920070824'
p2801
sg4
S'20070824\xc2\xa007:46 AM EDT'
p2802
sg6
S'UPDATE 2-French hedge fund CFM has $407 mln at risk'
p2803
sa(dp2804
g2
S'http://www.reuters.com/article/usMktRpt/idUSN2442104620070824'
p2805
sg4
S'20070824\xc2\xa007:45 AM EDT'
p2806
sg6
S'US STOCKS-Futures flat on caution ahead of housing data'
p2807
sa(dp2808
g2
S'http://www.reuters.com/article/companyNewsAndPR/idUSN2425137920070824'
p2809
sg4
S'20070824\xc2\xa007:44 AM EDT'
p2810
sg6
S'Exelon Ill. Braidwood 2 reactor shut'
p2811
sa(dp2812
g2
S'http://www.reuters.com/article/oddlyEnoughNews/idUSN2222824420070824'
p2813
sg4
S'20070824\xc2\xa007:43 AM EDT'
p2814
sg6
S'Murdered man taken to morgue in taxi'
p2815
sa(dp2816
g2
S'http://www.reuters.com/article/companyNewsAndPR/idUSWNAS282720070824'
p2817
sg4
S'20070824\xc2\xa007:42 AM EDT'
p2818
sg6
S'Teton Energy CFO resigns'
p2819
sa(dp2820
g2
S'http://www.reuters.com/article/homepageCrisis/idUSPEK281741._CH_.2400'
p2821
sg4
S'20070824\xc2\xa007:41 AM EDT'
p2822
sg6
S'Floods wreak havoc in China province, 7 dead'
p2823
sa(dp2824
g2
S'http://www.reuters.com/article/latestCrisis/idUSPEK281741'
p2825
sg4
S'20070824\xc2\xa007:41 AM EDT'
p2826
sg6
S'Floods wreak havoc in China province, 7 dead'
p2827
sa(dp2828
g2
S'http://www.reuters.com/article/inPlayBriefing/idUSIN20070824074034BKHM20070824'
p2829
sg4
S'20070824\xc2\xa007:40 AM EDT'
p2830
sg6
S'Bookham Tech files $200 mln universal shelf registration statement'
p2831
sa(dp2832
g2
S'http://www.reuters.com/article/bankingfinancial-SP/idUSWNA066720070824'
p2833
sg4
S'20070824\xc2\xa007:40 AM EDT'
p2834
sg6
S'Royal Bank of Canada posts 19 pct jump in profit'
p2835
sa(dp2836
g2
S'http://www.reuters.com/article/inPlayBriefing/idUSIN20070824073923ING20070824'
p2837
sg4
S'20070824\xc2\xa007:39 AM EDT'
p2838
sg6
S'ING Group: Northern Rock on the rebound attracts a Dutch admirer - Daily Telegraph'
p2839
sa(dp2840
g2
S'http://www.reuters.com/article/innovationNews/idUSWLB095120070824'
p2841
sg4
S'20070824\xc2\xa007:39 AM EDT'
p2842
sg6
S'Photo-Me chairman eyes good price in sell-off'
p2843
sa(dp2844
g2
S'http://www.reuters.com/article/globalMarketsNews/idUSL2491214320070824'
p2845
sg4
S'20070824\xc2\xa007:37 AM EDT'
p2846
sg6
S'Oil prices to average near $65 this year and next'
p2847
sa(dp2848
g2
S'http://www.reuters.com/article/latestCrisis/idUSMAN232338'
p2849
sg4
S'20070824\xc2\xa007:36 AM EDT'
p2850
sg6
S'Manila prosecutors clear host over TV show stampede'
p2851
sa(dp2852
g2
S'http://www.reuters.com/article/inPlayBriefing/idUSIN20070824073242HNZ20070824'
p2853
sg4
S'20070824\xc2\xa007:32 AM EDT'
p2854
sg6
S'HJ Heinz beats by $0.02; guides FY08 EPS to upper end of range'
p2855
sa(dp2856
g2
S'http://www.reuters.com/article/lifestyleMolt/idUSL2334923320070824'
p2857
sg4
S'20070824\xc2\xa007:32 AM EDT'
p2858
sg6
S'Venice tourists must stay respectable or face fines'
p2859
sa(dp2860
g2
S'http://www.reuters.com/article/sportsNews/idUSPEK28191220070824'
p2861
sg4
S'20070824\xc2\xa007:31 AM EDT'
p2862
sg6
S'China issues 1.6 million Games tickets'
p2863
sa(dp2864
g2
S'http://www.reuters.com/article/inPlayBriefing/idUSIN20070824073110TEC20070824'
p2865
sg4
S'20070824\xc2\xa007:31 AM EDT'
p2866
sg6
S'Teton Energy announces that CFO has resigned effective Aug 31'
p2867
sa(dp2868
g2
S'http://www.reuters.com/article/worldNews/idUSL2457814020070824'
p2869
sg4
S'20070824\xc2\xa007:24 AM EDT'
p2870
sg6
S'Pensions, jobs at stake as Greeks head to polls'
p2871
sa(dp2872
g2
S'http://www.reuters.com/article/newsOne/idUSPEK27505720070824'
p2873
sg4
S'20070824\xc2\xa007:24 AM EDT'
p2874
sg6
S'Shaken by product safety woes, China declares "war"'
p2875
sa(dp2876
g2
S'http://www.reuters.com/article/marketsNews/idUSWNAS282020070824'
p2877
sg4
S'20070824\xc2\xa007:22 AM EDT'
p2878
sg6
S'TABLE-China Sunergy '
p2879
sa(dp2880
g2
S'http://www.reuters.com/article/marketsNews/idUSBNG23444420070824'
p2881
sg4
S'20070824\xc2\xa007:20 AM EDT'
p2882
sg6
S'UPDATE 1-TABLE-Harris Interactive '
p2883
sa(dp2884
g2
S'http://www.reuters.com/article/lifestyleMolt/idUSSP16279220070824'
p2885
sg4
S'20070824\xc2\xa007:19 AM EDT'
p2886
sg6
S'Are skyscrapers our new temples, Asian exhibit asks'
p2887
sa(dp2888
g2
S'http://www.reuters.com/article/environmentNews/idUSL2477881320070824'
p2889
sg4
S'20070824\xc2\xa007:17 AM EDT'
p2890
sg6
S'Two die as fire races through southern Greece'
p2891
sa(dp2892
g2
S'http://www.reuters.com/article/scienceNews/idUSL2460655320070824'
p2893
sg4
S'20070824\xc2\xa007:16 AM EDT'
p2894
sg6
S'Iceland stops whale-hunting quotas after low demand'
p2895
sa(dp2896
g2
S'http://www.reuters.com/article/companyNewsAndPR/idUSWNAS282220070824'
p2897
sg4
S'20070824\xc2\xa007:16 AM EDT'
p2898
sg6
S'China Sunergy CFO resigns'
p2899
sa(dp2900
g2
S'http://www.reuters.com/article/companyNewsAndPR/idUSL2474420320070824'
p2901
sg4
S'20070824\xc2\xa007:15 AM EDT'
p2902
sg6
S'CORRECTED - UPDATE 1-French fund CFM says has $407 mln at risk'
p2903
sa(dp2904
g2
S'http://www.reuters.com/article/environmentNews/idUSL2374959020070824'
p2905
sg4
S'20070824\xc2\xa007:15 AM EDT'
p2906
sg6
S'Climate fight must be won in developing nations: U.N.'
p2907
sa(dp2908
g2
S'http://www.reuters.com/article/worldNews/idUSDHA18460720070824'
p2909
sg4
S'20070824\xc2\xa007:13 AM EDT'
p2910
sg6
S'Bangladesh eases curfew after violence subsides'
p2911
sa(dp2912
g2
S'http://www.reuters.com/article/bankingfinancial-SP/idUSN2329280420070824'
p2913
sg4
S'20070824\xc2\xa007:13 AM EDT'
p2914
sg6
S'BofA: Converting Countrywide stake requires Fed OK'
p2915
sa(dp2916
g2
S'http://www.reuters.com/article/mergersNews/idUSWNAS281920070824'
p2917
sg4
S'20070824\xc2\xa007:12 AM EDT'
p2918
sg6
S'Optibase extends tender offer to buy 5 pct of Scopus shares'
p2919
sa(dp2920
g2
S'http://www.reuters.com/article/companyNewsAndPR/idUSN2445349920070824'
p2921
sg4
S'20070824\xc2\xa007:11 AM EDT'
p2922
sg6
S"Entergy's NY FitzPatrick reactor climbs to 74 pct power"
p2923
sa(dp2924
g2
S'http://www.reuters.com/article/worldNews/idUSL2462174520070824'
p2925
sg4
S'20070824\xc2\xa007:11 AM EDT'
p2926
sg6
S'Ugandan government accused of "state homophobia"'
p2927
sa(dp2928
g2
S'http://www.reuters.com/article/latestCrisis/idUSL24265249'
p2929
sg4
S'20070824\xc2\xa007:11 AM EDT'
p2930
sg6
S'FACTBOX-Security developments in Iraq, Aug 24'
p2931
sa(dp2932
g2
S'http://www.reuters.com/article/latestCrisis/idUSL24778813'
p2933
sg4
S'20070824\xc2\xa007:10 AM EDT'
p2934
sg6
S'Two die as fire races through southern Greece'
p2935
sa(dp2936
g2
S'http://www.reuters.com/article/bondsNews/idUSL2436210220070824'
p2937
sg4
S'20070824\xc2\xa007:10 AM EDT'
p2938
sg6
S'GLOBAL MARKETS-Credit worries undermine stocks, boost yen'
p2939
sa(dp2940
g2
S'http://www.reuters.com/article/inPlayBriefing/idUSIN20070824070904BKC20070824'
p2941
sg4
S'20070824\xc2\xa007:09 AM EDT'
p2942
sg6
S'Burger King beats by $0.02'
p2943
sa(dp2944
g2
S'http://www.reuters.com/article/companyNewsAndPR/idUSL2475293420070824'
p2945
sg4
S'20070824\xc2\xa007:08 AM EDT'
p2946
sg6
S'FOREX-Yen rises as risk aversion prevails'
p2947
sa(dp2948
g2
S'http://www.reuters.com/article/inPlayBriefing/idUSIN20070824070328CSUN20070824'
p2949
sg4
S'20070824\xc2\xa007:03 AM EDT'
p2950
sg6
S'China Sunergy announces departure of CFO'
p2951
sa(dp2952
g2
S'http://www.reuters.com/article/latestCrisis/idUSL24223144'
p2953
sg4
S'20070824\xc2\xa007:02 AM EDT'
p2954
sg6
S'Three British soldiers killed in Afghanistan'
p2955
sa(dp2956
g2
S'http://www.reuters.com/article/usMktRpt/idUSN2431781220070824'
p2957
sg4
S'20070824\xc2\xa006:57 AM EDT'
p2958
sg6
S'US STOCKS-Wall St seen opening lower, economic data eyed'
p2959
sa(dp2960
g2
S'http://www.reuters.com/article/worldNews/idUSKLR23471020070824'
p2961
sg4
S'20070824\xc2\xa006:55 AM EDT'
p2962
sg6
S'Malaysia suspends daily for Jesus caricature'
p2963
sa(dp2964
g2
S'http://www.reuters.com/article/londonMktRpt/idUSL2436769520070824'
p2965
sg4
S'20070824\xc2\xa006:54 AM EDT'
p2966
sg6
S'MARKETS-BRITAIN-STOCKS =2'
p2967
sa(dp2968
g2
S'http://www.reuters.com/article/inPlayBriefing/idUSIN20070824065304SCOP20070824'
p2969
sg4
S'20070824\xc2\xa006:53 AM EDT'
p2970
sg6
S'Scopus Video Networks: OBAS Commences Additional Offer Period for Scopus Tender Offer'
p2971
sa(dp2972
g2
S'http://www.reuters.com/article/topNews/idUSBKK23406720070824'
p2973
sg4
S'20070824\xc2\xa006:51 AM EDT'
p2974
sg6
S'Myanmar junta arrests 18 more in protest crackdown'
p2975
sa(dp2976
g2
S'http://www.reuters.com/article/mergersNews/idUSWNAS281620070824'
p2977
sg4
S'20070824\xc2\xa006:49 AM EDT'
p2978
sg6
S'American Woodmark to buy back $100 mln shares;  raises dividend'
p2979
sa(dp2980
g2
S'http://www.reuters.com/article/marketsNews/idUSWNAS281520070824'
p2981
sg4
S'20070824\xc2\xa006:46 AM EDT'
p2982
sg6
S'TABLE-Harris Interactive '
p2983
sa(dp2984
g2
S'http://www.reuters.com/article/homepageCrisis/idUSBKK234067._CH_.2400'
p2985
sg4
S'20070824\xc2\xa006:46 AM EDT'
p2986
sg6
S'Myanmar junta arrests 18 more in protest crackdown'
p2987
sa(dp2988
g2
S'http://www.reuters.com/article/latestCrisis/idUSBKK234067'
p2989
sg4
S'20070824\xc2\xa006:46 AM EDT'
p2990
sg6
S'Myanmar junta arrests 18 more in protest crackdown'
p2991
sa(dp2992
g2
S'http://www.reuters.com/article/mergersNews/idUSWNAS281720070824'
p2993
sg4
S'20070824\xc2\xa006:42 AM EDT'
p2994
sg6
S'Maguire to sell 11-story office tower in Irvine'
p2995
sa(dp2996
g2
S'http://www.reuters.com/article/governmentFilingsNews/idUSSIN23543720070824'
p2997
sg4
S'20070824\xc2\xa006:39 AM EDT'
p2998
sg6
S'UPDATE 1-Singapore c.bank tells banks to monitor CDO exposure'
p2999
sa(dp3000
g2
S'http://www.reuters.com/article/globalMarketsNews/idUST23576220070824'
p3001
sg4
S'20070824\xc2\xa006:37 AM EDT'
p3002
sg6
S'Nikkei slips ahead of U.S. data'
p3003
sa(dp3004
g2
S'http://www.reuters.com/article/innovationNews/idUSSHA27535120070824'
p3005
sg4
S'20070824\xc2\xa006:35 AM EDT'
p3006
sg6
S"Goldman approved to buy 10 pct of China's Fuyao"
p3007
sa(dp3008
g2
S'http://www.reuters.com/article/lifestyleMolt/idUSDEL22707520070824'
p3009
sg4
S'20070824\xc2\xa006:34 AM EDT'
p3010
sg6
S'India moves to decriminalize "victim" prostitutes'
p3011
sa(dp3012
g2
S'http://www.reuters.com/article/latestCrisis/idUSPEK265208'
p3013
sg4
S'20070824\xc2\xa006:34 AM EDT'
p3014
sg6
S"China stops activist's wife leaving country"
p3015
sa(dp3016
g2
S'http://www.reuters.com/article/innovationNews/idUSL2427048720070824'
p3017
sg4
S'20070824\xc2\xa006:33 AM EDT'
p3018
sg6
S'Foreigners to buy into Russian banks: central bank'
p3019
sa(dp3020
g2
S'http://www.reuters.com/article/innovationNews/idUSSYD26853020070824'
p3021
sg4
S'20070824\xc2\xa006:31 AM EDT'
p3022
sg6
S'IAG hopeful of India, China deal in 12 months'
p3023
sa(dp3024
g2
S'http://www.reuters.com/article/innovationNews/idUST19324520070824'
p3025
sg4
S'20070824\xc2\xa006:30 AM EDT'
p3026
sg6
S'Perry Capital to raise stake in NEC chip unit'
p3027
sa(dp3028
g2
S'http://www.reuters.com/article/businessNews/idUSN2329936520070824'
p3029
sg4
S'20070824\xc2\xa006:29 AM EDT'
p3030
sg6
S'Home Depot may accept $1.2 bln less for unit: report'
p3031
sa(dp3032
g2
S'http://www.reuters.com/article/innovationNews/idUST27842320070824'
p3033
sg4
S'20070824\xc2\xa006:28 AM EDT'
p3034
sg6
S'ICBC in talks to buy Macau bank from Stanley Ho: sources'
p3035
sa(dp3036
g2
S'http://www.reuters.com/article/ousiv/idUSN2324489320070824'
p3037
sg4
S'20070824\xc2\xa006:27 AM EDT'
p3038
sg6
S'Countrywide CEO sees recession ahead'
p3039
sa(dp3040
g2
S'http://www.reuters.com/article/companyNewsAndPR/idUSWNAS281220070824'
p3041
sg4
S'20070824\xc2\xa006:26 AM EDT'
p3042
sg6
S'Ascent Solar gets $165,000 contract from DOE lab'
p3043
sa(dp3044
g2
S'http://www.reuters.com/article/innovationNews/idUSL2487911220070824'
p3045
sg4
S'20070824\xc2\xa006:26 AM EDT'
p3046
sg6
S'After Valentino, hunt is on for next designer deal'
p3047
sa(dp3048
g2
S'http://www.reuters.com/article/bondsNews/idUSL2487894820070824'
p3049
sg4
S'20070824\xc2\xa006:22 AM EDT'
p3050
sg6
S"FACTBOX-European firms' exposure to U.S. subprime market"
p3051
sa(dp3052
g2
S'http://www.reuters.com/article/worldNews/idUSPEK20814820070824'
p3053
sg4
S'20070824\xc2\xa006:21 AM EDT'
p3054
sg6
S'China searches for 8 kg of "missing" uranium'
p3055
sa(dp3056
g2
S'http://www.reuters.com/article/businessNews/idUSDEL22609520070824'
p3057
sg4
S'20070824\xc2\xa006:18 AM EDT'
p3058
sg6
S'India supermarkets shut, middle class dreams fade'
p3059
sa(dp3060
g2
S'http://www.reuters.com/article/latestCrisis/idUSHKG271365'
p3061
sg4
S'20070824\xc2\xa006:17 AM EDT'
p3062
sg6
S'China searches for 8 kg of "missing" uranium'
p3063
sa(dp3064
g2
S'http://www.reuters.com/article/governmentFilingsNews/idUSWNAS281320070824'
p3065
sg4
S'20070824\xc2\xa006:16 AM EDT'
p3066
sg6
S'Bookham files $200 mln mixed shelf offering'
p3067
sa(dp3068
g2
S'http://www.reuters.com/article/stockTickerBriefing/idUSSI200708240614040220070824'
p3069
sg4
S'20070824\xc2\xa006:14 AM EDT'
p3070
sg6
S'Stock Market Update - Fri Aug 24 06:14:30 EDT 2007'
p3071
sa(dp3072
g2
S'http://www.reuters.com/article/stockTickerBriefing/idUSSI200708240614250120070824'
p3073
sg4
S'20070824\xc2\xa006:14 AM EDT'
p3074
sg6
S'Stock Market Update - Fri Aug 24 06:14:23 EDT 2007'
p3075
sa(dp3076
g2
S'http://www.reuters.com/article/inPlayBriefing/idUSIN200708240614040220070824'
p3077
sg4
S'20070824\xc2\xa006:14 AM EDT'
p3078
sg6
S'European Markets'
p3079
sa(dp3080
g2
S'http://www.reuters.com/article/inPlayBriefing/idUSIN200708240614040320070824'
p3081
sg4
S'20070824\xc2\xa006:14 AM EDT'
p3082
sg6
S'Asian Markets'
p3083
sa(dp3084
g2
S'http://www.reuters.com/article/stockTickerBriefing/idUSSI200708240614040320070824'
p3085
sg4
S'20070824\xc2\xa006:14 AM EDT'
p3086
sg6
S'Stock Market Update - Fri Aug 24 06:14:00 EDT 2007'
p3087
sa(dp3088
g2
S'http://www.reuters.com/article/companyNewsAndPR/idUSTKB00283820070824'
p3089
sg4
S'20070824\xc2\xa006:05 AM EDT'
p3090
sg6
S'Japan MOF Shinohara: volatile FX mkt not desirable'
p3091
sa(dp3092
g2
S'http://www.reuters.com/article/bondsNews/idUSBOM11358320070824'
p3093
sg4
S'20070824\xc2\xa006:05 AM EDT'
p3094
sg6
S'Indian outsourcers start to feel subprime fallout'
p3095
sa(dp3096
g2
S'http://www.reuters.com/article/inPlayBriefing/idUSIN20070824060438WIRES20070824'
p3097
sg4
S'20070824\xc2\xa006:04 AM EDT'
p3098
sg6
S'On The Wires'
p3099
sa(dp3100
g2
S'http://www.reuters.com/article/environmentNews/idUSL2318370620070824'
p3101
sg4
S'20070824\xc2\xa005:57 AM EDT'
p3102
sg6
S'U.N. voices concern over U.S., Australia on climate'
p3103
sa(dp3104
g2
S'http://www.reuters.com/article/bankingfinancial-SP/idUSN2324427320070824'
p3105
sg4
S'20070824\xc2\xa005:55 AM EDT'
p3106
sg6
S"Countrywide up, financials' liquidity worry eases"
p3107
sa(dp3108
g2
S'http://www.reuters.com/article/homepageCrisis/idUSDHA204544._CH_.2400'
p3109
sg4
S'20070824\xc2\xa005:53 AM EDT'
p3110
sg6
S'Deaths mount despite ebbing floods in Bangladesh'
p3111
sa(dp3112
g2
S'http://www.reuters.com/article/latestCrisis/idUSDHA204544'
p3113
sg4
S'20070824\xc2\xa005:53 AM EDT'
p3114
sg6
S'Deaths mount despite ebbing floods in Bangladesh'
p3115
sa(dp3116
g2
S'http://www.reuters.com/article/environmentNews/idUSN2344200020070824'
p3117
sg4
S'20070824\xc2\xa005:50 AM EDT'
p3118
sg6
S'Great Lakes waste issues may kill BP refinery plan'
p3119
sa(dp3120
g2
S'http://www.reuters.com/article/worldNews/idUSL2471226420070824'
p3121
sg4
S'20070824\xc2\xa005:49 AM EDT'
p3122
sg6
S"Floods threaten food supplies in Sudan's east"
p3123
sa(dp3124
g2
S'http://www.reuters.com/article/homepageCrisis/idUSL24712264._CH_.2400'
p3125
sg4
S'20070824\xc2\xa005:47 AM EDT'
p3126
sg6
S"Floods threaten food supplies in Sudan's east-FAO"
p3127
sa(dp3128
g2
S'http://www.reuters.com/article/latestCrisis/idUSL24712264'
p3129
sg4
S'20070824\xc2\xa005:47 AM EDT'
p3130
sg6
S"Floods threaten food supplies in Sudan's east-FAO"
p3131
sa(dp3132
g2
S'http://www.reuters.com/article/latestCrisis/idUSL23530980'
p3133
sg4
S'20070824\xc2\xa005:46 AM EDT'
p3134
sg6
S'FEATURE-Iraqi translators struggle for safety and a visa'
p3135
sa(dp3136
g2
S'http://www.reuters.com/article/usMktRpt/idUSL2426065120070824'
p3137
sg4
S'20070824\xc2\xa005:42 AM EDT'
p3138
sg6
S'Wall St futures seen lower, eyes on data'
p3139
sa(dp3140
g2
S'http://www.reuters.com/article/bankingfinancial-SP/idUSN2323373720070824'
p3141
sg4
S'20070824\xc2\xa005:41 AM EDT'
p3142
sg6
S'TD Bank profit soars, stock rise more muted'
p3143
sa(dp3144
g2
S'http://www.reuters.com/article/latestCrisis/idUSL24674204'
p3145
sg4
S'20070824\xc2\xa005:38 AM EDT'
p3146
sg6
S'Families of militants set to leave Lebanon camp'
p3147
sa(dp3148
g2
S'http://www.reuters.com/article/topNews/idUSL2479908420070824'
p3149
sg4
S'20070824\xc2\xa005:38 AM EDT'
p3150
sg6
S'FACTBOX: Key facts about Basque separatist group ETA'
p3151
sa(dp3152
g2
S'http://www.reuters.com/article/businessNews/idUSTP27600820070824'
p3153
sg4
S'20070824\xc2\xa005:35 AM EDT'
p3154
sg6
S'Quanta CEO quits over strategy, shares jump'
p3155
sa(dp3156
g2
S'http://www.reuters.com/article/technology-media-telco-SP/idUSN2328816220070824'
p3157
sg4
S'20070824\xc2\xa005:34 AM EDT'
p3158
sg6
S'Brocade 3rd-quarter net falls amid legal costs'
p3159
sa(dp3160
g2
S'http://www.reuters.com/article/technology-media-telco-SP/idUSHEL00574620070824'
p3161
sg4
S'20070824\xc2\xa005:34 AM EDT'
p3162
sg6
S'Nokia and Matsushita agree BL-5C batteries costs'
p3163
sa(dp3164
g2
S'http://www.reuters.com/article/environmentNews/idUSN2327650320070824'
p3165
sg4
S'20070824\xc2\xa005:32 AM EDT'
p3166
sg6
S'Costs make LIPA reconsider offshore NY wind farm'
p3167
sa(dp3168
g2
S'http://www.reuters.com/article/reviewsNews/idUSN2139154420070824'
p3169
sg4
S'20070824\xc2\xa005:31 AM EDT'
p3170
sg6
S'"Anchorwoman" delivers hard truths about TV news'
p3171
sa(dp3172
g2
S'http://www.reuters.com/article/latestCrisis/idUSDHA184607'
p3173
sg4
S'20070824\xc2\xa005:30 AM EDT'
p3174
sg6
S'Bangladesh eases curfew after violence subsides'
p3175
sa(dp3176
g2
S'http://www.reuters.com/article/ousiv/idUSN2334428320070824'
p3177
sg4
S'20070824\xc2\xa005:24 AM EDT'
p3178
sg6
S'Cost-cutting helps lift Gap profit'
p3179
sa(dp3180
g2
S'http://www.reuters.com/article/politicsNews/idUSL2468905920070824'
p3181
sg4
S'20070824\xc2\xa005:18 AM EDT'
p3182
sg6
S'Brazil welcomes open IMF leadership race: report'
p3183
sa(dp3184
g2
S'http://www.reuters.com/article/environmentNews/idUSL2357789520070824'
p3185
sg4
S'20070824\xc2\xa005:13 AM EDT'
p3186
sg6
S'Hot compost bugs promise greener car fuel'
p3187
sa(dp3188
g2
S'http://www.reuters.com/article/latestCrisis/idUSL23289509'
p3189
sg4
S'20070824\xc2\xa005:13 AM EDT'
p3190
sg6
S"ANALYSIS-Bush's Middle East peace bid seen floundering"
p3191
sa(dp3192
g2
S'http://www.reuters.com/article/environmentNews/idUSDEL22723620070824'
p3193
sg4
S'20070824\xc2\xa005:12 AM EDT'
p3194
sg6
S'Snakes enter homes, increasing South Asia flood torment'
p3195
sa(dp3196
g2
S'http://www.reuters.com/article/latestCrisis/idUSKAR034060'
p3197
sg4
S'20070824\xc2\xa005:12 AM EDT'
p3198
sg6
S'Secularists pull ministers out of Iraq government'
p3199
sa(dp3200
g2
S'http://www.reuters.com/article/consumerproducts-SP/idUSSYD21885520070824'
p3201
sg4
S'20070824\xc2\xa005:11 AM EDT'
p3202
sg6
S"Australia's Billabong year profit up 15 pct"
p3203
sa(dp3204
g2
S'http://www.reuters.com/article/consumerproducts-SP/idUSSYD15918220070824'
p3205
sg4
S'20070824\xc2\xa005:11 AM EDT'
p3206
sg6
S"Foster's H2 profit seen up 15 pct on beer sales"
p3207
sa(dp3208
g2
S'http://www.reuters.com/article/homepageCrisis/idUSDEL227236._CH_.2400'
p3209
sg4
S'20070824\xc2\xa005:08 AM EDT'
p3210
sg6
S'Snakes enter homes, increasing S.Asia flood torment'
p3211
sa(dp3212
g2
S'http://www.reuters.com/article/latestCrisis/idUSDEL227236'
p3213
sg4
S'20070824\xc2\xa005:08 AM EDT'
p3214
sg6
S'Snakes enter homes, increasing S.Asia flood torment'
p3215
sa(dp3216
g2
S'http://www.reuters.com/article/sportsNews/idUST21957820070824'
p3217
sg4
S'20070824\xc2\xa005:05 AM EDT'
p3218
sg6
S'Chicken shops on red alert in Osaka'
p3219
sa(dp3220
g2
S'http://www.reuters.com/article/sportsNews/idUSSP23001520070824'
p3221
sg4
S'20070824\xc2\xa005:05 AM EDT'
p3222
sg6
S'Marathon gets worlds off to early start'
p3223
sa(dp3224
g2
S'http://www.reuters.com/article/companyNewsAndPR/idUSL2442208320070824'
p3225
sg4
S'20070824\xc2\xa005:04 AM EDT'
p3226
sg6
S'European shares dip in rocky trade, financials sag'
p3227
sa(dp3228
g2
S'http://www.reuters.com/article/environmentNews/idUSN2325919920070824'
p3229
sg4
S'20070824\xc2\xa005:03 AM EDT'
p3230
sg6
S'Stricter U.S. refinery emission rules not needed: EPA'
p3231
sa(dp3232
g2
S'http://www.reuters.com/article/latestCrisis/idUSL23333318'
p3233
sg4
S'20070824\xc2\xa005:03 AM EDT'
p3234
sg6
S'FACTBOX-Military deaths in Afghanistan'
p3235
sa(dp3236
g2
S'http://www.reuters.com/article/scienceNews/idUST21446820070824'
p3237
sg4
S'20070824\xc2\xa005:03 AM EDT'
p3238
sg6
S'Smog smothers Japan, experts point to China'
p3239
sa(dp3240
g2
S'http://www.reuters.com/article/scienceNews/idUST27973020070824'
p3241
sg4
S'20070824\xc2\xa005:03 AM EDT'
p3242
sg6
S'Japan may see hotter weather next week: forecaster'
p3243
sa(dp3244
g2
S'http://www.reuters.com/article/bondsNews/idUSPAC00853820070824'
p3245
sg4
S'20070824\xc2\xa004:55 AM EDT'
p3246
sg6
S'French hedge fund CFM says has $407 mln at risk'
p3247
sa(dp3248
g2
S'http://www.reuters.com/article/musicNews/idUSN2133423020070824'
p3249
sg4
S'20070824\xc2\xa004:53 AM EDT'
p3250
sg6
S'Wal-Mart selling digital music free of copy curbs'
p3251
sa(dp3252
g2
S'http://www.reuters.com/article/latestCrisis/idUST253952'
p3253
sg4
S'20070824\xc2\xa004:52 AM EDT'
p3254
sg6
S'China nips and tucks transsexual TV'
p3255
sa(dp3256
g2
S'http://www.reuters.com/article/environmentNews/idUSL2393281220070824'
p3257
sg4
S'20070824\xc2\xa004:48 AM EDT'
p3258
sg6
S'Merkel to focus on climate, business in China, Japan'
p3259
sa(dp3260
g2
S'http://www.reuters.com/article/sportsNews/idUST27633720070824'
p3261
sg4
S'20070824\xc2\xa004:46 AM EDT'
p3262
sg6
S'Athletes to get spray-downs to beat searing Osaka heat'
p3263
sa(dp3264
g2
S'http://www.reuters.com/article/latestCrisis/idUSSP228851'
p3265
sg4
S'20070824\xc2\xa004:45 AM EDT'
p3266
sg6
S'Sony develops sweet little bio battery'
p3267
sa(dp3268
g2
S'http://www.reuters.com/article/politicsNews/idUSSEO27384020070824'
p3269
sg4
S'20070824\xc2\xa004:43 AM EDT'
p3270
sg6
S'South Korea to resume U.S. beef imports'
p3271
sa(dp3272
g2
S'http://www.reuters.com/article/technology-media-telco-SP/idUSN2328684420070824'
p3273
sg4
S'20070824\xc2\xa004:40 AM EDT'
p3274
sg6
S'Marvell Technology swings to quarterly net loss'
p3275
sa(dp3276
g2
S'http://www.reuters.com/article/topNews/idUSL2417128820070824'
p3277
sg4
S'20070824\xc2\xa004:39 AM EDT'
p3278
sg6
S'Republican senator urges Iraq troop cut'
p3279
sa(dp3280
g2
S'http://www.reuters.com/article/latestCrisis/idUSN24310975'
p3281
sg4
S'20070824\xc2\xa004:36 AM EDT'
p3282
sg6
S'Gen. Pace may urge U.S. troop cut in Iraq-report'
p3283
sa(dp3284
g2
S'http://www.reuters.com/article/environmentNews/idUSL2376054720070824'
p3285
sg4
S'20070824\xc2\xa004:34 AM EDT'
p3286
sg6
S'Italy overshoots 2005-2006 energy savings target'
p3287
sa(dp3288
g2
S'http://www.reuters.com/article/businessNews/idUSL2452010220070824'
p3289
sg4
S'20070824\xc2\xa004:34 AM EDT'
p3290
sg6
S'Climate fight brings mega profits to EU power firms'
p3291
sa(dp3292
g2
S'http://www.reuters.com/article/bondsNews/idUSWEB682920070824'
p3293
sg4
S'20070824\xc2\xa004:32 AM EDT'
p3294
sg6
S"Germany's BayernLB says has subprime exposure"
p3295
sa(dp3296
g2
S'http://www.reuters.com/article/latestCrisis/idUSSEO273840'
p3297
sg4
S'20070824\xc2\xa004:30 AM EDT'
p3298
sg6
S'South Korea to resume U.S. beef imports'
p3299
sa(dp3300
g2
S'http://www.reuters.com/article/bondsNews/idUSL2463667120070824'
p3301
sg4
S'20070824\xc2\xa004:27 AM EDT'
p3302
sg6
S'Euro money market still tight despite ECB injection'
p3303
sa(dp3304
g2
S'http://www.reuters.com/article/technology-media-telco-SP/idUSWNAS278420070824'
p3305
sg4
S'20070824\xc2\xa004:25 AM EDT'
p3306
sg6
S'Ingram Micro confirms outlook, sees solid demand'
p3307
sa(dp3308
g2
S'http://www.reuters.com/article/technology-media-telco-SP/idUSTFA00286520070824'
p3309
sg4
S'20070824\xc2\xa004:25 AM EDT'
p3310
sg6
S'Matsushita sees up to $172 mln in battery costs'
p3311
sa(dp3312
g2
S'http://www.reuters.com/article/environmentNews/idUSN2244930020070824'
p3313
sg4
S'20070824\xc2\xa004:24 AM EDT'
p3314
sg6
S'U.S., Canadian West set joint carbon-cutting target'
p3315
sa(dp3316
g2
S'http://www.reuters.com/article/companyNewsAndPR/idUSL2427665020070824'
p3317
sg4
S'20070824\xc2\xa004:21 AM EDT'
p3318
sg6
S'FOREX-Yen edges up on risk aversion as stocks fall'
p3319
sa(dp3320
g2
S'http://www.reuters.com/article/latestCrisis/idUST214468'
p3321
sg4
S'20070824\xc2\xa004:21 AM EDT'
p3322
sg6
S'Smog smothers Japan, experts point to China'
p3323
sa(dp3324
g2
S'http://www.reuters.com/article/companyNewsAndPR/idUSL241244920070824'
p3325
sg4
S'20070824\xc2\xa004:18 AM EDT'
p3326
sg6
S'Brazil welcomes open IMF leadership race - RIA'
p3327
sa(dp3328
g2
S'http://www.reuters.com/article/reviewsNews/idUSN2030784620070824'
p3329
sg4
S'20070824\xc2\xa004:17 AM EDT'
p3330
sg6
S'CNN\'s "Warriors" leaves unanswered questions'
p3331
sa(dp3332
g2
S'http://www.reuters.com/article/filmNews/idUSN2320434820070824'
p3333
sg4
S'20070824\xc2\xa004:17 AM EDT'
p3334
sg6
S"It's a new beginning for movie end credits"
p3335
sa(dp3336
g2
S'http://www.reuters.com/article/filmNews/idUSN2327461320070824'
p3337
sg4
S'20070824\xc2\xa004:08 AM EDT'
p3338
sg6
S'Montreal fest kicks off with restored subsidies'
p3339
sa(dp3340
g2
S'http://www.reuters.com/article/companyNewsAndPR/idUSWEB682620070824'
p3341
sg4
S'20070824\xc2\xa004:07 AM EDT'
p3342
sg6
S'Miners push European shares into positive territory'
p3343
sa(dp3344
g2
S'http://www.reuters.com/article/health-SP/idUSWNAS278120070824'
p3345
sg4
S'20070824\xc2\xa003:58 AM EDT'
p3346
sg6
S'Lexicon gets shareholder approval for Invus investment'
p3347
sa(dp3348
g2
S'http://www.reuters.com/article/companyNewsAndPR/idUST22010020070824'
p3349
sg4
S'20070824\xc2\xa003:58 AM EDT'
p3350
sg6
S'UPDATE 1-Nokia Japan to brief on battery overheating'
p3351
sa(dp3352
g2
S'http://www.reuters.com/article/londonMktRpt/idUSL2458460520070824'
p3353
sg4
S'20070824\xc2\xa003:52 AM EDT'
p3354
sg6
S'MARKETS-BRITAIN-STOCKS =2'
p3355
sa(dp3356
g2
S'http://www.reuters.com/article/investmentTrustsNews/idUSNOA42812020070824'
p3357
sg4
S'20070824\xc2\xa003:50 AM EDT'
p3358
sg6
S'Morant Wright to offer full yen exposure'
p3359
sa(dp3360
g2
S'http://www.reuters.com/article/companyNewsAndPR/idUSBNG20403020070824'
p3361
sg4
S'20070824\xc2\xa003:46 AM EDT'
p3362
sg6
S'UPDATE 1-RESEARCH ALERT-Lehman cuts targets on some UK REITs'
p3363
sa(dp3364
g2
S'http://www.reuters.com/article/consumerproducts-SP/idUSN2339768420070824'
p3365
sg4
S'20070824\xc2\xa003:45 AM EDT'
p3366
sg6
S'Aeropostale 2nd-qtr profit up 75 percent'
p3367
sa(dp3368
g2
S'http://www.reuters.com/article/latestCrisis/idUSL24353493'
p3369
sg4
S'20070824\xc2\xa003:43 AM EDT'
p3370
sg6
S"Chechen rebel leader's associate killed in gunfight"
p3371
sa(dp3372
g2
S'http://www.reuters.com/article/health-SP/idUSDKT00184020070824'
p3373
sg4
S'20070824\xc2\xa003:41 AM EDT'
p3374
sg6
S'Lundbeck chairman Lindelov resigns early'
p3375
sa(dp3376
g2
S'http://www.reuters.com/article/health-SP/idUSWNAS277520070824'
p3377
sg4
S'20070824\xc2\xa003:38 AM EDT'
p3378
sg6
S'Gene Logic in drug development deal with Merck KGaA'
p3379
sa(dp3380
g2
S'http://www.reuters.com/article/consumerproducts-SP/idUSZAT00682020070824'
p3381
sg4
S'20070824\xc2\xa003:37 AM EDT'
p3382
sg6
S'Swiss retail Valora drops after weaker H1'
p3383
sa(dp3384
g2
S'http://www.reuters.com/article/bondsNews/idUSTP30855020070824'
p3385
sg4
S'20070824\xc2\xa003:36 AM EDT'
p3386
sg6
S'UPDATE 1-Cathay Fin has US$100 mln in subprime exposure'
p3387
sa(dp3388
g2
S'http://www.reuters.com/article/bondsNews/idUSSP22144920070824'
p3389
sg4
S'20070824\xc2\xa003:20 AM EDT'
p3390
sg6
S'UPDATE 2-Oil steady; Mexico resumes output, subprime weighs'
p3391
sa(dp3392
g2
S'http://www.reuters.com/article/companyNewsAndPR/idUST27840920070824'
p3393
sg4
S'20070824\xc2\xa003:18 AM EDT'
p3394
sg6
S'Nikkei slips 0.4 pct, caution ahead of US data'
p3395
sa(dp3396
g2
S'http://www.reuters.com/article/filmNews/idUSN2327324320070824'
p3397
sg4
S'20070824\xc2\xa003:14 AM EDT'
p3398
sg6
S'For sale: Large dose of "Escrow" realty reality'
p3399
sa(dp3400
g2
S'http://www.reuters.com/article/entertainmentNews/idUSN2444582420070824'
p3401
sg4
S'20070824\xc2\xa003:13 AM EDT'
p3402
sg6
S'Walken brings bounce to "Balls of Fury"'
p3403
sa(dp3404
g2
S'http://www.reuters.com/article/companyNewsAndPR/idUSWEB682220070824'
p3405
sg4
S'20070824\xc2\xa003:12 AM EDT'
p3406
sg6
S'European shares turn lower, financials lead'
p3407
sa(dp3408
g2
S'http://www.reuters.com/article/worldNews/idUSDEL29263220070824'
p3409
sg4
S'20070824\xc2\xa003:11 AM EDT'
p3410
sg6
S"Kashmir's crumbling monuments get restoration boost"
p3411
sa(dp3412
g2
S'http://www.reuters.com/article/companyNewsAndPR/idUSTFA00286420070824'
p3413
sg4
S'20070824\xc2\xa003:10 AM EDT'
p3414
sg6
S'Nokia Japan to brief on battery overheating'
p3415
sa(dp3416
g2
S'http://www.reuters.com/article/sportsNews/idUSSP20092820070824'
p3417
sg4
S'20070824\xc2\xa003:02 AM EDT'
p3418
sg6
S'Rogge turns up heat on drug cheats'
p3419
sa(dp3420
g2
S'http://www.reuters.com/article/ousiv/idUSN2263259520070824'
p3421
sg4
S'20070824\xc2\xa003:02 AM EDT'
p3422
sg6
S'Subprime crisis will boost mortgage insurers'
p3423
sa(dp3424
g2
S'http://www.reuters.com/article/mergersNews/idUSL2473577720070824'
p3425
sg4
S'20070824\xc2\xa003:02 AM EDT'
p3426
sg6
S'Market Chatter -- Corporate finance press digest'
p3427
sa(dp3428
g2
S'http://www.reuters.com/article/bondsNews/idUST25124220070824'
p3429
sg4
S'20070824\xc2\xa003:01 AM EDT'
p3430
sg6
S'JGB futures edge up as market debates BOJ outlook'
p3431
sa(dp3432
g2
S'http://www.reuters.com/article/worldNews/idUSISL17689520070824'
p3433
sg4
S'20070824\xc2\xa002:55 AM EDT'
p3434
sg6
S'Pakistani court rules exiled Sharif can return'
p3435
sa(dp3436
g2
S'http://www.reuters.com/article/televisionNews/idUSN2321328120070824'
p3437
sg4
S'20070824\xc2\xa002:53 AM EDT'
p3438
sg6
S'NBC and Burnett struck by "Amne$ia"'
p3439
sa(dp3440
g2
S'http://www.reuters.com/article/mergersNews/idUSL2471703920070824'
p3441
sg4
S'20070824\xc2\xa002:51 AM EDT'
p3442
sg6
S"Russia's Delta eyes $550 mln fund raising - source"
p3443
sa(dp3444
g2
S'http://www.reuters.com/article/companyNewsAndPR/idUSOSO00071920070824'
p3445
sg4
S'20070824\xc2\xa002:50 AM EDT'
p3446
sg6
S'Statoil in $2.6-4.3 bln deal for subsea equipment'
p3447
sa(dp3448
g2
S'http://www.reuters.com/article/industryNews/idUSN2140536220070824'
p3449
sg4
S'20070824\xc2\xa002:50 AM EDT'
p3450
sg6
S'Studio sues over "Dirty Dancing" line'
p3451
sa(dp3452
g2
S'http://www.reuters.com/article/latestCrisis/idUSGRA423975'
p3453
sg4
S'20070824\xc2\xa002:47 AM EDT'
p3454
sg6
S'Ten die in Baghdad clash between US and militants'
p3455
sa(dp3456
g2
S'http://www.reuters.com/article/latestCrisis/idUSMAN97205'
p3457
sg4
S'20070824\xc2\xa002:44 AM EDT'
p3458
sg6
S'INTERVIEW-Philippine peace talks stalled on all fronts'
p3459
sa(dp3460
g2
S'http://www.reuters.com/article/technology-media-telco-SP/idUSSHA25559820070824'
p3461
sg4
S'20070824\xc2\xa002:40 AM EDT'
p3462
sg6
S'STMicro seeking China production partner -source'
p3463
sa(dp3464
g2
S'http://www.reuters.com/article/televisionNews/idUSN2321493720070824'
p3465
sg4
S'20070824\xc2\xa002:40 AM EDT'
p3466
sg6
S'Actress hits a double on TV dramas'
p3467
sa(dp3468
g2
S'http://www.reuters.com/article/bondsNews/idUSSIN9714320070824'
p3469
sg4
S'20070824\xc2\xa002:36 AM EDT'
p3470
sg6
S'CREDIT WRAPUP 1-Asian bank fears grow over subprime exposure'
p3471
sa(dp3472
g2
S'http://www.reuters.com/article/consumerproducts-SP/idUSN2331167620070824'
p3473
sg4
S'20070824\xc2\xa002:35 AM EDT'
p3474
sg6
S'Whole Foods asks court to let Wild Oats deal stand'
p3475
sa(dp3476
g2
S'http://www.reuters.com/article/industryNews/idUSN2319476520070824'
p3477
sg4
S'20070824\xc2\xa002:34 AM EDT'
p3478
sg6
S'MySpace, MTV to host presidential chat'
p3479
sa(dp3480
g2
S'http://www.reuters.com/article/filmNews/idUSN2321327420070824'
p3481
sg4
S'20070824\xc2\xa002:34 AM EDT'
p3482
sg6
S'Gugino joins De Niro, Pacino crime drama'
p3483
sa(dp3484
g2
S'http://www.reuters.com/article/entertainmentNews/idUSN2428325820070824'
p3485
sg4
S'20070824\xc2\xa002:32 AM EDT'
p3486
sg6
S'"Lust" too hot for Hollywood censors'
p3487
sa(dp3488
g2
S'http://www.reuters.com/article/companyNewsAndPR/idUSL2423516520070824'
p3489
sg4
S'20070824\xc2\xa002:32 AM EDT'
p3490
sg6
S'European Factors -- Stocks seen lower, US slowdown feared'
p3491
sa(dp3492
g2
S'http://www.reuters.com/article/latestCrisis/idUSPEK277088'
p3493
sg4
S'20070824\xc2\xa002:31 AM EDT'
p3494
sg6
S'Shaken by product safety woes, China declares "war"'
p3495
sa(dp3496
g2
S'http://www.reuters.com/article/peopleNews/idUSN2220083020070824'
p3497
sg4
S'20070824\xc2\xa002:30 AM EDT'
p3498
sg6
S"Macy's plans $100 million ad campaign: report"
p3499
sa(dp3500
g2
S'http://www.reuters.com/article/entertainmentNews/idUSN2424569920070824'
p3501
sg4
S'20070824\xc2\xa002:29 AM EDT'
p3502
sg6
S'"Office" tyrant sets sights on renaissance fairs'
p3503
sa(dp3504
g2
S'http://www.reuters.com/article/sportsNews/idUSN2326627020070824'
p3505
sg4
S'20070824\xc2\xa002:26 AM EDT'
p3506
sg6
S'Beckham unable to lift Galaxy in 3-0 defeat'
p3507
sa(dp3508
g2
S'http://www.reuters.com/article/companyNewsAndPR/idUST19020620070824'
p3509
sg4
S'20070824\xc2\xa002:22 AM EDT'
p3510
sg6
S'Low yen, overseas growth to help Japan exports-BOJ'
p3511
sa(dp3512
g2
S'http://www.reuters.com/article/tokyoMktRpt/idUST26323920070824'
p3513
sg4
S'20070824\xc2\xa002:20 AM EDT'
p3514
sg6
S'Nikkei slips 0.4 pct, caution ahead of US data'
p3515
sa(dp3516
g2
S'http://www.reuters.com/article/mergersNews/idUST27473320070824'
p3517
sg4
S'20070824\xc2\xa002:19 AM EDT'
p3518
sg6
S'U.S. fund to raise stake in NEC chip unit'
p3519
sa(dp3520
g2
S'http://www.reuters.com/article/companyNewsAndPR/idUSL2405164920070824'
p3521
sg4
S'20070824\xc2\xa002:18 AM EDT'
p3522
sg6
S'German stocks - Factors to watch on Aug 24'
p3523
sa(dp3524
g2
S'http://www.reuters.com/article/technology-media-telco-SP/idUSN2328013820070824'
p3525
sg4
S'20070824\xc2\xa002:16 AM EDT'
p3526
sg6
S'Mentor Graphics shows quarterly profit, shares rise'
p3527
sa(dp3528
g2
S'http://www.reuters.com/article/tnBasicIndustries-SP/idUSOSO00071820070824'
p3529
sg4
S'20070824\xc2\xa002:13 AM EDT'
p3530
sg6
S'Aker Yards posts Q2 core loss, affirms guidance'
p3531
sa(dp3532
g2
S'http://www.reuters.com/article/latestCrisis/idUSISL225157'
p3533
sg4
S'20070824\xc2\xa002:12 AM EDT'
p3534
sg6
S'Suicide attack kills two soldiers in NW Pakistan'
p3535
sa(dp3536
g2
S'http://www.reuters.com/article/latestCrisis/idUSDEL57432'
p3537
sg4
S'20070824\xc2\xa002:09 AM EDT'
p3538
sg6
S'Indian guru makes peace angels of Iraqi youths'
p3539
sa(dp3540
g2
S'http://www.reuters.com/article/tokyoMktRpt/idUSTKB00283720070824'
p3541
sg4
S'20070824\xc2\xa002:09 AM EDT'
p3542
sg6
S'Nikkei slips 0.4 pct, caution ahead of US data'
p3543
sa(dp3544
g2
S'http://www.reuters.com/article/technology-media-telco-SP/idUSTP17118120070824'
p3545
sg4
S'20070824\xc2\xa002:03 AM EDT'
p3546
sg6
S"CEO of Taiwan's Quanta Computer resigns"
p3547
sa(dp3548
g2
S'http://www.reuters.com/article/latestCrisis/idUSPEK276268'
p3549
sg4
S'20070824\xc2\xa001:55 AM EDT'
p3550
sg6
S"Fresh mine flood adds to China's missing miners"
p3551
sa(dp3552
g2
S'http://www.reuters.com/article/companyNewsAndPR/idUSBNG22258420070824'
p3553
sg4
S'20070824\xc2\xa001:53 AM EDT'
p3554
sg6
S'PRESS DIGEST - Wall Street Journal - Aug 24'
p3555
sa(dp3556
g2
S'http://www.reuters.com/article/technology-media-telco-SP/idUSN2327624920070824'
p3557
sg4
S'20070824\xc2\xa001:50 AM EDT'
p3558
sg6
S'Dow Jones replaces board member who left in protest'
p3559
sa(dp3560
g2
S'http://www.reuters.com/article/latestCrisis/idUSDEL292632'
p3561
sg4
S'20070824\xc2\xa001:48 AM EDT'
p3562
sg6
S"Kashmir's crumbling monuments get restoration boost"
p3563
sa(dp3564
g2
S'http://www.reuters.com/article/health-SP/idUSWEB681520070824'
p3565
sg4
S'20070824\xc2\xa001:48 AM EDT'
p3566
sg6
S'Roche says EU approves Avastin for lung cancer'
p3567
sa(dp3568
g2
S'http://www.reuters.com/article/companyNewsAndPR/idUSL2493450020070824'
p3569
sg4
S'20070824\xc2\xa001:46 AM EDT'
p3570
sg6
S'UK Stocks -- Factors to watch on Aug 24'
p3571
sa(dp3572
g2
S'http://www.reuters.com/article/bondsNews/idUSBNG20193720070824'
p3573
sg4
S'20070824\xc2\xa001:41 AM EDT'
p3574
sg6
S'PRESS DIGEST - New York Times business news - Aug 24'
p3575
sa(dp3576
g2
S'http://www.reuters.com/article/healthNews/idUSJAK19758220070824'
p3577
sg4
S'20070824\xc2\xa001:38 AM EDT'
p3578
sg6
S'Bali restaurants drop chicken and duck from menu'
p3579
sa(dp3580
g2
S'http://www.reuters.com/article/latestCrisis/idUSDEL206841'
p3581
sg4
S'20070824\xc2\xa001:35 AM EDT'
p3582
sg6
S'Bollywood actor Khan to be jailed for poaching'
p3583
sa(dp3584
g2
S'http://www.reuters.com/article/homepageCrisis/idUSJAK197582._CH_.2400'
p3585
sg4
S'20070824\xc2\xa001:32 AM EDT'
p3586
sg6
S'Bali restaurants drop chicken and duck from menu'
p3587
sa(dp3588
g2
S'http://www.reuters.com/article/latestCrisis/idUSJAK197582'
p3589
sg4
S'20070824\xc2\xa001:32 AM EDT'
p3590
sg6
S'Bali restaurants drop chicken and duck from menu'
p3591
sa(dp3592
g2
S'http://www.reuters.com/article/sportsNews/idUSB17715620070824'
p3593
sg4
S'20070824\xc2\xa001:31 AM EDT'
p3594
sg6
S'Indians pull away from Tigers with 10th inning rally'
p3595
sa(dp3596
g2
S'http://www.reuters.com/article/companyNewsAndPR/idUSHKG26258520070824'
p3597
sg4
S'20070824\xc2\xa001:29 AM EDT'
p3598
sg6
S'UPDATE 1-PetroChina puts 10 pct target on foreign business'
p3599
sa(dp3600
g2
S'http://www.reuters.com/article/filmNews/idUSN2320399520070824'
p3601
sg4
S'20070824\xc2\xa001:23 AM EDT'
p3602
sg6
S'Timberlake takes to the ice for Myers comedy'
p3603
sa(dp3604
g2
S'http://www.reuters.com/article/reviewsNews/idUSN2037333520070824'
p3605
sg4
S'20070824\xc2\xa001:23 AM EDT'
p3606
sg6
S'Branagh brings "As You Like It" to life'
p3607
sa(dp3608
g2
S'http://www.reuters.com/article/entertainmentNews/idUSN2330478120070824'
p3609
sg4
S'20070824\xc2\xa001:23 AM EDT'
p3610
sg6
S'Goldblum brings it all back home in amusing film'
p3611
sa(dp3612
g2
S'http://www.reuters.com/article/televisionNews/idUSN2220815220070824'
p3613
sg4
S'20070824\xc2\xa001:23 AM EDT'
p3614
sg6
S'NBC calling up "Countdown" for Sunday'
p3615
sa(dp3616
g2
S'http://www.reuters.com/article/entertainmentNews/idUSN2327373620070824'
p3617
sg4
S'20070824\xc2\xa001:22 AM EDT'
p3618
sg6
S'Princess Diana movie is simply "Murder"'
p3619
sa(dp3620
g2
S'http://www.reuters.com/article/companyNewsAndPR/idUST27615620070824'
p3621
sg4
S'20070824\xc2\xa001:17 AM EDT'
p3622
sg6
S"BOJ's Fukui to visit Shizuoka, Japan on Aug 27"
p3623
sa(dp3624
g2
S'http://www.reuters.com/article/technology-media-telco-SP/idUSBRE00110020070824'
p3625
sg4
S'20070824\xc2\xa001:17 AM EDT'
p3626
sg6
S'Belgacom H1 results above consensus, raised guidance'
p3627
sa(dp3628
g2
S'http://www.reuters.com/article/filmNews/idUSN2246038520070824'
p3629
sg4
S'20070824\xc2\xa001:17 AM EDT'
p3630
sg6
S'Durst, Ice Cube play ball in sports drama'
p3631
sa(dp3632
g2
S'http://www.reuters.com/article/entertainmentNews/idUSN2430477820070824'
p3633
sg4
S'20070824\xc2\xa001:16 AM EDT'
p3634
sg6
S'"G.I. Joe" accepts movie assignment'
p3635
sa(dp3636
g2
S'http://www.reuters.com/article/industryNews/idUSN2027399220070824'
p3637
sg4
S'20070824\xc2\xa001:13 AM EDT'
p3638
sg6
S'EMI aims to reap more income from legendary catalog'
p3639
sa(dp3640
g2
S'http://www.reuters.com/article/healthNews/idUSN2329582520070824'
p3641
sg4
S'20070824\xc2\xa001:10 AM EDT'
p3642
sg6
S'Viagra boosts feel-good "love" hormone: study'
p3643
sa(dp3644
g2
S'http://www.reuters.com/article/tnBasicIndustries-SP/idUSN2328171120070824'
p3645
sg4
S'20070824\xc2\xa001:09 AM EDT'
p3646
sg6
S'British Air, Korean Air fined $300 million in U.S.'
p3647
sa(dp3648
g2
S'http://www.reuters.com/article/companyNewsAndPR/idUST27474020070824'
p3649
sg4
S'20070824\xc2\xa001:08 AM EDT'
p3650
sg6
S'TREASURIES-Steady in Asia as credit concerns ease'
p3651
sa(dp3652
g2
S'http://www.reuters.com/article/televisionNews/idUSN2220814520070824'
p3653
sg4
S'20070824\xc2\xa001:04 AM EDT'
p3654
sg6
S'MyNet gets NFL Network "Access"'
p3655
sa(dp3656
g2
S'http://www.reuters.com/article/sportsNews/idUSN2437023820070824'
p3657
sg4
S'20070824\xc2\xa001:03 AM EDT'
p3658
sg6
S'Rugby World Cup gaining wide popularity'
p3659
sa(dp3660
g2
S'http://www.reuters.com/article/bondsNews/idUSL2032889120070824'
p3661
sg4
S'20070824\xc2\xa001:00 AM EDT'
p3662
sg6
S'DIARY - Germany - to September 22'
p3663
sa(dp3664
g2
S'http://www.reuters.com/article/economicNews/idUSL2033195620070824'
p3665
sg4
S'20070824\xc2\xa001:00 AM EDT'
p3666
sg6
S'DIARY - Today in Germany - August 24'
p3667
sa(dp3668
g2
S'http://www.reuters.com/article/economicNews/idUSL2016055520070824'
p3669
sg4
S'20070824\xc2\xa001:00 AM EDT'
p3670
sg6
S'DIARY - Economic Indicators in Germany from August 24'
p3671
sa(dp3672
g2
S'http://www.reuters.com/article/latestCrisis/idUSPEK238577'
p3673
sg4
S'20070824\xc2\xa012:59 AM EDT'
p3674
sg6
S"China stops activist's wife leaving country"
p3675
sa(dp3676
g2
S'http://www.reuters.com/article/sportsNews/idUSHO38256320070824'
p3677
sg4
S'20070824\xc2\xa012:53 AM EDT'
p3678
sg6
S"Jets' Kendall close to Redskins switch"
p3679
sa(dp3680
g2
S'http://www.reuters.com/article/consumerproducts-SP/idUSN2323437320070824'
p3681
sg4
S'20070824\xc2\xa012:48 AM EDT'
p3682
sg6
S'Hormel quarterly profit falls as costs rise'
p3683
sa(dp3684
g2
S'http://www.reuters.com/article/consumerproducts-SP/idUSBOM19740520070824'
p3685
sg4
S'20070824\xc2\xa012:48 AM EDT'
p3686
sg6
S"Hershey's Indian JV may sell two brands - report"
p3687
sa(dp3688
g2
S'http://www.reuters.com/article/sportsNews/idUSSP9034720070824'
p3689
sg4
S'20070824\xc2\xa012:40 AM EDT'
p3690
sg6
S'Cain stars as Giants slip past Cubs'
p3691
sa(dp3692
g2
S'http://www.reuters.com/article/latestCrisis/idUSPEK275057'
p3693
sg4
S'20070824\xc2\xa012:30 AM EDT'
p3694
sg6
S'Shaken by product safety woes, China declares "war"'
p3695
sa(dp3696
g2
S'http://www.reuters.com/article/companyNewsAndPR/idUST26321320070824'
p3697
sg4
S'20070824\xc2\xa012:28 AM EDT'
p3698
sg6
S'Tokyo stocks slip, banks and exporters edge lower'
p3699
sa(dp3700
g2
S'http://www.reuters.com/article/inPlayBriefing/idUSIN20070824002811WFMI20070824'
p3701
sg4
S'20070824\xc2\xa012:28 AM EDT'
p3702
sg6
S"Court denies FTC's request for stay pending appeal; Whole Foods and Wild Oats legally cleared to proceed with merger"
p3703
sa(dp3704
g2
S'http://www.reuters.com/article/marketsNews/idUSSYD13909120070824'
p3705
sg4
S'20070824\xc2\xa012:27 AM EDT'
p3706
sg6
S'UPDATE 2-Australia Caltex H1 profit up, production on track'
p3707
sa(dp3708
g2
S'http://www.reuters.com/article/inPlayBriefing/idUSIN20070824002445MENT20070824'
p3709
sg4
S'20070824\xc2\xa012:24 AM EDT'
p3710
sg6
S'Mentor Graphics clarifies Q3 outlook information in Thomson Financial conference call transcript '
p3711
sa(dp3712
g2
S'http://www.reuters.com/article/companyNewsAndPR/idUST13653620070824'
p3713
sg4
S'20070824\xc2\xa012:18 AM EDT'
p3714
sg6
S'JGB futures drift up as market debates BOJ outlook'
p3715
sa(dp3716
g2
S'http://www.reuters.com/article/companyNewsAndPR/idUSHKG20349020070824'
p3717
sg4
S'20070824\xc2\xa012:17 AM EDT'
p3718
sg6
S'PetroChina puts 10 pct target on foreign business'
p3719
sa(dp3720
g2
S'http://www.reuters.com/article/companyNewsAndPR/idUSTKV00288820070824'
p3721
sg4
S'20070824\xc2\xa012:15 AM EDT'
p3722
sg6
S'Japan LDP sec gen: Should examine BOJ, govt policies'
p3723
sa(dp3724
g2
S'http://www.reuters.com/article/companyNewsAndPR/idUSN23OSTBIZ20070824'
p3725
sg4
S'20070824\xc2\xa012:13 AM EDT'
p3726
sg6
S'PRESS DIGEST - Washington Post Business - Aug. 24'
p3727
sa(dp3728
g2
S'http://www.reuters.com/article/companyNewsAndPR/idUSL2460776620070824'
p3729
sg4
S'20070824\xc2\xa012:04 AM EDT'
p3730
sg6
S'PRESS DIGEST - Financial Times - Aug 24'
p3731
sa(dp3732
g2
S'http://www.reuters.com/article/companyNewsAndPR/idUSL247011520070824'
p3733
sg4
S'20070824\xc2\xa012:03 AM EDT'
p3734
sg6
S'PRESS DIGEST - British business - Aug 24'
p3735
sa(dp3736
g2
S'http://www.reuters.com/article/televisionNews/idUSN2240696820070824'
p3737
sg4
S'20070824\xc2\xa012:00 AM EDT'
p3738
sg6
S'Study: TV is taking a back seat to Web'
p3739
sa(dp3740
g2
S'http://www.reuters.com/article/bondsNews/idUSL0864350720070824'
p3741
sg4
S'20070824\xc2\xa012:00 AM EDT'
p3742
sg6
S'DIARY - Belgium to Oct 31, 2007'
p3743
sa(dp3744
g2
S'http://www.reuters.com/news/video/videoStory?storyID=b31add3d46ff93f07a82b17cbd86b5000743a7fb'
p3745
sg4
S'20070824\xc2\xa008:29 PM EDT'
p3746
sg6
S'Bones could be missing royals'
p3747
sa(dp3748
g2
S'http://www.reuters.com/news/video/videoStory?storyID=e548a68cde0394170513579845fc1a15e90923fb'
p3749
sg4
S'20070824\xc2\xa008:17 PM EDT'
p3750
sg6
S'Seven Palestinians killed by Israel'
p3751
sa(dp3752
g2
S'http://www.reuters.com/news/video/videoStory?storyID=597694820dc5a6675c81606785778129b2209765'
p3753
sg4
S'20070824\xc2\xa004:00 PM EDT'
p3754
sg6
S'Edwards attacks; Thompson in Iowa'
p3755
sa(dp3756
g2
S'http://www.reuters.com/news/video/videoStory?storyID=53c83fb5049779a901c3c1c160859be2502b47de'
p3757
sg4
S'20070824\xc2\xa003:12 PM EDT'
p3758
sg6
S'The Lookahead: Awaiting Bernanke'
p3759
sa(dp3760
g2
S'http://www.reuters.com/news/video/videoStory?storyID=49e6e8b68a35a4d3ccb772d8df8a036b872a33ab'
p3761
sg4
S'20070824\xc2\xa002:51 PM EDT'
p3762
sg6
S'Reuters Business Week'
p3763
sa(dp3764
g2
S'http://www.reuters.com/news/video/videoStory?storyID=c81093d1e6d44e628f9457fae4d3161abd10ef97'
p3765
sg4
S'20070824\xc2\xa002:44 PM EDT'
p3766
sg6
S'Author interview: Legacy of Ashes'
p3767
sa(dp3768
g2
S'http://www.reuters.com/news/video/videoStory?storyID=1884f31bff2e23556a1177b2843aaaeaada48d1b'
p3769
sg4
S'20070824\xc2\xa002:35 PM EDT'
p3770
sg6
S"Off-Broadway's fight for survival"
p3771
sa(dp3772
g2
S'http://www.reuters.com/news/video/videoStory?storyID=5fdc24cf2b1812c0dd570375982f2154841264f3'
p3773
sg4
S'20070824\xc2\xa002:24 PM EDT'
p3774
sg6
S'Home is where the Dow is'
p3775
sa(dp3776
g2
S'http://www.reuters.com/news/video/videoStory?storyID=b85998395fa2b71d4aaf447508a809fae6ce46ae'
p3777
sg4
S'20070824\xc2\xa002:08 PM EDT'
p3778
sg6
S'Flood cleanup starts in Illinois'
p3779
sa(dp3780
g2
S'http://www.reuters.com/news/video/videoStory?storyID=7c6928e3815d9fce8cf93ff790e9b460c29208d0'
p3781
sg4
S'20070824\xc2\xa001:28 PM EDT'
p3782
sg6
S"Sunken city echoes 'Atlantis'"
p3783
sa(dp3784
g2
S'http://www.reuters.com/news/video/videoStory?storyID=051ddfd43e2d737dea74bdfd8a768e8caabdbe49'
p3785
sg4
S'20070824\xc2\xa001:26 PM EDT'
p3786
sg6
S'The Update: Vick pleads guilty'
p3787
sa(dp3788
g2
S'http://www.reuters.com/news/video/videoStory?storyID=011bb95a8d65c0a494b8ef07a38882f5d726dbf6'
p3789
sg4
S'20070824\xc2\xa012:29 PM EDT'
p3790
sg6
S"'Friendly fire' kills British troops"
p3791
sa(dp3792
g2
S'http://www.reuters.com/news/video/videoStory?storyID=1f654d3269147315a874895e14a5aed9e1fbc913'
p3793
sg4
S'20070824\xc2\xa010:10 AM EDT'
p3794
sg6
S'The Update: Vick pleads guilty'
p3795
sa(dp3796
g2
S'http://www.reuters.com/news/video/videoStory?storyID=28813c635e0c95167d2f90a33d7d7bbee6866a14'
p3797
sg4
S'20070824\xc2\xa010:00 AM EDT'
p3798
sg6
S'Reuters Showbiz Week'
p3799
sa(dp3800
g2
S'http://www.reuters.com/news/video/videoStory?storyID=85960142ea6352ffcc4d2aa37a32d9f510e7eff0'
p3801
sg4
S'20070824\xc2\xa006:53 AM EDT'
p3802
sg6
S'European markets remain unsettled'
p3803
sa(dp3804
g2
S'http://www.reuters.com/news/video/videoStory?storyID=07cad3953037344325639c53d0391b6d8bbfc00b'
p3805
sg4
S'20070824\xc2\xa006:26 AM EDT'
p3806
sg6
S'Gunmen and U.S. forces clash in Iraq'
p3807
sa(dp3808
g2
S'http://www.reuters.com/news/video/videoStory?storyID=ada12f6f7c9a44aa96659024955dfed88bf2fe2e'
p3809
sg4
S'20070824\xc2\xa003:37 AM EDT'
p3810
sg6
S'Osaka hosts track championship'
p3811
sa(dp3812
g2
S'http://www.reuters.com/news/video/videoStory?storyID=04d9f3f587b06a1ff9b47f2f5a58f126662e364f'
p3813
sg4
S'20070824\xc2\xa003:34 AM EDT'
p3814
sg6
S'Asia falls on US economy fears '
p3815
sa(dp3816
g2
S'http://www.reuters.com/news/video/videoStory?storyID=6005dd37c211a44cfa1c82250bd1a1e6b49b047d'
p3817
sg4
S'20070824\xc2\xa003:16 AM EDT'
p3818
sg6
S'Mother reads hostage letter'
p3819
sa(dp3820
g2
S'http://www.reuters.com/news/video/videoStory?storyID=20117c58ec49a352acd10d5c9e71271888d36397'
p3821
sg4
S'20070824\xc2\xa003:03 AM EDT'
p3822
sg6
S"Deadly 'settling of scores'"
p3823
sa(dp3824
g2
S'http://www.reuters.com/news/video/videoStory?storyID=102912da07f43c951edee9cc86b82f6a2169cabf'
p3825
sg4
S'20070824\xc2\xa002:27 AM EDT'
p3826
sg6
S'The Update: Spanish terror returns'
p3827
sa(dp3828
g2
S'http://www.reuters.com/news/video/videoStory?storyID=08c3a41351c90242081aaf909379e8f12c7226f4'
p3829
sg4
S'20070824\xc2\xa002:01 AM EDT'
p3830
sg6
S'Basque country car bomb'
p3831
sa.