(lp0
(dp1
S'href'
p2
S'http://www.reuters.com/article/latestCrisis/idUSPEK86492'
p3
sS'ts'
p4
S'20071209\xc2\xa011:58 PM EST'
p5
sS'title'
p6
S'U.S. conciliatory on safety ahead of China summit'
p7
sa(dp8
g2
S'http://www.reuters.com/article/tokyoMktRpt/idUST9264220071210'
p9
sg4
S'20071209\xc2\xa011:53 PM EST'
p10
sg6
S'Japan stocks down, caution rules before econ events'
p11
sa(dp12
g2
S'http://www.reuters.com/article/companyNewsAndPR/idUST9397820071210'
p13
sg4
S'20071209\xc2\xa011:52 PM EST'
p14
sg6
S'Japan PM says to manage forex reserves carefully'
p15
sa(dp16
g2
S'http://www.reuters.com/article/pressRelease/idUS38156+10-Dec-2007+PRN20071210'
p17
sg4
S'20071209\xc2\xa011:49 PM EST'
p18
sg6
S'Novis Pharmaceuticals Hires Lisa Lopez'
p19
sa(dp20
g2
S'http://www.reuters.com/article/rbssEnergyNews/idUSDEL00083220071210'
p21
sg4
S'20071209\xc2\xa011:49 PM EST'
p22
sg6
S'Engineers India set for Egypt refinery study'
p23
sa(dp24
g2
S'http://www.reuters.com/article/rbssEnergyNews/idUSBOM31736120071210'
p25
sg4
S'20071209\xc2\xa011:45 PM EST'
p26
sg6
S"India's ONGC cuts gas supply after pipeline leak"
p27
sa(dp28
g2
S'http://www.reuters.com/article/companyNewsAndPR/idUSTKB00289420071210'
p29
sg4
S'20071209\xc2\xa011:43 PM EST'
p30
sg6
S'Nomura cuts 07/08 Japan Inc profit view, lifts 08/09'
p31
sa(dp32
g2
S'http://www.reuters.com/article/latestCrisis/idUSSEO140604'
p33
sg4
S'20071209\xc2\xa011:41 PM EST'
p34
sg6
S'South Korea counts cost of national park oil spill'
p35
sa(dp36
g2
S'http://www.reuters.com/article/rbssFinancialServicesAndRealEstateNews/idUSBMA00003020071210'
p37
sg4
S'20071209\xc2\xa011:36 PM EST'
p38
sg6
S'Indian shares choppy in early trade'
p39
sa(dp40
g2
S'http://www.reuters.com/article/lifestyleMolt/idUSSIN22693220071210'
p41
sg4
S'20071209\xc2\xa011:34 PM EST'
p42
sg6
S'Singapore eatery offers takeaway tiffins in green bid'
p43
sa(dp44
g2
S'http://www.reuters.com/article/latestCrisis/idUSPEK91227'
p45
sg4
S'20071209\xc2\xa011:32 PM EST'
p46
sg6
S'China hunts father-and-son bird flu link'
p47
sa(dp48
g2
S'http://www.reuters.com/article/rbssFinancialServicesAndRealEstateNews/idUSL1048951120071210'
p49
sg4
S'20071209\xc2\xa011:32 PM EST'
p50
sg6
S'BANCO COMERCIAL '
p51
sa(dp52
g2
S'http://www.reuters.com/article/mergersNews/idUSSYD13321420071210'
p53
sg4
S'20071209\xc2\xa011:32 PM EST'
p54
sg6
S"UPDATE 2-Australia's Nufarm ends bid talks with ChemChina"
p55
sa(dp56
g2
S'http://www.reuters.com/article/rbssConsumerGoodsAndRetailNews/idUSL1047251620071210'
p57
sg4
S'20071209\xc2\xa011:31 PM EST'
p58
sg6
S'PRESS DIGEST - FINANCIAL TIMES - DEC 10 =5'
p59
sa(dp60
g2
S'http://www.reuters.com/article/pressRelease/idUS36523+10-Dec-2007+PRN20071210'
p61
sg4
S'20071209\xc2\xa011:30 PM EST'
p62
sg6
S'Following Is a Test Release'
p63
sa(dp64
g2
S'http://www.reuters.com/article/newsMaps/idUSSYD21446120071210'
p65
sg4
S'20071209\xc2\xa011:21 PM EST'
p66
sg6
S'Australia unwinds tough Pacific immigration policy'
p67
sa(dp68
g2
S'http://www.reuters.com/article/topNews/idUSN0936931020071210'
p69
sg4
S'20071209\xc2\xa011:16 PM EST'
p70
sg6
S'Musharraf rejects U.S. action on militants'
p71
sa(dp72
g2
S'http://www.reuters.com/article/rbssFinancialServicesAndRealEstateNews/idUSTKV00291320071210'
p73
sg4
S'20071209\xc2\xa011:15 PM EST'
p74
sg6
S'Daiwa House takes 33% stake in Odakyu Construction'
p75
sa(dp76
g2
S'http://www.reuters.com/article/pressRelease/idUS35390+10-Dec-2007+PRN20071210'
p77
sg4
S'20071209\xc2\xa011:14 PM EST'
p78
sg6
S"Post Debate Statement from Gabriela Zabalua-Goddard, editor of AARP's Segunda Juventud..."
p79
sa(dp80
g2
S'http://www.reuters.com/article/rbssIndustryMaterialsUtilitiesNews/idUSDEL15963220071210'
p81
sg4
S'20071209\xc2\xa011:09 PM EST'
p82
sg6
S"India's STC launches wheat import tender"
p83
sa(dp84
g2
S'http://www.reuters.com/article/ousiv/idUSN0731463220071210'
p85
sg4
S'20071209\xc2\xa011:04 PM EST'
p86
sg6
S'Big Fed rate cut may spur a rally'
p87
sa(dp88
g2
S'http://www.reuters.com/article/mergersNews/idUSN0932991020071210'
p89
sg4
S'20071209\xc2\xa011:00 PM EST'
p90
sg6
S"French PM doesn't want Airbus jobs going overseas"
p91
sa(dp92
g2
S'http://www.reuters.com/article/pressRelease/idUS34098+10-Dec-2007+PRN20071210'
p93
sg4
S'20071209\xc2\xa011:00 PM EST'
p94
sg6
S'Following Is a Test Release'
p95
sa(dp96
g2
S'http://www.reuters.com/article/pressRelease/idUS34062+10-Dec-2007+BW20071210'
p97
sg4
S'20071209\xc2\xa011:00 PM EST'
p98
sg6
S"Research and Markets: New Report Examines OJSC Rosneft Oil Company's Business Structure..."
p99
sa(dp100
g2
S'http://www.reuters.com/article/pressRelease/idUS34060+10-Dec-2007+BW20071210'
p101
sg4
S'20071209\xc2\xa011:00 PM EST'
p102
sg6
S"Research and Markets: New Report Examines Dana Petroleum Plc's Business Structure..."
p103
sa(dp104
g2
S'http://www.reuters.com/article/pressRelease/idUS34058+10-Dec-2007+BW20071210'
p105
sg4
S'20071209\xc2\xa011:00 PM EST'
p106
sg6
S'Turkmenistan Energy Market Profile Is The Essential Source For Top-Level Energy Industry...'
p107
sa(dp108
g2
S'http://www.reuters.com/article/pressRelease/idUS34052+10-Dec-2007+BW20071210'
p109
sg4
S'20071209\xc2\xa011:00 PM EST'
p110
sg6
S'New Report Examines the Diverse Asian Broadband and Internet Markets'
p111
sa(dp112
g2
S'http://www.reuters.com/article/pressRelease/idUS34047+10-Dec-2007+BW20071210'
p113
sg4
S'20071209\xc2\xa011:00 PM EST'
p114
sg6
S'New Report Profiles Mobile Operators in Pakistan Including: Mobilink, Ufone, Paktel,...'
p115
sa(dp116
g2
S'http://www.reuters.com/article/latestCrisis/idUSSP164904'
p117
sg4
S'20071209\xc2\xa010:58 PM EST'
p118
sg6
S'Indian train with soldiers derails, one killed'
p119
sa(dp120
g2
S'http://www.reuters.com/article/televisionNews/idUSN0727052220071210'
p121
sg4
S'20071209\xc2\xa010:52 PM EST'
p122
sg6
S'Two-year USA scissor lock on WWE "Raw"'
p123
sa(dp124
g2
S'http://www.reuters.com/article/televisionNews/idUSN0726332720071210'
p125
sg4
S'20071209\xc2\xa010:52 PM EST'
p126
sg6
S'"Wipeout" pilot a reality for ABC'
p127
sa(dp128
g2
S'http://www.reuters.com/article/televisionNews/idUSN0626667620071210'
p129
sg4
S'20071209\xc2\xa010:52 PM EST'
p130
sg6
S'NBC News to eliminate 15-20 jobs'
p131
sa(dp132
g2
S'http://www.reuters.com/article/rbssEnergyNews/idUSBOM22847320071210'
p133
sg4
S'20071209\xc2\xa010:50 PM EST'
p134
sg6
S"India's IOC plans $9 bln refinery JV in Egypt-paper"
p135
sa(dp136
g2
S'http://www.reuters.com/article/topNews/idUSL0944165920071210'
p137
sg4
S'20071209\xc2\xa010:48 PM EST'
p138
sg6
S"Disgraced Jones's medals center stage at IOC meeting"
p139
sa(dp140
g2
S'http://www.reuters.com/article/filmNews/idUSN0724916220071210'
p141
sg4
S'20071209\xc2\xa010:37 PM EST'
p142
sg6
S'"Batman" sequel gets an Imax preview'
p143
sa(dp144
g2
S'http://www.reuters.com/article/pressRelease/idUS32064+10-Dec-2007+PRN20071210'
p145
sg4
S'20071209\xc2\xa010:30 PM EST'
p146
sg6
S'Following Is a Test Release'
p147
sa(dp148
g2
S'http://www.reuters.com/article/pressRelease/idUS32022+10-Dec-2007+BW20071210'
p149
sg4
S'20071209\xc2\xa010:30 PM EST'
p150
sg6
S'Timken and XEMC Announce Chinese Wind Energy Joint Venture'
p151
sa(dp152
g2
S'http://www.reuters.com/article/entertainmentNews/idUSN0926784820071210'
p153
sg4
S'20071209\xc2\xa010:27 PM EST'
p154
sg6
S'Hollywood pair killed by alleged drunk driver'
p155
sa(dp156
g2
S'http://www.reuters.com/article/newsMaps/idUSPEK8473820071210'
p157
sg4
S'20071209\xc2\xa010:26 PM EST'
p158
sg6
S'Trapped China miners ate paper, belt to survive'
p159
sa(dp160
g2
S'http://www.reuters.com/article/latestCrisis/idUSPEK84738'
p161
sg4
S'20071209\xc2\xa010:24 PM EST'
p162
sg6
S'Trapped China miners ate paper, belt to survive'
p163
sa(dp164
g2
S'http://www.reuters.com/article/filmNews/idUSN0726384520071210'
p165
sg4
S'20071209\xc2\xa010:22 PM EST'
p166
sg6
S'Gabriel Mann, Eliza Dushku on the "Case"'
p167
sa(dp168
g2
S'http://www.reuters.com/article/rbssFinancialServicesAndRealEstateNews/idUSSEO9184720071210'
p169
sg4
S'20071209\xc2\xa010:19 PM EST'
p170
sg6
S'Seoul shares fall on Samsung Heavy, China steps'
p171
sa(dp172
g2
S'http://www.reuters.com/article/latestCrisis/idUSL10186884'
p173
sg4
S'20071209\xc2\xa010:18 PM EST'
p174
sg6
S'U.N. Bali talks turn to finance to aid climate'
p175
sa(dp176
g2
S'http://www.reuters.com/article/latestCrisis/idUSSP207033'
p177
sg4
S'20071209\xc2\xa010:16 PM EST'
p178
sg6
S"Braving violence, Kashmir's lone cinema plays on"
p179
sa(dp180
g2
S'http://www.reuters.com/article/filmNews/idUSN0727280620071210'
p181
sg4
S'20071209\xc2\xa010:14 PM EST'
p182
sg6
S'Trumbo blacklist documentary coming to theaters'
p183
sa(dp184
g2
S'http://www.reuters.com/article/entertainmentNews/idUSN0835936220071210'
p185
sg4
S'20071209\xc2\xa010:13 PM EST'
p186
sg6
S'"Golden Compass" loses its way at U.S. box office'
p187
sa(dp188
g2
S'http://www.reuters.com/article/artsNews/idUSN0625114820071210'
p189
sg4
S'20071209\xc2\xa010:11 PM EST'
p190
sg6
S'"The Seafarer" both chilling and hilarious'
p191
sa(dp192
g2
S'http://www.reuters.com/article/rbssTechMediaTelecomNews/idUSL1047760620071210'
p193
sg4
S'20071209\xc2\xa010:11 PM EST'
p194
sg6
S'PRESS DIGEST - British Business - Dec 10 =6'
p195
sa(dp196
g2
S'http://www.reuters.com/article/bondsNews/idUST33619720071210'
p197
sg4
S'20071209\xc2\xa010:10 PM EST'
p198
sg6
S'JGB futures hit 1-mth low on US jobs, auction awaited'
p199
sa(dp200
g2
S'http://www.reuters.com/article/entertainmentNews/idUSN2639341620071210'
p201
sg4
S'20071209\xc2\xa010:10 PM EST'
p202
sg6
S'Broadway stagehands vote to approve new contract'
p203
sa(dp204
g2
S'http://www.reuters.com/article/entertainmentNews/idUSB43743620071210'
p205
sg4
S'20071209\xc2\xa010:10 PM EST'
p206
sg6
S'Broadway stagehands vote to approve new contract'
p207
sa(dp208
g2
S'http://www.reuters.com/article/ousivMolt/idUSN0925804420071210'
p209
sg4
S'20071209\xc2\xa010:06 PM EST'
p210
sg6
S'Shoppers to buy fewer gifts unless discounted: survey'
p211
sa(dp212
g2
S'http://www.reuters.com/article/bondsNews/idUST9264320071210'
p213
sg4
S'20071209\xc2\xa010:06 PM EST'
p214
sg6
S'TREASURIES-Inch up in Asia before Fed rate decision'
p215
sa(dp216
g2
S'http://www.reuters.com/article/environmentNews/idUSFLE01081720071210'
p217
sg4
S'20071209\xc2\xa010:03 PM EST'
p218
sg6
S'CORRECTED: Nations bicker in Bali over "green" goods trade'
p219
sa(dp220
g2
S'http://www.reuters.com/article/pressRelease/idUS29772+10-Dec-2007+PRN20071210'
p221
sg4
S'20071209\xc2\xa010:00 PM EST'
p222
sg6
S'Following Is a Test Release'
p223
sa(dp224
g2
S'http://www.reuters.com/article/pressRelease/idUS29718+10-Dec-2007+BW20071210'
p225
sg4
S'20071209\xc2\xa010:00 PM EST'
p226
sg6
S'Research and Markets: Understand Present Strengths, Weaknesses, Capabilities, Resources,...'
p227
sa(dp228
g2
S'http://www.reuters.com/article/pressRelease/idUS29722+10-Dec-2007+BW20071210'
p229
sg4
S'20071209\xc2\xa010:00 PM EST'
p230
sg6
S'Research and Markets: This Company Profile Offers a Comprehensive Analysis of United...'
p231
sa(dp232
g2
S'http://www.reuters.com/article/pressRelease/idUS29719+10-Dec-2007+BW20071210'
p233
sg4
S'20071209\xc2\xa010:00 PM EST'
p234
sg6
S'Big New Drivers in the Asian Telecom Market Include Broadband and IP Services, as...'
p235
sa(dp236
g2
S'http://www.reuters.com/article/rbssEnergyNews/idUSSYD21964820071210'
p237
sg4
S'20071209\xc2\xa009:59 PM EST'
p238
sg6
S'UPDATE 1-New Hope says will not up offer for Resource Pacific'
p239
sa(dp240
g2
S'http://www.reuters.com/article/latestCrisis/idUSSP198208'
p241
sg4
S'20071209\xc2\xa009:58 PM EST'
p242
sg6
S'Nations bicker in Bali over "green" goods tra'
p243
sa(dp244
g2
S'http://www.reuters.com/article/tokyoMktRpt/idUST9036520071210'
p245
sg4
S'20071209\xc2\xa009:55 PM EST'
p246
sg6
S'Japan stocks down on economy worries, awaiting FOMC'
p247
sa(dp248
g2
S'http://www.reuters.com/article/companyNewsAndPR/idUSBJB00043120071210'
p249
sg4
S'20071209\xc2\xa009:49 PM EST'
p250
sg6
S'Timken, Xiangtan Elect JV to build wind turbine bearings'
p251
sa(dp252
g2
S'http://www.reuters.com/article/hongkongMktRpt/idUSHKG30876120071210'
p253
sg4
S'20071209\xc2\xa009:48 PM EST'
p254
sg6
S'HK Hot Stocks: Chinese banks fall, Dongyue dives on debut'
p255
sa(dp256
g2
S'http://www.reuters.com/article/rbssIndustryMaterialsUtilitiesNews/idUSJAK20843820071210'
p257
sg4
S'20071209\xc2\xa009:44 PM EST'
p258
sg6
S"Indonesia's Gresik may issue $1 bln bond in January"
p259
sa(dp260
g2
S'http://www.reuters.com/article/rbssTechMediaTelecomNews/idUSKLA00646420071210'
p261
sg4
S'20071209\xc2\xa009:43 PM EST'
p262
sg6
S'Telekom Malaysia announces special dividend'
p263
sa(dp264
g2
S'http://www.reuters.com/article/rbssConsumerGoodsAndRetailNews/idUSHKG5007520071210'
p265
sg4
S'20071209\xc2\xa009:34 PM EST'
p266
sg6
S'UPDATE 1-Uni-President China prices $477 mln IPO at mid-range'
p267
sa(dp268
g2
S'http://www.reuters.com/article/rbssEnergyNews/idUSSYU00362620071210'
p269
sg4
S'20071209\xc2\xa009:32 PM EST'
p270
sg6
S'New Hope says will not up offer for Resource Pacific'
p271
sa(dp272
g2
S'http://www.reuters.com/article/peopleNews/idUSTAPELATE20071210'
p273
sg4
S'20071209\xc2\xa009:31 PM EST'
p274
sg6
S"Cut Kiefer Sutherland's Ford ads, Canada group says"
p275
sa(dp276
g2
S'http://www.reuters.com/article/pressRelease/idUS27307+10-Dec-2007+PRN20071210'
p277
sg4
S'20071209\xc2\xa009:30 PM EST'
p278
sg6
S'Following Is a Test Release'
p279
sa(dp280
g2
S'http://www.reuters.com/article/pressRelease/idUS27274+10-Dec-2007+BW20071210'
p281
sg4
S'20071209\xc2\xa009:30 PM EST'
p282
sg6
S'Chlorine Bleach in Indonesia Report Offers a Comprehensive Guide to the Size and...'
p283
sa(dp284
g2
S'http://www.reuters.com/article/privateEquity/idUSSIN13558420071210'
p285
sg4
S'20071209\xc2\xa009:26 PM EST'
p286
sg6
S"India's GMR, Macquarie to bid for S'pore power cos-report"
p287
sa(dp288
g2
S'http://www.reuters.com/article/newsOne/idUSN0933993820071210'
p289
sg4
S'20071209\xc2\xa009:24 PM EST'
p290
sg6
S'Republicans talk tough against illegal immigration'
p291
sa(dp292
g2
S'http://www.reuters.com/article/rbssIndustryMaterialsUtilitiesNews/idUSSYD10583820071210'
p293
sg4
S'20071209\xc2\xa009:20 PM EST'
p294
sg6
S'UPDATE 1-Australian state sees safe export of Magellan lead'
p295
sa(dp296
g2
S'http://www.reuters.com/article/rbssIndustryMaterialsUtilitiesNews/idUSSYD685420071210'
p297
sg4
S'20071209\xc2\xa009:17 PM EST'
p298
sg6
S'UPDATE 2-SP Ausnet scraps Alinta asset buy, shares jump'
p299
sa(dp300
g2
S'http://www.reuters.com/article/pressRelease/idUS26017+10-Dec-2007+BW20071210'
p301
sg4
S'20071209\xc2\xa009:17 PM EST'
p302
sg6
S"Univision's Historic Republican Presidential Forum Creates Unprecedented Connection..."
p303
sa(dp304
g2
S'http://www.reuters.com/article/hongkongMktRpt/idUSHKF07876520071210'
p305
sg4
S'20071209\xc2\xa009:12 PM EST'
p306
sg6
S'HK stock index up, China firms slip on reserve hike'
p307
sa(dp308
g2
S'http://www.reuters.com/article/tokyoMktRpt/idUST9204920071210'
p309
sg4
S'20071209\xc2\xa009:08 PM EST'
p310
sg6
S'Japan stocks down on economic worry, Fed move eyed'
p311
sa(dp312
g2
S'http://www.reuters.com/article/rbssIndustryMaterialsUtilitiesNews/idUST3132620071210'
p313
sg4
S'20071209\xc2\xa009:05 PM EST'
p314
sg6
S"UPDATE 1-Japan's Taiyo Yuden sues Taiwan DVD makers"
p315
sa(dp316
g2
S'http://www.reuters.com/article/bondsNews/idUSN0937170120071210'
p317
sg4
S'20071209\xc2\xa009:04 PM EST'
p318
sg6
S'UPDATE 3-US Republicans talk tough against illegal immigration'
p319
sa(dp320
g2
S'http://www.reuters.com/article/pressRelease/idUS24675+10-Dec-2007+BW20071210'
p321
sg4
S'20071209\xc2\xa009:04 PM EST'
p322
sg6
S'The 2007 North Asia Telecoms Market Report Contains Over 720 Pages of Research into...'
p323
sa(dp324
g2
S'http://www.reuters.com/article/pressRelease/idUS24289+10-Dec-2007+PRN20071210'
p325
sg4
S'20071209\xc2\xa009:00 PM EST'
p326
sg6
S'Following Is a Test Release'
p327
sa(dp328
g2
S'http://www.reuters.com/article/pressRelease/idUS24250+10-Dec-2007+BW20071210'
p329
sg4
S'20071209\xc2\xa009:00 PM EST'
p330
sg6
S'Research and Markets: Cooper Companies Inc - Deals And Alliances Report Offers Essential...'
p331
sa(dp332
g2
S'http://www.reuters.com/article/pressRelease/idUS24253+10-Dec-2007+BW20071210'
p333
sg4
S'20071209\xc2\xa009:00 PM EST'
p334
sg6
S'Net Care Launches Earthquake Early Warning Support Package'
p335
sa(dp336
g2
S'http://www.reuters.com/article/pressRelease/idUS24252+10-Dec-2007+BW20071210'
p337
sg4
S'20071209\xc2\xa009:00 PM EST'
p338
sg6
S'OKI Increases its Lineup of Power Management LSIs for Mobile Devices'
p339
sa(dp340
g2
S'http://www.reuters.com/article/rbssFinancialServicesAndRealEstateNews/idUSHKF07876420071210'
p341
sg4
S'20071209\xc2\xa008:55 PM EST'
p342
sg6
S"China's Dongyue shares flat in HK debut"
p343
sa(dp344
g2
S'http://www.reuters.com/article/mergersNews/idUSTFA00289820071210'
p345
sg4
S'20071209\xc2\xa008:47 PM EST'
p346
sg6
S'CORRECTED - CORRECTED-NIS announces $282 mln capital boost from TPG'
p347
sa(dp348
g2
S'http://www.reuters.com/article/pressRelease/idUS22889+10-Dec-2007+PRN20071210'
p349
sg4
S'20071209\xc2\xa008:44 PM EST'
p350
sg6
S'Phase III Trial of VELCADE(R) (Bortezomib) for Injection Showed Dramatic Fourfold...'
p351
sa(dp352
g2
S'http://www.reuters.com/article/privateEquity/idUSSEO9121320071210'
p353
sg4
S'20071209\xc2\xa008:42 PM EST'
p354
sg6
S'UPDATE 1-S.Korea Eugene to buy retailer Hi-mart for $2.1 bln'
p355
sa(dp356
g2
S'http://www.reuters.com/article/rbssIndustryMaterialsUtilitiesNews/idUSHKG8188620071210'
p357
sg4
S'20071209\xc2\xa008:33 PM EST'
p358
sg6
S'PRESS DIGEST - Hong Kong - Dec 10'
p359
sa(dp360
g2
S'http://www.reuters.com/article/hongkongMktRpt/idUSHKG36995520071210'
p361
sg4
S'20071209\xc2\xa008:32 PM EST'
p362
sg6
S'HK stocks set to fall, Chinese banks under pressure'
p363
sa(dp364
g2
S'http://www.reuters.com/article/bondsNews/idUSN0933069020071210'
p365
sg4
S'20071209\xc2\xa008:30 PM EST'
p366
sg6
S'UPDATE 2-South Americans to form independent regional bank'
p367
sa(dp368
g2
S'http://www.reuters.com/article/latestCrisis/idUSN09330690'
p369
sg4
S'20071209\xc2\xa008:30 PM EST'
p370
sg6
S'South Americans to form independent regional bank'
p371
sa(dp372
g2
S'http://www.reuters.com/article/pressRelease/idUS21263+10-Dec-2007+PRN20071210'
p373
sg4
S'20071209\xc2\xa008:30 PM EST'
p374
sg6
S'Following Is a Test Release'
p375
sa(dp376
g2
S'http://www.reuters.com/article/mergersNews/idUSTFA00289720071210'
p377
sg4
S'20071209\xc2\xa008:29 PM EST'
p378
sg6
S'NIS announces $304 mln capital boost from TPG'
p379
sa(dp380
g2
S'http://www.reuters.com/article/latestCrisis/idUSJAK140832'
p381
sg4
S'20071209\xc2\xa008:29 PM EST'
p382
sg6
S'PRESS DIGEST-Indonesian General News - Dec 10'
p383
sa(dp384
g2
S'http://www.reuters.com/article/ousiv/idUSL0867609420071210'
p385
sg4
S'20071209\xc2\xa008:22 PM EST'
p386
sg6
S'Gulf revaluation talks due in days: Bahrain'
p387
sa(dp388
g2
S'http://www.reuters.com/article/companyNewsAndPR/idUSKLR17008420071210'
p389
sg4
S'20071209\xc2\xa008:22 PM EST'
p390
sg6
S'UPDATE 1-Bursa Malaysia halts share trade over report'
p391
sa(dp392
g2
S'http://www.reuters.com/article/pressReleasesMolt/idUSN0934070020071210'
p393
sg4
S'20071209\xc2\xa008:21 PM EST'
p394
sg6
S'Citi board to meet, weigh CEO candidates: source'
p395
sa(dp396
g2
S'http://www.reuters.com/article/pressRelease/idUS19917+10-Dec-2007+PRN20071210'
p397
sg4
S'20071209\xc2\xa008:18 PM EST'
p398
sg6
S"Cook County Board Poised to Shut Down Cabela's Superstore"
p399
sa(dp400
g2
S'http://www.reuters.com/article/rbssIndustryMaterialsUtilitiesNews/idUSSYD11161020071210'
p401
sg4
S'20071209\xc2\xa008:16 PM EST'
p402
sg6
S'UPDATE 1-Midwest shares leap on Sinosteel rival bid'
p403
sa(dp404
g2
S'http://www.reuters.com/article/tokyoMktRpt/idUST30359420071210'
p405
sg4
S'20071209\xc2\xa008:06 PM EST'
p406
sg6
S'Japan stocks erase gains, waiting for FOMC'
p407
sa(dp408
g2
S'http://www.reuters.com/article/rbssIndustryMaterialsUtilitiesNews/idUSSYD21611520071210'
p409
sg4
S'20071209\xc2\xa008:03 PM EST'
p410
sg6
S'Australian state sees safe export of Magellan lead'
p411
sa(dp412
g2
S'http://www.reuters.com/article/rbssIndustryMaterialsUtilitiesNews/idUSKLR16005520071210'
p413
sg4
S'20071209\xc2\xa008:01 PM EST'
p414
sg6
S'PRESS DIGEST - Malaysia - Dec 10'
p415
sa(dp416
g2
S'http://www.reuters.com/article/pressRelease/idUS17985+10-Dec-2007+PRN20071210'
p417
sg4
S'20071209\xc2\xa008:00 PM EST'
p418
sg6
S'Following Is a Test Release'
p419
sa(dp420
g2
S'http://www.reuters.com/article/topNews/idUSN0933860420071210'
p421
sg4
S'20071209\xc2\xa008:00 PM EST'
p422
sg6
S'One dead, four wounded, shooter killed in Colorado'
p423
sa(dp424
g2
S'http://www.reuters.com/article/pressRelease/idUS17941+10-Dec-2007+BW20071210'
p425
sg4
S'20071209\xc2\xa008:00 PM EST'
p426
sg6
S'Samsung Techwin & I Power Energy Systems Announce New Cogeneration Product Development...'
p427
sa(dp428
g2
S'http://www.reuters.com/article/pressRelease/idUS17939+10-Dec-2007+BW20071210'
p429
sg4
S'20071209\xc2\xa008:00 PM EST'
p430
sg6
S'Emerging Technologies Provide a Stable Growth Platform for Fiber Optic Test Equipment...'
p431
sa(dp432
g2
S'http://www.reuters.com/article/pressRelease/idUS17938+10-Dec-2007+BW20071210'
p433
sg4
S'20071209\xc2\xa008:00 PM EST'
p434
sg6
S'New Insecticides in Taiwan Report Offers a Comprehensive Guide to the Size and Shape...'
p435
sa(dp436
g2
S'http://www.reuters.com/article/rbssIndustryMaterialsUtilitiesNews/idUSTFA00289620071210'
p437
sg4
S'20071209\xc2\xa007:57 PM EST'
p438
sg6
S"Japan's Taiyo Yuden sues Taiwan DVD makers"
p439
sa(dp440
g2
S'http://www.reuters.com/article/bondsNews/idUST9029220071210'
p441
sg4
S'20071209\xc2\xa007:52 PM EST'
p442
sg6
S'JGB futures hit 1-month low on U.S., Japan data'
p443
sa(dp444
g2
S'http://www.reuters.com/article/rbssFinancialServicesAndRealEstateNews/idUSJK22375220071210'
p445
sg4
S'20071209\xc2\xa007:51 PM EST'
p446
sg6
S'PRESS DIGEST-Indonesian Business News - Dec 10'
p447
sa(dp448
g2
S'http://www.reuters.com/article/companyNewsAndPR/idUSKLA00646220071210'
p449
sg4
S'20071209\xc2\xa007:51 PM EST'
p450
sg6
S'Bursa Malaysia says in talks with Chicago exchange'
p451
sa(dp452
g2
S'http://www.reuters.com/article/ousiv/idUSL0854728020071210'
p453
sg4
S'20071209\xc2\xa007:46 PM EST'
p454
sg6
S"Brazil's Vale said to be looking at Xstrata bid"
p455
sa(dp456
g2
S'http://www.reuters.com/article/worldNews/idUSL1868392220071210'
p457
sg4
S'20071209\xc2\xa007:43 PM EST'
p458
sg6
S'Arab Christians try new ways to sustain spirit'
p459
sa(dp460
g2
S'http://www.reuters.com/article/rbssFinancialServicesAndRealEstateNews/idUSKLA00646120071210'
p461
sg4
S'20071209\xc2\xa007:43 PM EST'
p462
sg6
S'Trade in shares of Bursa Malaysia suspended'
p463
sa(dp464
g2
S'http://www.reuters.com/article/rbssHealthcareNews/idUSKLR22312420071210'
p465
sg4
S'20071209\xc2\xa007:40 PM EST'
p466
sg6
S'Malaysia Hot Stocks-Market seen up on U.S. data, bluechips'
p467
sa(dp468
g2
S'http://www.reuters.com/article/worldNews/idUSN0123369220071210'
p469
sg4
S'20071209\xc2\xa007:38 PM EST'
p470
sg6
S'Canadian pig farmer convicted for serial killings'
p471
sa(dp472
g2
S'http://www.reuters.com/article/worldNews/idUSN0934020320071210'
p473
sg4
S'20071209\xc2\xa007:38 PM EST'
p474
sg6
S"FACTBOX: World's most deadly serial killers"
p475
sa(dp476
g2
S'http://www.reuters.com/article/latestCrisis/idUSN09340203'
p477
sg4
S'20071209\xc2\xa007:34 PM EST'
p478
sg6
S"FACTBOX-World's most deadly serial killers"
p479
sa(dp480
g2
S'http://www.reuters.com/article/rbssFinancialServicesAndRealEstateNews/idUSKLR16781120071210'
p481
sg4
S'20071209\xc2\xa007:30 PM EST'
p482
sg6
S'Malaysia Hot Stocks - Factors to watch'
p483
sa(dp484
g2
S'http://www.reuters.com/article/inDepthNews/idUSL0465786820071210'
p485
sg4
S'20071209\xc2\xa007:30 PM EST'
p486
sg6
S'Lebanese dump has stench of environmental neglect'
p487
sa(dp488
g2
S'http://www.reuters.com/article/pressRelease/idUS13751+10-Dec-2007+PRN20071210'
p489
sg4
S'20071209\xc2\xa007:30 PM EST'
p490
sg6
S'Alaska Airlines Inaugurates Anchorage-Honolulu Service'
p491
sa(dp492
g2
S'http://www.reuters.com/article/pressRelease/idUS13744+10-Dec-2007+PRN20071210'
p493
sg4
S'20071209\xc2\xa007:30 PM EST'
p494
sg6
S'Following Is a Test Release'
p495
sa(dp496
g2
S'http://www.reuters.com/article/rbssTechMediaTelecomNews/idUSKLA00646020071210'
p497
sg4
S'20071209\xc2\xa007:28 PM EST'
p498
sg6
S'Trade in shares of Telekom Malaysia suspended'
p499
sa(dp500
g2
S'http://www.reuters.com/article/rbssConsumerGoodsAndRetailNews/idUSHKG7256920071210'
p501
sg4
S'20071209\xc2\xa007:24 PM EST'
p502
sg6
S'Uni-President China prices $477 mln IPO at mid-range'
p503
sa(dp504
g2
S'http://www.reuters.com/article/companyNewsAndPR/idUSN0561998820071210'
p505
sg4
S'20071209\xc2\xa007:23 PM EST'
p506
sg6
S"Millennium's Velcade boosts survival in myeloma"
p507
sa(dp508
g2
S'http://www.reuters.com/article/privateEquity/idUSSEL00023720071210'
p509
sg4
S'20071209\xc2\xa007:19 PM EST'
p510
sg6
S'S.Korea Eugene to buy retailer Hi-mart for $2.1 bln'
p511
sa(dp512
g2
S'http://www.reuters.com/article/tokyoMktRpt/idUSTKU00290720071210'
p513
sg4
S'20071209\xc2\xa007:15 PM EST'
p514
sg6
S'Japan stocks rise on strong machinery orders'
p515
sa(dp516
g2
S'http://www.reuters.com/article/companyNewsAndPR/idUSSP17483020071210'
p517
sg4
S'20071209\xc2\xa007:13 PM EST'
p518
sg6
S'PRESS DIGEST-Financial Times, Wall St Journal Asia editions'
p519
sa(dp520
g2
S'http://www.reuters.com/article/rbssFinancialServicesAndRealEstateNews/idUSSEO2441020071210'
p521
sg4
S'20071209\xc2\xa007:13 PM EST'
p522
sg6
S'Seoul shares inches down, Samsung Heavy slides'
p523
sa(dp524
g2
S'http://www.reuters.com/article/bondsNews/idUSTKW00289420071210'
p525
sg4
S'20071209\xc2\xa007:09 PM EST'
p526
sg6
S'JGB 10-year futures fall to 1-month low'
p527
sa(dp528
g2
S'http://www.reuters.com/article/rbssFinancialServicesAndRealEstateNews/idUSSYU00362420071210'
p529
sg4
S'20071209\xc2\xa007:07 PM EST'
p530
sg6
S'Nufarm shares down 11 pct after ChemChina talks end'
p531
sa(dp532
g2
S'http://www.reuters.com/article/worldNews/idUSPEK8490920071210'
p533
sg4
S'20071209\xc2\xa007:04 PM EST'
p534
sg6
S'China deepens religious repression in Tibet: report'
p535
sa(dp536
g2
S'http://www.reuters.com/article/latestCrisis/idUSN07330126'
p537
sg4
S'20071209\xc2\xa007:01 PM EST'
p538
sg6
S'UNICEF cites child health progress, work remains'
p539
sa(dp540
g2
S'http://www.reuters.com/article/latestCrisis/idUSPEK84909'
p541
sg4
S'20071209\xc2\xa007:01 PM EST'
p542
sg6
S'China deepens religious repression in Tibet-report'
p543
sa(dp544
g2
S'http://www.reuters.com/article/pressRelease/idUS10147+10-Dec-2007+BW20071210'
p545
sg4
S'20071209\xc2\xa007:01 PM EST'
p546
sg6
S'Sucden Named Best Futures and Options Broker for 2007'
p547
sa(dp548
g2
S'http://www.reuters.com/article/economicNews/idUST17926920071210'
p549
sg4
S'20071209\xc2\xa007:00 PM EST'
p550
sg6
S'TABLE-Japan Nov outstanding bank loans +0.6% yr/yr'
p551
sa(dp552
g2
S'http://www.reuters.com/article/pressRelease/idUS10034+10-Dec-2007+PRN20071210'
p553
sg4
S'20071209\xc2\xa007:00 PM EST'
p554
sg6
S'Following Is a Test Release'
p555
sa(dp556
g2
S'http://www.reuters.com/article/pressRelease/idUS10012+10-Dec-2007+BW20071210'
p557
sg4
S'20071209\xc2\xa007:00 PM EST'
p558
sg6
S'New Report Presents Growth Drivers and Challenges Faced by Biofuel Manufacturers...'
p559
sa(dp560
g2
S'http://www.reuters.com/article/rbssFinancialServicesAndRealEstateNews/idUSSEO9032920071209'
p561
sg4
S'20071209\xc2\xa006:55 PM EST'
p562
sg6
S'PRESS DIGEST - South Korean newspapers - Dec 10'
p563
sa(dp564
g2
S'http://www.reuters.com/article/economicNews/idUST20739620071209'
p565
sg4
S'20071209\xc2\xa006:54 PM EST'
p566
sg6
S'TABLE-Japan Oct core machinery orders +12.7 pct m/m'
p567
sa(dp568
g2
S'http://www.reuters.com/article/rbssFinancialServicesAndRealEstateNews/idUSSYD13321420071209'
p569
sg4
S'20071209\xc2\xa006:52 PM EST'
p570
sg6
S"UPDATE 1-Australia's Nufarm says ends talks with ChemChina"
p571
sa(dp572
g2
S'http://www.reuters.com/article/pressRelease/idUS83048+09-Dec-2007+BW20071209'
p573
sg4
S'20071209\xc2\xa006:45 PM EST'
p574
sg6
S"Snapshot Of The Australian Enterprise Telephony Market For 2006, Including The Market's..."
p575
sa(dp576
g2
S'http://www.reuters.com/article/companyNewsAndPR/idUST28309220071209'
p577
sg4
S'20071209\xc2\xa006:38 PM EST'
p578
sg6
S'Foreign brokers place net Japan stock sell orders'
p579
sa(dp580
g2
S'http://www.reuters.com/article/rbssFinancialServicesAndRealEstateNews/idUSSEO6521120071209'
p581
sg4
S'20071209\xc2\xa006:31 PM EST'
p582
sg6
S'Seoul shares seen drifting after China tightening'
p583
sa(dp584
g2
S'http://www.reuters.com/article/rbssConsumerGoodsAndRetailNews/idUSSIN22326620071209'
p585
sg4
S'20071209\xc2\xa006:31 PM EST'
p586
sg6
S'HK Peace Mark to buy Singapore Sincere for $368 mln'
p587
sa(dp588
g2
S'http://www.reuters.com/article/peopleNews/idUSTP6841620071209'
p589
sg4
S'20071209\xc2\xa006:30 PM EST'
p590
sg6
S'Ang Lee\'s "Lust" gallops away with seven Golden Horses'
p591
sa(dp592
g2
S'http://www.reuters.com/article/peopleNews/idUSTAPELATE20071209'
p593
sg4
S'20071209\xc2\xa006:30 PM EST'
p594
sg6
S"Cut Kiefer Sutherland's Ford ads, Canada group says"
p595
sa(dp596
g2
S'http://www.reuters.com/article/peopleNews/idUSN0835025520071209'
p597
sg4
S'20071209\xc2\xa006:30 PM EST'
p598
sg6
S'Arrest warrant issued for actor Daniel Baldwin'
p599
sa(dp600
g2
S'http://www.reuters.com/article/peopleNews/idUSN0734379020071209'
p601
sg4
S'20071209\xc2\xa006:30 PM EST'
p602
sg6
S'Vivica A. Fox reaches plea deal for drunken driving'
p603
sa(dp604
g2
S'http://www.reuters.com/article/peopleNews/idUSN0733486920071209'
p605
sg4
S'20071209\xc2\xa006:30 PM EST'
p606
sg6
S'John Cusack aims high with low-budget film'
p607
sa(dp608
g2
S'http://www.reuters.com/article/peopleNews/idUSL0872398120071209'
p609
sg4
S'20071209\xc2\xa006:30 PM EST'
p610
sg6
S"Strummer's widow plans book of memorabilia"
p611
sa(dp612
g2
S'http://www.reuters.com/article/pressRelease/idUS81121+09-Dec-2007+PRN20071209'
p613
sg4
S'20071209\xc2\xa006:30 PM EST'
p614
sg6
S'Following Is a Test Release'
p615
sa(dp616
g2
S'http://www.reuters.com/article/topNews/idUSN0835312820071209'
p617
sg4
S'20071209\xc2\xa006:29 PM EST'
p618
sg6
S'Oprah tries to give Obama a lift with black voters'
p619
sa(dp620
g2
S'http://www.reuters.com/article/tokyoMktRpt/idUST6628220071209'
p621
sg4
S'20071209\xc2\xa006:28 PM EST'
p622
sg6
S'Moves in Tokyo stocks seen limited, eyes on Fed'
p623
sa(dp624
g2
S'http://www.reuters.com/article/politicsNews/idUSN0654798320071209'
p625
sg4
S'20071209\xc2\xa006:27 PM EST'
p626
sg6
S'CIA director to testify about destroyed tapes'
p627
sa(dp628
g2
S'http://www.reuters.com/article/latestCrisis/idUSN09337668'
p629
sg4
S'20071209\xc2\xa006:25 PM EST'
p630
sg6
S'CIA director to testify about destroyed tapes'
p631
sa(dp632
g2
S'http://www.reuters.com/article/rbssFinancialServicesAndRealEstateNews/idUSSYU00362320071209'
p633
sg4
S'20071209\xc2\xa006:15 PM EST'
p634
sg6
S"Australia's Nufarm says ends talks with ChemChina"
p635
sa(dp636
g2
S'http://www.reuters.com/article/rbssIndustryMaterialsUtilitiesNews/idUSSYD22374120071209'
p637
sg4
S'20071209\xc2\xa006:04 PM EST'
p638
sg6
S'UPDATE 1-Downer EDI says appoints Knox as new CEO'
p639
sa(dp640
g2
S'http://www.reuters.com/article/newsOne/idUSN0933225620071209'
p641
sg4
S'20071209\xc2\xa006:04 PM EST'
p642
sg6
S'Eight shot in two Colorado church incidents'
p643
sa(dp644
g2
S'http://www.reuters.com/article/worldNews/idUSN0123369220071209'
p645
sg4
S'20071209\xc2\xa006:02 PM EST'
p646
sg6
S'Canadian pig farmer convicted for serial killings'
p647
sa(dp648
g2
S'http://www.reuters.com/article/companyNewsAndPR/idUSN0932933920071209'
p649
sg4
S'20071209\xc2\xa006:00 PM EST'
p650
sg6
S"NYSE Euronext net grows as 'floor' shrinks-Barron's"
p651
sa(dp652
g2
S'http://www.reuters.com/article/rbssTechMediaTelecomNews/idUSSYD21119820071209'
p653
sg4
S'20071209\xc2\xa006:00 PM EST'
p654
sg6
S'UPDATE 1-Fairfax says to keep Rural Press radio assets'
p655
sa(dp656
g2
S'http://www.reuters.com/article/pressRelease/idUS78937+09-Dec-2007+MW20071209'
p657
sg4
S'20071209\xc2\xa006:00 PM EST'
p658
sg6
S' MethylGene and Pharmion Report Favorable Results for Phase II MGCD0103 Single-Agent Studies in Relapsed or Refractory'
p659
sa(dp660
g2
S'http://www.reuters.com/article/economicNews/idUSN0934192320071209'
p661
sg4
S'20071209\xc2\xa006:00 PM EST'
p662
sg6
S'U.S. Oct machine tool demand down 10.1 pct from Sept'
p663
sa(dp664
g2
S'http://www.reuters.com/article/governmentFilingsNews/idUSN0933435820071209'
p665
sg4
S'20071209\xc2\xa006:00 PM EST'
p666
sg6
S"Cephalon's Treanda works in type of leukemia-study"
p667
sa(dp668
g2
S'http://www.reuters.com/article/pressRelease/idUS78897+09-Dec-2007+PRN20071209'
p669
sg4
S'20071209\xc2\xa006:00 PM EST'
p670
sg6
S'Following Is a Test Release'
p671
sa(dp672
g2
S'http://www.reuters.com/article/pressRelease/idUS78891+09-Dec-2007+PRN20071209'
p673
sg4
S'20071209\xc2\xa006:00 PM EST'
p674
sg6
S'GOL Investor Update'
p675
sa(dp676
g2
S'http://www.reuters.com/article/pressRelease/idUS78879+09-Dec-2007+PRN20071209'
p677
sg4
S'20071209\xc2\xa006:00 PM EST'
p678
sg6
S'Pharmion and Methylgene Report Favorable Results for Phase 2 MGCD0103 Single- Agent...'
p679
sa(dp680
g2
S'http://www.reuters.com/article/pressRelease/idUS78846+09-Dec-2007+BW20071209'
p681
sg4
S'20071209\xc2\xa006:00 PM EST'
p682
sg6
S'GlycoMimetics, Inc. to Present Results of Lead Drug Candidate in Animal Models of...'
p683
sa(dp684
g2
S'http://www.reuters.com/article/musicNews/idUSN0931737220071209'
p685
sg4
S'20071209\xc2\xa005:54 PM EST'
p686
sg6
S'Springsteen plots N.J. stadium gigs next summer'
p687
sa(dp688
g2
S'http://www.reuters.com/article/musicNews/idUSN0833740920071209'
p689
sg4
S'20071209\xc2\xa005:54 PM EST'
p690
sg6
S'Forgotten gems reissued for music connoisseurs'
p691
sa(dp692
g2
S'http://www.reuters.com/article/entertainmentNews/idUSFLE98232120071209'
p693
sg4
S'20071209\xc2\xa005:53 PM EST'
p694
sg6
S'Ashlee Simpson out of her head with new single'
p695
sa(dp696
g2
S'http://www.reuters.com/article/companyNewsAndPR/idUSN0933576420071209'
p697
sg4
S'20071209\xc2\xa005:51 PM EST'
p698
sg6
S"Celgene's Revlimid delays myeloma progression"
p699
sa(dp700
g2
S'http://www.reuters.com/article/filmNews/idUSN0724916220071209'
p701
sg4
S'20071209\xc2\xa005:50 PM EST'
p702
sg6
S'"Batman" sequel gets an Imax preview'
p703
sa(dp704
g2
S'http://www.reuters.com/article/filmNews/idUSSYD16679820071209'
p705
sg4
S'20071209\xc2\xa005:50 PM EST'
p706
sg6
S'Eric Bana wins Australia\'s best actor "Oscar"'
p707
sa(dp708
g2
S'http://www.reuters.com/article/filmNews/idUSN0727280620071209'
p709
sg4
S'20071209\xc2\xa005:50 PM EST'
p710
sg6
S'Trumbo blacklist documentary coming to theaters'
p711
sa(dp712
g2
S'http://www.reuters.com/article/filmNews/idUSN0726860920071209'
p713
sg4
S'20071209\xc2\xa005:50 PM EST'
p714
sg6
S"Recalling Oscar's past brush with strike"
p715
sa(dp716
g2
S'http://www.reuters.com/article/filmNews/idUSN0726794520071209'
p717
sg4
S'20071209\xc2\xa005:50 PM EST'
p718
sg6
S'Michelle Williams haunts Scorsese mystery drama'
p719
sa(dp720
g2
S'http://www.reuters.com/article/filmNews/idUSN0726384520071209'
p721
sg4
S'20071209\xc2\xa005:50 PM EST'
p722
sg6
S'Gabriel Mann, Eliza Dushku on the "Case"'
p723
sa(dp724
g2
S'http://www.reuters.com/article/inDepthNews/idUSN0763684920071209'
p725
sg4
S'20071209\xc2\xa005:50 PM EST'
p726
sg6
S'"Lost Holiday" a poignant family drama'
p727
sa(dp728
g2
S'http://www.reuters.com/article/rbssIndustryMaterialsUtilitiesNews/idUSSYU00362220071209'
p729
sg4
S'20071209\xc2\xa005:49 PM EST'
p730
sg6
S'Downer EDI says appoints Knox as new CEO'
p731
sa(dp732
g2
S'http://www.reuters.com/article/rbssTechMediaTelecomNews/idUSSYU00362120071209'
p733
sg4
S'20071209\xc2\xa005:48 PM EST'
p734
sg6
S'Fairfax says to keep Rural Press radio assets'
p735
sa(dp736
g2
S'http://www.reuters.com/article/pressRelease/idUS77918+09-Dec-2007+BW20071209'
p737
sg4
S'20071209\xc2\xa005:44 PM EST'
p738
sg6
S'Nine in 10 at U.N. Climate Change Conference Believe Greenwashing is a Problem'
p739
sa(dp740
g2
S'http://www.reuters.com/article/sportsNews/idUSHO98156320071209'
p741
sg4
S'20071209\xc2\xa005:42 PM EST'
p742
sg6
S'Cowboys rally to beat Lions, Packers seal NFC North title'
p743
sa(dp744
g2
S'http://www.reuters.com/article/pressRelease/idUS77728+09-Dec-2007+PRN20071209'
p745
sg4
S'20071209\xc2\xa005:40 PM EST'
p746
sg6
S'Highest Reported Complete Remission Rate of 35 Percent Achieved in a Phase III Front-Line...'
p747
sa(dp748
g2
S'http://www.reuters.com/article/pressRelease/idUS77292+09-Dec-2007+PRN20071209'
p749
sg4
S'20071209\xc2\xa005:30 PM EST'
p750
sg6
S'Following Is a Test Release'
p751
sa(dp752
g2
S'http://www.reuters.com/article/rbssHealthcareNews/idUSL0734856220071209'
p753
sg4
S'20071209\xc2\xa005:30 PM EST'
p754
sg6
S'Novartis says Tasigna effective in early leukaemia'
p755
sa(dp756
g2
S'http://www.reuters.com/article/companyNewsAndPR/idUSN0933545120071209'
p757
sg4
S'20071209\xc2\xa005:27 PM EST'
p758
sg6
S"UPDATE 1-Celgene's Revlimid shows survival benefit-trial"
p759
sa(dp760
g2
S'http://www.reuters.com/article/businessNews/idUSN0936670620071209'
p761
sg4
S'20071209\xc2\xa005:25 PM EST'
p762
sg6
S"JPMorgan ducks subprime, poised to grow: Barron's"
p763
sa(dp764
g2
S'http://www.reuters.com/article/fundsFundsNews/idUSN0933516820071209'
p765
sg4
S'20071209\xc2\xa005:24 PM EST'
p766
sg6
S"UPDATE 1-JPMorgan ducks subprime, poised to grow -Barron's"
p767
sa(dp768
g2
S'http://www.reuters.com/article/companyNewsAndPR/idUSN0933143720071209'
p769
sg4
S'20071209\xc2\xa005:23 PM EST'
p770
sg6
S'BP L.A. refinery reports reports flaring-state'
p771
sa(dp772
g2
S'http://www.reuters.com/article/musicNews/idUSN0931737120071209'
p773
sg4
S'20071209\xc2\xa005:21 PM EST'
p774
sg6
S'Ashlee Simpson out of her head with new single'
p775
sa(dp776
g2
S'http://www.reuters.com/article/rbssIndustryMaterialsUtilitiesNews/idUSSYD685420071209'
p777
sg4
S'20071209\xc2\xa005:19 PM EST'
p778
sg6
S'UPDATE 1-SP Ausnet says scraps plan to buy Alinta assets'
p779
sa(dp780
g2
S'http://www.reuters.com/article/pressRelease/idUS76274+09-Dec-2007+BW20071209'
p781
sg4
S'20071209\xc2\xa005:13 PM EST'
p782
sg6
S"Gov. Crist Takes Green Visit To Florida's Largest Building Integrated Photovoltaic..."
p783
sa(dp784
g2
S'http://www.reuters.com/article/musicNews/idUSN0833749920071209'
p785
sg4
S'20071209\xc2\xa005:03 PM EST'
p786
sg6
S'Reba McEntire, Hallmark to release love songs CD'
p787
sa(dp788
g2
S'http://www.reuters.com/article/internetNews/idUSN0933738520071209'
p789
sg4
S'20071209\xc2\xa005:03 PM EST'
p790
sg6
S'New Web site encourages fan remixes and interaction'
p791
sa(dp792
g2
S'http://www.reuters.com/article/pressRelease/idUS75372+09-Dec-2007+PRN20071209'
p793
sg4
S'20071209\xc2\xa005:00 PM EST'
p794
sg6
S'Following Is a Test Release'
p795
sa(dp796
g2
S'http://www.reuters.com/article/pressRelease/idUS75369+09-Dec-2007+PRN20071209'
p797
sg4
S'20071209\xc2\xa005:00 PM EST'
p798
sg6
S'Thalidomide Added to Standard Therapy Prolongs Overall Survival in Newly Diagnosed...'
p799
sa(dp800
g2
S'http://www.reuters.com/article/topNews/idUSL0864778620071209'
p801
sg4
S'20071209\xc2\xa004:56 PM EST'
p802
sg6
S'Gordon Brown makes unannounced visit to Iraq'
p803
sa(dp804
g2
S'http://www.reuters.com/article/topNews/idUSL0943437220071209'
p805
sg4
S'20071209\xc2\xa004:56 PM EST'
p806
sg6
S"Britain's Iraq war is ending. Who won?"
p807
sa(dp808
g2
S'http://www.reuters.com/article/sportsNews/idUSL09231720071209'
p809
sg4
S'20071209\xc2\xa004:47 PM EST'
p810
sg6
S'Hosp wins Aspen slalom to go top'
p811
sa(dp812
g2
S'http://www.reuters.com/article/sportsNews/idUSISS37190220071209'
p813
sg4
S'20071209\xc2\xa004:46 PM EST'
p814
sg6
S"World Cup women's standings"
p815
sa(dp816
g2
S'http://www.reuters.com/article/rbssIndustryMaterialsUtilitiesNews/idUSSYU00362020071209'
p817
sg4
S'20071209\xc2\xa004:40 PM EST'
p818
sg6
S'SP Ausnet says scraps plan to buy Alinta assets'
p819
sa(dp820
g2
S'http://www.reuters.com/article/worldNews/idUSNC732967220071209'
p821
sg4
S'20071209\xc2\xa004:36 PM EST'
p822
sg6
S'Haitians struggle with rising costs despite gains'
p823
sa(dp824
g2
S'http://www.reuters.com/article/pressRelease/idUS73969+09-Dec-2007+BW20071209'
p825
sg4
S'20071209\xc2\xa004:35 PM EST'
p826
sg6
S'SWOG Phase III Trial Reports REVLIMID(R) (lenalidomide) Plus Dexamethasone Achieves...'
p827
sa(dp828
g2
S'http://www.reuters.com/article/pressRelease/idUS73765+09-Dec-2007+PRN20071209'
p829
sg4
S'20071209\xc2\xa004:33 PM EST'
p830
sg6
S'Photo: New Data Show Gleevec(R) Halts Progression to Advanced Stages of Life-Threatening...'
p831
sa(dp832
g2
S'http://www.reuters.com/article/pressRelease/idUS73393+09-Dec-2007+PRN20071209'
p833
sg4
S'20071209\xc2\xa004:30 PM EST'
p834
sg6
S'Following Is a Test Release'
p835
sa(dp836
g2
S'http://www.reuters.com/article/rbssHealthcareNews/idUSL0760515220071209'
p837
sg4
S'20071209\xc2\xa004:30 PM EST'
p838
sg6
S'Novartis says Glivec stops leukaemia progression'
p839
sa(dp840
g2
S'http://www.reuters.com/article/bondsNews/idUSN0932760620071209'
p841
sg4
S'20071209\xc2\xa004:29 PM EST'
p842
sg6
S"World Bank arm to sell stake in Singapore's Olam"
p843
sa(dp844
g2
S'http://www.reuters.com/article/artsNews/idUSN0834183620071209'
p845
sg4
S'20071209\xc2\xa004:29 PM EST'
p846
sg6
S'Forgotten Mark Twain play makes Broadway debut'
p847
sa(dp848
g2
S'http://www.reuters.com/article/artsNews/idUSN0755765820071209'
p849
sg4
S'20071209\xc2\xa004:29 PM EST'
p850
sg6
S"McGregor, Ejiofor in splendid new 'Othello'"
p851
sa(dp852
g2
S'http://www.reuters.com/article/artsNews/idUSN0625114820071209'
p853
sg4
S'20071209\xc2\xa004:29 PM EST'
p854
sg6
S'"The Seafarer" both chilling and hilarious'
p855
sa(dp856
g2
S'http://www.reuters.com/article/artsNews/idUSL0738344120071209'
p857
sg4
S'20071209\xc2\xa004:29 PM EST'
p858
sg6
S'Pioneering German composer Stockhausen dies'
p859
sa(dp860
g2
S'http://www.reuters.com/article/artsNews/idUSL0661609220071209'
p861
sg4
S'20071209\xc2\xa004:29 PM EST'
p862
sg6
S'La Scala opens season with applause for "Tristan"'
p863
sa(dp864
g2
S'http://www.reuters.com/article/industryNews/idUSN0731291820071209'
p865
sg4
S'20071209\xc2\xa004:29 PM EST'
p866
sg6
S"Murdoch's steward picked for key Dow Jones role"
p867
sa(dp868
g2
S'http://www.reuters.com/article/industryNews/idUSN0730720720071209'
p869
sg4
S'20071209\xc2\xa004:29 PM EST'
p870
sg6
S'U.S. court lets stand Verizon deregulation'
p871
sa(dp872
g2
S'http://www.reuters.com/article/industryNews/idUSN0726667020071209'
p873
sg4
S'20071209\xc2\xa004:29 PM EST'
p874
sg6
S'Bravo renews reality duo'
p875
sa(dp876
g2
S'http://www.reuters.com/article/industryNews/idUSN0620420320071209'
p877
sg4
S'20071209\xc2\xa004:29 PM EST'
p878
sg6
S'"Medium" cool as anchor of NBC makeover'
p879
sa(dp880
g2
S'http://www.reuters.com/article/industryNews/idUSWNA884620071209'
p881
sg4
S'20071209\xc2\xa004:29 PM EST'
p882
sg6
S'IMAX shares soar after theater deal with AMC'
p883
sa(dp884
g2
S'http://www.reuters.com/article/industryNews/idUSWEN286520071209'
p885
sg4
S'20071209\xc2\xa004:29 PM EST'
p886
sg6
S'Macrovision to buy Gemstar-TV'
p887
sa(dp888
g2
S'http://www.reuters.com/article/entertainmentNews/idUSN2639341620071209'
p889
sg4
S'20071209\xc2\xa004:28 PM EST'
p890
sg6
S'Broadway stagehands vote to approve new contract'
p891
sa(dp892
g2
S'http://www.reuters.com/article/latestCrisis/idUSNC7329672'
p893
sg4
S'20071209\xc2\xa004:27 PM EST'
p894
sg6
S'Haitians struggle with rising costs despite gains'
p895
sa(dp896
g2
S'http://www.reuters.com/article/mediaNews/idUSB43743620071209'
p897
sg4
S'20071209\xc2\xa004:24 PM EST'
p898
sg6
S'Broadway stagehands vote to approve new contract'
p899
sa(dp900
g2
S'http://www.reuters.com/article/entertainmentNews/idUSN0835936220071209'
p901
sg4
S'20071209\xc2\xa004:17 PM EST'
p902
sg6
S'"Golden Compass" loses its way at box office'
p903
sa(dp904
g2
S'http://www.reuters.com/article/companyNewsAndPR/idUSN0933149320071209'
p905
sg4
S'20071209\xc2\xa004:12 PM EST'
p906
sg6
S"UPDATE 1-'Golden Compass' loses its way at U.S. box office"
p907
sa(dp908
g2
S'http://www.reuters.com/article/companyNewsAndPR/idUSL0943701020071209'
p909
sg4
S'20071209\xc2\xa004:12 PM EST'
p910
sg6
S'UPDATE 1-EADS to sell 1,300 aircraft this year -CEO in paper'
p911
sa(dp912
g2
S'http://www.reuters.com/article/televisionNews/idUSN0624145120071209'
p913
sg4
S'20071209\xc2\xa004:12 PM EST'
p914
sg6
S'Barbara Walters tired of celebrity interviews'
p915
sa(dp916
g2
S'http://www.reuters.com/article/televisionNews/idUSN0759262020071209'
p917
sg4
S'20071209\xc2\xa004:12 PM EST'
p918
sg6
S'Striking writers and studios break off talks again'
p919
sa(dp920
g2
S'http://www.reuters.com/article/televisionNews/idUSN0727052220071209'
p921
sg4
S'20071209\xc2\xa004:12 PM EST'
p922
sg6
S'Two-year USA scissor lock on WWE "Raw"'
p923
sa(dp924
g2
S'http://www.reuters.com/article/televisionNews/idUSN0726332720071209'
p925
sg4
S'20071209\xc2\xa004:12 PM EST'
p926
sg6
S'"Wipeout" pilot a reality for ABC'
p927
sa(dp928
g2
S'http://www.reuters.com/article/televisionNews/idUSN0626667620071209'
p929
sg4
S'20071209\xc2\xa004:12 PM EST'
p930
sg6
S'NBC News to eliminate 15-20 jobs'
p931
sa(dp932
g2
S'http://www.reuters.com/article/entertainmentNews/idUSN0932830220071209'
p933
sg4
S'20071209\xc2\xa004:11 PM EST'
p934
sg6
S"Idled Hollywood workers urge end to writers' strike"
p935
sa(dp936
g2
S'http://www.reuters.com/article/newsMaps/idUSN0925648520071209'
p937
sg4
S'20071209\xc2\xa004:06 PM EST'
p938
sg6
S'TIMELINE: Case of Canadian convicted in prostitute murders'
p939
sa(dp940
g2
S'http://www.reuters.com/article/newsMaps/idUSN0937450320071209'
p941
sg4
S'20071209\xc2\xa004:04 PM EST'
p942
sg6
S'Cuban human rights activists march for jailed kin'
p943
sa(dp944
g2
S'http://www.reuters.com/article/pressRelease/idUS71880+09-Dec-2007+PRN20071209'
p945
sg4
S'20071209\xc2\xa004:00 PM EST'
p946
sg6
S'Following Is a Test Release'
p947
sa(dp948
g2
S'http://www.reuters.com/article/pressRelease/idUS71870+09-Dec-2007+BW20071209'
p949
sg4
S'20071209\xc2\xa004:00 PM EST'
p950
sg6
S'Interbank FX Honored as Best Foreign Exchange Broker'
p951
sa(dp952
g2
S'http://www.reuters.com/article/topNews/idUSN0936931020071209'
p953
sg4
S'20071209\xc2\xa003:56 PM EST'
p954
sg6
S'Musharraf rejects U.S. action on militants'
p955
sa(dp956
g2
S'http://www.reuters.com/article/latestCrisis/idUSN09372962'
p957
sg4
S'20071209\xc2\xa003:53 PM EST'
p958
sg6
S'Colombia wants Red Cross to visit jungle hostages'
p959
sa(dp960
g2
S'http://www.reuters.com/article/pressRelease/idUS71452+09-Dec-2007+PRN20071209'
p961
sg4
S'20071209\xc2\xa003:51 PM EST'
p962
sg6
S'NEWSWEEK: International Editions: Highlights and Exclusives, December 17, 2007 Issue'
p963
sa(dp964
g2
S'http://www.reuters.com/article/worldNews/idUSL0935992220071209'
p965
sg4
S'20071209\xc2\xa003:48 PM EST'
p966
sg6
S'Plane crashes in Ukraine killing 5 on board'
p967
sa(dp968
g2
S'http://www.reuters.com/article/bondsNews/idUSN0933069020071209'
p969
sg4
S'20071209\xc2\xa003:44 PM EST'
p970
sg6
S'UPDATE 1-South Americans to form independent regional bank'
p971
sa(dp972
g2
S'http://www.reuters.com/article/pressRelease/idUS70860+09-Dec-2007+PRN20071209'
p973
sg4
S'20071209\xc2\xa003:39 PM EST'
p974
sg6
S'Rudy in State of Denial on Meet the Press, says DNC'
p975
sa(dp976
g2
S'http://www.reuters.com/article/latestCrisis/idUSL09359922'
p977
sg4
S'20071209\xc2\xa003:36 PM EST'
p978
sg6
S'Plane crashes in Ukraine killing 5 on board'
p979
sa(dp980
g2
S'http://www.reuters.com/article/pressRelease/idUS70356+09-Dec-2007+PRN20071209'
p981
sg4
S'20071209\xc2\xa003:30 PM EST'
p982
sg6
S'Following Is a Test Release'
p983
sa(dp984
g2
S'http://www.reuters.com/article/featuredCrisis/idUSL09290511'
p985
sg4
S'20071209\xc2\xa003:30 PM EST'
p986
sg6
S"UK's Brown in Iraq, bomb kills police chief"
p987
sa(dp988
g2
S'http://www.reuters.com/article/latestCrisis/idUSN09327369'
p989
sg4
S'20071209\xc2\xa003:29 PM EST'
p990
sg6
S'Bolivia constitution advances, opposition boycotts'
p991
sa(dp992
g2
S'http://www.reuters.com/article/pressRelease/idUS70231+09-Dec-2007+PRN20071209'
p993
sg4
S'20071209\xc2\xa003:26 PM EST'
p994
sg6
S'Federal Judge Says Sugar Association Suit Accusing Johnson & Johnson of False Advertising...'
p995
sa(dp996
g2
S'http://www.reuters.com/article/featuredCrisis/idUSL09434372'
p997
sg4
S'20071209\xc2\xa003:15 PM EST'
p998
sg6
S"ANALYSIS-Britain's Iraq war is ending. Who won?"
p999
sa(dp1000
g2
S'http://www.reuters.com/article/businessEditorsPick/idUSL0638519320071209'
p1001
sg4
S'20071209\xc2\xa003:14 PM EST'
p1002
sg6
S"WITNESS: DNA tests don't always help uncover family roots"
p1003
sa(dp1004
g2
S'http://www.reuters.com/article/featuredCrisis/idUSL09249564'
p1005
sg4
S'20071209\xc2\xa003:09 PM EST'
p1006
sg6
S"UK's Brown on unannounced visit to troops in Iraq"
p1007
sa(dp1008
g2
S'http://www.reuters.com/article/companyNewsAndPR/idUSWEN287720071209'
p1009
sg4
S'20071209\xc2\xa003:08 PM EST'
p1010
sg6
S'Celgene says Phase 3 trials show Revlimid effective'
p1011
sa(dp1012
g2
S'http://www.reuters.com/article/topNews/idUSISL21317620071209'
p1013
sg4
S'20071209\xc2\xa003:07 PM EST'
p1014
sg6
S'Taliban leaders seized in assault on Afghan town'
p1015
sa(dp1016
g2
S'http://www.reuters.com/article/topNews/idUSL0941699220071209'
p1017
sg4
S'20071209\xc2\xa003:07 PM EST'
p1018
sg6
S'No big rise in UK troops in Afghanistan: minister'
p1019
sa(dp1020
g2
S'http://www.reuters.com/article/entertainmentNews/idUSN0934596220071209'
p1021
sg4
S'20071209\xc2\xa003:05 PM EST'
p1022
sg6
S'As Hollywood writers strike, commercials film on'
p1023
sa(dp1024
g2
S'http://www.reuters.com/article/featuredCrisis/idUSL09238950'
p1025
sg4
S'20071209\xc2\xa003:02 PM EST'
p1026
sg6
S"UK's Brown makes unannounced visit to Iraq base"
p1027
sa(dp1028
g2
S'http://www.reuters.com/article/pressRelease/idUS68857+09-Dec-2007+PRN20071209'
p1029
sg4
S'20071209\xc2\xa003:00 PM EST'
p1030
sg6
S'Following Is a Test Release'
p1031
sa(dp1032
g2
S'http://www.reuters.com/article/featuredCrisis/idUSL09416992'
p1033
sg4
S'20071209\xc2\xa002:58 PM EST'
p1034
sg6
S'No big rise in UK troops in Afghanistan-minister'
p1035
sa(dp1036
g2
S'http://www.reuters.com/article/companyNewsAndPR/idUSLA42861620071209'
p1037
sg4
S'20071209\xc2\xa002:57 PM EST'
p1038
sg6
S'EADS to sell 1,300 aircraft this year-CEO in paper'
p1039
sa(dp1040
g2
S'http://www.reuters.com/article/tnBasicIndustries-SP/idUSL0958420620071209'
p1041
sg4
S'20071209\xc2\xa002:51 PM EST'
p1042
sg6
S'UPDATE 1-Lagardere leans on France over Airbus jobs plan'
p1043
sa(dp1044
g2
S'http://www.reuters.com/article/topNews/idUSL0941337420071209'
p1045
sg4
S'20071209\xc2\xa002:48 PM EST'
p1046
sg6
S'AP photographer in first Iraq court hearing'
p1047
sa(dp1048
g2
S'http://www.reuters.com/article/politicsNews/idUSN0761345920071209'
p1049
sg4
S'20071209\xc2\xa002:47 PM EST'
p1050
sg6
S'Politics, faith fuel talk at S.Carolina hair salon'
p1051
sa(dp1052
g2
S'http://www.reuters.com/article/pressRelease/idUS67652+09-Dec-2007+BW20071209'
p1053
sg4
S'20071209\xc2\xa002:34 PM EST'
p1054
sg6
S'REVLIMID(R) (Lenalidomide) Plus Low-Dose Dexamethasone Achieves Unprecedented Survival...'
p1055
sa(dp1056
g2
S'http://www.reuters.com/article/pressRelease/idUS67547+09-Dec-2007+PRN20071209'
p1057
sg4
S'20071209\xc2\xa002:30 PM EST'
p1058
sg6
S'Following Is a Test Release'
p1059
sa(dp1060
g2
S'http://www.reuters.com/article/healthNews/idUSN0935659520071209'
p1061
sg4
S'20071209\xc2\xa002:27 PM EST'
p1062
sg6
S'Scientists discover how BRCA1 gene causes cancer'
p1063
sa(dp1064
g2
S'http://www.reuters.com/article/ousiv/idUSN2919957120071209'
p1065
sg4
S'20071209\xc2\xa002:22 PM EST'
p1066
sg6
S'UnitedHealth, Brocade change options landscape'
p1067
sa(dp1068
g2
S'http://www.reuters.com/article/ousiv/idUSL0854728020071209'
p1069
sg4
S'20071209\xc2\xa002:22 PM EST'
p1070
sg6
S"Brazil's Vale said to be looking at Xstrata bid"
p1071
sa(dp1072
g2
S'http://www.reuters.com/article/newsMaps/idUSL0938806520071209'
p1073
sg4
S'20071209\xc2\xa002:20 PM EST'
p1074
sg6
S"Russia's Lavrov says Kosovo deadline not binding"
p1075
sa(dp1076
g2
S'http://www.reuters.com/article/domesticNews/idUSN0733994720071209'
p1077
sg4
S'20071209\xc2\xa002:19 PM EST'
p1078
sg6
S'Historic split for U.S. Episcopals'
p1079
sa(dp1080
g2
S'http://www.reuters.com/article/newsMaps/idUSL0929363720071209'
p1081
sg4
S'20071209\xc2\xa002:18 PM EST'
p1082
sg6
S'EU to agree Kosovo talks over'
p1083
sa(dp1084
g2
S'http://www.reuters.com/article/environmentNews/idUSL0969150620071209'
p1085
sg4
S'20071209\xc2\xa002:17 PM EST'
p1086
sg6
S'At risk in Arctic, "polar bears" thrive in Bali'
p1087
sa(dp1088
g2
S'http://www.reuters.com/article/environmentNews/idUSL0936801820071209'
p1089
sg4
S'20071209\xc2\xa002:17 PM EST'
p1090
sg6
S'Britain plans big move towards wind power: paper'
p1091
sa(dp1092
g2
S'http://www.reuters.com/article/environmentNews/idUSL0862827120071209'
p1093
sg4
S'20071209\xc2\xa002:17 PM EST'
p1094
sg6
S'Island states urge far tougher U.N. climate goals'
p1095
sa(dp1096
g2
S'http://www.reuters.com/article/environmentNews/idUSL0847529820071209'
p1097
sg4
S'20071209\xc2\xa002:17 PM EST'
p1098
sg6
S'All nations must join climate fight: Bali draft'
p1099
sa(dp1100
g2
S'http://www.reuters.com/article/environmentNews/idUSL084184920071209'
p1101
sg4
S'20071209\xc2\xa002:17 PM EST'
p1102
sg6
S'London, Stockholm climate marchers demand action'
p1103
sa(dp1104
g2
S'http://www.reuters.com/article/environmentNews/idUSL0816870420071209'
p1105
sg4
S'20071209\xc2\xa002:17 PM EST'
p1106
sg6
S'Renewables investments seen over $100 bln in 2007'
p1107
sa(dp1108
g2
S'http://www.reuters.com/article/topNews/idUSL0931985620071209'
p1109
sg4
S'20071209\xc2\xa002:16 PM EST'
p1110
sg6
S'Al Gore sees hope in "people power"'
p1111
sa(dp1112
g2
S'http://www.reuters.com/article/newsMaps/idUSL0964002020071209'
p1113
sg4
S'20071209\xc2\xa002:15 PM EST'
p1114
sg6
S'Shun excessive materialism at Christmas, Pope says'
p1115
sa(dp1116
g2
S'http://www.reuters.com/article/businessNews/idUSN0937255720071209'
p1117
sg4
S'20071209\xc2\xa002:14 PM EST'
p1118
sg6
S"Insurer Allstate seen as undervalued: Barron's"
p1119
sa(dp1120
g2
S'http://www.reuters.com/article/latestCrisis/idUSN09369310'
p1121
sg4
S'20071209\xc2\xa002:13 PM EST'
p1122
sg6
S'Musharraf rejects unilateral US action on militants'
p1123
sa(dp1124
g2
S'http://www.reuters.com/article/pressRelease/idUS66685+09-Dec-2007+PRN20071209'
p1125
sg4
S'20071209\xc2\xa002:13 PM EST'
p1126
sg6
S'Retail Holiday E-Commerce Spending Reaches $18 Billion for the Season, up 18 Percent...'
p1127
sa(dp1128
g2
S'http://www.reuters.com/article/pressRelease/idUS66088+09-Dec-2007+PRN20071209'
p1129
sg4
S'20071209\xc2\xa002:00 PM EST'
p1130
sg6
S'Following Is a Test Release'
p1131
sa(dp1132
g2
S'http://www.reuters.com/article/entertainmentNews/idUSHO96825920071209'
p1133
sg4
S'20071209\xc2\xa001:58 PM EST'
p1134
sg6
S'CORRECTION: "Golden Compass" disappoints at box office'
p1135
sa(dp1136
g2
S'http://www.reuters.com/article/sportsNews/idUSL0939424520071209'
p1137
sg4
S'20071209\xc2\xa001:55 PM EST'
p1138
sg6
S"Alpine skiing-Poutiainen leads in women's slalom"
p1139
sa(dp1140
g2
S'http://www.reuters.com/article/newsOne/idUSL0938868220071209'
p1141
sg4
S'20071209\xc2\xa001:51 PM EST'
p1142
sg6
S'Israel says Iran could have nuclear bomb by 2010'
p1143
sa(dp1144
g2
S'http://www.reuters.com/article/newsOne/idUSBLA92867220071209'
p1145
sg4
S'20071209\xc2\xa001:51 PM EST'
p1146
sg6
S"Iran, China's Sinopec sign oil-field deal"
p1147
sa(dp1148
g2
S'http://www.reuters.com/article/pressRelease/idUS65646+09-Dec-2007+PRN20071209'
p1149
sg4
S'20071209\xc2\xa001:50 PM EST'
p1150
sg6
S'NEWSWEEK COVER: Holy Huckabee!'
p1151
sa(dp1152
g2
S'http://www.reuters.com/article/pressReleasesMolt/idUSN0933725020071209'
p1153
sg4
S'20071209\xc2\xa001:46 PM EST'
p1154
sg6
S'Steady hiring softens rate-cut urgency'
p1155
sa(dp1156
g2
S'http://www.reuters.com/article/companyNewsAndPR/idUSN0934981920071209'
p1157
sg4
S'20071209\xc2\xa001:45 PM EST'
p1158
sg6
S"Kinetic Concepts patents may not hold up - Barron's"
p1159
sa(dp1160
g2
S'http://www.reuters.com/article/pressRelease/idUS65328+09-Dec-2007+PRN20071209'
p1161
sg4
S'20071209\xc2\xa001:45 PM EST'
p1162
sg6
S'NEWSWEEK: Media Lead Sheet/December 17, 2007 Issue'
p1163
sa(dp1164
g2
S'http://www.reuters.com/article/companyNewsAndPR/idUSN0937150320071209'
p1165
sg4
S'20071209\xc2\xa001:44 PM EST'
p1166
sg6
S"'Golden Compass' lackluster at U.S. box office"
p1167
sa(dp1168
g2
S'http://www.reuters.com/article/scienceNews/idUSL0927409420071209'
p1169
sg4
S'20071209\xc2\xa001:43 PM EST'
p1170
sg6
S'Sex "switch" points way to smarter pest control'
p1171
sa(dp1172
g2
S'http://www.reuters.com/article/latestCrisis/idUSN09373779'
p1173
sg4
S'20071209\xc2\xa001:41 PM EST'
p1174
sg6
S'US senators at odds on special probe of CIA tapes'
p1175
sa(dp1176
g2
S'http://www.reuters.com/article/worldNews/idUSL0937581420071209'
p1177
sg4
S'20071209\xc2\xa001:37 PM EST'
p1178
sg6
S'Congo army offensive slows amid rebel-held hills'
p1179
sa(dp1180
g2
S'http://www.reuters.com/article/companyNewsAndPR/idUSL0939647620071209'
p1181
sg4
S'20071209\xc2\xa001:35 PM EST'
p1182
sg6
S'AXA CEO says financial market turmoil not over yet'
p1183
sa(dp1184
g2
S'http://www.reuters.com/article/pressRelease/idUS64581+09-Dec-2007+PRN20071209'
p1185
sg4
S'20071209\xc2\xa001:30 PM EST'
p1186
sg6
S'Following Is a Test Release'
p1187
sa(dp1188
g2
S'http://www.reuters.com/article/companyNewsAndPR/idUSL0940364720071209'
p1189
sg4
S'20071209\xc2\xa001:26 PM EST'
p1190
sg6
S'UPDATE 1-Libya awards gas exploration permits'
p1191
sa(dp1192
g2
S'http://www.reuters.com/article/companyNewsAndPR/idUSL0939910720071209'
p1193
sg4
S'20071209\xc2\xa001:24 PM EST'
p1194
sg6
S'Lagardere- France would not block Airbus jobs plan'
p1195
sa(dp1196
g2
S'http://www.reuters.com/article/rbssConsumerGoodsAndRetailNews/idUSN0934193320071209'
p1197
sg4
S'20071209\xc2\xa001:24 PM EST'
p1198
sg6
S'The top films at the North American box office'
p1199
sa(dp1200
g2
S'http://www.reuters.com/article/rbssFinancialServicesAndRealEstateNews/idUSL0937045520071209'
p1201
sg4
S'20071209\xc2\xa001:23 PM EST'
p1202
sg6
S'UPDATE 1-Investors in UBS fund may have wait for cash'
p1203
sa(dp1204
g2
S'http://www.reuters.com/article/politicsNews/idUSN0933993820071209'
p1205
sg4
S'20071209\xc2\xa001:20 PM EST'
p1206
sg6
S'Huckabee in sights of presidential rivals this week'
p1207
sa(dp1208
g2
S'http://www.reuters.com/article/latestCrisis/idUSL09388682'
p1209
sg4
S'20071209\xc2\xa001:20 PM EST'
p1210
sg6
S'Israel says Iran could have nuclear bomb by 2010'
p1211
sa(dp1212
g2
S'http://www.reuters.com/article/latestCrisis/idUSL09362209'
p1213
sg4
S'20071209\xc2\xa001:19 PM EST'
p1214
sg6
S'Blast on bus kills two in Russia, suspected bomb'
p1215
sa(dp1216
g2
S'http://www.reuters.com/article/environmentNews/idUSL0816630420071209'
p1217
sg4
S'20071209\xc2\xa001:16 PM EST'
p1218
sg6
S'U.N. talks will not decide on new HFC incentives'
p1219
sa(dp1220
g2
S'http://www.reuters.com/article/entertainmentNews/idUSL0915325220071209'
p1221
sg4
S'20071209\xc2\xa001:13 PM EST'
p1222
sg6
S'U.N. climate chief says science clear, move on'
p1223
sa(dp1224
g2
S'http://www.reuters.com/article/bondsNews/idUSN0935506320071209'
p1225
sg4
S'20071209\xc2\xa001:10 PM EST'
p1226
sg6
S'South Americans to form independent regional bank'
p1227
sa(dp1228
g2
S'http://www.reuters.com/article/latestCrisis/idUSN09355063'
p1229
sg4
S'20071209\xc2\xa001:10 PM EST'
p1230
sg6
S'South Americans to form independent regional bank'
p1231
sa(dp1232
g2
S'http://www.reuters.com/article/topNews/idUSMAC92373120071209'
p1233
sg4
S'20071209\xc2\xa001:06 PM EST'
p1234
sg6
S'Israel says must trade Jerusalem areas with Arabs'
p1235
sa(dp1236
g2
S'http://www.reuters.com/article/topNews/idUSL0932512820071209'
p1237
sg4
S'20071209\xc2\xa001:06 PM EST'
p1238
sg6
S'Hamas burns drugs after Gaza operation'
p1239
sa(dp1240
g2
S'http://www.reuters.com/article/bondsNews/idUSL0932684720071209'
p1241
sg4
S'20071209\xc2\xa001:04 PM EST'
p1242
sg6
S'RPT-Islamic bond market on edge over Gulf revaluations'
p1243
sa(dp1244
g2
S'http://www.reuters.com/article/latestCrisis/idUSL09375814'
p1245
sg4
S'20071209\xc2\xa001:02 PM EST'
p1246
sg6
S'Congo army offensive slows amid rebel-held hills'
p1247
sa(dp1248
g2
S'http://www.reuters.com/article/environmentNews/idUSL085338120071209'
p1249
sg4
S'20071209\xc2\xa001:02 PM EST'
p1250
sg6
S'EU may go easier on CO2 curbs for big cars: paper'
p1251
sa(dp1252
g2
S'http://www.reuters.com/article/homepageCrisis/idUSL09375814._CH_.2400'
p1253
sg4
S'20071209\xc2\xa001:02 PM EST'
p1254
sg6
S'Congo army offensive slows amid rebel-held hills'
p1255
sa(dp1256
g2
S'http://www.reuters.com/article/pressRelease/idUS63275+09-Dec-2007+PRN20071209'
p1257
sg4
S'20071209\xc2\xa001:00 PM EST'
p1258
sg6
S'Following Is a Test Release'
p1259
sa(dp1260
g2
S'http://www.reuters.com/article/worldNews/idUSCOL16762720071209'
p1261
sg4
S'20071209\xc2\xa001:00 PM EST'
p1262
sg6
S"Pakistan's Sharif opts to take part in election"
p1263
sa(dp1264
g2
S'http://www.reuters.com/article/latestCrisis/idUSL09274094'
p1265
sg4
S'20071209\xc2\xa001:00 PM EST'
p1266
sg6
S'Sex "switch" points way to smarter pest control'
p1267
sa(dp1268
g2
S'http://www.reuters.com/article/companyNewsAndPR/idUSL0939436820071209'
p1269
sg4
S'20071209\xc2\xa012:39 PM EST'
p1270
sg6
S'Libya awards gas exploration permits'
p1271
sa(dp1272
g2
S'http://www.reuters.com/article/worldNews/idUSL0789293020071209'
p1273
sg4
S'20071209\xc2\xa012:39 PM EST'
p1274
sg6
S'Ambitious EU-Africa summit ends in trade deadlock'
p1275
sa(dp1276
g2
S'http://www.reuters.com/article/worldNews/idUSL0932238820071209'
p1277
sg4
S'20071209\xc2\xa012:38 PM EST'
p1278
sg6
S'Africa says big enough to cope with China courtship'
p1279
sa(dp1280
g2
S'http://www.reuters.com/article/worldNews/idUSDEL21155720071209'
p1281
sg4
S'20071209\xc2\xa012:36 PM EST'
p1282
sg6
S'Indian left issues new threat over U.S. nuclear deal'
p1283
sa(dp1284
g2
S'http://www.reuters.com/article/latestCrisis/idUSL09153252'
p1285
sg4
S'20071209\xc2\xa012:34 PM EST'
p1286
sg6
S'INTERVIEW-U.N. climate chief says science clear, move on'
p1287
sa(dp1288
g2
S'http://www.reuters.com/article/newsOne/idUSL0926098520071209'
p1289
sg4
S'20071209\xc2\xa012:31 PM EST'
p1290
sg6
S'"Back from dead" canoeist\'s wife arrested in UK'
p1291
sa(dp1292
g2
S'http://www.reuters.com/article/pressRelease/idUS62272+09-Dec-2007+PRN20071209'
p1293
sg4
S'20071209\xc2\xa012:30 PM EST'
p1294
sg6
S'Following Is a Test Release'
p1295
sa(dp1296
g2
S'http://www.reuters.com/article/latestCrisis/idUSL09395078'
p1297
sg4
S'20071209\xc2\xa012:30 PM EST'
p1298
sg6
S'RPT-Africa says big enough to cope with China courtship'
p1299
sa(dp1300
g2
S'http://www.reuters.com/article/domesticNews/idUSN0836117320071209'
p1301
sg4
S'20071209\xc2\xa012:20 PM EST'
p1302
sg6
S'TV executive who syndicated Oprah dies'
p1303
sa(dp1304
g2
S'http://www.reuters.com/article/pressRelease/idUS61729+09-Dec-2007+PRN20071209'
p1305
sg4
S'20071209\xc2\xa012:18 PM EST'
p1306
sg6
S"Patti LaBelle Talks About her new TV 'Coaching' Role, Hot Sauces and Purses"
p1307
sa(dp1308
g2
S'http://www.reuters.com/article/scienceNews/idUSN0732405020071209'
p1309
sg4
S'20071209\xc2\xa012:15 PM EST'
p1310
sg6
S'Studies show how fruits and veggies reduce cancer'
p1311
sa(dp1312
g2
S'http://www.reuters.com/article/worldNews/idUSCOL3562420071209'
p1313
sg4
S'20071209\xc2\xa012:15 PM EST'
p1314
sg6
S"Pakistan's Sharif fails to clinch boycott pact"
p1315
sa(dp1316
g2
S'http://www.reuters.com/article/environmentNews/idUSHKG8180420071209'
p1317
sg4
S'20071209\xc2\xa012:09 PM EST'
p1318
sg6
S'Hong Kong chokes on pollution for second day'
p1319
sa(dp1320
g2
S'http://www.reuters.com/article/scienceNews/idUSB90669220071209'
p1321
sg4
S'20071209\xc2\xa012:05 PM EST'
p1322
sg6
S'NASA puts off shuttle launch'
p1323
sa(dp1324
g2
S'http://www.reuters.com/article/ousiv/idUSL0744908120071209'
p1325
sg4
S'20071209\xc2\xa012:04 PM EST'
p1326
sg6
S'James Murdoch steps up as News Corp heir apparent'
p1327
sa(dp1328
g2
S'http://www.reuters.com/article/businessNews/idUSSCH96137520071209'
p1329
sg4
S'20071209\xc2\xa012:03 PM EST'
p1330
sg6
S'Chrysler says recalling over 575,000 vehicles'
p1331
sa(dp1332
g2
S'http://www.reuters.com/article/pressRelease/idUS60969+09-Dec-2007+PRN20071209'
p1333
sg4
S'20071209\xc2\xa012:00 PM EST'
p1334
sg6
S'Following Is a Test Release'
p1335
sa(dp1336
g2
S'http://www.reuters.com/article/businessNews/idUSSCH96114120071209'
p1337
sg4
S'20071209\xc2\xa011:59 AM EST'
p1338
sg6
S'Employers add jobs but consumers gloomy'
p1339
sa(dp1340
g2
S'http://www.reuters.com/article/latestCrisis/idUSFLE959207'
p1341
sg4
S'20071209\xc2\xa011:59 AM EST'
p1342
sg6
S'Africa says big enough to cope with China courtship'
p1343
sa(dp1344
g2
S'http://www.reuters.com/article/topNews/idUSL0926783020071209'
p1345
sg4
S'20071209\xc2\xa011:56 AM EST'
p1346
sg6
S'U.N. envoy urges Iraq to join anti-torture treaty'
p1347
sa(dp1348
g2
S'http://www.reuters.com/article/mergersNews/idUSN0933539520071209'
p1349
sg4
S'20071209\xc2\xa011:52 AM EST'
p1350
sg6
S'RPT-Private equity chiefs look to MidEast in LBO lull'
p1351
sa(dp1352
g2
S'http://www.reuters.com/article/worldNews/idUSL0932952320071209'
p1353
sg4
S'20071209\xc2\xa011:45 AM EST'
p1354
sg6
S"Defiant Mugabe tells Europe he won't be lectured"
p1355
sa(dp1356
g2
S'http://www.reuters.com/article/bondsNews/idUSN0937170120071209'
p1357
sg4
S'20071209\xc2\xa011:44 AM EST'
p1358
sg6
S'UPDATE 1-Huckabee in sights of presidential rivals this week'
p1359
sa(dp1360
g2
S'http://www.reuters.com/article/reutersEdge/idUSL0973242120071209'
p1361
sg4
S'20071209\xc2\xa011:43 AM EST'
p1362
sg6
S'Syria sees isolation fading after Annapolis'
p1363
sa(dp1364
g2
S'http://www.reuters.com/article/newIssuesNews/idUSN0949320071209'
p1365
sg4
S'20071209\xc2\xa011:43 AM EST'
p1366
sg6
S'RPT-IPO VIEW-LBO firms may eye overseas IPOs for US buyout'
p1367
sa(dp1368
g2
S'http://www.reuters.com/article/topNews/idUSCOL20394220071209'
p1369
sg4
S'20071209\xc2\xa011:40 AM EST'
p1370
sg6
S'Suicide bomber kills 6 in NW Pakistan Swat valley'
p1371
sa(dp1372
g2
S'http://www.reuters.com/article/musicNews/idUSN0734074120071209'
p1373
sg4
S'20071209\xc2\xa011:38 AM EST'
p1374
sg6
S'Josh Groban ends Christmas drought atop U.S. chart'
p1375
sa(dp1376
g2
S'http://www.reuters.com/article/entertainmentNews/idUSL0928181320071209'
p1377
sg4
S'20071209\xc2\xa011:37 AM EST'
p1378
sg6
S"Winehouse's mother begs her to come home"
p1379
sa(dp1380
g2
S'http://www.reuters.com/article/newsOne/idUSL0928919320071209'
p1381
sg4
S'20071209\xc2\xa011:35 AM EST'
p1382
sg6
S'Oxfam calls for quick deployment of EU Chad force'
p1383
sa(dp1384
g2
S'http://www.reuters.com/article/pressRelease/idUS60084+09-Dec-2007+PRN20071209'
p1385
sg4
S'20071209\xc2\xa011:34 AM EST'
p1386
sg6
S'Santa Rides a Harley to the Fred Jordan Mission'
p1387
sa(dp1388
g2
S'http://www.reuters.com/article/latestCrisis/idUSL09329523'
p1389
sg4
S'20071209\xc2\xa011:32 AM EST'
p1390
sg6
S"Defiant Mugabe tells Europe he won't be lectured"
p1391
sa(dp1392
g2
S'http://www.reuters.com/article/latestCrisis/idUSL09379747'
p1393
sg4
S'20071209\xc2\xa011:32 AM EST'
p1394
sg6
S'Africa says big enough to cope with China courtship'
p1395
sa(dp1396
g2
S'http://www.reuters.com/article/weekAheadWallStreet/idUSN0942358920071209'
p1397
sg4
S'20071209\xc2\xa011:30 AM EST'
p1398
sg6
S'RPT-Wall St Week Ahead: Big Fed rate cut may spur a rally'
p1399
sa(dp1400
g2
S'http://www.reuters.com/article/pressRelease/idUS59918+09-Dec-2007+PRN20071209'
p1401
sg4
S'20071209\xc2\xa011:30 AM EST'
p1402
sg6
S'Following Is a Test Release'
p1403
sa(dp1404
g2
S'http://www.reuters.com/article/newsOne/idUSL0867442920071209'
p1405
sg4
S'20071209\xc2\xa011:27 AM EST'
p1406
sg6
S'FACTBOX-Security developments in Iraq, Dec 9'
p1407
sa(dp1408
g2
S'http://www.reuters.com/article/latestCrisis/idUSN09346277'
p1409
sg4
S'20071209\xc2\xa011:26 AM EST'
p1410
sg6
S'Bolivia constitution advances, opposition boycotts'
p1411
sa(dp1412
g2
S'http://www.reuters.com/article/latestCrisis/idUSL09322388'
p1413
sg4
S'20071209\xc2\xa011:19 AM EST'
p1414
sg6
S'RPT:Africa says big enough to cope with China courtship'
p1415
sa(dp1416
g2
S'http://www.reuters.com/article/homepageCrisis/idUSL09303133._CH_.2400'
p1417
sg4
S'20071209\xc2\xa011:19 AM EST'
p1418
sg6
S'Ambitious EU-Africa summit ends in trade deadlock'
p1419
sa(dp1420
g2
S'http://www.reuters.com/article/latestCrisis/idUSL09303133'
p1421
sg4
S'20071209\xc2\xa011:19 AM EST'
p1422
sg6
S'Ambitious EU-Africa summit ends in trade deadlock'
p1423
sa(dp1424
g2
S'http://www.reuters.com/article/latestCrisis/idUSL09373244'
p1425
sg4
S'20071209\xc2\xa011:16 AM EST'
p1426
sg6
S'Africa says big enough to cope with China courtship'
p1427
sa(dp1428
g2
S'http://www.reuters.com/article/worldNews/idUSFLE84746320071209'
p1429
sg4
S'20071209\xc2\xa011:15 AM EST'
p1430
sg6
S'Africa rejects EU trade deals'
p1431
sa(dp1432
g2
S'http://www.reuters.com/article/pressRelease/idUS58965+09-Dec-2007+PRN20071209'
p1433
sg4
S'20071209\xc2\xa011:08 AM EST'
p1434
sg6
S'Stock Picking Software from Investing Systems Delivers Spectacular One-Day Gains...'
p1435
sa(dp1436
g2
S'http://www.reuters.com/article/businessNews/idUSN0734134820071209'
p1437
sg4
S'20071209\xc2\xa011:07 AM EST'
p1438
sg6
S'Chrysler says recalling over 575,000 vehicles'
p1439
sa(dp1440
g2
S'http://www.reuters.com/article/ousivMolt/idUSN0760033720071209'
p1441
sg4
S'20071209\xc2\xa011:07 AM EST'
p1442
sg6
S'Employers add jobs but consumers gloomy'
p1443
sa(dp1444
g2
S'http://www.reuters.com/article/pressRelease/idUS58680+09-Dec-2007+PRN20071209'
p1445
sg4
S'20071209\xc2\xa011:00 AM EST'
p1446
sg6
S'Following Is a Test Release'
p1447
sa(dp1448
g2
S'http://www.reuters.com/article/pressRelease/idUS58665+09-Dec-2007+BW20071209'
p1449
sg4
S'20071209\xc2\xa011:00 AM EST'
p1450
sg6
S"I AM LEGEND - Will Smith to Be Honored With Hand and Footprint Ceremony at Grauman's..."
p1451
sa(dp1452
g2
S'http://www.reuters.com/article/africaCrisis/idUSL0826802'
p1453
sg4
S'20071209\xc2\xa010:58 AM EST'
p1454
sg6
S'Nigerian president defends himself on progress'
p1455
sa(dp1456
g2
S'http://www.reuters.com/article/pressRelease/idUS58556+09-Dec-2007+PRN20071209'
p1457
sg4
S'20071209\xc2\xa010:58 AM EST'
p1458
sg6
S'NASA Targets Space Shuttle Atlantis Launch on Jan. 2'
p1459
sa(dp1460
g2
S'http://www.reuters.com/article/featuredCrisis/idUSL09259482'
p1461
sg4
S'20071209\xc2\xa010:57 AM EST'
p1462
sg6
S'Israel says must trade Jerusalem areas with Arabs'
p1463
sa(dp1464
g2
S'http://www.reuters.com/article/domesticNews/idUSSP19728220071209'
p1465
sg4
S'20071209\xc2\xa010:54 AM EST'
p1466
sg6
S'Tebow wins Heisman Trophy'
p1467
sa(dp1468
g2
S'http://www.reuters.com/article/topNews/idUSL0936220920071209'
p1469
sg4
S'20071209\xc2\xa010:47 AM EST'
p1470
sg6
S'Blast on bus kills two in Russia: report'
p1471
sa(dp1472
g2
S'http://www.reuters.com/article/sportsNews/idUSL097556720071209'
p1473
sg4
S'20071209\xc2\xa010:42 AM EST'
p1474
sg6
S'Bickerton wins after Els suffers triple bogey on final hole'
p1475
sa(dp1476
g2
S'http://www.reuters.com/article/domesticNews/idUSN0734602520071209'
p1477
sg4
S'20071209\xc2\xa010:39 AM EST'
p1478
sg6
S'Mayweather defeats Hatton by TKO'
p1479
sa(dp1480
g2
S'http://www.reuters.com/article/africaCrisis/idUSL09357677'
p1481
sg4
S'20071209\xc2\xa010:39 AM EST'
p1482
sg6
S'Poland sees EU ban extended after new H5N1 outbreak'
p1483
sa(dp1484
g2
S'http://www.reuters.com/article/latestCrisis/idUSL0974961'
p1485
sg4
S'20071209\xc2\xa010:34 AM EST'
p1486
sg6
S'Ambitious EU-Africa summit ends in trade deadlock'
p1487
sa(dp1488
g2
S'http://www.reuters.com/article/pressRelease/idUS57228+09-Dec-2007+PRN20071209'
p1489
sg4
S'20071209\xc2\xa010:30 AM EST'
p1490
sg6
S'Following Is a Test Release'
p1491
sa(dp1492
g2
S'http://www.reuters.com/article/globalMarketsNews/idUSN0731463220071209'
p1493
sg4
S'20071209\xc2\xa010:29 AM EST'
p1494
sg6
S'Big Fed rate cut may spur a rally'
p1495
sa(dp1496
g2
S'http://www.reuters.com/article/companyNewsAndPR/idUSN0920827720071209'
p1497
sg4
S'20071209\xc2\xa010:28 AM EST'
p1498
sg6
S'RPT-Pharmion Vidaza drug survival benefit confirmed'
p1499
sa(dp1500
g2
S'http://www.reuters.com/article/mediaNews/idUSL0934751920071209'
p1501
sg4
S'20071209\xc2\xa010:26 AM EST'
p1502
sg6
S"Standard & Poor's to buy Israeli rating firm"
p1503
sa(dp1504
g2
S'http://www.reuters.com/article/businessNews/idUSL0934219920071209'
p1505
sg4
S'20071209\xc2\xa010:23 AM EST'
p1506
sg6
S'China raises foreign investment cap to $30 billion'
p1507
sa(dp1508
g2
S'http://www.reuters.com/article/latestCrisis/idUSL0979517'
p1509
sg4
S'20071209\xc2\xa010:22 AM EST'
p1510
sg6
S'Blast on bus kills one person in Russia - agencies'
p1511
sa(dp1512
g2
S'http://www.reuters.com/article/companyNewsAndPR/idUSN0936755720071209'
p1513
sg4
S'20071209\xc2\xa010:20 AM EST'
p1514
sg6
S'Pharmion Vidaza drug survival benefit confirmed'
p1515
sa(dp1516
g2
S'http://www.reuters.com/article/newsOne/idUSSEO37024620071209'
p1517
sg4
S'20071209\xc2\xa010:14 AM EST'
p1518
sg6
S"Beaches blackened in South Korea's worst oil spill"
p1519
sa(dp1520
g2
S'http://www.reuters.com/article/pressRelease/idUS55786+09-Dec-2007+PRN20071209'
p1521
sg4
S'20071209\xc2\xa010:00 AM EST'
p1522
sg6
S'Following Is a Test Release'
p1523
sa(dp1524
g2
S'http://www.reuters.com/article/technologyNews/idUSN0564303820071209'
p1525
sg4
S'20071209\xc2\xa009:57 AM EST'
p1526
sg6
S'New Apple store highlights "geniuses," services'
p1527
sa(dp1528
g2
S'http://www.reuters.com/article/ousiv/idUSL08227020071209'
p1529
sg4
S'20071209\xc2\xa009:47 AM EST'
p1530
sg6
S'Morgan Stanley recruits Powell, aide to former PM Blair'
p1531
sa(dp1532
g2
S'http://www.reuters.com/article/governmentFilingsNews/idUSL0947507920071209'
p1533
sg4
S'20071209\xc2\xa009:43 AM EST'
p1534
sg6
S'Israeli banks not facing credit crisis-regulator'
p1535
sa(dp1536
g2
S'http://www.reuters.com/article/pressRelease/idUS55018+09-Dec-2007+PRN20071209'
p1537
sg4
S'20071209\xc2\xa009:41 AM EST'
p1538
sg6
S'Take-Five Winning Numbers'
p1539
sa(dp1540
g2
S'http://www.reuters.com/article/pressRelease/idUS54882+09-Dec-2007+PRN20071209'
p1541
sg4
S'20071209\xc2\xa009:39 AM EST'
p1542
sg6
S'Lotto Extra Winning Numbers'
p1543
sa(dp1544
g2
S'http://www.reuters.com/article/innovationNews/idUSL0932811320071209'
p1545
sg4
S'20071209\xc2\xa009:35 AM EST'
p1546
sg6
S'Orascom Telecom CEO denies firm for sale'
p1547
sa(dp1548
g2
S'http://www.reuters.com/article/pressRelease/idUS54525+09-Dec-2007+PRN20071209'
p1549
sg4
S'20071209\xc2\xa009:30 AM EST'
p1550
sg6
S'Following Is a Test Release'
p1551
sa(dp1552
g2
S'http://www.reuters.com/article/latestCrisis/idUSL09306728'
p1553
sg4
S'20071209\xc2\xa009:26 AM EST'
p1554
sg6
S'Kosovo calls for "urgent" support for independence'
p1555
sa(dp1556
g2
S'http://www.reuters.com/article/gc05/idUSL0932651920071209'
p1557
sg4
S'20071209\xc2\xa009:23 AM EST'
p1558
sg6
S'New U.S. assault to target al Qaeda south of Baghdad'
p1559
sa(dp1560
g2
S'http://www.reuters.com/article/latestCrisis/idUSL09326519'
p1561
sg4
S'20071209\xc2\xa009:21 AM EST'
p1562
sg6
S'New US assault to target al Qaeda south of Baghdad'
p1563
sa(dp1564
g2
S'http://www.reuters.com/article/rbssConsumerGoodsAndRetailNews/idUSL0928935720071209'
p1565
sg4
S'20071209\xc2\xa009:19 AM EST'
p1566
sg6
S'MARKETS-EGYPT-CLOSER =2'
p1567
sa(dp1568
g2
S'http://www.reuters.com/article/latestCrisis/idUSL09313338'
p1569
sg4
S'20071209\xc2\xa009:10 AM EST'
p1570
sg6
S'Bangladesh at high risk from deadly bird flu - USAID'
p1571
sa(dp1572
g2
S'http://www.reuters.com/article/pressRelease/idUS53738+09-Dec-2007+MW20071209'
p1573
sg4
S'20071209\xc2\xa009:05 AM EST'
p1574
sg6
S' Powerball Jackpot Grows to $33 Million; Three $600,000 Power Play Prizes Won!'
p1575
sa(dp1576
g2
S'http://www.reuters.com/article/healthNews/idUSL07354020071209'
p1577
sg4
S'20071209\xc2\xa009:03 AM EST'
p1578
sg6
S'Boehringer starts mid-stage study on clot drug'
p1579
sa(dp1580
g2
S'http://www.reuters.com/article/innovationNews/idUSL0931532420071209'
p1581
sg4
S'20071209\xc2\xa009:02 AM EST'
p1582
sg6
S'Four bidders left for German national daily: report'
p1583
sa(dp1584
g2
S'http://www.reuters.com/article/pressRelease/idUS53561+09-Dec-2007+BW20071209'
p1585
sg4
S'20071209\xc2\xa009:01 AM EST'
p1586
sg6
S'ImmunoGen, Inc. Announces Encouraging Clinical Findings Reported at ASH Annual Meeting...'
p1587
sa(dp1588
g2
S'http://www.reuters.com/article/pressRelease/idUS53534+09-Dec-2007+MW20071209'
p1589
sg4
S'20071209\xc2\xa009:00 AM EST'
p1590
sg6
S' Reminder - Casey Jones to Speak About the ChipEstimate.com Chip Planning Portal at IPextreme World 2007'
p1591
sa(dp1592
g2
S'http://www.reuters.com/article/pressRelease/idUS53506+09-Dec-2007+PRN20071209'
p1593
sg4
S'20071209\xc2\xa009:00 AM EST'
p1594
sg6
S'Following Is a Test Release'
p1595
sa(dp1596
g2
S'http://www.reuters.com/article/pressRelease/idUS53496+09-Dec-2007+PRN20071209'
p1597
sg4
S'20071209\xc2\xa009:00 AM EST'
p1598
sg6
S'Nuvelo Phase 3 SONOMA-2 Trial Shows Alfimeprase has the Potential to Restore Catheter...'
p1599
sa(dp1600
g2
S'http://www.reuters.com/article/pressRelease/idUS53465+09-Dec-2007+BW20071209'
p1601
sg4
S'20071209\xc2\xa009:00 AM EST'
p1602
sg6
S'AMAG Pharmaceuticals, Inc. Announces Presentation of Positive Results from Phase...'
p1603
sa(dp1604
g2
S'http://www.reuters.com/article/pressRelease/idUS53397+09-Dec-2007+PRN20071209'
p1605
sg4
S'20071209\xc2\xa008:58 AM EST'
p1606
sg6
S'ATK Propulsion and Composite Technologies Help Launch COSMO Satellite'
p1607
sa(dp1608
g2
S'http://www.reuters.com/article/rbssFinancialServicesAndRealEstateNews/idUSL0932245020071209'
p1609
sg4
S'20071209\xc2\xa008:48 AM EST'
p1610
sg6
S"Germany's IKB sale to start in Jan - paper"
p1611
sa(dp1612
g2
S'http://www.reuters.com/article/pressRelease/idUS52840+09-Dec-2007+PRN20071209'
p1613
sg4
S'20071209\xc2\xa008:40 AM EST'
p1614
sg6
S'Lotto Winning Numbers'
p1615
sa(dp1616
g2
S'http://www.reuters.com/article/rbssTechMediaTelecomNews/idUSL0931889220071209'
p1617
sg4
S'20071209\xc2\xa008:39 AM EST'
p1618
sg6
S'Orascom Telecom CEO says firm "not on auction"'
p1619
sa(dp1620
g2
S'http://www.reuters.com/article/rbssConsumerGoodsAndRetailNews/idUSL0929875520071209'
p1621
sg4
S'20071209\xc2\xa008:37 AM EST'
p1622
sg6
S'John Lewis weekly sales rise 5.2 pct to hit record'
p1623
sa(dp1624
g2
S'http://www.reuters.com/article/latestCrisis/idUSL09311772'
p1625
sg4
S'20071209\xc2\xa008:33 AM EST'
p1626
sg6
S'Somali town seized over taxes, not Islam-elders'
p1627
sa(dp1628
g2
S'http://www.reuters.com/article/pressRelease/idUS52441+09-Dec-2007+PRN20071209'
p1629
sg4
S'20071209\xc2\xa008:30 AM EST'
p1630
sg6
S'Following Is a Test Release'
p1631
sa(dp1632
g2
S'http://www.reuters.com/article/rbssIndustryMaterialsUtilitiesNews/idUSL0927884220071209'
p1633
sg4
S'20071209\xc2\xa008:25 AM EST'
p1634
sg6
S'British Midland to add daily flight to Israel'
p1635
sa(dp1636
g2
S'http://www.reuters.com/article/latestCrisis/idUSL09267830'
p1637
sg4
S'20071209\xc2\xa008:18 AM EST'
p1638
sg6
S'U.N. envoy urges Iraq to join anti-torture treaty'
p1639
sa(dp1640
g2
S'http://www.reuters.com/article/sportsNews/idUSL0932286120071209'
p1641
sg4
S'20071209\xc2\xa008:11 AM EST'
p1642
sg6
S'Raich storms into World Cup lead with slalom win'
p1643
sa(dp1644
g2
S'http://www.reuters.com/article/homepageCrisis/idUSL09289193._CH_.2400'
p1645
sg4
S'20071209\xc2\xa008:05 AM EST'
p1646
sg6
S'Oxfam calls for quick deployment of EU Chad force'
p1647
sa(dp1648
g2
S'http://www.reuters.com/article/latestCrisis/idUSL09289193'
p1649
sg4
S'20071209\xc2\xa008:05 AM EST'
p1650
sg6
S'Oxfam calls for quick deployment of EU Chad force'
p1651
sa(dp1652
g2
S'http://www.reuters.com/article/pressRelease/idUS51307+09-Dec-2007+PRN20071209'
p1653
sg4
S'20071209\xc2\xa008:04 AM EST'
p1654
sg6
S'NASA Postpones Shuttle Atlantis Launch'
p1655
sa(dp1656
g2
S'http://www.reuters.com/article/latestCrisis/idUSL09267742'
p1657
sg4
S'20071209\xc2\xa008:04 AM EST'
p1658
sg6
S'FACTBOX-Security developments in Iraq, Dec 9'
p1659
sa(dp1660
g2
S'http://www.reuters.com/article/pressRelease/idUS51133+09-Dec-2007+PRN20071209'
p1661
sg4
S'20071209\xc2\xa008:00 AM EST'
p1662
sg6
S'Following Is a Test Release'
p1663
sa(dp1664
g2
S'http://www.reuters.com/article/pressRelease/idUS51128+09-Dec-2007+PRN20071209'
p1665
sg4
S'20071209\xc2\xa008:00 AM EST'
p1666
sg6
S'Research Provides Critical Insight into Improving Therapy for Difficult-to-Treat...'
p1667
sa(dp1668
g2
S'http://www.reuters.com/article/pressRelease/idUS51124+09-Dec-2007+PRN20071209'
p1669
sg4
S'20071209\xc2\xa008:00 AM EST'
p1670
sg6
S'Pharmion Presents Clinical Data Demonstrating Significant Survival Advantage of Vidaza(R)...'
p1671
sa(dp1672
g2
S'http://www.reuters.com/article/sportsNews/idUSL0916067920071209'
p1673
sg4
S'20071209\xc2\xa007:59 AM EST'
p1674
sg6
S'IOC poised to strip Jones of Olympic medals'
p1675
sa(dp1676
g2
S'http://www.reuters.com/article/rbssConsumerGoodsAndRetailNews/idUSL0950589720071209'
p1677
sg4
S'20071209\xc2\xa007:56 AM EST'
p1678
sg6
S'Baugur set to bid for Moss Bros-paper'
p1679
sa(dp1680
g2
S'http://www.reuters.com/article/homepageCrisis/idUSISL186788._CH_.2400'
p1681
sg4
S'20071209\xc2\xa007:44 AM EST'
p1682
sg6
S'Taliban leaders seized in assault on Afghan town'
p1683
sa(dp1684
g2
S'http://www.reuters.com/article/latestCrisis/idUSISL186788'
p1685
sg4
S'20071209\xc2\xa007:44 AM EST'
p1686
sg6
S'Taliban leaders seized in assault on Afghan town'
p1687
sa(dp1688
g2
S'http://www.reuters.com/article/rbssFinancialServicesAndRealEstateNews/idUSL0929951920071209'
p1689
sg4
S'20071209\xc2\xa007:41 AM EST'
p1690
sg6
S'Israel picks NM Rothschild to advise on Leumi sale'
p1691
sa(dp1692
g2
S'http://www.reuters.com/article/mergersNews/idUSL091921920071209'
p1693
sg4
S'20071209\xc2\xa007:39 AM EST'
p1694
sg6
S'Developer takes 9.3 pct stake in Rank-paper'
p1695
sa(dp1696
g2
S'http://www.reuters.com/article/latestCrisis/idUSL09271901'
p1697
sg4
S'20071209\xc2\xa007:37 AM EST'
p1698
sg6
S'Africa rejects EU trade deals, want'
p1699
sa(dp1700
g2
S'http://www.reuters.com/article/latestCrisis/idUSL09301372'
p1701
sg4
S'20071209\xc2\xa007:33 AM EST'
p1702
sg6
S'CORRECTED (OFFICIAL)-EU says not decided on tariffs for Africa'
p1703
sa(dp1704
g2
S'http://www.reuters.com/article/pressRelease/idUS50159+09-Dec-2007+PRN20071209'
p1705
sg4
S'20071209\xc2\xa007:30 AM EST'
p1706
sg6
S'Following Is a Test Release'
p1707
sa(dp1708
g2
S'http://www.reuters.com/article/latestCrisis/idUSL09286443'
p1709
sg4
S'20071209\xc2\xa007:17 AM EST'
p1710
sg6
S'Archbishop cuts up clerical collar in Zimbabwe protest'
p1711
sa(dp1712
g2
S'http://www.reuters.com/article/pressRelease/idUS49417+09-Dec-2007+PRN20071209'
p1713
sg4
S'20071209\xc2\xa007:00 AM EST'
p1714
sg6
S'Following Is a Test Release'
p1715
sa(dp1716
g2
S'http://www.reuters.com/article/latestCrisis/idUSL09291549'
p1717
sg4
S'20071209\xc2\xa006:50 AM EST'
p1718
sg6
S'FACTBOX-Kosovo scenarios after end of Serb-Albanian talks'
p1719
sa(dp1720
g2
S'http://www.reuters.com/article/latestCrisis/idUSL09292329'
p1721
sg4
S'20071209\xc2\xa006:48 AM EST'
p1722
sg6
S'EU says will not raise tariffs on Africa states Jan 1'
p1723
sa(dp1724
g2
S'http://www.reuters.com/article/mergersNews/idUSL0927426120071209'
p1725
sg4
S'20071209\xc2\xa006:41 AM EST'
p1726
sg6
S'Phone giant Orascom eyes $17 bln sale-paper'
p1727
sa(dp1728
g2
S'http://www.reuters.com/article/worldNews/idUSDHA14134720071209'
p1729
sg4
S'20071209\xc2\xa006:40 AM EST'
p1730
sg6
S'Bangladesh building collapse kills four'
p1731
sa(dp1732
g2
S'http://www.reuters.com/article/sportsNews/idUSSP20252220071209'
p1733
sg4
S'20071209\xc2\xa006:38 AM EST'
p1734
sg6
S"Thailand's Prayad clinches Volvo Masters of Asia"
p1735
sa(dp1736
g2
S'http://www.reuters.com/article/rbssFinancialServicesAndRealEstateNews/idUSAHM93384520071209'
p1737
sg4
S'20071209\xc2\xa006:38 AM EST'
p1738
sg6
S'Emaar says Algeria venture on track, land a hurdle'
p1739
sa(dp1740
g2
S'http://www.reuters.com/article/sportsNews/idUSSP21504720071209'
p1741
sg4
S'20071209\xc2\xa006:35 AM EST'
p1742
sg6
S'Prayad clinches Volvo Masters of Asia'
p1743
sa(dp1744
g2
S'http://www.reuters.com/article/sportsNews/idUSSP21158520071209'
p1745
sg4
S'20071209\xc2\xa006:35 AM EST'
p1746
sg6
S"China's Liang takes another step towards the top"
p1747
sa(dp1748
g2
S'http://www.reuters.com/article/latestCrisis/idUSSP216532'
p1749
sg4
S'20071209\xc2\xa006:35 AM EST'
p1750
sg6
S'Balinese farm coral to boost fish catch, income'
p1751
sa(dp1752
g2
S'http://www.reuters.com/article/rbssEnergyNews/idUSAMA93543820071209'
p1753
sg4
S'20071209\xc2\xa006:33 AM EST'
p1754
sg6
S'Oil Search wins Tunisia drill permit-officials'
p1755
sa(dp1756
g2
S'http://www.reuters.com/article/newsOne/idUSBLA92638820071209'
p1757
sg4
S'20071209\xc2\xa006:33 AM EST'
p1758
sg6
S'Iraq proposes U.S.-Iran talks in January'
p1759
sa(dp1760
g2
S'http://www.reuters.com/article/newsOne/idUSL0928718520071209'
p1761
sg4
S'20071209\xc2\xa006:33 AM EST'
p1762
sg6
S'Iraq provincial police chief killed in bombing'
p1763
sa(dp1764
g2
S'http://www.reuters.com/article/latestCrisis/idUSDHA215814'
p1765
sg4
S'20071209\xc2\xa006:32 AM EST'
p1766
sg6
S'Four dead, many hurt in Bangladesh building collapse'
p1767
sa(dp1768
g2
S'http://www.reuters.com/article/pressRelease/idUS48671+09-Dec-2007+PRN20071209'
p1769
sg4
S'20071209\xc2\xa006:30 AM EST'
p1770
sg6
S'Following Is a Test Release'
p1771
sa(dp1772
g2
S'http://www.reuters.com/article/latestCrisis/idUSL09287185'
p1773
sg4
S'20071209\xc2\xa006:25 AM EST'
p1774
sg6
S'Iraq provincial police chief killed in bombing'
p1775
sa(dp1776
g2
S'http://www.reuters.com/article/latestCrisis/idUSL09279022'
p1777
sg4
S'20071209\xc2\xa006:19 AM EST'
p1778
sg6
S"Kenya enjoying greatest freedoms ever - Thiong'o"
p1779
sa(dp1780
g2
S'http://www.reuters.com/article/rbssFinancialServicesAndRealEstateNews/idUSL0927394420071209'
p1781
sg4
S'20071209\xc2\xa006:18 AM EST'
p1782
sg6
S"REFILE-Kuwait's NBK to start $1.5 bln share sale Tuesday"
p1783
sa(dp1784
g2
S'http://www.reuters.com/article/latestCrisis/idUSL09282501'
p1785
sg4
S'20071209\xc2\xa006:16 AM EST'
p1786
sg6
S'Africa rejects European trade deals - Senegal'
p1787
sa(dp1788
g2
S'http://www.reuters.com/article/latestCrisis/idUSL09282802'
p1789
sg4
S'20071209\xc2\xa006:16 AM EST'
p1790
sg6
S'Iraqi provincial police chief killed in bombing'
p1791
sa(dp1792
g2
S'http://www.reuters.com/article/rbssConsumerGoodsAndRetailNews/idUSL0927833120071209'
p1793
sg4
S'20071209\xc2\xa006:03 AM EST'
p1794
sg6
S'Adidas bets on Euro 2008 to boost sales - paper'
p1795
sa(dp1796
g2
S'http://www.reuters.com/article/topNews/idUSL0921434420071209'
p1797
sg4
S'20071209\xc2\xa006:03 AM EST'
p1798
sg6
S'Turkey eyes law to get PKK members to quit: report'
p1799
sa(dp1800
g2
S'http://www.reuters.com/article/pressRelease/idUS47744+09-Dec-2007+PRN20071209'
p1801
sg4
S'20071209\xc2\xa006:00 AM EST'
p1802
sg6
S'Sapiens Reports Payment of the Second Installment of the Principal of the Debentures'
p1803
sa(dp1804
g2
S'http://www.reuters.com/article/pressRelease/idUS47719+09-Dec-2007+PRN20071209'
p1805
sg4
S'20071209\xc2\xa006:00 AM EST'
p1806
sg6
S'VRG Launches Flights to Santiago, Chile'
p1807
sa(dp1808
g2
S'http://www.reuters.com/article/pressRelease/idUS47718+09-Dec-2007+PRN20071209'
p1809
sg4
S'20071209\xc2\xa006:00 AM EST'
p1810
sg6
S'Following Is a Test Release'
p1811
sa(dp1812
g2
S'http://www.reuters.com/article/pressRelease/idUS47680+09-Dec-2007+PRN20071209'
p1813
sg4
S'20071209\xc2\xa005:59 AM EST'
p1814
sg6
S'GOOD MORNING -- December 09, 2007'
p1815
sa(dp1816
g2
S'http://www.reuters.com/article/rbssTechMediaTelecomNews/idUSJER00244420071209'
p1817
sg4
S'20071209\xc2\xa005:58 AM EST'
p1818
sg6
S'DIARY - Israel - To January 6'
p1819
sa(dp1820
g2
S'http://www.reuters.com/article/latestCrisis/idUSL09247760'
p1821
sg4
S'20071209\xc2\xa005:44 AM EST'
p1822
sg6
S'Poland sees EU ban extended after new H5N1 outbreak'
p1823
sa(dp1824
g2
S'http://www.reuters.com/article/companyNewsAndPR/idUSPAC00900520071209'
p1825
sg4
S'20071209\xc2\xa005:44 AM EST'
p1826
sg6
S'Suez Environment awarded contract in Dubai project'
p1827
sa(dp1828
g2
S'http://www.reuters.com/article/mergersNews/idUSL0926782220071209'
p1829
sg4
S'20071209\xc2\xa005:42 AM EST'
p1830
sg6
S'Swatch sees Tiffany sales of 800 mln Sfr-paper'
p1831
sa(dp1832
g2
S'http://www.reuters.com/article/pressRelease/idUS46037+09-Dec-2007+PRN20071209'
p1833
sg4
S'20071209\xc2\xa005:30 AM EST'
p1834
sg6
S'Following Is a Test Release'
p1835
sa(dp1836
g2
S'http://www.reuters.com/article/latestCrisis/idUSL09247150'
p1837
sg4
S'20071209\xc2\xa005:27 AM EST'
p1838
sg6
S'WITNESS-After a bombing, retail therapy in Baghdad'
p1839
sa(dp1840
g2
S'http://www.reuters.com/article/latestCrisis/idUSL09247338'
p1841
sg4
S'20071209\xc2\xa005:27 AM EST'
p1842
sg6
S'ADVISORY - Witness: Life in Baghdad'
p1843
sa(dp1844
g2
S'http://www.reuters.com/article/latestCrisis/idUSL09253253'
p1845
sg4
S'20071209\xc2\xa005:22 AM EST'
p1846
sg6
S"Britain's Brown appeals for Iraq hostages release"
p1847
sa(dp1848
g2
S'http://www.reuters.com/article/latestCrisis/idUSL09691506'
p1849
sg4
S'20071209\xc2\xa005:16 AM EST'
p1850
sg6
S'At risk in Arctic, "polar bears" thrive in Bali'
p1851
sa(dp1852
g2
S'http://www.reuters.com/article/companyNewsAndPR/idUSL0925559020071209'
p1853
sg4
S'20071209\xc2\xa005:16 AM EST'
p1854
sg6
S'UBS stops withdrawals from real estate funds-paper'
p1855
sa(dp1856
g2
S'http://www.reuters.com/article/latestCrisis/idUSCOL217124'
p1857
sg4
S'20071209\xc2\xa005:13 AM EST'
p1858
sg6
S'Suicide bomber kills 6 in NW Pakistan Swat valley'
p1859
sa(dp1860
g2
S'http://www.reuters.com/article/latestCrisis/idUSL08668175'
p1861
sg4
S'20071209\xc2\xa005:12 AM EST'
p1862
sg6
S"ANALYSIS-Britain's Iraq war is ending. Who won?"
p1863
sa(dp1864
g2
S'http://www.reuters.com/article/latestCrisis/idUSL09254660'
p1865
sg4
S'20071209\xc2\xa005:05 AM EST'
p1866
sg6
S'Car bomb kills 2 Iraqi soldiers in northern oil hub'
p1867
sa(dp1868
g2
S'http://www.reuters.com/article/worldNews/idUSL0654012120071209'
p1869
sg4
S'20071209\xc2\xa005:03 AM EST'
p1870
sg6
S'FACTBOX: Profile of the disputed Kosovo province'
p1871
sa(dp1872
g2
S'http://www.reuters.com/article/worldNews/idUSL0652005320071209'
p1873
sg4
S'20071209\xc2\xa005:03 AM EST'
p1874
sg6
S'FACTBOX: Breakaway regions look to Kosovo precedent'
p1875
sa(dp1876
g2
S'http://www.reuters.com/article/pressRelease/idUS44032+09-Dec-2007+PRN20071209'
p1877
sg4
S'20071209\xc2\xa005:00 AM EST'
p1878
sg6
S'Following Is a Test Release'
p1879
sa(dp1880
g2
S'http://www.reuters.com/article/homepageCrisis/idUSFLE931300._CH_.2400'
p1881
sg4
S'20071209\xc2\xa004:55 AM EST'
p1882
sg6
S'Europe, Africa work to smooth divisions at summit'
p1883
sa(dp1884
g2
S'http://www.reuters.com/article/latestCrisis/idUSFLE931300'
p1885
sg4
S'20071209\xc2\xa004:55 AM EST'
p1886
sg6
S'Europe, Africa work to smooth divisions at summit'
p1887
sa(dp1888
g2
S'http://www.reuters.com/article/rbssFinancialServicesAndRealEstateNews/idUSPEK9826120071209'
p1889
sg4
S'20071209\xc2\xa004:51 AM EST'
p1890
sg6
S'China raises QFII cap to $30 billion - regulator'
p1891
sa(dp1892
g2
S'http://www.reuters.com/article/latestCrisis/idUSL06520053'
p1893
sg4
S'20071209\xc2\xa004:47 AM EST'
p1894
sg6
S'FACTBOX-Breakaway regions look to Kosovo precedent'
p1895
sa(dp1896
g2
S'http://www.reuters.com/article/latestCrisis/idUSL06540121'
p1897
sg4
S'20071209\xc2\xa004:44 AM EST'
p1898
sg6
S'FACTBOX-Profile of the disputed Kosovo province'
p1899
sa(dp1900
g2
S'http://www.reuters.com/article/pressRelease/idUS41820+09-Dec-2007+PRN20071209'
p1901
sg4
S'20071209\xc2\xa004:30 AM EST'
p1902
sg6
S'Following Is a Test Release'
p1903
sa(dp1904
g2
S'http://www.reuters.com/article/topNews/idUSL0922391720071209'
p1905
sg4
S'20071209\xc2\xa004:01 AM EST'
p1906
sg6
S'Iraq Kurd leader to discuss oil deals with Baghdad'
p1907
sa(dp1908
g2
S'http://www.reuters.com/article/pressRelease/idUS40126+09-Dec-2007+PRN20071209'
p1909
sg4
S'20071209\xc2\xa004:00 AM EST'
p1910
sg6
S'Following Is a Test Release'
p1911
sa(dp1912
g2
S'http://www.reuters.com/article/pressRelease/idUS38939+09-Dec-2007+PRN20071209'
p1913
sg4
S'20071209\xc2\xa003:39 AM EST'
p1914
sg6
S'Following Is a Test Release'
p1915
sa(dp1916
g2
S'http://www.reuters.com/article/rbssConsumerGoodsAndRetailNews/idUSBOM20170920071209'
p1917
sg4
S'20071209\xc2\xa003:39 AM EST'
p1918
sg6
S'Indiabulls buys Piramyd Retail, makes open offer'
p1919
sa(dp1920
g2
S'http://www.reuters.com/article/businessNews/idUSL0922911720071209'
p1921
sg4
S'20071209\xc2\xa003:39 AM EST'
p1922
sg6
S'Investec plans subprime lender sale to Goldman Sachs: report'
p1923
sa(dp1924
g2
S'http://www.reuters.com/article/latestCrisis/idUSISL213176'
p1925
sg4
S'20071209\xc2\xa003:38 AM EST'
p1926
sg6
S'Taliban leaders seized in assault on Afghan town'
p1927
sa(dp1928
g2
S'http://www.reuters.com/article/sportsNews/idUSSP20356420071209'
p1929
sg4
S'20071209\xc2\xa003:36 AM EST'
p1930
sg6
S'Lonard wins third Australian PGA title'
p1931
sa(dp1932
g2
S'http://www.reuters.com/article/sportsNews/idUSB15433420071209'
p1933
sg4
S'20071209\xc2\xa003:36 AM EST'
p1934
sg6
S"China's Liang win's Asian Tour order of merit title"
p1935
sa(dp1936
g2
S'http://www.reuters.com/article/newsMaps/idUSL0731060120071209'
p1937
sg4
S'20071209\xc2\xa003:32 AM EST'
p1938
sg6
S'Bosnian Serbs vote for new president'
p1939
sa(dp1940
g2
S'http://www.reuters.com/article/pressRelease/idUS38377+09-Dec-2007+PRN20071209'
p1941
sg4
S'20071209\xc2\xa003:30 AM EST'
p1942
sg6
S'Following Is a Test Release'
p1943
sa(dp1944
g2
S'http://www.reuters.com/article/latestCrisis/idUSCOL203942'
p1945
sg4
S'20071209\xc2\xa003:28 AM EST'
p1946
sg6
S'Suicide bomber kills 3 in NW Pakistan Swat valley'
p1947
sa(dp1948
g2
S'http://www.reuters.com/article/newsOne/idUSN0934637820071209'
p1949
sg4
S'20071209\xc2\xa003:24 AM EST'
p1950
sg6
S'7.6 magnitude quake hits South Pacific'
p1951
sa(dp1952
g2
S'http://www.reuters.com/article/environmentNews/idUSN0763014620071209'
p1953
sg4
S'20071209\xc2\xa003:13 AM EST'
p1954
sg6
S'Jet-setting hockey players aim to slash emissions'
p1955
sa(dp1956
g2
S'http://www.reuters.com/article/topNews/idUSSP6094020071209'
p1957
sg4
S'20071209\xc2\xa003:08 AM EST'
p1958
sg6
S'FACTBOX: Key facts about oil spills'
p1959
sa(dp1960
g2
S'http://www.reuters.com/article/latestCrisis/idUSN09346378'
p1961
sg4
S'20071209\xc2\xa003:03 AM EST'
p1962
sg6
S'Quake of 7.6 magnitude hits South Pacific - USGS'
p1963
sa(dp1964
g2
S'http://www.reuters.com/article/pressRelease/idUS36697+09-Dec-2007+PRN20071209'
p1965
sg4
S'20071209\xc2\xa003:00 AM EST'
p1966
sg6
S'Following Is a Test Release'
p1967
sa(dp1968
g2
S'http://www.reuters.com/article/latestCrisis/idUSMAC923731'
p1969
sg4
S'20071209\xc2\xa002:59 AM EST'
p1970
sg6
S'Israel says must trade Jerusalem areas with Arabs'
p1971
sa(dp1972
g2
S'http://www.reuters.com/article/topNews/idUSSP21357320071209'
p1973
sg4
S'20071209\xc2\xa002:58 AM EST'
p1974
sg6
S'Mayweather pays tribute to Hatton'
p1975
sa(dp1976
g2
S'http://www.reuters.com/article/latestCrisis/idUSSEO78366'
p1977
sg4
S'20071209\xc2\xa002:49 AM EST'
p1978
sg6
S"Beaches blackened in South Korea's worst oil spill"
p1979
sa(dp1980
g2
S'http://www.reuters.com/article/pressRelease/idUS36029+09-Dec-2007+PRN20071209'
p1981
sg4
S'20071209\xc2\xa002:30 AM EST'
p1982
sg6
S'Following Is a Test Release'
p1983
sa(dp1984
g2
S'http://www.reuters.com/article/rbssFinancialServicesAndRealEstateNews/idUSL0936248220071209'
p1985
sg4
S'20071209\xc2\xa002:27 AM EST'
p1986
sg6
S'UAE construction costs to jump 20 pct in 2008-paper'
p1987
sa(dp1988
g2
S'http://www.reuters.com/article/latestCrisis/idUSBLA926388'
p1989
sg4
S'20071209\xc2\xa002:04 AM EST'
p1990
sg6
S'Iraq proposes U.S.-Iran talks in Jan - Tehran'
p1991
sa(dp1992
g2
S'http://www.reuters.com/article/pressRelease/idUS34584+09-Dec-2007+PRN20071209'
p1993
sg4
S'20071209\xc2\xa002:00 AM EST'
p1994
sg6
S'Following Is a Test Release'
p1995
sa(dp1996
g2
S'http://www.reuters.com/article/latestCrisis/idUSBLA925470'
p1997
sg4
S'20071209\xc2\xa001:43 AM EST'
p1998
sg6
S'Iraq proposes U.S.-Iran talks in Jan - Tehran'
p1999
sa(dp2000
g2
S'http://www.reuters.com/article/worldNews/idUSKLR19873620071209'
p2001
sg4
S'20071209\xc2\xa001:40 AM EST'
p2002
sg6
S'Malaysian police halt human-rights day march'
p2003
sa(dp2004
g2
S'http://www.reuters.com/article/pressRelease/idUS33013+09-Dec-2007+PRN20071209'
p2005
sg4
S'20071209\xc2\xa001:30 AM EST'
p2006
sg6
S'Following Is a Test Release'
p2007
sa(dp2008
g2
S'http://www.reuters.com/article/rbssIndustryMaterialsUtilitiesNews/idUSBOM25710420071209'
p2009
sg4
S'20071209\xc2\xa001:16 AM EST'
p2010
sg6
S"India's Suzlon plans $500 million placement - paper"
p2011
sa(dp2012
g2
S'http://www.reuters.com/article/rbssFinancialServicesAndRealEstateNews/idUSSEO6886120071209'
p2013
sg4
S'20071209\xc2\xa001:09 AM EST'
p2014
sg6
S'Shinhan Card issues $600 mln ABS bonds overseas'
p2015
sa(dp2016
g2
S'http://www.reuters.com/article/pressRelease/idUS31432+09-Dec-2007+PRN20071209'
p2017
sg4
S'20071209\xc2\xa001:00 AM EST'
p2018
sg6
S'Following Is a Test Release'
p2019
sa(dp2020
g2
S'http://www.reuters.com/article/rbssFinancialServicesAndRealEstateNews/idUSSEO6762620071209'
p2021
sg4
S'20071209\xc2\xa012:46 AM EST'
p2022
sg6
S"Hana enters strategic link with China's Jilin bank"
p2023
sa(dp2024
g2
S'http://www.reuters.com/article/worldNews/idUST8148620071209'
p2025
sg4
S'20071209\xc2\xa012:41 AM EST'
p2026
sg6
S'Record numbers of Chinese sit government job exam'
p2027
sa(dp2028
g2
S'http://www.reuters.com/article/worldNews/idUSBKK21726520071209'
p2029
sg4
S'20071209\xc2\xa012:36 AM EST'
p2030
sg6
S"Ex-Thai PM's unity government call wins little support"
p2031
sa(dp2032
g2
S'http://www.reuters.com/article/sportsNews/idUSSP20856820071209'
p2033
sg4
S'20071209\xc2\xa012:32 AM EST'
p2034
sg6
S'Celtics hold off Bulls for 17th victory of season'
p2035
sa(dp2036
g2
S'http://www.reuters.com/article/pressRelease/idUS29860+09-Dec-2007+PRN20071209'
p2037
sg4
S'20071209\xc2\xa012:30 AM EST'
p2038
sg6
S'Following Is a Test Release'
p2039
sa(dp2040
g2
S'http://www.reuters.com/article/rbssFinancialServicesAndRealEstateNews/idUSL0921481520071209'
p2041
sg4
S'20071209\xc2\xa012:26 AM EST'
p2042
sg6
S"Dubai's Emaar starts Karachi property sales"
p2043
sa(dp2044
g2
S'http://www.reuters.com/article/homepageCrisis/idUSSP210166._CH_.2400'
p2045
sg4
S'20071209\xc2\xa012:25 AM EST'
p2046
sg6
S'Nations bicker in Bali over "green" goods trade'
p2047
sa(dp2048
g2
S'http://www.reuters.com/article/latestCrisis/idUSSP210166'
p2049
sg4
S'20071209\xc2\xa012:25 AM EST'
p2050
sg6
S'Nations bicker in Bali over "green" goods trade'
p2051
sa(dp2052
g2
S'http://www.reuters.com/article/peopleNews/idUSMAN19394420071209'
p2053
sg4
S'20071209\xc2\xa012:05 AM EST'
p2054
sg6
S'Farmers want Angelina Jolie to visit Philippines'
p2055
sa(dp2056
g2
S'http://www.reuters.com/article/pressRelease/idUS28285+09-Dec-2007+PRN20071209'
p2057
sg4
S'20071209\xc2\xa012:00 AM EST'
p2058
sg6
S'Following Is a Test Release'
p2059
sa(dp2060
g2
S'http://www.reuters.com/news/video/videoStory?storyID=WAO1196697075572'
p2061
sg4
S'20071209\xc2\xa012:39 PM EST'
p2062
sg6
S'Giant Christmas cake'
p2063
sa(dp2064
g2
S'http://www.reuters.com/news/video/videoStory?storyID=ftpo1195054781698'
p2065
sg4
S'20071209\xc2\xa012:39 PM EST'
p2066
sg6
S'Scotch Whisky smashes records'
p2067
sa(dp2068
g2
S'http://www.reuters.com/news/video/videoStory?storyID=ftpo1195054781693'
p2069
sg4
S'20071209\xc2\xa012:16 PM EST'
p2070
sg6
S'Gore calls for action'
p2071
sa(dp2072
g2
S'http://www.reuters.com/news/video/videoStory?storyID=WAO1196697075567'
p2073
sg4
S'20071209\xc2\xa012:14 PM EST'
p2074
sg6
S'The rising price of charcoal'
p2075
sa(dp2076
g2
S'http://www.reuters.com/news/video/videoStory?storyID=ftpo1195054781688'
p2077
sg4
S'20071209\xc2\xa012:01 PM EST'
p2078
sg6
S'Oprah campaigns for Obama'
p2079
sa(dp2080
g2
S'http://www.reuters.com/news/video/videoStory?storyID=ftpo1195054781683'
p2081
sg4
S'20071209\xc2\xa011:30 AM EST'
p2082
sg6
S'Climate-v-survival'
p2083
sa(dp2084
g2
S'http://www.reuters.com/news/video/videoStory?storyID=ftpo1195054781678'
p2085
sg4
S'20071209\xc2\xa010:40 AM EST'
p2086
sg6
S'Europeans want new ties to Africa'
p2087
sa(dp2088
g2
S'http://www.reuters.com/news/video/videoStory?storyID=ftpo1195054781673'
p2089
sg4
S'20071209\xc2\xa010:26 AM EST'
p2090
sg6
S'Mayweather magnanimous in victory'
p2091
sa(dp2092
g2
S'http://www.reuters.com/news/video/videoStory?storyID=ftpo1195054781668'
p2093
sg4
S'20071209\xc2\xa008:26 AM EST'
p2094
sg6
S'Chad detainees start hunger strike'
p2095
sa(dp2096
g2
S'http://www.reuters.com/news/video/videoStory?storyID=ftpo1195054781663'
p2097
sg4
S'20071209\xc2\xa006:35 AM EST'
p2098
sg6
S"'NATO offensive going to plan'"
p2099
sa(dp2100
g2
S'http://www.reuters.com/news/video/videoStory?storyID=ftpo1195054781658'
p2101
sg4
S'20071209\xc2\xa006:18 AM EST'
p2102
sg6
S'Great balls of fire'
p2103
sa(dp2104
g2
S'http://www.reuters.com/news/video/videoStory?storyID=ftpo1195054781653'
p2105
sg4
S'20071209\xc2\xa005:15 AM EST'
p2106
sg6
S"South Korea's worst oil spill"
p2107
sa.