(lp0
(dp1
S'href'
p2
S'http://www.reuters.com/article/latestCrisis/idUSSP32476'
p3
sS'ts'
p4
S'20070715\xc2\xa011:55 PM EDT'
p5
sS'title'
p6
S'FACTBOX-Five facts on Philippines President Arroyo'
p7
sa(dp8
g2
S'http://www.reuters.com/article/bankingfinancial-SP/idUSL1318134220070716'
p9
sg4
S'20070715\xc2\xa011:55 PM EDT'
p10
sg6
S"ABN's U.S. sale can proceed, boosts Barclays bid"
p11
sa(dp12
g2
S'http://www.reuters.com/article/bankingfinancial-SP/idUSWLB885420070716'
p13
sg4
S'20070715\xc2\xa011:55 PM EDT'
p14
sg6
S'RBS trio to go ahead with revised offer for ABN'
p15
sa(dp16
g2
S'http://www.reuters.com/article/bankingfinancial-SP/idUSN1341168820070716'
p17
sg4
S'20070715\xc2\xa011:55 PM EDT'
p18
sg6
S'Bank of America set for Chicago, Michigan touchdown'
p19
sa(dp20
g2
S'http://www.reuters.com/article/bankingfinancial-SP/idUSN1338797720070716'
p21
sg4
S'20070715\xc2\xa011:55 PM EDT'
p22
sg6
S'Benchmark ABX indexes hits intraday record low'
p23
sa(dp24
g2
S'http://www.reuters.com/article/bankingfinancial-SP/idUSN1324515620070716'
p25
sg4
S'20070715\xc2\xa011:55 PM EDT'
p26
sg6
S'Marsh & McLennan sued by ex-COO of unit'
p27
sa(dp28
g2
S'http://www.reuters.com/article/bankingfinancial-SP/idUSN1140560020070716'
p29
sg4
S'20070715\xc2\xa011:55 PM EDT'
p30
sg6
S'ING Bank of Canada vows more retail shakeups'
p31
sa(dp32
g2
S'http://www.reuters.com/article/bankingfinancial-SP/idUSN1140443620070716'
p33
sg4
S'20070715\xc2\xa011:55 PM EDT'
p34
sg6
S"Resurgent rivals to challenge Barclays' ETF hold"
p35
sa(dp36
g2
S'http://www.reuters.com/article/bankingfinancial-SP/idUSL1342686520070716'
p37
sg4
S'20070715\xc2\xa011:55 PM EDT'
p38
sg6
S'Reinsurer Paris Re slides on market debut'
p39
sa(dp40
g2
S'http://www.reuters.com/article/bankingfinancial-SP/idUSL1319628220070716'
p41
sg4
S'20070715\xc2\xa011:55 PM EDT'
p42
sg6
S'ABN suitors seen moving quickly on takeover plans'
p43
sa(dp44
g2
S'http://www.reuters.com/article/topNews/idUSBKK26904720070716'
p45
sg4
S'20070715\xc2\xa011:49 PM EDT'
p46
sg6
S'N.Korean reactor is shut down: IAEA'
p47
sa(dp48
g2
S'http://www.reuters.com/article/homepageCrisis/idUSPEK149202._CH_.2400'
p49
sg4
S'20070715\xc2\xa011:44 PM EDT'
p50
sg6
S'China warns of more flood misery, disease'
p51
sa(dp52
g2
S'http://www.reuters.com/article/latestCrisis/idUSPEK149202'
p53
sg4
S'20070715\xc2\xa011:44 PM EDT'
p54
sg6
S'China warns of more flood misery, disease'
p55
sa(dp56
g2
S'http://www.reuters.com/article/sportsNews/idUSB71881320070716'
p57
sg4
S'20070715\xc2\xa011:31 PM EDT'
p58
sg6
S'Stewart ends 20-race winless streak with NASCAR win'
p59
sa(dp60
g2
S'http://www.reuters.com/article/sportsNews/idUSSP2138820070716'
p61
sg4
S'20070715\xc2\xa011:29 PM EDT'
p62
sg6
S"Teixeira's homer powers Rangers to 11th-inning win"
p63
sa(dp64
g2
S'http://www.reuters.com/article/sportsNews/idUSN1528061020070716'
p65
sg4
S'20070715\xc2\xa011:27 PM EDT'
p66
sg6
S'Heroic Venus comes up short'
p67
sa(dp68
g2
S'http://www.reuters.com/article/sportsNews/idUSB43176820070716'
p69
sg4
S'20070715\xc2\xa011:24 PM EDT'
p70
sg6
S'Brazil open Panamerican gold account as U.S. dominate'
p71
sa(dp72
g2
S'http://www.reuters.com/article/companyNewsAndPR/idUSL1642027420070716'
p73
sg4
S'20070715\xc2\xa011:22 PM EDT'
p74
sg6
S'PRESS DIGEST - Financial Times - July 16 =6'
p75
sa(dp76
g2
S'http://www.reuters.com/article/latestCrisis/idUSPEK144632'
p77
sg4
S'20070715\xc2\xa011:11 PM EDT'
p78
sg6
S'China says climate change drying up major rivers'
p79
sa(dp80
g2
S'http://www.reuters.com/article/companyNewsAndPR/idUSSP2960520070716'
p81
sg4
S'20070715\xc2\xa011:03 PM EDT'
p82
sg6
S'FOREX-Dollar comes off record low vs euro, kiwi bid'
p83
sa(dp84
g2
S'http://www.reuters.com/article/companyNewsAndPR/idUSN1525937920070716'
p85
sg4
S'20070715\xc2\xa010:52 PM EDT'
p86
sg6
S'UPDATE 1-US meat exporters troubled by China trade flap'
p87
sa(dp88
g2
S'http://www.reuters.com/article/latestCrisis/idUSN15259379'
p89
sg4
S'20070715\xc2\xa010:52 PM EDT'
p90
sg6
S'US meat exporters troubled by China trade flap'
p91
sa(dp92
g2
S'http://www.reuters.com/article/worldNews/idUSL1267896820070716'
p93
sg4
S'20070715\xc2\xa010:52 PM EDT'
p94
sg6
S'Russian Koryaks drum and sing to save native culture'
p95
sa(dp96
g2
S'http://www.reuters.com/article/environmentNews/idUSL1525414920070716'
p97
sg4
S'20070715\xc2\xa010:50 PM EDT'
p98
sg6
S'Uganda gears up to become oil producer'
p99
sa(dp100
g2
S'http://www.reuters.com/article/ousiv/idUSL1451460320070716'
p101
sg4
S'20070715\xc2\xa010:48 PM EDT'
p102
sg6
S'JPMorgan awaits consolidation before EU buys: report'
p103
sa(dp104
g2
S'http://www.reuters.com/article/entertainmentNews/idUSN1541192820070716'
p105
sg4
S'20070715\xc2\xa010:44 PM EDT'
p106
sg6
S'Editors aims for front page'
p107
sa(dp108
g2
S'http://www.reuters.com/article/companyNewsAndPR/idUSL1642586020070716'
p109
sg4
S'20070715\xc2\xa010:39 PM EDT'
p110
sg6
S'PRESS DIGEST - British business - July 16 =6'
p111
sa(dp112
g2
S'http://www.reuters.com/article/televisionNews/idUSL1345543620070716'
p113
sg4
S'20070715\xc2\xa010:36 PM EDT'
p114
sg6
S'"Little Britain" to go American'
p115
sa(dp116
g2
S'http://www.reuters.com/article/filmNews/idUSN1325673720070716'
p117
sg4
S'20070715\xc2\xa010:36 PM EDT'
p118
sg6
S'Fox, Miner take "Street"'
p119
sa(dp120
g2
S'http://www.reuters.com/article/televisionNews/idUSN1230584620070716'
p121
sg4
S'20070715\xc2\xa010:35 PM EDT'
p122
sg6
S'O\'Donnell ready for more "Nip/Tuck"'
p123
sa(dp124
g2
S'http://www.reuters.com/article/peopleNews/idUSN1231244320070716'
p125
sg4
S'20070715\xc2\xa010:35 PM EDT'
p126
sg6
S'Evel Knievel, Kanye West seek deal over suit'
p127
sa(dp128
g2
S'http://www.reuters.com/article/peopleNews/idUSN1222650820070716'
p129
sg4
S'20070715\xc2\xa010:35 PM EDT'
p130
sg6
S'Charlie Sheen engaged'
p131
sa(dp132
g2
S'http://www.reuters.com/article/filmNews/idUSPEK28444120070716'
p133
sg4
S'20070715\xc2\xa010:35 PM EDT'
p134
sg6
S'Chinese director opens wounds in Yasukuni shrine film'
p135
sa(dp136
g2
S'http://www.reuters.com/article/entertainmentNews/idUSN1530128720070716'
p137
sg4
S'20070715\xc2\xa010:34 PM EDT'
p138
sg6
S'Second "X-Files" pic moving toward production'
p139
sa(dp140
g2
S'http://www.reuters.com/article/televisionNews/idUSN1325876720070716'
p141
sg4
S'20070715\xc2\xa010:29 PM EDT'
p142
sg6
S'HBO pursues life after "Sopranos"'
p143
sa(dp144
g2
S'http://www.reuters.com/article/worldNews/idUSSP33376520070716'
p145
sg4
S'20070715\xc2\xa010:28 PM EDT'
p146
sg6
S'Aboriginal art industry booming in outback'
p147
sa(dp148
g2
S'http://www.reuters.com/article/mergersNews/idUSSHA7098620070716'
p149
sg4
S'20070715\xc2\xa010:20 PM EDT'
p150
sg6
S"China Xi'an Aircraft to sell up to $872 mln in shrs"
p151
sa(dp152
g2
S'http://www.reuters.com/article/companyNewsAndPR/idUST5993120070716'
p153
sg4
S'20070715\xc2\xa010:17 PM EDT'
p154
sg6
S'Samsung Electronics names new head of memory chips'
p155
sa(dp156
g2
S'http://www.reuters.com/article/marketsNews/idUSHKG1628920070716'
p157
sg4
S'20070715\xc2\xa010:15 PM EDT'
p158
sg6
S"TABLE-PetroChina's H1 oil, gas output climbs 3.7 pct"
p159
sa(dp160
g2
S'http://www.reuters.com/article/latestCrisis/idUST144791'
p161
sg4
S'20070715\xc2\xa010:15 PM EDT'
p162
sg6
S'Fire breaks out at Japan nuclear plant after quake'
p163
sa(dp164
g2
S'http://www.reuters.com/article/latestCrisis/idUSJAK21244'
p165
sg4
S'20070715\xc2\xa010:14 PM EDT'
p166
sg6
S'PRESS DIGEST-Indonesian General News - July 16'
p167
sa(dp168
g2
S'http://www.reuters.com/article/environmentNews/idUSN1335040320070716'
p169
sg4
S'20070715\xc2\xa010:13 PM EDT'
p170
sg6
S'U.S. nuke bomb site enters new life as nature refuge'
p171
sa(dp172
g2
S'http://www.reuters.com/article/environmentNews/idUSN1338954720070716'
p173
sg4
S'20070715\xc2\xa010:08 PM EDT'
p174
sg6
S'"Peak oil" advocates blast U.S. industry study'
p175
sa(dp176
g2
S'http://www.reuters.com/article/latestCrisis/idUSPEK139153'
p177
sg4
S'20070715\xc2\xa010:07 PM EDT'
p178
sg6
S'China warns of more flood misery in river basin'
p179
sa(dp180
g2
S'http://www.reuters.com/article/worldNews/idUSSIN20875420070716'
p181
sg4
S'20070715\xc2\xa010:01 PM EDT'
p182
sg6
S'Singapore set to raze third of heritage bungalows'
p183
sa(dp184
g2
S'http://www.reuters.com/article/companyNewsAndPR/idUSL1376086420070716'
p185
sg4
S'20070715\xc2\xa010:01 PM EDT'
p186
sg6
S'ASML hopes new machine will lift sales, mkt share'
p187
sa(dp188
g2
S'http://www.reuters.com/article/latestCrisis/idUSHAN27817'
p189
sg4
S'20070715\xc2\xa010:00 PM EDT'
p190
sg6
S'PRESS DIGEST - Vietnam newspapers - July 16'
p191
sa(dp192
g2
S'http://www.reuters.com/article/companyNewsAndPR/idUSHKG33280920070716'
p193
sg4
S'20070715\xc2\xa009:51 PM EDT'
p194
sg6
S'UPDATE 1-PetroChina pumps 3.7 pct more oil, gas in Q2'
p195
sa(dp196
g2
S'http://www.reuters.com/article/latestCrisis/idUST148017'
p197
sg4
S'20070715\xc2\xa009:26 PM EDT'
p198
sg6
S'Strong quake jolts northwestern Japan, felt in Tokyo'
p199
sa(dp200
g2
S'http://www.reuters.com/article/worldNews/idUSPEK9622220070716'
p201
sg4
S'20070715\xc2\xa009:25 PM EDT'
p202
sg6
S"China's army worries about threat to food safety"
p203
sa(dp204
g2
S'http://www.reuters.com/article/latestCrisis/idUSPEK26323'
p205
sg4
S'20070715\xc2\xa009:19 PM EDT'
p206
sg6
S'China blames foreign media for food health scares'
p207
sa(dp208
g2
S'http://www.reuters.com/article/marketsNews/idUSHKU00081820070716'
p209
sg4
S'20070715\xc2\xa009:04 PM EDT'
p210
sg6
S'PetroChina pumps 3.7 pct more oil, gas in H1'
p211
sa(dp212
g2
S'http://www.reuters.com/article/latestCrisis/idUSSEO142427'
p213
sg4
S'20070715\xc2\xa009:03 PM EDT'
p214
sg6
S'More oil heads to North Korea under nuclear deal'
p215
sa(dp216
g2
S'http://www.reuters.com/article/latestCrisis/idUSSYD74312'
p217
sg4
S'20070715\xc2\xa009:00 PM EDT'
p218
sg6
S'Indian doctor on terror charge granted bail'
p219
sa(dp220
g2
S'http://www.reuters.com/article/worldNews/idUSN1526928920070716'
p221
sg4
S'20070715\xc2\xa008:41 PM EDT'
p222
sg6
S'Colombian cat house reject explodes bomb'
p223
sa(dp224
g2
S'http://www.reuters.com/article/companyNewsAndPR/idUSN1529736620070716'
p225
sg4
S'20070715\xc2\xa008:41 PM EDT'
p226
sg6
S'GM plans $350 mln Argentina car plant - source'
p227
sa(dp228
g2
S'http://www.reuters.com/article/sportsNews/idUSN1428358020070716'
p229
sg4
S'20070715\xc2\xa008:40 PM EDT'
p230
sg6
S'Russia beat U.S. 3-2 to reach Fed Cup final'
p231
sa(dp232
g2
S'http://www.reuters.com/article/ousiv/idUSKIM55642020070716'
p233
sg4
S'20070715\xc2\xa008:16 PM EDT'
p234
sg6
S'France, Germany seek to resolve splits over EADS'
p235
sa(dp236
g2
S'http://www.reuters.com/article/pressReleasesMolt/idUSN1529775720070716'
p237
sg4
S'20070715\xc2\xa008:14 PM EDT'
p238
sg6
S"Rediff.com shares are overpriced - Barron's"
p239
sa(dp240
g2
S'http://www.reuters.com/article/environmentNews/idUSN1228917620070716'
p241
sg4
S'20070715\xc2\xa008:05 PM EDT'
p242
sg6
S'Rooftops key to Florida green energy goal'
p243
sa(dp244
g2
S'http://www.reuters.com/article/scienceNews/idUSHAN30088020070716'
p245
sg4
S'20070715\xc2\xa008:04 PM EDT'
p246
sg6
S'Travel Postcard: 48 hours in Hanoi'
p247
sa(dp248
g2
S'http://www.reuters.com/article/environmentNews/idUSHKG9059320070715'
p249
sg4
S'20070715\xc2\xa007:56 PM EDT'
p250
sg6
S'Guangzhou mayor leads mass swim in polluted river'
p251
sa(dp252
g2
S'http://www.reuters.com/article/environmentNews/idUSN1338954720070715'
p253
sg4
S'20070715\xc2\xa007:56 PM EDT'
p254
sg6
S'"Peak oil" advocates blast U.S. industry study'
p255
sa(dp256
g2
S'http://www.reuters.com/article/environmentNews/idUSN1335040320070715'
p257
sg4
S'20070715\xc2\xa007:56 PM EDT'
p258
sg6
S'U.S. nuke bomb site enters new life as nature refuge'
p259
sa(dp260
g2
S'http://www.reuters.com/article/environmentNews/idUSN1328977920070715'
p261
sg4
S'20070715\xc2\xa007:56 PM EDT'
p262
sg6
S'DiCaprio, Discovery building "Eco-Town"'
p263
sa(dp264
g2
S'http://www.reuters.com/article/environmentNews/idUSN1228917620070715'
p265
sg4
S'20070715\xc2\xa007:56 PM EDT'
p266
sg6
S'Rooftops key to Florida green energy goal'
p267
sa(dp268
g2
S'http://www.reuters.com/article/environmentNews/idUSL1537052020070715'
p269
sg4
S'20070715\xc2\xa007:56 PM EDT'
p270
sg6
S'Oil leaks from sunk Ibiza ship to be sealed Monday'
p271
sa(dp272
g2
S'http://www.reuters.com/article/environmentNews/idUSL1440855520070715'
p273
sg4
S'20070715\xc2\xa007:56 PM EDT'
p274
sg6
S'Paris wakes up to large scale bike hire scheme'
p275
sa(dp276
g2
S'http://www.reuters.com/article/environmentNews/idUSHO41492320070715'
p277
sg4
S'20070715\xc2\xa007:56 PM EDT'
p278
sg6
S'Governor signs Florida greenhouse gas targets'
p279
sa(dp280
g2
S'http://www.reuters.com/article/worldNews/idUSSP2571820070715'
p281
sg4
S'20070715\xc2\xa007:55 PM EDT'
p282
sg6
S"Ecosystems of Vietnam's long coastline are in peril"
p283
sa(dp284
g2
S'http://www.reuters.com/article/worldNews/idUSL0232554920070715'
p285
sg4
S'20070715\xc2\xa007:50 PM EDT'
p286
sg6
S'Cluster bombs still deadly 10 years after Tajik war'
p287
sa(dp288
g2
S'http://www.reuters.com/article/worldNews/idUSL1392037320070715'
p289
sg4
S'20070715\xc2\xa007:50 PM EDT'
p290
sg6
S'Decade after Diana campaign, few use landmines'
p291
sa(dp292
g2
S'http://www.reuters.com/article/latestCrisis/idUSN15269289'
p293
sg4
S'20070715\xc2\xa007:46 PM EDT'
p294
sg6
S'Colombian cat house reject explodes bomb, one dead'
p295
sa(dp296
g2
S'http://www.reuters.com/article/bankingfinancial-SP/idUSSHA14720920070715'
p297
sg4
S'20070715\xc2\xa007:26 PM EDT'
p298
sg6
S'RPT-China CITIC Bank says to post strong 1H net growth'
p299
sa(dp300
g2
S'http://www.reuters.com/article/companyNewsAndPR/idUSN1530098520070715'
p301
sg4
S'20070715\xc2\xa007:18 PM EDT'
p302
sg6
S'US meat exporters troubled by China trade flap'
p303
sa(dp304
g2
S'http://www.reuters.com/article/latestCrisis/idUSN15300985'
p305
sg4
S'20070715\xc2\xa007:18 PM EDT'
p306
sg6
S'US meat exporters troubled by China trade flap'
p307
sa(dp308
g2
S'http://www.reuters.com/article/companyNewsAndPR/idUSL1538744120070715'
p309
sg4
S'20070715\xc2\xa007:17 PM EDT'
p310
sg6
S'Germany ready to cede share of top EADS job -paper'
p311
sa(dp312
g2
S'http://www.reuters.com/article/ousiv/idUSN1331264120070715'
p313
sg4
S'20070715\xc2\xa007:14 PM EDT'
p314
sg6
S'Black verdict closes chapter in fraud crackdown'
p315
sa(dp316
g2
S'http://www.reuters.com/article/ousiv/idUSN1325038320070715'
p317
sg4
S'20070715\xc2\xa007:14 PM EDT'
p318
sg6
S'Blackstone partners may avoid tax on IPO gains'
p319
sa(dp320
g2
S'http://www.reuters.com/article/ousiv/idUSL1451460320070715'
p321
sg4
S'20070715\xc2\xa007:14 PM EDT'
p322
sg6
S'JPMorgan awaits consolidation before EU buys: report'
p323
sa(dp324
g2
S'http://www.reuters.com/article/inDepthNews/idUSL0915747720070715'
p325
sg4
S'20070715\xc2\xa007:13 PM EDT'
p326
sg6
S'Gold mining in volcanic Russian wilds'
p327
sa(dp328
g2
S'http://www.reuters.com/article/bondsNews/idUSN1526707520070715'
p329
sg4
S'20070715\xc2\xa007:13 PM EDT'
p330
sg6
S'LA cardinal apologizes, offers record abuse deal'
p331
sa(dp332
g2
S'http://www.reuters.com/article/newsOne/idUSN1127066720070715'
p333
sg4
S'20070715\xc2\xa007:10 PM EDT'
p334
sg6
S'Venezuelans, fleeing Chavez, seek U.S. safety net'
p335
sa(dp336
g2
S'http://www.reuters.com/article/sportsNews/idUSN1529659720070715'
p337
sg4
S'20070715\xc2\xa007:01 PM EDT'
p338
sg6
S'Byrd earns Open spot with John Deere victory'
p339
sa(dp340
g2
S'http://www.reuters.com/article/sportsNews/idUSISS36995620070715'
p341
sg4
S'20070715\xc2\xa007:01 PM EDT'
p342
sg6
S'John Deere Classic final round scores'
p343
sa(dp344
g2
S'http://www.reuters.com/article/politicsNews/idUSN1034793420070715'
p345
sg4
S'20070715\xc2\xa006:57 PM EDT'
p346
sg6
S'White House spurns Republican Iraq proposal'
p347
sa(dp348
g2
S'http://www.reuters.com/article/politicsNews/idUSL1511506220070715'
p349
sg4
S'20070715\xc2\xa006:57 PM EDT'
p350
sg6
S'FACTBOX-Security developments in Iraq'
p351
sa(dp352
g2
S'http://www.reuters.com/article/tnBasicIndustries-SP/idUSSYD4750620070715'
p353
sg4
S'20070715\xc2\xa006:53 PM EDT'
p354
sg6
S"Australia's Coates to open data room"
p355
sa(dp356
g2
S'http://www.reuters.com/article/sportsNews/idUSN1534922120070715'
p357
sg4
S'20070715\xc2\xa006:38 PM EDT'
p358
sg6
S'Winners of the John Deere Classic'
p359
sa(dp360
g2
S'http://www.reuters.com/article/latestCrisis/idUSL15115062'
p361
sg4
S'20070715\xc2\xa006:37 PM EDT'
p362
sg6
S'FACTBOX-Security developments in Iraq, July 15'
p363
sa(dp364
g2
S'http://www.reuters.com/article/worldNews/idUSL1537057720070715'
p365
sg4
S'20070715\xc2\xa006:23 PM EDT'
p366
sg6
S'Libya to decide fate of foreign medics in HIV case'
p367
sa(dp368
g2
S'http://www.reuters.com/article/companyNewsAndPR/idUSN1528804120070715'
p369
sg4
S'20070715\xc2\xa006:22 PM EDT'
p370
sg6
S"McDermott shares to do well for some time-Barron's"
p371
sa(dp372
g2
S'http://www.reuters.com/article/healthNews/idUSL1529355320070715'
p373
sg4
S'20070715\xc2\xa006:12 PM EDT'
p374
sg6
S'Doctor who sparked vaccine scare faces UK hearing'
p375
sa(dp376
g2
S'http://www.reuters.com/article/latestCrisis/idUSL15370577'
p377
sg4
S'20070715\xc2\xa006:07 PM EDT'
p378
sg6
S'Libya to decide fate of foreign medics in HIV case'
p379
sa(dp380
g2
S'http://www.reuters.com/article/mergersNews/idUSN1529775720070715'
p381
sg4
S'20070715\xc2\xa006:05 PM EDT'
p382
sg6
S"Rediff.com shares are overpriced - Barron's"
p383
sa(dp384
g2
S'http://www.reuters.com/article/latestCrisis/idUSL15374831'
p385
sg4
S'20070715\xc2\xa006:02 PM EDT'
p386
sg6
S'Olmert, Abbas to discuss help for WBank government'
p387
sa(dp388
g2
S'http://www.reuters.com/article/televisionNews/idUSN1326108620070715'
p389
sg4
S'20070715\xc2\xa005:53 PM EDT'
p390
sg6
S'Blogger Perez Hilton mingling with VH1'
p391
sa(dp392
g2
S'http://www.reuters.com/article/televisionNews/idUSN1325876720070715'
p393
sg4
S'20070715\xc2\xa005:53 PM EDT'
p394
sg6
S'HBO pursues life after "Sopranos"'
p395
sa(dp396
g2
S'http://www.reuters.com/article/televisionNews/idUSN1230584620070715'
p397
sg4
S'20070715\xc2\xa005:53 PM EDT'
p398
sg6
S'O\'Donnell ready for more "Nip/Tuck"'
p399
sa(dp400
g2
S'http://www.reuters.com/article/televisionNews/idUSN1224681020070715'
p401
sg4
S'20070715\xc2\xa005:53 PM EDT'
p402
sg6
S'Lifetime faces reality with Friday-night lineup'
p403
sa(dp404
g2
S'http://www.reuters.com/article/televisionNews/idUSL1439460620070715'
p405
sg4
S'20070715\xc2\xa005:53 PM EDT'
p406
sg6
S'Restoring trust biggest headache for British TV'
p407
sa(dp408
g2
S'http://www.reuters.com/article/televisionNews/idUSL1345543620070715'
p409
sg4
S'20070715\xc2\xa005:53 PM EDT'
p410
sg6
S'"Little Britain" to go American'
p411
sa(dp412
g2
S'http://www.reuters.com/article/televisionNews/idUSN1329684020070715'
p413
sg4
S'20070715\xc2\xa005:53 PM EDT'
p414
sg6
S'Rodriguez falling for "Ugly Betty"'
p415
sa(dp416
g2
S'http://www.reuters.com/article/televisionNews/idUSN1327070120070715'
p417
sg4
S'20070715\xc2\xa005:53 PM EDT'
p418
sg6
S'E! eyes Snoop for reality show'
p419
sa(dp420
g2
S'http://www.reuters.com/article/entertainmentNews/idUSN1529867420070715'
p421
sg4
S'20070715\xc2\xa005:52 PM EDT'
p422
sg6
S'Showtime orders Spielberg comedy series'
p423
sa(dp424
g2
S'http://www.reuters.com/article/bondsNews/idUSN1528714020070715'
p425
sg4
S'20070715\xc2\xa005:36 PM EDT'
p426
sg6
S"National Rural may be due rating downgrade-Barron's"
p427
sa(dp428
g2
S'http://www.reuters.com/article/domesticNews/idUSB32201420070715'
p429
sg4
S'20070715\xc2\xa005:31 PM EDT'
p430
sg6
S'Rapper Remy Ma arrested in NY weekend shooting'
p431
sa(dp432
g2
S'http://www.reuters.com/article/artsNews/idUSN1328153820070715'
p433
sg4
S'20070715\xc2\xa005:30 PM EDT'
p434
sg6
S"Who's written a new rock opera? Pete Townshend"
p435
sa(dp436
g2
S'http://www.reuters.com/article/peopleNews/idUSN1231244320070715'
p437
sg4
S'20070715\xc2\xa005:30 PM EDT'
p438
sg6
S'Evel Knievel, Kanye West seek deal over suit'
p439
sa(dp440
g2
S'http://www.reuters.com/article/peopleNews/idUSN1227549920070715'
p441
sg4
S'20070715\xc2\xa005:30 PM EDT'
p442
sg6
S'Beckham finally on board as Galaxy player'
p443
sa(dp444
g2
S'http://www.reuters.com/article/peopleNews/idUSN1222650820070715'
p445
sg4
S'20070715\xc2\xa005:30 PM EDT'
p446
sg6
S'Charlie Sheen engaged'
p447
sa(dp448
g2
S'http://www.reuters.com/article/peopleNews/idUSN1328592220070715'
p449
sg4
S'20070715\xc2\xa005:30 PM EDT'
p450
sg6
S"L.A. Sheriff investigates Paris Hilton's jail time"
p451
sa(dp452
g2
S'http://www.reuters.com/article/entertainmentNews/idUSL1536496820070715'
p453
sg4
S'20070715\xc2\xa005:28 PM EDT'
p454
sg6
S'Versace dance tribute watched by Naomi, Claudia'
p455
sa(dp456
g2
S'http://www.reuters.com/article/entertainmentNews/idUSN1332423020070715'
p457
sg4
S'20070715\xc2\xa005:22 PM EDT'
p458
sg6
S'Architect Gehry builds fantasy with fado singer'
p459
sa(dp460
g2
S'http://www.reuters.com/article/peopleNews/idUSL1462237620070715'
p461
sg4
S'20070715\xc2\xa005:21 PM EDT'
p462
sg6
S'Milan plans ballet tribute for Versace 10 years on'
p463
sa(dp464
g2
S'http://www.reuters.com/article/musicNews/idUSN1341187620070715'
p465
sg4
S'20070715\xc2\xa005:21 PM EDT'
p466
sg6
S'Live Nation, Maroon 5 ink for the long run'
p467
sa(dp468
g2
S'http://www.reuters.com/article/musicNews/idUSN1340576920070715'
p469
sg4
S'20070715\xc2\xa005:21 PM EDT'
p470
sg6
S'New 50 Cent album pushed back another week'
p471
sa(dp472
g2
S'http://www.reuters.com/article/musicNews/idUSN1330685920070715'
p473
sg4
S'20070715\xc2\xa005:21 PM EDT'
p474
sg6
S'Nick packs for Web "Camp"'
p475
sa(dp476
g2
S'http://www.reuters.com/article/musicNews/idUSL1410119920070715'
p477
sg4
S'20070715\xc2\xa005:21 PM EDT'
p478
sg6
S'Prince angers retailers by giving album away free'
p479
sa(dp480
g2
S'http://www.reuters.com/article/musicNews/idUSL1218632520070715'
p481
sg4
S'20070715\xc2\xa005:21 PM EDT'
p482
sg6
S'Exchanged for computer, Bychkov conducts in freedom'
p483
sa(dp484
g2
S'http://www.reuters.com/article/musicNews/idUSHO41500020070715'
p485
sg4
S'20070715\xc2\xa005:21 PM EDT'
p486
sg6
S"Who's written a new rock opera? Pete Townshend"
p487
sa(dp488
g2
S'http://www.reuters.com/article/musicNews/idUSN1341192020070715'
p489
sg4
S'20070715\xc2\xa005:21 PM EDT'
p490
sg6
S'Maverick Malo puts personal spin on country classics'
p491
sa(dp492
g2
S'http://www.reuters.com/article/mergersNews/idUSN1529862220070715'
p493
sg4
S'20070715\xc2\xa005:19 PM EDT'
p494
sg6
S"First Solar shares may be overvalued - Barron's"
p495
sa(dp496
g2
S'http://www.reuters.com/article/domesticNews/idUSL1535785920070715'
p497
sg4
S'20070715\xc2\xa005:10 PM EDT'
p498
sg6
S'No joy for Gay, Wariner and amputee Pistorius'
p499
sa(dp500
g2
S'http://www.reuters.com/article/sportsNews/idUSN1428358020070715'
p501
sg4
S'20070715\xc2\xa005:07 PM EDT'
p502
sg6
S'U.S.-Russia semi-final to be decided by doubles'
p503
sa(dp504
g2
S'http://www.reuters.com/article/sportsNews/idUSISS36925420070715'
p505
sg4
S'20070715\xc2\xa005:07 PM EDT'
p506
sg6
S'Fed Cup world group, U.S. v Russia scores'
p507
sa(dp508
g2
S'http://www.reuters.com/article/sportsNews/idUSL1520434920070715'
p509
sg4
S'20070715\xc2\xa005:02 PM EDT'
p510
sg6
S'Rasmussen takes stage and yellow jersey'
p511
sa(dp512
g2
S'http://www.reuters.com/article/sportsNews/idUSL1546029520070715'
p513
sg4
S'20070715\xc2\xa005:02 PM EDT'
p514
sg6
S'This could be my year, says Rasmussen'
p515
sa(dp516
g2
S'http://www.reuters.com/article/sportsNews/idUSL1533723220070715'
p517
sg4
S'20070715\xc2\xa005:02 PM EDT'
p518
sg6
S'Australia lose three in painful Tour stage'
p519
sa(dp520
g2
S'http://www.reuters.com/article/environmentNews/idUSL1477299220070715'
p521
sg4
S'20070715\xc2\xa004:52 PM EDT'
p522
sg6
S'Lithuanian plans Baltic Sea swim for environment'
p523
sa(dp524
g2
S'http://www.reuters.com/article/domesticNews/idUSN1528579320070715'
p525
sg4
S'20070715\xc2\xa004:48 PM EDT'
p526
sg6
S'Gas prices rise on global oil, refinery shutdowns'
p527
sa(dp528
g2
S'http://www.reuters.com/article/topNews/idUSN1528797120070715'
p529
sg4
S'20070715\xc2\xa004:45 PM EDT'
p530
sg6
S'Catholic Church avoids abuse trial with LA deal'
p531
sa(dp532
g2
S'http://www.reuters.com/article/newsOne/idUSN1531000120070715'
p533
sg4
S'20070715\xc2\xa004:45 PM EDT'
p534
sg6
S'Can money heal sex-abuse wounds? Catholics ask'
p535
sa(dp536
g2
S'http://www.reuters.com/article/technologyNews/idUSN1529632920070715'
p537
sg4
S'20070715\xc2\xa004:33 PM EDT'
p538
sg6
S"It's no secret: Facebook's allure is its privacy"
p539
sa(dp540
g2
S'http://www.reuters.com/article/topNews/idUSN1522731220070715'
p541
sg4
S'20070715\xc2\xa004:21 PM EDT'
p542
sg6
S'Friends, family bid final goodbye to Lady Bird Johnson'
p543
sa(dp544
g2
S'http://www.reuters.com/article/topNews/idUSN1526910320070715'
p545
sg4
S'20070715\xc2\xa004:15 PM EDT'
p546
sg6
S"FACTBOX: Five facts on the Catholic Church's sex abuse scandal"
p547
sa(dp548
g2
S'http://www.reuters.com/article/latestCrisis/idUSN15298490'
p549
sg4
S'20070715\xc2\xa004:09 PM EDT'
p550
sg6
S'White House spurns Republican Iraq proposal'
p551
sa(dp552
g2
S'http://www.reuters.com/article/topNews/idUSN1528958320070715'
p553
sg4
S'20070715\xc2\xa004:06 PM EDT'
p554
sg6
S'FACTBOX: Roman Catholic Church sex scandals in Europe, U.S.'
p555
sa(dp556
g2
S'http://www.reuters.com/article/latestCrisis/idUSN15227312'
p557
sg4
S'20070715\xc2\xa004:01 PM EDT'
p558
sg6
S'Friends, family bid final goodbye to Lady Bird Johnson'
p559
sa(dp560
g2
S'http://www.reuters.com/article/worldNews/idUSL1434460820070715'
p561
sg4
S'20070715\xc2\xa003:53 PM EDT'
p562
sg6
S'Lebanon army advances into camp'
p563
sa(dp564
g2
S'http://www.reuters.com/article/worldNews/idUSL1531786820070715'
p565
sg4
S'20070715\xc2\xa003:53 PM EDT'
p566
sg6
S'France says Lebanon dialogue relaunched in talks'
p567
sa(dp568
g2
S'http://www.reuters.com/article/worldNews/idUSL1512050520070715'
p569
sg4
S'20070715\xc2\xa003:51 PM EDT'
p570
sg6
S'Israel to stop hunting scores of Fatah militants'
p571
sa(dp572
g2
S'http://www.reuters.com/article/worldNews/idUSL1523946420070715'
p573
sg4
S'20070715\xc2\xa003:49 PM EDT'
p574
sg6
S"Peres vows to pursue peace as Israel's president"
p575
sa(dp576
g2
S'http://www.reuters.com/article/worldNews/idUSL1529675820070715'
p577
sg4
S'20070715\xc2\xa003:49 PM EDT'
p578
sg6
S'FACTBOX: The life of Shimon Peres'
p579
sa(dp580
g2
S'http://www.reuters.com/article/topNews/idUSN1426977320070715'
p581
sg4
S'20070715\xc2\xa003:39 PM EDT'
p582
sg6
S'Los Angeles Catholic Church in record abuse deal'
p583
sa(dp584
g2
S'http://www.reuters.com/article/topNews/idUSN1529106820070715'
p585
sg4
S'20070715\xc2\xa003:39 PM EDT'
p586
sg6
S'FACTBOX: Quotes on $660 million Catholic abuse settlement'
p587
sa(dp588
g2
S'http://www.reuters.com/article/latestCrisis/idUSL15317868'
p589
sg4
S'20070715\xc2\xa003:39 PM EDT'
p590
sg6
S'France says Lebanon dialogue relaunched in talks'
p591
sa(dp592
g2
S'http://www.reuters.com/article/topNews/idUSSP1037320070715'
p593
sg4
S'20070715\xc2\xa003:37 PM EDT'
p594
sg6
S'North Korea says U.S., Japan hold key to disarming'
p595
sa(dp596
g2
S'http://www.reuters.com/article/topNews/idUSKIM55725620070715'
p597
sg4
S'20070715\xc2\xa003:16 PM EDT'
p598
sg6
S'Fresh attacks in Pakistan, 40 killed'
p599
sa(dp600
g2
S'http://www.reuters.com/article/newsOne/idUSN1526827320070715'
p601
sg4
S'20070715\xc2\xa003:15 PM EDT'
p602
sg6
S'U.S. backing Pakistani crackdown in tribal area'
p603
sa(dp604
g2
S'http://www.reuters.com/article/topNews/idUSL1527440020070715'
p605
sg4
S'20070715\xc2\xa003:15 PM EDT'
p606
sg6
S'TIMELINE: Major incidents of violence in Pakistan'
p607
sa(dp608
g2
S'http://www.reuters.com/article/worldNews/idUSYAT71336220070715'
p609
sg4
S'20070715\xc2\xa003:04 PM EDT'
p610
sg6
S'At least 25 killed in violence around Iraq'
p611
sa(dp612
g2
S'http://www.reuters.com/article/worldNews/idUSL1431695020070715'
p613
sg4
S'20070715\xc2\xa003:04 PM EDT'
p614
sg6
S'FACTBOX: Security developments in Iraq, July 15'
p615
sa(dp616
g2
S'http://www.reuters.com/article/topNews/idUSL1519761220070715'
p617
sg4
S'20070715\xc2\xa002:57 PM EDT'
p618
sg6
S'Pope hopes to visit U.S., France in 2008'
p619
sa(dp620
g2
S'http://www.reuters.com/article/companyNewsAndPR/idUSN1527267220070715'
p621
sg4
S'20070715\xc2\xa002:53 PM EDT'
p622
sg6
S"Potash Corp. shares could rise 30 pct-Barron's"
p623
sa(dp624
g2
S'http://www.reuters.com/article/sportsNews/idUSL1403522320070715'
p625
sg4
S'20070715\xc2\xa002:53 PM EDT'
p626
sg6
S"France's Havret beats jittery Mickelson in playoff"
p627
sa(dp628
g2
S'http://www.reuters.com/article/sportsNews/idUSL1532572220070715'
p629
sg4
S'20070715\xc2\xa002:53 PM EDT'
p630
sg6
S'Traditional champagne soaking for Loch Lomond winner Havret'
p631
sa(dp632
g2
S'http://www.reuters.com/article/mergersNews/idUSN1529752520070715'
p633
sg4
S'20070715\xc2\xa002:41 PM EDT'
p634
sg6
S'UPDATE 1-Mexico watchdog sets rules for Televisa cable buy'
p635
sa(dp636
g2
S'http://www.reuters.com/article/worldNews/idUSL1531965520070715'
p637
sg4
S'20070715\xc2\xa002:41 PM EDT'
p638
sg6
S'Darfur mediators discuss peace progress'
p639
sa(dp640
g2
S'http://www.reuters.com/article/latestCrisis/idUSN15297145'
p641
sg4
S'20070715\xc2\xa002:19 PM EDT'
p642
sg6
S'US backing Pakistani crackdown in tribal area'
p643
sa(dp644
g2
S'http://www.reuters.com/article/mergersNews/idUSN1321932820070715'
p645
sg4
S'20070715\xc2\xa002:13 PM EDT'
p646
sg6
S'Mexico watchdog sets rules for Televisa cable buy'
p647
sa(dp648
g2
S'http://www.reuters.com/article/homepageCrisis/idUSL15319655._CH_.2400'
p649
sg4
S'20070715\xc2\xa002:12 PM EDT'
p650
sg6
S'Darfur mediators discuss peace progress'
p651
sa(dp652
g2
S'http://www.reuters.com/article/latestCrisis/idUSL15319655'
p653
sg4
S'20070715\xc2\xa002:12 PM EDT'
p654
sg6
S'Darfur mediators discuss peace progress'
p655
sa(dp656
g2
S'http://www.reuters.com/article/bondsNews/idUSN1525468220070715'
p657
sg4
S'20070715\xc2\xa002:01 PM EDT'
p658
sg6
S'WEEKAHEAD-Emerging debt to remain supported by inflows'
p659
sa(dp660
g2
S'http://www.reuters.com/article/worldNews/idUSISL393220070715'
p661
sg4
S'20070715\xc2\xa001:59 PM EDT'
p662
sg6
S'Afghan president pardons failed suicide bomber boy'
p663
sa(dp664
g2
S'http://www.reuters.com/article/worldNews/idUSISL1584520070715'
p665
sg4
S'20070715\xc2\xa001:59 PM EDT'
p666
sg6
S'Roadside bomb kills six Afghan workers'
p667
sa(dp668
g2
S'http://www.reuters.com/article/filmNews/idUSN1237011120070715'
p669
sg4
S'20070715\xc2\xa001:53 PM EDT'
p670
sg6
S'Rome enters "Golden Age" with Blanchett'
p671
sa(dp672
g2
S'http://www.reuters.com/article/filmNews/idUSPEK28444120070715'
p673
sg4
S'20070715\xc2\xa001:53 PM EDT'
p674
sg6
S'Chinese director opens wounds in Yasukuni shrine film'
p675
sa(dp676
g2
S'http://www.reuters.com/article/filmNews/idUSN1340965620070715'
p677
sg4
S'20070715\xc2\xa001:53 PM EDT'
p678
sg6
S'Lumet\'s "Devil" has its day at ThinkFilm'
p679
sa(dp680
g2
S'http://www.reuters.com/article/filmNews/idUSN1340593720070715'
p681
sg4
S'20070715\xc2\xa001:53 PM EDT'
p682
sg6
S'Genre cleverness eludes "Captivity"'
p683
sa(dp684
g2
S'http://www.reuters.com/article/filmNews/idUSN1340272820070715'
p685
sg4
S'20070715\xc2\xa001:53 PM EDT'
p686
sg6
S'Canadian nurses admitted to "Sicko" for free'
p687
sa(dp688
g2
S'http://www.reuters.com/article/filmNews/idUSN1325692920070715'
p689
sg4
S'20070715\xc2\xa001:53 PM EDT'
p690
sg6
S'Watts gains "International" passport'
p691
sa(dp692
g2
S'http://www.reuters.com/article/filmNews/idUSN1325673720070715'
p693
sg4
S'20070715\xc2\xa001:53 PM EDT'
p694
sg6
S'Fox, Miner take "Street"'
p695
sa(dp696
g2
S'http://www.reuters.com/article/filmNews/idUSN1256622620070715'
p697
sg4
S'20070715\xc2\xa001:53 PM EDT'
p698
sg6
S'Hollywood, movie fans shy away from "torture porn"'
p699
sa(dp700
g2
S'http://www.reuters.com/article/filmNews/idUSN1241068620070715'
p701
sg4
S'20070715\xc2\xa001:53 PM EDT'
p702
sg6
S'Warner Bros. picks up "Heap" of books'
p703
sa(dp704
g2
S'http://www.reuters.com/article/entertainmentNews/idUSN1527297820070715'
p705
sg4
S'20070715\xc2\xa001:53 PM EDT'
p706
sg6
S'"Harry Potter" rides to top of box office charts'
p707
sa(dp708
g2
S'http://www.reuters.com/article/entertainmentNews/idUSN1529255220070715'
p709
sg4
S'20070715\xc2\xa001:52 PM EDT'
p710
sg6
S'The top films at the North American box office'
p711
sa(dp712
g2
S'http://www.reuters.com/article/newsOne/idUSL1419543220070715'
p713
sg4
S'20070715\xc2\xa001:44 PM EDT'
p714
sg6
S'Polish, U.S. presidents to discuss missile shield'
p715
sa(dp716
g2
S'http://www.reuters.com/article/musicNews/idUSN1336608620070715'
p717
sg4
S'20070715\xc2\xa001:41 PM EDT'
p718
sg6
S'Billboard CD reviews: Charles Mingus Sextet'
p719
sa(dp720
g2
S'http://www.reuters.com/article/companyNewsAndPR/idUSN1529232920070715'
p721
sg4
S'20070715\xc2\xa001:28 PM EDT'
p722
sg6
S'UPDATE 1-"Harry Potter" rides to top of box office charts'
p723
sa(dp724
g2
S'http://www.reuters.com/article/reutersEdge/idUSN1525813720070715'
p725
sg4
S'20070715\xc2\xa001:18 PM EDT'
p726
sg6
S'Nintendo a good bet to keep growing strong'
p727
sa(dp728
g2
S'http://www.reuters.com/article/featuredCrisis/idUSISL26479'
p729
sg4
S'20070715\xc2\xa001:06 PM EDT'
p730
sg6
S'Fresh attacks in NW Pakistan, 40 killed'
p731
sa(dp732
g2
S'http://www.reuters.com/article/latestCrisis/idUSL15274400'
p733
sg4
S'20070715\xc2\xa001:02 PM EDT'
p734
sg6
S'CHRONOLOGY-Major incidents of violence in Pakistan'
p735
sa(dp736
g2
S'http://www.reuters.com/article/latestCrisis/idUSMCD555704'
p737
sg4
S'20070715\xc2\xa001:02 PM EDT'
p738
sg6
S'Sudan opposition leader held, accused of coup plot'
p739
sa(dp740
g2
S'http://www.reuters.com/article/latestCrisis/idUSL15279744'
p741
sg4
S'20070715\xc2\xa012:57 PM EDT'
p742
sg6
S'Polish nurses call off tent city pay protest'
p743
sa(dp744
g2
S'http://www.reuters.com/article/businessNews/idUSL1518080620070715'
p745
sg4
S'20070715\xc2\xa012:54 PM EDT'
p746
sg6
S'HBOS eyes property group Quintain: paper'
p747
sa(dp748
g2
S'http://www.reuters.com/article/innovationNews/idUSL1524978020070715'
p749
sg4
S'20070715\xc2\xa012:52 PM EDT'
p750
sg6
S'Qatar bank offers up to $6.1 bln for Ahli United'
p751
sa(dp752
g2
S'http://www.reuters.com/article/latestCrisis/idUSL15253293'
p753
sg4
S'20070715\xc2\xa012:51 PM EDT'
p754
sg6
S"Peres vows to pursue peace as Israel's president"
p755
sa(dp756
g2
S'http://www.reuters.com/article/ousiv/idUSSIN15176720070715'
p757
sg4
S'20070715\xc2\xa012:50 PM EDT'
p758
sg6
S'Business Books: Asian Godfathers--money, bets, and sex'
p759
sa(dp760
g2
S'http://www.reuters.com/article/pressReleasesMolt/idUSL1535886120070715'
p761
sg4
S'20070715\xc2\xa012:49 PM EDT'
p762
sg6
S'Dubai stock market owner to bid for OMX: report'
p763
sa(dp764
g2
S'http://www.reuters.com/article/scienceNews/idUSL1527896320070715'
p765
sg4
S'20070715\xc2\xa012:40 PM EDT'
p766
sg6
S'Zanzibar fishermen land ancient fish'
p767
sa(dp768
g2
S'http://www.reuters.com/article/worldNews/idUSN1528086220070715'
p769
sg4
S'20070715\xc2\xa012:32 PM EDT'
p770
sg6
S'White House spurns Republican Iraq proposal'
p771
sa(dp772
g2
S'http://www.reuters.com/article/worldNews/idUSN1428656220070715'
p773
sg4
S'20070715\xc2\xa012:32 PM EDT'
p774
sg6
S"September looms as Bush's moment of truth on Iraq"
p775
sa(dp776
g2
S'http://www.reuters.com/article/worldNews/idUSL1518870920070715'
p777
sg4
S'20070715\xc2\xa012:32 PM EDT'
p778
sg6
S'Iraq, Saudi agree to monitor sectarian fatwas'
p779
sa(dp780
g2
S'http://www.reuters.com/article/worldNews/idUSBUL55043820070715'
p781
sg4
S'20070715\xc2\xa012:32 PM EDT'
p782
sg6
S'Loyalty divided within Iraqi police: U.S. military'
p783
sa(dp784
g2
S'http://www.reuters.com/article/worldNews/idUSBUL52387120070715'
p785
sg4
S'20070715\xc2\xa012:32 PM EDT'
p786
sg6
S'Iraq PM says security forces can take over from U.S.'
p787
sa(dp788
g2
S'http://www.reuters.com/article/worldNews/idUSL1521701120070715'
p789
sg4
S'20070715\xc2\xa012:25 PM EDT'
p790
sg6
S'Egypt bars ex-U.S. attorney general from Islamist trial'
p791
sa(dp792
g2
S'http://www.reuters.com/article/companyNewsAndPR/idUSL1527815620070715'
p793
sg4
S'20070715\xc2\xa012:25 PM EDT'
p794
sg6
S'Arpida superbug drug benefits confirmed in trial'
p795
sa(dp796
g2
S'http://www.reuters.com/article/latestCrisis/idUSL15278963'
p797
sg4
S'20070715\xc2\xa012:22 PM EDT'
p798
sg6
S'Zanzibar fishermen land ancient fish'
p799
sa(dp800
g2
S'http://www.reuters.com/article/featuredCrisis/idUSL15296758'
p801
sg4
S'20070715\xc2\xa012:20 PM EDT'
p802
sg6
S'FACTBOX-The life of Shimon Peres'
p803
sa(dp804
g2
S'http://www.reuters.com/article/ousiv/idUSN1330292520070715'
p805
sg4
S'20070715\xc2\xa012:18 PM EDT'
p806
sg6
S'Sallie deal may yet go ahead, but price could fall'
p807
sa(dp808
g2
S'http://www.reuters.com/article/newsOne/idUSN1537388920070715'
p809
sg4
S'20070715\xc2\xa012:18 PM EDT'
p810
sg6
S'American angst grows over globalization "menace"'
p811
sa(dp812
g2
S'http://www.reuters.com/article/worldNews/idUSL1516547220070715'
p813
sg4
S'20070715\xc2\xa012:11 PM EDT'
p814
sg6
S'Somali peace talks adjourned after mortar attack'
p815
sa(dp816
g2
S'http://www.reuters.com/article/latestCrisis/idUSN15280862'
p817
sg4
S'20070715\xc2\xa012:11 PM EDT'
p818
sg6
S'White House spurns Republican Iraq proposal'
p819
sa(dp820
g2
S'http://www.reuters.com/article/newsOne/idUSN1527220020070715'
p821
sg4
S'20070715\xc2\xa012:04 PM EDT'
p822
sg6
S'Castro challenges Bush for area hearts and minds'
p823
sa(dp824
g2
S'http://www.reuters.com/article/homepageCrisis/idUSL15165472._CH_.2400'
p825
sg4
S'20070715\xc2\xa011:54 AM EDT'
p826
sg6
S'Somali peace talks adjourned after mortar attack'
p827
sa(dp828
g2
S'http://www.reuters.com/article/latestCrisis/idUSL15165472'
p829
sg4
S'20070715\xc2\xa011:54 AM EDT'
p830
sg6
S'Somali peace talks adjourned after mortar attack'
p831
sa(dp832
g2
S'http://www.reuters.com/article/ousiv/idUSN1331035120070715'
p833
sg4
S'20070715\xc2\xa011:53 AM EDT'
p834
sg6
S"Broadcom probe looks at ex-CEO's behavior: report"
p835
sa(dp836
g2
S'http://www.reuters.com/article/politicsNews/idUSN1527227520070715'
p837
sg4
S'20070715\xc2\xa011:52 AM EDT'
p838
sg6
S'Bernanke to stress price worries before Congress'
p839
sa(dp840
g2
S'http://www.reuters.com/article/newsOne/idUSKIM55621320070715'
p841
sg4
S'20070715\xc2\xa011:49 AM EDT'
p842
sg6
S'CORRECTION: Fresh attacks in northwest Pakistan kill 32'
p843
sa(dp844
g2
S'http://www.reuters.com/article/worldNews/idUSL1527170320070715'
p845
sg4
S'20070715\xc2\xa011:48 AM EDT'
p846
sg6
S'Hamas leader won\'t bow to "food blackmail"'
p847
sa(dp848
g2
S'http://www.reuters.com/article/worldNews/idUSL1525765320070715'
p849
sg4
S'20070715\xc2\xa011:48 AM EDT'
p850
sg6
S'Despite blockade, Hamas pays full wages to fighters'
p851
sa(dp852
g2
S'http://www.reuters.com/article/worldNews/idUSL1521096120070715'
p853
sg4
S'20070715\xc2\xa011:48 AM EDT'
p854
sg6
S'Hamas unable to convene parliament to counter Abbas'
p855
sa(dp856
g2
S'http://www.reuters.com/article/ousiv/idUSN1326548020070715'
p857
sg4
S'20070715\xc2\xa011:41 AM EDT'
p858
sg6
S"Whole Foods CEO's message posts trouble experts"
p859
sa(dp860
g2
S'http://www.reuters.com/article/businessNews/idUSKIM55642020070715'
p861
sg4
S'20070715\xc2\xa011:41 AM EDT'
p862
sg6
S'France hopes to get EADS deal'
p863
sa(dp864
g2
S'http://www.reuters.com/article/latestCrisis/idUSBUL554559'
p865
sg4
S'20070715\xc2\xa011:37 AM EDT'
p866
sg6
S'At least 25 killed in violence around Iraq'
p867
sa(dp868
g2
S'http://www.reuters.com/article/newsOne/idUSL1527309620070715'
p869
sg4
S'20070715\xc2\xa011:33 AM EDT'
p870
sg6
S'Two UK bomb suspects released without charge'
p871
sa(dp872
g2
S'http://www.reuters.com/article/latestCrisis/idUSN15268273'
p873
sg4
S'20070715\xc2\xa011:26 AM EDT'
p874
sg6
S'US fully backing Pakistani push in tribal area'
p875
sa(dp876
g2
S'http://www.reuters.com/article/businessNews/idUSL1525908520070715'
p877
sg4
S'20070715\xc2\xa011:22 AM EDT'
p878
sg6
S'Ford considers selling Volvo Cars business: source'
p879
sa(dp880
g2
S'http://www.reuters.com/article/ousiv/idUSTP13159120070715'
p881
sg4
S'20070715\xc2\xa011:18 AM EDT'
p882
sg6
S"Taiwan's Hon Hai eyes stake in LG.Philips: papers"
p883
sa(dp884
g2
S'http://www.reuters.com/article/businessNews/idUSKIM55499020070715'
p885
sg4
S'20070715\xc2\xa011:17 AM EDT'
p886
sg6
S'CORRECTION: France hopes to get EADS deal'
p887
sa(dp888
g2
S'http://www.reuters.com/article/latestCrisis/idUSSP19596'
p889
sg4
S'20070715\xc2\xa011:16 AM EDT'
p890
sg6
S'Fresh attacks in NW Pakistan, 32 killed'
p891
sa(dp892
g2
S'http://www.reuters.com/article/latestCrisis/idUSL15273096'
p893
sg4
S'20070715\xc2\xa011:12 AM EDT'
p894
sg6
S'Two UK bomb suspects released without charge'
p895
sa(dp896
g2
S'http://www.reuters.com/article/newIssuesNews/idUSN1535214220070715'
p897
sg4
S'20070715\xc2\xa010:51 AM EDT'
p898
sg6
S'RPT-IPO-VIEW-Dice Holdings IPO could be a good bet-analysts'
p899
sa(dp900
g2
S'http://www.reuters.com/article/homepageCrisis/idUSL15257653._CH_.2400'
p901
sg4
S'20070715\xc2\xa010:47 AM EDT'
p902
sg6
S'Despite blockade,Hamas pays full wages to fighters'
p903
sa(dp904
g2
S'http://www.reuters.com/article/latestCrisis/idUSL15257653'
p905
sg4
S'20070715\xc2\xa010:47 AM EDT'
p906
sg6
S'Despite blockade,Hamas pays full wages to fighters'
p907
sa(dp908
g2
S'http://www.reuters.com/article/musicNews/idUSN1218714220070715'
p909
sg4
S'20070715\xc2\xa010:42 AM EDT'
p910
sg6
S'Dozens of Simpsons" songs compiled for "Testify"'
p911
sa(dp912
g2
S'http://www.reuters.com/article/businessNews/idUSN0135773520070715'
p913
sg4
S'20070715\xc2\xa010:35 AM EDT'
p914
sg6
S'Stocks to ride robust earnings wave'
p915
sa(dp916
g2
S'http://www.reuters.com/article/usMktRpt/idUSN1524845720070715'
p917
sg4
S'20070715\xc2\xa010:34 AM EDT'
p918
sg6
S'RPT-Wall St Week Ahead: Stocks to ride robust earnings wave'
p919
sa(dp920
g2
S'http://www.reuters.com/article/topNews/idUSBUL55053520070715'
p921
sg4
S'20070715\xc2\xa010:33 AM EDT'
p922
sg6
S'Car bomb in central Baghdad kills 10: police'
p923
sa(dp924
g2
S'http://www.reuters.com/article/environmentNews/idUSN1327135220070715'
p925
sg4
S'20070715\xc2\xa010:30 AM EDT'
p926
sg6
S'World Bank panel probing West Africa gas pipeline'
p927
sa(dp928
g2
S'http://www.reuters.com/article/companyNewsAndPR/idUSN1338089620070715'
p929
sg4
S'20070715\xc2\xa010:30 AM EDT'
p930
sg6
S"RPT-Bay Street Week Ahead: Rates rise but the sky's not falling"
p931
sa(dp932
g2
S'http://www.reuters.com/article/latestCrisis/idUSL15267001'
p933
sg4
S'20070715\xc2\xa010:29 AM EDT'
p934
sg6
S'Car bomb in central Baghdad kills 10 -police'
p935
sa(dp936
g2
S'http://www.reuters.com/article/latestCrisis/idUSBUL550438'
p937
sg4
S'20070715\xc2\xa010:27 AM EDT'
p938
sg6
S'Loyalty divided within Iraqi police-U.S. military'
p939
sa(dp940
g2
S'http://www.reuters.com/article/latestCrisis/idUSHKG90593'
p941
sg4
S'20070715\xc2\xa010:25 AM EDT'
p942
sg6
S'Guangzhou mayor leads mass swim in polluted river'
p943
sa(dp944
g2
S'http://www.reuters.com/article/homepageCrisis/idUSL15254149._CH_.2400'
p945
sg4
S'20070715\xc2\xa010:16 AM EDT'
p946
sg6
S'FEATURE-Uganda gears up to become oil producer'
p947
sa(dp948
g2
S'http://www.reuters.com/article/latestCrisis/idUSL15254149'
p949
sg4
S'20070715\xc2\xa010:16 AM EDT'
p950
sg6
S'FEATURE-Uganda gears up to become oil producer'
p951
sa(dp952
g2
S'http://www.reuters.com/article/latestCrisis/idUSL15633717'
p953
sg4
S'20070715\xc2\xa010:16 AM EDT'
p954
sg6
S'Saudi holds suspect over killing of French tourists'
p955
sa(dp956
g2
S'http://www.reuters.com/article/latestCrisis/idUSBUL550535'
p957
sg4
S'20070715\xc2\xa010:15 AM EDT'
p958
sg6
S'Ten killed by car bomb in Baghdad - Iraqi police'
p959
sa(dp960
g2
S'http://www.reuters.com/article/ousiv/idUSL1522633120070715'
p961
sg4
S'20070715\xc2\xa010:05 AM EDT'
p962
sg6
S'France hopes to get EADS deal'
p963
sa(dp964
g2
S'http://www.reuters.com/article/topNews/idUSISL4374620070715'
p965
sg4
S'20070715\xc2\xa009:56 AM EDT'
p966
sg6
S'Fresh attacks in Pakistan kill 29'
p967
sa(dp968
g2
S'http://www.reuters.com/article/bankingfinancial-SP/idUSL1524888920070715'
p969
sg4
S'20070715\xc2\xa009:55 AM EDT'
p970
sg6
S'UPDATE 1-Saudi Samba bank Q2 profit drops 7.6 pct'
p971
sa(dp972
g2
S'http://www.reuters.com/article/latestCrisis/idUSL15211490'
p973
sg4
S'20070715\xc2\xa009:31 AM EDT'
p974
sg6
S'Africa wants global fight against human trafficking'
p975
sa(dp976
g2
S'http://www.reuters.com/article/ousiv/idUSL1374452020070715'
p977
sg4
S'20070715\xc2\xa009:27 AM EDT'
p978
sg6
S'Retail slump in June hints at tired consumer'
p979
sa(dp980
g2
S'http://www.reuters.com/article/homepageCrisis/idUSL15241248._CH_.2400'
p981
sg4
S'20070715\xc2\xa009:18 AM EDT'
p982
sg6
S'Mortars fired at Somalia peace talks, say police'
p983
sa(dp984
g2
S'http://www.reuters.com/article/latestCrisis/idUSL15241248'
p985
sg4
S'20070715\xc2\xa009:18 AM EDT'
p986
sg6
S'Mortars fired at Somalia peace talks, say police'
p987
sa(dp988
g2
S'http://www.reuters.com/article/latestCrisis/idUSN14286562'
p989
sg4
S'20070715\xc2\xa009:11 AM EDT'
p990
sg6
S"ANALYSIS-September looms as Bush's moment of truth on Iraq"
p991
sa(dp992
g2
S'http://www.reuters.com/article/worldNews/idUSAHM53620320070715'
p993
sg4
S'20070715\xc2\xa008:56 AM EDT'
p994
sg6
S'Algerian army foils Qaeda attack, kills 4: papers'
p995
sa(dp996
g2
S'http://www.reuters.com/article/latestCrisis/idUSAHM536203'
p997
sg4
S'20070715\xc2\xa008:49 AM EDT'
p998
sg6
S'Algerian army foils Qaeda attack, kills 4-papers'
p999
sa(dp1000
g2
S'http://www.reuters.com/article/latestCrisis/idUSL15201313'
p1001
sg4
S'20070715\xc2\xa008:41 AM EDT'
p1002
sg6
S'Saudi detains suspect in murder of French tourists -TV'
p1003
sa(dp1004
g2
S'http://www.reuters.com/article/latestCrisis/idUSL15165013'
p1005
sg4
S'20070715\xc2\xa008:24 AM EDT'
p1006
sg6
S'Lebanon army advances into camp, 100th soldier dies'
p1007
sa(dp1008
g2
S'http://www.reuters.com/article/latestCrisis/idUSL15682531'
p1009
sg4
S'20070715\xc2\xa008:23 AM EDT'
p1010
sg6
S'Somalia peace talks postponed to Thursday'
p1011
sa(dp1012
g2
S'http://www.reuters.com/article/latestCrisis/idUSL15188709'
p1013
sg4
S'20070715\xc2\xa008:23 AM EDT'
p1014
sg6
S'Iraq, Saudi agree to monitor sectarian fatwas'
p1015
sa(dp1016
g2
S'http://www.reuters.com/article/latestCrisis/idUSBUL542546'
p1017
sg4
S'20070715\xc2\xa008:20 AM EDT'
p1018
sg6
S'Seven Kurdish border guards killed - Iraqi police'
p1019
sa(dp1020
g2
S'http://www.reuters.com/article/sportsNews/idUSL1520029820070715'
p1021
sg4
S'20070715\xc2\xa008:19 AM EDT'
p1022
sg6
S'Cavendish pulls out of Tour de France'
p1023
sa(dp1024
g2
S'http://www.reuters.com/article/worldNews/idUSISL181220070715'
p1025
sg4
S'20070715\xc2\xa008:03 AM EDT'
p1026
sg6
S'Blast at Pakistan police recruit center, 11 dead'
p1027
sa(dp1028
g2
S'http://www.reuters.com/article/featuredCrisis/idUSL15127133'
p1029
sg4
S'20070715\xc2\xa008:02 AM EDT'
p1030
sg6
S'Israel to stop hunting scores of Fatah militants'
p1031
sa(dp1032
g2
S'http://www.reuters.com/article/latestCrisis/idUSISL1812'
p1033
sg4
S'20070715\xc2\xa008:00 AM EDT'
p1034
sg6
S'Blast at Pakistan police recruit centre, 11 dead'
p1035
sa(dp1036
g2
S'http://www.reuters.com/article/worldNews/idUSL1520621020070715'
p1037
sg4
S'20070715\xc2\xa007:52 AM EDT'
p1038
sg6
S'Pakistan militants say pulling out of peace pact'
p1039
sa(dp1040
g2
S'http://www.reuters.com/article/latestCrisis/idUSL15206210'
p1041
sg4
S'20070715\xc2\xa007:40 AM EDT'
p1042
sg6
S'Pakistan militants say pulling out of peace pact'
p1043
sa(dp1044
g2
S'http://www.reuters.com/article/worldNews/idUSL1518342220070715'
p1045
sg4
S'20070715\xc2\xa007:33 AM EDT'
p1046
sg6
S'Get closer to God during vacation, Pope says'
p1047
sa(dp1048
g2
S'http://www.reuters.com/article/mergersNews/idUSL1570653820070715'
p1049
sg4
S'20070715\xc2\xa007:31 AM EDT'
p1050
sg6
S'T.Italia close to Brasil Telecom stake sale-report'
p1051
sa(dp1052
g2
S'http://www.reuters.com/article/worldNews/idUSL1517940420070715'
p1053
sg4
S'20070715\xc2\xa007:28 AM EDT'
p1054
sg6
S'TIMELINE: Major incidents of violence in Pakistan'
p1055
sa(dp1056
g2
S'http://www.reuters.com/article/latestCrisis/idUSISL96145'
p1057
sg4
S'20070715\xc2\xa007:20 AM EDT'
p1058
sg6
S'Pakistan militants say pulling out of peace pact'
p1059
sa(dp1060
g2
S'http://www.reuters.com/article/latestCrisis/idUSL15179404'
p1061
sg4
S'20070715\xc2\xa007:14 AM EDT'
p1062
sg6
S'CHRONOLOGY-Major incidents of violence in Pakistan'
p1063
sa(dp1064
g2
S'http://www.reuters.com/article/environmentNews/idUSN1324970420070715'
p1065
sg4
S'20070715\xc2\xa006:56 AM EDT'
p1066
sg6
S'Brazil to build dams despite Bolivian concerns'
p1067
sa(dp1068
g2
S'http://www.reuters.com/article/worldNews/idUSSP262820070715'
p1069
sg4
S'20070715\xc2\xa006:55 AM EDT'
p1070
sg6
S'Typhoon Man-yi hits Japan coast, three dead'
p1071
sa(dp1072
g2
S'http://www.reuters.com/article/homepageCrisis/idUSL15158703._CH_.2400'
p1073
sg4
S'20070715\xc2\xa006:52 AM EDT'
p1074
sg6
S'FEATURE-Tuareg rebels risk provoking backlash in Niger'
p1075
sa(dp1076
g2
S'http://www.reuters.com/article/latestCrisis/idUSL15158703'
p1077
sg4
S'20070715\xc2\xa006:52 AM EDT'
p1078
sg6
S'FEATURE-Tuareg rebels risk provoking backlash in Niger'
p1079
sa(dp1080
g2
S'http://www.reuters.com/article/homepageCrisis/idUSDHA27105._CH_.2400'
p1081
sg4
S'20070715\xc2\xa006:50 AM EDT'
p1082
sg6
S'Bird flu spreads to northwest Bangladesh'
p1083
sa(dp1084
g2
S'http://www.reuters.com/article/latestCrisis/idUSDHA27105'
p1085
sg4
S'20070715\xc2\xa006:50 AM EDT'
p1086
sg6
S'Bird flu spreads to northwest Bangladesh'
p1087
sa(dp1088
g2
S'http://www.reuters.com/article/tnBasicIndustries-SP/idUSL1517416720070715'
p1089
sg4
S'20070715\xc2\xa006:48 AM EDT'
p1090
sg6
S'EU to drop case over Italy toll road deal-source'
p1091
sa(dp1092
g2
S'http://www.reuters.com/article/mergersNews/idUSL1516148820070715'
p1093
sg4
S'20070715\xc2\xa006:42 AM EDT'
p1094
sg6
S"Israel's ECI Telecom had further approach-paper"
p1095
sa(dp1096
g2
S'http://www.reuters.com/article/latestCrisis/idUSDHA4925'
p1097
sg4
S'20070715\xc2\xa006:41 AM EDT'
p1098
sg6
S'Bangladesh poll chief says vote to be held by end 2008'
p1099
sa(dp1100
g2
S'http://www.reuters.com/article/worldNews/idUSL1446667020070715'
p1101
sg4
S'20070715\xc2\xa006:33 AM EDT'
p1102
sg6
S'Turkey election stirs optimism, change for Kurds'
p1103
sa(dp1104
g2
S'http://www.reuters.com/article/latestCrisis/idUSDEL931'
p1105
sg4
S'20070715\xc2\xa006:14 AM EDT'
p1106
sg6
S"India's PM says Kashmir can be symbol of friendship"
p1107
sa(dp1108
g2
S'http://www.reuters.com/article/health-SP/idUSL1541104420070715'
p1109
sg4
S'20070715\xc2\xa006:10 AM EDT'
p1110
sg6
S'Wacker Chemie CEO sees record year - magazine'
p1111
sa(dp1112
g2
S'http://www.reuters.com/article/latestCrisis/idUSL15138150'
p1113
sg4
S'20070715\xc2\xa006:05 AM EDT'
p1114
sg6
S'FACTBOX-Somalia, a country torn apart'
p1115
sa(dp1116
g2
S'http://www.reuters.com/article/latestCrisis/idUSL15145016'
p1117
sg4
S'20070715\xc2\xa006:03 AM EDT'
p1118
sg6
S'London barman describes tea thought to have killed Litvinenko'
p1119
sa(dp1120
g2
S'http://www.reuters.com/article/latestCrisis/idUSISL305652'
p1121
sg4
S'20070715\xc2\xa005:57 AM EDT'
p1122
sg6
S'RPT-Roadside bomb kills six Afghan workers'
p1123
sa(dp1124
g2
S'http://www.reuters.com/article/homepageCrisis/idUSL15170412._CH_.2400'
p1125
sg4
S'20070715\xc2\xa005:51 AM EDT'
p1126
sg6
S'Sudan concerned by U.N.-AU Darfur force mandate'
p1127
sa(dp1128
g2
S'http://www.reuters.com/article/latestCrisis/idUSL15170412'
p1129
sg4
S'20070715\xc2\xa005:51 AM EDT'
p1130
sg6
S'Sudan concerned by U.N.-AU Darfur force mandate'
p1131
sa(dp1132
g2
S'http://www.reuters.com/article/latestCrisis/idUSL15175769'
p1133
sg4
S'20070715\xc2\xa005:50 AM EDT'
p1134
sg6
S'Lebanese army advances into besieged refugee camp'
p1135
sa(dp1136
g2
S'http://www.reuters.com/article/politicsNews/idUSL1433526420070715'
p1137
sg4
S'20070715\xc2\xa005:42 AM EDT'
p1138
sg6
S"U.S. is Britain's number one ally: UK minister"
p1139
sa(dp1140
g2
S'http://www.reuters.com/article/latestCrisis/idUSL15163151'
p1141
sg4
S'20070715\xc2\xa005:35 AM EDT'
p1142
sg6
S"US is Britain's number one ally - UK minister"
p1143
sa(dp1144
g2
S'http://www.reuters.com/article/homepageCrisis/idUSL15127133._CH_.2400'
p1145
sg4
S'20070715\xc2\xa005:32 AM EDT'
p1146
sg6
S'Israel to stop hunting scores of Fatah militants'
p1147
sa(dp1148
g2
S'http://www.reuters.com/article/featuredCrisis/idUSL15132031'
p1149
sg4
S'20070715\xc2\xa005:30 AM EDT'
p1150
sg6
S'FACTBOX-Facts about Palestinian leader Hawatmeh'
p1151
sa(dp1152
g2
S'http://www.reuters.com/article/latestCrisis/idUSL14466670'
p1153
sg4
S'20070715\xc2\xa005:01 AM EDT'
p1154
sg6
S'FEATURE-Turkey election stirs optimism, change for Kurds'
p1155
sa(dp1156
g2
S'http://www.reuters.com/article/latestCrisis/idUSL15710473'
p1157
sg4
S'20070715\xc2\xa005:00 AM EDT'
p1158
sg6
S'Delegates at Somali peace talks wait for PM Gedi'
p1159
sa(dp1160
g2
S'http://www.reuters.com/article/homepageCrisis/idUSL15710473._CH_.2400'
p1161
sg4
S'20070715\xc2\xa005:00 AM EDT'
p1162
sg6
S'Delegates at Somali peace talks wait for PM Gedi'
p1163
sa(dp1164
g2
S'http://www.reuters.com/article/latestCrisis/idUSTP135284'
p1165
sg4
S'20070715\xc2\xa004:53 AM EDT'
p1166
sg6
S'Taiwan rejects some US wheat over pesticide residue'
p1167
sa(dp1168
g2
S'http://www.reuters.com/article/latestCrisis/idUSISL3932'
p1169
sg4
S'20070715\xc2\xa004:51 AM EDT'
p1170
sg6
S'Afghan president pardons failed suicide bomber boy'
p1171
sa(dp1172
g2
S'http://www.reuters.com/article/worldNews/idUSL1468740220070715'
p1173
sg4
S'20070715\xc2\xa004:43 AM EDT'
p1174
sg6
S'Lebanon rivals meet in France seeking end to crisis'
p1175
sa(dp1176
g2
S'http://www.reuters.com/article/newsOne/idUSN1427871820070715'
p1177
sg4
S'20070715\xc2\xa004:34 AM EDT'
p1178
sg6
S'"New" bin Laden video said to call for martyrdom'
p1179
sa(dp1180
g2
S'http://www.reuters.com/article/latestCrisis/idUSL15142803'
p1181
sg4
S'20070715\xc2\xa004:33 AM EDT'
p1182
sg6
S'Islamist killed in south Lebanon; battles in north'
p1183
sa(dp1184
g2
S'http://www.reuters.com/article/companyNewsAndPR/idUSL1513826520070715'
p1185
sg4
S'20070715\xc2\xa004:04 AM EDT'
p1186
sg6
S"Saft's Tadiran Batteries gets BAE project"
p1187
sa(dp1188
g2
S'http://www.reuters.com/article/industryNews/idUSN1341233620070715'
p1189
sg4
S'20070715\xc2\xa003:48 AM EDT'
p1190
sg6
S'Viacom explores China theme parks, movies'
p1191
sa(dp1192
g2
S'http://www.reuters.com/article/industryNews/idUSN1334913220070715'
p1193
sg4
S'20070715\xc2\xa003:48 AM EDT'
p1194
sg6
S'Black found guilty of criminal fraud'
p1195
sa(dp1196
g2
S'http://www.reuters.com/article/industryNews/idUSN1332253220070715'
p1197
sg4
S'20070715\xc2\xa003:48 AM EDT'
p1198
sg6
S'J&J; splits big ad account among agencies'
p1199
sa(dp1200
g2
S'http://www.reuters.com/article/industryNews/idUSN1314080720070715'
p1201
sg4
S'20070715\xc2\xa003:48 AM EDT'
p1202
sg6
S'Tribune hopes for FCC OK in fourth quarter'
p1203
sa(dp1204
g2
S'http://www.reuters.com/article/industryNews/idUSL1375742420070715'
p1205
sg4
S'20070715\xc2\xa003:48 AM EDT'
p1206
sg6
S"Super-rich help Christie's to record sales"
p1207
sa(dp1208
g2
S'http://www.reuters.com/article/homepageCrisis/idUSL15132438._CH_.2400'
p1209
sg4
S'20070715\xc2\xa003:47 AM EDT'
p1210
sg6
S'Sudan opposition leader accused of sabotage attempt'
p1211
sa(dp1212
g2
S'http://www.reuters.com/article/latestCrisis/idUSL15132438'
p1213
sg4
S'20070715\xc2\xa003:47 AM EDT'
p1214
sg6
S'Sudan opposition leader accused of sabotage attempt'
p1215
sa(dp1216
g2
S'http://www.reuters.com/article/topNews/idUSL1285240420070715'
p1217
sg4
S'20070715\xc2\xa003:47 AM EDT'
p1218
sg6
S'Hype and hysteria as Harry Potter series nears end'
p1219
sa(dp1220
g2
S'http://www.reuters.com/article/topNews/idUSL1180213620070715'
p1221
sg4
S'20070715\xc2\xa003:47 AM EDT'
p1222
sg6
S'Rowling parts with magical world of Harry Potter'
p1223
sa(dp1224
g2
S'http://www.reuters.com/article/featuredCrisis/idUST134349'
p1225
sg4
S'20070715\xc2\xa003:32 AM EDT'
p1226
sg6
S'Typhoon Man-yi hits Japan coast, three dead'
p1227
sa(dp1228
g2
S'http://www.reuters.com/article/latestCrisis/idUSBUL523871'
p1229
sg4
S'20070715\xc2\xa003:25 AM EDT'
p1230
sg6
S'Iraq PM says security forces can take over from U.S.'
p1231
sa(dp1232
g2
S'http://www.reuters.com/article/topNews/idUSSYD963220070715'
p1233
sg4
S'20070715\xc2\xa003:23 AM EDT'
p1234
sg6
S'Australia defends tough anti-terror stance over medic'
p1235
sa(dp1236
g2
S'http://www.reuters.com/article/latestCrisis/idUSSYD9353'
p1237
sg4
S'20070715\xc2\xa003:19 AM EDT'
p1238
sg6
S'Australia defends tough anti-terror stance over medic'
p1239
sa(dp1240
g2
S'http://www.reuters.com/article/topNews/idUSL1279851120070715'
p1241
sg4
S'20070715\xc2\xa002:49 AM EDT'
p1242
sg6
S'FACTBOX-Final Harry Potter book set for release'
p1243
sa(dp1244
g2
S'http://www.reuters.com/article/worldNews/idUSMAN2011820070715'
p1245
sg4
S'20070715\xc2\xa002:20 AM EDT'
p1246
sg6
S'Philippines is set to call off ferry search'
p1247
sa(dp1248
g2
S'http://www.reuters.com/article/worldNews/idUSB22823820070715'
p1249
sg4
S'20070715\xc2\xa002:15 AM EDT'
p1250
sg6
S'Muslim rebels warn Philippines against retaliation'
p1251
sa(dp1252
g2
S'http://www.reuters.com/article/consumerproducts-SP/idUSL0165861620070715'
p1253
sg4
S'20070715\xc2\xa002:10 AM EDT'
p1254
sg6
S"Saudi Arabia's Savola Q2 soars on asset sale"
p1255
sa(dp1256
g2
S'http://www.reuters.com/article/latestCrisis/idUSMAN20118'
p1257
sg4
S'20070715\xc2\xa002:09 AM EDT'
p1258
sg6
S'Philippines is set to call off ferry search'
p1259
sa(dp1260
g2
S'http://www.reuters.com/article/featuredCrisis/idUSB228238'
p1261
sg4
S'20070715\xc2\xa002:07 AM EDT'
p1262
sg6
S'Muslim rebels warn Philippines against retaliation'
p1263
sa(dp1264
g2
S'http://www.reuters.com/article/latestCrisis/idUSISL15706'
p1265
sg4
S'20070715\xc2\xa001:50 AM EDT'
p1266
sg6
S'Twelve Pakistani forces killed in militant attack'
p1267
sa(dp1268
g2
S'http://www.reuters.com/article/companyNewsAndPR/idUSL1511596020070715'
p1269
sg4
S'20070715\xc2\xa001:48 AM EDT'
p1270
sg6
S'PRESS DIGEST - British business - July 15 =14'
p1271
sa(dp1272
g2
S'http://www.reuters.com/article/featuredCrisis/idUSL15120505'
p1273
sg4
S'20070715\xc2\xa001:46 AM EDT'
p1274
sg6
S'Israel to stop hunting scores of Fatah militants'
p1275
sa(dp1276
g2
S'http://www.reuters.com/article/sportsNews/idUSSP2169420070715'
p1277
sg4
S'20070715\xc2\xa001:39 AM EDT'
p1278
sg6
S'Lilly leads hot Cubs to rout of Astros'
p1279
sa(dp1280
g2
S'http://www.reuters.com/article/sportsNews/idUSSP2138820070715'
p1281
sg4
S'20070715\xc2\xa001:25 AM EDT'
p1282
sg6
S'Red Sox overcome Matsuzaka problems to beat Blue Jays'
p1283
sa(dp1284
g2
S'http://www.reuters.com/article/latestCrisis/idUSISL139'
p1285
sg4
S'20070715\xc2\xa001:23 AM EDT'
p1286
sg6
S'Twelve Pakistani forces killed in militant attack'
p1287
sa(dp1288
g2
S'http://www.reuters.com/article/latestCrisis/idUSSP14345'
p1289
sg4
S'20070715\xc2\xa012:52 AM EDT'
p1290
sg6
S'Forty Pakistani forces hurt in militant attack'
p1291
sa(dp1292
g2
S'http://www.reuters.com/article/latestCrisis/idUSISL30903'
p1293
sg4
S'20070715\xc2\xa012:46 AM EDT'
p1294
sg6
S'Forty Pakistani forces hurt in militant attack'
p1295
sa(dp1296
g2
S'http://www.reuters.com/article/reutersEdge/idUSL1290014620070715'
p1297
sg4
S'20070715\xc2\xa012:14 AM EDT'
p1298
sg6
S'WITNESS: My Sicilian parking ticket hell'
p1299
sa(dp1300
g2
S'http://www.reuters.com/article/bankingfinancial-SP/idUSL159854120070715'
p1301
sg4
S'20070715\xc2\xa012:13 AM EDT'
p1302
sg6
S"RPT-UPDATE 1-Dubai's DFM Q2 profit doubles Q1 on trading income"
p1303
sa(dp1304
g2
S'http://www.reuters.com/article/bankingfinancial-SP/idUSL155711420070715'
p1305
sg4
S'20070715\xc2\xa012:12 AM EDT'
p1306
sg6
S"RPT-UPDATE 3-Kuwait's Gulf Bank Q2 profit jumps to record"
p1307
sa(dp1308
g2
S'http://www.reuters.com/article/scienceNews/idUSN1427159120070715'
p1309
sg4
S'20070715\xc2\xa012:05 AM EDT'
p1310
sg6
S'Blame that bad back on your ancestors'
p1311
sa(dp1312
g2
S'http://www.reuters.com/news/video/videoStory?storyID=6fc2cc7003abbc39752d8fc13ea76b1854ed8126'
p1313
sg4
S'20070715\xc2\xa011:51 PM EDT'
p1314
sg6
S'Cognac wins new fans in Asia '
p1315
sa(dp1316
g2
S'http://www.reuters.com/news/video/videoStory?storyID=d0da77cf80bd54b21e73d074f5068052648367ed'
p1317
sg4
S'20070715\xc2\xa011:34 PM EDT'
p1318
sg6
S'Asia eases, earnings eyed '
p1319
sa(dp1320
g2
S'http://www.reuters.com/news/video/videoStory?storyID=2128e23a996eaf47a82cccbeacf22d08111f8e7e'
p1321
sg4
S'20070715\xc2\xa011:31 PM EDT'
p1322
sg6
S'Oil spill threatens island.'
p1323
sa(dp1324
g2
S'http://www.reuters.com/news/video/videoStory?storyID=e800930ac1bdab5a5980aa3d1e598a6198f8ac6f'
p1325
sg4
S'20070715\xc2\xa011:27 PM EDT'
p1326
sg6
S'Political protest in Port-au-Prince'
p1327
sa(dp1328
g2
S'http://www.reuters.com/news/video/videoStory?storyID=2f7d9a712c918cb2e7275c408062ccf08ac4aab9'
p1329
sg4
S'20070715\xc2\xa008:48 PM EDT'
p1330
sg6
S'Pakistan hunts bombers as toll rises'
p1331
sa(dp1332
g2
S'http://www.reuters.com/news/video/videoStory?storyID=7a87005b648c79fab6e5d0dd274b2df28826f78c'
p1333
sg4
S'20070715\xc2\xa008:47 PM EDT'
p1334
sg6
S'Punk designer invades Berlin'
p1335
sa(dp1336
g2
S'http://www.reuters.com/news/video/videoStory?storyID=8e222ea97874312de8b82ce47df00563a97f6f9d'
p1337
sg4
S'20070715\xc2\xa008:45 PM EDT'
p1338
sg6
S'Russia labels UK expulsion immoral'
p1339
sa(dp1340
g2
S'http://www.reuters.com/news/video/videoStory?storyID=e86d4dfb0d84125d03663a03cf561b834b5cb8d5'
p1341
sg4
S'20070715\xc2\xa008:43 PM EDT'
p1342
sg6
S'This is your captain speaking-dance!'
p1343
sa(dp1344
g2
S'http://www.reuters.com/news/video/videoStory?storyID=15951bd93ff51d6257c99cfc8e04b418e0928300'
p1345
sg4
S'20070715\xc2\xa008:41 PM EDT'
p1346
sg6
S'EADS shake-up'
p1347
sa(dp1348
g2
S'http://www.reuters.com/news/video/videoStory?storyID=1aa29efcbf73586228890a8a1547c1c761fb164d'
p1349
sg4
S'20070715\xc2\xa008:27 PM EDT'
p1350
sg6
S'Briton first to swim North Pole'
p1351
sa(dp1352
g2
S'http://www.reuters.com/news/video/videoStory?storyID=ec12a977e84f5f4c4d7bb03d1639b658e45a970c'
p1353
sg4
S'20070715\xc2\xa008:24 PM EDT'
p1354
sg6
S'Vodafone denies Verizon bid'
p1355
sa(dp1356
g2
S'http://www.reuters.com/news/video/videoStory?storyID=51be75e6d5f167335eb2daa1b11e253133700cb8'
p1357
sg4
S'20070715\xc2\xa008:12 PM EDT'
p1358
sg6
S'The City of Gold'
p1359
sa(dp1360
g2
S'http://www.reuters.com/news/video/videoStory?storyID=d91a0a941b148aa5f5efec60c9265a3894762a22'
p1361
sg4
S'20070715\xc2\xa006:19 PM EDT'
p1362
sg6
S'Pilots race in Interlaken'
p1363
sa(dp1364
g2
S'http://www.reuters.com/news/video/videoStory?storyID=d7a19f72c0c0ce914bbbd406ca1523032766caa6'
p1365
sg4
S'20070715\xc2\xa012:56 PM EDT'
p1366
sg6
S'Army advances into the camps'
p1367
sa(dp1368
g2
S'http://www.reuters.com/news/video/videoStory?storyID=535ac4d61a1d6f1e9bd7d95e15bf2e08e982feec'
p1369
sg4
S'20070715\xc2\xa009:14 AM EDT'
p1370
sg6
S'Oil slick threatens Ibiza reserve'
p1371
sa(dp1372
g2
S'http://www.reuters.com/news/video/videoStory?storyID=3bade73a2d473a02bf37ef2c464e6af964022591'
p1373
sg4
S'20070715\xc2\xa007:39 AM EDT'
p1374
sg6
S'Karzai pardons boy bomber'
p1375
sa(dp1376
g2
S'http://www.reuters.com/news/video/videoStory?storyID=12ffd2490f8ba93a9e6964988ffe57cacaab33a1'
p1377
sg4
S'20070715\xc2\xa006:42 AM EDT'
p1378
sg6
S'Increase in attacks in Pakistan'
p1379
sa(dp1380
g2
S'http://www.reuters.com/news/video/videoStory?storyID=d86007e519520f8c03e78a470393fcdc2a873d91'
p1381
sg4
S'20070715\xc2\xa006:12 AM EDT'
p1382
sg6
S'Acropolis workers on strike'
p1383
sa(dp1384
g2
S'http://www.reuters.com/news/video/videoStory?storyID=185867a76ffc9f4e6f2677f9403e7b9bbad4c773'
p1385
sg4
S'20070715\xc2\xa006:00 AM EDT'
p1386
sg6
S"China's growing pollution problem"
p1387
sa(dp1388
g2
S'http://www.reuters.com/news/video/videoStory?storyID=ae8c2a0cd82ab6422cf5610b7e2af0e96bd4a43d'
p1389
sg4
S'20070715\xc2\xa005:23 AM EDT'
p1390
sg6
S'North Korean reactor shut down'
p1391
sa(dp1392
g2
S'http://www.reuters.com/news/video/videoStory?storyID=6dad8e08700afd09da7e03ff1614e38c41a2e99e'
p1393
sg4
S'20070715\xc2\xa003:05 AM EDT'
p1394
sg6
S'Shimon Peres to become president'
p1395
sa(dp1396
g2
S'http://www.reuters.com/news/video/videoStory?storyID=99e290050c59ff6ae0b92e6075394c8ba1e20937'
p1397
sg4
S'20070715\xc2\xa002:48 AM EDT'
p1398
sg6
S"China's floods worsen"
p1399
sa(dp1400
g2
S'http://www.reuters.com/news/video/videoStory?storyID=266107813378d60098188004e7b05c2739efad03'
p1401
sg4
S'20070715\xc2\xa002:33 AM EDT'
p1402
sg6
S'Japan typhoon weakens'
p1403
sa(dp1404
g2
S'http://www.reuters.com/news/video/videoStory?storyID=22014737bd65e3c4f4117ca59a8dafeb61c473dc'
p1405
sg4
S'20070715\xc2\xa012:49 AM EDT'
p1406
sg6
S'Church abuse claim settled for $660m'
p1407
sa.