(lp0
(dp1
S'href'
p2
S'http://www.reuters.com/article/tnBasicIndustries-SP/idUSSEO11183220070513'
p3
sS'ts'
p4
S'20070512\xc2\xa011:00 PM EDT'
p5
sS'title'
p6
S'Hyundai could build another car plant in Brazil'
p7
sa(dp8
g2
S'http://www.reuters.com/article/latestCrisis/idUSPEK301600'
p9
sg4
S'20070512\xc2\xa010:50 PM EDT'
p10
sg6
S'Pesticides next frontier in China food safety'
p11
sa(dp12
g2
S'http://www.reuters.com/article/reutersEdge/idUSN1018146620070513'
p13
sg4
S'20070512\xc2\xa010:07 PM EDT'
p14
sg6
S'Sniffer dogs and security checks in Kabul'
p15
sa(dp16
g2
S'http://www.reuters.com/article/companyNewsAndPR/idUSL1314166420070513'
p17
sg4
S'20070512\xc2\xa010:04 PM EDT'
p18
sg6
S'PRESS DIGEST - British business - May 13'
p19
sa(dp20
g2
S'http://www.reuters.com/article/companyNewsAndPR/idUSN1224112420070513'
p21
sg4
S'20070512\xc2\xa009:49 PM EDT'
p22
sg6
S'Canadian Pacific track workers to strike Wednesday'
p23
sa(dp24
g2
S'http://www.reuters.com/article/sportsNews/idUSSP958320070513'
p25
sg4
S'20070512\xc2\xa009:48 PM EDT'
p26
sg6
S'Sensational Kidd sparks Nets to win over Cavaliers'
p27
sa(dp28
g2
S'http://www.reuters.com/article/sportsNews/idUSSP121320070513'
p29
sg4
S'20070512\xc2\xa009:48 PM EDT'
p30
sg6
S'Cavaliers conquered by aggressive "monster" Kidd'
p31
sa(dp32
g2
S'http://www.reuters.com/article/sportsNews/idUSL1208423820070513'
p33
sg4
S'20070512\xc2\xa008:39 PM EDT'
p34
sg6
S'McEnroe laments loss of record to Nadal'
p35
sa(dp36
g2
S'http://www.reuters.com/article/sportsNews/idUSL1208352920070513'
p37
sg4
S'20070512\xc2\xa008:30 PM EDT'
p38
sg6
S"O'Hair snatches lead from Mickelson at Sawgrass"
p39
sa(dp40
g2
S'http://www.reuters.com/article/topNews/idUSN1221032720070513'
p41
sg4
S'20070512\xc2\xa008:05 PM EDT'
p42
sg6
S'U.S. officers rejected Haditha probe request: Marine'
p43
sa(dp44
g2
S'http://www.reuters.com/article/topNews/idUSN1221032720070512'
p45
sg4
S'20070512\xc2\xa007:58 PM EDT'
p46
sg6
S'U.S. officers rejected Haditha probe request: Marine'
p47
sa(dp48
g2
S'http://www.reuters.com/article/latestCrisis/idUSN12210327'
p49
sg4
S'20070512\xc2\xa007:52 PM EDT'
p50
sg6
S'US officers rejected Haditha probe request-'
p51
sa(dp52
g2
S'http://www.reuters.com/article/sportsNews/idUSL1219662020070512'
p53
sg4
S'20070512\xc2\xa007:41 PM EDT'
p54
sg6
S'Gritty Henin clings on at German Open'
p55
sa(dp56
g2
S'http://www.reuters.com/article/sportsNews/idUSL1208352920070512'
p57
sg4
S'20070512\xc2\xa007:39 PM EDT'
p58
sg6
S"O'Hair snatches lead from Mickelson at Sawgrass"
p59
sa(dp60
g2
S'http://www.reuters.com/article/televisionNews/idUSN1127697020070512'
p61
sg4
S'20070512\xc2\xa007:05 PM EDT'
p62
sg6
S'NBC picks up four dramas; "Friday" back'
p63
sa(dp64
g2
S'http://www.reuters.com/article/televisionNews/idUSN1127306220070512'
p65
sg4
S'20070512\xc2\xa007:05 PM EDT'
p66
sg6
S'"Raymond" creator decries production integration'
p67
sa(dp68
g2
S'http://www.reuters.com/article/televisionNews/idUSN0819354820070512'
p69
sg4
S'20070512\xc2\xa007:05 PM EDT'
p70
sg6
S'Real or illusion? Magician Angel lets viewers decide'
p71
sa(dp72
g2
S'http://www.reuters.com/article/televisionNews/idUSN1127017920070512'
p73
sg4
S'20070512\xc2\xa007:05 PM EDT'
p74
sg6
S'Fox, MySpace team with NFL'
p75
sa(dp76
g2
S'http://www.reuters.com/article/televisionNews/idUSN1126132820070512'
p77
sg4
S'20070512\xc2\xa007:05 PM EDT'
p78
sg6
S'Miami newswoman joins CBS "Saturday Early Show"'
p79
sa(dp80
g2
S'http://www.reuters.com/article/televisionNews/idUSN1126131420070512'
p81
sg4
S'20070512\xc2\xa007:05 PM EDT'
p82
sg6
S'Style putting "Propose" in wedding party'
p83
sa(dp84
g2
S'http://www.reuters.com/article/televisionNews/idUSN1046940820070512'
p85
sg4
S'20070512\xc2\xa007:05 PM EDT'
p86
sg6
S"Ashes of Star Trek's Scotty beam down, go missing"
p87
sa(dp88
g2
S'http://www.reuters.com/article/televisionNews/idUSN1025624320070512'
p89
sg4
S'20070512\xc2\xa007:05 PM EDT'
p90
sg6
S'"Idol" keeps Fox on top'
p91
sa(dp92
g2
S'http://www.reuters.com/article/televisionNews/idUSN1020337320070512'
p93
sg4
S'20070512\xc2\xa007:05 PM EDT'
p94
sg6
S'NBC enlists "Bionic Woman" to help rescue ratings'
p95
sa(dp96
g2
S'http://www.reuters.com/article/musicNews/idUSN1120946520070512'
p97
sg4
S'20070512\xc2\xa007:05 PM EDT'
p98
sg6
S'Jazz bassist Ron Carter turns 70 amid full schedule'
p99
sa(dp100
g2
S'http://www.reuters.com/article/musicNews/idUSN1120945720070512'
p101
sg4
S'20070512\xc2\xa007:05 PM EDT'
p102
sg6
S'Morello wages "Revolution" as the Nightwatchman'
p103
sa(dp104
g2
S'http://www.reuters.com/article/musicNews/idUSN1120945520070512'
p105
sg4
S'20070512\xc2\xa007:05 PM EDT'
p106
sg6
S'Cornell "Carries On" with life after Audioslave'
p107
sa(dp108
g2
S'http://www.reuters.com/article/musicNews/idUSN1120930020070512'
p109
sg4
S'20070512\xc2\xa007:05 PM EDT'
p110
sg6
S'Q&A;: West takes "Journey" to hip-hop\'s roots'
p111
sa(dp112
g2
S'http://www.reuters.com/article/musicNews/idUSN1120920220070512'
p113
sg4
S'20070512\xc2\xa007:05 PM EDT'
p114
sg6
S'Lennon tribute album puts good "Karma" to work'
p115
sa(dp116
g2
S'http://www.reuters.com/article/musicNews/idUSN0932700720070512'
p117
sg4
S'20070512\xc2\xa007:05 PM EDT'
p118
sg6
S'Observers blame climate of scrutiny for Akon flap'
p119
sa(dp120
g2
S'http://www.reuters.com/article/entertainmentNews/idUSSCH28177920070512'
p121
sg4
S'20070512\xc2\xa007:04 PM EDT'
p122
sg6
S'Serbia\'s "Prayer" wins Eurovision Song Contest'
p123
sa(dp124
g2
S'http://www.reuters.com/article/worldNews/idUSL1224568320070512'
p125
sg4
S'20070512\xc2\xa006:59 PM EDT'
p126
sg6
S'Government set to lose majority in Iceland'
p127
sa(dp128
g2
S'http://www.reuters.com/article/newsOne/idUSIBO24818520070512'
p129
sg4
S'20070512\xc2\xa006:49 PM EDT'
p130
sg6
S'Three missing after deadly attack on U.S. patrol in Iraq'
p131
sa(dp132
g2
S'http://www.reuters.com/article/entertainmentNews/idUSL1139867420070512'
p133
sg4
S'20070512\xc2\xa006:31 PM EDT'
p134
sg6
S'Serbia\'s "Prayer" wins Eurovision Song Contest'
p135
sa(dp136
g2
S'http://www.reuters.com/article/environmentNews/idUSL1158379020070512'
p137
sg4
S'20070512\xc2\xa005:55 PM EDT'
p138
sg6
S"Rains aid Europe's crops amid climate swings"
p139
sa(dp140
g2
S'http://www.reuters.com/article/environmentNews/idUSL1157560420070512'
p141
sg4
S'20070512\xc2\xa005:55 PM EDT'
p142
sg6
S'G8 set for transatlantic clash on climate'
p143
sa(dp144
g2
S'http://www.reuters.com/article/environmentNews/idUSN1148300820070512'
p145
sg4
S'20070512\xc2\xa005:55 PM EDT'
p146
sg6
S'U.S. lawmakers query BP editing of Alaska spill report'
p147
sa(dp148
g2
S'http://www.reuters.com/article/environmentNews/idUSN1048037420070512'
p149
sg4
S'20070512\xc2\xa005:55 PM EDT'
p150
sg6
S'World mayors to meet to fight warming'
p151
sa(dp152
g2
S'http://www.reuters.com/article/environmentNews/idUSN1042598320070512'
p153
sg4
S'20070512\xc2\xa005:55 PM EDT'
p154
sg6
S'Vermont could clear way for new emissions rules'
p155
sa(dp156
g2
S'http://www.reuters.com/article/environmentNews/idUSL1226982120070512'
p157
sg4
S'20070512\xc2\xa005:55 PM EDT'
p158
sg6
S'Four Israelis killed in flood from rare cloudburst'
p159
sa(dp160
g2
S'http://www.reuters.com/article/environmentNews/idUSL1167431020070512'
p161
sg4
S'20070512\xc2\xa005:55 PM EDT'
p162
sg6
S'Tourism industry aims to go green: official'
p163
sa(dp164
g2
S'http://www.reuters.com/article/environmentNews/idUSL1165493920070512'
p165
sg4
S'20070512\xc2\xa005:55 PM EDT'
p166
sg6
S"Congo lake's deadly gases could be hidden blessing"
p167
sa(dp168
g2
S'http://www.reuters.com/article/worldNews/idUSL1247370120070512'
p169
sg4
S'20070512\xc2\xa005:53 PM EDT'
p170
sg6
S'Bulgarians pray for condemned HIV nurses'
p171
sa(dp172
g2
S'http://www.reuters.com/article/topNews/idUSISL171520070512'
p173
sg4
S'20070512\xc2\xa005:44 PM EDT'
p174
sg6
S"Violence erupts over Pakistan's top judge, 27 dead"
p175
sa(dp176
g2
S'http://www.reuters.com/article/sportsNews/idUSL121756720070512'
p177
sg4
S'20070512\xc2\xa005:43 PM EDT'
p178
sg6
S'Federer splits up with coach Roche'
p179
sa(dp180
g2
S'http://www.reuters.com/article/worldNews/idUSN1223905320070512'
p181
sg4
S'20070512\xc2\xa005:31 PM EDT'
p182
sg6
S'Severed head greets new troops in Mexico drug war'
p183
sa(dp184
g2
S'http://www.reuters.com/article/latestCrisis/idUSN12211066'
p185
sg4
S'20070512\xc2\xa005:30 PM EDT'
p186
sg6
S'Severed head greets new troops in Mexico drug war'
p187
sa(dp188
g2
S'http://www.reuters.com/article/worldNews/idUSL1228880320070512'
p189
sg4
S'20070512\xc2\xa005:06 PM EDT'
p190
sg6
S'Jailed Egypt politician assaulted in court: wife'
p191
sa(dp192
g2
S'http://www.reuters.com/article/topNews/idUSL1228536520070512'
p193
sg4
S'20070512\xc2\xa004:51 PM EDT'
p194
sg6
S'Israel probes complaints from Lebanon peace force'
p195
sa(dp196
g2
S'http://www.reuters.com/article/latestCrisis/idUSL12288803'
p197
sg4
S'20070512\xc2\xa004:50 PM EDT'
p198
sg6
S'Jailed Egypt politician assaulted in court - wife'
p199
sa(dp200
g2
S'http://www.reuters.com/article/domesticNews/idUSL1226477920070512'
p201
sg4
S'20070512\xc2\xa004:32 PM EDT'
p202
sg6
S'Miller parts company with U.S. team'
p203
sa(dp204
g2
S'http://www.reuters.com/article/ousiv/idUSWNAS120920070512'
p205
sg4
S'20070512\xc2\xa004:15 PM EDT'
p206
sg6
S'Thomson beats expectations with sale'
p207
sa(dp208
g2
S'http://www.reuters.com/article/ousiv/idUSSPI16990020070512'
p209
sg4
S'20070512\xc2\xa004:15 PM EDT'
p210
sg6
S'Misery lures opportunists at foreclosure auction'
p211
sa(dp212
g2
S'http://www.reuters.com/article/ousiv/idUSN1141908720070512'
p213
sg4
S'20070512\xc2\xa004:15 PM EDT'
p214
sg6
S'Retail sales drop, core inflation muted'
p215
sa(dp216
g2
S'http://www.reuters.com/article/ousivMolt/idUSL1226482720070512'
p217
sg4
S'20070512\xc2\xa004:13 PM EDT'
p218
sg6
S'UBS holds 5.3 pct of voting rights in ABN: filing'
p219
sa(dp220
g2
S'http://www.reuters.com/article/topNews/idUSBLA24989520070512'
p221
sg4
S'20070512\xc2\xa004:09 PM EDT'
p222
sg6
S"Iran says won't bow to sanctions over atomic work"
p223
sa(dp224
g2
S'http://www.reuters.com/article/topNews/idUSL1229556120070512'
p225
sg4
S'20070512\xc2\xa004:03 PM EDT'
p226
sg6
S'Cheney meets Saudi king, Iraq and Iran on agenda'
p227
sa(dp228
g2
S'http://www.reuters.com/article/topNews/idUSN1224387920070512'
p229
sg4
S'20070512\xc2\xa003:48 PM EDT'
p230
sg6
S'CORRECTED:Officer says did not mention Haditha deaths in homes'
p231
sa(dp232
g2
S'http://www.reuters.com/article/middleeastCrisis/idUSN11179778'
p233
sg4
S'20070512\xc2\xa003:39 PM EDT'
p234
sg6
S'Officer says did not mention Haditha deaths in homes'
p235
sa(dp236
g2
S'http://www.reuters.com/article/companyNewsAndPR/idUSN1247563020070512'
p237
sg4
S'20070512\xc2\xa003:38 PM EDT'
p238
sg6
S"Venezuela's PDVSA denies violating Cerro Negro bond terms"
p239
sa(dp240
g2
S'http://www.reuters.com/article/middleeastCrisis/idUSL12295561'
p241
sg4
S'20070512\xc2\xa003:36 PM EDT'
p242
sg6
S'Cheney meets Saudi king, Iraq and Iran on agenda'
p243
sa(dp244
g2
S'http://www.reuters.com/article/middleeastCrisis/idUSN12214181'
p245
sg4
S'20070512\xc2\xa003:30 PM EDT'
p246
sg6
S"US general didn't suspect slaughter in Haditha"
p247
sa(dp248
g2
S'http://www.reuters.com/article/middleeastCrisis/idUSN12243879'
p249
sg4
S'20070512\xc2\xa003:22 PM EDT'
p250
sg6
S'Marine says urinated on dead Iraqi at Haditha'
p251
sa(dp252
g2
S'http://www.reuters.com/article/domesticNews/idUSL1208423820070512'
p253
sg4
S'20070512\xc2\xa003:05 PM EDT'
p254
sg6
S'McEnroe laments loss of record to Nadal'
p255
sa(dp256
g2
S'http://www.reuters.com/article/sportsNews/idUSL1208081020070512'
p257
sg4
S'20070512\xc2\xa002:58 PM EDT'
p258
sg6
S'Frustrated Woods labours to 73 at Sawgrass'
p259
sa(dp260
g2
S'http://www.reuters.com/article/ousiv/idUSWEN803720070512'
p261
sg4
S'20070512\xc2\xa002:55 PM EDT'
p262
sg6
S'CME looks to seal CBOT deal'
p263
sa(dp264
g2
S'http://www.reuters.com/article/businessNews/idUSN1226906020070512'
p265
sg4
S'20070512\xc2\xa002:54 PM EDT'
p266
sg6
S'Cerberus in detailed talks for Chrysler: report'
p267
sa(dp268
g2
S'http://www.reuters.com/article/businessNews/idUSL1220590920070512'
p269
sg4
S'20070512\xc2\xa002:54 PM EDT'
p270
sg6
S'Magna and Onex eye 40 pct each of Chrysler -report'
p271
sa(dp272
g2
S'http://www.reuters.com/article/middleeastCrisis/idUSL12285365'
p273
sg4
S'20070512\xc2\xa002:46 PM EDT'
p274
sg6
S'Israel probes complaints from Lebanon peace force'
p275
sa(dp276
g2
S'http://www.reuters.com/article/worldNews/idUSAHM25874920070512'
p277
sg4
S'20070512\xc2\xa002:41 PM EDT'
p278
sg6
S'Algeria holds Libyans on way to join Qaeda: agency'
p279
sa(dp280
g2
S'http://www.reuters.com/article/peopleNews/idUSN0936508120070512'
p281
sg4
S'20070512\xc2\xa002:41 PM EDT'
p282
sg6
S'Paris Hilton sculpture shows heiress in deadly pose'
p283
sa(dp284
g2
S'http://www.reuters.com/article/peopleNews/idUSN0927384020070512'
p285
sg4
S'20070512\xc2\xa002:41 PM EDT'
p286
sg6
S'Tammy Faye Bakker writes farewell note to fans'
p287
sa(dp288
g2
S'http://www.reuters.com/article/peopleNews/idUSL1228102520070512'
p289
sg4
S'20070512\xc2\xa002:41 PM EDT'
p290
sg6
S"Depression threatens von Trier's career: paper"
p291
sa(dp292
g2
S'http://www.reuters.com/article/peopleNews/idUSN1148466220070512'
p293
sg4
S'20070512\xc2\xa002:41 PM EDT'
p294
sg6
S'Mel Gibson praised for progress in alcohol rehab'
p295
sa(dp296
g2
S'http://www.reuters.com/article/peopleNews/idUSN1120892220070512'
p297
sg4
S'20070512\xc2\xa002:41 PM EDT'
p298
sg6
S'Spielberg joins Hollywood chorus on Darfur'
p299
sa(dp300
g2
S'http://www.reuters.com/article/peopleNews/idUSN1048375520070512'
p301
sg4
S'20070512\xc2\xa002:41 PM EDT'
p302
sg6
S'Jolie: more kids, no wedding'
p303
sa(dp304
g2
S'http://www.reuters.com/article/peopleNews/idUSN1044081220070512'
p305
sg4
S'20070512\xc2\xa002:41 PM EDT'
p306
sg6
S'New Orleans project backed by Brad Pitt unveiled'
p307
sa(dp308
g2
S'http://www.reuters.com/article/filmNews/idUST20256220070512'
p309
sg4
S'20070512\xc2\xa002:40 PM EDT'
p310
sg6
S'Japan seeks truth about Nanjing massacre'
p311
sa(dp312
g2
S'http://www.reuters.com/article/filmNews/idUSN1128237320070512'
p313
sg4
S'20070512\xc2\xa002:40 PM EDT'
p314
sg6
S'Vardalos sweet on Purefoy for "Valentine"'
p315
sa(dp316
g2
S'http://www.reuters.com/article/filmNews/idUSN1125407120070512'
p317
sg4
S'20070512\xc2\xa002:40 PM EDT'
p318
sg6
S'Coppola\'s "Youth" sets Rome world premiere'
p319
sa(dp320
g2
S'http://www.reuters.com/article/filmNews/idUSN1121298220070512'
p321
sg4
S'20070512\xc2\xa002:40 PM EDT'
p322
sg6
S'"ER" star Cardellini in "Heaven"'
p323
sa(dp324
g2
S'http://www.reuters.com/article/filmNews/idUSN1118630120070512'
p325
sg4
S'20070512\xc2\xa002:40 PM EDT'
p326
sg6
S'Hammer Films has risen from the grave'
p327
sa(dp328
g2
S'http://www.reuters.com/article/filmNews/idUSN1044781720070512'
p329
sg4
S'20070512\xc2\xa002:40 PM EDT'
p330
sg6
S"U.S. probes Moore's Cuba trip"
p331
sa(dp332
g2
S'http://www.reuters.com/article/latestCrisis/idUSAHM258749'
p333
sg4
S'20070512\xc2\xa002:31 PM EDT'
p334
sg6
S'Algeria holds Libyans on way to join Qaeda-agency'
p335
sa(dp336
g2
S'http://www.reuters.com/article/homepageCrisis/idUSISL1715._CH_.2400'
p337
sg4
S'20070512\xc2\xa002:26 PM EDT'
p338
sg6
S"Violence erupts over Pakistan's top judge, 27 dead"
p339
sa(dp340
g2
S'http://www.reuters.com/article/latestCrisis/idUSISL1715'
p341
sg4
S'20070512\xc2\xa002:26 PM EDT'
p342
sg6
S"Violence erupts over Pakistan's top judge, 27 dead"
p343
sa(dp344
g2
S'http://www.reuters.com/article/worldNews/idUSL1259538720070512'
p345
sg4
S'20070512\xc2\xa002:26 PM EDT'
p346
sg6
S'Thousands rally in Rome against unmarried couples law'
p347
sa(dp348
g2
S'http://www.reuters.com/article/domesticNews/idUSN1020959620070512'
p349
sg4
S'20070512\xc2\xa002:10 PM EDT'
p350
sg6
S'Firefighters gain on California island wildfire'
p351
sa(dp352
g2
S'http://www.reuters.com/article/latestCrisis/idUSN12493327'
p353
sg4
S'20070512\xc2\xa002:03 PM EDT'
p354
sg6
S'Firefighters gain on California island wildfire'
p355
sa(dp356
g2
S'http://www.reuters.com/article/sportsNews/idUSL1123291420070512'
p357
sg4
S'20070512\xc2\xa002:03 PM EDT'
p358
sg6
S'Nadal battles past Davydenko to reach final'
p359
sa(dp360
g2
S'http://www.reuters.com/article/worldNews/idUSL1253654020070512'
p361
sg4
S'20070512\xc2\xa001:38 PM EDT'
p362
sg6
S'Russia may veto U.N. Kosovo resolution: Churkin'
p363
sa(dp364
g2
S'http://www.reuters.com/article/newsOne/idUSISL1379820070512'
p365
sg4
S'20070512\xc2\xa001:29 PM EDT'
p366
sg6
S'Pakistani leader rules out declaring emergency'
p367
sa(dp368
g2
S'http://www.reuters.com/article/topNews/idUSN1223667820070512'
p369
sg4
S'20070512\xc2\xa001:22 PM EDT'
p370
sg6
S"Pope slams Latin America's drug cartels"
p371
sa(dp372
g2
S'http://www.reuters.com/article/latestCrisis/idUSN12239077'
p373
sg4
S'20070512\xc2\xa001:17 PM EDT'
p374
sg6
S"Pope slams Latin America's drug cartels"
p375
sa(dp376
g2
S'http://www.reuters.com/article/latestCrisis/idUSIBO257557'
p377
sg4
S'20070512\xc2\xa001:14 PM EDT'
p378
sg6
S'US patrol attacked - 5 killed, 3 missing'
p379
sa(dp380
g2
S'http://www.reuters.com/article/latestCrisis/idUSL12473701'
p381
sg4
S'20070512\xc2\xa001:10 PM EDT'
p382
sg6
S'Bulgarians pray for condemned HIV nurses'
p383
sa(dp384
g2
S'http://www.reuters.com/article/worldNews/idUSL1220221320070512'
p385
sg4
S'20070512\xc2\xa001:05 PM EDT'
p386
sg6
S'Rival Ukraine leaders fail to set snap poll date'
p387
sa(dp388
g2
S'http://www.reuters.com/article/businessNews/idUSN1119868820070512'
p389
sg4
S'20070512\xc2\xa001:01 PM EDT'
p390
sg6
S'IAC to launch Ask Mobile GPS service'
p391
sa(dp392
g2
S'http://www.reuters.com/article/TechnologyMediaTelecoms07/idUSL1144508220070512'
p393
sg4
S'20070512\xc2\xa012:59 PM EDT'
p394
sg6
S'TMT test of cash, clicks and content'
p395
sa(dp396
g2
S'http://www.reuters.com/article/worldNews/idUSL1227625520070512'
p397
sg4
S'20070512\xc2\xa012:58 PM EDT'
p398
sg6
S'Russia may veto U.N. Kosovo resolution: Churkin'
p399
sa(dp400
g2
S'http://www.reuters.com/article/latestCrisis/idUSL12674749'
p401
sg4
S'20070512\xc2\xa012:51 PM EDT'
p402
sg6
S'Armenians vote in poll seen as test of democracy'
p403
sa(dp404
g2
S'http://www.reuters.com/article/latestCrisis/idUSL12264461'
p405
sg4
S'20070512\xc2\xa012:42 PM EDT'
p406
sg6
S'Comorian leader to run in June polls'
p407
sa(dp408
g2
S'http://www.reuters.com/article/latestCrisis/idUSL12269821'
p409
sg4
S'20070512\xc2\xa012:39 PM EDT'
p410
sg6
S'UPDATE 1:4 Israelis killed in flood from rare cloudburst'
p411
sa(dp412
g2
S'http://www.reuters.com/article/worldNews/idUSISL716520070512'
p413
sg4
S'20070512\xc2\xa012:32 PM EDT'
p414
sg6
S'Dozens of Taliban killed in Afghan south: official'
p415
sa(dp416
g2
S'http://www.reuters.com/article/featuredCrisis/idUSISL27109'
p417
sg4
S'20070512\xc2\xa012:31 PM EDT'
p418
sg6
S'Dozens of Taliban killed in Afghan south-official'
p419
sa(dp420
g2
S'http://www.reuters.com/article/worldNews/idUSPEK27297620070512'
p421
sg4
S'20070512\xc2\xa012:20 PM EDT'
p422
sg6
S"Vandal damages China's iconic Mao portrait"
p423
sa(dp424
g2
S'http://www.reuters.com/article/homepageCrisis/idUSL12245694._CH_.2400'
p425
sg4
S'20070512\xc2\xa012:17 PM EDT'
p426
sg6
S'S.African mediator in Burundi to push peace talks'
p427
sa(dp428
g2
S'http://www.reuters.com/article/latestCrisis/idUSL12245694'
p429
sg4
S'20070512\xc2\xa012:17 PM EDT'
p430
sg6
S'S.African mediator in Burundi to push peace talks'
p431
sa(dp432
g2
S'http://www.reuters.com/article/latestCrisis/idUSN12239053'
p433
sg4
S'20070512\xc2\xa012:16 PM EDT'
p434
sg6
S'Severed head greets new troops in Mexico drug war'
p435
sa(dp436
g2
S'http://www.reuters.com/article/worldNews/idUSL1217694920070512'
p437
sg4
S'20070512\xc2\xa012:16 PM EDT'
p438
sg6
S'Bomb kills 1, injures 14 in Turkey before rally'
p439
sa(dp440
g2
S'http://www.reuters.com/article/worldNews/idUSSP1358720070512'
p441
sg4
S'20070512\xc2\xa012:04 PM EDT'
p442
sg6
S'Roadside bomb kills eight Afghan police'
p443
sa(dp444
g2
S'http://www.reuters.com/article/latestCrisis/idUSSP13587'
p445
sg4
S'20070512\xc2\xa012:02 PM EDT'
p446
sg6
S'Roadside bomb kills eight Afghan police'
p447
sa(dp448
g2
S'http://www.reuters.com/article/featuredCrisis/idUSL12259989'
p449
sg4
S'20070512\xc2\xa011:37 AM EDT'
p450
sg6
S'3 Israelis killed in flood from rare cloudburst'
p451
sa(dp452
g2
S'http://www.reuters.com/article/latestCrisis/idUSN12236678'
p453
sg4
S'20070512\xc2\xa011:31 AM EDT'
p454
sg6
S'Pope meets drug addicts in Brazil, warns traffickers'
p455
sa(dp456
g2
S'http://www.reuters.com/article/middleeastCrisis/idUSIBO251026'
p457
sg4
S'20070512\xc2\xa011:29 AM EDT'
p458
sg6
S'Attack on U.S. patrol in Iraq, 5 dead, 3 missing'
p459
sa(dp460
g2
S'http://www.reuters.com/article/latestCrisis/idUSPEK272976'
p461
sg4
S'20070512\xc2\xa011:27 AM EDT'
p462
sg6
S"Vandal damages China's iconic Mao portrait"
p463
sa(dp464
g2
S'http://www.reuters.com/article/latestCrisis/idUSISL4433'
p465
sg4
S'20070512\xc2\xa011:20 AM EDT'
p466
sg6
S'Twenty-seven dead, 100 hurt in Pakistani clashes'
p467
sa(dp468
g2
S'http://www.reuters.com/article/reutersEdge/idUSN0932985020070512'
p469
sg4
S'20070512\xc2\xa011:17 AM EDT'
p470
sg6
S'Business Books: Striking oil is a curse on Africans'
p471
sa(dp472
g2
S'http://www.reuters.com/article/bondsNews/idUSN1223696420070512'
p473
sg4
S'20070512\xc2\xa010:57 AM EDT'
p474
sg6
S'Canada softens tax measure affecting foreign buys'
p475
sa(dp476
g2
S'http://www.reuters.com/article/worldNews/idUSL1216607420070512'
p477
sg4
S'20070512\xc2\xa010:48 AM EDT'
p478
sg6
S'Mogadishu blast kills 3 as top U.N. aid official visits'
p479
sa(dp480
g2
S'http://www.reuters.com/article/latestCrisis/idUSL12214442'
p481
sg4
S'20070512\xc2\xa010:46 AM EDT'
p482
sg6
S'Mogadishu blast kills 3 as top UN aid official visits'
p483
sa(dp484
g2
S'http://www.reuters.com/article/worldNews/idUSL1224487820070512'
p485
sg4
S'20070512\xc2\xa010:30 AM EDT'
p486
sg6
S'French hostage released by Taliban back in Paris'
p487
sa(dp488
g2
S'http://www.reuters.com/article/homepageCrisis/idUSL12221498._CH_.2400'
p489
sg4
S'20070512\xc2\xa010:26 AM EDT'
p490
sg6
S'Guinea president replaces army chiefs after protest'
p491
sa(dp492
g2
S'http://www.reuters.com/article/latestCrisis/idUSL12221498'
p493
sg4
S'20070512\xc2\xa010:26 AM EDT'
p494
sg6
S'Guinea president replaces army chiefs after protest'
p495
sa(dp496
g2
S'http://www.reuters.com/article/worldNews/idUSL1224430920070512'
p497
sg4
S'20070512\xc2\xa010:17 AM EDT'
p498
sg6
S'Thousands attend burial of Bosnian war victims'
p499
sa(dp500
g2
S'http://www.reuters.com/article/latestCrisis/idUSL12542314'
p501
sg4
S'20070512\xc2\xa010:16 AM EDT'
p502
sg6
S'Thousands attend burial of Bosnian war victims'
p503
sa(dp504
g2
S'http://www.reuters.com/article/latestCrisis/idUSL12235398'
p505
sg4
S'20070512\xc2\xa010:16 AM EDT'
p506
sg6
S"Boat carrying 101 Africans reaches Spain's Canaries"
p507
sa(dp508
g2
S'http://www.reuters.com/article/latestCrisis/idUSL12236134'
p509
sg4
S'20070512\xc2\xa010:11 AM EDT'
p510
sg6
S"Angry Indian villagers put heat on Korea's POSCO"
p511
sa(dp512
g2
S'http://www.reuters.com/article/topNews/idUSIBO23201820070512'
p513
sg4
S'20070512\xc2\xa010:08 AM EDT'
p514
sg6
S'FACTBOX: Security developments in Iraq, May 12'
p515
sa(dp516
g2
S'http://www.reuters.com/article/topNews/idUSN1221047720070512'
p517
sg4
S'20070512\xc2\xa010:08 AM EDT'
p518
sg6
S'Study finds billions of Iraqi oil missing: NYT'
p519
sa(dp520
g2
S'http://www.reuters.com/article/topNews/idUSL1218409020070513'
p521
sg4
S'20070512\xc2\xa010:08 AM EDT'
p522
sg6
S'FACTBOX: Military and civilian deaths in Iraq'
p523
sa(dp524
g2
S'http://www.reuters.com/article/topNews/idUSL1218409020070512'
p525
sg4
S'20070512\xc2\xa010:08 AM EDT'
p526
sg6
S'FACTBOX: Military and civilian deaths in Iraq'
p527
sa(dp528
g2
S'http://www.reuters.com/article/latestCrisis/idUSIBO248185'
p529
sg4
S'20070512\xc2\xa010:03 AM EDT'
p530
sg6
S'Attack on U.S. patrol in Iraq, 5 dead, 3 missing'
p531
sa(dp532
g2
S'http://www.reuters.com/article/latestCrisis/idUSDHA4676'
p533
sg4
S'20070512\xc2\xa009:57 AM EDT'
p534
sg6
S"No pressure on Bangladesh ex-PM to take exile-gov't"
p535
sa(dp536
g2
S'http://www.reuters.com/article/environmentNews/idUSL1117790420070512'
p537
sg4
S'20070512\xc2\xa009:53 AM EDT'
p538
sg6
S'S.Africa coal sales to UK to slip with green rules'
p539
sa(dp540
g2
S'http://www.reuters.com/article/topNews/idUSN1230220520070512'
p541
sg4
S'20070512\xc2\xa009:52 AM EDT'
p542
sg6
S'Zimbabwe elected to chair key U.N. environment body'
p543
sa(dp544
g2
S'http://www.reuters.com/article/businessNews/idUSL1211970120070512'
p545
sg4
S'20070512\xc2\xa009:28 AM EDT'
p546
sg6
S'Saudi, Dow sign deal to build giant petchem plant'
p547
sa(dp548
g2
S'http://www.reuters.com/article/latestCrisis/idUSL12244309'
p549
sg4
S'20070512\xc2\xa009:25 AM EDT'
p550
sg6
S'Thousands attend burial of Bosnian war victims'
p551
sa(dp552
g2
S'http://www.reuters.com/article/topNews/idUSIBO24356720070512'
p553
sg4
S'20070512\xc2\xa009:17 AM EDT'
p554
sg6
S'5 killed, 3 missing in U.S. patrol attack in Iraq'
p555
sa(dp556
g2
S'http://www.reuters.com/article/latestCrisis/idUSL12184090'
p557
sg4
S'20070512\xc2\xa009:16 AM EDT'
p558
sg6
S'FACTBOX-Military and civilian deaths in Iraq'
p559
sa(dp560
g2
S'http://www.reuters.com/article/topNews/idUSN1142725920070512'
p561
sg4
S'20070512\xc2\xa009:14 AM EDT'
p562
sg6
S'Tribes seek aid as Jamestown marks 400th year'
p563
sa(dp564
g2
S'http://www.reuters.com/article/worldNews/idUSL1222953320070512'
p565
sg4
S'20070512\xc2\xa009:09 AM EDT'
p566
sg6
S'Blast at Spanish opposition office, no one hurt'
p567
sa(dp568
g2
S'http://www.reuters.com/article/topNews/idUSL1221651520070512'
p569
sg4
S'20070512\xc2\xa009:07 AM EDT'
p570
sg6
S"Iraq's top Shi'ite party changes name, platform"
p571
sa(dp572
g2
S'http://www.reuters.com/article/latestCrisis/idUSL12229533'
p573
sg4
S'20070512\xc2\xa009:06 AM EDT'
p574
sg6
S'Blast at Spanish opposition office, no one hurt'
p575
sa(dp576
g2
S'http://www.reuters.com/article/businessNews/idUSL1222982020070512'
p577
sg4
S'20070512\xc2\xa009:02 AM EDT'
p578
sg6
S'BoA rules out higher LaSalle bid: media'
p579
sa(dp580
g2
S'http://www.reuters.com/article/latestCrisis/idUSIBO232018'
p581
sg4
S'20070512\xc2\xa009:01 AM EDT'
p582
sg6
S'FACTBOX-Security developments in Iraq, May 12'
p583
sa(dp584
g2
S'http://www.reuters.com/article/middleeastCrisis/idUSL12231566'
p585
sg4
S'20070512\xc2\xa008:50 AM EDT'
p586
sg6
S'5 killed, 3 missing in U.S. patrol attack in Iraq'
p587
sa(dp588
g2
S'http://www.reuters.com/article/topNews/idUSL1054521920070512'
p589
sg4
S'20070512\xc2\xa008:48 AM EDT'
p590
sg6
S'British girl abducted in Portugal turns 4'
p591
sa(dp592
g2
S'http://www.reuters.com/article/ousiv/idUSN1125379820070512'
p593
sg4
S'20070512\xc2\xa008:44 AM EDT'
p594
sg6
S'FDA vote sends Amgen investors for exits'
p595
sa(dp596
g2
S'http://www.reuters.com/article/companyNewsAndPR/idUSDEL396720070512'
p597
sg4
S'20070512\xc2\xa008:29 AM EDT'
p598
sg6
S"Indian street vendors attack retail chain's stores"
p599
sa(dp600
g2
S'http://www.reuters.com/article/latestCrisis/idUSDEL3967'
p601
sg4
S'20070512\xc2\xa008:29 AM EDT'
p602
sg6
S"Indian street vendors attack retail chain's stores"
p603
sa(dp604
g2
S'http://www.reuters.com/article/latestCrisis/idUSIBO243567'
p605
sg4
S'20070512\xc2\xa008:12 AM EDT'
p606
sg6
S'Five US soldiers killed, 3 missing in Iraq-military'
p607
sa(dp608
g2
S'http://www.reuters.com/article/latestCrisis/idUSL12223570'
p609
sg4
S'20070512\xc2\xa007:58 AM EDT'
p610
sg6
S'Blast at Spanish opposition office, no one hurt'
p611
sa(dp612
g2
S'http://www.reuters.com/article/worldNews/idUSPEK27146320070512'
p613
sg4
S'20070512\xc2\xa007:46 AM EDT'
p614
sg6
S"Vandal defaces China's iconic Mao portrait: witness"
p615
sa(dp616
g2
S'http://www.reuters.com/article/worldNews/idUSTP26236120070512'
p617
sg4
S'20070512\xc2\xa007:35 AM EDT'
p618
sg6
S'Taiwan premier to step down after primary loss'
p619
sa(dp620
g2
S'http://www.reuters.com/article/latestCrisis/idUSAHM233074'
p621
sg4
S'20070512\xc2\xa007:34 AM EDT'
p622
sg6
S'Algeria army kills seven Islamic militants-papers'
p623
sa(dp624
g2
S'http://www.reuters.com/article/topNews/idUSL1210936520070512'
p625
sg4
S'20070512\xc2\xa007:30 AM EDT'
p626
sg6
S'Yemen recalls envoys from Iran, Libya over rebels'
p627
sa(dp628
g2
S'http://www.reuters.com/article/worldNews/idUSL1217392720070512'
p629
sg4
S'20070512\xc2\xa007:28 AM EDT'
p630
sg6
S'New Serb coalition to replace hardline speaker'
p631
sa(dp632
g2
S'http://www.reuters.com/article/latestCrisis/idUSL12219372'
p633
sg4
S'20070512\xc2\xa007:25 AM EDT'
p634
sg6
S'Guinea president replaces army chiefs after protest'
p635
sa(dp636
g2
S'http://www.reuters.com/article/companyNewsAndPR/idUSL1218169620070512'
p637
sg4
S'20070512\xc2\xa007:20 AM EDT'
p638
sg6
S'Saudi, Dow to float 30 pct stake in petchem plant'
p639
sa(dp640
g2
S'http://www.reuters.com/article/companyNewsAndPR/idUSL1217974720070512'
p641
sg4
S'20070512\xc2\xa007:19 AM EDT'
p642
sg6
S'Saudi, Dow sign deal to build giant petchem plant'
p643
sa(dp644
g2
S'http://www.reuters.com/article/latestCrisis/idUSN12222923'
p645
sg4
S'20070512\xc2\xa007:09 AM EDT'
p646
sg6
S'Zimbabwe elected to chair key UN environment body'
p647
sa(dp648
g2
S'http://www.reuters.com/article/homepageCrisis/idUSL12212316._CH_.2400'
p649
sg4
S'20070512\xc2\xa007:05 AM EDT'
p650
sg6
S'Yemen recalls envoys from Iran, Libya over rebels'
p651
sa(dp652
g2
S'http://www.reuters.com/article/latestCrisis/idUSL12212316'
p653
sg4
S'20070512\xc2\xa007:05 AM EDT'
p654
sg6
S'Yemen recalls envoys from Iran, Libya over rebels'
p655
sa(dp656
g2
S'http://www.reuters.com/article/homepageCrisis/idUSL12166074._CH_.2400'
p657
sg4
S'20070512\xc2\xa006:59 AM EDT'
p658
sg6
S'Mogadishu blast kills 3 as top UN aid official visits'
p659
sa(dp660
g2
S'http://www.reuters.com/article/latestCrisis/idUSL12166074'
p661
sg4
S'20070512\xc2\xa006:59 AM EDT'
p662
sg6
S'Mogadishu blast kills 3 as top UN aid official visits'
p663
sa(dp664
g2
S'http://www.reuters.com/article/latestCrisis/idUSPEK271463'
p665
sg4
S'20070512\xc2\xa006:58 AM EDT'
p666
sg6
S"Vandal defaces China's iconic Mao portrait -witness"
p667
sa(dp668
g2
S'http://www.reuters.com/article/worldNews/idUSISL1696020070512'
p669
sg4
S'20070512\xc2\xa006:54 AM EDT'
p670
sg6
S'Afghan foreign minister removed over refugees row'
p671
sa(dp672
g2
S'http://www.reuters.com/article/featuredCrisis/idUSISL7165'
p673
sg4
S'20070512\xc2\xa006:50 AM EDT'
p674
sg6
S'Dozens of Taliban killed in Afghan south-official'
p675
sa(dp676
g2
S'http://www.reuters.com/article/filmNews/idUSN1147602520070512'
p677
sg4
S'20070512\xc2\xa006:45 AM EDT'
p678
sg6
S'Director Sonnenfeld unlocks "Box"'
p679
sa(dp680
g2
S'http://www.reuters.com/article/entertainmentNews/idUST26213420070512'
p681
sg4
S'20070512\xc2\xa006:44 AM EDT'
p682
sg6
S'Japan\'s WWII "kamikaze" film sparks talk of peace'
p683
sa(dp684
g2
S'http://www.reuters.com/article/ousiv/idUSL118998720070512'
p685
sg4
S'20070512\xc2\xa006:39 AM EDT'
p686
sg6
S'GM, Ford turnarounds hinge on economy: S&P;'
p687
sa(dp688
g2
S'http://www.reuters.com/article/environmentNews/idUSPEK26151720070512'
p689
sg4
S'20070512\xc2\xa006:21 AM EDT'
p690
sg6
S"China's Yellow River 10 pct sewage: group"
p691
sa(dp692
g2
S'http://www.reuters.com/article/homepageCrisis/idUSL11654939._CH_.2400'
p693
sg4
S'20070512\xc2\xa006:18 AM EDT'
p694
sg6
S"FEATURE-Congo lake's deadly gases could be hidden blessing"
p695
sa(dp696
g2
S'http://www.reuters.com/article/featuredCrisis/idUSL11654939'
p697
sg4
S'20070512\xc2\xa006:18 AM EDT'
p698
sg6
S"FEATURE-Congo lake's deadly gases could be hidden blessing"
p699
sa(dp700
g2
S'http://www.reuters.com/article/worldNews/idUSL1217992120070512'
p701
sg4
S'20070512\xc2\xa006:14 AM EDT'
p702
sg6
S'Egypt arrests 59 Muslims after clash with Copts'
p703
sa(dp704
g2
S'http://www.reuters.com/article/worldNews/idUSL1220548520070512'
p705
sg4
S'20070512\xc2\xa005:47 AM EDT'
p706
sg6
S'Russia clinches deal on new Caspian gas pipeline'
p707
sa(dp708
g2
S'http://www.reuters.com/article/companyNewsAndPR/idUSL1213780420070512'
p709
sg4
S'20070512\xc2\xa005:38 AM EDT'
p710
sg6
S"Bahrain's Investcorp buys U.S. hotels for $450 mln"
p711
sa(dp712
g2
S'http://www.reuters.com/article/latestCrisis/idUSL12179921'
p713
sg4
S'20070512\xc2\xa005:07 AM EDT'
p714
sg6
S'Egypt arrests 59 Muslims after clash with Copts'
p715
sa(dp716
g2
S'http://www.reuters.com/article/worldNews/idUSISL129720070512'
p717
sg4
S'20070512\xc2\xa004:49 AM EDT'
p718
sg6
S'Four dead in Pakistani clashes over judge: police'
p719
sa(dp720
g2
S'http://www.reuters.com/article/governmentFilingsNews/idUSL1223442520070512'
p721
sg4
S'20070512\xc2\xa004:47 AM EDT'
p722
sg6
S'Telefonica,T.Italia may merge Brazil units-paper'
p723
sa(dp724
g2
S'http://www.reuters.com/article/topNews/idUSL105625120070512'
p725
sg4
S'20070512\xc2\xa004:46 AM EDT'
p726
sg6
S"UK's Brown says to visit Iraq soon"
p727
sa(dp728
g2
S'http://www.reuters.com/article/latestCrisis/idUSISL1297'
p729
sg4
S'20070512\xc2\xa004:41 AM EDT'
p730
sg6
S'Four dead in Pakistani clashes over judge - police'
p731
sa(dp732
g2
S'http://www.reuters.com/article/latestCrisis/idUSN12302205'
p733
sg4
S'20070512\xc2\xa004:17 AM EDT'
p734
sg6
S'Zimbabwe elected to chair key UN environment body'
p735
sa(dp736
g2
S'http://www.reuters.com/article/latestCrisis/idUSL12145474'
p737
sg4
S'20070512\xc2\xa004:10 AM EDT'
p738
sg6
S'Egypt arrests 59 Muslims after clash with Copts'
p739
sa(dp740
g2
S'http://www.reuters.com/article/worldNews/idUSL1216808220070512'
p741
sg4
S'20070512\xc2\xa003:50 AM EDT'
p742
sg6
S'Rival Caspian pipeline not dropped: Turkmenistan'
p743
sa(dp744
g2
S'http://www.reuters.com/article/latestCrisis/idUSL12109365'
p745
sg4
S'20070512\xc2\xa003:45 AM EDT'
p746
sg6
S'Yemen recalls envoys from Iran, Libya over rebels'
p747
sa(dp748
g2
S'http://www.reuters.com/article/companyNewsAndPR/idUSL1216356120070512'
p749
sg4
S'20070512\xc2\xa002:58 AM EDT'
p750
sg6
S'Russia clinches deal on new Caspian gas pipeline'
p751
sa(dp752
g2
S'http://www.reuters.com/article/companyNewsAndPR/idUSL121855620070512'
p753
sg4
S'20070512\xc2\xa002:39 AM EDT'
p754
sg6
S'Russia, Turkmen, Kazakh leaders discuss energy ties'
p755
sa(dp756
g2
S'http://www.reuters.com/article/latestCrisis/idUSISL4177'
p757
sg4
S'20070512\xc2\xa002:03 AM EDT'
p758
sg6
S"Flights from Pakistan's Karachi disrupted-airline"
p759
sa(dp760
g2
S'http://www.reuters.com/article/latestCrisis/idUSMAN32614'
p761
sg4
S'20070512\xc2\xa001:51 AM EDT'
p762
sg6
S'Fresh election violence kills 4 in Philippine south'
p763
sa(dp764
g2
S'http://www.reuters.com/article/latestCrisis/idUSDHA2790'
p765
sg4
S'20070512\xc2\xa001:44 AM EDT'
p766
sg6
S'Bangladesh ex-PM meets former US congressman'
p767
sa(dp768
g2
S'http://www.reuters.com/article/sportsNews/idUSSP294420070512'
p769
sg4
S'20070512\xc2\xa001:36 AM EDT'
p770
sg6
S'Injury-hit Blue Jays end nine-game losing streak'
p771
sa(dp772
g2
S'http://www.reuters.com/article/latestCrisis/idUSN12210477'
p773
sg4
S'20070512\xc2\xa001:22 AM EDT'
p774
sg6
S'US study finds billions of Iraqi oil missing -NYT'
p775
sa(dp776
g2
S'http://www.reuters.com/article/sportsNews/idUSSP147020070512'
p777
sg4
S'20070512\xc2\xa001:05 AM EDT'
p778
sg6
S'Warriors enjoy home comforts to overcome Jazz'
p779
sa(dp780
g2
S'http://www.reuters.com/article/sportsNews/idUSSP733820070512'
p781
sg4
S'20070512\xc2\xa012:56 AM EDT'
p782
sg6
S'Mets cool off Brewers'
p783
sa(dp784
g2
S'http://www.reuters.com/article/ousiv/idUSWEN804020070512'
p785
sg4
S'20070512\xc2\xa012:42 AM EDT'
p786
sg6
S'Some big airlines again try to raise fares'
p787
sa(dp788
g2
S'http://www.reuters.com/article/businessNews/idUSN1134213420070512'
p789
sg4
S'20070512\xc2\xa012:41 AM EDT'
p790
sg6
S'Microsoft eyes huge launch sales of "Halo 3"'
p791
sa(dp792
g2
S'http://www.reuters.com/article/businessNews/idUSN1121116620070512'
p793
sg4
S'20070512\xc2\xa012:41 AM EDT'
p794
sg6
S'Microsoft says working to broaden Xbox appeal'
p795
sa(dp796
g2
S'http://www.reuters.com/article/latestCrisis/idUSDEL34133'
p797
sg4
S'20070512\xc2\xa012:41 AM EDT'
p798
sg6
S'Angry Indian villagers release POSCO executives'
p799
sa(dp800
g2
S'http://www.reuters.com/article/latestCrisis/idUSISL2887'
p801
sg4
S'20070512\xc2\xa012:30 AM EDT'
p802
sg6
S'Pakistani city roads blocked ahead of judge visit'
p803
sa(dp804
g2
S'http://www.reuters.com/article/latestCrisis/idUSBKK2063'
p805
sg4
S'20070512\xc2\xa012:17 AM EDT'
p806
sg6
S'Thai PM seeks peaceful end to southern conflict'
p807
sa(dp808
g2
S'http://www.reuters.com/article/companyNewsAndPR/idUSN1119046520070512'
p809
sg4
S'20070512\xc2\xa012:01 AM EDT'
p810
sg6
S'UPDATE 1-Microsoft lifts shroud off Halo 3 to mixed reviews'
p811
sa(dp812
g2
S'http://www.reuters.com/news/video/videoStory?storyID=e060afd8466be90d60b241bc3f2d7e6451aed157'
p813
sg4
S'20070512\xc2\xa011:38 PM EDT'
p814
sg6
S'Top Taliban commander reported dead'
p815
sa(dp816
g2
S'http://www.reuters.com/news/video/videoStory?storyID=c6bda267f743ce2be1abdd084253b36d8861b4d4'
p817
sg4
S'20070512\xc2\xa010:37 PM EDT'
p818
sg6
S'Gunfire in Karachi'
p819
sa(dp820
g2
S'http://www.reuters.com/news/video/videoStory?storyID=a9b7cfa49c72997e19df0a25fc9f33aff71ea625'
p821
sg4
S'20070512\xc2\xa009:17 PM EDT'
p822
sg6
S'Serbia celebrates Eurovision win'
p823
sa(dp824
g2
S'http://www.reuters.com/news/video/videoStory?storyID=55ecfa49b33b94cec2cbe93c7cfe16a466536e46'
p825
sg4
S'20070512\xc2\xa008:29 PM EDT'
p826
sg6
S'Karachi crisis - two more die'
p827
sa(dp828
g2
S'http://www.reuters.com/news/video/videoStory?storyID=c2d2764ba98d6ca170087a4ef2a4355661a3803c'
p829
sg4
S'20070512\xc2\xa007:54 PM EDT'
p830
sg6
S'Cheney meets Saudi king'
p831
sa(dp832
g2
S'http://www.reuters.com/news/video/videoStory?storyID=d84a700faf63f840858f6f728ae041fba2621e37'
p833
sg4
S'20070512\xc2\xa001:53 PM EDT'
p834
sg6
S'Back to brilliance at Versailles'
p835
sa(dp836
g2
S'http://www.reuters.com/news/video/videoStory?storyID=320fe70feafbd33597dbbf7662317871b064bccc'
p837
sg4
S'20070512\xc2\xa011:55 AM EDT'
p838
sg6
S'Flood kills four'
p839
sa(dp840
g2
S'http://www.reuters.com/news/video/videoStory?storyID=6dcc577051d931b04636f4b7d8c3aede7550de2c'
p841
sg4
S'20070512\xc2\xa009:30 AM EDT'
p842
sg6
S'Classic car protest'
p843
sa(dp844
g2
S'http://www.reuters.com/news/video/videoStory?storyID=6f211f25ed8abb2dfa25e4dabe8af786b67c8603'
p845
sg4
S'20070512\xc2\xa009:20 AM EDT'
p846
sg6
S'Attack on U.S. patrol in Iraq'
p847
sa(dp848
g2
S'http://www.reuters.com/news/video/videoStory?storyID=1bc88157f6aa6b2d8dc72431f4d497408ec2ea8c'
p849
sg4
S'20070512\xc2\xa007:20 AM EDT'
p850
sg6
S'Beijing icon under attack'
p851
sa(dp852
g2
S'http://www.reuters.com/news/video/videoStory?storyID=dbe545523b3393494566d91849fc7a54573e0fa4'
p853
sg4
S'20070512\xc2\xa007:14 AM EDT'
p854
sg6
S'Market bomb in Turkey'
p855
sa(dp856
g2
S'http://www.reuters.com/news/video/videoStory?storyID=89136607a1c0dfd5846039b2faf990d17fbef154'
p857
sg4
S'20070512\xc2\xa005:42 AM EDT'
p858
sg6
S'Agent Crush goes classic'
p859
sa(dp860
g2
S'http://www.reuters.com/news/video/videoStory?storyID=FEEDROOM194277'
p861
sg4
S'20070512\xc2\xa005:28 AM EDT'
p862
sg6
S'Long march of a penguin'
p863
sa(dp864
g2
S'http://www.reuters.com/news/video/videoStory?storyID=93f15a7152ae176b81e65383dff7d81e38e1909d'
p865
sg4
S'20070512\xc2\xa005:08 AM EDT'
p866
sg6
S'Judge visit sparks deadly violence'
p867
sa(dp868
g2
S'http://www.reuters.com/news/video/videoStory?storyID=FEEDROOM194275'
p869
sg4
S'20070512\xc2\xa004:50 AM EDT'
p870
sg6
S'Global Coverage: Heir to Blair'
p871
sa(dp872
g2
S'http://www.reuters.com/news/video/videoStory?storyID=FEEDROOM194274'
p873
sg4
S'20070512\xc2\xa004:50 AM EDT'
p874
sg6
S'Global Coverage: Pope perspective'
p875
sa(dp876
g2
S'http://www.reuters.com/news/video/videoStory?storyID=af57a273d9beb093c5adc7286fb4d8578649484a'
p877
sg4
S'20070512\xc2\xa003:30 AM EDT'
p878
sg6
S'Bulldog adopts baby tiger'
p879
sa(dp880
g2
S'http://www.reuters.com/news/video/videoStory?storyID=a99058fbe84e08f49c1be38747e2098b8d40edcc'
p881
sg4
S'20070512\xc2\xa002:22 AM EDT'
p882
sg6
S'Countdown to Eurovision'
p883
sa(dp884
g2
S'http://www.reuters.com/news/video/videoStory?storyID=3887096460861c38bae8b4e0000dce6c44e025a5'
p885
sg4
S'20070512\xc2\xa001:54 AM EDT'
p886
sg6
S'March of a penguin'
p887
sa(dp888
g2
S'http://www.reuters.com/news/video/videoStory?storyID=ee8a8e4ab18c757cc83d4057a90135b0620734a4'
p889
sg4
S'20070512\xc2\xa001:50 AM EDT'
p890
sg6
S'Want to feel better, just laugh!'
p891
sa.