(lp0
(dp1
S'href'
p2
S'http://www.reuters.com/article/rbssTechMediaTelecomNews/idUSTP37010120071203'
p3
sS'ts'
p4
S'20071202\xc2\xa011:58 PM EST'
p5
sS'title'
p6
S'U.S. trade commission probes HP after Acer complaint'
p7
sa(dp8
g2
S'http://www.reuters.com/article/marketsNews/idUSSEO1095220071203'
p9
sg4
S'20071202\xc2\xa011:53 PM EST'
p10
sg6
S'TABLE-Renault Samsung Nov sales up 0.5 pct y/y'
p11
sa(dp12
g2
S'http://www.reuters.com/article/ousiv/idUSN0232686620071203'
p13
sg4
S'20071202\xc2\xa011:47 PM EST'
p14
sg6
S'FedEx chief sees U.S. slowdown, not steep decline'
p15
sa(dp16
g2
S'http://www.reuters.com/article/inDepthNews/idUSL2270344220071203'
p17
sg4
S'20071202\xc2\xa011:47 PM EST'
p18
sg6
S'Wind power sets sail from crowded Germany'
p19
sa(dp20
g2
S'http://www.reuters.com/article/tokyoMktRpt/idUST35989220071203'
p21
sg4
S'20071202\xc2\xa011:45 PM EST'
p22
sg6
S'Japan stocks ease as exporters weigh on firmer yen'
p23
sa(dp24
g2
S'http://www.reuters.com/article/rbssIndustryMaterialsUtilitiesNews/idUSSYD8765620071203'
p25
sg4
S'20071202\xc2\xa011:40 PM EST'
p26
sg6
S'Terramin hedges half its Australian zinc output'
p27
sa(dp28
g2
S'http://www.reuters.com/article/latestCrisis/idUSPEK352493'
p29
sg4
S'20071202\xc2\xa011:40 PM EST'
p30
sg6
S'China puts brake on "vicious cycle" of bike thefts'
p31
sa(dp32
g2
S'http://www.reuters.com/article/rbssConsumerGoodsAndRetailNews/idUST36969020071203'
p33
sg4
S'20071202\xc2\xa011:39 PM EST'
p34
sg6
S"RPT-UPDATE 2-Japan's Lawson says sold food with old ingredients"
p35
sa(dp36
g2
S'http://www.reuters.com/article/technologyNews/idUSN0234295020071203'
p37
sg4
S'20071202\xc2\xa011:37 PM EST'
p38
sg6
S'Blog site that is popular in Russia is sold'
p39
sa(dp40
g2
S'http://www.reuters.com/article/companyNewsAndPR/idUSL0351943920071203'
p41
sg4
S'20071202\xc2\xa011:35 PM EST'
p42
sg6
S'PRESS DIGEST - Financial Times - Dec 3'
p43
sa(dp44
g2
S'http://www.reuters.com/article/marketsNews/idUSSEO17763820071203'
p45
sg4
S'20071202\xc2\xa011:35 PM EST'
p46
sg6
S"TABLE-S.Korea's GM Daewoo Nov sales up 15 pct y/y"
p47
sa(dp48
g2
S'http://www.reuters.com/article/rbssFinancialServicesAndRealEstateNews/idUSBMA00000520071203'
p49
sg4
S'20071202\xc2\xa011:32 PM EST'
p50
sg6
S"India's main stock index opens 0.95 pct up"
p51
sa(dp52
g2
S'http://www.reuters.com/article/sportsNews/idUSSP33782120071203'
p53
sg4
S'20071202\xc2\xa011:31 PM EST'
p54
sg6
S'Devils beat Thrashers in shootout to win 7th in a row'
p55
sa(dp56
g2
S'http://www.reuters.com/article/pressRelease/idUS38456+03-Dec-2007+PRN20071203'
p57
sg4
S'20071202\xc2\xa011:30 PM EST'
p58
sg6
S'Following Is a Test Release'
p59
sa(dp60
g2
S'http://www.reuters.com/article/companyNewsAndPR/idUSN0234195920071203'
p61
sg4
S'20071202\xc2\xa011:29 PM EST'
p62
sg6
S"Weaker economy bad for buyouts - Barron's"
p63
sa(dp64
g2
S'http://www.reuters.com/article/inDepthNews/idUST33061420071203'
p65
sg4
S'20071202\xc2\xa011:29 PM EST'
p66
sg6
S"At 98, Japan's oldest geisha exudes beauty and charm"
p67
sa(dp68
g2
S'http://www.reuters.com/article/pressRelease/idUS38336+03-Dec-2007+BW20071203'
p69
sg4
S'20071202\xc2\xa011:29 PM EST'
p70
sg6
S'Location Based Technologies Provides Information in Response to the Surprise www.gizmodo.com...'
p71
sa(dp72
g2
S'http://www.reuters.com/article/peopleNews/idUSN3024230820071203'
p73
sg4
S'20071202\xc2\xa011:23 PM EST'
p74
sg6
S'John Cusack clocks in for "Factory" role'
p75
sa(dp76
g2
S'http://www.reuters.com/article/pressRelease/idUS36891+03-Dec-2007+BW20071203'
p77
sg4
S'20071202\xc2\xa011:15 PM EST'
p78
sg6
S"KLA-Tencor's New Aleris 8500 Film Metrology System is Industry's Most Advanced Thickness..."
p79
sa(dp80
g2
S'http://www.reuters.com/article/pressRelease/idUS36892+03-Dec-2007+BW20071203'
p81
sg4
S'20071202\xc2\xa011:15 PM EST'
p82
sg6
S'KLA-Tencor Introduces Complete Measurement Solution for Critical 45nm Wafer Geometry...'
p83
sa(dp84
g2
S'http://www.reuters.com/article/pressRelease/idUS36868+03-Dec-2007+PRN20071203'
p85
sg4
S'20071202\xc2\xa011:14 PM EST'
p86
sg6
S'Apartment Investment and Management Company Declares Dividends on Class G, T, U,...'
p87
sa(dp88
g2
S'http://www.reuters.com/article/sportsNews/idUSSP3273120071203'
p89
sg4
S'20071202\xc2\xa011:09 PM EST'
p90
sg6
S'Grateful Saltus comes to life in Cambodia'
p91
sa(dp92
g2
S'http://www.reuters.com/article/scienceNews/idUSPEK36958420071203'
p93
sg4
S'20071202\xc2\xa011:07 PM EST'
p94
sg6
S'China says moon pictures not faked from NASA'
p95
sa(dp96
g2
S'http://www.reuters.com/article/pressRelease/idUS35204+03-Dec-2007+PRN20071203'
p97
sg4
S'20071202\xc2\xa011:00 PM EST'
p98
sg6
S'Following Is a Test Release'
p99
sa(dp100
g2
S'http://www.reuters.com/article/pressRelease/idUS35178+03-Dec-2007+BW20071203'
p101
sg4
S'20071202\xc2\xa011:00 PM EST'
p102
sg6
S'New Report an Essential Resource for Top-Level Data and Analysis Covering the Management...'
p103
sa(dp104
g2
S'http://www.reuters.com/article/pressRelease/idUS35175+03-Dec-2007+BW20071203'
p105
sg4
S'20071202\xc2\xa011:00 PM EST'
p106
sg6
S'Identify Factors Driving Change in the Insecticides Market in Malaysia'
p107
sa(dp108
g2
S'http://www.reuters.com/article/bondsNews/idUST33857420071203'
p109
sg4
S'20071202\xc2\xa010:58 PM EST'
p110
sg6
S'TREASURIES-Edge up in Asia on Fed rate outlook, data eyed'
p111
sa(dp112
g2
S'http://www.reuters.com/article/bondsNews/idUSTKW00288620071203'
p113
sg4
S'20071202\xc2\xa010:55 PM EST'
p114
sg6
S'JGB futures extend gains, hitting 22-month high'
p115
sa(dp116
g2
S'http://www.reuters.com/article/rbssIndustryMaterialsUtilitiesNews/idUSHAN1530820071203'
p117
sg4
S'20071202\xc2\xa010:45 PM EST'
p118
sg6
S'Hyundai Eng to build Petrovietnam plastics plant'
p119
sa(dp120
g2
S'http://www.reuters.com/article/rbssIndustryMaterialsUtilitiesNews/idUSSYD3551320071203'
p121
sg4
S'20071202\xc2\xa010:45 PM EST'
p122
sg6
S'UPDATE 1-Lead held at Australia port seen cleared by April'
p123
sa(dp124
g2
S'http://www.reuters.com/article/rbssConsumerGoodsAndRetailNews/idUSBKK1969120071203'
p125
sg4
S'20071202\xc2\xa010:40 PM EST'
p126
sg6
S'Thai on-line game firm Asiasoft delays IPO to Q1'
p127
sa(dp128
g2
S'http://www.reuters.com/article/worldNews/idUST27307020071203'
p129
sg4
S'20071202\xc2\xa010:38 PM EST'
p130
sg6
S'FACTBOX-What it takes to be a Japanese geisha'
p131
sa(dp132
g2
S'http://www.reuters.com/article/healthNews/idUSPEK35019620071203'
p133
sg4
S'20071202\xc2\xa010:31 PM EST'
p134
sg6
S'Chinese man dies of bird flu, first since June'
p135
sa(dp136
g2
S'http://www.reuters.com/article/pressRelease/idUS32813+03-Dec-2007+PRN20071203'
p137
sg4
S'20071202\xc2\xa010:30 PM EST'
p138
sg6
S'Following Is a Test Release'
p139
sa(dp140
g2
S'http://www.reuters.com/article/pressRelease/idUS32808+03-Dec-2007+BW20071203'
p141
sg4
S'20071202\xc2\xa010:30 PM EST'
p142
sg6
S'Rising Proportion of Female Population Provides Boost for Cotton Wool/Buds/Pads Market...'
p143
sa(dp144
g2
S'http://www.reuters.com/article/worldNews/idUSSEO27030820071203'
p145
sg4
S'20071202\xc2\xa010:29 PM EST'
p146
sg6
S'Pick for South Korean presidency off legal hook'
p147
sa(dp148
g2
S'http://www.reuters.com/article/rbssIndustryMaterialsUtilitiesNews/idUSHKG33689520071203'
p149
sg4
S'20071202\xc2\xa010:28 PM EST'
p150
sg6
S'UPDATE 1-Sinoma plans up to US$538 mln HK IPO'
p151
sa(dp152
g2
S'http://www.reuters.com/article/topNews/idUSL0350131920071203'
p153
sg4
S'20071202\xc2\xa010:27 PM EST'
p154
sg6
S"TABLE-Putin's party wins 63.3 pct in parliament vote"
p155
sa(dp156
g2
S'http://www.reuters.com/article/worldNews/idUSN1532457820071203'
p157
sg4
S'20071202\xc2\xa010:23 PM EST'
p158
sg6
S'Nicaraguans find "USA" in booming Costa Rica'
p159
sa(dp160
g2
S'http://www.reuters.com/article/companyNewsAndPR/idUSN0232858120071203'
p161
sg4
S'20071202\xc2\xa010:22 PM EST'
p162
sg6
S"ParkerVision short-seller thinks stock worthless - Barron's"
p163
sa(dp164
g2
S'http://www.reuters.com/article/latestCrisis/idUSPEK357682'
p165
sg4
S'20071202\xc2\xa010:16 PM EST'
p166
sg6
S'Chinese man dies of bird flu, first since June'
p167
sa(dp168
g2
S'http://www.reuters.com/article/worldNews/idUST31951120071203'
p169
sg4
S'20071202\xc2\xa010:16 PM EST'
p170
sg6
S'Japan capex posts small fall, GDP seen revised up'
p171
sa(dp172
g2
S'http://www.reuters.com/article/entertainmentNews/idUSN0233139520071203'
p173
sg4
S'20071202\xc2\xa010:14 PM EST'
p174
sg6
S'Socialites back to boarding school with feature'
p175
sa(dp176
g2
S'http://www.reuters.com/article/rbssFinancialServicesAndRealEstateNews/idUSHAN3473720071203'
p177
sg4
S'20071202\xc2\xa010:12 PM EST'
p178
sg6
S'Vietcombank value seen at $9.3 bln -paper'
p179
sa(dp180
g2
S'http://www.reuters.com/article/rbssConsumerGoodsAndRetailNews/idUSHKG26903820071203'
p181
sg4
S'20071202\xc2\xa010:11 PM EST'
p182
sg6
S"UPDATE 1-HK's Tianjin Development shares suspended -HKex"
p183
sa(dp184
g2
S'http://www.reuters.com/article/pressRelease/idUS30925+03-Dec-2007+BW20071203'
p185
sg4
S'20071202\xc2\xa010:08 PM EST'
p186
sg6
S'MTV Selects Envivio Encoders for Mobile TV Services in Brazil'
p187
sa(dp188
g2
S'http://www.reuters.com/article/entertainmentNews/idUSL0122891420071203'
p189
sg4
S'20071202\xc2\xa010:05 PM EST'
p190
sg6
S'Mirren wins best actress at European Film Awards'
p191
sa(dp192
g2
S'http://www.reuters.com/article/rbssIndustryMaterialsUtilitiesNews/idUSKLA00644020071203'
p193
sg4
S'20071202\xc2\xa010:05 PM EST'
p194
sg6
S'Malaysia to allow power hike if gas price raised'
p195
sa(dp196
g2
S'http://www.reuters.com/article/rbssConsumerGoodsAndRetailNews/idUSBOM3566420071203'
p197
sg4
S'20071202\xc2\xa010:02 PM EST'
p198
sg6
S'India Hero Honda Nov two-wheeler sales up 3pct yr/yr'
p199
sa(dp200
g2
S'http://www.reuters.com/article/bondsNews/idUST32810520071203'
p201
sg4
S'20071202\xc2\xa010:00 PM EST'
p202
sg6
S'JGBs rise on weak stocks, capped before auction'
p203
sa(dp204
g2
S'http://www.reuters.com/article/pressRelease/idUS30006+03-Dec-2007+PRN20071203'
p205
sg4
S'20071202\xc2\xa010:00 PM EST'
p206
sg6
S'Following Is a Test Release'
p207
sa(dp208
g2
S'http://www.reuters.com/article/pressRelease/idUS29962+03-Dec-2007+BW20071203'
p209
sg4
S'20071202\xc2\xa010:00 PM EST'
p210
sg6
S"Research and Markets: New Report Examines Imperial Oil Limited's Key Business Structure..."
p211
sa(dp212
g2
S'http://www.reuters.com/article/rbssIndustryMaterialsUtilitiesNews/idUSSEO37001820071203'
p213
sg4
S'20071202\xc2\xa009:59 PM EST'
p214
sg6
S'S.Korea Hyundai Eng wins $929 mln order from Qatar'
p215
sa(dp216
g2
S'http://www.reuters.com/article/inDepthNews/idUSL013281120071203'
p217
sg4
S'20071202\xc2\xa009:59 PM EST'
p218
sg6
S'South American youth promote fair play on street'
p219
sa(dp220
g2
S'http://www.reuters.com/article/rbssEnergyNews/idUSHKG32923220071203'
p221
sg4
S'20071202\xc2\xa009:50 PM EST'
p222
sg6
S'China Coal sees prices up 10 pct in 2008 -paper'
p223
sa(dp224
g2
S'http://www.reuters.com/article/hongkongMktRpt/idUSHKG25939720071203'
p225
sg4
S'20071202\xc2\xa009:49 PM EST'
p226
sg6
S'HK Hot Stocks: Tom Group jumps, properties up'
p227
sa(dp228
g2
S'http://www.reuters.com/article/bondsNews/idUSN0251184820071203'
p229
sg4
S'20071202\xc2\xa009:48 PM EST'
p230
sg6
S'Fed needs to push new credit standards-investors'
p231
sa(dp232
g2
S'http://www.reuters.com/article/tokyoMktRpt/idUST33908320071203'
p233
sg4
S'20071202\xc2\xa009:48 PM EST'
p234
sg6
S'Japan stocks erase gains, credit fears linger'
p235
sa(dp236
g2
S'http://www.reuters.com/article/homepageCrisis/idUSSP34484._CH_.2400'
p237
sg4
S'20071202\xc2\xa009:46 PM EST'
p238
sg6
S'FACTBOX-U.N. panel lays out risks, solutions to warming'
p239
sa(dp240
g2
S'http://www.reuters.com/article/latestCrisis/idUSSP34484'
p241
sg4
S'20071202\xc2\xa009:46 PM EST'
p242
sg6
S'FACTBOX-U.N. panel lays out risks, solutions to warming'
p243
sa(dp244
g2
S'http://www.reuters.com/article/latestCrisis/idUSSP333391'
p245
sg4
S'20071202\xc2\xa009:46 PM EST'
p246
sg6
S'CHRONOLOGY-From LiveEarth to Bali: A year of climate gatherings'
p247
sa(dp248
g2
S'http://www.reuters.com/article/latestCrisis/idUSSP249905'
p249
sg4
S'20071202\xc2\xa009:45 PM EST'
p250
sg6
S'FACTBOX-What is the Kyoto Protocol?'
p251
sa(dp252
g2
S'http://www.reuters.com/article/latestCrisis/idUSSP34309'
p253
sg4
S'20071202\xc2\xa009:44 PM EST'
p254
sg6
S'FACTBOX-Main players at Bali climate talks'
p255
sa(dp256
g2
S'http://www.reuters.com/article/rbssIndustryMaterialsUtilitiesNews/idUSSYA00283620071203'
p257
sg4
S'20071202\xc2\xa009:41 PM EST'
p258
sg6
S'Esperance lead removal possible in March-April'
p259
sa(dp260
g2
S'http://www.reuters.com/article/rbssFinancialServicesAndRealEstateNews/idUSBKK3673220071203'
p261
sg4
S'20071202\xc2\xa009:39 PM EST'
p262
sg6
S'Thai Q3 GDP grows 1.5 pct q/q, above expectations'
p263
sa(dp264
g2
S'http://www.reuters.com/article/bondsNews/idUST26841820071203'
p265
sg4
S'20071202\xc2\xa009:35 PM EST'
p266
sg6
S"Japan's TFX launches overnight call rate futures"
p267
sa(dp268
g2
S'http://www.reuters.com/article/worldNews/idUSPEK36265520071203'
p269
sg4
S'20071202\xc2\xa009:34 PM EST'
p270
sg6
S'China coal mine blast kills 18, with 43 missing'
p271
sa(dp272
g2
S'http://www.reuters.com/article/rbssIndustryMaterialsUtilitiesNews/idUST37027620071203'
p273
sg4
S'20071202\xc2\xa009:32 PM EST'
p274
sg6
S'Dowa cuts indium prices for first time since Oct 1'
p275
sa(dp276
g2
S'http://www.reuters.com/article/topNews/idUSL0349685420071203'
p277
sg4
S'20071202\xc2\xa009:31 PM EST'
p278
sg6
S'Chechnya votes 99.4 percent for Putin party'
p279
sa(dp280
g2
S'http://www.reuters.com/article/environmentNews/idUSSP33153420071203'
p281
sg4
S'20071202\xc2\xa009:30 PM EST'
p282
sg6
S'China wary on international climate goals'
p283
sa(dp284
g2
S'http://www.reuters.com/article/pressRelease/idUS26827+03-Dec-2007+PRN20071203'
p285
sg4
S'20071202\xc2\xa009:30 PM EST'
p286
sg6
S'Following Is a Test Release'
p287
sa(dp288
g2
S'http://www.reuters.com/article/domesticNews/idUSN0223994420071203'
p289
sg4
S'20071202\xc2\xa009:29 PM EST'
p290
sg6
S'Mexico drug gangs muscle border tribe out of homes'
p291
sa(dp292
g2
S'http://www.reuters.com/article/companyNewsAndPR/idUSN0234035420071203'
p293
sg4
S'20071202\xc2\xa009:23 PM EST'
p294
sg6
S'NYSE Euronext to open Beijing office Dec. 11'
p295
sa(dp296
g2
S'http://www.reuters.com/article/rbssEnergyNews/idUSJAK3324020071203'
p297
sg4
S'20071202\xc2\xa009:21 PM EST'
p298
sg6
S'UPDATE 1-Banpu Indonesian arm sets IPO price at 14,000 rph/shr'
p299
sa(dp300
g2
S'http://www.reuters.com/article/rbssEnergyNews/idUSJAK28303120071203'
p301
sg4
S'20071202\xc2\xa009:20 PM EST'
p302
sg6
S'UPDATE 1-Banpu Indonesian arm sets IPO price at 14,000 rph/shr'
p303
sa(dp304
g2
S'http://www.reuters.com/article/ousiv/idUSN0237136320071203'
p305
sg4
S'20071202\xc2\xa009:18 PM EST'
p306
sg6
S'Workers at Pratt & Whitney approve new contract'
p307
sa(dp308
g2
S'http://www.reuters.com/article/latestCrisis/idUSL03496854'
p309
sg4
S'20071202\xc2\xa009:12 PM EST'
p310
sg6
S"Russia's Chechnya votes 99.4 pct for Putin party"
p311
sa(dp312
g2
S'http://www.reuters.com/article/latestCrisis/idUSPEK362655'
p313
sg4
S'20071202\xc2\xa009:11 PM EST'
p314
sg6
S'China coal mine blast kills 18, with 43 missing'
p315
sa(dp316
g2
S'http://www.reuters.com/article/rbssTechMediaTelecomNews/idUSSEW00021220071203'
p317
sg4
S'20071202\xc2\xa009:11 PM EST'
p318
sg6
S'KTF, NTT DoCoMo to invest $200 mln in Malaysia U Mobile'
p319
sa(dp320
g2
S'http://www.reuters.com/article/sportsNews/idUSB50122320071203'
p321
sg4
S'20071202\xc2\xa009:08 PM EST'
p322
sg6
S'Astros sign Matsui to three-year deal'
p323
sa(dp324
g2
S'http://www.reuters.com/article/tokyoMktRpt/idUST32907420071203'
p325
sg4
S'20071202\xc2\xa009:08 PM EST'
p326
sg6
S'Japan stocks erase gains on profit-taking'
p327
sa(dp328
g2
S'http://www.reuters.com/article/rbssConsumerGoodsAndRetailNews/idUSTFA00288620071203'
p329
sg4
S'20071202\xc2\xa009:07 PM EST'
p330
sg6
S'Lawson to brief on food sales with old ingredients'
p331
sa(dp332
g2
S'http://www.reuters.com/article/hongkongMktRpt/idUSHKF07875020071203'
p333
sg4
S'20071202\xc2\xa009:05 PM EST'
p334
sg6
S'HK stocks rise as properties gain on rate cut hopes'
p335
sa(dp336
g2
S'http://www.reuters.com/article/pressRelease/idUS23677+03-Dec-2007+PRN20071203'
p337
sg4
S'20071202\xc2\xa009:00 PM EST'
p338
sg6
S'Following Is a Test Release'
p339
sa(dp340
g2
S'http://www.reuters.com/article/pressRelease/idUS23674+03-Dec-2007+PRN20071203'
p341
sg4
S'20071202\xc2\xa009:00 PM EST'
p342
sg6
S"Lieberson's 'Neruda Songs' Earns Grawemeyer Music Prize"
p343
sa(dp344
g2
S'http://www.reuters.com/article/pressRelease/idUS23656+03-Dec-2007+BW20071203'
p345
sg4
S'20071202\xc2\xa009:00 PM EST'
p346
sg6
S'Research and Markets: Horizon Offshore, Inc. Deals and Alliances Profile is an Essential...'
p347
sa(dp348
g2
S'http://www.reuters.com/article/pressRelease/idUS23655+03-Dec-2007+BW20071203'
p349
sg4
S'20071202\xc2\xa009:00 PM EST'
p350
sg6
S'Research and Markets: Energy XXI Limited Deals and Alliances Profile Analyses Key...'
p351
sa(dp352
g2
S'http://www.reuters.com/article/pressRelease/idUS23654+03-Dec-2007+BW20071203'
p353
sg4
S'20071202\xc2\xa009:00 PM EST'
p354
sg6
S"Research and Markets: Examine ReAble Therapeutics Finance LLC's Major Financial Deals..."
p355
sa(dp356
g2
S'http://www.reuters.com/article/pressRelease/idUS23650+03-Dec-2007+BW20071203'
p357
sg4
S'20071202\xc2\xa009:00 PM EST'
p358
sg6
S'Research and Markets: Examine Lone Star Technologies, Inc. Company Profile Key Business...'
p359
sa(dp360
g2
S'http://www.reuters.com/article/pressRelease/idUS23649+03-Dec-2007+BW20071203'
p361
sg4
S'20071202\xc2\xa009:00 PM EST'
p362
sg6
S"Research and Markets: Examine Crescent Point Energy Trust's Key Business Structure..."
p363
sa(dp364
g2
S'http://www.reuters.com/article/pressRelease/idUS23645+03-Dec-2007+BW20071203'
p365
sg4
S'20071202\xc2\xa009:00 PM EST'
p366
sg6
S'New Japan Leasing 2007 Report Offers Detailed Insight Into Leasing Across a Varied...'
p367
sa(dp368
g2
S'http://www.reuters.com/article/pressRelease/idUS23642+03-Dec-2007+BW20071203'
p369
sg4
S'20071202\xc2\xa009:00 PM EST'
p370
sg6
S'Research and Markets: New Company Profile on ChinaPay Now Available'
p371
sa(dp372
g2
S'http://www.reuters.com/article/pressRelease/idUS23641+03-Dec-2007+BW20071203'
p373
sg4
S'20071202\xc2\xa009:00 PM EST'
p374
sg6
S'Research and Markets: Technip Strategic Analysis Profile Contains Essential Information...'
p375
sa(dp376
g2
S'http://www.reuters.com/article/pressRelease/idUS23660+03-Dec-2007+BW20071203'
p377
sg4
S'20071202\xc2\xa009:00 PM EST'
p378
sg6
S'Samsung and Toshiba to Share Specifications for Premium NAND Flash Memory to Increase...'
p379
sa(dp380
g2
S'http://www.reuters.com/article/pressRelease/idUS23659+03-Dec-2007+BW20071203'
p381
sg4
S'20071202\xc2\xa009:00 PM EST'
p382
sg6
S'Research and Markets: New Ramunia Holdings Berhad Deals and Alliances Profile Provides...'
p383
sa(dp384
g2
S'http://www.reuters.com/article/newsOne/idUSN2753038820071203'
p385
sg4
S'20071202\xc2\xa008:55 PM EST'
p386
sg6
S'FACTBOX-Central American migrants in Costa Rica'
p387
sa(dp388
g2
S'http://www.reuters.com/article/rbssIndustryMaterialsUtilitiesNews/idUSSYD704720071203'
p389
sg4
S'20071202\xc2\xa008:54 PM EST'
p390
sg6
S'Zinc heading for supply surplus in 2008 - UBS'
p391
sa(dp392
g2
S'http://www.reuters.com/article/economicNews/idUSN0233215920071203'
p393
sg4
S'20071202\xc2\xa008:52 PM EST'
p394
sg6
S'U.S. shoppers awaiting discounts late in month -survey'
p395
sa(dp396
g2
S'http://www.reuters.com/article/rbssConsumerGoodsAndRetailNews/idUSSHA6634120071203'
p397
sg4
S'20071202\xc2\xa008:48 PM EST'
p398
sg6
S"China's Foton scraps Daimler deal, says JV possible"
p399
sa(dp400
g2
S'http://www.reuters.com/article/companyNewsAndPR/idUSTKB00289020071203'
p401
sg4
S'20071202\xc2\xa008:43 PM EST'
p402
sg6
S"BOJ's Fukui says U.S. economy could slow more"
p403
sa(dp404
g2
S'http://www.reuters.com/article/inDepthNews/idUSL2825550120071203'
p405
sg4
S'20071202\xc2\xa008:41 PM EST'
p406
sg6
S'Naples "miracle chair" draws childless couples'
p407
sa(dp408
g2
S'http://www.reuters.com/article/hongkongMktRpt/idUSHKG35973020071203'
p409
sg4
S'20071202\xc2\xa008:38 PM EST'
p410
sg6
S'HK stocks set to rise, properties eyed on rate hopes'
p411
sa(dp412
g2
S'http://www.reuters.com/article/companyNewsAndPR/idUST33588620071203'
p413
sg4
S'20071202\xc2\xa008:38 PM EST'
p414
sg6
S'UPDATE 1-Japanese steelmakers to boost output by 7 pct-paper'
p415
sa(dp416
g2
S'http://www.reuters.com/article/rbssEnergyNews/idUSSEO33290420071203'
p417
sg4
S'20071202\xc2\xa008:34 PM EST'
p418
sg6
S'UPDATE 1-Samsung Eng wins $430 mln order from Saudi Aramco'
p419
sa(dp420
g2
S'http://www.reuters.com/article/pressRelease/idUS20617+03-Dec-2007+PRN20071203'
p421
sg4
S'20071202\xc2\xa008:30 PM EST'
p422
sg6
S'Following Is a Test Release'
p423
sa(dp424
g2
S'http://www.reuters.com/article/pressRelease/idUS20608+03-Dec-2007+PRN20071203'
p425
sg4
S'20071202\xc2\xa008:30 PM EST'
p426
sg6
S'Venture Capital Investment in India Skyrockets in First Nine Months of 2007, Reaching...'
p427
sa(dp428
g2
S'http://www.reuters.com/article/rbssConsumerGoodsAndRetailNews/idUSHKG33839020071203'
p429
sg4
S'20071202\xc2\xa008:24 PM EST'
p430
sg6
S"HK's Tianjin Development shares suspended-HKex"
p431
sa(dp432
g2
S'http://www.reuters.com/article/latestCrisis/idUSSYD28709'
p433
sg4
S'20071202\xc2\xa008:16 PM EST'
p434
sg6
S"Australia's Rudd sworn in as PM, vows to sign Kyoto"
p435
sa(dp436
g2
S'http://www.reuters.com/article/bondsNews/idUST8923920071203'
p437
sg4
S'20071202\xc2\xa008:16 PM EST'
p438
sg6
S'JGBs edge up but capped before 10-year auction'
p439
sa(dp440
g2
S'http://www.reuters.com/article/rbssIndustryMaterialsUtilitiesNews/idUSJAK399920071203'
p441
sg4
S'20071202\xc2\xa008:15 PM EST'
p442
sg6
S'PRESS DIGEST-Indonesian Business News - Dec 3'
p443
sa(dp444
g2
S'http://www.reuters.com/article/rbssIndustryMaterialsUtilitiesNews/idUSSEL00023020071203'
p445
sg4
S'20071202\xc2\xa008:12 PM EST'
p446
sg6
S'Hyundai Heavy wins $738 mln Singapore ship order'
p447
sa(dp448
g2
S'http://www.reuters.com/article/rbssFinancialServicesAndRealEstateNews/idUSSP3295520071203'
p449
sg4
S'20071202\xc2\xa008:10 PM EST'
p450
sg6
S'RPT-PREVIEW-Thai Q3 economic growth seen steady vs Q2'
p451
sa(dp452
g2
S'http://www.reuters.com/article/pressRelease/idUS18585+03-Dec-2007+BW20071203'
p453
sg4
S'20071202\xc2\xa008:10 PM EST'
p454
sg6
S'Federal Lawsuit against JAKKS Pacific(R) by WWE to Be Dismissed'
p455
sa(dp456
g2
S'http://www.reuters.com/article/companyNewsAndPR/idUST33593520071203'
p457
sg4
S'20071202\xc2\xa008:09 PM EST'
p458
sg6
S'RPT-Japanese steelmakers to boost output by 7 pct-paper'
p459
sa(dp460
g2
S'http://www.reuters.com/article/businessNews/idUSN0264797720071203'
p461
sg4
S'20071202\xc2\xa008:05 PM EST'
p462
sg6
S"New pact could shake up airlines: Barron's"
p463
sa(dp464
g2
S'http://www.reuters.com/article/rbssIndustryMaterialsUtilitiesNews/idUSHKG33439320071203'
p465
sg4
S'20071202\xc2\xa008:02 PM EST'
p466
sg6
S'PRESS DIGEST-Taiwan - Dec 3'
p467
sa(dp468
g2
S'http://www.reuters.com/article/summitNews/idUSN0223489120071203'
p469
sg4
S'20071202\xc2\xa008:02 PM EST'
p470
sg6
S'FACTBOX-U.S. airlines at a glance'
p471
sa(dp472
g2
S'http://www.reuters.com/article/pressRelease/idUS17478+03-Dec-2007+BW20071203'
p473
sg4
S'20071202\xc2\xa008:02 PM EST'
p474
sg6
S'Learn About the New Zealand Feminine Care Market All the Way to 2011 With This Insightful...'
p475
sa(dp476
g2
S'http://www.reuters.com/article/pressRelease/idUS17151+03-Dec-2007+PRN20071203'
p477
sg4
S'20071202\xc2\xa008:00 PM EST'
p478
sg6
S'Following Is a Test Release'
p479
sa(dp480
g2
S'http://www.reuters.com/article/pressRelease/idUS17125+03-Dec-2007+BW20071203'
p481
sg4
S'20071202\xc2\xa008:00 PM EST'
p482
sg6
S'Final Top 25 Team Rankings of the Harris Interactive College Football Poll'
p483
sa(dp484
g2
S'http://www.reuters.com/article/pressRelease/idUS17123+03-Dec-2007+BW20071203'
p485
sg4
S'20071202\xc2\xa008:00 PM EST'
p486
sg6
S'GE Energy Investing $50 Million to Double Steam Turbine and Generator Manufacturing...'
p487
sa(dp488
g2
S'http://www.reuters.com/article/pressRelease/idUS17121+03-Dec-2007+BW20071203'
p489
sg4
S'20071202\xc2\xa008:00 PM EST'
p490
sg6
S'Innovation Brings Growth in the Away-from-Home Disposable Paper Products Market in...'
p491
sa(dp492
g2
S'http://www.reuters.com/article/tokyoMktRpt/idUST35975620071203'
p493
sg4
S'20071202\xc2\xa007:59 PM EST'
p494
sg6
S'Japan stocks edge up as steel, banking solid'
p495
sa(dp496
g2
S'http://www.reuters.com/article/rbssFinancialServicesAndRealEstateNews/idUSSEO35265120071203'
p497
sg4
S'20071202\xc2\xa007:50 PM EST'
p498
sg6
S'Seoul shares slip on techs, hanarotelecom'
p499
sa(dp500
g2
S'http://www.reuters.com/article/businessNews/idUSKLR336420071203'
p501
sg4
S'20071202\xc2\xa007:50 PM EST'
p502
sg6
S'Developers plan $2.7 billion Malaysia project'
p503
sa(dp504
g2
S'http://www.reuters.com/article/businessNews/idUSHKG36820820071203'
p505
sg4
S'20071202\xc2\xa007:48 PM EST'
p506
sg6
S'Asian markets mostly higher as banks rise'
p507
sa(dp508
g2
S'http://www.reuters.com/article/sportsNews/idUSB24870820071203'
p509
sg4
S'20071202\xc2\xa007:44 PM EST'
p510
sg6
S'Goetschl rethinking future after fast start'
p511
sa(dp512
g2
S'http://www.reuters.com/article/rbssTechMediaTelecomNews/idUSMAN29490620071203'
p513
sg4
S'20071202\xc2\xa007:42 PM EST'
p514
sg6
S'PRESS DIGEST - Philippine newspapers - Dec 3'
p515
sa(dp516
g2
S'http://www.reuters.com/article/companyNewsAndPR/idUSWEN276720071203'
p517
sg4
S'20071202\xc2\xa007:39 PM EST'
p518
sg6
S'Dresser-Rand says employees returning to work'
p519
sa(dp520
g2
S'http://www.reuters.com/article/rbssEnergyNews/idUSSEL00022920071203'
p521
sg4
S'20071202\xc2\xa007:39 PM EST'
p522
sg6
S'Samsung Eng wins $430 mln order from Saudi Aramco'
p523
sa(dp524
g2
S'http://www.reuters.com/article/rbssIndustryMaterialsUtilitiesNews/idUSKLR23970320071203'
p525
sg4
S'20071202\xc2\xa007:34 PM EST'
p526
sg6
S'PRESS DIGEST - Malaysia - Dec 3'
p527
sa(dp528
g2
S'http://www.reuters.com/article/politicsNews/idUSN0233724220071203'
p529
sg4
S'20071202\xc2\xa007:33 PM EST'
p530
sg6
S'Romney to give speech on his Mormon faith'
p531
sa(dp532
g2
S'http://www.reuters.com/article/pressRelease/idUS13615+03-Dec-2007+PRN20071203'
p533
sg4
S'20071202\xc2\xa007:30 PM EST'
p534
sg6
S'Following Is a Test Release'
p535
sa(dp536
g2
S'http://www.reuters.com/article/rbssIndustryMaterialsUtilitiesNews/idUSKLR3083420071203'
p537
sg4
S'20071202\xc2\xa007:29 PM EST'
p538
sg6
S'MARKETS-MALAYSIA-STOCKS/ =2 KUALA LUMPUR'
p539
sa(dp540
g2
S'http://www.reuters.com/article/mergersNews/idUSWEN276620071203'
p541
sg4
S'20071202\xc2\xa007:28 PM EST'
p542
sg6
S'Eagle Bancorp and Fidelity & Trust merge community banks'
p543
sa(dp544
g2
S'http://www.reuters.com/article/pressRelease/idUS13488+03-Dec-2007+PRN20071203'
p545
sg4
S'20071202\xc2\xa007:28 PM EST'
p546
sg6
S'Teamsters, UAL Mechanics to Announce Milestone in Organizing Campaign'
p547
sa(dp548
g2
S'http://www.reuters.com/article/worldNews/idUSL0253943220071203'
p549
sg4
S'20071202\xc2\xa007:24 PM EST'
p550
sg6
S"TABLE-Putin's party wins 62.9% with half of vote counted"
p551
sa(dp552
g2
S'http://www.reuters.com/article/latestCrisis/idUSSP30888'
p553
sg4
S'20071202\xc2\xa007:24 PM EST'
p554
sg6
S'PRESS DIGEST - Singapore newspapers - Dec 3'
p555
sa(dp556
g2
S'http://www.reuters.com/article/rbssTechMediaTelecomNews/idUSSP3088820071203'
p557
sg4
S'20071202\xc2\xa007:24 PM EST'
p558
sg6
S'PRESS DIGEST - Singapore newspapers - Dec 3'
p559
sa(dp560
g2
S'http://www.reuters.com/article/rbssConsumerGoodsAndRetailNews/idUSKLR32595220071203'
p561
sg4
S'20071202\xc2\xa007:18 PM EST'
p562
sg6
S'Malaysia Hot Stocks - Factors to watch'
p563
sa(dp564
g2
S'http://www.reuters.com/article/rbssIndustryMaterialsUtilitiesNews/idUST33567420071203'
p565
sg4
S'20071202\xc2\xa007:17 PM EST'
p566
sg6
S'Yangtze Powers to buy stake in power producer'
p567
sa(dp568
g2
S'http://www.reuters.com/article/rbssFinancialServicesAndRealEstateNews/idUSSEO34622520071203'
p569
sg4
S'20071202\xc2\xa007:10 PM EST'
p570
sg6
S'Seoul shares opens flat;SK Tel up but techs fall'
p571
sa(dp572
g2
S'http://www.reuters.com/article/tokyoMktRpt/idUSTKF00289120071203'
p573
sg4
S'20071202\xc2\xa007:08 PM EST'
p574
sg6
S'Japan stocks edge higher, buoyed by exporters'
p575
sa(dp576
g2
S'http://www.reuters.com/article/pressRelease/idUS10821+03-Dec-2007+PRN20071203'
p577
sg4
S'20071202\xc2\xa007:07 PM EST'
p578
sg6
S"Dresser-Rand's Bargaining Unit Employees Are Returning to Work at Painted Post"
p579
sa(dp580
g2
S'http://www.reuters.com/article/latestCrisis/idUSL30559892'
p581
sg4
S'20071202\xc2\xa007:01 PM EST'
p582
sg6
S'UK troop cut in Iraq could hit mission-report'
p583
sa(dp584
g2
S'http://www.reuters.com/article/rbssFinancialServicesAndRealEstateNews/idUSL3087234120071203'
p585
sg4
S'20071202\xc2\xa007:01 PM EST'
p586
sg6
S"UK pension schemes' deficits close in Nov - Aon"
p587
sa(dp588
g2
S'http://www.reuters.com/article/pressRelease/idUS10063+03-Dec-2007+PRN20071203'
p589
sg4
S'20071202\xc2\xa007:00 PM EST'
p590
sg6
S'Following Is a Test Release'
p591
sa(dp592
g2
S'http://www.reuters.com/article/pressRelease/idUS10020+03-Dec-2007+BW20071203'
p593
sg4
S'20071202\xc2\xa007:00 PM EST'
p594
sg6
S'LexisNexis Names Doug Kaplan CEO for Asia Pacific Region'
p595
sa(dp596
g2
S'http://www.reuters.com/article/pressRelease/idUS10012+03-Dec-2007+BW20071203'
p597
sg4
S'20071202\xc2\xa007:00 PM EST'
p598
sg6
S'Research and Markets: Ethernet & SONET: A Marriage Made Heaven'
p599
sa(dp600
g2
S'http://www.reuters.com/article/globalMarketsNews/idUSN0233385420071202'
p601
sg4
S'20071202\xc2\xa006:56 PM EST'
p602
sg6
S"McMoRan shares could touch $18 -Barron's"
p603
sa(dp604
g2
S'http://www.reuters.com/article/companyNewsAndPR/idUST33593520071202'
p605
sg4
S'20071202\xc2\xa006:53 PM EST'
p606
sg6
S'Japanese steelmakers to boost output by 7 pct-paper'
p607
sa(dp608
g2
S'http://www.reuters.com/article/pressRelease/idUS88218+02-Dec-2007+PRN20071202'
p609
sg4
S'20071202\xc2\xa006:49 PM EST'
p610
sg6
S'Eagle Bancorp, Inc. and Fidelity & Trust Financial Corporation Sign Definitive Merger...'
p611
sa(dp612
g2
S'http://www.reuters.com/article/oilRpt/idUSL0241402720071202'
p613
sg4
S'20071202\xc2\xa006:47 PM EST'
p614
sg6
S'Clinton doubts benefits of reviving Doha round-FT'
p615
sa(dp616
g2
S'http://www.reuters.com/article/companyNewsAndPR/idUST36641620071202'
p617
sg4
S'20071202\xc2\xa006:45 PM EST'
p618
sg6
S'Foreign brokers place net Japan stock sell orders'
p619
sa(dp620
g2
S'http://www.reuters.com/article/globalMarketsNews/idUSN0232700420071202'
p621
sg4
S'20071202\xc2\xa006:43 PM EST'
p622
sg6
S"Walter Industries stock still has upside -Barron's"
p623
sa(dp624
g2
S'http://www.reuters.com/article/worldNews/idUSN0235721220071202'
p625
sg4
S'20071202\xc2\xa006:34 PM EST'
p626
sg6
S'Chavez wins Venezuela vote: sources'
p627
sa(dp628
g2
S'http://www.reuters.com/article/bondsNews/idUST36079620071202'
p629
sg4
S'20071202\xc2\xa006:33 PM EST'
p630
sg6
S'RPT-JGBs rise on Treasuries as US growth seen slowing'
p631
sa(dp632
g2
S'http://www.reuters.com/article/economicNews/idUSTKF00289020071202'
p633
sg4
S'20071202\xc2\xa006:30 PM EST'
p634
sg6
S'Japan business mood mixed, services hit-Reuters Tankan'
p635
sa(dp636
g2
S'http://www.reuters.com/article/pressRelease/idUS85991+02-Dec-2007+PRN20071202'
p637
sg4
S'20071202\xc2\xa006:30 PM EST'
p638
sg6
S'Following Is a Test Release'
p639
sa(dp640
g2
S'http://www.reuters.com/article/mediaNews/idUSN0235941620071202'
p641
sg4
S'20071202\xc2\xa006:28 PM EST'
p642
sg6
S'UPDATE 7-Chavez wins Venezuela vote -government sources'
p643
sa(dp644
g2
S'http://www.reuters.com/article/tokyoMktRpt/idUST2423120071202'
p645
sg4
S'20071202\xc2\xa006:27 PM EST'
p646
sg6
S'Japan stocks to edge up, but rise likely limited'
p647
sa(dp648
g2
S'http://www.reuters.com/article/rbssIndustryMaterialsUtilitiesNews/idUSSYD2750320071202'
p649
sg4
S'20071202\xc2\xa006:25 PM EST'
p650
sg6
S'UPDATE 1-Oxiana says to expand Sepon copper operation'
p651
sa(dp652
g2
S'http://www.reuters.com/article/pressRelease/idUS85596+02-Dec-2007+BW20071202'
p653
sg4
S'20071202\xc2\xa006:24 PM EST'
p654
sg6
S'NYSE Euronext Announces Official Grand Opening of Office in Beijing, China'
p655
sa(dp656
g2
S'http://www.reuters.com/article/companyNewsAndPR/idUSN0237306120071202'
p657
sg4
S'20071202\xc2\xa006:23 PM EST'
p658
sg6
S'UPDATE 2-Marathon says Minn. refinery worker found dead'
p659
sa(dp660
g2
S'http://www.reuters.com/article/topNews/idUSL0222770220071202'
p661
sg4
S'20071202\xc2\xa006:22 PM EST'
p662
sg6
S'Olmert plays down peace deal chances by end of 2008'
p663
sa(dp664
g2
S'http://www.reuters.com/article/newsOne/idUSL0246524920071202'
p665
sg4
S'20071202\xc2\xa006:22 PM EST'
p666
sg6
S'Israel to begin releasing Palestinian prisoners'
p667
sa(dp668
g2
S'http://www.reuters.com/article/rbssFinancialServicesAndRealEstateNews/idUSSEO33527120071202'
p669
sg4
S'20071202\xc2\xa006:21 PM EST'
p670
sg6
S'RPT-Seoul shares seen mixed; techs could fall'
p671
sa(dp672
g2
S'http://www.reuters.com/article/worldNews/idUSWEL2821320071202'
p673
sg4
S'20071202\xc2\xa006:20 PM EST'
p674
sg6
S'Rare war medals stolen from NZ museum'
p675
sa(dp676
g2
S'http://www.reuters.com/article/latestCrisis/idUSL02465249'
p677
sg4
S'20071202\xc2\xa006:15 PM EST'
p678
sg6
S'Israel to begin releasing Palestinian prisoners'
p679
sa(dp680
g2
S'http://www.reuters.com/article/healthNews/idUSPEK35019620071202'
p681
sg4
S'20071202\xc2\xa006:15 PM EST'
p682
sg6
S'Chinese man reportedly dies of bird flu'
p683
sa(dp684
g2
S'http://www.reuters.com/article/rbssFinancialServicesAndRealEstateNews/idUSSEO33677420071202'
p685
sg4
S'20071202\xc2\xa006:15 PM EST'
p686
sg6
S'Seoul shares seen mixed; techs could fall'
p687
sa(dp688
g2
S'http://www.reuters.com/article/latestCrisis/idUSPEK350196'
p689
sg4
S'20071202\xc2\xa006:12 PM EST'
p690
sg6
S'Chinese man dies of bird flu -Xinhua'
p691
sa(dp692
g2
S'http://www.reuters.com/article/ousiv/idUSSEO33862920071202'
p693
sg4
S'20071202\xc2\xa006:11 PM EST'
p694
sg6
S'SK Telecom to buy hanaro stake'
p695
sa(dp696
g2
S'http://www.reuters.com/article/rbssIndustryMaterialsUtilitiesNews/idUST34760520071202'
p697
sg4
S'20071202\xc2\xa006:04 PM EST'
p698
sg6
S'PRESS DIGEST - Japan - Dec 3'
p699
sa(dp700
g2
S'http://www.reuters.com/article/newsOne/idUSL3027999020071202'
p701
sg4
S'20071202\xc2\xa006:01 PM EST'
p702
sg6
S'Putin wins majority in election'
p703
sa(dp704
g2
S'http://www.reuters.com/article/pressRelease/idUS83651+02-Dec-2007+PRN20071202'
p705
sg4
S'20071202\xc2\xa006:00 PM EST'
p706
sg6
S'Following Is a Test Release'
p707
sa(dp708
g2
S'http://www.reuters.com/article/pressRelease/idUS83619+02-Dec-2007+PRN20071202'
p709
sg4
S'20071202\xc2\xa006:00 PM EST'
p710
sg6
S'ATX, Mercedes-Benz to Seek Separate Paths into Telematics Future'
p711
sa(dp712
g2
S'http://www.reuters.com/article/pressRelease/idUS83595+02-Dec-2007+BW20071202'
p713
sg4
S'20071202\xc2\xa006:00 PM EST'
p714
sg6
S'New Australia Anesthesia and Respiratory Devices Medical Equipment Market Report...'
p715
sa(dp716
g2
S'http://www.reuters.com/article/televisionNews/idUSN3031650320071202'
p717
sg4
S'20071202\xc2\xa005:56 PM EST'
p718
sg6
S'Show seeks to love match migrants and U.S. citizens'
p719
sa(dp720
g2
S'http://www.reuters.com/article/televisionNews/idUSN3026445620071202'
p721
sg4
S'20071202\xc2\xa005:56 PM EST'
p722
sg6
S'ABC Family asks series to the "Prom"'
p723
sa(dp724
g2
S'http://www.reuters.com/article/televisionNews/idUSN3025573520071202'
p725
sg4
S'20071202\xc2\xa005:56 PM EST'
p726
sg6
S'Berkley and Bravo in mambo combo'
p727
sa(dp728
g2
S'http://www.reuters.com/article/televisionNews/idUSN2925758920071202'
p729
sg4
S'20071202\xc2\xa005:56 PM EST'
p730
sg6
S'NBC goes further off script as strike drags on'
p731
sa(dp732
g2
S'http://www.reuters.com/article/televisionNews/idUSN2925624320071202'
p733
sg4
S'20071202\xc2\xa005:56 PM EST'
p734
sg6
S'Screenwriters disparage new studio offer'
p735
sa(dp736
g2
S'http://www.reuters.com/article/televisionNews/idUSN2921788420071202'
p737
sg4
S'20071202\xc2\xa005:56 PM EST'
p738
sg6
S'ABC reaches contract deal with news writers'
p739
sa(dp740
g2
S'http://www.reuters.com/article/televisionNews/idUSN0253403820071202'
p741
sg4
S'20071202\xc2\xa005:56 PM EST'
p742
sg6
S'TV critics confab may fall victim to strike'
p743
sa(dp744
g2
S'http://www.reuters.com/article/televisionNews/idUSELK15164220071202'
p745
sg4
S'20071202\xc2\xa005:56 PM EST'
p746
sg6
S'"Tin Man" a bizarre update of "Wizard of Oz"'
p747
sa(dp748
g2
S'http://www.reuters.com/article/televisionNews/idUSDEL830620071202'
p749
sg4
S'20071202\xc2\xa005:56 PM EST'
p750
sg6
S'Footprints seen around Mt.Everest stoke Yeti mystery'
p751
sa(dp752
g2
S'http://www.reuters.com/article/rbssIndustryMaterialsUtilitiesNews/idUSSYU00358320071202'
p753
sg4
S'20071202\xc2\xa005:55 PM EST'
p754
sg6
S'Oxiana says to expand Sepon copper operation'
p755
sa(dp756
g2
S'http://www.reuters.com/article/domesticNews/idUSL0247331720071202'
p757
sg4
S'20071202\xc2\xa005:53 PM EST'
p758
sg6
S'Manning fires Colts by Jaguars, Redskins have emotional loss'
p759
sa(dp760
g2
S'http://www.reuters.com/article/sportsNews/idUSL0240964420071202'
p761
sg4
S'20071202\xc2\xa005:49 PM EST'
p762
sg6
S'Albrecht wins second race in Colorado'
p763
sa(dp764
g2
S'http://www.reuters.com/article/topNews/idUSN0232907520071202'
p765
sg4
S'20071202\xc2\xa005:46 PM EST'
p766
sg6
S'No AIDS estimate available yet:  CDC'
p767
sa(dp768
g2
S'http://www.reuters.com/article/domesticNews/idUSN3031715420071202'
p769
sg4
S'20071202\xc2\xa005:45 PM EST'
p770
sg6
S'Russia gain consolation point with Andreev victory'
p771
sa(dp772
g2
S'http://www.reuters.com/article/pressRelease/idUS82373+02-Dec-2007+PRN20071202'
p773
sg4
S'20071202\xc2\xa005:44 PM EST'
p774
sg6
S'CIBER Opens New Office in Chennai, India'
p775
sa(dp776
g2
S'http://www.reuters.com/article/worldNews/idUSL0214919220071202'
p777
sg4
S'20071202\xc2\xa005:41 PM EST'
p778
sg6
S'New blast at Ukraine mine: 4 dead, 1 missing'
p779
sa(dp780
g2
S'http://www.reuters.com/article/businessNews/idUSN0237274420071202'
p781
sg4
S'20071202\xc2\xa005:39 PM EST'
p782
sg6
S'Dell to form venture with WPP to handle ads'
p783
sa(dp784
g2
S'http://www.reuters.com/article/pressRelease/idUS81449+02-Dec-2007+PRN20071202'
p785
sg4
S'20071202\xc2\xa005:30 PM EST'
p786
sg6
S'Following Is a Test Release'
p787
sa(dp788
g2
S'http://www.reuters.com/article/latestCrisis/idUSL02149192'
p789
sg4
S'20071202\xc2\xa005:24 PM EST'
p790
sg6
S'New blast at Ukraine mine: 4 dead, 1 missing'
p791
sa(dp792
g2
S'http://www.reuters.com/article/privateEquity/idUSSEL00022820071202'
p793
sg4
S'20071202\xc2\xa005:23 PM EST'
p794
sg6
S'S.Korea SK Telecom to buy hanaro stake for $1.2 bln'
p795
sa(dp796
g2
S'http://www.reuters.com/article/mergersNews/idUSN0232402420071202'
p797
sg4
S'20071202\xc2\xa005:22 PM EST'
p798
sg6
S'RPT-IPO VIEW-Venture capital firms behind cream of IPO crop'
p799
sa(dp800
g2
S'http://www.reuters.com/article/musicNews/idUSN3032752020071202'
p801
sg4
S'20071202\xc2\xa005:15 PM EST'
p802
sg6
S'Groban in good position to maintain chart crown'
p803
sa(dp804
g2
S'http://www.reuters.com/article/musicNews/idUSN3032751020071202'
p805
sg4
S'20071202\xc2\xa005:15 PM EST'
p806
sg6
S'New chapter (and verse) for Nashville musician Mote'
p807
sa(dp808
g2
S'http://www.reuters.com/article/musicNews/idUSN3032749720071202'
p809
sg4
S'20071202\xc2\xa005:15 PM EST'
p810
sg6
S'Cover singer Yuridia begins using her own words'
p811
sa(dp812
g2
S'http://www.reuters.com/article/musicNews/idUSN3032749220071202'
p813
sg4
S'20071202\xc2\xa005:15 PM EST'
p814
sg6
S'"Never" is here and now for R&B; artist Jaheim'
p815
sa(dp816
g2
S'http://www.reuters.com/article/musicNews/idUSN0132744620071202'
p817
sg4
S'20071202\xc2\xa005:15 PM EST'
p818
sg6
S'Rolling Stone lends its name to CD compilations'
p819
sa(dp820
g2
S'http://www.reuters.com/article/musicNews/idUSN0132742320071202'
p821
sg4
S'20071202\xc2\xa005:15 PM EST'
p822
sg6
S'Bleak Friday begins holiday season for music retailers'
p823
sa(dp824
g2
S'http://www.reuters.com/article/musicNews/idUSL3028764120071202'
p825
sg4
S'20071202\xc2\xa005:15 PM EST'
p826
sg6
S'Spice Girls prepare to kick off world tour'
p827
sa(dp828
g2
S'http://www.reuters.com/article/topNews/idUSN0236253220071202'
p829
sg4
S'20071202\xc2\xa005:14 PM EST'
p830
sg6
S'Tom Petty to play Super Bowl halftime show'
p831
sa(dp832
g2
S'http://www.reuters.com/article/latestCrisis/idUSN02329075'
p833
sg4
S'20071202\xc2\xa005:03 PM EST'
p834
sg6
S'No AIDS estimate available yet, US CDC says'
p835
sa(dp836
g2
S'http://www.reuters.com/article/pressRelease/idUS79508+02-Dec-2007+PRN20071202'
p837
sg4
S'20071202\xc2\xa005:00 PM EST'
p838
sg6
S'Following Is a Test Release'
p839
sa(dp840
g2
S'http://www.reuters.com/article/pressRelease/idUS79503+02-Dec-2007+PRN20071202'
p841
sg4
S'20071202\xc2\xa005:00 PM EST'
p842
sg6
S'The Essential Leon Fleisher Highlights Classic Recordings of the Great American Pianist...'
p843
sa(dp844
g2
S'http://www.reuters.com/article/businessNews/idUSN0232686620071202'
p845
sg4
S'20071202\xc2\xa004:59 PM EST'
p846
sg6
S'FedEx chief sees U.S. slowdown, not steep decline'
p847
sa(dp848
g2
S'http://www.reuters.com/article/pressRelease/idUS79279+02-Dec-2007+BW20071202'
p849
sg4
S'20071202\xc2\xa004:56 PM EST'
p850
sg6
S'Guest List for the White House Reception for the Kennedy Center Honors Hosted by...'
p851
sa(dp852
g2
S'http://www.reuters.com/article/worldNews/idUSL30788090720071202'
p853
sg4
S'20071202\xc2\xa004:54 PM EST'
p854
sg6
S'Hamas militant killed in Gaza shelling: medics'
p855
sa(dp856
g2
S'http://www.reuters.com/article/domesticNews/idUSB23277020071202'
p857
sg4
S'20071202\xc2\xa004:52 PM EST'
p858
sg6
S'Schild gets super-G win in Lake Louise'
p859
sa(dp860
g2
S'http://www.reuters.com/article/latestCrisis/idUSL02472639'
p861
sg4
S'20071202\xc2\xa004:48 PM EST'
p862
sg6
S'New blast at Ukraine mine: 4 dead, 1 missing'
p863
sa(dp864
g2
S'http://www.reuters.com/article/topNews/idUSN0244421720071202'
p865
sg4
S'20071202\xc2\xa004:39 PM EST'
p866
sg6
S'Obama, Huckabee lead 2008 race in Iowa: poll'
p867
sa(dp868
g2
S'http://www.reuters.com/article/politicsNews/idUSN0232649620071202'
p869
sg4
S'20071202\xc2\xa004:36 PM EST'
p870
sg6
S"Congress' terror insurance fight in final rounds"
p871
sa(dp872
g2
S'http://www.reuters.com/article/pressRelease/idUS77329+02-Dec-2007+PRN20071202'
p873
sg4
S'20071202\xc2\xa004:30 PM EST'
p874
sg6
S'Following Is a Test Release'
p875
sa(dp876
g2
S'http://www.reuters.com/article/worldNews/idUSN0237283320071202'
p877
sg4
S'20071202\xc2\xa004:18 PM EST'
p878
sg6
S"Gov't-linked sources say Chavez leads in vote"
p879
sa(dp880
g2
S'http://www.reuters.com/article/fundsFundsNews/idUSL0243628120071202'
p881
sg4
S'20071202\xc2\xa004:17 PM EST'
p882
sg6
S'UK property magnate Tchenguiz gets $1.6 bln funding'
p883
sa(dp884
g2
S'http://www.reuters.com/article/companyNewsAndPR/idUSL0247237220071202'
p885
sg4
S'20071202\xc2\xa004:17 PM EST'
p886
sg6
S'Blast kills one at VSMPO Russian plant - Ifax'
p887
sa(dp888
g2
S'http://www.reuters.com/article/latestCrisis/idUSL02472372'
p889
sg4
S'20071202\xc2\xa004:17 PM EST'
p890
sg6
S'Blast kills one at VSMPO Russian plant - Ifax'
p891
sa(dp892
g2
S'http://www.reuters.com/article/sportsNews/idUSN0231933820071202'
p893
sg4
S'20071202\xc2\xa004:16 PM EST'
p894
sg6
S'Bob Bryan, Andreev late changes for Davis Cup singles'
p895
sa(dp896
g2
S'http://www.reuters.com/article/worldNews/idUSL0247267020071202'
p897
sg4
S'20071202\xc2\xa004:08 PM EST'
p898
sg6
S'Russia election chief dismisses fraud accusations'
p899
sa(dp900
g2
S'http://www.reuters.com/article/pressRelease/idUS75706+02-Dec-2007+PRN20071202'
p901
sg4
S'20071202\xc2\xa004:07 PM EST'
p902
sg6
S'32nd Annual Hutch Holiday Gala Raises Millions for Cancer Research'
p903
sa(dp904
g2
S'http://www.reuters.com/article/companyNewsAndPR/idUSN0133015620071202'
p905
sg4
S'20071202\xc2\xa004:06 PM EST'
p906
sg6
S"RPT--Congress' terror insurance fight in final rounds"
p907
sa(dp908
g2
S'http://www.reuters.com/article/newsMaps/idUSL0246834420071202'
p909
sg4
S'20071202\xc2\xa004:02 PM EST'
p910
sg6
S'Lebanon leaders back army chief for presidency'
p911
sa(dp912
g2
S'http://www.reuters.com/article/pressRelease/idUS75322+02-Dec-2007+PRN20071202'
p913
sg4
S'20071202\xc2\xa004:00 PM EST'
p914
sg6
S'Following Is a Test Release'
p915
sa(dp916
g2
S'http://www.reuters.com/article/sportsNews/idUSL0247141520071202'
p917
sg4
S'20071202\xc2\xa003:58 PM EST'
p918
sg6
S'Albrecht wins World Cup giant slalom'
p919
sa(dp920
g2
S'http://www.reuters.com/article/environmentNews/idUSL012325320071202'
p921
sg4
S'20071202\xc2\xa003:54 PM EST'
p922
sg6
S'Germany shows contradictions on climate change'
p923
sa(dp924
g2
S'http://www.reuters.com/article/environmentNews/idUSL0116778420071202'
p925
sg4
S'20071202\xc2\xa003:54 PM EST'
p926
sg6
S'Siemens sees wind business up 30 percent this year: report'
p927
sa(dp928
g2
S'http://www.reuters.com/article/environmentNews/idUSDHA2273220071202'
p929
sg4
S'20071202\xc2\xa003:54 PM EST'
p930
sg6
S'Bangladesh says needs aid to adapt to warmer world'
p931
sa(dp932
g2
S'http://www.reuters.com/article/environmentNews/idUSDEL18090120071202'
p933
sg4
S'20071202\xc2\xa003:54 PM EST'
p934
sg6
S'India to tell West to shoulder climate change burden'
p935
sa(dp936
g2
S'http://www.reuters.com/article/environmentNews/idUSN3030846120071202'
p937
sg4
S'20071202\xc2\xa003:54 PM EST'
p938
sg6
S'U.S. and EU propose trade plan to counter climate change'
p939
sa(dp940
g2
S'http://www.reuters.com/article/environmentNews/idUSN3030345520071202'
p941
sg4
S'20071202\xc2\xa003:54 PM EST'
p942
sg6
S'Expanding tropics could spur storms: study'
p943
sa(dp944
g2
S'http://www.reuters.com/article/environmentNews/idUSSP33153420071202'
p945
sg4
S'20071202\xc2\xa003:54 PM EST'
p946
sg6
S'China wary on international climate goals'
p947
sa(dp948
g2
S'http://www.reuters.com/article/environmentNews/idUSL0228625020071202'
p949
sg4
S'20071202\xc2\xa003:54 PM EST'
p950
sg6
S'Devout Cypriots pray for rain to end drought'
p951
sa(dp952
g2
S'http://www.reuters.com/article/topNews/idUSSP26402220071202'
p953
sg4
S'20071202\xc2\xa003:54 PM EST'
p954
sg6
S'Bali talks aim to jumpstart climate change fight'
p955
sa(dp956
g2
S'http://www.reuters.com/article/newsOne/idUSL0244943620071202'
p957
sg4
S'20071202\xc2\xa003:54 PM EST'
p958
sg6
S'Rich countries urged to come clean on climate change'
p959
sa(dp960
g2
S'http://www.reuters.com/article/ousiv/idUSN3042179920071202'
p961
sg4
S'20071202\xc2\xa003:50 PM EST'
p962
sg6
S'Treasury near subprime aid deal'
p963
sa(dp964
g2
S'http://www.reuters.com/article/innovationNews/idUSN0236714920071202'
p965
sg4
S'20071202\xc2\xa003:49 PM EST'
p966
sg6
S'Guitar Hero meets Warcraft in Vivendi-Activision deal'
p967
sa(dp968
g2
S'http://www.reuters.com/article/worldNews/idUSSP929720071202'
p969
sg4
S'20071202\xc2\xa003:47 PM EST'
p970
sg6
S'"Iron Lady" Chan wins symbolic election in Hong Kong'
p971
sa(dp972
g2
S'http://www.reuters.com/article/newsMaps/idUSN0131106020071202'
p973
sg4
S'20071202\xc2\xa003:46 PM EST'
p974
sg6
S'Castro named assembly candidate despite illness'
p975
sa(dp976
g2
S'http://www.reuters.com/article/governmentFilingsNews/idUSWEN276520071202'
p977
sg4
S'20071202\xc2\xa003:44 PM EST'
p978
sg6
S'Forest, Mylan get FDA approvable letter for Nebivolol'
p979
sa(dp980
g2
S'http://www.reuters.com/article/businessNews/idUSN0237065320071202'
p981
sg4
S'20071202\xc2\xa003:39 PM EST'
p982
sg6
S"Western Union shares could rise to $35: Barron's"
p983
sa(dp984
g2
S'http://www.reuters.com/article/businessNews/idUSN0236275020071202'
p985
sg4
S'20071202\xc2\xa003:35 PM EST'
p986
sg6
S'Safeway and unions reach tentative agreement'
p987
sa(dp988
g2
S'http://www.reuters.com/article/worldNews/idUSL0233023520071202'
p989
sg4
S'20071202\xc2\xa003:34 PM EST'
p990
sg6
S'Somali PM names cabinet; 6,000 dead this year'
p991
sa(dp992
g2
S'http://www.reuters.com/article/topNews/idUSL0233643020071202'
p993
sg4
S'20071202\xc2\xa003:30 PM EST'
p994
sg6
S'Stuffed ballots and scare tactics seen in Russia vote'
p995
sa(dp996
g2
S'http://www.reuters.com/article/pressRelease/idUS73854+02-Dec-2007+PRN20071202'
p997
sg4
S'20071202\xc2\xa003:30 PM EST'
p998
sg6
S'Following Is a Test Release'
p999
sa(dp1000
g2
S'http://www.reuters.com/article/topNews/idUSL3023671820071202'
p1001
sg4
S'20071202\xc2\xa003:29 PM EST'
p1002
sg6
S'Hopes rise for release of British teacher in Sudan'
p1003
sa(dp1004
g2
S'http://www.reuters.com/article/companyNewsAndPR/idUSN0237198120071202'
p1005
sg4
S'20071202\xc2\xa003:24 PM EST'
p1006
sg6
S'Marathon says Minn. refinery ops normal after fire'
p1007
sa(dp1008
g2
S'http://www.reuters.com/article/businessNews/idUSN0237136320071202'
p1009
sg4
S'20071202\xc2\xa003:24 PM EST'
p1010
sg6
S'Workers at Pratt & Whitney approve new contract'
p1011
sa(dp1012
g2
S'http://www.reuters.com/article/ousiv/idUSN3030958220071202'
p1013
sg4
S'20071202\xc2\xa003:21 PM EST'
p1014
sg6
S'Exit of Cruz leaves few women execs on Wall Street'
p1015
sa(dp1016
g2
S'http://www.reuters.com/article/businessNews/idUSL2854134020071202'
p1017
sg4
S'20071202\xc2\xa003:20 PM EST'
p1018
sg6
S'OPEC to weigh modest oil supply boost'
p1019
sa(dp1020
g2
S'http://www.reuters.com/article/pressRelease/idUS73050+02-Dec-2007+PRN20071202'
p1021
sg4
S'20071202\xc2\xa003:15 PM EST'
p1022
sg6
S'FDA Issues Approvable Letter for Nebivolol for the Treatment of Hypertension'
p1023
sa(dp1024
g2
S'http://www.reuters.com/article/pressRelease/idUS72917+02-Dec-2007+PRN20071202'
p1025
sg4
S'20071202\xc2\xa003:13 PM EST'
p1026
sg6
S'NEWSWEEK: International Editions: Highlights and Exclusives, December 10, 2007 Issue'
p1027
sa(dp1028
g2
S'http://www.reuters.com/article/innovationNews/idUSN0236633820071202'
p1029
sg4
S'20071202\xc2\xa003:10 PM EST'
p1030
sg6
S'FACTBOX - Vivendi to merge games unit into Activision'
p1031
sa(dp1032
g2
S'http://www.reuters.com/article/companyNewsAndPR/idUSL0244613820071202'
p1033
sg4
S'20071202\xc2\xa003:09 PM EST'
p1034
sg6
S'UPDATE 2-Novartis, MorphoSys in $600 mln antibody deal'
p1035
sa(dp1036
g2
S'http://www.reuters.com/article/homepageCrisis/idUSL02330235._CH_.2400'
p1037
sg4
S'20071202\xc2\xa003:04 PM EST'
p1038
sg6
S'Somali PM names cabinet; 6,000 dead this year'
p1039
sa(dp1040
g2
S'http://www.reuters.com/article/latestCrisis/idUSL02330235'
p1041
sg4
S'20071202\xc2\xa003:04 PM EST'
p1042
sg6
S'Somali PM names cabinet; 6,000 dead this year'
p1043
sa(dp1044
g2
S'http://www.reuters.com/article/rbssEnergyNews/idUSSYD2769420071202'
p1045
sg4
S'20071202\xc2\xa003:03 PM EST'
p1046
sg6
S'PRESS DIGEST-Australian General News - Dec 3'
p1047
sa(dp1048
g2
S'http://www.reuters.com/article/latestCrisis/idUSL02405574'
p1049
sg4
S'20071202\xc2\xa003:00 PM EST'
p1050
sg6
S'Hopes rise for release of British teacher in Sudan'
p1051
sa(dp1052
g2
S'http://www.reuters.com/article/latestCrisis/idUSL30356194'
p1053
sg4
S'20071202\xc2\xa003:00 PM EST'
p1054
sg6
S"WITNESS-Stuck in Gaza, the question is 'Why?'"
p1055
sa(dp1056
g2
S'http://www.reuters.com/article/pressRelease/idUS72135+02-Dec-2007+PRN20071202'
p1057
sg4
S'20071202\xc2\xa003:00 PM EST'
p1058
sg6
S'Following Is a Test Release'
p1059
sa(dp1060
g2
S'http://www.reuters.com/article/latestCrisis/idUSL30362003'
p1061
sg4
S'20071202\xc2\xa003:00 PM EST'
p1062
sg6
S'ADVISORY'
p1063
sa(dp1064
g2
S'http://www.reuters.com/article/healthNews/idUSN3033106720071202'
p1065
sg4
S'20071202\xc2\xa002:58 PM EST'
p1066
sg6
S'Study explains diabetes drug bone fracture risk'
p1067
sa(dp1068
g2
S'http://www.reuters.com/article/scienceNews/idUSN0134353020071202'
p1069
sg4
S'20071202\xc2\xa002:56 PM EST'
p1070
sg6
S'Cancer cells softer than healthy cells: study'
p1071
sa(dp1072
g2
S'http://www.reuters.com/article/companyNewsAndPR/idUSWEN276420071202'
p1073
sg4
S'20071202\xc2\xa002:55 PM EST'
p1074
sg6
S'Workers at Pratt & Whitney approve new contract'
p1075
sa(dp1076
g2
S'http://www.reuters.com/article/companyNewsAndPR/idUSN0236963120071202'
p1077
sg4
S'20071202\xc2\xa002:51 PM EST'
p1078
sg6
S'FACTBOX-Vivendi to merge games unit into Activision'
p1079
sa(dp1080
g2
S'http://www.reuters.com/article/newsOne/idUSL0667667620071202'
p1081
sg4
S'20071202\xc2\xa002:45 PM EST'
p1082
sg6
S'U.S. seeks Iraq political gains; Sunnis end boycott'
p1083
sa(dp1084
g2
S'http://www.reuters.com/article/ousiv/idUSWEN274620071202'
p1085
sg4
S'20071202\xc2\xa002:44 PM EST'
p1086
sg6
S'Motorola CEO Zander to be replaced by COO Brown'
p1087
sa(dp1088
g2
S'http://www.reuters.com/article/pressRelease/idUS71143+02-Dec-2007+PRN20071202'
p1089
sg4
S'20071202\xc2\xa002:41 PM EST'
p1090
sg6
S"Pratt & Whitney's Conn. IAM-Represented Employees Approve New Contract"
p1091
sa(dp1092
g2
S'http://www.reuters.com/article/latestCrisis/idUSL02350649'
p1093
sg4
S'20071202\xc2\xa002:37 PM EST'
p1094
sg6
S'US seeks Iraq political gains; Sunnis end boycott'
p1095
sa(dp1096
g2
S'http://www.reuters.com/article/pressRelease/idUS70884+02-Dec-2007+PRN20071202'
p1097
sg4
S'20071202\xc2\xa002:35 PM EST'
p1098
sg6
S'Cyber Monday Spending Propels Holiday E-Commerce to Strong Week of More than $4 Billion...'
p1099
sa(dp1100
g2
S'http://www.reuters.com/article/pressRelease/idUS70701+02-Dec-2007+PRN20071202'
p1101
sg4
S'20071202\xc2\xa002:30 PM EST'
p1102
sg6
S'Following Is a Test Release'
p1103
sa(dp1104
g2
S'http://www.reuters.com/article/latestCrisis/idUSYAT268123'
p1105
sg4
S'20071202\xc2\xa002:11 PM EST'
p1106
sg6
S'Twenty bodies found in mass grave in Iraq'
p1107
sa(dp1108
g2
S'http://www.reuters.com/article/companyNewsAndPR/idUSWEB981920071202'
p1109
sg4
S'20071202\xc2\xa002:01 PM EST'
p1110
sg6
S'Novartis, MorphoSys in $600 mln antibody deal'
p1111
sa(dp1112
g2
S'http://www.reuters.com/article/pressRelease/idUS69190+02-Dec-2007+MW20071202'
p1113
sg4
S'20071202\xc2\xa002:00 PM EST'
p1114
sg6
S' The Top 25 Hottest Bowl Game Tickets'
p1115
sa(dp1116
g2
S'http://www.reuters.com/article/pressRelease/idUS69191+02-Dec-2007+PRN20071202'
p1117
sg4
S'20071202\xc2\xa002:00 PM EST'
p1118
sg6
S'Following Is a Test Release'
p1119
sa(dp1120
g2
S'http://www.reuters.com/article/peopleNews/idUSSAT07368520071202'
p1121
sg4
S'20071202\xc2\xa001:59 PM EST'
p1122
sg6
S'Witherspoon tops list of high-paid actresses'
p1123
sa(dp1124
g2
S'http://www.reuters.com/article/peopleNews/idUSN3032529520071202'
p1125
sg4
S'20071202\xc2\xa001:59 PM EST'
p1126
sg6
S'Hulk Hogan tells wife to keep hands off his money: report'
p1127
sa(dp1128
g2
S'http://www.reuters.com/article/peopleNews/idUSN3025056320071202'
p1129
sg4
S'20071202\xc2\xa001:59 PM EST'
p1130
sg6
S"Songwriter's suit against Toby Keith dismissed"
p1131
sa(dp1132
g2
S'http://www.reuters.com/article/peopleNews/idUSN3024230820071202'
p1133
sg4
S'20071202\xc2\xa001:59 PM EST'
p1134
sg6
S'John Cusack clocks in for "Factory" role'
p1135
sa(dp1136
g2
S'http://www.reuters.com/article/peopleNews/idUSN2925759720071202'
p1137
sg4
S'20071202\xc2\xa001:59 PM EST'
p1138
sg6
S"Conan O'Brien to pay strike-affected employees"
p1139
sa(dp1140
g2
S'http://www.reuters.com/article/peopleNews/idUSN0135521320071202'
p1141
sg4
S'20071202\xc2\xa001:59 PM EST'
p1142
sg6
S'No pepper spray found in Puerto Rico pageant case'
p1143
sa(dp1144
g2
S'http://www.reuters.com/article/peopleNews/idUSL3089698320071202'
p1145
sg4
S'20071202\xc2\xa001:59 PM EST'
p1146
sg6
S'Morrissey sues music magazine for defamation'
p1147
sa(dp1148
g2
S'http://www.reuters.com/article/domesticNews/idUSN0135545420071202'
p1149
sg4
S'20071202\xc2\xa001:58 PM EST'
p1150
sg6
S'Osbourne charity sale reaps $800,000'
p1151
sa(dp1152
g2
S'http://www.reuters.com/article/politicsNews/idUSBOM2517920071202'
p1153
sg4
S'20071202\xc2\xa001:56 PM EST'
p1154
sg6
S'Congressman to introduce India trade legislation'
p1155
sa(dp1156
g2
S'http://www.reuters.com/article/worldNews/idUSL018113620071202'
p1157
sg4
S'20071202\xc2\xa001:52 PM EST'
p1158
sg6
S"Turkey reaffirms army's right to act in Iraq"
p1159
sa(dp1160
g2
S'http://www.reuters.com/article/latestCrisis/idUSL02316933'
p1161
sg4
S'20071202\xc2\xa001:49 PM EST'
p1162
sg6
S'Olmert plays down peace deal chances by end of 2008'
p1163
sa(dp1164
g2
S'http://www.reuters.com/article/pressRelease/idUS68581+02-Dec-2007+PRN20071202'
p1165
sg4
S'20071202\xc2\xa001:47 PM EST'
p1166
sg6
S'Time for a Kitchen Table Conversation: Iraq War Funding Bill Costs $500 per U.S....'
p1167
sa(dp1168
g2
S'http://www.reuters.com/article/latestCrisis/idUSL02330853'
p1169
sg4
S'20071202\xc2\xa001:47 PM EST'
p1170
sg6
S"Turkey reaffirms army's right to act in Iraq"
p1171
sa(dp1172
g2
S'http://www.reuters.com/article/rbssIndustryMaterialsUtilitiesNews/idUSWEL1540420071202'
p1173
sg4
S'20071202\xc2\xa001:34 PM EST'
p1174
sg6
S'PRESS DIGEST-New Zealand newspapers - Dec 3'
p1175
sa(dp1176
g2
S'http://www.reuters.com/article/filmNews/idUSN3064851020071202'
p1177
sg4
S'20071202\xc2\xa001:30 PM EST'
p1178
sg6
S'"Lions for Lambs" fails to roar for United Artists'
p1179
sa(dp1180
g2
S'http://www.reuters.com/article/filmNews/idUSN3026785620071202'
p1181
sg4
S'20071202\xc2\xa001:30 PM EST'
p1182
sg6
S'Shhh! Oscar contenders get silent treatment'
p1183
sa(dp1184
g2
S'http://www.reuters.com/article/filmNews/idUSN3026749320071202'
p1185
sg4
S'20071202\xc2\xa001:30 PM EST'
p1186
sg6
S'Crime movies steal show at critics nods'
p1187
sa(dp1188
g2
S'http://www.reuters.com/article/filmNews/idUSN3025569620071202'
p1189
sg4
S'20071202\xc2\xa001:30 PM EST'
p1190
sg6
S'Rookie filmmaker bags veteran actors'
p1191
sa(dp1192
g2
S'http://www.reuters.com/article/filmNews/idUSN0236590320071202'
p1193
sg4
S'20071202\xc2\xa001:30 PM EST'
p1194
sg6
S'Thriller "Awake" a victim of studio malpractice'
p1195
sa(dp1196
g2
S'http://www.reuters.com/article/filmNews/idUSL0122891420071202'
p1197
sg4
S'20071202\xc2\xa001:30 PM EST'
p1198
sg6
S'Mirren wins best actress at European Film Awards'
p1199
sa(dp1200
g2
S'http://www.reuters.com/article/pressRelease/idUS67750+02-Dec-2007+PRN20071202'
p1201
sg4
S'20071202\xc2\xa001:30 PM EST'
p1202
sg6
S'Following Is a Test Release'
p1203
sa(dp1204
g2
S'http://www.reuters.com/article/entertainmentNews/idUSN0265226620071202'
p1205
sg4
S'20071202\xc2\xa001:29 PM EST'
p1206
sg6
S'Fantasy "Enchanted" leads ailing U.S. box office'
p1207
sa(dp1208
g2
S'http://www.reuters.com/article/ousivMolt/idUSL0241907620071202'
p1209
sg4
S'20071202\xc2\xa001:23 PM EST'
p1210
sg6
S'Hotels hedge bets as revaluation fever grips UAE'
p1211
sa(dp1212
g2
S'http://www.reuters.com/article/environmentNews/idUSJAK2910820071202'
p1213
sg4
S'20071202\xc2\xa001:22 PM EST'
p1214
sg6
S'Cycling ministers to help ease Bali emissions'
p1215
sa(dp1216
g2
S'http://www.reuters.com/article/innovationNews/idUSWEN276320071202'
p1217
sg4
S'20071202\xc2\xa001:17 PM EST'
p1218
sg6
S'Tiffany and Swatch form strategic alliance'
p1219
sa(dp1220
g2
S'http://www.reuters.com/article/consumerproducts-SP/idUSWEL808320071202'
p1221
sg4
S'20071202\xc2\xa001:15 PM EST'
p1222
sg6
S"RPT-Woolworths seen as front runner for NZ's Warehouse"
p1223
sa(dp1224
g2
S'http://www.reuters.com/article/reviewsNews/idUSN3024776920071202'
p1225
sg4
S'20071202\xc2\xa001:10 PM EST'
p1226
sg6
S'All signs point to success for "Golden Compass"'
p1227
sa(dp1228
g2
S'http://www.reuters.com/article/reviewsNews/idUSN2923588120071202'
p1229
sg4
S'20071202\xc2\xa001:10 PM EST'
p1230
sg6
S'James Taylor, Carole King weave new tapestry'
p1231
sa(dp1232
g2
S'http://www.reuters.com/article/reviewsNews/idUSN0939031920071202'
p1233
sg4
S'20071202\xc2\xa001:10 PM EST'
p1234
sg6
S'Billboard CD reviews: Nine Inch Nails and Wyclef Jean'
p1235
sa(dp1236
g2
S'http://www.reuters.com/article/environmentNews/idUSN3033929420071202'
p1237
sg4
S'20071202\xc2\xa001:09 PM EST'
p1238
sg6
S'Texas mayors promote fluorescents as "state bulb"'
p1239
sa(dp1240
g2
S'http://www.reuters.com/article/filmNews/idUSN3025419520071202'
p1241
sg4
S'20071202\xc2\xa001:09 PM EST'
p1242
sg6
S'"Kite" hopes to catch prevailing Oscar winds'
p1243
sa(dp1244
g2
S'http://www.reuters.com/article/pressRelease/idUS66414+02-Dec-2007+BW20071202'
p1245
sg4
S'20071202\xc2\xa001:05 PM EST'
p1246
sg6
S"Vivendi and Activision to Create Activision Blizzard - World's Largest, Most Profitable..."
p1247
sa(dp1248
g2
S'http://www.reuters.com/article/pressRelease/idUS66355+02-Dec-2007+PRN20071202'
p1249
sg4
S'20071202\xc2\xa001:03 PM EST'
p1250
sg6
S"NEWSWEEK: 'The Kite Runner' Author Khaled Hosseini Urges United States and Allies:..."
p1251
sa(dp1252
g2
S'http://www.reuters.com/article/pressRelease/idUS66353+02-Dec-2007+PRN20071202'
p1253
sg4
S'20071202\xc2\xa001:03 PM EST'
p1254
sg6
S'NEWSWEEK: Media Lead Sheet/December 10, 2007 Issue (on newsstands Monday, December...'
p1255
sa(dp1256
g2
S'http://www.reuters.com/article/homepageCrisis/idUSL02349773._CH_.2400'
p1257
sg4
S'20071202\xc2\xa001:01 PM EST'
p1258
sg6
S'Bali talks aim to jumpstart climate change fight'
p1259
sa(dp1260
g2
S'http://www.reuters.com/article/latestCrisis/idUSL02349773'
p1261
sg4
S'20071202\xc2\xa001:01 PM EST'
p1262
sg6
S'Bali talks aim to jumpstart climate change fight'
p1263
sa(dp1264
g2
S'http://www.reuters.com/article/latestCrisis/idUSHKG281194'
p1265
sg4
S'20071202\xc2\xa001:00 PM EST'
p1266
sg6
S'Japan experts find way to block allergic reactions'
p1267
sa(dp1268
g2
S'http://www.reuters.com/article/homepageCrisis/idUSN30303455._CH_.2400'
p1269
sg4
S'20071202\xc2\xa001:00 PM EST'
p1270
sg6
S'Expanding tropics could spur storms - study'
p1271
sa(dp1272
g2
S'http://www.reuters.com/article/latestCrisis/idUSN30303455'
p1273
sg4
S'20071202\xc2\xa001:00 PM EST'
p1274
sg6
S'Expanding tropics could spur storms - study'
p1275
sa(dp1276
g2
S'http://www.reuters.com/article/pressRelease/idUS66150+02-Dec-2007+PRN20071202'
p1277
sg4
S'20071202\xc2\xa001:00 PM EST'
p1278
sg6
S'Following Is a Test Release'
p1279
sa(dp1280
g2
S'http://www.reuters.com/article/latestCrisis/idUSL02425618'
p1281
sg4
S'20071202\xc2\xa012:54 PM EST'
p1282
sg6
S'Britons to meet Sudan President over teacher'
p1283
sa(dp1284
g2
S'http://www.reuters.com/article/oilRpt/idUSN3033405320071202'
p1285
sg4
S'20071202\xc2\xa012:35 PM EST'
p1286
sg6
S'WEEKAHEAD-Emerging debt investors to focus on Venezuela vote'
p1287
sa(dp1288
g2
S'http://www.reuters.com/article/companyNewsAndPR/idUSN2536595920071202'
p1289
sg4
S'20071202\xc2\xa012:32 PM EST'
p1290
sg6
S'The top films at the North American box office'
p1291
sa(dp1292
g2
S'http://www.reuters.com/article/pressRelease/idUS65128+02-Dec-2007+PRN20071202'
p1293
sg4
S'20071202\xc2\xa012:30 PM EST'
p1294
sg6
S'Following Is a Test Release'
p1295
sa(dp1296
g2
S'http://www.reuters.com/article/globalMarketsNews/idUSN3031981520071202'
p1297
sg4
S'20071202\xc2\xa012:22 PM EST'
p1298
sg6
S'Subprime plan could lift stocks'
p1299
sa(dp1300
g2
S'http://www.reuters.com/article/usMktRpt/idUSN0240456120071202'
p1301
sg4
S'20071202\xc2\xa012:21 PM EST'
p1302
sg6
S'UPDATE 1-Wall St Week Ahead: Subprime plan could lift stocks'
p1303
sa(dp1304
g2
S'http://www.reuters.com/article/pressRelease/idUS64082+02-Dec-2007+PRN20071202'
p1305
sg4
S'20071202\xc2\xa012:00 PM EST'
p1306
sg6
S'Following Is a Test Release'
p1307
sa(dp1308
g2
S'http://www.reuters.com/article/pressRelease/idUS64073+02-Dec-2007+PRN20071202'
p1309
sg4
S'20071202\xc2\xa012:00 PM EST'
p1310
sg6
S'MINI USA and RIDEMAKERZ Team Up To Debut Smallest MINI Ever'
p1311
sa(dp1312
g2
S'http://www.reuters.com/article/pressRelease/idUS64062+02-Dec-2007+BW20071202'
p1313
sg4
S'20071202\xc2\xa012:00 PM EST'
p1314
sg6
S'The Swatch Group Ltd. and Tiffany & Co. Announce Strategic Alliance'
p1315
sa(dp1316
g2
S'http://www.reuters.com/article/ousiv/idUSL0169198120071202'
p1317
sg4
S'20071202\xc2\xa011:56 AM EST'
p1318
sg6
S'Starbucks plans 2nd farm support center in Rwanda'
p1319
sa(dp1320
g2
S'http://www.reuters.com/article/rbssFinancialServicesAndRealEstateNews/idUSL0241112620071202'
p1321
sg4
S'20071202\xc2\xa011:56 AM EST'
p1322
sg6
S'UPDATE 1-Africa Israel CEO to quit at end of year'
p1323
sa(dp1324
g2
S'http://www.reuters.com/article/worldNews/idUSL0240556420071202'
p1325
sg4
S'20071202\xc2\xa011:49 AM EST'
p1326
sg6
S'Russian election turnout to top 60 percent'
p1327
sa(dp1328
g2
S'http://www.reuters.com/article/ousiv/idUSTP34277220071202'
p1329
sg4
S'20071202\xc2\xa011:49 AM EST'
p1330
sg6
S'Citi sees strong growth in Taiwan business in 2008'
p1331
sa(dp1332
g2
S'http://www.reuters.com/article/pressRelease/idUS63657+02-Dec-2007+PRN20071202'
p1333
sg4
S'20071202\xc2\xa011:47 AM EST'
p1334
sg6
S'NEWSWEEK: Cover: Health for Life: Fertility & Diet'
p1335
sa(dp1336
g2
S'http://www.reuters.com/article/newsOne/idUSBLA22917920071202'
p1337
sg4
S'20071202\xc2\xa011:45 AM EST'
p1338
sg6
S"Iran says sanctions won't help end nuclear row"
p1339
sa(dp1340
g2
S'http://www.reuters.com/article/newsOne/idUSBLA23616420071202'
p1341
sg4
S'20071202\xc2\xa011:45 AM EST'
p1342
sg6
S'Iran minister resigns in new cabinet change'
p1343
sa(dp1344
g2
S'http://www.reuters.com/article/newsOne/idUSL0233483020071202'
p1345
sg4
S'20071202\xc2\xa011:42 AM EST'
p1346
sg6
S'Beauty queens brighten ballot in Russian village'
p1347
sa(dp1348
g2
S'http://www.reuters.com/article/pressRelease/idUS63104+02-Dec-2007+PRN20071202'
p1349
sg4
S'20071202\xc2\xa011:30 AM EST'
p1350
sg6
S'Following Is a Test Release'
p1351
sa(dp1352
g2
S'http://www.reuters.com/article/latestCrisis/idUSPEK335855'
p1353
sg4
S'20071202\xc2\xa011:28 AM EST'
p1354
sg6
S"Stretch of China's Yangtze river caves in"
p1355
sa(dp1356
g2
S'http://www.reuters.com/article/latestCrisis/idUSN02365808'
p1357
sg4
S'20071202\xc2\xa011:18 AM EST'
p1358
sg6
S"Cuba's Fidel Castro named assembly candidate"
p1359
sa(dp1360
g2
S'http://www.reuters.com/article/rbssIndustryMaterialsUtilitiesNews/idUSL0239929620071202'
p1361
sg4
S'20071202\xc2\xa011:18 AM EST'
p1362
sg6
S"UPDATE 1-S.Africa's Nationwide denies leasing a KLM plane"
p1363
sa(dp1364
g2
S'http://www.reuters.com/article/mergersNews/idUSWEN276220071202'
p1365
sg4
S'20071202\xc2\xa011:17 AM EST'
p1366
sg6
S'Activision to merge with Vivendi gaming business'
p1367
sa(dp1368
g2
S'http://www.reuters.com/article/rbssIndustryMaterialsUtilitiesNews/idUSL0239148020071202'
p1369
sg4
S'20071202\xc2\xa011:10 AM EST'
p1370
sg6
S'RWE reconnects Biblis B after year-long outage'
p1371
sa(dp1372
g2
S'http://www.reuters.com/article/latestCrisis/idUSL02379107'
p1373
sg4
S'20071202\xc2\xa011:02 AM EST'
p1374
sg6
S'Spain shows rare unity over ETA, buries policeman'
p1375
sa(dp1376
g2
S'http://www.reuters.com/article/pressRelease/idUS62053+02-Dec-2007+PRN20071202'
p1377
sg4
S'20071202\xc2\xa011:00 AM EST'
p1378
sg6
S'Following Is a Test Release'
p1379
sa(dp1380
g2
S'http://www.reuters.com/article/rbssIndustryMaterialsUtilitiesNews/idUSHKG37097120071202'
p1381
sg4
S'20071202\xc2\xa011:00 AM EST'
p1382
sg6
S'Sinoma plans up to US$538 mln HK IPO -source'
p1383
sa(dp1384
g2
S'http://www.reuters.com/article/pressRelease/idUS62043+02-Dec-2007+BW20071202'
p1385
sg4
S'20071202\xc2\xa011:00 AM EST'
p1386
sg6
S"Vivendi and Activision to Create Activision Blizzard - World's Largest, Most Profitable..."
p1387
sa(dp1388
g2
S'http://www.reuters.com/article/companyNewsAndPR/idUSL0229264720071202'
p1389
sg4
S'20071202\xc2\xa010:58 AM EST'
p1390
sg6
S'UPDATE 2-Gulf Arabs set for summit showdown over dollar pegs'
p1391
sa(dp1392
g2
S'http://www.reuters.com/article/newsOne/idUSL0236833620071202'
p1393
sg4
S'20071202\xc2\xa010:54 AM EST'
p1394
sg6
S'U.S. to hold "Chemical Ali" until Iraqi leaders agree'
p1395
sa(dp1396
g2
S'http://www.reuters.com/article/latestCrisis/idUSL0123253'
p1397
sg4
S'20071202\xc2\xa010:51 AM EST'
p1398
sg6
S'FEATURE-Germany shows contradictions on climate change'
p1399
sa(dp1400
g2
S'http://www.reuters.com/article/bondsNews/idUSN3033259820071202'
p1401
sg4
S'20071202\xc2\xa010:45 AM EST'
p1402
sg6
S'Bay Street Week Ahead-Sorting out the commercial paper mess'
p1403
sa(dp1404
g2
S'http://www.reuters.com/article/rbssFinancialServicesAndRealEstateNews/idUSL0237194420071202'
p1405
sg4
S'20071202\xc2\xa010:44 AM EST'
p1406
sg6
S'CORRECTED-Barclays Egypt makes $8.3 mln in third quarter'
p1407
sa(dp1408
g2
S'http://www.reuters.com/article/newsOne/idUSL287047420071202'
p1409
sg4
S'20071202\xc2\xa010:36 AM EST'
p1410
sg6
S"FACTBOX-The runners in Russia's parliamentary vote"
p1411
sa(dp1412
g2
S'http://www.reuters.com/article/newsOne/idUSL0236554020071202'
p1413
sg4
S'20071202\xc2\xa010:36 AM EST'
p1414
sg6
S'Foreign observers struggle to monitor Russia vote'
p1415
sa(dp1416
g2
S'http://www.reuters.com/article/latestCrisis/idUSMCD246457'
p1417
sg4
S'20071202\xc2\xa010:36 AM EST'
p1418
sg6
S'UK lawmakers hope to meet Sudan president over teacher'
p1419
sa(dp1420
g2
S'http://www.reuters.com/article/pressRelease/idUS60929+02-Dec-2007+PRN20071202'
p1421
sg4
S'20071202\xc2\xa010:34 AM EST'
p1422
sg6
S'Stock Picking Software from Investing Systems Delivers Spectacular One-Day Gains...'
p1423
sa(dp1424
g2
S'http://www.reuters.com/article/latestCrisis/idUSL02368336'
p1425
sg4
S'20071202\xc2\xa010:30 AM EST'
p1426
sg6
S'US to hold "Chemical Ali" until Iraqi leaders agree'
p1427
sa(dp1428
g2
S'http://www.reuters.com/article/pressRelease/idUS60761+02-Dec-2007+PRN20071202'
p1429
sg4
S'20071202\xc2\xa010:30 AM EST'
p1430
sg6
S'Following Is a Test Release'
p1431
sa(dp1432
g2
S'http://www.reuters.com/article/rbssTechMediaTelecomNews/idUSL0238455020071202'
p1433
sg4
S'20071202\xc2\xa010:29 AM EST'
p1434
sg6
S'UPDATE 1-Zain telco plans $4.4 bln share sale for expansion'
p1435
sa(dp1436
g2
S'http://www.reuters.com/article/latestCrisis/idUSL0123578'
p1437
sg4
S'20071202\xc2\xa010:18 AM EST'
p1438
sg6
S'Outbreak of rare Ebola virus in Uganda worsens'
p1439
sa(dp1440
g2
S'http://www.reuters.com/article/homepageCrisis/idUSL02326866._CH_.2400'
p1441
sg4
S'20071202\xc2\xa010:14 AM EST'
p1442
sg6
S'Chad rebels say they gain support against president'
p1443
sa(dp1444
g2
S'http://www.reuters.com/article/latestCrisis/idUSL02326866'
p1445
sg4
S'20071202\xc2\xa010:14 AM EST'
p1446
sg6
S'Chad rebels say they gain support against president'
p1447
sa(dp1448
g2
S'http://www.reuters.com/article/topNews/idUSL0235632620071202'
p1449
sg4
S'20071202\xc2\xa010:07 AM EST'
p1450
sg6
S'Negroponte sees key Iraq poll delayed to 2008'
p1451
sa(dp1452
g2
S'http://www.reuters.com/article/rbssFinancialServicesAndRealEstateNews/idUSL0233033920071202'
p1453
sg4
S'20071202\xc2\xa010:04 AM EST'
p1454
sg6
S'Cycling-Rasmussen unhappy with outcome of inquiry into sacking'
p1455
sa(dp1456
g2
S'http://www.reuters.com/article/latestCrisis/idUSL02356326'
p1457
sg4
S'20071202\xc2\xa010:01 AM EST'
p1458
sg6
S'Negroponte sees key Iraq poll delayed to 2008'
p1459
sa(dp1460
g2
S'http://www.reuters.com/article/pressRelease/idUS59664+02-Dec-2007+PRN20071202'
p1461
sg4
S'20071202\xc2\xa010:00 AM EST'
p1462
sg6
S'Following Is a Test Release'
p1463
sa(dp1464
g2
S'http://www.reuters.com/article/rbssFinancialServicesAndRealEstateNews/idUSL0237458220071202'
p1465
sg4
S'20071202\xc2\xa009:56 AM EST'
p1466
sg6
S'Close Bros mulls selling Winterflood unit - paper'
p1467
sa(dp1468
g2
S'http://www.reuters.com/article/ousiv/idUSL0165454120071202'
p1469
sg4
S'20071202\xc2\xa009:54 AM EST'
p1470
sg6
S'Saudi sees oil demand OK but no signal on OPEC move'
p1471
sa(dp1472
g2
S'http://www.reuters.com/article/gc06/idUSN3033525020071202'
p1473
sg4
S'20071202\xc2\xa009:54 AM EST'
p1474
sg6
S'Stock analysts say mortgage plan only delays pain'
p1475
sa(dp1476
g2
S'http://www.reuters.com/article/businessNews/idUSL0235508420071202'
p1477
sg4
S'20071202\xc2\xa009:49 AM EST'
p1478
sg6
S"Deutsche reconsidering Virgin's N.Rock bid: paper"
p1479
sa(dp1480
g2
S'http://www.reuters.com/article/ousiv/idUSN3061148620071202'
p1481
sg4
S'20071202\xc2\xa009:41 AM EST'
p1482
sg6
S'Alaska gets 5 applications for natural gas'
p1483
sa(dp1484
g2
S'http://www.reuters.com/article/worldNews/idUSMCD24667220071202'
p1485
sg4
S'20071202\xc2\xa009:37 AM EST'
p1486
sg6
S'Sudan orders release of opposition leader'
p1487
sa(dp1488
g2
S'http://www.reuters.com/article/pressRelease/idUS58330+02-Dec-2007+PRN20071202'
p1489
sg4
S'20071202\xc2\xa009:30 AM EST'
p1490
sg6
S'Following Is a Test Release'
p1491
sa(dp1492
g2
S'http://www.reuters.com/article/bondsNews/idUSYAT25148220071202'
p1493
sg4
S'20071202\xc2\xa009:24 AM EST'
p1494
sg6
S"Iraq Sunni leader says bloc will return to parl't"
p1495
sa(dp1496
g2
S'http://www.reuters.com/article/latestCrisis/idUSYAT251482'
p1497
sg4
S'20071202\xc2\xa009:24 AM EST'
p1498
sg6
S"Iraq Sunni leader says bloc will return to parl't"
p1499
sa(dp1500
g2
S'http://www.reuters.com/article/companyNewsAndPR/idUSL0235804220071202'
p1501
sg4
S'20071202\xc2\xa009:20 AM EST'
p1502
sg6
S'German rail chief optimistic on wage talks'
p1503
sa(dp1504
g2
S'http://www.reuters.com/article/pressRelease/idUS57528+02-Dec-2007+MW20071202'
p1505
sg4
S'20071202\xc2\xa009:08 AM EST'
p1506
sg6
S' Powerball Moves to $20 Million!'
p1507
sa(dp1508
g2
S'http://www.reuters.com/article/environmentNews/idUSL3060935920071202'
p1509
sg4
S'20071202\xc2\xa009:04 AM EST'
p1510
sg6
S'Invasive species threaten land of the dodo'
p1511
sa(dp1512
g2
S'http://www.reuters.com/article/latestCrisis/idUSL02354043'
p1513
sg4
S'20071202\xc2\xa009:01 AM EST'
p1514
sg6
S'Turkeys culled after Polish bird flu outbreak'
p1515
sa(dp1516
g2
S'http://www.reuters.com/article/rbssTechMediaTelecomNews/idUSL0235572620071202'
p1517
sg4
S'20071202\xc2\xa009:00 AM EST'
p1518
sg6
S'Zain to raise $4.4 bln in share sale for expansion'
p1519
sa(dp1520
g2
S'http://www.reuters.com/article/pressRelease/idUS57236+02-Dec-2007+PRN20071202'
p1521
sg4
S'20071202\xc2\xa009:00 AM EST'
p1522
sg6
S'Following Is a Test Release'
p1523
sa(dp1524
g2
S'http://www.reuters.com/article/pressRelease/idUS57234+02-Dec-2007+PRN20071202'
p1525
sg4
S'20071202\xc2\xa009:00 AM EST'
p1526
sg6
S"Space Shuttle Atlantis Astronaut Chooses Quincy Jones' 1969 Recording 'Walking in..."
p1527
sa(dp1528
g2
S'http://www.reuters.com/article/pressRelease/idUS57221+02-Dec-2007+BW20071202'
p1529
sg4
S'20071202\xc2\xa009:00 AM EST'
p1530
sg6
S'Carl Zeiss Introduces New 100kV Transmission Electron Microscope (TEM) at American...'
p1531
sa(dp1532
g2
S'http://www.reuters.com/article/bondsNews/idUSL0235819020071202'
p1533
sg4
S'20071202\xc2\xa008:53 AM EST'
p1534
sg6
S'UPDATE 1-Iraq Sunni leader leaves Baghdad house'
p1535
sa(dp1536
g2
S'http://www.reuters.com/article/latestCrisis/idUSL02358190'
p1537
sg4
S'20071202\xc2\xa008:53 AM EST'
p1538
sg6
S'Iraq Sunni leader leaves Baghdad house'
p1539
sa(dp1540
g2
S'http://www.reuters.com/article/rbssConsumerGoodsAndRetailNews/idUSL0244331620071202'
p1541
sg4
S'20071202\xc2\xa008:49 AM EST'
p1542
sg6
S'MARKETS-EGYPT-CLOSER =2'
p1543
sa(dp1544
g2
S'http://www.reuters.com/article/latestCrisis/idUSL02339156'
p1545
sg4
S'20071202\xc2\xa008:42 AM EST'
p1546
sg6
S'Iraq Sunni leader leaves his Baghdad house'
p1547
sa(dp1548
g2
S'http://www.reuters.com/article/rbssFinancialServicesAndRealEstateNews/idUSL0234022820071202'
p1549
sg4
S'20071202\xc2\xa008:34 AM EST'
p1550
sg6
S'Africa Israel CEO to quit at end of year'
p1551
sa(dp1552
g2
S'http://www.reuters.com/article/pressRelease/idUS56265+02-Dec-2007+PRN20071202'
p1553
sg4
S'20071202\xc2\xa008:33 AM EST'
p1554
sg6
S'Take-Five Winning Numbers'
p1555
sa(dp1556
g2
S'http://www.reuters.com/article/pressRelease/idUS56257+02-Dec-2007+BW20071202'
p1557
sg4
S'20071202\xc2\xa008:33 AM EST'
p1558
sg6
S'Safeway Reaches Tentative Agreement with Northern California Clerks Unions'
p1559
sa(dp1560
g2
S'http://www.reuters.com/article/pressRelease/idUS56142+02-Dec-2007+PRN20071202'
p1561
sg4
S'20071202\xc2\xa008:30 AM EST'
p1562
sg6
S'Lotto Extra Winning Numbers'
p1563
sa(dp1564
g2
S'http://www.reuters.com/article/pressRelease/idUS56137+02-Dec-2007+PRN20071202'
p1565
sg4
S'20071202\xc2\xa008:30 AM EST'
p1566
sg6
S'Following Is a Test Release'
p1567
sa(dp1568
g2
S'http://www.reuters.com/article/pressRelease/idUS55949+02-Dec-2007+PRN20071202'
p1569
sg4
S'20071202\xc2\xa008:25 AM EST'
p1570
sg6
S'Lotto Winning Numbers'
p1571
sa(dp1572
g2
S'http://www.reuters.com/article/rbssIndustryMaterialsUtilitiesNews/idUSPEK33510520071202'
p1573
sg4
S'20071202\xc2\xa008:23 AM EST'
p1574
sg6
S"China's Shenzhen Bank sells stake to Baosteel"
p1575
sa(dp1576
g2
S'http://www.reuters.com/article/worldNews/idUSL0268259020071202'
p1577
sg4
S'20071202\xc2\xa008:15 AM EST'
p1578
sg6
S'Chess master Kasparov decries Russia ballot "rape"'
p1579
sa(dp1580
g2
S'http://www.reuters.com/article/homepageCrisis/idUSL02169247._CH_.2400'
p1581
sg4
S'20071202\xc2\xa008:11 AM EST'
p1582
sg6
S'PREVIEW-Bali talks to seek global climate deal in 2009'
p1583
sa(dp1584
g2
S'http://www.reuters.com/article/latestCrisis/idUSL02169247'
p1585
sg4
S'20071202\xc2\xa008:11 AM EST'
p1586
sg6
S'PREVIEW-Bali talks to seek global climate deal in 2009'
p1587
sa(dp1588
g2
S'http://www.reuters.com/article/topNews/idUSL2970945020071202'
p1589
sg4
S'20071202\xc2\xa008:10 AM EST'
p1590
sg6
S'U.S. calls for political progress to back up "surge"'
p1591
sa(dp1592
g2
S'http://www.reuters.com/article/worldNews/idUSL2947628120071202'
p1593
sg4
S'20071202\xc2\xa008:08 AM EST'
p1594
sg6
S'FACTBOX: Military and civilian deaths in Iraq'
p1595
sa(dp1596
g2
S'http://www.reuters.com/article/worldNews/idUSL2945106020071202'
p1597
sg4
S'20071202\xc2\xa008:08 AM EST'
p1598
sg6
S'U.S. to control growth of Iraq neighborhood patrols'
p1599
sa(dp1600
g2
S'http://www.reuters.com/article/worldNews/idUSL2628375720071202'
p1601
sg4
S'20071202\xc2\xa008:08 AM EST'
p1602
sg6
S'Baghdad stock market prepares to go electronic'
p1603
sa(dp1604
g2
S'http://www.reuters.com/article/worldNews/idUSKAM93213420071202'
p1605
sg4
S'20071202\xc2\xa008:08 AM EST'
p1606
sg6
S'FACTBOX: Security developments in Iraq, Nov 29'
p1607
sa(dp1608
g2
S'http://www.reuters.com/article/companyNewsAndPR/idUSL0234118720071202'
p1609
sg4
S'20071202\xc2\xa008:08 AM EST'
p1610
sg6
S'UAE state news agency retracts forex reform story'
p1611
sa(dp1612
g2
S'http://www.reuters.com/article/latestCrisis/idUSB342043'
p1613
sg4
S'20071202\xc2\xa008:00 AM EST'
p1614
sg6
S'U.S. calls for political progress to back up "surge"'
p1615
sa(dp1616
g2
S'http://www.reuters.com/article/pressRelease/idUS54955+02-Dec-2007+PRN20071202'
p1617
sg4
S'20071202\xc2\xa008:00 AM EST'
p1618
sg6
S'Following Is a Test Release'
p1619
sa(dp1620
g2
S'http://www.reuters.com/article/homepageCrisis/idUSL02331498._CH_.2400'
p1621
sg4
S'20071202\xc2\xa007:53 AM EST'
p1622
sg6
S'Bangladesh relief operation to last 2 weeks - U.S.'
p1623
sa(dp1624
g2
S'http://www.reuters.com/article/latestCrisis/idUSL02331498'
p1625
sg4
S'20071202\xc2\xa007:53 AM EST'
p1626
sg6
S'Bangladesh relief operation to last 2 weeks - U.S.'
p1627
sa(dp1628
g2
S'http://www.reuters.com/article/worldNews/idUSKIM24359520071202'
p1629
sg4
S'20071202\xc2\xa007:53 AM EST'
p1630
sg6
S'Somalia PM wants dialogue; 6,000 dead this year'
p1631
sa(dp1632
g2
S'http://www.reuters.com/article/latestCrisis/idUSB340512'
p1633
sg4
S'20071202\xc2\xa007:42 AM EST'
p1634
sg6
S'U.S. calls for political progress to back up "surge"'
p1635
sa(dp1636
g2
S'http://www.reuters.com/article/rbssConsumerGoodsAndRetailNews/idUSL0233233720071202'
p1637
sg4
S'20071202\xc2\xa007:40 AM EST'
p1638
sg6
S'German retailers upbeat on Christmas period -HDE'
p1639
sa(dp1640
g2
S'http://www.reuters.com/article/rbssConsumerGoodsAndRetailNews/idUSL0258247420071202'
p1641
sg4
S'20071202\xc2\xa007:35 AM EST'
p1642
sg6
S"Malaysia's Genting builds stake in UK's Rank -papers"
p1643
sa(dp1644
g2
S'http://www.reuters.com/article/pressRelease/idUS53955+02-Dec-2007+PRN20071202'
p1645
sg4
S'20071202\xc2\xa007:30 AM EST'
p1646
sg6
S'Following Is a Test Release'
p1647
sa(dp1648
g2
S'http://www.reuters.com/article/rbssIndustryMaterialsUtilitiesNews/idUSL0230190220071202'
p1649
sg4
S'20071202\xc2\xa007:20 AM EST'
p1650
sg6
S'Abertis sees no Atlantia talks soon -report'
p1651
sa(dp1652
g2
S'http://www.reuters.com/article/rbssIndustryMaterialsUtilitiesNews/idUSBOM1598420071202'
p1653
sg4
S'20071202\xc2\xa007:16 AM EST'
p1654
sg6
S'Reliance Energy to raise $2 bln in share sales'
p1655
sa(dp1656
g2
S'http://www.reuters.com/article/worldNews/idUSL0232522220071202'
p1657
sg4
S'20071202\xc2\xa007:11 AM EST'
p1658
sg6
S'New Somali PM says open to talks with opposition'
p1659
sa(dp1660
g2
S'http://www.reuters.com/article/pressRelease/idUS53461+02-Dec-2007+BW20071202'
p1661
sg4
S'20071202\xc2\xa007:11 AM EST'
p1662
sg6
S'Strike Averted! UFCW NorCal Unions and Safeway Reach Tentative Agreement'
p1663
sa(dp1664
g2
S'http://www.reuters.com/article/pressRelease/idUS53321+02-Dec-2007+BW20071202'
p1665
sg4
S'20071202\xc2\xa007:06 AM EST'
p1666
sg6
S"Partner Communications Announces Upgrade of Its Bonds Rating To 'Aa2' With a Positive..."
p1667
sa(dp1668
g2
S'http://www.reuters.com/article/ousiv/idUSWEN276020071202'
p1669
sg4
S'20071202\xc2\xa007:05 AM EST'
p1670
sg6
S'Lennar forms venture with Morgan Stanley Real Estate'
p1671
sa(dp1672
g2
S'http://www.reuters.com/article/ousiv/idUSL0290394520071202'
p1673
sg4
S'20071202\xc2\xa007:05 AM EST'
p1674
sg6
S'Agility eyes $10 bln Saudi rail project: report'
p1675
sa(dp1676
g2
S'http://www.reuters.com/article/latestCrisis/idUSL02293404'
p1677
sg4
S'20071202\xc2\xa007:05 AM EST'
p1678
sg6
S"Turkey's Gul reaffirms army's right to act in Iraq"
p1679
sa(dp1680
g2
S'http://www.reuters.com/article/worldNews/idUSKIM24315420071202'
p1681
sg4
S'20071202\xc2\xa007:00 AM EST'
p1682
sg6
S'CORRECTED: Somalia violence kills nearly 6,000 in 2007'
p1683
sa(dp1684
g2
S'http://www.reuters.com/article/pressRelease/idUS53089+02-Dec-2007+PRN20071202'
p1685
sg4
S'20071202\xc2\xa007:00 AM EST'
p1686
sg6
S'Following Is a Test Release'
p1687
sa(dp1688
g2
S'http://www.reuters.com/article/worldNews/idUSL0229390220071202'
p1689
sg4
S'20071202\xc2\xa006:56 AM EST'
p1690
sg6
S'Polar bears and pastries: voting Siberian style'
p1691
sa(dp1692
g2
S'http://www.reuters.com/article/latestCrisis/idUSL02325222'
p1693
sg4
S'20071202\xc2\xa006:56 AM EST'
p1694
sg6
S'New Somali PM says open to talks with opposition'
p1695
sa(dp1696
g2
S'http://www.reuters.com/article/latestCrisis/idUSNLA3233103'
p1697
sg4
S'20071202\xc2\xa006:52 AM EST'
p1698
sg6
S'Somalia violence kills nearly 6,000 in 2007'
p1699
sa(dp1700
g2
S'http://www.reuters.com/article/worldNews/idUSKIM24231920071202'
p1701
sg4
S'20071202\xc2\xa006:45 AM EST'
p1702
sg6
S"Somalia violence kills nearly 6,000 since '06: group"
p1703
sa(dp1704
g2
S'http://www.reuters.com/article/latestCrisis/idUSB323310'
p1705
sg4
S'20071202\xc2\xa006:38 AM EST'
p1706
sg6
S"Somalia violence kills nearly 6,000 since '06 - group"
p1707
sa(dp1708
g2
S'http://www.reuters.com/article/rbssFinancialServicesAndRealEstateNews/idUSL0230773520071202'
p1709
sg4
S'20071202\xc2\xa006:36 AM EST'
p1710
sg6
S"Egypt's Talaat Mustafa raises stakes in affiliates"
p1711
sa(dp1712
g2
S'http://www.reuters.com/article/latestCrisis/idUSL02306193'
p1713
sg4
S'20071202\xc2\xa006:34 AM EST'
p1714
sg6
S'Five Egyptians die in Nile river cruise ship fire'
p1715
sa(dp1716
g2
S'http://www.reuters.com/article/worldNews/idUSL0227112220071202'
p1717
sg4
S'20071202\xc2\xa006:30 AM EST'
p1718
sg6
S"S.Africa's Mbeki may call early polls if loses ANC"
p1719
sa(dp1720
g2
S'http://www.reuters.com/article/pressRelease/idUS52114+02-Dec-2007+PRN20071202'
p1721
sg4
S'20071202\xc2\xa006:30 AM EST'
p1722
sg6
S'Following Is a Test Release'
p1723
sa(dp1724
g2
S'http://www.reuters.com/article/worldNews/idUSISL5175520071202'
p1725
sg4
S'20071202\xc2\xa006:11 AM EST'
p1726
sg6
S'Afghanistan army to reach targeted strength by March'
p1727
sa(dp1728
g2
S'http://www.reuters.com/article/latestCrisis/idUSL01180406'
p1729
sg4
S'20071202\xc2\xa006:10 AM EST'
p1730
sg6
S'INTERVIEW-German minister warns of climate change perils'
p1731
sa(dp1732
g2
S'http://www.reuters.com/article/pressRelease/idUS51048+02-Dec-2007+PRN20071202'
p1733
sg4
S'20071202\xc2\xa006:00 AM EST'
p1734
sg6
S'Following Is a Test Release'
p1735
sa(dp1736
g2
S'http://www.reuters.com/article/pressRelease/idUS51001+02-Dec-2007+PRN20071202'
p1737
sg4
S'20071202\xc2\xa005:59 AM EST'
p1738
sg6
S'GOOD MORNING -- December 02, 2007'
p1739
sa(dp1740
g2
S'http://www.reuters.com/article/latestCrisis/idUSISL51755'
p1741
sg4
S'20071202\xc2\xa005:56 AM EST'
p1742
sg6
S'Afghanistan army to reach targeted strength by March'
p1743
sa(dp1744
g2
S'http://www.reuters.com/article/latestCrisis/idUSL02227702'
p1745
sg4
S'20071202\xc2\xa005:52 AM EST'
p1746
sg6
S'Olmert plays down peace deal chances by end of 2008'
p1747
sa(dp1748
g2
S'http://www.reuters.com/article/topNews/idUSL0245865520071202'
p1749
sg4
S'20071202\xc2\xa005:52 AM EST'
p1750
sg6
S'Iraq army offers to escort Sunni leader from home'
p1751
sa(dp1752
g2
S'http://www.reuters.com/article/topNews/idUSL0216475720071202'
p1753
sg4
S'20071202\xc2\xa005:52 AM EST'
p1754
sg6
S'FACTBOX: Military and civilian deaths in Iraq'
p1755
sa(dp1756
g2
S'http://www.reuters.com/article/topNews/idUSBLA23860420071202'
p1757
sg4
S'20071202\xc2\xa005:48 AM EST'
p1758
sg6
S'Iran says abducted Japanese man spoke to family'
p1759
sa(dp1760
g2
S'http://www.reuters.com/article/environmentNews/idUSL3041193920071202'
p1761
sg4
S'20071202\xc2\xa005:48 AM EST'
p1762
sg6
S'WTO proposal limits fisheries subsidies'
p1763
sa(dp1764
g2
S'http://www.reuters.com/article/pressRelease/idUS50299+02-Dec-2007+PRN20071202'
p1765
sg4
S'20071202\xc2\xa005:45 AM EST'
p1766
sg6
S"First agreement for Cyclone With the U.S. Navy: Elbit Systems' Subsidiary to Supply..."
p1767
sa(dp1768
g2
S'http://www.reuters.com/article/latestCrisis/idUSL02164757'
p1769
sg4
S'20071202\xc2\xa005:38 AM EST'
p1770
sg6
S'FACTBOX-Military and civilian deaths in Iraq'
p1771
sa(dp1772
g2
S'http://www.reuters.com/article/rbssFinancialServicesAndRealEstateNews/idUSL0245556320071202'
p1773
sg4
S'20071202\xc2\xa005:35 AM EST'
p1774
sg6
S'Egypt seeks letters of intent on bank sale'
p1775
sa(dp1776
g2
S'http://www.reuters.com/article/latestCrisis/idUSL02443157'
p1777
sg4
S'20071202\xc2\xa005:32 AM EST'
p1778
sg6
S'Turkeys culled after Polish bird flu outbreak'
p1779
sa(dp1780
g2
S'http://www.reuters.com/article/pressRelease/idUS49276+02-Dec-2007+PRN20071202'
p1781
sg4
S'20071202\xc2\xa005:30 AM EST'
p1782
sg6
S'Following Is a Test Release'
p1783
sa(dp1784
g2
S'http://www.reuters.com/article/entertainmentNews/idUSSP2139020071202'
p1785
sg4
S'20071202\xc2\xa005:25 AM EST'
p1786
sg6
S'Goa stirs colonial memories in Portuguese filmmaker'
p1787
sa(dp1788
g2
S'http://www.reuters.com/article/rbssFinancialServicesAndRealEstateNews/idUSL0241819820071202'
p1789
sg4
S'20071202\xc2\xa005:22 AM EST'
p1790
sg6
S"UPDATE 1-Julius Baer eyes tie-up with Japan's Shinsei-Nikkei"
p1791
sa(dp1792
g2
S'http://www.reuters.com/article/rbssIndustryMaterialsUtilitiesNews/idUSL02524820071202'
p1793
sg4
S'20071202\xc2\xa005:21 AM EST'
p1794
sg6
S'Elbit unit gets U.S. Navy fuel tank supply deal'
p1795
sa(dp1796
g2
S'http://www.reuters.com/article/entertainmentNews/idUSPEK33708220071202'
p1797
sg4
S'20071202\xc2\xa005:20 AM EST'
p1798
sg6
S'China cheers first Miss World title'
p1799
sa(dp1800
g2
S'http://www.reuters.com/article/latestCrisis/idUSL02286250'
p1801
sg4
S'20071202\xc2\xa005:19 AM EST'
p1802
sg6
S'Devout Cypriots pray for rain to end drought'
p1803
sa(dp1804
g2
S'http://www.reuters.com/article/worldNews/idUSDAH23293920071202'
p1805
sg4
S'20071202\xc2\xa005:09 AM EST'
p1806
sg6
S'Ahmadinejad to attend Gulf summit, Iran says'
p1807
sa(dp1808
g2
S'http://www.reuters.com/article/rbssEnergyNews/idUSL0213069920071202'
p1809
sg4
S'20071202\xc2\xa005:06 AM EST'
p1810
sg6
S'UPDATE 1-Kashagan oil group close to raising Kazakh stake'
p1811
sa(dp1812
g2
S'http://www.reuters.com/article/technologyNews/idUST32811820071202'
p1813
sg4
S'20071202\xc2\xa005:06 AM EST'
p1814
sg6
S"Japan's robots slug it out to be world champ"
p1815
sa(dp1816
g2
S'http://www.reuters.com/article/sportsNews/idUSSP1346520071202'
p1817
sg4
S'20071202\xc2\xa005:03 AM EST'
p1818
sg6
S'Pistons cruise to road win over Bucks'
p1819
sa(dp1820
g2
S'http://www.reuters.com/article/pressRelease/idUS47158+02-Dec-2007+PRN20071202'
p1821
sg4
S'20071202\xc2\xa005:00 AM EST'
p1822
sg6
S'Following Is a Test Release'
p1823
sa(dp1824
g2
S'http://www.reuters.com/article/rbssIndustryMaterialsUtilitiesNews/idUSL0231810020071202'
p1825
sg4
S'20071202\xc2\xa004:51 AM EST'
p1826
sg6
S'UPDATE 1-Dogan Holding 9-month net profit falls 59 pct'
p1827
sa(dp1828
g2
S'http://www.reuters.com/article/rbssIndustryMaterialsUtilitiesNews/idUSL0227816720071202'
p1829
sg4
S'20071202\xc2\xa004:45 AM EST'
p1830
sg6
S"S.Africa's Nationwide leases plane for London flight"
p1831
sa(dp1832
g2
S'http://www.reuters.com/article/latestCrisis/idUSDEL21314'
p1833
sg4
S'20071202\xc2\xa004:43 AM EST'
p1834
sg6
S'Truck skids, kills 16 Indian wedding guests'
p1835
sa(dp1836
g2
S'http://www.reuters.com/article/rbssEnergyNews/idUSL0228831320071202'
p1837
sg4
S'20071202\xc2\xa004:43 AM EST'
p1838
sg6
S'Kashagan group close to deal to raise Kazakh stake'
p1839
sa(dp1840
g2
S'http://www.reuters.com/article/companyNewsAndPR/idUSL0228361820071202'
p1841
sg4
S'20071202\xc2\xa004:42 AM EST'
p1842
sg6
S'Gulf may agree exchange rate policy shift -agency'
p1843
sa(dp1844
g2
S'http://www.reuters.com/article/worldNews/idUSL0226838620071202'
p1845
sg4
S'20071202\xc2\xa004:37 AM EST'
p1846
sg6
S"Iraq's Kurds, PKK say no Turkey attack, no casualties"
p1847
sa(dp1848
g2
S'http://www.reuters.com/article/topNews/idUSL02839920071202'
p1849
sg4
S'20071202\xc2\xa004:31 AM EST'
p1850
sg6
S'FACTBOX: Security developments in Iraq, Dec 2'
p1851
sa(dp1852
g2
S'http://www.reuters.com/article/pressRelease/idUS44747+02-Dec-2007+PRN20071202'
p1853
sg4
S'20071202\xc2\xa004:30 AM EST'
p1854
sg6
S'Following Is a Test Release'
p1855
sa(dp1856
g2
S'http://www.reuters.com/article/worldNews/idUSDAH23038920071202'
p1857
sg4
S'20071202\xc2\xa004:29 AM EST'
p1858
sg6
S'Iran hangs three drug smugglers in public: media'
p1859
sa(dp1860
g2
S'http://www.reuters.com/article/homepageCrisis/idUSL02268386._CH_.2400'
p1861
sg4
S'20071202\xc2\xa004:27 AM EST'
p1862
sg6
S"Iraq's Kurds, PKK say no Turkey attack, no casualties"
p1863
sa(dp1864
g2
S'http://www.reuters.com/article/latestCrisis/idUSL02268386'
p1865
sg4
S'20071202\xc2\xa004:27 AM EST'
p1866
sg6
S"Iraq's Kurds, PKK say no Turkey attack, no casualties"
p1867
sa(dp1868
g2
S'http://www.reuters.com/article/rbssIndustryMaterialsUtilitiesNews/idUSL0228355320071202'
p1869
sg4
S'20071202\xc2\xa004:26 AM EST'
p1870
sg6
S"Spain's Vandellos II nuclear reactor shut down -CSN"
p1871
sa(dp1872
g2
S'http://www.reuters.com/article/rbssIndustryMaterialsUtilitiesNews/idUSIST0020071202'
p1873
sg4
S'20071202\xc2\xa004:25 AM EST'
p1874
sg6
S'Dogan Holding 9-month net drops to 356.9 mln lira'
p1875
sa(dp1876
g2
S'http://www.reuters.com/article/latestCrisis/idUSL028399'
p1877
sg4
S'20071202\xc2\xa004:24 AM EST'
p1878
sg6
S'FACTBOX-Security developments in Iraq, Dec 2'
p1879
sa(dp1880
g2
S'http://www.reuters.com/article/domesticNews/idUSN3034279620071202'
p1881
sg4
S'20071202\xc2\xa004:20 AM EST'
p1882
sg6
S'Leno to pay salaries of laid-off staffers'
p1883
sa(dp1884
g2
S'http://www.reuters.com/article/latestCrisis/idUSSP17956'
p1885
sg4
S'20071202\xc2\xa004:17 AM EST'
p1886
sg6
S'Three Malaysian paratroopers drown in exercise'
p1887
sa(dp1888
g2
S'http://www.reuters.com/article/rbssIndustryMaterialsUtilitiesNews/idUSL0227991320071202'
p1889
sg4
S'20071202\xc2\xa004:12 AM EST'
p1890
sg6
S'UPDATE 1-Turkish Airlines 9-month net profit up 52 pct'
p1891
sa(dp1892
g2
S'http://www.reuters.com/article/latestCrisis/idUSL02458655'
p1893
sg4
S'20071202\xc2\xa004:08 AM EST'
p1894
sg6
S'Iraq army offers to escort Sunni leader from home'
p1895
sa(dp1896
g2
S'http://www.reuters.com/article/pressRelease/idUS42684+02-Dec-2007+PRN20071202'
p1897
sg4
S'20071202\xc2\xa004:00 AM EST'
p1898
sg6
S'Following Is a Test Release'
p1899
sa(dp1900
g2
S'http://www.reuters.com/article/lifestyleMolt/idUSHKG33115120071202'
p1901
sg4
S'20071202\xc2\xa003:57 AM EST'
p1902
sg6
S'Huge truffle fetches $330,000 at Macau auction'
p1903
sa(dp1904
g2
S'http://www.reuters.com/article/lifestyleMolt/idUSBKK32712920071202'
p1905
sg4
S'20071202\xc2\xa003:55 AM EST'
p1906
sg6
S'Thailand fights vote buying with black magic, jail'
p1907
sa(dp1908
g2
S'http://www.reuters.com/article/latestCrisis/idUSJAK15587'
p1909
sg4
S'20071202\xc2\xa003:52 AM EST'
p1910
sg6
S"Indonesia's Medan flights on time despite fire"
p1911
sa(dp1912
g2
S'http://www.reuters.com/article/rbssIndustryMaterialsUtilitiesNews/idUSL3033248620071202'
p1913
sg4
S'20071202\xc2\xa003:46 AM EST'
p1914
sg6
S'Turkish Airlines 9-mth net profit at 194 mln lira'
p1915
sa(dp1916
g2
S'http://www.reuters.com/article/pressRelease/idUS40783+02-Dec-2007+PRN20071202'
p1917
sg4
S'20071202\xc2\xa003:30 AM EST'
p1918
sg6
S'Following Is a Test Release'
p1919
sa(dp1920
g2
S'http://www.reuters.com/article/industryNews/idUSN3064935220071202'
p1921
sg4
S'20071202\xc2\xa003:25 AM EST'
p1922
sg6
S'FCC commissioner nominated for a second term'
p1923
sa(dp1924
g2
S'http://www.reuters.com/article/industryNews/idUSN3058693720071202'
p1925
sg4
S'20071202\xc2\xa003:25 AM EST'
p1926
sg6
S'Magazine cover curse may save U.S. dollar yet again'
p1927
sa(dp1928
g2
S'http://www.reuters.com/article/industryNews/idUSN2924742620071202'
p1929
sg4
S'20071202\xc2\xa003:25 AM EST'
p1930
sg6
S'Media CEOs are Facebook and BlackBerry users'
p1931
sa(dp1932
g2
S'http://www.reuters.com/article/entertainmentNews/idUSN0132743320071202'
p1933
sg4
S'20071202\xc2\xa003:25 AM EST'
p1934
sg6
S'Digital developments could be tipping point for MP3'
p1935
sa(dp1936
g2
S'http://www.reuters.com/article/environmentNews/idUSL3065193620071202'
p1937
sg4
S'20071202\xc2\xa003:20 AM EST'
p1938
sg6
S'Check your carbon footprint -- on your cell phone'
p1939
sa(dp1940
g2
S'http://www.reuters.com/article/homepageCrisis/idUSDHA22732._CH_.2400'
p1941
sg4
S'20071202\xc2\xa003:14 AM EST'
p1942
sg6
S'Bangladesh says needs aid to adapt to warmer world'
p1943
sa(dp1944
g2
S'http://www.reuters.com/article/latestCrisis/idUSDHA22732'
p1945
sg4
S'20071202\xc2\xa003:14 AM EST'
p1946
sg6
S'Bangladesh says needs aid to adapt to warmer world'
p1947
sa(dp1948
g2
S'http://www.reuters.com/article/topNews/idUSL0224688720071202'
p1949
sg4
S'20071202\xc2\xa003:11 AM EST'
p1950
sg6
S'FACTBOX: What is the Kyoto Protocol?'
p1951
sa(dp1952
g2
S'http://www.reuters.com/article/topNews/idUSSP33966820071202'
p1953
sg4
S'20071202\xc2\xa003:08 AM EST'
p1954
sg6
S'TIMELINE: From LiveEarth to Bali: A year of climate gatherings'
p1955
sa(dp1956
g2
S'http://www.reuters.com/article/latestCrisis/idUSSP339668'
p1957
sg4
S'20071202\xc2\xa003:00 AM EST'
p1958
sg6
S'CHRONOLOGY-From LiveEarth to Bali: A year of climate gatherings'
p1959
sa(dp1960
g2
S'http://www.reuters.com/article/pressRelease/idUS39030+02-Dec-2007+PRN20071202'
p1961
sg4
S'20071202\xc2\xa003:00 AM EST'
p1962
sg6
S'Following Is a Test Release'
p1963
sa(dp1964
g2
S'http://www.reuters.com/article/gwmSmallBusiness/idUS34354072020071202'
p1965
sg4
S'20071202\xc2\xa003:00 AM EST'
p1966
sg6
S'Harnessing the Eco-Power of Chambers of Commerce'
p1967
sa(dp1968
g2
S'http://www.reuters.com/article/worldNews/idUSL0226749020071202'
p1969
sg4
S'20071202\xc2\xa002:57 AM EST'
p1970
sg6
S"South Africa's Mbeki may call early election if loses ANC"
p1971
sa(dp1972
g2
S'http://www.reuters.com/article/pressRelease/idUS38541+02-Dec-2007+PRN20071202'
p1973
sg4
S'20071202\xc2\xa002:30 AM EST'
p1974
sg6
S'Following Is a Test Release'
p1975
sa(dp1976
g2
S'http://www.reuters.com/article/latestCrisis/idUSDHA31419'
p1977
sg4
S'20071202\xc2\xa002:28 AM EST'
p1978
sg6
S'Bangladesh denies abuse of Chittagong hill tribes'
p1979
sa(dp1980
g2
S'http://www.reuters.com/article/environmentNews/idUSL3056582220071202'
p1981
sg4
S'20071202\xc2\xa002:21 AM EST'
p1982
sg6
S'Home wind turbines in UK warming the planet: study'
p1983
sa(dp1984
g2
S'http://www.reuters.com/article/latestCrisis/idUSDEL180901'
p1985
sg4
S'20071202\xc2\xa002:01 AM EST'
p1986
sg6
S'India to tell West to shoulder climate change burden'
p1987
sa(dp1988
g2
S'http://www.reuters.com/article/pressRelease/idUS37795+02-Dec-2007+PRN20071202'
p1989
sg4
S'20071202\xc2\xa002:00 AM EST'
p1990
sg6
S'Following Is a Test Release'
p1991
sa(dp1992
g2
S'http://www.reuters.com/article/sportsNews/idUSSP1415720071202'
p1993
sg4
S'20071202\xc2\xa001:43 AM EST'
p1994
sg6
S'Rangers romp to road win over Senators'
p1995
sa(dp1996
g2
S'http://www.reuters.com/article/pressRelease/idUS36987+02-Dec-2007+PRN20071202'
p1997
sg4
S'20071202\xc2\xa001:32 AM EST'
p1998
sg6
S'The United States Conference of Mayors Observes World AIDS Day'
p1999
sa(dp2000
g2
S'http://www.reuters.com/article/pressRelease/idUS36922+02-Dec-2007+PRN20071202'
p2001
sg4
S'20071202\xc2\xa001:30 AM EST'
p2002
sg6
S'Following Is a Test Release'
p2003
sa(dp2004
g2
S'http://www.reuters.com/article/filmNews/idUSN3026758720071202'
p2005
sg4
S'20071202\xc2\xa001:18 AM EST'
p2006
sg6
S'Swiss comedy is gold with the oldies'
p2007
sa(dp2008
g2
S'http://www.reuters.com/article/entertainmentNews/idUSN0133618320071202'
p2009
sg4
S'20071202\xc2\xa001:17 AM EST'
p2010
sg6
S'Bale to segue from "Dark Knight" to "Terminator"'
p2011
sa(dp2012
g2
S'http://www.reuters.com/article/musicNews/idUSN3032744920071202'
p2013
sg4
S'20071202\xc2\xa001:07 AM EST'
p2014
sg6
S'Putumayo label island-hops to Caribbean'
p2015
sa(dp2016
g2
S'http://www.reuters.com/article/entertainmentNews/idUSN3060451420071202'
p2017
sg4
S'20071202\xc2\xa001:04 AM EST'
p2018
sg6
S'No "Pains," no gains for Blige'
p2019
sa(dp2020
g2
S'http://www.reuters.com/article/reutersEdge/idUSL3035619420071202'
p2021
sg4
S'20071202\xc2\xa001:02 AM EST'
p2022
sg6
S'WITNESS: Stuck in Gaza, the question is "Why?"'
p2023
sa(dp2024
g2
S'http://www.reuters.com/article/pressRelease/idUS36159+02-Dec-2007+PRN20071202'
p2025
sg4
S'20071202\xc2\xa001:00 AM EST'
p2026
sg6
S'Following Is a Test Release'
p2027
sa(dp2028
g2
S'http://www.reuters.com/article/companyNewsAndPR/idUSL0225121620071202'
p2029
sg4
S'20071202\xc2\xa012:46 AM EST'
p2030
sg6
S'PRESS DIGEST - British business - Dec 2'
p2031
sa(dp2032
g2
S'http://www.reuters.com/article/topNews/idUSL0224344420071202'
p2033
sg4
S'20071202\xc2\xa012:44 AM EST'
p2034
sg6
S'FACTBOX: U.N. panel lays out risks, solutions to warming'
p2035
sa(dp2036
g2
S'http://www.reuters.com/article/topNews/idUSL0225291120071202'
p2037
sg4
S'20071202\xc2\xa012:32 AM EST'
p2038
sg6
S'FACTBOX: Main players at Bali climate talks'
p2039
sa(dp2040
g2
S'http://www.reuters.com/article/pressRelease/idUS35261+02-Dec-2007+PRN20071202'
p2041
sg4
S'20071202\xc2\xa012:30 AM EST'
p2042
sg6
S'Following Is a Test Release'
p2043
sa(dp2044
g2
S'http://www.reuters.com/article/latestCrisis/idUSL02243444'
p2045
sg4
S'20071202\xc2\xa012:15 AM EST'
p2046
sg6
S'FACTBOX-U.N. panel lays out risks, solutions to warming'
p2047
sa(dp2048
g2
S'http://www.reuters.com/article/latestCrisis/idUSL02246887'
p2049
sg4
S'20071202\xc2\xa012:14 AM EST'
p2050
sg6
S'FACTBOX-What is the Kyoto Protocol?'
p2051
sa(dp2052
g2
S'http://www.reuters.com/article/latestCrisis/idUSL02252911'
p2053
sg4
S'20071202\xc2\xa012:14 AM EST'
p2054
sg6
S'FACTBOX-Main players at Bali climate talks'
p2055
sa(dp2056
g2
S'http://www.reuters.com/article/pressRelease/idUS34522+02-Dec-2007+PRN20071202'
p2057
sg4
S'20071202\xc2\xa012:14 AM EST'
p2058
sg6
S'CJ Transforms His Functional Fitness Program Into an Additional Resource for the...'
p2059
sa(dp2060
g2
S'http://www.reuters.com/article/peopleNews/idUSN3024118720071202'
p2061
sg4
S'20071202\xc2\xa012:13 AM EST'
p2062
sg6
S'Laura Linney in theaters with another family drama'
p2063
sa(dp2064
g2
S'http://www.reuters.com/article/latestCrisis/idUSSP264022'
p2065
sg4
S'20071202\xc2\xa012:08 AM EST'
p2066
sg6
S'RPT-PREVIEW-Bali talks to seek global climate deal in 2009'
p2067
sa(dp2068
g2
S'http://www.reuters.com/article/latestCrisis/idUSL02204025'
p2069
sg4
S'20071202\xc2\xa012:04 AM EST'
p2070
sg6
S'PREVIEW-Bali talks to seek global climate deal in 2009'
p2071
sa(dp2072
g2
S'http://www.reuters.com/article/pressRelease/idUS33746+02-Dec-2007+PRN20071202'
p2073
sg4
S'20071202\xc2\xa012:00 AM EST'
p2074
sg6
S'Following Is a Test Release'
p2075
sa(dp2076
g2
S'http://www.reuters.com/news/video/videoStory?storyID=WAO1195046219936'
p2077
sg4
S'20071202\xc2\xa007:36 PM EST'
p2078
sg6
S"The Osbourne's garage sale"
p2079
sa(dp2080
g2
S'http://www.reuters.com/news/video/videoStory?storyID=ftpo1195054780898'
p2081
sg4
S'20071202\xc2\xa004:50 PM EST'
p2082
sg6
S'Putin party leads polls'
p2083
sa(dp2084
g2
S'http://www.reuters.com/news/video/videoStory?storyID=ftpo1195054780893'
p2085
sg4
S'20071202\xc2\xa002:21 PM EST'
p2086
sg6
S'Italian kills wife in hospital'
p2087
sa(dp2088
g2
S'http://www.reuters.com/news/video/videoStory?storyID=ftpo1195054780888'
p2089
sg4
S'20071202\xc2\xa001:10 PM EST'
p2090
sg6
S"Venezuela votes on Chavez's reforms"
p2091
sa(dp2092
g2
S'http://www.reuters.com/news/video/videoStory?storyID=ftpo1195054780883'
p2093
sg4
S'20071202\xc2\xa012:44 PM EST'
p2094
sg6
S'Fraud claims in Russia poll'
p2095
sa(dp2096
g2
S'http://www.reuters.com/news/video/videoStory?storyID=ftpo1195054780878'
p2097
sg4
S'20071202\xc2\xa012:35 PM EST'
p2098
sg6
S'No release yet for teddy teacher'
p2099
sa(dp2100
g2
S'http://www.reuters.com/news/video/videoStory?storyID=ftpo1195054780873'
p2101
sg4
S'20071202\xc2\xa012:28 PM EST'
p2102
sg6
S'Ozzy Osbourne sells his wares'
p2103
sa(dp2104
g2
S'http://www.reuters.com/news/video/videoStory?storyID=ftpo1195054780863'
p2105
sg4
S'20071202\xc2\xa009:41 AM EST'
p2106
sg6
S'Santas brush up their act'
p2107
sa(dp2108
g2
S'http://www.reuters.com/news/video/videoStory?storyID=ftpo1195054780858'
p2109
sg4
S'20071202\xc2\xa009:33 AM EST'
p2110
sg6
S'Robot wars!'
p2111
sa(dp2112
g2
S'http://www.reuters.com/news/video/videoStory?storyID=ftpo1195054780853'
p2113
sg4
S'20071202\xc2\xa008:01 AM EST'
p2114
sg6
S'Winter weather grips U.S. Midwest'
p2115
sa(dp2116
g2
S'http://www.reuters.com/news/video/videoStory?storyID=ftpo1195054780848'
p2117
sg4
S'20071202\xc2\xa006:59 AM EST'
p2118
sg6
S'Russia goes to the polls'
p2119
sa(dp2120
g2
S'http://www.reuters.com/news/video/videoStory?storyID=ftpo1195054780843'
p2121
sg4
S'20071202\xc2\xa006:49 AM EST'
p2122
sg6
S'Kurds say no Turkey attack'
p2123
sa(dp2124
g2
S'http://www.reuters.com/news/video/videoStory?storyID=ftpo1195054780838'
p2125
sg4
S'20071202\xc2\xa004:18 AM EST'
p2126
sg6
S'China wins Miss World'
p2127
sa.