(lp0
(dp1
S'href'
p2
S'http://www.reuters.com/article/rbssFinancialServicesAndRealEstateNews/idUSBMA00006320071217'
p3
sS'ts'
p4
S'20071216\xc2\xa011:56 PM EST'
p5
sS'title'
p6
S'Indian shares fall more than 1 pct on day'
p7
sa(dp8
g2
S'http://www.reuters.com/article/hongkongMktRpt/idUSHKG5110920071217'
p9
sg4
S'20071216\xc2\xa011:54 PM EST'
p10
sg6
S'HK shares slide across the board, led by property'
p11
sa(dp12
g2
S'http://www.reuters.com/article/rbssConsumerGoodsAndRetailNews/idUSSEO27999820071217'
p13
sg4
S'20071216\xc2\xa011:47 PM EST'
p14
sg6
S'Hyundai Motor signs $400 mln Russian plant deal'
p15
sa(dp16
g2
S'http://www.reuters.com/article/latestCrisis/idUSJAK203972'
p17
sg4
S'20071216\xc2\xa011:46 PM EST'
p18
sg6
S'Top Indonesian Islamic militant to go on trial'
p19
sa(dp20
g2
S'http://www.reuters.com/article/rbssIndustryMaterialsUtilitiesNews/idUSSYD32747520071217'
p21
sg4
S'20071216\xc2\xa011:44 PM EST'
p22
sg6
S'Transpacific adds A$32.5 mln to convertible issue'
p23
sa(dp24
g2
S'http://www.reuters.com/article/rbssConsumerGoodsAndRetailNews/idUSSEL00024520071217'
p25
sg4
S'20071216\xc2\xa011:38 PM EST'
p26
sg6
S'Lotte to buy $84 mln China store chain stake'
p27
sa(dp28
g2
S'http://www.reuters.com/article/rbssFinancialServicesAndRealEstateNews/idUSBMA00006220071217'
p29
sg4
S'20071216\xc2\xa011:31 PM EST'
p30
sg6
S'Indian shares open flat, then turn negative'
p31
sa(dp32
g2
S'http://www.reuters.com/article/pressRelease/idUS34494+17-Dec-2007+PRN20071217'
p33
sg4
S'20071216\xc2\xa011:30 PM EST'
p34
sg6
S'Following Is a Test Release'
p35
sa(dp36
g2
S'http://www.reuters.com/article/latestCrisis/idUSL17575947'
p37
sg4
S'20071216\xc2\xa011:17 PM EST'
p38
sg6
S"Kyrgyz leader's party wins big in vote-early results"
p39
sa(dp40
g2
S'http://www.reuters.com/article/rbssIndustryMaterialsUtilitiesNews/idUSSYD1751220071217'
p41
sg4
S'20071216\xc2\xa011:16 PM EST'
p42
sg6
S'Aussie miner Fortescue in one-for-10 stock split'
p43
sa(dp44
g2
S'http://www.reuters.com/article/latestCrisis/idUST156888'
p45
sg4
S'20071216\xc2\xa011:11 PM EST'
p46
sg6
S'Japan: Tamiflu study inconclusive, will probe more'
p47
sa(dp48
g2
S'http://www.reuters.com/article/pressRelease/idUS32298+17-Dec-2007+PRN20071217'
p49
sg4
S'20071216\xc2\xa011:00 PM EST'
p50
sg6
S'Following Is a Test Release'
p51
sa(dp52
g2
S'http://www.reuters.com/article/rbssIndustryMaterialsUtilitiesNews/idUSSYD9998420071217'
p53
sg4
S'20071216\xc2\xa010:51 PM EST'
p54
sg6
S'RPT-Australian IPO flow solid for 2008, but few big ones'
p55
sa(dp56
g2
S'http://www.reuters.com/article/rbssHealthcareNews/idUSSYD9005220071217'
p57
sg4
S'20071216\xc2\xa010:44 PM EST'
p58
sg6
S'Australian judge orders Biota mediation with Glaxo'
p59
sa(dp60
g2
S'http://www.reuters.com/article/rbssFinancialServicesAndRealEstateNews/idUSWEL9855620071217'
p61
sg4
S'20071216\xc2\xa010:40 PM EST'
p62
sg6
S'NZ cenbank to license life insurers - FinMin'
p63
sa(dp64
g2
S'http://www.reuters.com/article/pressRelease/idUS30553+17-Dec-2007+PRN20071217'
p65
sg4
S'20071216\xc2\xa010:35 PM EST'
p66
sg6
S'PEMA Urges Safety for Motorists and Residents Using Alternative Heat Sources'
p67
sa(dp68
g2
S'http://www.reuters.com/article/rbssFinancialServicesAndRealEstateNews/idUSHAN10011220071217'
p69
sg4
S'20071216\xc2\xa010:31 PM EST'
p70
sg6
S"Vietnam's ACB raises $112 mln in share issue"
p71
sa(dp72
g2
S'http://www.reuters.com/article/pressRelease/idUS30111+17-Dec-2007+PRN20071217'
p73
sg4
S'20071216\xc2\xa010:30 PM EST'
p74
sg6
S'Following Is a Test Release'
p75
sa(dp76
g2
S'http://www.reuters.com/article/peopleNews/idUSN1325890320071217'
p77
sg4
S'20071216\xc2\xa010:26 PM EST'
p78
sg6
S'John Travolta cashed in male ego for "Hairspray"'
p79
sa(dp80
g2
S'http://www.reuters.com/article/peopleNews/idUSN1324263520071217'
p81
sg4
S'20071216\xc2\xa010:26 PM EST'
p82
sg6
S'Golden Globes set new faces on road to stardom'
p83
sa(dp84
g2
S'http://www.reuters.com/article/filmNews/idUSN1428272620071217'
p85
sg4
S'20071216\xc2\xa010:26 PM EST'
p86
sg6
S'Globes put Focus on "Atonement" producer'
p87
sa(dp88
g2
S'http://www.reuters.com/article/musicNews/idUSN1652401920071217'
p89
sg4
S'20071216\xc2\xa010:24 PM EST'
p90
sg6
S'New Panic! At The Disco album due in March'
p91
sa(dp92
g2
S'http://www.reuters.com/article/musicNews/idUSN1633499320071217'
p93
sg4
S'20071216\xc2\xa010:24 PM EST'
p94
sg6
S'Diverse compilation "WOWS" fans of Christian music'
p95
sa(dp96
g2
S'http://www.reuters.com/article/musicNews/idUSN1633497220071217'
p97
sg4
S'20071216\xc2\xa010:24 PM EST'
p98
sg6
S'Akon claims crown as premier pop artist of 2007'
p99
sa(dp100
g2
S'http://www.reuters.com/article/musicNews/idUSN1632383620071217'
p101
sg4
S'20071216\xc2\xa010:24 PM EST'
p102
sg6
S'Rising acts lead Latin youth brigade on 2007 charts'
p103
sa(dp104
g2
S'http://www.reuters.com/article/musicNews/idUSN1556789320071217'
p105
sg4
S'20071216\xc2\xa010:24 PM EST'
p106
sg6
S"Marvin Gaye's divorce album to be reissued"
p107
sa(dp108
g2
S'http://www.reuters.com/article/musicNews/idUSBLA55223920071217'
p109
sg4
S'20071216\xc2\xa010:24 PM EST'
p110
sg6
S'Iranian band plans concert with Chris de Burgh'
p111
sa(dp112
g2
S'http://www.reuters.com/article/pressRelease/idUS29589+17-Dec-2007+PRN20071217'
p113
sg4
S'20071216\xc2\xa010:22 PM EST'
p114
sg6
S'ArcelorMittal Announces the Termination of the Sparrows Point Purchase Agreement...'
p115
sa(dp116
g2
S'http://www.reuters.com/article/musicNews/idUSN1423668220071217'
p117
sg4
S'20071216\xc2\xa010:22 PM EST'
p118
sg6
S'Underwood tops country charts in 2007'
p119
sa(dp120
g2
S'http://www.reuters.com/article/politicsNews/idUSN1634446120071217'
p121
sg4
S'20071216\xc2\xa010:20 PM EST'
p122
sg6
S'Ron Paul White House bid raises $4.5 million'
p123
sa(dp124
g2
S'http://www.reuters.com/article/hongkongMktRpt/idUSHKG13947720071217'
p125
sg4
S'20071216\xc2\xa010:19 PM EST'
p126
sg6
S'HK shares slide 3 pct, property shares tumble'
p127
sa(dp128
g2
S'http://www.reuters.com/article/musicNews/idUSN1433517120071217'
p129
sg4
S'20071216\xc2\xa010:10 PM EST'
p130
sg6
S'New music services reach for slice of digital pie'
p131
sa(dp132
g2
S'http://www.reuters.com/article/entertainmentNews/idUSN1633500220071217'
p133
sg4
S'20071216\xc2\xa010:09 PM EST'
p134
sg6
S'Bob Marley and sons take top 3 spots on reggae chart'
p135
sa(dp136
g2
S'http://www.reuters.com/article/musicNews/idUSN1433516520071217'
p137
sg4
S'20071216\xc2\xa010:05 PM EST'
p138
sg6
S"Beyond iPhone, gadgets led year's mobile developments"
p139
sa(dp140
g2
S'http://www.reuters.com/article/pressRelease/idUS27954+17-Dec-2007+PRN20071217'
p141
sg4
S'20071216\xc2\xa010:00 PM EST'
p142
sg6
S'Following Is a Test Release'
p143
sa(dp144
g2
S'http://www.reuters.com/article/reviewsNews/idUSN1325851020071217'
p145
sg4
S'20071216\xc2\xa009:58 PM EST'
p146
sg6
S'"\'Water Horse" a surprise winner'
p147
sa(dp148
g2
S'http://www.reuters.com/article/reviewsNews/idUSN1325788720071217'
p149
sg4
S'20071216\xc2\xa009:58 PM EST'
p150
sg6
S'"Alvin and the Chipmunks" back from hibernation'
p151
sa(dp152
g2
S'http://www.reuters.com/article/reviewsNews/idUSN1325729920071217'
p153
sg4
S'20071216\xc2\xa009:58 PM EST'
p154
sg6
S'Dickens\' "Nicholas Nickleby" a crowd pleaser'
p155
sa(dp156
g2
S'http://www.reuters.com/article/musicNews/idUSN1433497120071217'
p157
sg4
S'20071216\xc2\xa009:58 PM EST'
p158
sg6
S'From Akon to Jay-Z, R&B;/hip-hop a solid performer'
p159
sa(dp160
g2
S'http://www.reuters.com/article/musicNews/idUSN1433500320071217'
p161
sg4
S'20071216\xc2\xa009:53 PM EST'
p162
sg6
S'Sting scores encore performance on classical chart'
p163
sa(dp164
g2
S'http://www.reuters.com/article/industryNews/idUSN1326671720071217'
p165
sg4
S'20071216\xc2\xa009:53 PM EST'
p166
sg6
S'Strike presents dilemma for Globe nominees'
p167
sa(dp168
g2
S'http://www.reuters.com/article/industryNews/idUSN1325788820071217'
p169
sg4
S'20071216\xc2\xa009:53 PM EST'
p170
sg6
S'Hollywood directors hold off talks as writers strike'
p171
sa(dp172
g2
S'http://www.reuters.com/article/industryNews/idUSN1216232920071217'
p173
sg4
S'20071216\xc2\xa009:53 PM EST'
p174
sg6
S'"Atonement" tops Golden Globes'
p175
sa(dp176
g2
S'http://www.reuters.com/article/rbssConsumerGoodsAndRetailNews/idUSTKU00292320071217'
p177
sg4
S'20071216\xc2\xa009:47 PM EST'
p178
sg6
S'Daihatsu sees 2008 global sales at 1.059 mln units'
p179
sa(dp180
g2
S'http://www.reuters.com/article/tokyoMktRpt/idUST15669320071217'
p181
sg4
S'20071216\xc2\xa009:45 PM EST'
p182
sg6
S'Japan stocks fall on banks, but exporters gain'
p183
sa(dp184
g2
S'http://www.reuters.com/article/rbssFinancialServicesAndRealEstateNews/idUSHAN9960920071217'
p185
sg4
S'20071216\xc2\xa009:44 PM EST'
p186
sg6
S'Vietnam brokerage SSI plans 2008 Singapore listing'
p187
sa(dp188
g2
S'http://www.reuters.com/article/rbssConsumerGoodsAndRetailNews/idUSSHA15785620071217'
p189
sg4
S'20071216\xc2\xa009:39 PM EST'
p190
sg6
S'Honda November China car sales jump 36 pct yr/yr'
p191
sa(dp192
g2
S'http://www.reuters.com/article/bondsNews/idUST15133320071217'
p193
sg4
S'20071216\xc2\xa009:38 PM EST'
p194
sg6
S'JGBs fall after Treasuries hit by U.S. price rises'
p195
sa(dp196
g2
S'http://www.reuters.com/article/sportsNews/idUSTON70053520071217'
p197
sg4
S'20071216\xc2\xa009:35 PM EST'
p198
sg6
S'Patriots stay perfect, Dolphins get first win'
p199
sa(dp200
g2
S'http://www.reuters.com/article/televisionNews/idUSN1324779020071217'
p201
sg4
S'20071216\xc2\xa009:35 PM EST'
p202
sg6
S'Courtroom drama "Damages" leads Globes\' TV race'
p203
sa(dp204
g2
S'http://www.reuters.com/article/televisionNews/idUSN1535771320071217'
p205
sg4
S'20071216\xc2\xa009:35 PM EST'
p206
sg6
S'Hollywood moguls show their unity in strike'
p207
sa(dp208
g2
S'http://www.reuters.com/article/economicNews/idUSN1632874620071217'
p209
sg4
S'20071216\xc2\xa009:31 PM EST'
p210
sg6
S'U.S. shoppers holding off for last-minute deals-survey'
p211
sa(dp212
g2
S'http://www.reuters.com/article/pressRelease/idUS25339+17-Dec-2007+PRN20071217'
p213
sg4
S'20071216\xc2\xa009:30 PM EST'
p214
sg6
S'Following Is a Test Release'
p215
sa(dp216
g2
S'http://www.reuters.com/article/hongkongMktRpt/idUSHKG14932820071217'
p217
sg4
S'20071216\xc2\xa009:27 PM EST'
p218
sg6
S'HK Hot Stocks: Uni-President languishes, GOME jumps'
p219
sa(dp220
g2
S'http://www.reuters.com/article/ousiv/idUSN1636576220071217'
p221
sg4
S'20071216\xc2\xa009:27 PM EST'
p222
sg6
S'GAO says SEC not using all its arsenal: report'
p223
sa(dp224
g2
S'http://www.reuters.com/article/businessNews/idUSWEL7855220071217'
p225
sg4
S'20071216\xc2\xa009:26 PM EST'
p226
sg6
S"NZ's Auckland Airport rejects takeover offer"
p227
sa(dp228
g2
S'http://www.reuters.com/article/rbssIndustryMaterialsUtilitiesNews/idUSSYU00367520071217'
p229
sg4
S'20071216\xc2\xa009:22 PM EST'
p230
sg6
S'Rio to invest $793 mln in Australia coal mine'
p231
sa(dp232
g2
S'http://www.reuters.com/article/companyNewsAndPR/idUSN1634370820071217'
p233
sg4
S'20071216\xc2\xa009:19 PM EST'
p234
sg6
S'Hollywood moguls show their unity in strike'
p235
sa(dp236
g2
S'http://www.reuters.com/article/ousiv/idUSN1634396020071217'
p237
sg4
S'20071216\xc2\xa009:14 PM EST'
p238
sg6
S'Tech cos. seen going M&A; route, not IPO, in 2008'
p239
sa(dp240
g2
S'http://www.reuters.com/article/tokyoMktRpt/idUST25399820071217'
p241
sg4
S'20071216\xc2\xa009:10 PM EST'
p242
sg6
S'Japan stocks fall on banks but exporters support'
p243
sa(dp244
g2
S'http://www.reuters.com/article/businessNews/idUSSYD9562320071217'
p245
sg4
S'20071216\xc2\xa009:09 PM EST'
p246
sg6
S'Zinifex bids for Australian nickel miner'
p247
sa(dp248
g2
S'http://www.reuters.com/article/businessNews/idUSSYD8400120071217'
p249
sg4
S'20071216\xc2\xa009:08 PM EST'
p250
sg6
S'Coates shareholders back $1.5 billion National Hire bid'
p251
sa(dp252
g2
S'http://www.reuters.com/article/hongkongMktRpt/idUSHKF07878320071217'
p253
sg4
S'20071216\xc2\xa009:03 PM EST'
p254
sg6
S'HK shares drop across the board, pace Wall St losses'
p255
sa(dp256
g2
S'http://www.reuters.com/article/economicNews/idUST36257720071217'
p257
sg4
S'20071216\xc2\xa009:02 PM EST'
p258
sg6
S'Japan Oct wage earnings revised down to -0.1 pct'
p259
sa(dp260
g2
S'http://www.reuters.com/article/pressRelease/idUS22707+17-Dec-2007+PRN20071217'
p261
sg4
S'20071216\xc2\xa009:00 PM EST'
p262
sg6
S'Following Is a Test Release'
p263
sa(dp264
g2
S'http://www.reuters.com/article/latestCrisis/idUSPEK143637'
p265
sg4
S'20071216\xc2\xa008:58 PM EST'
p266
sg6
S'China marks out zone for sustainable development'
p267
sa(dp268
g2
S'http://www.reuters.com/article/pressRelease/idUS21813+17-Dec-2007+PRN20071217'
p269
sg4
S'20071216\xc2\xa008:49 PM EST'
p270
sg6
S'Millions of Pakistani Citizens are Excluded to Vote in Elections to be Held Jan 2008...'
p271
sa(dp272
g2
S'http://www.reuters.com/article/homepageCrisis/idUSPEK81372._CH_.2400'
p273
sg4
S'20071216\xc2\xa008:42 PM EST'
p274
sg6
S'One million face drought in southwest China'
p275
sa(dp276
g2
S'http://www.reuters.com/article/latestCrisis/idUSPEK81372'
p277
sg4
S'20071216\xc2\xa008:42 PM EST'
p278
sg6
S'One million face drought in southwest China'
p279
sa(dp280
g2
S'http://www.reuters.com/article/companyNewsAndPR/idUSHKG13991120071217'
p281
sg4
S'20071216\xc2\xa008:34 PM EST'
p282
sg6
S'HK Exchange says 12 firms buy back shares'
p283
sa(dp284
g2
S'http://www.reuters.com/article/pressRelease/idUS20198+17-Dec-2007+PRN20071217'
p285
sg4
S'20071216\xc2\xa008:30 PM EST'
p286
sg6
S'Following Is a Test Release'
p287
sa(dp288
g2
S'http://www.reuters.com/article/worldNews/idUSISL3212420071217'
p289
sg4
S'20071216\xc2\xa008:23 PM EST'
p290
sg6
S'London plot suspect escapes in Pakistan'
p291
sa(dp292
g2
S'http://www.reuters.com/article/worldNews/idUSL1766529820071217'
p293
sg4
S'20071216\xc2\xa008:23 PM EST'
p294
sg6
S'U.S. says Pakistan needs free and fair elections'
p295
sa(dp296
g2
S'http://www.reuters.com/article/sportsNews/idUSN1633776220071217'
p297
sg4
S'20071216\xc2\xa008:21 PM EST'
p298
sg6
S'Rodriguez rebuffs Canseco charge of steroids use'
p299
sa(dp300
g2
S'http://www.reuters.com/article/rbssFinancialServicesAndRealEstateNews/idUSSEO13640720071217'
p301
sg4
S'20071216\xc2\xa008:19 PM EST'
p302
sg6
S'Seoul shares fall but builders gain as vote nears'
p303
sa(dp304
g2
S'http://www.reuters.com/article/politicsNews/idUSN0741857920071217'
p305
sg4
S'20071216\xc2\xa008:19 PM EST'
p306
sg6
S'Mexico, U.S. suffer as Rio Grande sucked dry'
p307
sa(dp308
g2
S'http://www.reuters.com/article/inDepthNews/idUSKLR1684620071217'
p309
sg4
S'20071216\xc2\xa008:14 PM EST'
p310
sg6
S'Asian food hub Malaysia takes on health eating'
p311
sa(dp312
g2
S'http://www.reuters.com/article/domesticNews/idUSN2861718520071217'
p313
sg4
S'20071216\xc2\xa008:11 PM EST'
p314
sg6
S'Troubled times for Texas hallucinogen harvesters'
p315
sa(dp316
g2
S'http://www.reuters.com/article/middleeastCrisis/idUSL16725458'
p317
sg4
S'20071216\xc2\xa008:10 PM EST'
p318
sg6
S'Qaeda\'s Zawahri says British "fleeing" from Iraq'
p319
sa(dp320
g2
S'http://www.reuters.com/article/pressRelease/idUS18107+17-Dec-2007+BW20071217'
p321
sg4
S'20071216\xc2\xa008:08 PM EST'
p322
sg6
S'Growth in IP Camera Adoption Driving the Asia Pacific Surveillance Cameras Market'
p323
sa(dp324
g2
S'http://www.reuters.com/article/worldNews/idUSL197535820071217'
p325
sg4
S'20071216\xc2\xa008:07 PM EST'
p326
sg6
S"Violence mars Algerian women's equality"
p327
sa(dp328
g2
S'http://www.reuters.com/article/rbssEnergyNews/idUSBKK9786120071217'
p329
sg4
S'20071216\xc2\xa008:02 PM EST'
p330
sg6
S'PRESS DIGEST - Thai newspapers - December 17'
p331
sa(dp332
g2
S'http://www.reuters.com/article/sportsNews/idUSSP8413020071217'
p333
sg4
S'20071216\xc2\xa008:02 PM EST'
p334
sg6
S'Furyk looks at the positives after Sherwood disappointment'
p335
sa(dp336
g2
S'http://www.reuters.com/article/latestCrisis/idUSL17665298'
p337
sg4
S'20071216\xc2\xa008:02 PM EST'
p338
sg6
S'US says Pakistan needs free and fair elections'
p339
sa(dp340
g2
S'http://www.reuters.com/article/tokyoMktRpt/idUST15429720071217'
p341
sg4
S'20071216\xc2\xa008:00 PM EST'
p342
sg6
S'Japan stocks fall, banks hit on concerns for economy'
p343
sa(dp344
g2
S'http://www.reuters.com/article/bondsNews/idUST9067620071217'
p345
sg4
S'20071216\xc2\xa008:00 PM EST'
p346
sg6
S'JGBs slip after Treasuries hit by U.S. price rises'
p347
sa(dp348
g2
S'http://www.reuters.com/article/pressRelease/idUS17329+17-Dec-2007+PRN20071217'
p349
sg4
S'20071216\xc2\xa008:00 PM EST'
p350
sg6
S'Following Is a Test Release'
p351
sa(dp352
g2
S'http://www.reuters.com/article/rbssConsumerGoodsAndRetailNews/idUSMAN6648520071217'
p353
sg4
S'20071216\xc2\xa007:50 PM EST'
p354
sg6
S'PRESS DIGEST - Philippine newspapers - Dec 17'
p355
sa(dp356
g2
S'http://www.reuters.com/article/rbssConsumerGoodsAndRetailNews/idUSWLF00068620071217'
p357
sg4
S'20071216\xc2\xa007:48 PM EST'
p358
sg6
S"TEXT-NZ's F&P; Appliances says strong interest in finance arm"
p359
sa(dp360
g2
S'http://www.reuters.com/article/companyNewsAndPR/idUSWEN301320071217'
p361
sg4
S'20071216\xc2\xa007:45 PM EST'
p362
sg6
S"Pilgrim's Pride says CEO suffered apparent stroke"
p363
sa(dp364
g2
S'http://www.reuters.com/article/rbssHealthcareNews/idUSSYU00367420071217'
p365
sg4
S'20071216\xc2\xa007:44 PM EST'
p366
sg6
S"TEXT-Australia's API posts 16 pct rise in Q1 sales"
p367
sa(dp368
g2
S'http://www.reuters.com/article/rbssIndustryMaterialsUtilitiesNews/idUSJK9759520071217'
p369
sg4
S'20071216\xc2\xa007:41 PM EST'
p370
sg6
S'PRESS DIGEST-Indonesian Business News - Dec 17'
p371
sa(dp372
g2
S'http://www.reuters.com/article/rbssFinancialServicesAndRealEstateNews/idUSHKG35329720071217'
p373
sg4
S'20071216\xc2\xa007:41 PM EST'
p374
sg6
S'HK stocks seen tracking Wall Street lower'
p375
sa(dp376
g2
S'http://www.reuters.com/article/pressRelease/idUS13615+17-Dec-2007+PRN20071217'
p377
sg4
S'20071216\xc2\xa007:30 PM EST'
p378
sg6
S'Following Is a Test Release'
p379
sa(dp380
g2
S'http://www.reuters.com/article/pressRelease/idUS13611+17-Dec-2007+PRN20071217'
p381
sg4
S'20071216\xc2\xa007:30 PM EST'
p382
sg6
S"Pilgrim's Pride Corporation President and Chief Executive Officer Hospitalized in..."
p383
sa(dp384
g2
S'http://www.reuters.com/article/homepageCrisis/idUSL14875076._CH_.2400'
p385
sg4
S'20071216\xc2\xa007:25 PM EST'
p386
sg6
S'Britain hands over last province to Iraq forces'
p387
sa(dp388
g2
S'http://www.reuters.com/article/middleeastCrisis/idUSL14875076'
p389
sg4
S'20071216\xc2\xa007:25 PM EST'
p390
sg6
S'Britain hands over last province to Iraq forces'
p391
sa(dp392
g2
S'http://www.reuters.com/article/rbssIndustryMaterialsUtilitiesNews/idUSKLR6652520071217'
p393
sg4
S'20071216\xc2\xa007:25 PM EST'
p394
sg6
S'PRESS DIGEST - Malaysia - Dec 17'
p395
sa(dp396
g2
S'http://www.reuters.com/article/ousiv/idUSL1549771020071217'
p397
sg4
S'20071216\xc2\xa007:22 PM EST'
p398
sg6
S'Airbus may sell 4 factories to U.S. Spirit: paper'
p399
sa(dp400
g2
S'http://www.reuters.com/article/worldNews/idUSL0864778620071217'
p401
sg4
S'20071216\xc2\xa007:15 PM EST'
p402
sg6
S'Britain hands over security to Iraq forces'
p403
sa(dp404
g2
S'http://www.reuters.com/article/worldNews/idUSL161365820071217'
p405
sg4
S'20071216\xc2\xa007:15 PM EST'
p406
sg6
S'Qaeda\'s Zawahri says British "fleeing" from Iraq'
p407
sa(dp408
g2
S'http://www.reuters.com/article/ousiv/idUST13641720071217'
p409
sg4
S'20071216\xc2\xa007:14 PM EST'
p410
sg6
S"Nomura in talks to buy UK's Collins Stewart: report"
p411
sa(dp412
g2
S'http://www.reuters.com/article/businessNews/idUSN1636712820071217'
p413
sg4
S'20071216\xc2\xa007:13 PM EST'
p414
sg6
S'Retailers see slower holiday growth: reports'
p415
sa(dp416
g2
S'http://www.reuters.com/article/rbssFinancialServicesAndRealEstateNews/idUSSYD194520071217'
p417
sg4
S'20071216\xc2\xa007:12 PM EST'
p418
sg6
S'Goodman closes A$328 mln perpetual hybrid offer'
p419
sa(dp420
g2
S'http://www.reuters.com/article/tokyoMktRpt/idUSTKF00291020071217'
p421
sg4
S'20071216\xc2\xa007:08 PM EST'
p422
sg6
S'Japan stocks down, tracking falls on Wall St'
p423
sa(dp424
g2
S'http://www.reuters.com/article/rbssFinancialServicesAndRealEstateNews/idUSSEO14637220071217'
p425
sg4
S'20071216\xc2\xa007:05 PM EST'
p426
sg6
S'Seoul shares open down 1.2 pct on inflation worry'
p427
sa(dp428
g2
S'http://www.reuters.com/article/rbssIndustryMaterialsUtilitiesNews/idUSSIN8016220071217'
p429
sg4
S'20071216\xc2\xa007:05 PM EST'
p430
sg6
S'PRESS DIGEST - Singapore newspapers - Dec 17'
p431
sa(dp432
g2
S'http://www.reuters.com/article/rbssIndustryMaterialsUtilitiesNews/idUSSYU00367220071217'
p433
sg4
S'20071216\xc2\xa007:04 PM EST'
p434
sg6
S'Zinifex says still keen on copper, acquisitions'
p435
sa(dp436
g2
S'http://www.reuters.com/article/businessNews/idUSN1656188620071217'
p437
sg4
S'20071216\xc2\xa007:04 PM EST'
p438
sg6
S"Chile's Cencosud to acquire Peru's Grupo Wong"
p439
sa(dp440
g2
S'http://www.reuters.com/article/latestCrisis/idUSKLR16846'
p441
sg4
S'20071216\xc2\xa007:03 PM EST'
p442
sg6
S'FEATURE-Asian food hub Malaysia takes on health eating'
p443
sa(dp444
g2
S'http://www.reuters.com/article/entertainmentNews/idUSN1632965020071217'
p445
sg4
S'20071216\xc2\xa007:03 PM EST'
p446
sg6
S'More Hollywood honors for "Wild"'
p447
sa(dp448
g2
S'http://www.reuters.com/article/rbssFinancialServicesAndRealEstateNews/idUSTFA00290720071217'
p449
sg4
S'20071216\xc2\xa007:01 PM EST'
p450
sg6
S'REFILE-Nomura denies report it may bid for Collins Stewart'
p451
sa(dp452
g2
S'http://www.reuters.com/article/rbssFinancialServicesAndRealEstateNews/idUSL1526789720071217'
p453
sg4
S'20071216\xc2\xa007:01 PM EST'
p454
sg6
S'Emerging markets to boost IPO activity in 08 -E&Y;'
p455
sa(dp456
g2
S'http://www.reuters.com/article/pressRelease/idUS10208+17-Dec-2007+BW20071217'
p457
sg4
S'20071216\xc2\xa007:01 PM EST'
p458
sg6
S'Global IPO Activity Reaches Record Levels in 2007, Says Ernst & Young'
p459
sa(dp460
g2
S'http://www.reuters.com/article/pressRelease/idUS10047+17-Dec-2007+PRN20071217'
p461
sg4
S'20071216\xc2\xa007:00 PM EST'
p462
sg6
S'Following Is a Test Release'
p463
sa(dp464
g2
S'http://www.reuters.com/article/topNews/idUSL1653612720071216'
p465
sg4
S'20071216\xc2\xa006:57 PM EST'
p466
sg6
S'Turkey bombs Kurdish rebels in north Iraq'
p467
sa(dp468
g2
S'http://www.reuters.com/article/companyNewsAndPR/idUST17159920071216'
p469
sg4
S'20071216\xc2\xa006:56 PM EST'
p470
sg6
S'TABLE-Japan Oct tertiary sector index +1.1 pct m/m'
p471
sa(dp472
g2
S'http://www.reuters.com/article/rbssConsumerGoodsAndRetailNews/idUSN1633728520071216'
p473
sg4
S'20071216\xc2\xa006:51 PM EST'
p474
sg6
S"UPDATE 3-Chile's Cencosud to acquire Peru's Grupo Wong"
p475
sa(dp476
g2
S'http://www.reuters.com/article/companyNewsAndPR/idUSTFA00290720071216'
p477
sg4
S'20071216\xc2\xa006:48 PM EST'
p478
sg6
S'Nomura denies report it may bid for Collins Stewart'
p479
sa(dp480
g2
S'http://www.reuters.com/article/middleeastCrisis/idUSL16717769'
p481
sg4
S'20071216\xc2\xa006:46 PM EST'
p482
sg6
S'Turkey bombs Kurdish rebels in north Iraq'
p483
sa(dp484
g2
S'http://www.reuters.com/article/companyNewsAndPR/idUST12854320071216'
p485
sg4
S'20071216\xc2\xa006:44 PM EST'
p486
sg6
S'Foreign brokers place net Japan stock sell orders'
p487
sa(dp488
g2
S'http://www.reuters.com/article/oilRpt/idUSN1633105620071216'
p489
sg4
S'20071216\xc2\xa006:38 PM EST'
p490
sg6
S'UPDATE 2-Winter storm pounds northeastern United States'
p491
sa(dp492
g2
S'http://www.reuters.com/article/latestCrisis/idUSN16331056'
p493
sg4
S'20071216\xc2\xa006:38 PM EST'
p494
sg6
S'Winter storm pounds northeastern United States'
p495
sa(dp496
g2
S'http://www.reuters.com/article/pressRelease/idUS89882+16-Dec-2007+PRN20071216'
p497
sg4
S'20071216\xc2\xa006:30 PM EST'
p498
sg6
S'Following Is a Test Release'
p499
sa(dp500
g2
S'http://www.reuters.com/article/rbssIndustryMaterialsUtilitiesNews/idUSSYD9562320071216'
p501
sg4
S'20071216\xc2\xa006:29 PM EST'
p502
sg6
S'UPDATE 1-Zinifex makes A$775 mln bid for Allegiance Mining'
p503
sa(dp504
g2
S'http://www.reuters.com/article/companyNewsAndPR/idUSSYD9558720071216'
p505
sg4
S'20071216\xc2\xa006:24 PM EST'
p506
sg6
S"UPDATE 1-Australia's Centro hit by credit crunch, shares dive"
p507
sa(dp508
g2
S'http://www.reuters.com/article/rbssEnergyNews/idUSSHA13864920071216'
p509
sg4
S'20071216\xc2\xa006:23 PM EST'
p510
sg6
S"China Shenhua Nov coal output up 16 pct from '06 avg"
p511
sa(dp512
g2
S'http://www.reuters.com/article/rbssFinancialServicesAndRealEstateNews/idUST14479520071216'
p513
sg4
S'20071216\xc2\xa006:21 PM EST'
p514
sg6
S'Japan stocks seen hurt by Wall St jitters over Fed'
p515
sa(dp516
g2
S'http://www.reuters.com/article/rbssConsumerGoodsAndRetailNews/idUSSYU00367120071216'
p517
sg4
S'20071216\xc2\xa006:21 PM EST'
p518
sg6
S'Graincorp says completes A$60 mln share placement'
p519
sa(dp520
g2
S'http://www.reuters.com/article/rbssFinancialServicesAndRealEstateNews/idUSSEO17198820071216'
p521
sg4
S'20071216\xc2\xa006:05 PM EST'
p522
sg6
S'Seoul shares seen lower on U.S. inflation worry'
p523
sa(dp524
g2
S'http://www.reuters.com/article/sportsNews/idUSL1672585420071216'
p525
sg4
S'20071216\xc2\xa006:00 PM EST'
p526
sg6
S"Green Bay's Favre becomes career leader in yards"
p527
sa(dp528
g2
S'http://www.reuters.com/article/rbssConsumerGoodsAndRetailNews/idUSN1637146620071216'
p529
sg4
S'20071216\xc2\xa006:00 PM EST'
p530
sg6
S'UPDATE 2-U.S. retailers see slower holiday growth-reports'
p531
sa(dp532
g2
S'http://www.reuters.com/article/pressRelease/idUS88161+16-Dec-2007+PRN20071216'
p533
sg4
S'20071216\xc2\xa006:00 PM EST'
p534
sg6
S'Following Is a Test Release'
p535
sa(dp536
g2
S'http://www.reuters.com/article/peopleNews/idUSL1538232220071216'
p537
sg4
S'20071216\xc2\xa005:56 PM EST'
p538
sg6
S'Film-maker Zeffirelli vows to help Pope with image'
p539
sa(dp540
g2
S'http://www.reuters.com/article/peopleNews/idUSN1435637220071216'
p541
sg4
S'20071216\xc2\xa005:56 PM EST'
p542
sg6
S'Q&A;: Awards, tours, hits mark strong year for Daughtry'
p543
sa(dp544
g2
S'http://www.reuters.com/article/peopleNews/idUSN1424491920071216'
p545
sg4
S'20071216\xc2\xa005:56 PM EST'
p546
sg6
S'Director in contention with German, Turkish films'
p547
sa(dp548
g2
S'http://www.reuters.com/article/peopleNews/idUSN1325890320071216'
p549
sg4
S'20071216\xc2\xa005:56 PM EST'
p550
sg6
S'John Travolta cashed in male ego for "Hairspray"'
p551
sa(dp552
g2
S'http://www.reuters.com/article/peopleNews/idUSN1325085720071216'
p553
sg4
S'20071216\xc2\xa005:56 PM EST'
p554
sg6
S'Spielberg urges China to press Sudan on Darfur'
p555
sa(dp556
g2
S'http://www.reuters.com/article/peopleNews/idUSN1324263520071216'
p557
sg4
S'20071216\xc2\xa005:56 PM EST'
p558
sg6
S'Golden Globes set new faces on road to stardom'
p559
sa(dp560
g2
S'http://www.reuters.com/article/musicNews/idUSN1652401920071216'
p561
sg4
S'20071216\xc2\xa005:56 PM EST'
p562
sg6
S'New Panic! At The Disco album due in March'
p563
sa(dp564
g2
S'http://www.reuters.com/article/musicNews/idUSN1433516520071216'
p565
sg4
S'20071216\xc2\xa005:56 PM EST'
p566
sg6
S"Beyond iPhone, gadgets led year's mobile developments"
p567
sa(dp568
g2
S'http://www.reuters.com/article/musicNews/idUSN1433502220071216'
p569
sg4
S'20071216\xc2\xa005:56 PM EST'
p570
sg6
S'Shepherd\'s "Backroads" travels to top of blues chart'
p571
sa(dp572
g2
S'http://www.reuters.com/article/musicNews/idUSN1433500320071216'
p573
sg4
S'20071216\xc2\xa005:56 PM EST'
p574
sg6
S'Sting scores encore performance on classical chart'
p575
sa(dp576
g2
S'http://www.reuters.com/article/musicNews/idUSN1433497120071216'
p577
sg4
S'20071216\xc2\xa005:56 PM EST'
p578
sg6
S'From Akon to Jay-Z, R&B;/hip-hop a solid performer'
p579
sa(dp580
g2
S'http://www.reuters.com/article/musicNews/idUSN1423668220071216'
p581
sg4
S'20071216\xc2\xa005:56 PM EST'
p582
sg6
S'Underwood tops country charts in 2007'
p583
sa(dp584
g2
S'http://www.reuters.com/article/musicNews/idUSBLA55223920071216'
p585
sg4
S'20071216\xc2\xa005:56 PM EST'
p586
sg6
S'Iranian band plans concert with Chris de Burgh'
p587
sa(dp588
g2
S'http://www.reuters.com/article/entertainmentNews/idUSN1633342120071216'
p589
sg4
S'20071216\xc2\xa005:54 PM EST'
p590
sg6
S'Dan Fogelberg dies of cancer at 56'
p591
sa(dp592
g2
S'http://www.reuters.com/article/newsMaps/idUSL0864778620071216'
p593
sg4
S'20071216\xc2\xa005:48 PM EST'
p594
sg6
S'Britain hands over security to Iraq forces'
p595
sa(dp596
g2
S'http://www.reuters.com/article/companyNewsAndPR/idUSN1640202420071216'
p597
sg4
S'20071216\xc2\xa005:43 PM EST'
p598
sg6
S"LCA Vision may be eyeing rebound - Barron's"
p599
sa(dp600
g2
S'http://www.reuters.com/article/rbssIndustryMaterialsUtilitiesNews/idUSSYU00366920071216'
p601
sg4
S'20071216\xc2\xa005:43 PM EST'
p602
sg6
S'Zinifex launches bid for Allegiance Mining'
p603
sa(dp604
g2
S'http://www.reuters.com/article/rbssFinancialServicesAndRealEstateNews/idUSSYU00366820071216'
p605
sg4
S'20071216\xc2\xa005:43 PM EST'
p606
sg6
S"Australia's Centro cuts earnings outlook"
p607
sa(dp608
g2
S'http://www.reuters.com/article/pressRelease/idUS86501+16-Dec-2007+PRN20071216'
p609
sg4
S'20071216\xc2\xa005:31 PM EST'
p610
sg6
S'PEMA Warns Winter Storm Not Yet Done; Take Time to Prepare'
p611
sa(dp612
g2
S'http://www.reuters.com/article/pressRelease/idUS86484+16-Dec-2007+BW20071216'
p613
sg4
S'20071216\xc2\xa005:31 PM EST'
p614
sg6
S'1-900 Jackpot Inc (ONJP) Has Entered into Letter of Intent and Understanding'
p615
sa(dp616
g2
S'http://www.reuters.com/article/pressRelease/idUS86430+16-Dec-2007+PRN20071216'
p617
sg4
S'20071216\xc2\xa005:30 PM EST'
p618
sg6
S'Following Is a Test Release'
p619
sa(dp620
g2
S'http://www.reuters.com/article/businessNews/idUSN1535121820071216'
p621
sg4
S'20071216\xc2\xa005:29 PM EST'
p622
sg6
S'With prices high, farming is bright spot in U.S.'
p623
sa(dp624
g2
S'http://www.reuters.com/article/pressRelease/idUS86365+16-Dec-2007+BW20071216'
p625
sg4
S'20071216\xc2\xa005:29 PM EST'
p626
sg6
S'UAW Members Ratify New Three-Year Contract With International Truck and Engine Corporation'
p627
sa(dp628
g2
S'http://www.reuters.com/article/filmNews/idUSN1431993620071216'
p629
sg4
S'20071216\xc2\xa005:21 PM EST'
p630
sg6
S'Producer sues New Line over "Lord of the Rings"'
p631
sa(dp632
g2
S'http://www.reuters.com/article/filmNews/idUSN1428277620071216'
p633
sg4
S'20071216\xc2\xa005:21 PM EST'
p634
sg6
S'"Blood" runs thick with London film critics'
p635
sa(dp636
g2
S'http://www.reuters.com/article/filmNews/idUSN1428272620071216'
p637
sg4
S'20071216\xc2\xa005:21 PM EST'
p638
sg6
S'Globes put Focus on "Atonement" producer'
p639
sa(dp640
g2
S'http://www.reuters.com/article/filmNews/idUSN1427549820071216'
p641
sg4
S'20071216\xc2\xa005:21 PM EST'
p642
sg6
S'"P.S. I Love You" an awkward footnote'
p643
sa(dp644
g2
S'http://www.reuters.com/article/entertainmentNews/idUSN1632658820071216'
p645
sg4
S'20071216\xc2\xa005:20 PM EST'
p646
sg6
S'Will Smith, Chipmunks send box office soaring'
p647
sa(dp648
g2
S'http://www.reuters.com/article/entertainmentNews/idUSHO67990020071216'
p649
sg4
S'20071216\xc2\xa005:12 PM EST'
p650
sg6
S'CORRECTED: Will Smith, Chipmunks send box office soaring'
p651
sa(dp652
g2
S'http://www.reuters.com/article/newsOne/idUSDAH66861820071216'
p653
sg4
S'20071216\xc2\xa005:07 PM EST'
p654
sg6
S'Iran says U.S. report a "declaration of surrender"'
p655
sa(dp656
g2
S'http://www.reuters.com/article/newsOne/idUSN1633351220071216'
p657
sg4
S'20071216\xc2\xa005:07 PM EST'
p658
sg6
S'Iran says has "extensive plans" to tackle inflation'
p659
sa(dp660
g2
S'http://www.reuters.com/article/sportsNews/idUSL1672442520071216'
p661
sg4
S'20071216\xc2\xa005:06 PM EST'
p662
sg6
S'Kickoff return touchdown helps Bucs seal NFC South'
p663
sa(dp664
g2
S'http://www.reuters.com/article/economicNews/idUSDAH67426520071216'
p665
sg4
S'20071216\xc2\xa005:00 PM EST'
p666
sg6
S'Iran says has "extensive plans" to tackle inflation'
p667
sa(dp668
g2
S'http://www.reuters.com/article/pressRelease/idUS84609+16-Dec-2007+PRN20071216'
p669
sg4
S'20071216\xc2\xa005:00 PM EST'
p670
sg6
S'Following Is a Test Release'
p671
sa(dp672
g2
S'http://www.reuters.com/article/rbssConsumerGoodsAndRetailNews/idUSN1633141720071216'
p673
sg4
S'20071216\xc2\xa004:59 PM EST'
p674
sg6
S"Chile's Cencosud to acquire Peru's Grupo Wong"
p675
sa(dp676
g2
S'http://www.reuters.com/article/rbssIndustryMaterialsUtilitiesNews/idUSL164902720071216'
p677
sg4
S'20071216\xc2\xa004:58 PM EST'
p678
sg6
S'Airline SAS to put off decision on sales of units'
p679
sa(dp680
g2
S'http://www.reuters.com/article/worldNews/idUSL161365820071216'
p681
sg4
S'20071216\xc2\xa004:56 PM EST'
p682
sg6
S'Qaeda\'s Zawahri says British "fleeing" from Iraq'
p683
sa(dp684
g2
S'http://www.reuters.com/article/pressRelease/idUS84295+16-Dec-2007+PRN20071216'
p685
sg4
S'20071216\xc2\xa004:54 PM EST'
p686
sg6
S'AFI Awards 2007 Official Selections Announced'
p687
sa(dp688
g2
S'http://www.reuters.com/article/companyNewsAndPR/idUSN1633050620071216'
p689
sg4
S'20071216\xc2\xa004:50 PM EST'
p690
sg6
S"UPDATE 2-Mexico's Cemex sees strong sales, eye on U.S. market"
p691
sa(dp692
g2
S'http://www.reuters.com/article/sportsNews/idUSL1672495020071216'
p693
sg4
S'20071216\xc2\xa004:46 PM EST'
p694
sg6
S'Dolphins end losing streak with OT win over Ravens'
p695
sa(dp696
g2
S'http://www.reuters.com/article/sportsNews/idUSISS47266220071216'
p697
sg4
S'20071216\xc2\xa004:46 PM EST'
p698
sg6
S'NFL results'
p699
sa(dp700
g2
S'http://www.reuters.com/article/pressRelease/idUS83914+16-Dec-2007+PRN20071216'
p701
sg4
S'20071216\xc2\xa004:45 PM EST'
p702
sg6
S'Update: Commonwealth of Pennsylvania Responding to Second Winter Storm in Less Than...'
p703
sa(dp704
g2
S'http://www.reuters.com/article/newsOne/idUSL1670303120071216'
p705
sg4
S'20071216\xc2\xa004:43 PM EST'
p706
sg6
S'Palestinians warn settlement plan will cloud talks'
p707
sa(dp708
g2
S'http://www.reuters.com/article/worldNews/idUSWEB079920071216'
p709
sg4
S'20071216\xc2\xa004:39 PM EST'
p710
sg6
S"Zuma expected to win leadership of South Africa's ANC"
p711
sa(dp712
g2
S'http://www.reuters.com/article/newsOne/idUSN1636992920071216'
p713
sg4
S'20071216\xc2\xa004:30 PM EST'
p714
sg6
S'Winter storm pounds northeastern U.S.'
p715
sa(dp716
g2
S'http://www.reuters.com/article/pressRelease/idUS81843+16-Dec-2007+PRN20071216'
p717
sg4
S'20071216\xc2\xa004:30 PM EST'
p718
sg6
S'Following Is a Test Release'
p719
sa(dp720
g2
S'http://www.reuters.com/article/domesticNews/idUSN1654295420071216'
p721
sg4
S'20071216\xc2\xa004:28 PM EST'
p722
sg6
S'Furyk closes in on Woods at Target World Challenge'
p723
sa(dp724
g2
S'http://www.reuters.com/article/peopleNews/idUSN1323313920071216'
p725
sg4
S'20071216\xc2\xa004:24 PM EST'
p726
sg6
S'Madonna and Leonard Cohen among Hall of Fame inductees'
p727
sa(dp728
g2
S'http://www.reuters.com/article/middleeastCrisis/idUSL1613658'
p729
sg4
S'20071216\xc2\xa004:24 PM EST'
p730
sg6
S'Qaeda\'s Zawahri says British "fleeing" from Iraq-Web'
p731
sa(dp732
g2
S'http://www.reuters.com/article/entertainmentNews/idUSN1633002220071216'
p733
sg4
S'20071216\xc2\xa004:23 PM EST'
p734
sg6
S'Helena Bonham Carter, Burton have second baby'
p735
sa(dp736
g2
S'http://www.reuters.com/article/musicNews/idUSN1433515720071216'
p737
sg4
S'20071216\xc2\xa004:21 PM EST'
p738
sg6
S'Country music dominates U.S. radio in 2007'
p739
sa(dp740
g2
S'http://www.reuters.com/article/pressRelease/idUS81158+16-Dec-2007+PRN20071216'
p741
sg4
S'20071216\xc2\xa004:20 PM EST'
p742
sg6
S'Massachusetts Mitt Meets Right Wing Romney on Meet the Press'
p743
sa(dp744
g2
S'http://www.reuters.com/article/newsOne/idUSL1672086120071216'
p745
sg4
S'20071216\xc2\xa004:13 PM EST'
p746
sg6
S'U.S. to pledge over $550 mln in Palestinian aid'
p747
sa(dp748
g2
S'http://www.reuters.com/article/scienceNews/idUSN1433884920071216'
p749
sg4
S'20071216\xc2\xa004:07 PM EST'
p750
sg6
S"Mutation in one gene tied to Lou Gehrig's disease"
p751
sa(dp752
g2
S'http://www.reuters.com/article/pressRelease/idUS79819+16-Dec-2007+PRN20071216'
p753
sg4
S'20071216\xc2\xa004:00 PM EST'
p754
sg6
S"4.5 Percent of Inmates Report Sexual Victimization in the Nation's State and Federal..."
p755
sa(dp756
g2
S'http://www.reuters.com/article/rbssConsumerGoodsAndRetailNews/idUSSEO2843520071216'
p757
sg4
S'20071216\xc2\xa004:00 PM EST'
p758
sg6
S'S.Korea Nov dept store sales rise 8.5 pct yr/yr'
p759
sa(dp760
g2
S'http://www.reuters.com/article/pressRelease/idUS79817+16-Dec-2007+PRN20071216'
p761
sg4
S'20071216\xc2\xa004:00 PM EST'
p762
sg6
S'Following Is a Test Release'
p763
sa(dp764
g2
S'http://www.reuters.com/article/rbssIndustryMaterialsUtilitiesNews/idUSWEL7855220071216'
p765
sg4
S'20071216\xc2\xa003:55 PM EST'
p766
sg6
S"UPDATE 1-NZ's Auckland Airport rejects takeover offer"
p767
sa(dp768
g2
S'http://www.reuters.com/article/newsOne/idUSL1671225720071216'
p769
sg4
S'20071216\xc2\xa003:43 PM EST'
p770
sg6
S'Turk general says U.S. approved strikes in northern Iraq'
p771
sa(dp772
g2
S'http://www.reuters.com/article/televisionNews/idUSN1327798020071216'
p773
sg4
S'20071216\xc2\xa003:39 PM EST'
p774
sg6
S'TV talk-show hosts eye January return: report'
p775
sa(dp776
g2
S'http://www.reuters.com/article/televisionNews/idUSN1326671720071216'
p777
sg4
S'20071216\xc2\xa003:39 PM EST'
p778
sg6
S'Strike presents dilemma for Globe nominees'
p779
sa(dp780
g2
S'http://www.reuters.com/article/televisionNews/idUSN1324779020071216'
p781
sg4
S'20071216\xc2\xa003:39 PM EST'
p782
sg6
S'Courtroom drama "Damages" leads Globes\' TV race'
p783
sa(dp784
g2
S'http://www.reuters.com/article/televisionNews/idUSN1432521520071216'
p785
sg4
S'20071216\xc2\xa003:39 PM EST'
p786
sg6
S'"Price Is Right" winner claims new car a wreck'
p787
sa(dp788
g2
S'http://www.reuters.com/article/televisionNews/idUSN1428281720071216'
p789
sg4
S'20071216\xc2\xa003:39 PM EST'
p790
sg6
S'"Today" winning streak hits 12 years'
p791
sa(dp792
g2
S'http://www.reuters.com/article/televisionNews/idUSN1427811520071216'
p793
sg4
S'20071216\xc2\xa003:39 PM EST'
p794
sg6
S'AmEx\'s "30 Rock" commercials blend with series'
p795
sa(dp796
g2
S'http://www.reuters.com/article/televisionNews/idUSN1427392120071216'
p797
sg4
S'20071216\xc2\xa003:39 PM EST'
p798
sg6
S'A killer site for "Dexter" victims'
p799
sa(dp800
g2
S'http://www.reuters.com/article/industryNews/idUSN1325788820071216'
p801
sg4
S'20071216\xc2\xa003:39 PM EST'
p802
sg6
S'Hollywood directors hold off talks as writers strike'
p803
sa(dp804
g2
S'http://www.reuters.com/article/industryNews/idUSN1323400220071216'
p805
sg4
S'20071216\xc2\xa003:39 PM EST'
p806
sg6
S'Dow Jones shareholders approve News Corp buyout'
p807
sa(dp808
g2
S'http://www.reuters.com/article/industryNews/idUSN1216232920071216'
p809
sg4
S'20071216\xc2\xa003:39 PM EST'
p810
sg6
S'"Atonement" tops Golden Globes'
p811
sa(dp812
g2
S'http://www.reuters.com/article/entertainmentNews/idUSN1464427120071216'
p813
sg4
S'20071216\xc2\xa003:38 PM EST'
p814
sg6
S"Writers' strike ends most U.S. scripted TV work"
p815
sa(dp816
g2
S'http://www.reuters.com/article/middleeastCrisis/idUSL16718250'
p817
sg4
S'20071216\xc2\xa003:36 PM EST'
p818
sg6
S'Top Turk general says US approved strikes in N.Iraq'
p819
sa(dp820
g2
S'http://www.reuters.com/article/businessNews/idUSN1637089220071216'
p821
sg4
S'20071216\xc2\xa003:35 PM EST'
p822
sg6
S"Buffett's Berkshire Hathaway overvalued: Barron's"
p823
sa(dp824
g2
S'http://www.reuters.com/article/pressRelease/idUS78554+16-Dec-2007+PRN20071216'
p825
sg4
S'20071216\xc2\xa003:30 PM EST'
p826
sg6
S'Following Is a Test Release'
p827
sa(dp828
g2
S'http://www.reuters.com/article/companyNewsAndPR/idUSN1633407620071216'
p829
sg4
S'20071216\xc2\xa003:28 PM EST'
p830
sg6
S"Mexico's Cemex sees 4th-quarter sales up 30 pct"
p831
sa(dp832
g2
S'http://www.reuters.com/article/rbssIndustryMaterialsUtilitiesNews/idUSWLF00068520071216'
p833
sg4
S'20071216\xc2\xa003:18 PM EST'
p834
sg6
S"NZ's Auckland Airport rejects takeover offer"
p835
sa(dp836
g2
S'http://www.reuters.com/article/entertainmentNews/idUSL1655697720071216'
p837
sg4
S'20071216\xc2\xa003:16 PM EST'
p838
sg6
S'Lebanon war film takes award at Dubai film festival'
p839
sa(dp840
g2
S'http://www.reuters.com/article/newsOne/idUSL1671054420071216'
p841
sg4
S'20071216\xc2\xa003:16 PM EST'
p842
sg6
S'Iraq summons Turkish envoy over air strikes'
p843
sa(dp844
g2
S'http://www.reuters.com/article/middleeastCrisis/idUSL16540441'
p845
sg4
S'20071216\xc2\xa003:10 PM EST'
p846
sg6
S'Turkey bombs north Iraq, woman killed'
p847
sa(dp848
g2
S'http://www.reuters.com/article/rbssIndustryMaterialsUtilitiesNews/idUSWLF00068320071216'
p849
sg4
S'20071216\xc2\xa003:10 PM EST'
p850
sg6
S"TEXT-NZ's PGG Wrightson appoints Tim Miles as CEO"
p851
sa(dp852
g2
S'http://www.reuters.com/article/middleeastCrisis/idUSL16710544'
p853
sg4
S'20071216\xc2\xa003:09 PM EST'
p854
sg6
S'REFILE-Iraq summons Turkish envoy over air strikes'
p855
sa(dp856
g2
S'http://www.reuters.com/article/newsMaps/idUSL1609311320071216'
p857
sg4
S'20071216\xc2\xa003:06 PM EST'
p858
sg6
S"S.Africa's ruling ANC to vote for leader on Monday"
p859
sa(dp860
g2
S'http://www.reuters.com/article/scienceNews/idUSB33868020071216'
p861
sg4
S'20071216\xc2\xa003:06 PM EST'
p862
sg6
S'Spacewalkers to inspect station for meteoroid strike'
p863
sa(dp864
g2
S'http://www.reuters.com/article/rbssFinancialServicesAndRealEstateNews/idUSSYD3897720071216'
p865
sg4
S'20071216\xc2\xa003:06 PM EST'
p866
sg6
S'PRESS DIGEST-Australian General News - Dec 17'
p867
sa(dp868
g2
S'http://www.reuters.com/article/pressRelease/idUS77377+16-Dec-2007+BW20071216'
p869
sg4
S'20071216\xc2\xa003:06 PM EST'
p870
sg6
S'CEMEX Provides Guidance for the Fourth Quarter of 2007'
p871
sa(dp872
g2
S'http://www.reuters.com/article/pressRelease/idUS77372+16-Dec-2007+PRN20071216'
p873
sg4
S'20071216\xc2\xa003:05 PM EST'
p874
sg6
S'NEWSWEEK: International Editions: Highlights and Exclusives, December 24, 2007 Issue'
p875
sa(dp876
g2
S'http://www.reuters.com/article/bondsNews/idUSN1633724320071216'
p877
sg4
S'20071216\xc2\xa003:00 PM EST'
p878
sg6
S'GLOBAL ECONOMY WEEKAHEAD-Year-end Libor to test liquidity plan'
p879
sa(dp880
g2
S'http://www.reuters.com/article/pressRelease/idUS77007+16-Dec-2007+PRN20071216'
p881
sg4
S'20071216\xc2\xa003:00 PM EST'
p882
sg6
S'Following Is a Test Release'
p883
sa(dp884
g2
S'http://www.reuters.com/article/businessNews/idUSN1636712820071216'
p885
sg4
S'20071216\xc2\xa002:58 PM EST'
p886
sg6
S'Retailers see slower holiday growth: reports'
p887
sa(dp888
g2
S'http://www.reuters.com/article/inDepthNews/idUSSP3426220071216'
p889
sg4
S'20071216\xc2\xa002:58 PM EST'
p890
sg6
S'Helmets now mandatory in motorbike-crazy Vietnam'
p891
sa(dp892
g2
S'http://www.reuters.com/article/middleeastCrisis/idUSL16712257'
p893
sg4
S'20071216\xc2\xa002:58 PM EST'
p894
sg6
S'Top Turk general says US approved strikes in N.Iraq'
p895
sa(dp896
g2
S'http://www.reuters.com/article/newsMaps/idUSL1658750220071216'
p897
sg4
S'20071216\xc2\xa002:50 PM EST'
p898
sg6
S'Somali PM dismisses cabinet in drive for unity'
p899
sa(dp900
g2
S'http://www.reuters.com/article/homepageCrisis/idUSL16587502._CH_.2400'
p901
sg4
S'20071216\xc2\xa002:46 PM EST'
p902
sg6
S'Somali PM dismisses cabinet in drive for unity'
p903
sa(dp904
g2
S'http://www.reuters.com/article/latestCrisis/idUSL16587502'
p905
sg4
S'20071216\xc2\xa002:46 PM EST'
p906
sg6
S'Somali PM dismisses cabinet in drive for unity'
p907
sa(dp908
g2
S'http://www.reuters.com/article/sportsNews/idUSB52658820071216'
p909
sg4
S'20071216\xc2\xa002:42 PM EST'
p910
sg6
S"Spurs celebrate Duncan's return with victory"
p911
sa(dp912
g2
S'http://www.reuters.com/article/entertainmentNews/idUSN1465283920071216'
p913
sg4
S'20071216\xc2\xa002:37 PM EST'
p914
sg6
S'Golden Globes give little clarity to Oscar race'
p915
sa(dp916
g2
S'http://www.reuters.com/article/entertainmentNews/idUSN1326281620071216'
p917
sg4
S'20071216\xc2\xa002:37 PM EST'
p918
sg6
S'Will Smith, Chipmunks send box office soaring'
p919
sa(dp920
g2
S'http://www.reuters.com/article/environmentNews/idUSL1542410220071216'
p921
sg4
S'20071216\xc2\xa002:30 PM EST'
p922
sg6
S'Visiting Antarctic, Amazon helped climate case: Ban'
p923
sa(dp924
g2
S'http://www.reuters.com/article/environmentNews/idUSL1657919320071216'
p925
sg4
S'20071216\xc2\xa002:30 PM EST'
p926
sg6
S'IEA urges bold steps to cut CO2 emissions: report'
p927
sa(dp928
g2
S'http://www.reuters.com/article/environmentNews/idUSL1518839120071216'
p929
sg4
S'20071216\xc2\xa002:30 PM EST'
p930
sg6
S'Governments pleased with "defining" climate deal'
p931
sa(dp932
g2
S'http://www.reuters.com/article/environmentNews/idUSSHA13646320071216'
p933
sg4
S'20071216\xc2\xa002:30 PM EST'
p934
sg6
S'China rolls out own hybrid car'
p935
sa(dp936
g2
S'http://www.reuters.com/article/environmentNews/idUSPEK15280420071216'
p937
sg4
S'20071216\xc2\xa002:30 PM EST'
p938
sg6
S'China axes 13 coal power plants, cites pollution'
p939
sa(dp940
g2
S'http://www.reuters.com/article/environmentNews/idUSN1516566020071216'
p941
sg4
S'20071216\xc2\xa002:30 PM EST'
p942
sg6
S'W.House voices concerns on future climate talks'
p943
sa(dp944
g2
S'http://www.reuters.com/article/environmentNews/idUSN1429395620071216'
p945
sg4
S'20071216\xc2\xa002:30 PM EST'
p946
sg6
S'Seas could rise twice as high as predicted: study'
p947
sa(dp948
g2
S'http://www.reuters.com/article/environmentNews/idUSL1661951720071216'
p949
sg4
S'20071216\xc2\xa002:30 PM EST'
p950
sg6
S'Carmakers can pool CO2 emissions: EU draft'
p951
sa(dp952
g2
S'http://www.reuters.com/article/inDepthNews/idUSL1548100520071216'
p953
sg4
S'20071216\xc2\xa002:30 PM EST'
p954
sg6
S'German ship fights climate change with high-tech kite'
p955
sa(dp956
g2
S'http://www.reuters.com/article/pressRelease/idUS75582+16-Dec-2007+PRN20071216'
p957
sg4
S'20071216\xc2\xa002:30 PM EST'
p958
sg6
S'Following Is a Test Release'
p959
sa(dp960
g2
S'http://www.reuters.com/article/politicsNews/idUSN1535686420071216'
p961
sg4
S'20071216\xc2\xa002:23 PM EST'
p962
sg6
S'Clinton and McCain win big newspaper endorsements'
p963
sa(dp964
g2
S'http://www.reuters.com/article/pressRelease/idUS75185+16-Dec-2007+PRN20071216'
p965
sg4
S'20071216\xc2\xa002:20 PM EST'
p966
sg6
S'NEWSWEEK: Media Lead Sheet/December 24, 2007 Issue'
p967
sa(dp968
g2
S'http://www.reuters.com/article/companyNewsAndPR/idUSN1637180720071216'
p969
sg4
S'20071216\xc2\xa002:14 PM EST'
p970
sg6
S'UPDATE 1-Will Smith, Chipmunks send box office soaring'
p971
sa(dp972
g2
S'http://www.reuters.com/article/companyNewsAndPR/idUSN1637250220071216'
p973
sg4
S'20071216\xc2\xa002:08 PM EST'
p974
sg6
S"Citizens Communications could generate 35 pct return-Barron's"
p975
sa(dp976
g2
S'http://www.reuters.com/article/mergersNews/idUSL1629464420071216'
p977
sg4
S'20071216\xc2\xa002:04 PM EST'
p978
sg6
S'KfW says its IKB losses could top 5 bln eur -report'
p979
sa(dp980
g2
S'http://www.reuters.com/article/pressRelease/idUS74214+16-Dec-2007+PRN20071216'
p981
sg4
S'20071216\xc2\xa002:00 PM EST'
p982
sg6
S'Following Is a Test Release'
p983
sa(dp984
g2
S'http://www.reuters.com/article/pressRelease/idUS74210+16-Dec-2007+PRN20071216'
p985
sg4
S'20071216\xc2\xa002:00 PM EST'
p986
sg6
S'Lincoln Institute and Peking University Establish Center for Urban Development and...'
p987
sa(dp988
g2
S'http://www.reuters.com/article/topNews/idUSN1636609020071216'
p989
sg4
S'20071216\xc2\xa001:58 PM EST'
p990
sg6
S'Lawmakers say not deterred on CIA probe'
p991
sa(dp992
g2
S'http://www.reuters.com/article/bondsNews/idUSL1668786220071216'
p993
sg4
S'20071216\xc2\xa001:50 PM EST'
p994
sg6
S'French gas prices will probably rise, minister says'
p995
sa(dp996
g2
S'http://www.reuters.com/article/reutersEdge/idUSN1635266220071216'
p997
sg4
S'20071216\xc2\xa001:48 PM EST'
p998
sg6
S'Brazil and Chile court Bolivia with investment deals'
p999
sa(dp1000
g2
S'http://www.reuters.com/article/companyNewsAndPR/idUSN1636449420071216'
p1001
sg4
S'20071216\xc2\xa001:46 PM EST'
p1002
sg6
S"J.C. Penney shares set for rebound - Barron's"
p1003
sa(dp1004
g2
S'http://www.reuters.com/article/topNews/idUSL1661135120071216'
p1005
sg4
S'20071216\xc2\xa001:43 PM EST'
p1006
sg6
S'Israel allows Gazan pilgrims through border'
p1007
sa(dp1008
g2
S'http://www.reuters.com/article/companyNewsAndPR/idUSL1667899020071216'
p1009
sg4
S'20071216\xc2\xa001:40 PM EST'
p1010
sg6
S'Algeria says bank sale may resume February or March'
p1011
sa(dp1012
g2
S'http://www.reuters.com/article/ousivMolt/idUSN1634396020071216'
p1013
sg4
S'20071216\xc2\xa001:36 PM EST'
p1014
sg6
S'Tech cos. seen going M&A; route, not IPO, in 2008'
p1015
sa(dp1016
g2
S'http://www.reuters.com/article/businessNews/idUSN1636576220071216'
p1017
sg4
S'20071216\xc2\xa001:34 PM EST'
p1018
sg6
S'GAO says SEC not using all its arsenal: report'
p1019
sa(dp1020
g2
S'http://www.reuters.com/article/musicNews/idUSN1433502320071216'
p1021
sg4
S'20071216\xc2\xa001:31 PM EST'
p1022
sg6
S'Celtic artists reign on 2007 world-music charts'
p1023
sa(dp1024
g2
S'http://www.reuters.com/article/technologyNews/idUSN1433517120071216'
p1025
sg4
S'20071216\xc2\xa001:31 PM EST'
p1026
sg6
S'New music services reach for slice of digital pie'
p1027
sa(dp1028
g2
S'http://www.reuters.com/article/pressRelease/idUS72973+16-Dec-2007+PRN20071216'
p1029
sg4
S'20071216\xc2\xa001:30 PM EST'
p1030
sg6
S'Following Is a Test Release'
p1031
sa(dp1032
g2
S'http://www.reuters.com/article/sportsNews/idUSN1637146720071216'
p1033
sg4
S'20071216\xc2\xa001:28 PM EST'
p1034
sg6
S'Sabbatini pulls out of Target World Challenge'
p1035
sa(dp1036
g2
S'http://www.reuters.com/article/technologyNews/idUSWEN299920071216'
p1037
sg4
S'20071216\xc2\xa001:24 PM EST'
p1038
sg6
S'Nintendo and GameStop to guarantee Wiis after holiday'
p1039
sa(dp1040
g2
S'http://www.reuters.com/article/filmNews/idUSN139941320071216'
p1041
sg4
S'20071216\xc2\xa001:22 PM EST'
p1042
sg6
S'"Atonement" filmmakers victorious in battle'
p1043
sa(dp1044
g2
S'http://www.reuters.com/article/worldNews/idUSL1668836020071216'
p1045
sg4
S'20071216\xc2\xa001:17 PM EST'
p1046
sg6
S'Zimbabwe opposition says talks with ZANU-PF stuck'
p1047
sa(dp1048
g2
S'http://www.reuters.com/article/companyNewsAndPR/idUSN0934193320071216'
p1049
sg4
S'20071216\xc2\xa001:09 PM EST'
p1050
sg6
S'The top films at the North American box office'
p1051
sa(dp1052
g2
S'http://www.reuters.com/article/etfNews/idUSN1634226220071216'
p1053
sg4
S'20071216\xc2\xa001:01 PM EST'
p1054
sg6
S'WEEKAHEAD-Money market behavior to set emerging market tone'
p1055
sa(dp1056
g2
S'http://www.reuters.com/article/pressRelease/idUS71624+16-Dec-2007+PRN20071216'
p1057
sg4
S'20071216\xc2\xa001:00 PM EST'
p1058
sg6
S'Following Is a Test Release'
p1059
sa(dp1060
g2
S'http://www.reuters.com/article/ousiv/idUSN1264217220071216'
p1061
sg4
S'20071216\xc2\xa012:59 PM EST'
p1062
sg6
S'World is not flat, academic says'
p1063
sa(dp1064
g2
S'http://www.reuters.com/article/lifestyleMolt/idUSL1660472920071216'
p1065
sg4
S'20071216\xc2\xa012:58 PM EST'
p1066
sg6
S'German post-war expellees insist on Berlin museum'
p1067
sa(dp1068
g2
S'http://www.reuters.com/article/newsOne/idUSL1665055020071216'
p1069
sg4
S'20071216\xc2\xa012:57 PM EST'
p1070
sg6
S'Serbia sees Russia, China backing more Kosovo talks'
p1071
sa(dp1072
g2
S'http://www.reuters.com/article/newsOne/idUSN1635963720071216'
p1073
sg4
S'20071216\xc2\xa012:53 PM EST'
p1074
sg6
S'Bali climate deal paves way for hotter U.S. debate'
p1075
sa(dp1076
g2
S'http://www.reuters.com/article/latestCrisis/idUSN16370934'
p1077
sg4
S'20071216\xc2\xa012:47 PM EST'
p1078
sg6
S"U.S. lawmakers say won't be deterred on CIA probe"
p1079
sa(dp1080
g2
S'http://www.reuters.com/article/topNews/idUSISL3212420071216'
p1081
sg4
S'20071216\xc2\xa012:46 PM EST'
p1082
sg6
S'London plot suspect escapes in Pakistan'
p1083
sa(dp1084
g2
S'http://www.reuters.com/article/topNews/idUSISL8613520071216'
p1085
sg4
S'20071216\xc2\xa012:46 PM EST'
p1086
sg6
S'Despite emergency end, many Pakistanis feel duped'
p1087
sa(dp1088
g2
S'http://www.reuters.com/article/worldNews/idUSL1662989920071216'
p1089
sg4
S'20071216\xc2\xa012:36 PM EST'
p1090
sg6
S'Congo displaced recruited to fight: U.N. refugee head'
p1091
sa(dp1092
g2
S'http://www.reuters.com/article/worldNews/idUSMCD63655120071216'
p1093
sg4
S'20071216\xc2\xa012:35 PM EST'
p1094
sg6
S'Darfur rebels say attack Sudan army, capture 29'
p1095
sa(dp1096
g2
S'http://www.reuters.com/article/worldNews/idUSDEL8493420071216'
p1097
sg4
S'20071216\xc2\xa012:34 PM EST'
p1098
sg6
S'Maoists spring 300 prisoners from Indian jail'
p1099
sa(dp1100
g2
S'http://www.reuters.com/article/worldNews/idUSDEL4022120071216'
p1101
sg4
S'20071216\xc2\xa012:34 PM EST'
p1102
sg6
S"India's Gujarat votes amid deep religious divide"
p1103
sa(dp1104
g2
S'http://www.reuters.com/article/worldNews/idUSL1660542020071216'
p1105
sg4
S'20071216\xc2\xa012:32 PM EST'
p1106
sg6
S'Russia expels journalist critical of Kremlin'
p1107
sa(dp1108
g2
S'http://www.reuters.com/article/topNews/idUSYAT64670320071216'
p1109
sg4
S'20071216\xc2\xa012:31 PM EST'
p1110
sg6
S"U.S. confident troop cuts won't hurt Iraq security"
p1111
sa(dp1112
g2
S'http://www.reuters.com/article/sportsNews/idUSL1601511720071216'
p1113
sg4
S'20071216\xc2\xa012:30 PM EST'
p1114
sg6
S'Palander wins again in Alta Badia'
p1115
sa(dp1116
g2
S'http://www.reuters.com/article/pressRelease/idUS70490+16-Dec-2007+PRN20071216'
p1117
sg4
S'20071216\xc2\xa012:30 PM EST'
p1118
sg6
S'Following Is a Test Release'
p1119
sa(dp1120
g2
S'http://www.reuters.com/article/worldNews/idUSDHA30271620071216'
p1121
sg4
S'20071216\xc2\xa012:27 PM EST'
p1122
sg6
S'Bangladesh marks Victory Day amid call for war trials'
p1123
sa(dp1124
g2
S'http://www.reuters.com/article/europeCrisis/idUSL16650550'
p1125
sg4
S'20071216\xc2\xa012:26 PM EST'
p1126
sg6
S'Serbia sees Russia, China backing more Kosovo talks'
p1127
sa(dp1128
g2
S'http://www.reuters.com/article/scienceNews/idUSJAK8180520071216'
p1129
sg4
S'20071216\xc2\xa012:23 PM EST'
p1130
sg6
S'Hungary offers Indonesia loan for bird flu vaccine'
p1131
sa(dp1132
g2
S'http://www.reuters.com/article/worldNews/idUSL1662411920071216'
p1133
sg4
S'20071216\xc2\xa012:21 PM EST'
p1134
sg6
S'Gunmen kidnap French journalist in north Somalia'
p1135
sa(dp1136
g2
S'http://www.reuters.com/article/healthNews/idUSL1530586720071216'
p1137
sg4
S'20071216\xc2\xa012:18 PM EST'
p1138
sg6
S'One dead, five infected with bird flu in Pakistan'
p1139
sa(dp1140
g2
S'http://www.reuters.com/article/topNews/idUSN1631453220071216'
p1141
sg4
S'20071216\xc2\xa012:18 PM EST'
p1142
sg6
S'FACTBOX: Presidential candidates on climate change'
p1143
sa(dp1144
g2
S'http://www.reuters.com/article/pressRelease/idUS69905+16-Dec-2007+PRN20071216'
p1145
sg4
S'20071216\xc2\xa012:14 PM EST'
p1146
sg6
S'Stock Picking Software from Investing Systems Delivers Spectacular One-Day Gains...'
p1147
sa(dp1148
g2
S'http://www.reuters.com/article/topNews/idUSL1657822120071216'
p1149
sg4
S'20071216\xc2\xa012:14 PM EST'
p1150
sg6
S'Iran says to discuss Iraq "terrorist groups" with U.S.'
p1151
sa(dp1152
g2
S'http://www.reuters.com/article/worldNews/idUSL1659112320071216'
p1153
sg4
S'20071216\xc2\xa012:12 PM EST'
p1154
sg6
S'Soviet dissident opens long-shot bid for Kremlin'
p1155
sa(dp1156
g2
S'http://www.reuters.com/article/globalMarketsNews/idUSL148550420071216'
p1157
sg4
S'20071216\xc2\xa012:11 PM EST'
p1158
sg6
S'Bank earnings hold pre-Christmas key'
p1159
sa(dp1160
g2
S'http://www.reuters.com/article/topNews/idUSB51830220071216'
p1161
sg4
S'20071216\xc2\xa012:09 PM EST'
p1162
sg6
S"Yankees' Pettitte admits to using growth hormone"
p1163
sa(dp1164
g2
S'http://www.reuters.com/article/latestCrisis/idUSN16314532'
p1165
sg4
S'20071216\xc2\xa012:09 PM EST'
p1166
sg6
S'FACTBOX-US presidential candidates on climate change'
p1167
sa(dp1168
g2
S'http://www.reuters.com/article/topNews/idUSL1657140720071216'
p1169
sg4
S'20071216\xc2\xa012:07 PM EST'
p1170
sg6
S'Polish PM Tusk rejects Russian ballistic threat'
p1171
sa(dp1172
g2
S'http://www.reuters.com/article/latestCrisis/idUSN16359637'
p1173
sg4
S'20071216\xc2\xa012:03 PM EST'
p1174
sg6
S'Bali climate deal paves way for hotter US debate'
p1175
sa(dp1176
g2
S'http://www.reuters.com/article/pressReleasesMolt/idUSN1636789220071216'
p1177
sg4
S'20071216\xc2\xa012:02 PM EST'
p1178
sg6
S'Greenspan sees early signs of U.S. stagflation'
p1179
sa(dp1180
g2
S'http://www.reuters.com/article/internetNews/idUSDAH64551120071216'
p1181
sg4
S'20071216\xc2\xa012:01 PM EST'
p1182
sg6
S'Iran shuts down 24 cafes in Internet crackdown'
p1183
sa(dp1184
g2
S'http://www.reuters.com/article/televisionNews/idUSN1316232120071216'
p1185
sg4
S'20071216\xc2\xa012:00 PM EST'
p1186
sg6
S'Writers Guild nominates top TV series'
p1187
sa(dp1188
g2
S'http://www.reuters.com/article/pressRelease/idUS69322+16-Dec-2007+PRN20071216'
p1189
sg4
S'20071216\xc2\xa012:00 PM EST'
p1190
sg6
S'Following Is a Test Release'
p1191
sa(dp1192
g2
S'http://www.reuters.com/article/pressRelease/idUS69303+16-Dec-2007+BW20071216'
p1193
sg4
S'20071216\xc2\xa012:00 PM EST'
p1194
sg6
S'Covidien Announces Conference Call and Webcast'
p1195
sa(dp1196
g2
S'http://www.reuters.com/article/pressRelease/idUS69304+16-Dec-2007+BW20071216'
p1197
sg4
S'20071216\xc2\xa012:00 PM EST'
p1198
sg6
S'Data Presented at the 30th San Antonio Breast Cancer Symposium Supports Further Development...'
p1199
sa(dp1200
g2
S'http://www.reuters.com/article/domesticNews/idUSN1535771320071216'
p1201
sg4
S'20071216\xc2\xa011:59 AM EST'
p1202
sg6
S'Letterman may return as writers shift tactics'
p1203
sa(dp1204
g2
S'http://www.reuters.com/article/rbssTechMediaTelecomNews/idUSL1669224420071216'
p1205
sg4
S'20071216\xc2\xa011:56 AM EST'
p1206
sg6
S'U.Internet says Freenet, Versatel too costly-report'
p1207
sa(dp1208
g2
S'http://www.reuters.com/article/pressRelease/idUS69156+16-Dec-2007+PRN20071216'
p1209
sg4
S'20071216\xc2\xa011:56 AM EST'
p1210
sg6
S'NEWSWEEK: Cover: The Sleeper'
p1211
sa(dp1212
g2
S'http://www.reuters.com/article/topNews/idUSL1663948920071216'
p1213
sg4
S'20071216\xc2\xa011:52 AM EST'
p1214
sg6
S'Italian Catholic priest stabbed in Turkey'
p1215
sa(dp1216
g2
S'http://www.reuters.com/article/companyNewsAndPR/idUSN1636841520071216'
p1217
sg4
S'20071216\xc2\xa011:50 AM EST'
p1218
sg6
S"Will Smith a 'Legend' at U.S. box office"
p1219
sa(dp1220
g2
S'http://www.reuters.com/article/worldNews/idUSL1666117420071216'
p1221
sg4
S'20071216\xc2\xa011:44 AM EST'
p1222
sg6
S'FACTBOX: Basra, oil hub of Iraq'
p1223
sa(dp1224
g2
S'http://www.reuters.com/article/ousiv/idUSL1525457920071216'
p1225
sg4
S'20071216\xc2\xa011:42 AM EST'
p1226
sg6
S'Goldman hired to aid Nothern Rock rescue'
p1227
sa(dp1228
g2
S'http://www.reuters.com/article/innovationNews/idUST13641720071216'
p1229
sg4
S'20071216\xc2\xa011:40 AM EST'
p1230
sg6
S"Nomura in talks to buy UK's Collins Stewart: report"
p1231
sa(dp1232
g2
S'http://www.reuters.com/article/pressRelease/idUS68542+16-Dec-2007+PRN20071216'
p1233
sg4
S'20071216\xc2\xa011:39 AM EST'
p1234
sg6
S'Online Holiday Retail Spending Surpasses $22 Billion, Up 18 Percent Versus Year Ago,...'
p1235
sa(dp1236
g2
S'http://www.reuters.com/article/innovationNews/idUSL1666036720071216'
p1237
sg4
S'20071216\xc2\xa011:37 AM EST'
p1238
sg6
S'Regulator set to rule on Carlsberg/S&N; bid: sources'
p1239
sa(dp1240
g2
S'http://www.reuters.com/article/ousiv/idUSN1430506720071216'
p1241
sg4
S'20071216\xc2\xa011:32 AM EST'
p1242
sg6
S'Inflation hottest in two years, output solid'
p1243
sa(dp1244
g2
S'http://www.reuters.com/article/pressRelease/idUS68243+16-Dec-2007+PRN20071216'
p1245
sg4
S'20071216\xc2\xa011:30 AM EST'
p1246
sg6
S'Following Is a Test Release'
p1247
sa(dp1248
g2
S'http://www.reuters.com/article/newIssuesNews/idUSN1636931320071216'
p1249
sg4
S'20071216\xc2\xa011:28 AM EST'
p1250
sg6
S'RPT-IPO VIEW-Year-end U.S. IPOs hope to light a spark'
p1251
sa(dp1252
g2
S'http://www.reuters.com/article/middleeastCrisis/idUSL16661174'
p1253
sg4
S'20071216\xc2\xa011:24 AM EST'
p1254
sg6
S'FACTBOX-Basra, oil hub of Iraq'
p1255
sa(dp1256
g2
S'http://www.reuters.com/article/governmentFilingsNews/idUSN1636775820071216'
p1257
sg4
S'20071216\xc2\xa011:23 AM EST'
p1258
sg6
S'Canada reactor back online to make radioisotopes'
p1259
sa(dp1260
g2
S'http://www.reuters.com/article/tnBasicIndustries-SP/idUSL1666071320071216'
p1261
sg4
S'20071216\xc2\xa011:18 AM EST'
p1262
sg6
S'Nordex may miss 2007 revenue target - report'
p1263
sa(dp1264
g2
S'http://www.reuters.com/article/reutersEdge/idUSHKG13717020071216'
p1265
sg4
S'20071216\xc2\xa011:18 AM EST'
p1266
sg6
S'China Eastern plans huge plane orders for expansion'
p1267
sa(dp1268
g2
S'http://www.reuters.com/article/pressRelease/idUS67196+16-Dec-2007+PRN20071216'
p1269
sg4
S'20071216\xc2\xa011:00 AM EST'
p1270
sg6
S'Following Is a Test Release'
p1271
sa(dp1272
g2
S'http://www.reuters.com/article/rbssConsumerGoodsAndRetailNews/idUSL1665286020071216'
p1273
sg4
S'20071216\xc2\xa010:59 AM EST'
p1274
sg6
S'Foreign holdings in DAX firms top 50 pct -report'
p1275
sa(dp1276
g2
S'http://www.reuters.com/article/latestCrisis/idUSN16366090'
p1277
sg4
S'20071216\xc2\xa010:52 AM EST'
p1278
sg6
S"US lawmakers say won't be deterred on CIA probe"
p1279
sa(dp1280
g2
S'http://www.reuters.com/article/homepageCrisis/idUSL16629899._CH_.2400'
p1281
sg4
S'20071216\xc2\xa010:47 AM EST'
p1282
sg6
S'Congo displaced recruited to fight -UN refugee head'
p1283
sa(dp1284
g2
S'http://www.reuters.com/article/latestCrisis/idUSL16629899'
p1285
sg4
S'20071216\xc2\xa010:47 AM EST'
p1286
sg6
S'Congo displaced recruited to fight -UN refugee head'
p1287
sa(dp1288
g2
S'http://www.reuters.com/article/pressRelease/idUS66544+16-Dec-2007+BW20071216'
p1289
sg4
S'20071216\xc2\xa010:45 AM EST'
p1290
sg6
S'Celine Dion and A New Day... Cast Make Final Curtain Call in Las Vegas'
p1291
sa(dp1292
g2
S'http://www.reuters.com/article/governmentFilingsNews/idUSL1664730620071216'
p1293
sg4
S'20071216\xc2\xa010:39 AM EST'
p1294
sg6
S"SEC approves Deutsche Boerse's takeover of ISE"
p1295
sa(dp1296
g2
S'http://www.reuters.com/article/rbssTechMediaTelecomNews/idUSJER00244420071216'
p1297
sg4
S'20071216\xc2\xa010:31 AM EST'
p1298
sg6
S'DIARY - Israel - To January 13'
p1299
sa(dp1300
g2
S'http://www.reuters.com/article/mergersNews/idUSN1451913720071216'
p1301
sg4
S'20071216\xc2\xa010:30 AM EST'
p1302
sg6
S'RPT-Bay Street Week Ahead-Canadian banks show their differences'
p1303
sa(dp1304
g2
S'http://www.reuters.com/article/pressRelease/idUS65808+16-Dec-2007+PRN20071216'
p1305
sg4
S'20071216\xc2\xa010:30 AM EST'
p1306
sg6
S'Following Is a Test Release'
p1307
sa(dp1308
g2
S'http://www.reuters.com/article/pressRelease/idUS65804+16-Dec-2007+PRN20071216'
p1309
sg4
S'20071216\xc2\xa010:30 AM EST'
p1310
sg6
S"Fred Jordan Mission's 64th Annual Skid Row Christmas Toy Party With Santa Claus,..."
p1311
sa(dp1312
g2
S'http://www.reuters.com/article/middleeastCrisis/idUSL16637881'
p1313
sg4
S'20071216\xc2\xa010:29 AM EST'
p1314
sg6
S'FACTBOX-Security developments in Iraq, Dec 16'
p1315
sa(dp1316
g2
S'http://www.reuters.com/article/globalMarketsNews/idUSN1634201120071216'
p1317
sg4
S'20071216\xc2\xa010:28 AM EST'
p1318
sg6
S'Stocks eye housing and consumer data'
p1319
sa(dp1320
g2
S'http://www.reuters.com/article/latestCrisis/idUSL16463623'
p1321
sg4
S'20071216\xc2\xa010:26 AM EST'
p1322
sg6
S'Kyrgyzstan votes in election, opposition cries foul'
p1323
sa(dp1324
g2
S'http://www.reuters.com/article/topNews/idUSL1663035220071216'
p1325
sg4
S'20071216\xc2\xa010:20 AM EST'
p1326
sg6
S"Mandela says divisions in S.Africa's ANC saddening"
p1327
sa(dp1328
g2
S'http://www.reuters.com/article/worldNews/idUSL1659838220071216'
p1329
sg4
S'20071216\xc2\xa010:16 AM EST'
p1330
sg6
S'Somali PM Hussein dismisses cabinet'
p1331
sa(dp1332
g2
S'http://www.reuters.com/article/rbssConsumerGoodsAndRetailNews/idUSSHA15167820071216'
p1333
sg4
S'20071216\xc2\xa010:03 AM EST'
p1334
sg6
S'China SAIC Motor offers 6.3 bln yuan convertibles'
p1335
sa(dp1336
g2
S'http://www.reuters.com/article/rbssFinancialServicesAndRealEstateNews/idUSL1635288420071216'
p1337
sg4
S'20071216\xc2\xa010:00 AM EST'
p1338
sg6
S'More Germans want to return to D-mark - poll'
p1339
sa(dp1340
g2
S'http://www.reuters.com/article/latestCrisis/idUSDEL68032'
p1341
sg4
S'20071216\xc2\xa010:00 AM EST'
p1342
sg6
S'Seven killed as bus hits mine in northeast India'
p1343
sa(dp1344
g2
S'http://www.reuters.com/article/homepageCrisis/idUSDEL68032._CH_.2400'
p1345
sg4
S'20071216\xc2\xa010:00 AM EST'
p1346
sg6
S'Seven killed as bus hits mine in northeast India'
p1347
sa(dp1348
g2
S'http://www.reuters.com/article/homepageCrisis/idUSYAT646703._CH_.2400'
p1349
sg4
S'20071216\xc2\xa010:00 AM EST'
p1350
sg6
S"U.S. confident troop cuts won't hurt Iraq security"
p1351
sa(dp1352
g2
S'http://www.reuters.com/article/middleeastCrisis/idUSYAT646703'
p1353
sg4
S'20071216\xc2\xa010:00 AM EST'
p1354
sg6
S"U.S. confident troop cuts won't hurt Iraq security"
p1355
sa(dp1356
g2
S'http://www.reuters.com/article/pressRelease/idUS64464+16-Dec-2007+PRN20071216'
p1357
sg4
S'20071216\xc2\xa010:00 AM EST'
p1358
sg6
S'Following Is a Test Release'
p1359
sa(dp1360
g2
S'http://www.reuters.com/article/ousiv/idUSN1430168320071216'
p1361
sg4
S'20071216\xc2\xa009:52 AM EST'
p1362
sg6
S'Crunch time hitting for holiday retail sales'
p1363
sa(dp1364
g2
S'http://www.reuters.com/article/pressRelease/idUS64027+16-Dec-2007+BW20071216'
p1365
sg4
S'20071216\xc2\xa009:49 AM EST'
p1366
sg6
S"Vince Dooley and Loran Smith hold the only Atlanta book signing for ''University..."
p1367
sa(dp1368
g2
S'http://www.reuters.com/article/rbssIndustryMaterialsUtilitiesNews/idUSL1671879620071216'
p1369
sg4
S'20071216\xc2\xa009:44 AM EST'
p1370
sg6
S'UPDATE 2-Air France proposes share swap for Alitalia-reports'
p1371
sa(dp1372
g2
S'http://www.reuters.com/article/ousivMolt/idUSN1433734020071216'
p1373
sg4
S'20071216\xc2\xa009:41 AM EST'
p1374
sg6
S'Goldman success brings unwanted attention'
p1375
sa(dp1376
g2
S'http://www.reuters.com/article/pressRelease/idUS63336+16-Dec-2007+PRN20071216'
p1377
sg4
S'20071216\xc2\xa009:30 AM EST'
p1378
sg6
S'Following Is a Test Release'
p1379
sa(dp1380
g2
S'http://www.reuters.com/article/rbssConsumerGoodsAndRetailNews/idUSL1657380720071216'
p1381
sg4
S'20071216\xc2\xa009:24 AM EST'
p1382
sg6
S'MARKETS-EGYPT-CLOSER =2'
p1383
sa(dp1384
g2
S'http://www.reuters.com/article/lifestyleMolt/idUSPEK14649920071216'
p1385
sg4
S'20071216\xc2\xa009:15 AM EST'
p1386
sg6
S'China scraps one of three Golden Week holidays'
p1387
sa(dp1388
g2
S'http://www.reuters.com/article/latestCrisis/idUSDEL84934'
p1389
sg4
S'20071216\xc2\xa009:10 AM EST'
p1390
sg6
S'Maoists spring 300 prisoners from Indian jail'
p1391
sa(dp1392
g2
S'http://www.reuters.com/article/environmentNews/idUSSYD6653720071216'
p1393
sg4
S'20071216\xc2\xa009:05 AM EST'
p1394
sg6
S'Australians do whale count as Japan hunt nears'
p1395
sa(dp1396
g2
S'http://www.reuters.com/article/pressRelease/idUS62557+16-Dec-2007+MW20071216'
p1397
sg4
S'20071216\xc2\xa009:04 AM EST'
p1398
sg6
S' Powerball Jackpot Moves to $20 Million; $600,000 Power Play Prize Won!'
p1399
sa(dp1400
g2
S'http://www.reuters.com/article/pressRelease/idUS62405+16-Dec-2007+PRN20071216'
p1401
sg4
S'20071216\xc2\xa009:00 AM EST'
p1402
sg6
S'Following Is a Test Release'
p1403
sa(dp1404
g2
S'http://www.reuters.com/article/reutersEdge/idUSL1657274920071216'
p1405
sg4
S'20071216\xc2\xa008:49 AM EST'
p1406
sg6
S'EU executive nears ruling on credit cards'
p1407
sa(dp1408
g2
S'http://www.reuters.com/article/latestCrisis/idUSDHA302716'
p1409
sg4
S'20071216\xc2\xa008:48 AM EST'
p1410
sg6
S"B'desh marks Victory Day amid call for war trials"
p1411
sa(dp1412
g2
S'http://www.reuters.com/article/latestCrisis/idUSL16620272'
p1413
sg4
S'20071216\xc2\xa008:45 AM EST'
p1414
sg6
S'Egyptian police arrest 7 after Christian shops burned'
p1415
sa(dp1416
g2
S'http://www.reuters.com/article/topNews/idUSL1661754020071216'
p1417
sg4
S'20071216\xc2\xa008:37 AM EST'
p1418
sg6
S'Spanish police arrest 63 in child pornography swoop'
p1419
sa(dp1420
g2
S'http://www.reuters.com/article/rbssFinancialServicesAndRealEstateNews/idUSL1672809420071216'
p1421
sg4
S'20071216\xc2\xa008:33 AM EST'
p1422
sg6
S'Israeli stocks fall on inflation worries'
p1423
sa(dp1424
g2
S'http://www.reuters.com/article/pressRelease/idUS61173+16-Dec-2007+PRN20071216'
p1425
sg4
S'20071216\xc2\xa008:30 AM EST'
p1426
sg6
S'Following Is a Test Release'
p1427
sa(dp1428
g2
S'http://www.reuters.com/article/homepageCrisis/idUSL16619676._CH_.2400'
p1429
sg4
S'20071216\xc2\xa008:29 AM EST'
p1430
sg6
S'Polisario mulls new armed struggle against Morocco'
p1431
sa(dp1432
g2
S'http://www.reuters.com/article/latestCrisis/idUSL16619676'
p1433
sg4
S'20071216\xc2\xa008:29 AM EST'
p1434
sg6
S'Polisario mulls new armed struggle against Morocco'
p1435
sa(dp1436
g2
S'http://www.reuters.com/article/worldNews/idUSN1629458720071216'
p1437
sg4
S'20071216\xc2\xa008:28 AM EST'
p1438
sg6
S'Moderate quake shakes northern Chile, cuts power'
p1439
sa(dp1440
g2
S'http://www.reuters.com/article/environmentNews/idUST17477620071216'
p1441
sg4
S'20071216\xc2\xa008:27 AM EST'
p1442
sg6
S'China says it probes hunting of giant pandas'
p1443
sa(dp1444
g2
S'http://www.reuters.com/article/homepageCrisis/idUSN16294587._CH_.2400'
p1445
sg4
S'20071216\xc2\xa008:23 AM EST'
p1446
sg6
S'Moderate quake shakes northern Chile, cuts power'
p1447
sa(dp1448
g2
S'http://www.reuters.com/article/latestCrisis/idUSN16294587'
p1449
sg4
S'20071216\xc2\xa008:23 AM EST'
p1450
sg6
S'Moderate quake shakes northern Chile, cuts power'
p1451
sa(dp1452
g2
S'http://www.reuters.com/article/healthNews/idUSL1464852720071216'
p1453
sg4
S'20071216\xc2\xa008:18 AM EST'
p1454
sg6
S'Glaxo cancer drug Tykerb shows more brain benefits'
p1455
sa(dp1456
g2
S'http://www.reuters.com/article/politicsNews/idUSN1634114920071216'
p1457
sg4
S'20071216\xc2\xa008:17 AM EST'
p1458
sg6
S'U.S. immigration debate rages outside Arizona store'
p1459
sa(dp1460
g2
S'http://www.reuters.com/article/rbssFinancialServicesAndRealEstateNews/idUSL1661475920071216'
p1461
sg4
S'20071216\xc2\xa008:13 AM EST'
p1462
sg6
S'UPDATE 1-Kirch denies report of Deutsche Bank settlement'
p1463
sa(dp1464
g2
S'http://www.reuters.com/article/gc06/idUSL1660954220071216'
p1465
sg4
S'20071216\xc2\xa008:06 AM EST'
p1466
sg6
S'Dresdner Kleinwort to shed up to 500 jobs: report'
p1467
sa(dp1468
g2
S'http://www.reuters.com/article/rbssFinancialServicesAndRealEstateNews/idUSL1661310320071216'
p1469
sg4
S'20071216\xc2\xa008:05 AM EST'
p1470
sg6
S'UPDATE 1-ECB to act as needed for price stability- Garganas'
p1471
sa(dp1472
g2
S'http://www.reuters.com/article/rbssConsumerGoodsAndRetailNews/idUSSHA14633720071216'
p1473
sg4
S'20071216\xc2\xa008:03 AM EST'
p1474
sg6
S"China's Fuyao Glass sees 2007 net up over 50 pct"
p1475
sa(dp1476
g2
S'http://www.reuters.com/article/latestCrisis/idUSL16590952'
p1477
sg4
S'20071216\xc2\xa008:01 AM EST'
p1478
sg6
S'At least four dead in Nigerian local polls -media'
p1479
sa(dp1480
g2
S'http://www.reuters.com/article/latestCrisis/idUSN15351218'
p1481
sg4
S'20071216\xc2\xa008:00 AM EST'
p1482
sg6
S'FEATURE-With prices high, farming is bright spot in U.S.'
p1483
sa(dp1484
g2
S'http://www.reuters.com/article/pressRelease/idUS59826+16-Dec-2007+PRN20071216'
p1485
sg4
S'20071216\xc2\xa008:00 AM EST'
p1486
sg6
S'Following Is a Test Release'
p1487
sa(dp1488
g2
S'http://www.reuters.com/article/pressRelease/idUS59823+16-Dec-2007+PRN20071216'
p1489
sg4
S'20071216\xc2\xa008:00 AM EST'
p1490
sg6
S'Breast Cancer Patients and Oncologists Highly Satisfied with Communication, Yet Disagree...'
p1491
sa(dp1492
g2
S'http://www.reuters.com/article/pressRelease/idUS59820+16-Dec-2007+PRN20071216'
p1493
sg4
S'20071216\xc2\xa008:00 AM EST'
p1494
sg6
S'New Survey Underscores Importance of Psychosocial and Educational Needs Among Women...'
p1495
sa(dp1496
g2
S'http://www.reuters.com/article/companyNewsAndPR/idUSL1487929120071216'
p1497
sg4
S'20071216\xc2\xa008:00 AM EST'
p1498
sg6
S'Glaxo cancer drug Tykerb shows more brain benefits'
p1499
sa(dp1500
g2
S'http://www.reuters.com/article/rbssIndustryMaterialsUtilitiesNews/idUSL1660611320071216'
p1501
sg4
S'20071216\xc2\xa007:57 AM EST'
p1502
sg6
S"Spain's Sacyr sets up Libyan development JV"
p1503
sa(dp1504
g2
S'http://www.reuters.com/article/latestCrisis/idUSPEK150725'
p1505
sg4
S'20071216\xc2\xa007:57 AM EST'
p1506
sg6
S'China issues warrants for 13 over mine disaster'
p1507
sa(dp1508
g2
S'http://www.reuters.com/article/rbssIndustryMaterialsUtilitiesNews/idUSL1659486220071216'
p1509
sg4
S'20071216\xc2\xa007:55 AM EST'
p1510
sg6
S"Israel's MA Industries extends CEO contract 3 yrs"
p1511
sa(dp1512
g2
S'http://www.reuters.com/article/sportsNews/idUSL1660368920071216'
p1513
sg4
S'20071216\xc2\xa007:55 AM EST'
p1514
sg6
S'Indian Masters to be tri-sanctioned event'
p1515
sa(dp1516
g2
S'http://www.reuters.com/article/ousiv/idUSL1339203520071216'
p1517
sg4
S'20071216\xc2\xa007:52 AM EST'
p1518
sg6
S'C.bankers worry over action plan'
p1519
sa(dp1520
g2
S'http://www.reuters.com/article/homepageCrisis/idUSMCD636551._CH_.2400'
p1521
sg4
S'20071216\xc2\xa007:52 AM EST'
p1522
sg6
S'Darfur rebels say attack Sudan army, capture 29'
p1523
sa(dp1524
g2
S'http://www.reuters.com/article/latestCrisis/idUSMCD636551'
p1525
sg4
S'20071216\xc2\xa007:52 AM EST'
p1526
sg6
S'Darfur rebels say attack Sudan army, capture 29'
p1527
sa(dp1528
g2
S'http://www.reuters.com/article/rbssConsumerGoodsAndRetailNews/idUSL1660373320071216'
p1529
sg4
S'20071216\xc2\xa007:52 AM EST'
p1530
sg6
S"Germany's Arcandor Q3 profit up sharply - report"
p1531
sa(dp1532
g2
S'http://www.reuters.com/article/businessNews/idUSMAT00761720071216'
p1533
sg4
S'20071216\xc2\xa007:51 AM EST'
p1534
sg6
S'Air France proposes share swap for Alitalia: reports'
p1535
sa(dp1536
g2
S'http://www.reuters.com/article/politicsNews/idUSL1659780820071216'
p1537
sg4
S'20071216\xc2\xa007:40 AM EST'
p1538
sg6
S'Bolton criticizes Bush foreign policy: magazine'
p1539
sa(dp1540
g2
S'http://www.reuters.com/article/pressRelease/idUS58890+16-Dec-2007+PRN20071216'
p1541
sg4
S'20071216\xc2\xa007:30 AM EST'
p1542
sg6
S'Following Is a Test Release'
p1543
sa(dp1544
g2
S'http://www.reuters.com/article/latestCrisis/idUSL16579399'
p1545
sg4
S'20071216\xc2\xa007:29 AM EST'
p1546
sg6
S'Polisario mulls new armed struggle against Morocco'
p1547
sa(dp1548
g2
S'http://www.reuters.com/article/gc06/idUSL1656511320071216'
p1549
sg4
S'20071216\xc2\xa007:27 AM EST'
p1550
sg6
S'Second Spanish property firm goes insolvent: paper'
p1551
sa(dp1552
g2
S'http://www.reuters.com/article/innovationNews/idUSL1659216120071216'
p1553
sg4
S'20071216\xc2\xa007:25 AM EST'
p1554
sg6
S'Suitor set to make 1 bln euro bid for FBD: report'
p1555
sa(dp1556
g2
S'http://www.reuters.com/article/pressRelease/idUS58657+16-Dec-2007+PRN20071216'
p1557
sg4
S'20071216\xc2\xa007:24 AM EST'
p1558
sg6
S'TAKE FIVE Winning Numbers'
p1559
sa(dp1560
g2
S'http://www.reuters.com/article/innovationNews/idUSL1659276620071216'
p1561
sg4
S'20071216\xc2\xa007:22 AM EST'
p1562
sg6
S'Olivant needs 200-300 mln stg more for Rock: report'
p1563
sa(dp1564
g2
S'http://www.reuters.com/article/pressRelease/idUS58397+16-Dec-2007+PRN20071216'
p1565
sg4
S'20071216\xc2\xa007:17 AM EST'
p1566
sg6
S'Lotto Extra Winning Numbers'
p1567
sa(dp1568
g2
S'http://www.reuters.com/article/pressRelease/idUS58286+16-Dec-2007+PRN20071216'
p1569
sg4
S'20071216\xc2\xa007:14 AM EST'
p1570
sg6
S'Lotto Winning Numbers'
p1571
sa(dp1572
g2
S'http://www.reuters.com/article/environmentNews/idUST13412120071216'
p1573
sg4
S'20071216\xc2\xa007:10 AM EST'
p1574
sg6
S'Sharp to spend Y100 bln on solar cell plant: report'
p1575
sa(dp1576
g2
S'http://www.reuters.com/article/latestCrisis/idUSL16600482'
p1577
sg4
S'20071216\xc2\xa007:07 AM EST'
p1578
sg6
S'Somali PM Hussein dismisses cabinet'
p1579
sa(dp1580
g2
S'http://www.reuters.com/article/pressRelease/idUS57805+16-Dec-2007+PRN20071216'
p1581
sg4
S'20071216\xc2\xa007:00 AM EST'
p1582
sg6
S'Following Is a Test Release'
p1583
sa(dp1584
g2
S'http://www.reuters.com/article/latestCrisis/idUSL15481005'
p1585
sg4
S'20071216\xc2\xa006:59 AM EST'
p1586
sg6
S'FEATURE-German ship fights climate change with high-tech kite'
p1587
sa(dp1588
g2
S'http://www.reuters.com/article/latestCrisis/idUSL16598382'
p1589
sg4
S'20071216\xc2\xa006:52 AM EST'
p1590
sg6
S'Somali PM dismisses cabinet'
p1591
sa(dp1592
g2
S'http://www.reuters.com/article/companyNewsAndPR/idUSL1659008920071216'
p1593
sg4
S'20071216\xc2\xa006:49 AM EST'
p1594
sg6
S'Bank Leumi sells Cellcom Israel shares for $73 mln'
p1595
sa(dp1596
g2
S'http://www.reuters.com/article/rbssIndustryMaterialsUtilitiesNews/idUSL1656522520071216'
p1597
sg4
S'20071216\xc2\xa006:45 AM EST'
p1598
sg6
S'Air France proposes share swap for Alitalia-reports'
p1599
sa(dp1600
g2
S'http://www.reuters.com/article/topNews/idUSL167277520071216'
p1601
sg4
S'20071216\xc2\xa006:45 AM EST'
p1602
sg6
S'Iraq plans mass detainee pardon: top official'
p1603
sa(dp1604
g2
S'http://www.reuters.com/article/ousiv/idUSN1430640820071216'
p1605
sg4
S'20071216\xc2\xa006:33 AM EST'
p1606
sg6
S'Goldman sees value in Citi debt after rating cut'
p1607
sa(dp1608
g2
S'http://www.reuters.com/article/pressReleasesMolt/idUSL1659361120071216'
p1609
sg4
S'20071216\xc2\xa006:32 AM EST'
p1610
sg6
S'Volkswagen says global VW sales up'
p1611
sa(dp1612
g2
S'http://www.reuters.com/article/environmentNews/idUSN1433616520071216'
p1613
sg4
S'20071216\xc2\xa006:32 AM EST'
p1614
sg6
S'U.S. food inflation parallels 70s on ethanol boom'
p1615
sa(dp1616
g2
S'http://www.reuters.com/article/pressRelease/idUS56889+16-Dec-2007+PRN20071216'
p1617
sg4
S'20071216\xc2\xa006:31 AM EST'
p1618
sg6
S'High Winds Could Lead to Widespread Power Outages Statewide in PA'
p1619
sa(dp1620
g2
S'http://www.reuters.com/article/pressRelease/idUS56835+16-Dec-2007+PRN20071216'
p1621
sg4
S'20071216\xc2\xa006:30 AM EST'
p1622
sg6
S'Following Is a Test Release'
p1623
sa(dp1624
g2
S'http://www.reuters.com/article/middleeastCrisis/idUSL1672775'
p1625
sg4
S'20071216\xc2\xa006:29 AM EST'
p1626
sg6
S'Iraq plans mass detainee pardon,says top official'
p1627
sa(dp1628
g2
S'http://www.reuters.com/article/ousiv/idUSWBT00806220071216'
p1629
sg4
S'20071216\xc2\xa006:28 AM EST'
p1630
sg6
S'Fed to hold Tues meeting on mortgage rule change'
p1631
sa(dp1632
g2
S'http://www.reuters.com/article/businessNews/idUSL1657837520071216'
p1633
sg4
S'20071216\xc2\xa006:27 AM EST'
p1634
sg6
S'Tata set to win Jaguar, Land Rover auction: report'
p1635
sa(dp1636
g2
S'http://www.reuters.com/article/mediaNews/idUSL1667115220071216'
p1637
sg4
S'20071216\xc2\xa006:27 AM EST'
p1638
sg6
S'Naspers set to buy QXL for 750 mln pounds - paper'
p1639
sa(dp1640
g2
S'http://www.reuters.com/article/topNews/idUSL1667358920071216'
p1641
sg4
S'20071216\xc2\xa006:16 AM EST'
p1642
sg6
S'FACTBOX: Facts on South Africa'
p1643
sa(dp1644
g2
S'http://www.reuters.com/article/topNews/idUSL1656627820071216'
p1645
sg4
S'20071216\xc2\xa006:16 AM EST'
p1646
sg6
S"South Africa's Mbeki, shrewd and under fire"
p1647
sa(dp1648
g2
S'http://www.reuters.com/article/topNews/idUSL1656622520071216'
p1649
sg4
S'20071216\xc2\xa006:16 AM EST'
p1650
sg6
S'FACTBOX - Big issues for South Africa'
p1651
sa(dp1652
g2
S'http://www.reuters.com/article/topNews/idUSL1656601820071216'
p1653
sg4
S'20071216\xc2\xa006:16 AM EST'
p1654
sg6
S'FACTBOX: History of the African National Congress'
p1655
sa(dp1656
g2
S'http://www.reuters.com/article/topNews/idUSL1656406920071216'
p1657
sg4
S'20071216\xc2\xa006:16 AM EST'
p1658
sg6
S"South Africa's Zuma, controversial but popular"
p1659
sa(dp1660
g2
S'http://www.reuters.com/article/latestCrisis/idUSL16579193'
p1661
sg4
S'20071216\xc2\xa006:16 AM EST'
p1662
sg6
S'IEA urges bold steps to cut CO2 emissions -report'
p1663
sa(dp1664
g2
S'http://www.reuters.com/article/worldNews/idUSL1655039620071216'
p1665
sg4
S'20071216\xc2\xa006:08 AM EST'
p1666
sg6
S'Iran says no date fixed for atom plant completion'
p1667
sa(dp1668
g2
S'http://www.reuters.com/article/pressRelease/idUS55933+16-Dec-2007+BW20071216'
p1669
sg4
S'20071216\xc2\xa006:01 AM EST'
p1670
sg6
S"Homer, Marge, Lisa, Bart and Maggie ''Simpsonize'' Manhattan"
p1671
sa(dp1672
g2
S'http://www.reuters.com/article/pressRelease/idUS55897+16-Dec-2007+PRN20071216'
p1673
sg4
S'20071216\xc2\xa006:00 AM EST'
p1674
sg6
S'Following Is a Test Release'
p1675
sa(dp1676
g2
S'http://www.reuters.com/article/pressRelease/idUS55847+16-Dec-2007+PRN20071216'
p1677
sg4
S'20071216\xc2\xa005:59 AM EST'
p1678
sg6
S'GOOD MORNING -- December 16, 2007'
p1679
sa(dp1680
g2
S'http://www.reuters.com/article/latestCrisis/idUSL16540328'
p1681
sg4
S'20071216\xc2\xa005:52 AM EST'
p1682
sg6
S'INTERVIEW-Somali insurgency to intensify-Islamist leader'
p1683
sa(dp1684
g2
S'http://www.reuters.com/article/pressRelease/idUS55471+16-Dec-2007+BW20071216'
p1685
sg4
S'20071216\xc2\xa005:51 AM EST'
p1686
sg6
S'Charlotte Living Magazine hosts Tennille & Co Launch Party in Charlotte, NC'
p1687
sa(dp1688
g2
S'http://www.reuters.com/article/topNews/idUSCOL63698920071216'
p1689
sg4
S'20071216\xc2\xa005:49 AM EST'
p1690
sg6
S"FACTBOX: Key facts on Basra, Iraq's second city"
p1691
sa(dp1692
g2
S'http://www.reuters.com/article/mergersNews/idUSL1657974520071216'
p1693
sg4
S'20071216\xc2\xa005:47 AM EST'
p1694
sg6
S'D.Boerse sees scope for more exchange mergers'
p1695
sa(dp1696
g2
S'http://www.reuters.com/article/rbssConsumerGoodsAndRetailNews/idUSHKG14134820071216'
p1697
sg4
S'20071216\xc2\xa005:43 AM EST'
p1698
sg6
S"Dazhong to fuel GOME's dominant position in China"
p1699
sa(dp1700
g2
S'http://www.reuters.com/article/middleeastCrisis/idUSL16578221'
p1701
sg4
S'20071216\xc2\xa005:41 AM EST'
p1702
sg6
S'Iran says to discuss Iraq "terrorist groups" with US'
p1703
sa(dp1704
g2
S'http://www.reuters.com/article/middleeastCrisis/idUSCOL636989'
p1705
sg4
S'20071216\xc2\xa005:38 AM EST'
p1706
sg6
S"FACTBOX-Key facts on Basra, Iraq's second city"
p1707
sa(dp1708
g2
S'http://www.reuters.com/article/latestCrisis/idUSDHA79042'
p1709
sg4
S'20071216\xc2\xa005:33 AM EST'
p1710
sg6
S"B'desh marks Victory Day amid call for war trials"
p1711
sa(dp1712
g2
S'http://www.reuters.com/article/pressRelease/idUS54183+16-Dec-2007+PRN20071216'
p1713
sg4
S'20071216\xc2\xa005:30 AM EST'
p1714
sg6
S'Following Is a Test Release'
p1715
sa(dp1716
g2
S'http://www.reuters.com/article/worldNews/idUSL1655164020071216'
p1717
sg4
S'20071216\xc2\xa005:26 AM EST'
p1718
sg6
S'Saudi vows safe haj, wary of crushes and militants'
p1719
sa(dp1720
g2
S'http://www.reuters.com/article/gc06/idUSL1654838520071216'
p1721
sg4
S'20071216\xc2\xa005:17 AM EST'
p1722
sg6
S'Subprime crisis may spread further: Swiss regulator'
p1723
sa(dp1724
g2
S'http://www.reuters.com/article/latestCrisis/idUSL16551640'
p1725
sg4
S'20071216\xc2\xa005:16 AM EST'
p1726
sg6
S'REFILE-Saudi vows safe haj, wary of crushes and militants'
p1727
sa(dp1728
g2
S'http://www.reuters.com/article/sportsNews/idUSL1655305320071216'
p1729
sg4
S'20071216\xc2\xa005:14 AM EST'
p1730
sg6
S"Finland's Palander leads after first giant slalom run"
p1731
sa(dp1732
g2
S'http://www.reuters.com/article/pressRelease/idUS52285+16-Dec-2007+PRN20071216'
p1733
sg4
S'20071216\xc2\xa005:00 AM EST'
p1734
sg6
S'Following Is a Test Release'
p1735
sa(dp1736
g2
S'http://www.reuters.com/article/rbssConsumerGoodsAndRetailNews/idUSL1656521220071216'
p1737
sg4
S'20071216\xc2\xa004:54 AM EST'
p1738
sg6
S'Ashley to become chairman of Sports Direct-papers'
p1739
sa(dp1740
g2
S'http://www.reuters.com/article/rbssFinancialServicesAndRealEstateNews/idUSL1635534620071216'
p1741
sg4
S'20071216\xc2\xa004:50 AM EST'
p1742
sg6
S'PREVIEW-EU executive plans to streamline home loan market'
p1743
sa(dp1744
g2
S'http://www.reuters.com/article/pressRelease/idUS51676+16-Dec-2007+BW20071216'
p1745
sg4
S'20071216\xc2\xa004:50 AM EST'
p1746
sg6
S"In Partnership with Veranda Magazine, Tennille & Co, Formerly ''The Plantation Shop'',..."
p1747
sa(dp1748
g2
S'http://www.reuters.com/article/entertainmentNews/idUSN1556789320071216'
p1749
sg4
S'20071216\xc2\xa004:41 AM EST'
p1750
sg6
S"Marvin Gaye's divorce album to be reissued"
p1751
sa(dp1752
g2
S'http://www.reuters.com/article/latestCrisis/idUSL16556977'
p1753
sg4
S'20071216\xc2\xa004:41 AM EST'
p1754
sg6
S'Lebanon war film takes award at Dubai film festival'
p1755
sa(dp1756
g2
S'http://www.reuters.com/article/topNews/idUSL1656261420071216'
p1757
sg4
S'20071216\xc2\xa004:31 AM EST'
p1758
sg6
S"South Africa's ANC to release leadership result Monday"
p1759
sa(dp1760
g2
S'http://www.reuters.com/article/worldNews/idUSL1542021820071216'
p1761
sg4
S'20071216\xc2\xa004:30 AM EST'
p1762
sg6
S'Kyrgyzstan votes in election, opposition cries foul'
p1763
sa(dp1764
g2
S'http://www.reuters.com/article/pressRelease/idUS50230+16-Dec-2007+PRN20071216'
p1765
sg4
S'20071216\xc2\xa004:30 AM EST'
p1766
sg6
S'Following Is a Test Release'
p1767
sa(dp1768
g2
S'http://www.reuters.com/article/rbssFinancialServicesAndRealEstateNews/idUSL1655635420071216'
p1769
sg4
S'20071216\xc2\xa004:12 AM EST'
p1770
sg6
S'Kuwait firms to sign $10 bln Philippine deal-paper'
p1771
sa(dp1772
g2
S'http://www.reuters.com/article/worldNews/idUSL1540653120071216'
p1773
sg4
S'20071216\xc2\xa004:06 AM EST'
p1774
sg6
S'FACTBOX: Key facts about Kyrgyzstan'
p1775
sa(dp1776
g2
S'http://www.reuters.com/article/worldNews/idUSL1540606920071216'
p1777
sg4
S'20071216\xc2\xa004:06 AM EST'
p1778
sg6
S'FACTBOX: Key facts about Kyrgyz parliamentary election'
p1779
sa(dp1780
g2
S'http://www.reuters.com/article/pressRelease/idUS48321+16-Dec-2007+PRN20071216'
p1781
sg4
S'20071216\xc2\xa004:00 AM EST'
p1782
sg6
S'Following Is a Test Release'
p1783
sa(dp1784
g2
S'http://www.reuters.com/article/middleeastCrisis/idUSL15305491'
p1785
sg4
S'20071216\xc2\xa003:54 AM EST'
p1786
sg6
S'Britain hands security of Basra to Iraqi forces'
p1787
sa(dp1788
g2
S'http://www.reuters.com/article/rbssFinancialServicesAndRealEstateNews/idUSL1655512120071216'
p1789
sg4
S'20071216\xc2\xa003:53 AM EST'
p1790
sg6
S"Israel's Zim to buy additional ship for $171 mln"
p1791
sa(dp1792
g2
S'http://www.reuters.com/article/peopleNews/idUSL1371963220071216'
p1793
sg4
S'20071216\xc2\xa003:47 AM EST'
p1794
sg6
S'Clooney and Cheadle get peace award for Darfur'
p1795
sa(dp1796
g2
S'http://www.reuters.com/article/peopleNews/idUSL1355053020071216'
p1797
sg4
S'20071216\xc2\xa003:47 AM EST'
p1798
sg6
S'Liza Minnelli collapses on stage in Sweden'
p1799
sa(dp1800
g2
S'http://www.reuters.com/article/rbssIndustryMaterialsUtilitiesNews/idUSL1607474120071216'
p1801
sg4
S'20071216\xc2\xa003:46 AM EST'
p1802
sg6
S'Renova does not want to take over Swiss Sulzer-paper'
p1803
sa(dp1804
g2
S'http://www.reuters.com/article/latestCrisis/idUSISL86135'
p1805
sg4
S'20071216\xc2\xa003:45 AM EST'
p1806
sg6
S'Despite emergency end, many Pakistanis feel duped'
p1807
sa(dp1808
g2
S'http://www.reuters.com/article/entertainmentNews/idUSCOL7574420071216'
p1809
sg4
S'20071216\xc2\xa003:44 AM EST'
p1810
sg6
S'At 90, sci-fi guru Clarke yearns for E.T., peace'
p1811
sa(dp1812
g2
S'http://www.reuters.com/article/latestCrisis/idUSCOL75744'
p1813
sg4
S'20071216\xc2\xa003:33 AM EST'
p1814
sg6
S'At 90, sci-fi guru Clarke yearns for E.T., peace'
p1815
sa(dp1816
g2
S'http://www.reuters.com/article/pressRelease/idUS46612+16-Dec-2007+PRN20071216'
p1817
sg4
S'20071216\xc2\xa003:30 AM EST'
p1818
sg6
S'Following Is a Test Release'
p1819
sa(dp1820
g2
S'http://www.reuters.com/article/latestCrisis/idUSSYD6816'
p1821
sg4
S'20071216\xc2\xa003:20 AM EST'
p1822
sg6
S'Solomons lawmakers to choose new PM on Thursday'
p1823
sa(dp1824
g2
S'http://www.reuters.com/article/rbssFinancialServicesAndRealEstateNews/idUSL1654503220071216'
p1825
sg4
S'20071216\xc2\xa003:09 AM EST'
p1826
sg6
S'Deutsche Bank readies settlement with Kirch -paper'
p1827
sa(dp1828
g2
S'http://www.reuters.com/article/rbssEnergyNews/idUSSP21153120071216'
p1829
sg4
S'20071216\xc2\xa003:03 AM EST'
p1830
sg6
S'UPDATE 1-S.Korea commits $22 bln to energy, minerals deals'
p1831
sa(dp1832
g2
S'http://www.reuters.com/article/topNews/idUSISL7827020071216'
p1833
sg4
S'20071216\xc2\xa003:00 AM EST'
p1834
sg6
S'Afghan army kills 4 Taliban near captured town'
p1835
sa(dp1836
g2
S'http://www.reuters.com/article/pressRelease/idUS45035+16-Dec-2007+PRN20071216'
p1837
sg4
S'20071216\xc2\xa003:00 AM EST'
p1838
sg6
S'Following Is a Test Release'
p1839
sa(dp1840
g2
S'http://www.reuters.com/article/gwmSmallBusiness/idUS360449802220071216'
p1841
sg4
S'20071216\xc2\xa003:00 AM EST'
p1842
sg6
S'Seven Tips for Attracting the Best Players to Your Green Business'
p1843
sa(dp1844
g2
S'http://www.reuters.com/article/worldNews/idUSL1654671220071216'
p1845
sg4
S'20071216\xc2\xa002:53 AM EST'
p1846
sg6
S'ETA bomb explodes in northern Spain, no injuries: police'
p1847
sa(dp1848
g2
S'http://www.reuters.com/article/middleeastCrisis/idUSL16547752'
p1849
sg4
S'20071216\xc2\xa002:49 AM EST'
p1850
sg6
S"FACTBOX-Main players in Iraq's Basra province"
p1851
sa(dp1852
g2
S'http://www.reuters.com/article/environmentNews/idUSL1415001920071216'
p1853
sg4
S'20071216\xc2\xa002:48 AM EST'
p1854
sg6
S'North Sea oil spill off Norway largely "dissolved"'
p1855
sa(dp1856
g2
S'http://www.reuters.com/article/latestCrisis/idUSISL78270'
p1857
sg4
S'20071216\xc2\xa002:48 AM EST'
p1858
sg6
S'Afghan army kills 4 Taliban near captured town'
p1859
sa(dp1860
g2
S'http://www.reuters.com/article/newsOne/idUSL1412327320071216'
p1861
sg4
S'20071216\xc2\xa002:47 AM EST'
p1862
sg6
S'Bali breakthrough launches talks'
p1863
sa(dp1864
g2
S'http://www.reuters.com/article/newsOne/idUSL1651095120071216'
p1865
sg4
S'20071216\xc2\xa002:47 AM EST'
p1866
sg6
S'After praise for Bali climate deal: the hard part'
p1867
sa(dp1868
g2
S'http://www.reuters.com/article/topNews/idUSL156650120071216'
p1869
sg4
S'20071216\xc2\xa002:47 AM EST'
p1870
sg6
S'FACTBOX - High and low points of Bali climate talks'
p1871
sa(dp1872
g2
S'http://www.reuters.com/article/worldNews/idUSSEO14004720071216'
p1873
sg4
S'20071216\xc2\xa002:46 AM EST'
p1874
sg6
S"South Korea's Roh is albatross on candidate's neck"
p1875
sa(dp1876
g2
S'http://www.reuters.com/article/worldNews/idUSSEO13690720071216'
p1877
sg4
S'20071216\xc2\xa002:46 AM EST'
p1878
sg6
S"FACTBOX: South Korea's presidential long-shot Chung"
p1879
sa(dp1880
g2
S'http://www.reuters.com/article/homepageCrisis/idUSL16510951._CH_.2400'
p1881
sg4
S'20071216\xc2\xa002:37 AM EST'
p1882
sg6
S'ANALYSIS-After praise for Bali climate deal: the hard part'
p1883
sa(dp1884
g2
S'http://www.reuters.com/article/latestCrisis/idUSL16510951'
p1885
sg4
S'20071216\xc2\xa002:37 AM EST'
p1886
sg6
S'ANALYSIS-After praise for Bali climate deal: the hard part'
p1887
sa(dp1888
g2
S'http://www.reuters.com/article/pressRelease/idUS44635+16-Dec-2007+PRN20071216'
p1889
sg4
S'20071216\xc2\xa002:30 AM EST'
p1890
sg6
S'Following Is a Test Release'
p1891
sa(dp1892
g2
S'http://www.reuters.com/article/latestCrisis/idUSL16471863'
p1893
sg4
S'20071216\xc2\xa002:26 AM EST'
p1894
sg6
S"FEATURE-Dirty war adds to Kenya's insecurity"
p1895
sa(dp1896
g2
S'http://www.reuters.com/article/newsMaps/idUSSEO13444720071216'
p1897
sg4
S'20071216\xc2\xa002:05 AM EST'
p1898
sg6
S'Games torch to light up isolated North Korea'
p1899
sa(dp1900
g2
S'http://www.reuters.com/article/topNews/idUSN1532853920071216'
p1901
sg4
S'20071216\xc2\xa002:03 AM EST'
p1902
sg6
S'Bolivian regions shun Morales with autonomy drive'
p1903
sa(dp1904
g2
S'http://www.reuters.com/article/pressRelease/idUS43457+16-Dec-2007+PRN20071216'
p1905
sg4
S'20071216\xc2\xa002:00 AM EST'
p1906
sg6
S'Following Is a Test Release'
p1907
sa(dp1908
g2
S'http://www.reuters.com/article/topNews/idUSL1529739920071216'
p1909
sg4
S'20071216\xc2\xa001:53 AM EST'
p1910
sg6
S'TIMELINE: U.S. U-turn brings Bali climate deal'
p1911
sa(dp1912
g2
S'http://www.reuters.com/article/pressRelease/idUS41852+16-Dec-2007+PRN20071216'
p1913
sg4
S'20071216\xc2\xa001:30 AM EST'
p1914
sg6
S'Following Is a Test Release'
p1915
sa(dp1916
g2
S'http://www.reuters.com/article/topNews/idUSL1652576520071216'
p1917
sg4
S'20071216\xc2\xa001:20 AM EST'
p1918
sg6
S'Turkish warplanes attack PKK rebels in Iraq'
p1919
sa(dp1920
g2
S'http://www.reuters.com/article/worldNews/idUSSEO11147620071216'
p1921
sg4
S'20071216\xc2\xa001:04 AM EST'
p1922
sg6
S'Virtual rallies and singing wives beckon South Korea votes'
p1923
sa(dp1924
g2
S'http://www.reuters.com/article/pressRelease/idUS40132+16-Dec-2007+PRN20071216'
p1925
sg4
S'20071216\xc2\xa001:00 AM EST'
p1926
sg6
S'Following Is a Test Release'
p1927
sa(dp1928
g2
S'http://www.reuters.com/article/worldNews/idUSMAN8631120071216'
p1929
sg4
S'20071216\xc2\xa012:57 AM EST'
p1930
sg6
S'Philippines says kills top Abu Sayyaf militant'
p1931
sa(dp1932
g2
S'http://www.reuters.com/article/featuredCrisis/idUSMAN86311'
p1933
sg4
S'20071216\xc2\xa012:46 AM EST'
p1934
sg6
S'Philippines says kills top Abu Sayyaf militant'
p1935
sa(dp1936
g2
S'http://www.reuters.com/article/rbssConsumerGoodsAndRetailNews/idUSSHA13459720071216'
p1937
sg4
S'20071216\xc2\xa012:33 AM EST'
p1938
sg6
S'Wahaha workers say freeze Danone assets in China'
p1939
sa(dp1940
g2
S'http://www.reuters.com/article/pressRelease/idUS38561+16-Dec-2007+PRN20071216'
p1941
sg4
S'20071216\xc2\xa012:30 AM EST'
p1942
sg6
S'Following Is a Test Release'
p1943
sa(dp1944
g2
S'http://www.reuters.com/article/companyNewsAndPR/idUSL1652460120071216'
p1945
sg4
S'20071216\xc2\xa012:12 AM EST'
p1946
sg6
S'PRESS DIGEST - BRITISH SUNDAY BUSINESS - DEC =13'
p1947
sa(dp1948
g2
S'http://www.reuters.com/article/pressRelease/idUS36492+16-Dec-2007+PRN20071216'
p1949
sg4
S'20071216\xc2\xa012:00 AM EST'
p1950
sg6
S'Following Is a Test Release'
p1951
sa(dp1952
g2
S'http://www.reuters.com/news/video/videoStory?storyID=WAO1196697076617'
p1953
sg4
S'20071216\xc2\xa007:45 PM EST'
p1954
sg6
S'Babajob.com for low income job seekers'
p1955
sa(dp1956
g2
S'http://www.reuters.com/news/video/videoStory?storyID=ftpo1195054782448'
p1957
sg4
S'20071216\xc2\xa007:05 PM EST'
p1958
sg6
S"China's art collecting binge"
p1959
sa(dp1960
g2
S'http://www.reuters.com/news/video/videoStory?storyID=WAO1196697076576'
p1961
sg4
S'20071216\xc2\xa001:09 PM EST'
p1962
sg6
S'U.S. winter storms move on'
p1963
sa(dp1964
g2
S'http://www.reuters.com/news/video/videoStory?storyID=ftpo1195054782383'
p1965
sg4
S'20071216\xc2\xa011:51 AM EST'
p1966
sg6
S'Bangladesh marks Victory Day'
p1967
sa(dp1968
g2
S'http://www.reuters.com/news/video/videoStory?storyID=WAO1196697076571'
p1969
sg4
S'20071216\xc2\xa011:23 AM EST'
p1970
sg6
S'Turkey planes bomb northern Iraq'
p1971
sa(dp1972
g2
S'http://www.reuters.com/news/video/videoStory?storyID=ftpo1195054782373'
p1973
sg4
S'20071216\xc2\xa009:36 AM EST'
p1974
sg6
S'Shark attack at Bondi beach'
p1975
sa(dp1976
g2
S'http://www.reuters.com/news/video/videoStory?storyID=ftpo1195054782368'
p1977
sg4
S'20071216\xc2\xa009:25 AM EST'
p1978
sg6
S'Swimmers take icy plunge'
p1979
sa(dp1980
g2
S'http://www.reuters.com/news/video/videoStory?storyID=WAO1196697076566'
p1981
sg4
S'20071216\xc2\xa009:17 AM EST'
p1982
sg6
S'Gunfight in Grozny'
p1983
sa(dp1984
g2
S'http://www.reuters.com/news/video/videoStory?storyID=WAO1196697076561'
p1985
sg4
S'20071216\xc2\xa008:03 AM EST'
p1986
sg6
S'Time up for Thabo?'
p1987
sa(dp1988
g2
S'http://www.reuters.com/news/video/videoStory?storyID=WAO1196697076551'
p1989
sg4
S'20071216\xc2\xa006:47 AM EST'
p1990
sg6
S'Basra returns to Iraqi control'
p1991
sa(dp1992
g2
S'http://www.reuters.com/news/video/videoStory?storyID=WAO1196697076546'
p1993
sg4
S'20071216\xc2\xa006:15 AM EST'
p1994
sg6
S'Terror suspect escapes custody '
p1995
sa(dp1996
g2
S'http://www.reuters.com/news/video/videoStory?storyID=WAO1196697076541'
p1997
sg4
S'20071216\xc2\xa004:54 AM EST'
p1998
sg6
S'UK hand control of Basra back to Iraq'
p1999
sa.