(lp0
(dp1
S'href'
p2
S'http://www.reuters.com/article/sportsNews/idUSSP16305620070128'
p3
sS'ts'
p4
S'20070127\xc2\xa011:51 PM EST'
p5
sS'title'
p6
S'Leafs solve Canadiens penalty kill to win 4-1'
p7
sa(dp8
g2
S'http://www.reuters.com/article/sportsNews/idUSN2740657520070128'
p9
sg4
S'20070127\xc2\xa011:36 PM EST'
p10
sg6
S'Dibaba races to new indoor 5,000m record'
p11
sa(dp12
g2
S'http://www.reuters.com/article/worldNews/idUST6843220070128'
p13
sg4
S'20070127\xc2\xa011:30 PM EST'
p14
sg6
S"Japan's defense minister chides U.S. again: Kyodo"
p15
sa(dp16
g2
S'http://www.reuters.com/article/latestCrisis/idUST68432'
p17
sg4
S'20070127\xc2\xa011:20 PM EST'
p18
sg6
S"Japan's defence minister chides U.S. again-Kyodo"
p19
sa(dp20
g2
S'http://www.reuters.com/article/worldNews/idUSL2792062420070128'
p21
sg4
S'20070127\xc2\xa010:18 PM EST'
p22
sg6
S'Senegal police crush opposition election protest'
p23
sa(dp24
g2
S'http://www.reuters.com/article/businessNews/idUSN2632901820070128'
p25
sg4
S'20070127\xc2\xa010:07 PM EST'
p26
sg6
S'Disney Leibovitz ads aim for older family'
p27
sa(dp28
g2
S'http://www.reuters.com/article/worldNews/idUSERS78274220070128'
p29
sg4
S'20070127\xc2\xa009:55 PM EST'
p30
sg6
S'Armed man held after Turkish ferry hijack bid'
p31
sa(dp32
g2
S'http://www.reuters.com/article/entertainmentNews/idUST14256220070128'
p33
sg4
S'20070127\xc2\xa009:47 PM EST'
p34
sg6
S'Japan jazz fans bid sad farewell to historic cafe'
p35
sa(dp36
g2
S'http://www.reuters.com/article/entertainmentNews/idUSN2739494720070128'
p37
sg4
S'20070127\xc2\xa009:46 PM EST'
p38
sg6
S'Actor awards show may be the key to Oscar victories'
p39
sa(dp40
g2
S'http://www.reuters.com/article/sportsNews/idUSSP3396520070128'
p41
sg4
S'20070127\xc2\xa009:08 PM EST'
p42
sg6
S'Tiger in title hunt at Torrey Pines'
p43
sa(dp44
g2
S'http://www.reuters.com/article/sportsNews/idUSSP721720070128'
p45
sg4
S'20070127\xc2\xa009:08 PM EST'
p46
sg6
S'Tiger fan Snedeker plans unchanged routine in victory bid'
p47
sa(dp48
g2
S'http://www.reuters.com/article/topNews/idUSN2722304620070128'
p49
sg4
S'20070127\xc2\xa008:53 PM EST'
p50
sg6
S'U.S. may cite Israel for use of cluster arms: report'
p51
sa(dp52
g2
S'http://www.reuters.com/article/reviewsNews/idUSN2743119220070128'
p53
sg4
S'20070127\xc2\xa008:50 PM EST'
p54
sg6
S'Locklear gives "Angels Fall" some wings'
p55
sa(dp56
g2
S'http://www.reuters.com/article/reviewsNews/idUSN2741343320070128'
p57
sg4
S'20070127\xc2\xa008:50 PM EST'
p58
sg6
S'"Blood" a silly werewolf movie without any fangs'
p59
sa(dp60
g2
S'http://www.reuters.com/article/reviewsNews/idUSN2739945320070128'
p61
sg4
S'20070127\xc2\xa008:50 PM EST'
p62
sg6
S'Billboard CD reviews: Norah Jones, Paolo Nutini'
p63
sa(dp64
g2
S'http://www.reuters.com/article/reviewsNews/idUSN2633995020070128'
p65
sg4
S'20070127\xc2\xa008:50 PM EST'
p66
sg6
S'Douglas, Wood shine in sweet-natured family drama'
p67
sa(dp68
g2
S'http://www.reuters.com/article/reviewsNews/idUSN2632026920070128'
p69
sg4
S'20070127\xc2\xa008:50 PM EST'
p70
sg6
S'Israeli "Mud" a bittersweet view of kibbutz life'
p71
sa(dp72
g2
S'http://www.reuters.com/article/reviewsNews/idUSN2631489520070128'
p73
sg4
S'20070127\xc2\xa008:50 PM EST'
p74
sg6
S'"Joshua" a brilliant house-of-horror tale'
p75
sa(dp76
g2
S'http://www.reuters.com/article/reviewsNews/idUSN2630908020070128'
p77
sg4
S'20070127\xc2\xa008:50 PM EST'
p78
sg6
S'"Translations" receives welcome revival'
p79
sa(dp80
g2
S'http://www.reuters.com/article/reviewsNews/idUSN2630447420070128'
p81
sg4
S'20070127\xc2\xa008:50 PM EST'
p82
sg6
S'"Son of Rambow" has limited, lowbrow appeal'
p83
sa(dp84
g2
S'http://www.reuters.com/article/reviewsNews/idUSN2532012920070128'
p85
sg4
S'20070127\xc2\xa008:50 PM EST'
p86
sg6
S'"Night Buffalo" a painful experience'
p87
sa(dp88
g2
S'http://www.reuters.com/article/reviewsNews/idUSN2529084120070128'
p89
sg4
S'20070127\xc2\xa008:50 PM EST'
p90
sg6
S'"Crazy Love" bizarre, but badly made'
p91
sa(dp92
g2
S'http://www.reuters.com/article/reviewsNews/idUSN2519252120070128'
p93
sg4
S'20070127\xc2\xa008:48 PM EST'
p94
sg6
S'Meet the new "Boss": a comic delight'
p95
sa(dp96
g2
S'http://www.reuters.com/article/sportsNews/idUSN2741089120070128'
p97
sg4
S'20070127\xc2\xa008:29 PM EST'
p98
sg6
S'Australian rookie Buckle happy to miss Tiger grouping'
p99
sa(dp100
g2
S'http://www.reuters.com/article/companyNewsAndPR/idUSL2893263220070128'
p101
sg4
S'20070127\xc2\xa008:26 PM EST'
p102
sg6
S"UPDATE 1-Guinea's unions suspend 18-day-old general strike"
p103
sa(dp104
g2
S'http://www.reuters.com/article/homepageCrisis/idUSL28932632._CH_.2400'
p105
sg4
S'20070127\xc2\xa008:26 PM EST'
p106
sg6
S"Guinea's unions suspend 18-day-old general strike"
p107
sa(dp108
g2
S'http://www.reuters.com/article/latestCrisis/idUSL28932632'
p109
sg4
S'20070127\xc2\xa008:26 PM EST'
p110
sg6
S"Guinea's unions suspend 18-day-old general strike"
p111
sa(dp112
g2
S'http://www.reuters.com/article/worldNews/idUSL2792668320070128'
p113
sg4
S'20070127\xc2\xa008:21 PM EST'
p114
sg6
S'Spanish town hit by second weekend of youth riots'
p115
sa(dp116
g2
S'http://www.reuters.com/article/sportsNews/idUSSP613420070128'
p117
sg4
S'20070127\xc2\xa008:17 PM EST'
p118
sg6
S'Meissner hangs on to claim maiden U.S. title'
p119
sa(dp120
g2
S'http://www.reuters.com/article/peopleNews/idUSN2539128120070128'
p121
sg4
S'20070127\xc2\xa007:29 PM EST'
p122
sg6
S'Director Besson finds Sundance can be "pleasant"'
p123
sa(dp124
g2
S'http://www.reuters.com/article/entertainmentNews/idUSN2632163720070128'
p125
sg4
S'20070127\xc2\xa007:28 PM EST'
p126
sg6
S'Blues legend B.B. King released from hospital'
p127
sa(dp128
g2
S'http://www.reuters.com/article/latestCrisis/idUSL28931705'
p129
sg4
S'20070127\xc2\xa007:15 PM EST'
p130
sg6
S"Guinea's unions suspend 18-day-old general strike"
p131
sa(dp132
g2
S'http://www.reuters.com/article/latestCrisis/idUSERS782742'
p133
sg4
S'20070127\xc2\xa006:59 PM EST'
p134
sg6
S'Armed man held after Turkish ferry hijack bid'
p135
sa(dp136
g2
S'http://www.reuters.com/article/topNews/idUSL0955322120070127'
p137
sg4
S'20070127\xc2\xa006:35 PM EST'
p138
sg6
S'Palestinian factions fight gunbattles in Gaza'
p139
sa(dp140
g2
S'http://www.reuters.com/article/domesticNews/idUSN2740519020070127'
p141
sg4
S'20070127\xc2\xa006:25 PM EST'
p142
sg6
S'Tens of thousands demand U.S. get out of Iraq'
p143
sa(dp144
g2
S'http://www.reuters.com/article/domesticNews/idUSN2741380520070127'
p145
sg4
S'20070127\xc2\xa006:16 PM EST'
p146
sg6
S'Clinton in Iowa: "About time" for woman president'
p147
sa(dp148
g2
S'http://www.reuters.com/article/sportsNews/idUSSP3396520070127'
p149
sg4
S'20070127\xc2\xa006:04 PM EST'
p150
sg6
S'Tiger in title hunt at Torrey Pines'
p151
sa(dp152
g2
S'http://www.reuters.com/article/topNews/idUSMAC62800220070127'
p153
sg4
S'20070127\xc2\xa005:48 PM EST'
p154
sg6
S'Car bombs kill 15 in Baghdad shopping area'
p155
sa(dp156
g2
S'http://www.reuters.com/article/latestCrisis/idUSCOL742486'
p157
sg4
S'20070127\xc2\xa005:29 PM EST'
p158
sg6
S'Car bombs kill 15 in Baghdad shopping area'
p159
sa(dp160
g2
S'http://www.reuters.com/article/latestCrisis/idUSN27429575'
p161
sg4
S'20070127\xc2\xa005:17 PM EST'
p162
sg6
S'Tens of thousands demand U.S. get out of Iraq'
p163
sa(dp164
g2
S'http://www.reuters.com/article/latestCrisis/idUSN27413805'
p165
sg4
S'20070127\xc2\xa005:16 PM EST'
p166
sg6
S'Clinton in Iowa: "About time" for woman president'
p167
sa(dp168
g2
S'http://www.reuters.com/article/ousiv/idUSL2790666920070127'
p169
sg4
S'20070127\xc2\xa005:03 PM EST'
p170
sg6
S'Siemens CEO "very positive" on global outlook'
p171
sa(dp172
g2
S'http://www.reuters.com/article/ousiv/idUSL2790429620070127'
p173
sg4
S'20070127\xc2\xa005:03 PM EST'
p174
sg6
S'Dow Chemical CEO says could do $10 bln deal'
p175
sa(dp176
g2
S'http://www.reuters.com/article/ousiv/idUSL2788241720070127'
p177
sg4
S'20070127\xc2\xa005:03 PM EST'
p178
sg6
S"Inflation still a major global risk: ECB's Trichet"
p179
sa(dp180
g2
S'http://www.reuters.com/article/ousiv/idUSL2688188820070127'
p181
sg4
S'20070127\xc2\xa005:03 PM EST'
p182
sg6
S'Markets understand ECB inflation resolve: Weber'
p183
sa(dp184
g2
S'http://www.reuters.com/article/internetNews/idUSL2791097520070127'
p185
sg4
S'20070127\xc2\xa005:02 PM EST'
p186
sg6
S'Internet to revolutionize TV in 5 years: Gates'
p187
sa(dp188
g2
S'http://www.reuters.com/article/industryNews/idUSN2635201120070127'
p189
sg4
S'20070127\xc2\xa004:58 PM EST'
p190
sg6
S"2-hour 'Idol' demolishes Wednesday competition"
p191
sa(dp192
g2
S'http://www.reuters.com/article/industryNews/idUSN2627128020070127'
p193
sg4
S'20070127\xc2\xa004:58 PM EST'
p194
sg6
S'Hollywood stars choose between Clinton, Obama'
p195
sa(dp196
g2
S'http://www.reuters.com/article/industryNews/idUSN2531495920070127'
p197
sg4
S'20070127\xc2\xa004:58 PM EST'
p198
sg6
S'Spoof, crime thriller vie for box office honors'
p199
sa(dp200
g2
S'http://www.reuters.com/article/industryNews/idUSN2528883320070127'
p201
sg4
S'20070127\xc2\xa004:58 PM EST'
p202
sg6
S'Deep-pocketed parkas trigger a flurry of sales'
p203
sa(dp204
g2
S'http://www.reuters.com/article/industryNews/idUSL2792285920070127'
p205
sg4
S'20070127\xc2\xa004:58 PM EST'
p206
sg6
S'Key ad players bullish on 2007 advertising'
p207
sa(dp208
g2
S'http://www.reuters.com/article/industryNews/idUSN2641809220070127'
p209
sg4
S'20070127\xc2\xa004:58 PM EST'
p210
sg6
S'Billboard single reviews: Underwood, Hicks'
p211
sa(dp212
g2
S'http://www.reuters.com/article/industryNews/idUSN2638652420070127'
p213
sg4
S'20070127\xc2\xa004:58 PM EST'
p214
sg6
S'Concert ticket presales lose "exclusive" tag'
p215
sa(dp216
g2
S'http://www.reuters.com/article/topNews/idUSL2792277220070127'
p217
sg4
S'20070127\xc2\xa004:55 PM EST'
p218
sg6
S'Iran issues conflicting signals on nuclear work'
p219
sa(dp220
g2
S'http://www.reuters.com/article/latestCrisis/idUSL27926484'
p221
sg4
S'20070127\xc2\xa004:54 PM EST'
p222
sg6
S'Roadside bombs kill 7 U.S. soldiers in 3 days in Iraq'
p223
sa(dp224
g2
S'http://www.reuters.com/article/newsOne/idUSL2792648420070127'
p225
sg4
S'20070127\xc2\xa004:51 PM EST'
p226
sg6
S'Roadside bombs kill 7 U.S. soldiers in three days'
p227
sa(dp228
g2
S'http://www.reuters.com/article/topNews/idUSL2792332120070127'
p229
sg4
S'20070127\xc2\xa004:45 PM EST'
p230
sg6
S'Ethiopia to withdraw third of Somalia troops'
p231
sa(dp232
g2
S'http://www.reuters.com/article/topNews/idUSL2790145620070127'
p233
sg4
S'20070127\xc2\xa004:45 PM EST'
p234
sg6
S'Ethiopia created new hope for peace in Somalia: AU'
p235
sa(dp236
g2
S'http://www.reuters.com/article/topNews/idUSL2792289820070127'
p237
sg4
S'20070127\xc2\xa004:45 PM EST'
p238
sg6
S'U.S. experts identified bodies in Somalia: Meles'
p239
sa(dp240
g2
S'http://www.reuters.com/article/latestCrisis/idUSL27921401'
p241
sg4
S'20070127\xc2\xa003:20 PM EST'
p242
sg6
S'Guinea unions close to signing deal to end strike'
p243
sa(dp244
g2
S'http://www.reuters.com/article/latestCrisis/idUSN27405190'
p245
sg4
S'20070127\xc2\xa003:09 PM EST'
p246
sg6
S'Tens of thousands in D.C. protest against Iraq war'
p247
sa(dp248
g2
S'http://www.reuters.com/article/homepageCrisis/idUSL27403952._CH_.2400'
p249
sg4
S'20070127\xc2\xa002:59 PM EST'
p250
sg6
S'INTERVIEW-Ethiopia to pull out third of Somalia troops'
p251
sa(dp252
g2
S'http://www.reuters.com/article/latestCrisis/idUSL27403952'
p253
sg4
S'20070127\xc2\xa002:59 PM EST'
p254
sg6
S'INTERVIEW-Ethiopia to pull out third of Somalia troops'
p255
sa(dp256
g2
S'http://www.reuters.com/article/worldNews/idUSL2790126920070127'
p257
sg4
S'20070127\xc2\xa002:58 PM EST'
p258
sg6
S'Deportation fears for West Bank heart surgeon ease'
p259
sa(dp260
g2
S'http://www.reuters.com/article/worldNews/idUSL2792062420070127'
p261
sg4
S'20070127\xc2\xa002:55 PM EST'
p262
sg6
S'Senegal police crush opposition election protest'
p263
sa(dp264
g2
S'http://www.reuters.com/article/worldNews/idUSN2716921620070127'
p265
sg4
S'20070127\xc2\xa002:52 PM EST'
p266
sg6
S'Ecuador says new Defense Minister to be a woman'
p267
sa(dp268
g2
S'http://www.reuters.com/article/latestCrisis/idUSL27920624'
p269
sg4
S'20070127\xc2\xa002:51 PM EST'
p270
sg6
S'Senegal police crush opposition election protest'
p271
sa(dp272
g2
S'http://www.reuters.com/article/latestCrisis/idUSN27169216'
p273
sg4
S'20070127\xc2\xa002:47 PM EST'
p274
sg6
S'Ecuador says new Defense Minister to be a woman'
p275
sa(dp276
g2
S'http://www.reuters.com/article/newsOne/idUSL2791237620070127'
p277
sg4
S'20070127\xc2\xa002:37 PM EST'
p278
sg6
S'Two in U.S. embassy car shot dead in Nairobi'
p279
sa(dp280
g2
S'http://www.reuters.com/article/latestCrisis/idUSL27912376'
p281
sg4
S'20070127\xc2\xa002:36 PM EST'
p282
sg6
S'Two in U.S. embassy car shot dead in Nairobi'
p283
sa(dp284
g2
S'http://www.reuters.com/article/latestCrisis/idUSL27156853'
p285
sg4
S'20070127\xc2\xa002:32 PM EST'
p286
sg6
S'Ethiopia created new hope for peace in Somalia-AU'
p287
sa(dp288
g2
S'http://www.reuters.com/article/businessNews/idUSL2792515720070127'
p289
sg4
S'20070127\xc2\xa002:29 PM EST'
p290
sg6
S'Rocker Gabriel wants "YouTube for human rights"'
p291
sa(dp292
g2
S'http://www.reuters.com/article/topNews/idUSL2683358620070127'
p293
sg4
S'20070127\xc2\xa002:27 PM EST'
p294
sg6
S'Ministers agree to resume WTO talks'
p295
sa(dp296
g2
S'http://www.reuters.com/article/topNews/idUSL2791647220070127'
p297
sg4
S'20070127\xc2\xa002:27 PM EST'
p298
sg6
S'Business says carbon trading market must be global'
p299
sa(dp300
g2
S'http://www.reuters.com/article/topNews/idUSL2790152720070127'
p301
sg4
S'20070127\xc2\xa002:27 PM EST'
p302
sg6
S'Developing powers seen critical to climate pact'
p303
sa(dp304
g2
S'http://www.reuters.com/article/companyNewsAndPR/idUSL2726905720070127'
p305
sg4
S'20070127\xc2\xa002:15 PM EST'
p306
sg6
S'DAVOS-Top Kremlin official Medvedev woos world forum'
p307
sa(dp308
g2
S'http://www.reuters.com/article/latestCrisis/idUSL27901527'
p309
sg4
S'20070127\xc2\xa002:14 PM EST'
p310
sg6
S'Developing powers seen critical to climate pact'
p311
sa(dp312
g2
S'http://www.reuters.com/article/topNews/idUSL2790514220070127'
p313
sg4
S'20070127\xc2\xa002:10 PM EST'
p314
sg6
S'Palestinian president to pay security forces: aide'
p315
sa(dp316
g2
S'http://www.reuters.com/article/topNews/idUSHUN76873520070127'
p317
sg4
S'20070127\xc2\xa002:06 PM EST'
p318
sg6
S"U.S.'s Kimmitt cites progress on Iraq rebuild"
p319
sa(dp320
g2
S'http://www.reuters.com/article/topNews/idUSL2790402920070127'
p321
sg4
S'20070127\xc2\xa002:02 PM EST'
p322
sg6
S'Russia queries US presence in Mideast: agencies'
p323
sa(dp324
g2
S'http://www.reuters.com/article/worldNews/idUSSP3733320070127'
p325
sg4
S'20070127\xc2\xa002:01 PM EST'
p326
sg6
S'Suspected suicide bombing kills 11 in Pakistan'
p327
sa(dp328
g2
S'http://www.reuters.com/article/bondsNews/idUSN2741701920070127'
p329
sg4
S'20070127\xc2\xa001:51 PM EST'
p330
sg6
S'UPDATE 1-Ecuador not to release debt restructure plan in Jan'
p331
sa(dp332
g2
S'http://www.reuters.com/article/latestCrisis/idUSL27922307'
p333
sg4
S'20070127\xc2\xa001:44 PM EST'
p334
sg6
S'Guinea-Bissau lifts arrest warrant for ex-PM'
p335
sa(dp336
g2
S'http://www.reuters.com/article/latestCrisis/idUSKHA719169'
p337
sg4
S'20070127\xc2\xa001:42 PM EST'
p338
sg6
S'FACTBOX-Security developments in Iraq, Jan 27'
p339
sa(dp340
g2
S'http://www.reuters.com/article/latestCrisis/idUSL27915243'
p341
sg4
S'20070127\xc2\xa001:40 PM EST'
p342
sg6
S'Suspected suicide bombing kills 11 in Pakistan'
p343
sa(dp344
g2
S'http://www.reuters.com/article/latestCrisis/idUSL27658398'
p345
sg4
S'20070127\xc2\xa001:30 PM EST'
p346
sg6
S'Blair sees wider climate deal after Kyoto'
p347
sa(dp348
g2
S'http://www.reuters.com/article/topNews/idUSTHO62946620070127'
p349
sg4
S'20070127\xc2\xa001:30 PM EST'
p350
sg6
S'Dutchman suspected of Iraq attacks sent to US'
p351
sa(dp352
g2
S'http://www.reuters.com/article/bondsNews/idUSN2741372920070127'
p353
sg4
S'20070127\xc2\xa001:28 PM EST'
p354
sg6
S'Ecuador not to release debt restructure plan in Jan'
p355
sa(dp356
g2
S'http://www.reuters.com/article/companyNewsAndPR/idUSL2776236020070127'
p357
sg4
S'20070127\xc2\xa001:24 PM EST'
p358
sg6
S'DAVOS-UPDATE 6-Ministers agree to resume WTO talks; Blair upbeat'
p359
sa(dp360
g2
S'http://www.reuters.com/article/latestCrisis/idUSL27920881'
p361
sg4
S'20070127\xc2\xa001:18 PM EST'
p362
sg6
S'War-torn south Sudan to urge Africa reconstruction cash'
p363
sa(dp364
g2
S'http://www.reuters.com/article/topNews/idUSL2791339120070127'
p365
sg4
S'20070127\xc2\xa001:17 PM EST'
p366
sg6
S'Snowy protests fail to rock businessmen on a roll'
p367
sa(dp368
g2
S'http://www.reuters.com/article/newsOne/idUSN2743567720070127'
p369
sg4
S'20070127\xc2\xa001:15 PM EST'
p370
sg6
S"McCain seeks Iraq benchmarks as 'last chance'"
p371
sa(dp372
g2
S'http://www.reuters.com/article/latestCrisis/idUSL27912115'
p373
sg4
S'20070127\xc2\xa001:06 PM EST'
p374
sg6
S'DAVOS-Delegates donate to ease Davos carbon footprint'
p375
sa(dp376
g2
S'http://www.reuters.com/article/homepageCrisis/idUSL27924349._CH_.2400'
p377
sg4
S'20070127\xc2\xa001:04 PM EST'
p378
sg6
S'Ethiopia to withdraw third of Somalia troops by Sunday'
p379
sa(dp380
g2
S'http://www.reuters.com/article/latestCrisis/idUSL27924349'
p381
sg4
S'20070127\xc2\xa001:04 PM EST'
p382
sg6
S'Ethiopia to withdraw third of Somalia troops by Sunday'
p383
sa(dp384
g2
S'http://www.reuters.com/article/sportsNews/idUSL2791685520070127'
p385
sg4
S'20070127\xc2\xa012:50 PM EST'
p386
sg6
S'Late stumble costs Green outright lead in Qatar'
p387
sa(dp388
g2
S'http://www.reuters.com/article/sportsNews/idUSL2790032220070127'
p389
sg4
S'20070127\xc2\xa012:46 PM EST'
p390
sg6
S"Alpine skiing: Sweden's Byggmark hits the big time"
p391
sa(dp392
g2
S'http://www.reuters.com/article/mergersNews/idUSL2746990420070127'
p393
sg4
S'20070127\xc2\xa012:46 PM EST'
p394
sg6
S'DAVOS-UPDATE 1-India opens telecoms market door to Vodafone'
p395
sa(dp396
g2
S'http://www.reuters.com/article/latestCrisis/idUSL27922088'
p397
sg4
S'20070127\xc2\xa012:45 PM EST'
p398
sg6
S'Saudi king rejects talk of royal family rift'
p399
sa(dp400
g2
S'http://www.reuters.com/article/latestCrisis/idUSL27923321'
p401
sg4
S'20070127\xc2\xa012:44 PM EST'
p402
sg6
S'Ethiopia to withdraw third of Somalia troops by Sunday'
p403
sa(dp404
g2
S'http://www.reuters.com/article/sportsNews/idUSL2790565520070127'
p405
sg4
S'20070127\xc2\xa012:42 PM EST'
p406
sg6
S'Goetschl celebrates 44th World Cup win in Alpine skiing'
p407
sa(dp408
g2
S'http://www.reuters.com/article/sportsNews/idUSELK76361220070127'
p409
sg4
S'20070127\xc2\xa012:42 PM EST'
p410
sg6
S"FACTBOX-Alpine skiing-Women's downhill winner Goetschl"
p411
sa(dp412
g2
S'http://www.reuters.com/article/homepageCrisis/idUSL27922898._CH_.2400'
p413
sg4
S'20070127\xc2\xa012:41 PM EST'
p414
sg6
S'U.S. experts identified bodies in Somalia-Meles'
p415
sa(dp416
g2
S'http://www.reuters.com/article/latestCrisis/idUSL27922898'
p417
sg4
S'20070127\xc2\xa012:41 PM EST'
p418
sg6
S'U.S. experts identified bodies in Somalia-Meles'
p419
sa(dp420
g2
S'http://www.reuters.com/article/sportsNews/idUSL272456920070127'
p421
sg4
S'20070127\xc2\xa012:33 PM EST'
p422
sg6
S"Italy's Figure skater Kostner wins European title"
p423
sa(dp424
g2
S'http://www.reuters.com/article/bondsNews/idUSL2789790120070127'
p425
sg4
S'20070127\xc2\xa012:20 PM EST'
p426
sg6
S'DAVOS-Key ad players bullish on 2007 advertising'
p427
sa(dp428
g2
S'http://www.reuters.com/article/latestCrisis/idUSL27922076'
p429
sg4
S'20070127\xc2\xa012:13 PM EST'
p430
sg6
S'U.S. experts identified bodies in Somalia-Meles'
p431
sa(dp432
g2
S'http://www.reuters.com/article/latestCrisis/idUSL27921327'
p433
sg4
S'20070127\xc2\xa012:13 PM EST'
p434
sg6
S'Germany, Jordan call for push on Mideast peace'
p435
sa(dp436
g2
S'http://www.reuters.com/article/worldNews/idUSL2790987220070127'
p437
sg4
S'20070127\xc2\xa012:07 PM EST'
p438
sg6
S'U.N. chief vows action on war-torn Congo and Darfur'
p439
sa(dp440
g2
S'http://www.reuters.com/article/latestCrisis/idUSL27920433'
p441
sg4
S'20070127\xc2\xa011:53 AM EST'
p442
sg6
S'UN chief vows action on war-torn Congo and Darfur'
p443
sa(dp444
g2
S'http://www.reuters.com/article/homepageCrisis/idUSL27920433._CH_.2400'
p445
sg4
S'20070127\xc2\xa011:53 AM EST'
p446
sg6
S'UN chief vows action on war-torn Congo and Darfur'
p447
sa(dp448
g2
S'http://www.reuters.com/article/filmNews/idUSN2640442120070127'
p449
sg4
S'20070127\xc2\xa011:35 AM EST'
p450
sg6
S'Stagehand killed on Toronto movie set'
p451
sa(dp452
g2
S'http://www.reuters.com/article/filmNews/idUSN2638655320070127'
p453
sg4
S'20070127\xc2\xa011:35 AM EST'
p454
sg6
S'Music plays vital role for porn maven Stagliano'
p455
sa(dp456
g2
S'http://www.reuters.com/article/filmNews/idUSN2631042420070127'
p457
sg4
S'20070127\xc2\xa011:35 AM EST'
p458
sg6
S'"Ministers" in vanguard of American Latino pics'
p459
sa(dp460
g2
S'http://www.reuters.com/article/filmNews/idUSN2626468820070127'
p461
sg4
S'20070127\xc2\xa011:35 AM EST'
p462
sg6
S'"King of California" rules at Sundance'
p463
sa(dp464
g2
S'http://www.reuters.com/article/filmNews/idUSN2621111320070127'
p465
sg4
S'20070127\xc2\xa011:35 AM EST'
p466
sg6
S'"Ten" satire gets high-five at Sundance'
p467
sa(dp468
g2
S'http://www.reuters.com/article/filmNews/idUSN2543269420070127'
p469
sg4
S'20070127\xc2\xa011:35 AM EST'
p470
sg6
S'Aging Sundancers bring depth to independent films'
p471
sa(dp472
g2
S'http://www.reuters.com/article/entertainmentNews/idUSN2739494720070127'
p473
sg4
S'20070127\xc2\xa011:34 AM EST'
p474
sg6
S'Actor awards show may be the key to Oscar victories'
p475
sa(dp476
g2
S'http://www.reuters.com/article/latestCrisis/idUSISL16868'
p477
sg4
S'20070127\xc2\xa011:32 AM EST'
p478
sg6
S"Blast kills up to 10 police in Pakistan's Peshawar"
p479
sa(dp480
g2
S'http://www.reuters.com/article/worldNews/idUSL2790945120070127'
p481
sg4
S'20070127\xc2\xa011:29 AM EST'
p482
sg6
S'Lebanon general says army under pressure'
p483
sa(dp484
g2
S'http://www.reuters.com/article/newsOne/idUSL2791191220070127'
p485
sg4
S'20070127\xc2\xa011:23 AM EST'
p486
sg6
S'House speaker in Pakistan amid bill row'
p487
sa(dp488
g2
S'http://www.reuters.com/article/latestCrisis/idUSL27844147'
p489
sg4
S'20070127\xc2\xa011:06 AM EST'
p490
sg6
S"Germany's Merkel says will not tolerate neo Nazis"
p491
sa(dp492
g2
S'http://www.reuters.com/article/ousiv/idUSN2636565920070127'
p493
sg4
S'20070127\xc2\xa010:54 AM EST'
p494
sg6
S'U.S. earns outlooks off this week: Reuters Estimates'
p495
sa(dp496
g2
S'http://www.reuters.com/article/topNews/idUSL2784595420070127'
p497
sg4
S'20070127\xc2\xa010:53 AM EST'
p498
sg6
S'U.S. says optimistic but realistic on trade talks'
p499
sa(dp500
g2
S'http://www.reuters.com/article/latestCrisis/idUSN27435677'
p501
sg4
S'20070127\xc2\xa010:44 AM EST'
p502
sg6
S"DAVOS-McCain seeks Iraq benchmarks as 'last chance'"
p503
sa(dp504
g2
S'http://www.reuters.com/article/topNews/idUSN2641734320070127'
p505
sg4
S'20070127\xc2\xa010:30 AM EST'
p506
sg6
S'Bush brushes aside criticism of health plan'
p507
sa(dp508
g2
S'http://www.reuters.com/article/latestCrisis/idUSL27915432'
p509
sg4
S'20070127\xc2\xa010:03 AM EST'
p510
sg6
S'Iraq PM says Bush reiterates backing in phone call'
p511
sa(dp512
g2
S'http://www.reuters.com/article/mergersNews/idUSL2790887920070127'
p513
sg4
S'20070127\xc2\xa009:51 AM EST'
p514
sg6
S'DAVOS-India Min hopes Vodafone can get "footprint" in India'
p515
sa(dp516
g2
S'http://www.reuters.com/article/topNews/idUSL2791340720070127'
p517
sg4
S'20070127\xc2\xa009:49 AM EST'
p518
sg6
S'Rocket blast shakes U.S. embassy in Iraq: witness'
p519
sa(dp520
g2
S'http://www.reuters.com/article/latestCrisis/idUSL27811914'
p521
sg4
S'20070127\xc2\xa009:42 AM EST'
p522
sg6
S'Romania says Ukraine fails to discuss Danube canal'
p523
sa(dp524
g2
S'http://www.reuters.com/article/homepageCrisis/idUSL27829088._CH_.2400'
p525
sg4
S'20070127\xc2\xa009:41 AM EST'
p526
sg6
S'Slow Sudan peace deals hurt Darfur hopes - Norway'
p527
sa(dp528
g2
S'http://www.reuters.com/article/latestCrisis/idUSL27829088'
p529
sg4
S'20070127\xc2\xa009:41 AM EST'
p530
sg6
S'Slow Sudan peace deals hurt Darfur hopes - Norway'
p531
sa(dp532
g2
S'http://www.reuters.com/article/latestCrisis/idUSL27913407'
p533
sg4
S'20070127\xc2\xa009:37 AM EST'
p534
sg6
S'Rocket blast shakes U.S. embassy in Iraq - witness'
p535
sa(dp536
g2
S'http://www.reuters.com/article/tnBasicIndustries-SP/idUSL2789934520070127'
p537
sg4
S'20070127\xc2\xa009:33 AM EST'
p538
sg6
S'UPDATE 2-Volkswagen Brussels strike set to end Monday'
p539
sa(dp540
g2
S'http://www.reuters.com/article/latestCrisis/idUSL27123452'
p541
sg4
S'20070127\xc2\xa009:29 AM EST'
p542
sg6
S'DAVOS-BLAIR SAYS "MADNESS" NOT TO ACT TO PREVENT CLIMATE CHANGE,'
p543
sa(dp544
g2
S'http://www.reuters.com/article/bankingfinancial-SP/idUSL2759442420070127'
p545
sg4
S'20070127\xc2\xa009:27 AM EST'
p546
sg6
S'KBC Securities sees further eastern expansion-paper'
p547
sa(dp548
g2
S'http://www.reuters.com/article/latestCrisis/idUSL27913207'
p549
sg4
S'20070127\xc2\xa009:27 AM EST'
p550
sg6
S'DAVOS-BLAIR SAYS IF SUDAN, SOMALIA SLIP FURTHER INTO ABYSS, EFFE'
p551
sa(dp552
g2
S'http://www.reuters.com/article/ousiv/idUSN2637334820070127'
p553
sg4
S'20070127\xc2\xa009:23 AM EST'
p554
sg6
S'Bank of America, Countrywide in merger talks: FT'
p555
sa(dp556
g2
S'http://www.reuters.com/article/latestCrisis/idUSL27909451'
p557
sg4
S'20070127\xc2\xa009:18 AM EST'
p558
sg6
S'Lebanon general says army under pressure'
p559
sa(dp560
g2
S'http://www.reuters.com/article/homepageCrisis/idUSL27910609._CH_.2400'
p561
sg4
S'20070127\xc2\xa009:05 AM EST'
p562
sg6
S'Chad to withdraw from AU if Sudan gets chair'
p563
sa(dp564
g2
S'http://www.reuters.com/article/latestCrisis/idUSL27911239'
p565
sg4
S'20070127\xc2\xa009:03 AM EST'
p566
sg6
S'Two in U.S. embassy car shot in Nairobi carjacking'
p567
sa(dp568
g2
S'http://www.reuters.com/article/latestCrisis/idUSDEL10634'
p569
sg4
S'20070127\xc2\xa009:03 AM EST'
p570
sg6
S'One killed in fresh Nepal clashes'
p571
sa(dp572
g2
S'http://www.reuters.com/article/homepageCrisis/idUSDEL10634._CH_.2400'
p573
sg4
S'20070127\xc2\xa009:03 AM EST'
p574
sg6
S'One killed in fresh Nepal clashes'
p575
sa(dp576
g2
S'http://www.reuters.com/article/worldNews/idUSL2790081120070127'
p577
sg4
S'20070127\xc2\xa008:52 AM EST'
p578
sg6
S'Saudi king says Iran putting region in danger: paper'
p579
sa(dp580
g2
S'http://www.reuters.com/article/latestCrisis/idUSL27909872'
p581
sg4
S'20070127\xc2\xa008:51 AM EST'
p582
sg6
S'New UN chief tells war-torn Congo to "count on us"'
p583
sa(dp584
g2
S'http://www.reuters.com/article/latestCrisis/idUSPAR749081'
p585
sg4
S'20070127\xc2\xa008:42 AM EST'
p586
sg6
S'Blast rocks Green Zone in central Baghdad'
p587
sa(dp588
g2
S'http://www.reuters.com/article/newsOne/idUSSP513120070127'
p589
sg4
S'20070127\xc2\xa008:36 AM EST'
p590
sg6
S'Taliban warn of summer offensive'
p591
sa(dp592
g2
S'http://www.reuters.com/article/worldNews/idUSCOL3659920070127'
p593
sg4
S'20070127\xc2\xa008:31 AM EST'
p594
sg6
S'Sri Lanka says sinks three rebel boats near capital'
p595
sa(dp596
g2
S'http://www.reuters.com/article/latestCrisis/idUSCOL36599'
p597
sg4
S'20070127\xc2\xa008:27 AM EST'
p598
sg6
S'Sri Lanka says sinks three rebel boats near capital'
p599
sa(dp600
g2
S'http://www.reuters.com/article/companyNewsAndPR/idUSL2790770920070127'
p601
sg4
S'20070127\xc2\xa008:03 AM EST'
p602
sg6
S"DAVOS-UPDATE 1-WPP sees '06 revs ahead of expectations"
p603
sa(dp604
g2
S'http://www.reuters.com/article/worldNews/idUSL2790765820070127'
p605
sg4
S'20070127\xc2\xa008:02 AM EST'
p606
sg6
S'Lavrov says Russian peacekeepers could go to Darfur'
p607
sa(dp608
g2
S'http://www.reuters.com/article/businessNews/idUSL2744257020070127'
p609
sg4
S'20070127\xc2\xa007:54 AM EST'
p610
sg6
S'Lamy: Trade ministers agree to resume WTO talks'
p611
sa(dp612
g2
S'http://www.reuters.com/article/businessNews/idUSN2637561520070127'
p613
sg4
S'20070127\xc2\xa007:44 AM EST'
p614
sg6
S'For stocks, earnings may trump Fed and jobs'
p615
sa(dp616
g2
S'http://www.reuters.com/article/latestCrisis/idUSL27903606'
p617
sg4
S'20070127\xc2\xa007:30 AM EST'
p618
sg6
S'Senegal police crush opposition election protest'
p619
sa(dp620
g2
S'http://www.reuters.com/article/latestCrisis/idUSL27900811'
p621
sg4
S'20070127\xc2\xa007:29 AM EST'
p622
sg6
S'Saudi king says Iran putting region in danger-paper'
p623
sa(dp624
g2
S'http://www.reuters.com/article/companyNewsAndPR/idUSL2790628220070127'
p625
sg4
S'20070127\xc2\xa007:24 AM EST'
p626
sg6
S'DAVOS-World trade negotiators "back in business"-EU'
p627
sa(dp628
g2
S'http://www.reuters.com/article/health-SP/idUSL2790610420070127'
p629
sg4
S'20070127\xc2\xa007:18 AM EST'
p630
sg6
S"UPDATE 1-Akzo Nobel's Organon to list late March -letter"
p631
sa(dp632
g2
S'http://www.reuters.com/article/mergersNews/idUSL2742226420070127'
p633
sg4
S'20070127\xc2\xa007:17 AM EST'
p634
sg6
S'MAN worker rep warns shareholder Volkswagen-report'
p635
sa(dp636
g2
S'http://www.reuters.com/article/mergersNews/idUSL2789138320070127'
p637
sg4
S'20070127\xc2\xa007:09 AM EST'
p638
sg6
S'Polish press names five foreign bidders in BPH sale'
p639
sa(dp640
g2
S'http://www.reuters.com/article/worldNews/idUSB73308920070127'
p641
sg4
S'20070127\xc2\xa007:03 AM EST'
p642
sg6
S'Eleven girls dead in Indian school collapse'
p643
sa(dp644
g2
S'http://www.reuters.com/article/peopleNews/idUSN2636998420070127'
p645
sg4
S'20070127\xc2\xa006:58 AM EST'
p646
sg6
S'Placido Domingo to make baritone dream come true'
p647
sa(dp648
g2
S'http://www.reuters.com/article/peopleNews/idUSN2632163720070127'
p649
sg4
S'20070127\xc2\xa006:58 AM EST'
p650
sg6
S'Blues legend B.B. King hospitalized in Texas'
p651
sa(dp652
g2
S'http://www.reuters.com/article/peopleNews/idUSN2626447120070127'
p653
sg4
S'20070127\xc2\xa006:58 AM EST'
p654
sg6
S'Paul Weller revisits glory days with U.S. shows'
p655
sa(dp656
g2
S'http://www.reuters.com/article/peopleNews/idUSN2622313020070127'
p657
sg4
S'20070127\xc2\xa006:58 AM EST'
p658
sg6
S'Cuban salsa star defects to U.S.'
p659
sa(dp660
g2
S'http://www.reuters.com/article/peopleNews/idUSN2548411020070127'
p661
sg4
S'20070127\xc2\xa006:58 AM EST'
p662
sg6
S'Actress Nicole Kidman, 7 others hurt on movie set'
p663
sa(dp664
g2
S'http://www.reuters.com/article/peopleNews/idUSN2539128120070127'
p665
sg4
S'20070127\xc2\xa006:58 AM EST'
p666
sg6
S'Director Besson finds Sundance can be "pleasant"'
p667
sa(dp668
g2
S'http://www.reuters.com/article/peopleNews/idUSN2527580720070127'
p669
sg4
S'20070127\xc2\xa006:58 AM EST'
p670
sg6
S"Mechanical defects ruled out in Brandy's car crash"
p671
sa(dp672
g2
S'http://www.reuters.com/article/peopleNews/idUSN2515734020070127'
p673
sg4
S'20070127\xc2\xa006:58 AM EST'
p674
sg6
S'Model Tyra Banks hits back at "Porkchop" attacks'
p675
sa(dp676
g2
S'http://www.reuters.com/article/topNews/idUSL2687787320070127'
p677
sg4
S'20070127\xc2\xa006:57 AM EST'
p678
sg6
S'Bono wants checks cashed for Africa'
p679
sa(dp680
g2
S'http://www.reuters.com/article/worldNews/idUSMAN890420070127'
p681
sg4
S'20070127\xc2\xa006:54 AM EST'
p682
sg6
S'Philippine troops raid MILF rebels, 6 dead'
p683
sa(dp684
g2
S'http://www.reuters.com/article/worldNews/idUSTKV00299220070127'
p685
sg4
S'20070127\xc2\xa006:52 AM EST'
p686
sg6
S'Japan says bird flu outbreak from H5N1 strain'
p687
sa(dp688
g2
S'http://www.reuters.com/article/latestCrisis/idUSSP22324'
p689
sg4
S'20070127\xc2\xa006:52 AM EST'
p690
sg6
S'Philippine troops raid MILF rebels, 6 dead'
p691
sa(dp692
g2
S'http://www.reuters.com/article/homepageCrisis/idUSSP22324._CH_.2400'
p693
sg4
S'20070127\xc2\xa006:52 AM EST'
p694
sg6
S'Philippine troops raid MILF rebels, 6 dead'
p695
sa(dp696
g2
S'http://www.reuters.com/article/latestCrisis/idUSSP15313'
p697
sg4
S'20070127\xc2\xa006:47 AM EST'
p698
sg6
S'Japan says bird flu outbreak from H5N1 strain'
p699
sa(dp700
g2
S'http://www.reuters.com/article/latestCrisis/idUSL27901253'
p701
sg4
S'20070127\xc2\xa006:46 AM EST'
p702
sg6
S'W.African leaders want Guinea strike talks-Nigeria'
p703
sa(dp704
g2
S'http://www.reuters.com/article/mergersNews/idUSL2790375920070127'
p705
sg4
S'20070127\xc2\xa006:39 AM EST'
p706
sg6
S'UPDATE 1-KPN seeks to expand in Europe through buys -papers'
p707
sa(dp708
g2
S'http://www.reuters.com/article/sportsNews/idUSKRA73810120070127'
p709
sg4
S'20070127\xc2\xa006:23 AM EST'
p710
sg6
S'Byggmark eclipses favorites in opening slalom leg'
p711
sa(dp712
g2
S'http://www.reuters.com/article/musicNews/idUSN2724539320070127'
p713
sg4
S'20070127\xc2\xa006:18 AM EST'
p714
sg6
S'Low-rated "Studio 60" a hit with music biz'
p715
sa(dp716
g2
S'http://www.reuters.com/article/musicNews/idUSN2738621520070127'
p717
sg4
S'20070127\xc2\xa006:18 AM EST'
p718
sg6
S'New Shins album prompts return of midnight sales'
p719
sa(dp720
g2
S'http://www.reuters.com/article/musicNews/idUSN2734156720070127'
p721
sg4
S'20070127\xc2\xa006:18 AM EST'
p722
sg6
S'Reunited Smashing Pumpkins book German festivals'
p723
sa(dp724
g2
S'http://www.reuters.com/article/entertainmentNews/idUSN2738618120070127'
p725
sg4
S'20070127\xc2\xa006:17 AM EST'
p726
sg6
S'Country radio grapples with shifting demographics'
p727
sa(dp728
g2
S'http://www.reuters.com/article/entertainmentNews/idUSN2738633220070127'
p729
sg4
S'20070127\xc2\xa006:14 AM EST'
p730
sg6
S'Britain becoming hooked on music awards'
p731
sa(dp732
g2
S'http://www.reuters.com/article/bankingfinancial-SP/idUSL2748824320070127'
p733
sg4
S'20070127\xc2\xa006:12 AM EST'
p734
sg6
S"Jordan's Arab Bank Plc '06 net profit up 31.6 pct"
p735
sa(dp736
g2
S'http://www.reuters.com/article/newsOne/idUSKHA73422720070127'
p737
sg4
S'20070127\xc2\xa006:05 AM EST'
p738
sg6
S'U.S. says kills 14 insurgents in Iraq air strike'
p739
sa(dp740
g2
S'http://www.reuters.com/article/latestCrisis/idUSKHA734227'
p741
sg4
S'20070127\xc2\xa005:59 AM EST'
p742
sg6
S'U.S. says kills 14 insurgents in Iraq air strike'
p743
sa(dp744
g2
S'http://www.reuters.com/article/companyNewsAndPR/idUSL2790234920070127'
p745
sg4
S'20070127\xc2\xa005:55 AM EST'
p746
sg6
S"UPDATE 1-Guinea's CBG says restarts bauxite mining"
p747
sa(dp748
g2
S'http://www.reuters.com/article/technology-media-telco-SP/idUSL2788795320070127'
p749
sg4
S'20070127\xc2\xa005:45 AM EST'
p750
sg6
S"DAVOS-WPP's Sorrell sees '06 revs ahead of expectations"
p751
sa(dp752
g2
S'http://www.reuters.com/article/latestCrisis/idUSL27901456'
p753
sg4
S'20070127\xc2\xa005:36 AM EST'
p754
sg6
S'Mortars fired at Ethiopian troops in Somalia'
p755
sa(dp756
g2
S'http://www.reuters.com/article/worldNews/idUSKHA73657720070127'
p757
sg4
S'20070127\xc2\xa005:32 AM EST'
p758
sg6
S'Gunmen kidnap 8 people from Baghdad store'
p759
sa(dp760
g2
S'http://www.reuters.com/article/companyNewsAndPR/idUSL2790083320070127'
p761
sg4
S'20070127\xc2\xa005:31 AM EST'
p762
sg6
S"Guinea's CBG says restarts bauxite mining"
p763
sa(dp764
g2
S'http://www.reuters.com/article/latestCrisis/idUSKHA737112'
p765
sg4
S'20070127\xc2\xa005:30 AM EST'
p766
sg6
S'Gunmen kidnap 8 people from Baghdad store'
p767
sa(dp768
g2
S'http://www.reuters.com/article/mergersNews/idUSL2752331220070127'
p769
sg4
S'20070127\xc2\xa005:25 AM EST'
p770
sg6
S'KPN seeks to expand in Europe through buys - paper'
p771
sa(dp772
g2
S'http://www.reuters.com/article/latestCrisis/idUSKHA736577'
p773
sg4
S'20070127\xc2\xa005:19 AM EST'
p774
sg6
S'Gunmen kidnap 8 people from central Baghdad store'
p775
sa(dp776
g2
S'http://www.reuters.com/article/latestCrisis/idUSKHA733566'
p777
sg4
S'20070127\xc2\xa005:09 AM EST'
p778
sg6
S'Two suicide car bombs kill 10 in Baghdad'
p779
sa(dp780
g2
S'http://www.reuters.com/article/companyNewsAndPR/idUSL2787363820070127'
p781
sg4
S'20070127\xc2\xa004:51 AM EST'
p782
sg6
S'HIGHLIGHTS-Davos WEF debates on global imbalances, risks'
p783
sa(dp784
g2
S'http://www.reuters.com/article/governmentFilingsNews/idUST14354820070127'
p785
sg4
S'20070127\xc2\xa004:42 AM EST'
p786
sg6
S'UPDATE 1-Mitsubishi UFJ faces official loan curbs-sources'
p787
sa(dp788
g2
S'http://www.reuters.com/article/homepageCrisis/idUSSP5131._CH_.2400'
p789
sg4
S'20070127\xc2\xa004:41 AM EST'
p790
sg6
S'Taliban warn of summer offensive, suicide attacks'
p791
sa(dp792
g2
S'http://www.reuters.com/article/featuredCrisis/idUSSP5131'
p793
sg4
S'20070127\xc2\xa004:41 AM EST'
p794
sg6
S'Taliban warn of summer offensive, suicide attacks'
p795
sa(dp796
g2
S'http://www.reuters.com/article/topNews/idUSN2638159320070127'
p797
sg4
S'20070127\xc2\xa004:33 AM EST'
p798
sg6
S'U.S. bans luxury exports to North Korea'
p799
sa(dp800
g2
S'http://www.reuters.com/article/latestCrisis/idUSB680810'
p801
sg4
S'20070127\xc2\xa004:24 AM EST'
p802
sg6
S'U.N. to expand Nepal arms monitoring next week'
p803
sa(dp804
g2
S'http://www.reuters.com/article/featuredCrisis/idUSL27898028'
p805
sg4
S'20070127\xc2\xa004:21 AM EST'
p806
sg6
S'Two killed in Gaza clash near university'
p807
sa(dp808
g2
S'http://www.reuters.com/article/latestCrisis/idUSKHA733245'
p809
sg4
S'20070127\xc2\xa004:20 AM EST'
p810
sg6
S'Car bomb kills five, wounds 10 in Baghdad-police'
p811
sa(dp812
g2
S'http://www.reuters.com/article/worldNews/idUSL2756607620070127'
p813
sg4
S'20070127\xc2\xa004:16 AM EST'
p814
sg6
S'Lebanon general says army under pressure: paper'
p815
sa(dp816
g2
S'http://www.reuters.com/article/featuredCrisis/idUSB897249'
p817
sg4
S'20070127\xc2\xa004:13 AM EST'
p818
sg6
S'Gaza factions battle near Islamic university'
p819
sa(dp820
g2
S'http://www.reuters.com/article/latestCrisis/idUSL27566076'
p821
sg4
S'20070127\xc2\xa004:12 AM EST'
p822
sg6
S'Lebanon general says army under pressure - paper'
p823
sa(dp824
g2
S'http://www.reuters.com/article/latestCrisis/idUSL26541256'
p825
sg4
S'20070127\xc2\xa003:55 AM EST'
p826
sg6
S'DAVOS-INTERVIEW-Developing nations deserve break on climate - UN'
p827
sa(dp828
g2
S'http://www.reuters.com/article/ousiv/idUSN2637081720070127'
p829
sg4
S'20070127\xc2\xa003:47 AM EST'
p830
sg6
S'Wal-Mart not participating in February New York Fashion Week'
p831
sa(dp832
g2
S'http://www.reuters.com/article/sportsNews/idUSSP964320070127'
p833
sg4
S'20070127\xc2\xa003:45 AM EST'
p834
sg6
S'Fourth U.S. dance title for Belbin and Agosto'
p835
sa(dp836
g2
S'http://www.reuters.com/article/companyNewsAndPR/idUSL2786053620070127'
p837
sg4
S'20070127\xc2\xa003:39 AM EST'
p838
sg6
S"DAVOS-China's FX reserves set to rise 20 pct-banker"
p839
sa(dp840
g2
S'http://www.reuters.com/article/reviewsNews/idUSN2743119220070127'
p841
sg4
S'20070127\xc2\xa003:38 AM EST'
p842
sg6
S'Locklear gives "Angels Fall" some wings'
p843
sa(dp844
g2
S'http://www.reuters.com/article/reviewsNews/idUSN2741343320070127'
p845
sg4
S'20070127\xc2\xa003:38 AM EST'
p846
sg6
S'"Blood" a silly werewolf movie without any fangs'
p847
sa(dp848
g2
S'http://www.reuters.com/article/reviewsNews/idUSN2632026920070127'
p849
sg4
S'20070127\xc2\xa003:38 AM EST'
p850
sg6
S'Israeli "Mud" a bittersweet view of kibbutz life'
p851
sa(dp852
g2
S'http://www.reuters.com/article/reviewsNews/idUSN2631489520070127'
p853
sg4
S'20070127\xc2\xa003:38 AM EST'
p854
sg6
S'"Joshua" a brilliant house-of-horror tale'
p855
sa(dp856
g2
S'http://www.reuters.com/article/reviewsNews/idUSN2532012920070127'
p857
sg4
S'20070127\xc2\xa003:38 AM EST'
p858
sg6
S'"Night Buffalo" a painful experience'
p859
sa(dp860
g2
S'http://www.reuters.com/article/reviewsNews/idUSN2630908020070127'
p861
sg4
S'20070127\xc2\xa003:38 AM EST'
p862
sg6
S'"Translations" receives welcome revival'
p863
sa(dp864
g2
S'http://www.reuters.com/article/reviewsNews/idUSN2529084120070127'
p865
sg4
S'20070127\xc2\xa003:38 AM EST'
p866
sg6
S'"Crazy Love" bizarre, but badly made'
p867
sa(dp868
g2
S'http://www.reuters.com/article/reviewsNews/idUSN2630447420070127'
p869
sg4
S'20070127\xc2\xa003:38 AM EST'
p870
sg6
S'"Son of Rambow" has limited, lowbrow appeal'
p871
sa(dp872
g2
S'http://www.reuters.com/article/reviewsNews/idUSN2519252120070127'
p873
sg4
S'20070127\xc2\xa003:38 AM EST'
p874
sg6
S'Meet the new "Boss": a comic delight'
p875
sa(dp876
g2
S'http://www.reuters.com/article/reviewsNews/idUSN2512824720070127'
p877
sg4
S'20070127\xc2\xa003:38 AM EST'
p878
sg6
S'"Fay Grim" an amusing puzzler from Hal Hartley'
p879
sa(dp880
g2
S'http://www.reuters.com/article/reviewsNews/idUSN2512965020070127'
p881
sg4
S'20070127\xc2\xa003:34 AM EST'
p882
sg6
S'"Four Sheets" a Sundance crowd-pleaser'
p883
sa(dp884
g2
S'http://www.reuters.com/article/televisionNews/idUSN2631645520070127'
p885
sg4
S'20070127\xc2\xa003:32 AM EST'
p886
sg6
S'Vartan, Union join ABC drama pilots'
p887
sa(dp888
g2
S'http://www.reuters.com/article/televisionNews/idUSN2631644820070127'
p889
sg4
S'20070127\xc2\xa003:32 AM EST'
p890
sg6
S'ABC moves "Knights" out of "Idol" warpath'
p891
sa(dp892
g2
S'http://www.reuters.com/article/televisionNews/idUSN2626485320070127'
p893
sg4
S'20070127\xc2\xa003:32 AM EST'
p894
sg6
S'Spike Lee directing NBC drama pilot'
p895
sa(dp896
g2
S'http://www.reuters.com/article/televisionNews/idUSN2548354720070127'
p897
sg4
S'20070127\xc2\xa003:32 AM EST'
p898
sg6
S'Super Bowl at heart of Anheuser-Busch ad plans'
p899
sa(dp900
g2
S'http://www.reuters.com/article/televisionNews/idUSN2527830620070127'
p901
sg4
S'20070127\xc2\xa003:32 AM EST'
p902
sg6
S'Fox News to air unseen "9/11" TV movie footage'
p903
sa(dp904
g2
S'http://www.reuters.com/article/televisionNews/idUSN2517924820070127'
p905
sg4
S'20070127\xc2\xa003:32 AM EST'
p906
sg6
S'"Survivor" notches two more cycles'
p907
sa(dp908
g2
S'http://www.reuters.com/article/televisionNews/idUSN2430220520070127'
p909
sg4
S'20070127\xc2\xa003:32 AM EST'
p910
sg6
S'TV Guide bringing back "Idol Tonight" preshow'
p911
sa(dp912
g2
S'http://www.reuters.com/article/televisionNews/idUSL2565428120070127'
p913
sg4
S'20070127\xc2\xa003:32 AM EST'
p914
sg6
S'Chef Ramsay still on top in new guide'
p915
sa(dp916
g2
S'http://www.reuters.com/article/sportsNews/idUSL2678503420070127'
p917
sg4
S'20070127\xc2\xa002:56 AM EST'
p918
sg6
S'Unstoppable Serena shatters Sharapova'
p919
sa(dp920
g2
S'http://www.reuters.com/article/latestCrisis/idUSSP8369'
p921
sg4
S'20070127\xc2\xa002:54 AM EST'
p922
sg6
S'ANALYSIS-Nepal fears wider conflict if Terai unrest continues'
p923
sa(dp924
g2
S'http://www.reuters.com/article/homepageCrisis/idUSSP8369._CH_.2400'
p925
sg4
S'20070127\xc2\xa002:54 AM EST'
p926
sg6
S'ANALYSIS-Nepal fears wider conflict if Terai unrest continues'
p927
sa(dp928
g2
S'http://www.reuters.com/article/latestCrisis/idUSBKK11509'
p929
sg4
S'20070127\xc2\xa002:51 AM EST'
p930
sg6
S"Thailand clears all New Year's Eve bomb suspects"
p931
sa(dp932
g2
S'http://www.reuters.com/article/sportsNews/idUSSYD794720070127'
p933
sg4
S'20070127\xc2\xa002:41 AM EST'
p934
sg6
S'Serena ranks Sharapova rout among best ever wins'
p935
sa(dp936
g2
S'http://www.reuters.com/article/sportsNews/idUSSP265220070127'
p937
sg4
S'20070127\xc2\xa002:32 AM EST'
p938
sg6
S'Suns extend winning streak to 16 games'
p939
sa(dp940
g2
S'http://www.reuters.com/article/latestCrisis/idUSL26877873'
p941
sg4
S'20070127\xc2\xa002:32 AM EST'
p942
sg6
S'DAVOS-Bono wants cheques cashed for Africa'
p943
sa(dp944
g2
S'http://www.reuters.com/article/sportsNews/idUSSP89520070127'
p945
sg4
S'20070127\xc2\xa002:15 AM EST'
p946
sg6
S'Brodeur blanks Lightning to earn 9th shutout of season'
p947
sa(dp948
g2
S'http://www.reuters.com/article/latestCrisis/idUSDHA291067'
p949
sg4
S'20070127\xc2\xa002:08 AM EST'
p950
sg6
S'Bangladesh tightens noose on media, politics'
p951
sa(dp952
g2
S'http://www.reuters.com/article/featuredCrisis/idUSMAN8904'
p953
sg4
S'20070127\xc2\xa002:07 AM EST'
p954
sg6
S'Philippine troops raid MILF rebels'
p955
sa(dp956
g2
S'http://www.reuters.com/article/topNews/idUSL2713202120070127'
p957
sg4
S'20070127\xc2\xa001:57 AM EST'
p958
sg6
S'North Korea denies nuclear cooperation with Iran'
p959
sa(dp960
g2
S'http://www.reuters.com/article/latestCrisis/idUSISL3565'
p961
sg4
S'20070127\xc2\xa001:57 AM EST'
p962
sg6
S'Suspicions fall on militants for Pakistan attack'
p963
sa(dp964
g2
S'http://www.reuters.com/article/sportsNews/idUSSYD1146120070127'
p965
sg4
S'20070127\xc2\xa001:46 AM EST'
p966
sg6
S'Bryan brothers retain Australian title'
p967
sa(dp968
g2
S'http://www.reuters.com/article/sportsNews/idUSSYD34475820070127'
p969
sg4
S'20070127\xc2\xa001:46 AM EST'
p970
sg6
S"Black, Huber win women's doubles title"
p971
sa(dp972
g2
S'http://www.reuters.com/article/latestCrisis/idUSSHA176179'
p973
sg4
S'20070127\xc2\xa001:30 AM EST'
p974
sg6
S'Foreigners gobsmacked by Shanghai cab spittoons'
p975
sa(dp976
g2
S'http://www.reuters.com/article/businessNews/idUSL1983674520070127'
p977
sg4
S'20070127\xc2\xa001:18 AM EST'
p978
sg6
S'Dow and S&P; dip on rate worry'
p979
sa(dp980
g2
S'http://www.reuters.com/article/latestCrisis/idUSB733089'
p981
sg4
S'20070127\xc2\xa001:11 AM EST'
p982
sg6
S'Eleven girls dead in Indian school collapse'
p983
sa(dp984
g2
S'http://www.reuters.com/article/musicNews/idUSN2738638520070127'
p985
sg4
S'20070127\xc2\xa001:11 AM EST'
p986
sg6
S'Beyonce enjoys Spanish-language crossover hit'
p987
sa(dp988
g2
S'http://www.reuters.com/article/ousiv/idUSWEN293620070127'
p989
sg4
S'20070127\xc2\xa001:04 AM EST'
p990
sg6
S'Novelis in sale talks; India group said interested'
p991
sa(dp992
g2
S'http://www.reuters.com/article/businessNews/idUSN2427533920070127'
p993
sg4
S'20070127\xc2\xa001:03 AM EST'
p994
sg6
S'Research firm hunts for clues in insider sales'
p995
sa(dp996
g2
S'http://www.reuters.com/article/scienceNews/idUSN2632570720070127'
p997
sg4
S'20070127\xc2\xa001:00 AM EST'
p998
sg6
S"Moore's Law seen extended in chip breakthrough"
p999
sa(dp1000
g2
S'http://www.reuters.com/article/sportsNews/idUSSP23063220070127'
p1001
sg4
S'20070127\xc2\xa012:55 AM EST'
p1002
sg6
S'Serena destroys Sharapova to win title'
p1003
sa(dp1004
g2
S'http://www.reuters.com/article/consumerproducts-SP/idUST14133620070127'
p1005
sg4
S'20070127\xc2\xa012:32 AM EST'
p1006
sg6
S'Cartier eyes jewellery boutique expansion in China'
p1007
sa(dp1008
g2
S'http://www.reuters.com/news/video/videoStory?storyID=7a3218280238d292c0a35badb9ca65e92fc640ad'
p1009
sg4
S'20070127\xc2\xa011:59 PM EST'
p1010
sg6
S'World leaders feel the climate heat'
p1011
sa(dp1012
g2
S'http://www.reuters.com/news/video/videoStory?storyID=000fb6fc1e20a408b0e71d3a16018af4579d8c83'
p1013
sg4
S'20070127\xc2\xa009:32 PM EST'
p1014
sg6
S'Third suspected outbreak of H5N1 in poultry'
p1015
sa(dp1016
g2
S'http://www.reuters.com/news/video/videoStory?storyID=531982d2661008a43a36b4b4d6ce31fe33b6c285'
p1017
sg4
S'20070127\xc2\xa007:36 PM EST'
p1018
sg6
S'Deadly attacks continue'
p1019
sa(dp1020
g2
S'http://www.reuters.com/news/video/videoStory?storyID=ea6d12fcdfccaaafc44bdd5123d8bd9cd0d07b39'
p1021
sg4
S'20070127\xc2\xa007:30 PM EST'
p1022
sg6
S"Reuters QuickCut: Kiss me, I'm cute"
p1023
sa(dp1024
g2
S'http://www.reuters.com/news/video/videoStory?storyID=af5632a80f592bc585553a1d605a2c93d3cb5c71'
p1025
sg4
S'20070127\xc2\xa007:22 PM EST'
p1026
sg6
S'Ambush in Mogadishu'
p1027
sa(dp1028
g2
S'http://www.reuters.com/news/video/videoStory?storyID=65d1207e53b5cb32061dfe9cd1d46645dbc6677b'
p1029
sg4
S'20070127\xc2\xa005:29 PM EST'
p1030
sg6
S'Anti-War demonstrations in Washington DC'
p1031
sa(dp1032
g2
S'http://www.reuters.com/news/video/videoStory?storyID=ddb27d182429c99594ff0c5f386cbf6780b353d8'
p1033
sg4
S'20070127\xc2\xa005:22 PM EST'
p1034
sg6
S'Suicide bomb strikes police patrol'
p1035
sa(dp1036
g2
S'http://www.reuters.com/news/video/videoStory?storyID=11eea09571bc390271b905a38d6e5ca29765cefa'
p1037
sg4
S'20070127\xc2\xa002:32 PM EST'
p1038
sg6
S'Global free trade talks to resume'
p1039
sa(dp1040
g2
S'http://www.reuters.com/news/video/videoStory?storyID=b5d145858d99af578bedb81dbbe20fe77f78f398'
p1041
sg4
S'20070127\xc2\xa002:12 PM EST'
p1042
sg6
S'Two US women killed in Nariobi carjacking'
p1043
sa(dp1044
g2
S'http://www.reuters.com/news/video/videoStory?storyID=491293a1b36f0d1cf309648974ac801605dee6e8'
p1045
sg4
S'20070127\xc2\xa011:50 AM EST'
p1046
sg6
S'Ghana: The benefits of Fair Trade'
p1047
sa(dp1048
g2
S'http://www.reuters.com/news/video/videoStory?storyID=0a8148bf7e06ee4d2cc54e7e6875e085e0500f4e'
p1049
sg4
S'20070127\xc2\xa009:21 AM EST'
p1050
sg6
S'The changing role of women in Kenya'
p1051
sa(dp1052
g2
S'http://www.reuters.com/news/video/videoStory?storyID=5613720799986ff6adfb71bae0e8b3f902bb3285'
p1053
sg4
S'20070127\xc2\xa008:21 AM EST'
p1054
sg6
S'Measure of calm in Gaza'
p1055
sa(dp1056
g2
S'http://www.reuters.com/news/video/videoStory?storyID=ea370d4a37c121a363d935528141a11a07c3c727'
p1057
sg4
S'20070127\xc2\xa008:08 AM EST'
p1058
sg6
S'Teacher tackles bad English'
p1059
sa(dp1060
g2
S'http://www.reuters.com/news/video/videoStory?storyID=60f2e7cfbca71adfad19c22b8cf4e8e17f577d23'
p1061
sg4
S'20070127\xc2\xa006:09 AM EST'
p1062
sg6
S'A knight in shining armour?'
p1063
sa(dp1064
g2
S'http://www.reuters.com/news/video/videoStory?storyID=3430a3248e33c7e6b3d9c5dab802f57ae955e08a'
p1065
sg4
S'20070127\xc2\xa003:05 AM EST'
p1066
sg6
S'Suicide car bomb kills at least 10'
p1067
sa(dp1068
g2
S'http://www.reuters.com/news/video/videoStory?storyID=241357811819409f33e89c6a6dcf3bb831c7abb2'
p1069
sg4
S'20070127\xc2\xa001:48 AM EST'
p1070
sg6
S'School collapses on students'
p1071
sa(dp1072
g2
S'http://www.reuters.com/news/video/videoStory?storyID=c00b2605678019cdce4aee834a93c6c3363c0831'
p1073
sg4
S'20070127\xc2\xa001:11 AM EST'
p1074
sg6
S'Davos uncorked'
p1075
sa(dp1076
g2
S'http://www.reuters.com/news/video/videoStory?storyID=6fb01c75d9ffca0b2d7f49e22989c593f00a5b75'
p1077
sg4
S'20070127\xc2\xa012:54 AM EST'
p1078
sg6
S'Deadly battles in Gaza'
p1079
sa(dp1080
g2
S'http://www.reuters.com/news/video/videoStory?storyID=94036b39450f331c02e60815db3c8cb99be09842'
p1081
sg4
S'20070127\xc2\xa012:11 AM EST'
p1082
sg6
S'Six Nations rugby captains converge'
p1083
sa.