(lp0
(dp1
S'href'
p2
S'http://www.reuters.com/article/sportsNews/idUSB60055920070506'
p3
sS'ts'
p4
S'20070505\xc2\xa011:59 PM EDT'
p5
sS'title'
p6
S'Bonds hits 744th homer in Giants win'
p7
sa(dp8
g2
S'http://www.reuters.com/article/sportsNews/idUSB22256220070506'
p9
sg4
S'20070505\xc2\xa011:54 PM EDT'
p10
sg6
S'Wang flirts with perfection in Yankees win'
p11
sa(dp12
g2
S'http://www.reuters.com/article/companyNewsAndPR/idUST20981920070506'
p13
sg4
S'20070505\xc2\xa011:51 PM EDT'
p14
sg6
S'UPDATE 1-Philippine central bank gov: peso rise not a worry'
p15
sa(dp16
g2
S'http://www.reuters.com/article/worldNews/idUSPEK19993920070506'
p17
sg4
S'20070505\xc2\xa011:33 PM EDT'
p18
sg6
S'In China a call for democracy stirs secretive storm'
p19
sa(dp20
g2
S'http://www.reuters.com/article/domesticNews/idUSB44781120070506'
p21
sg4
S'20070505\xc2\xa011:17 PM EDT'
p22
sg6
S'Louisiana student charged with threatening Clinton'
p23
sa(dp24
g2
S'http://www.reuters.com/article/environmentNews/idUSSP15718420070506'
p25
sg4
S'20070505\xc2\xa011:13 PM EDT'
p26
sg6
S'Asia has few plans yet to deal with rising seas'
p27
sa(dp28
g2
S'http://www.reuters.com/article/latestCrisis/idUSPEK210409'
p29
sg4
S'20070505\xc2\xa011:02 PM EDT'
p30
sg6
S'China mine blast kills 15, another 15 missing'
p31
sa(dp32
g2
S'http://www.reuters.com/article/latestCrisis/idUSL03512205'
p33
sg4
S'20070505\xc2\xa011:00 PM EDT'
p34
sg6
S'WITNESS-Buying a shotgun in Texas'
p35
sa(dp36
g2
S'http://www.reuters.com/article/sportsNews/idUSN0529573020070506'
p37
sg4
S'20070505\xc2\xa010:39 PM EDT'
p38
sg6
S'Street Sense storms to Kentucky triumph'
p39
sa(dp40
g2
S'http://www.reuters.com/article/sportsNews/idUSN0528954620070506'
p41
sg4
S'20070505\xc2\xa010:39 PM EDT'
p42
sg6
S'Street Sense, Nafzger defy conventional wisdom'
p43
sa(dp44
g2
S'http://www.reuters.com/article/latestCrisis/idUSTFE002782'
p45
sg4
S'20070505\xc2\xa010:32 PM EDT'
p46
sg6
S'Japan to give $100 mln for new funds with ADB'
p47
sa(dp48
g2
S'http://www.reuters.com/article/sportsNews/idUSB53154320070506'
p49
sg4
S'20070505\xc2\xa010:16 PM EDT'
p50
sg6
S'Sabbatini surges into lead at Quail Hollow'
p51
sa(dp52
g2
S'http://www.reuters.com/article/latestCrisis/idUSN05289599'
p53
sg4
S'20070505\xc2\xa009:57 PM EDT'
p54
sg6
S'Tornado obliterates Kansas farming town, 9 dead'
p55
sa(dp56
g2
S'http://www.reuters.com/article/musicNews/idUSN0448734020070506'
p57
sg4
S'20070505\xc2\xa009:55 PM EDT'
p58
sg6
S'From Ingram\'s "Lips" to the country spotlight'
p59
sa(dp60
g2
S'http://www.reuters.com/article/industryNews/idUSN0322362720070506'
p61
sg4
S'20070505\xc2\xa009:55 PM EDT'
p62
sg6
S'Studios face tough battle protecting hi-def DVDs'
p63
sa(dp64
g2
S'http://www.reuters.com/article/industryNews/idUSN0122703420070506'
p65
sg4
S'20070505\xc2\xa009:55 PM EDT'
p66
sg6
S'As Spidey opens, box office records hang by thread'
p67
sa(dp68
g2
S'http://www.reuters.com/article/industryNews/idUSWEN769620070506'
p69
sg4
S'20070505\xc2\xa009:55 PM EDT'
p70
sg6
S'Clear Channel board rejects new bid as vote nears'
p71
sa(dp72
g2
S'http://www.reuters.com/article/industryNews/idUSN0427713020070506'
p73
sg4
S'20070505\xc2\xa009:55 PM EDT'
p74
sg6
S'Murdoch fails to win support from WSJ reporters'
p75
sa(dp76
g2
S'http://www.reuters.com/article/internetNews/idUSN0548722520070506'
p77
sg4
S'20070505\xc2\xa009:55 PM EDT'
p78
sg6
S'Yahoo untangles licensing web for lyrics service'
p79
sa(dp80
g2
S'http://www.reuters.com/article/topNews/idUSJAK23833620070506'
p81
sg4
S'20070505\xc2\xa009:38 PM EDT'
p82
sg6
S'East Timor set for presidential election run-off'
p83
sa(dp84
g2
S'http://www.reuters.com/article/worldNews/idUSHAN9920820070506'
p85
sg4
S'20070505\xc2\xa009:35 PM EDT'
p86
sg6
S'Vietnam trials send zero-tolerance message: analysts'
p87
sa(dp88
g2
S'http://www.reuters.com/article/homepageCrisis/idUSJAK238336._CH_.2400'
p89
sg4
S'20070505\xc2\xa009:04 PM EDT'
p90
sg6
S'East Timor set for presidential election run-off'
p91
sa(dp92
g2
S'http://www.reuters.com/article/latestCrisis/idUSJAK238336'
p93
sg4
S'20070505\xc2\xa009:04 PM EDT'
p94
sg6
S'East Timor set for presidential election run-off'
p95
sa(dp96
g2
S'http://www.reuters.com/article/latestCrisis/idUSL0577779'
p97
sg4
S'20070505\xc2\xa009:02 PM EDT'
p98
sg6
S"Qaeda's Zawahri says Iraq bill shows U.S. defeat"
p99
sa(dp100
g2
S'http://www.reuters.com/article/musicNews/idUSN0548734620070506'
p101
sg4
S'20070505\xc2\xa009:01 PM EDT'
p102
sg6
S'Health issues force McBrayer to quit gospel act Avalon'
p103
sa(dp104
g2
S'http://www.reuters.com/article/lifestyleMolt/idUSL0421390520070506'
p105
sg4
S'20070505\xc2\xa008:44 PM EDT'
p106
sg6
S'Travel Postcard: 48 hours in Hamburg'
p107
sa(dp108
g2
S'http://www.reuters.com/article/sportsNews/idUSN0547737920070506'
p109
sg4
S'20070505\xc2\xa008:33 PM EDT'
p110
sg6
S'Red Wings overpower Sharks'
p111
sa(dp112
g2
S'http://www.reuters.com/article/musicNews/idUSN0448737720070506'
p113
sg4
S'20070505\xc2\xa008:20 PM EDT'
p114
sg6
S'Bjork in collaborative mood on new album'
p115
sa(dp116
g2
S'http://www.reuters.com/article/entertainmentNews/idUSN0548727320070506'
p117
sg4
S'20070505\xc2\xa008:19 PM EDT'
p118
sg6
S'Latin rappers aim for transatlantic appeal'
p119
sa(dp120
g2
S'http://www.reuters.com/article/topNews/idUSL0563029720070505'
p121
sg4
S'20070505\xc2\xa007:53 PM EDT'
p122
sg6
S'Street Sense storms to Kentucky triumph'
p123
sa(dp124
g2
S'http://www.reuters.com/article/lifestyleMolt/idUSN0527816820070505'
p125
sg4
S'20070505\xc2\xa007:51 PM EDT'
p126
sg6
S'Kentucky Derby draws festive crowd, Queen Elizabeth'
p127
sa(dp128
g2
S'http://www.reuters.com/article/topNews/idUSN0528586820070505'
p129
sg4
S'20070505\xc2\xa007:44 PM EDT'
p130
sg6
S'Kentucky Derby, Queen Elizabeth draw festive crowd'
p131
sa(dp132
g2
S'http://www.reuters.com/article/politicsNews/idUSN0529489420070505'
p133
sg4
S'20070505\xc2\xa007:43 PM EDT'
p134
sg6
S'Corzine going back to work Monday: report'
p135
sa(dp136
g2
S'http://www.reuters.com/article/musicNews/idUSN0418432320070505'
p137
sg4
S'20070505\xc2\xa007:04 PM EDT'
p138
sg6
S'Bjork begins American tour in top form'
p139
sa(dp140
g2
S'http://www.reuters.com/article/musicNews/idUSN0548734620070505'
p141
sg4
S'20070505\xc2\xa007:04 PM EDT'
p142
sg6
S'Health issues force McBrayer to quit gospel act Avalon'
p143
sa(dp144
g2
S'http://www.reuters.com/article/musicNews/idUSN0448741420070505'
p145
sg4
S'20070505\xc2\xa007:04 PM EDT'
p146
sg6
S"Sedaka, Osmond lead veterans' day on album chart"
p147
sa(dp148
g2
S'http://www.reuters.com/article/musicNews/idUSN0448738020070505'
p149
sg4
S'20070505\xc2\xa007:04 PM EDT'
p150
sg6
S"Patti Smith celebrates rock 'n' roll history"
p151
sa(dp152
g2
S'http://www.reuters.com/article/musicNews/idUSN0448734020070505'
p153
sg4
S'20070505\xc2\xa007:04 PM EDT'
p154
sg6
S'From Ingram\'s "Lips" to the country spotlight'
p155
sa(dp156
g2
S'http://www.reuters.com/article/musicNews/idUSN0425587720070505'
p157
sg4
S'20070505\xc2\xa007:04 PM EDT'
p158
sg6
S'Velvet Revolver singer honors dead brother in L.A.'
p159
sa(dp160
g2
S'http://www.reuters.com/article/latestCrisis/idUSL05634115'
p161
sg4
S'20070505\xc2\xa006:28 PM EDT'
p162
sg6
S'Rescuers comb jungle for Kenya Airways wreckage'
p163
sa(dp164
g2
S'http://www.reuters.com/article/mergersNews/idUSL057306920070505'
p165
sg4
S'20070505\xc2\xa006:25 PM EDT'
p166
sg6
S'UPDATE 1-RBS trio propose $24.5 bln bid for LaSalle-sources'
p167
sa(dp168
g2
S'http://www.reuters.com/article/sportsNews/idUSL0553229720070505'
p169
sg4
S'20070505\xc2\xa006:16 PM EDT'
p170
sg6
S'U.S., Finns and Swiss take final eight spots'
p171
sa(dp172
g2
S'http://www.reuters.com/article/topNews/idUSIBO13141920070505'
p173
sg4
S'20070505\xc2\xa005:58 PM EDT'
p174
sg6
S'Bomber kills 9 Iraqi police recruits near Baghdad'
p175
sa(dp176
g2
S'http://www.reuters.com/article/topNews/idUSN0529849520070505'
p177
sg4
S'20070505\xc2\xa005:51 PM EDT'
p178
sg6
S'Al Qaeda deputy speaks out on U.S. Iraq pullout bill'
p179
sa(dp180
g2
S'http://www.reuters.com/article/environmentNews/idUSN0433474020070505'
p181
sg4
S'20070505\xc2\xa005:51 PM EDT'
p182
sg6
S'U.S. rejects "high cost" global warming scenarios'
p183
sa(dp184
g2
S'http://www.reuters.com/article/environmentNews/idUSLAU47053320070505'
p185
sg4
S'20070505\xc2\xa005:51 PM EDT'
p186
sg6
S"Most NYC drivers oppose mayor's new $8 fee"
p187
sa(dp188
g2
S'http://www.reuters.com/article/environmentNews/idUSL0552756820070505'
p189
sg4
S'20070505\xc2\xa005:51 PM EDT'
p190
sg6
S"Poaching rises in Zimbabwe's game parks: report"
p191
sa(dp192
g2
S'http://www.reuters.com/article/environmentNews/idUSL0443682920070505'
p193
sg4
S'20070505\xc2\xa005:51 PM EDT'
p194
sg6
S'Organic farmers see Prince Charles as role model'
p195
sa(dp196
g2
S'http://www.reuters.com/article/environmentNews/idUSL0361133620070505'
p197
sg4
S'20070505\xc2\xa005:51 PM EDT'
p198
sg6
S'Global warming: people to blame, but can be fixed'
p199
sa(dp200
g2
S'http://www.reuters.com/article/environmentNews/idUSSP15718420070505'
p201
sg4
S'20070505\xc2\xa005:51 PM EDT'
p202
sg6
S'Asia has few plans yet to deal with rising seas'
p203
sa(dp204
g2
S'http://www.reuters.com/article/environmentNews/idUSN0448291920070505'
p205
sg4
S'20070505\xc2\xa005:51 PM EDT'
p206
sg6
S'Alabama plant reopening marks nuclear resurgence?'
p207
sa(dp208
g2
S'http://www.reuters.com/article/environmentNews/idUSN0445290020070505'
p209
sg4
S'20070505\xc2\xa005:51 PM EDT'
p210
sg6
S'Wind farms urged to go easy on birds and bats'
p211
sa(dp212
g2
S'http://www.reuters.com/article/businessNews/idUSN0536857720070505'
p213
sg4
S'20070505\xc2\xa005:50 PM EDT'
p214
sg6
S"Berkshire shareholder's PetroChina proposal fails"
p215
sa(dp216
g2
S'http://www.reuters.com/article/mergersNews/idUSN0529675820070505'
p217
sg4
S'20070505\xc2\xa005:46 PM EDT'
p218
sg6
S"UPDATE 2-Berkshire shareholder's PetroChina proposal fails"
p219
sa(dp220
g2
S'http://www.reuters.com/article/businessNews/idUSL0511748720070505'
p221
sg4
S'20070505\xc2\xa005:44 PM EDT'
p222
sg6
S'RBS trio proposes $24.5 billion bid for LaSalle: sources'
p223
sa(dp224
g2
S'http://www.reuters.com/article/latestCrisis/idUSN05298495'
p225
sg4
S'20070505\xc2\xa005:44 PM EDT'
p226
sg6
S'Al Qaeda deputy speaks out on US Iraq pullout bill'
p227
sa(dp228
g2
S'http://www.reuters.com/article/mergersNews/idUSN0522289920070505'
p229
sg4
S'20070505\xc2\xa005:40 PM EDT'
p230
sg6
S'Chavez to force steelmaker to supply Venezuela'
p231
sa(dp232
g2
S'http://www.reuters.com/article/businessNews/idUSN0529182520070505'
p233
sg4
S'20070505\xc2\xa005:02 PM EDT'
p234
sg6
S'Buffett says may hire 4 CIOs, insurance to weaken'
p235
sa(dp236
g2
S'http://www.reuters.com/article/businessNews/idUSN0542541620070505'
p237
sg4
S'20070505\xc2\xa005:02 PM EDT'
p238
sg6
S'Buffett: Subprime problems not big economic threat'
p239
sa(dp240
g2
S'http://www.reuters.com/article/businessNews/idUSN0529695120070505'
p241
sg4
S'20070505\xc2\xa005:02 PM EDT'
p242
sg6
S'Buffett likes railroads, outlook not "sensational"'
p243
sa(dp244
g2
S'http://www.reuters.com/article/businessNews/idUSN0529624920070505'
p245
sg4
S'20070505\xc2\xa005:02 PM EDT'
p246
sg6
S'Buffett sings, strums, shops at Berkshire meeting'
p247
sa(dp248
g2
S'http://www.reuters.com/article/worldNews/idUSISL20864220070505'
p249
sg4
S'20070505\xc2\xa004:54 PM EDT'
p250
sg6
S"Supporters mass on Pakistan judge's route to Lahore"
p251
sa(dp252
g2
S'http://www.reuters.com/article/topNews/idUSN0539932220070505'
p253
sg4
S'20070505\xc2\xa004:49 PM EDT'
p254
sg6
S'White House hopeful Romney woos religious right'
p255
sa(dp256
g2
S'http://www.reuters.com/article/topNews/idUSN0526659620070505'
p257
sg4
S'20070505\xc2\xa004:49 PM EDT'
p258
sg6
S'FACTBOX: Facts about Republican candidate Mitt Romney'
p259
sa(dp260
g2
S'http://www.reuters.com/article/topNews/idUSN0528506520070505'
p261
sg4
S'20070505\xc2\xa004:37 PM EDT'
p262
sg6
S'Tornado obliterates Kansas farming town'
p263
sa(dp264
g2
S'http://www.reuters.com/article/worldNews/idUSN0521548120070505'
p265
sg4
S'20070505\xc2\xa004:13 PM EDT'
p266
sg6
S'Bodies of 105 militia victims found in Colombia'
p267
sa(dp268
g2
S'http://www.reuters.com/article/topNews/idUSL0546226620070505'
p269
sg4
S'20070505\xc2\xa003:54 PM EDT'
p270
sg6
S'Rescuers search for crashed Kenya Airways plane'
p271
sa(dp272
g2
S'http://www.reuters.com/article/africaCrisis/idUSL05267267'
p273
sg4
S'20070505\xc2\xa003:45 PM EDT'
p274
sg6
S'Rescuers search for crashed Kenya Airways plane'
p275
sa(dp276
g2
S'http://www.reuters.com/article/worldNews/idUSL0556308220070505'
p277
sg4
S'20070505\xc2\xa003:22 PM EDT'
p278
sg6
S'Israeli defense minister plans to stay on for now'
p279
sa(dp280
g2
S'http://www.reuters.com/article/latestCrisis/idUSN05215481'
p281
sg4
S'20070505\xc2\xa003:20 PM EDT'
p282
sg6
S'Bodies of 105 militia victims found in Colombia'
p283
sa(dp284
g2
S'http://www.reuters.com/article/topNews/idUSL0366942020070505'
p285
sg4
S'20070505\xc2\xa003:00 PM EDT'
p286
sg6
S'France\'s Sarkozy slams Royal over "riot" warning'
p287
sa(dp288
g2
S'http://www.reuters.com/article/topNews/idUSISL19947520070505'
p289
sg4
S'20070505\xc2\xa002:46 PM EDT'
p290
sg6
S'Taliban delay French hostage decision'
p291
sa(dp292
g2
S'http://www.reuters.com/article/homepageCrisis/idUSISL211137._CH_.2400'
p293
sg4
S'20070505\xc2\xa002:44 PM EDT'
p294
sg6
S'Taliban delay French hostage decision; 10 killed'
p295
sa(dp296
g2
S'http://www.reuters.com/article/latestCrisis/idUSISL211137'
p297
sg4
S'20070505\xc2\xa002:44 PM EDT'
p298
sg6
S'Taliban delay French hostage decision; 10 killed'
p299
sa(dp300
g2
S'http://www.reuters.com/article/topNews/idUSN2039858620070505'
p301
sg4
S'20070505\xc2\xa002:42 PM EDT'
p302
sg6
S'Bush, Democrats still far apart on Iraq bill'
p303
sa(dp304
g2
S'http://www.reuters.com/article/topNews/idUSN0237077220070505'
p305
sg4
S'20070505\xc2\xa002:42 PM EDT'
p306
sg6
S'FACTBOX: Biden discusses Iraq, Russia in interview'
p307
sa(dp308
g2
S'http://www.reuters.com/article/latestCrisis/idUSN05284467'
p309
sg4
S'20070505\xc2\xa002:40 PM EDT'
p310
sg6
S'Gunmen murder police chief in southern Mexico'
p311
sa(dp312
g2
S'http://www.reuters.com/article/latestCrisis/idUSN05291579'
p313
sg4
S'20070505\xc2\xa002:32 PM EDT'
p314
sg6
S'Bush, Democrats still far apart on Iraq bill'
p315
sa(dp316
g2
S'http://www.reuters.com/article/businessNews/idUSN0529630620070505'
p317
sg4
S'20070505\xc2\xa002:29 PM EDT'
p318
sg6
S'Regulators probe unusual Dow Jones trading'
p319
sa(dp320
g2
S'http://www.reuters.com/article/mergersNews/idUSN0528235520070505'
p321
sg4
S'20070505\xc2\xa002:05 PM EDT'
p322
sg6
S'Buffett says may hire 4 CIOs, insurance to weaken'
p323
sa(dp324
g2
S'http://www.reuters.com/article/televisionNews/idUSN0333106420070505'
p325
sg4
S'20070505\xc2\xa001:50 PM EDT'
p326
sg6
S'Goodbye to "Gilmore Girls" on May 15'
p327
sa(dp328
g2
S'http://www.reuters.com/article/televisionNews/idUSN5241287120070505'
p329
sg4
S'20070505\xc2\xa001:50 PM EDT'
p330
sg6
S'Two more singers dropped from "American Idol"'
p331
sa(dp332
g2
S'http://www.reuters.com/article/televisionNews/idUSN0426963020070505'
p333
sg4
S'20070505\xc2\xa001:50 PM EDT'
p334
sg6
S'West Wing\'s Moloney joining "Brotherhood"'
p335
sa(dp336
g2
S'http://www.reuters.com/article/televisionNews/idUSN0423589720070505'
p337
sg4
S'20070505\xc2\xa001:50 PM EDT'
p338
sg6
S'Matthew Modine, Carrie Fisher dig "Weeds"'
p339
sa(dp340
g2
S'http://www.reuters.com/article/televisionNews/idUSN0422091320070505'
p341
sg4
S'20070505\xc2\xa001:50 PM EDT'
p342
sg6
S'More family fun for "Sopranos" star Schirripa'
p343
sa(dp344
g2
S'http://www.reuters.com/article/televisionNews/idUSN0422090620070505'
p345
sg4
S'20070505\xc2\xa001:50 PM EDT'
p346
sg6
S'Dax Shepard among "Baby" names'
p347
sa(dp348
g2
S'http://www.reuters.com/article/televisionNews/idUSN0420217020070505'
p349
sg4
S'20070505\xc2\xa001:50 PM EDT'
p350
sg6
S'Stoli getting "Real" with gay community'
p351
sa(dp352
g2
S'http://www.reuters.com/article/televisionNews/idUSN0340578120070505'
p353
sg4
S'20070505\xc2\xa001:50 PM EDT'
p354
sg6
S'Mini hip-hop mogul focus of reality show'
p355
sa(dp356
g2
S'http://www.reuters.com/article/televisionNews/idUSN0340557620070505'
p357
sg4
S'20070505\xc2\xa001:50 PM EDT'
p358
sg6
S'Timberlake, HBO sync up for concert'
p359
sa(dp360
g2
S'http://www.reuters.com/article/domesticNews/idUSN0339694420070505'
p361
sg4
S'20070505\xc2\xa001:50 PM EDT'
p362
sg6
S'Paris Hilton sentenced to 45 days in jail'
p363
sa(dp364
g2
S'http://www.reuters.com/article/bondsNews/idUSN0529572520070505'
p365
sg4
S'20070505\xc2\xa001:35 PM EDT'
p366
sg6
S'Ecuador threatens to sue banks for overcharging'
p367
sa(dp368
g2
S'http://www.reuters.com/article/topNews/idUSSP21568020070505'
p369
sg4
S'20070505\xc2\xa001:35 PM EDT'
p370
sg6
S'Eight Afghan police killed in Taliban clash'
p371
sa(dp372
g2
S'http://www.reuters.com/article/musicNews/idUSN0416781920070505'
p373
sg4
S'20070505\xc2\xa001:32 PM EDT'
p374
sg6
S'Billboard album reviews: Streisand, Bjork'
p375
sa(dp376
g2
S'http://www.reuters.com/article/entertainmentNews/idUSN0448734120070505'
p377
sg4
S'20070505\xc2\xa001:31 PM EDT'
p378
sg6
S'Album, book unveil Elliott Smith rarities'
p379
sa(dp380
g2
S'http://www.reuters.com/article/ousiv/idUSN0427713020070505'
p381
sg4
S'20070505\xc2\xa001:30 PM EDT'
p382
sg6
S'Murdoch fails to win support from WSJ reporters'
p383
sa(dp384
g2
S'http://www.reuters.com/article/worldNews/idUSL0465833220070505'
p385
sg4
S'20070505\xc2\xa001:28 PM EDT'
p386
sg6
S'War brought Bosnian Muslim women back to Islam'
p387
sa(dp388
g2
S'http://www.reuters.com/article/worldNews/idUSL0346573420070505'
p389
sg4
S'20070505\xc2\xa001:28 PM EDT'
p390
sg6
S'Imported Muslim brides isolated in Germany'
p391
sa(dp392
g2
S'http://www.reuters.com/article/featuredCrisis/idUSSP215680'
p393
sg4
S'20070505\xc2\xa001:28 PM EDT'
p394
sg6
S'Eight Afghan police killed in Taliban clash'
p395
sa(dp396
g2
S'http://www.reuters.com/article/asiaCrisis/idUSSP209921'
p397
sg4
S'20070505\xc2\xa001:18 PM EDT'
p398
sg6
S'Small bomb explodes near Thai palace, wounds one'
p399
sa(dp400
g2
S'http://www.reuters.com/article/ousiv/idUSN0422253620070505'
p401
sg4
S'20070505\xc2\xa001:16 PM EDT'
p402
sg6
S'Yahoo shares rise on reports of Microsoft interest'
p403
sa(dp404
g2
S'http://www.reuters.com/article/worldNews/idUSL0552490620070505'
p405
sg4
S'20070505\xc2\xa001:16 PM EDT'
p406
sg6
S'New secularist protests pressure Turkish government'
p407
sa(dp408
g2
S'http://www.reuters.com/article/pressReleasesMolt/idUSN3024682120070505'
p409
sg4
S'20070505\xc2\xa001:15 PM EDT'
p410
sg6
S'Corporate crisis? Go on the attack!'
p411
sa(dp412
g2
S'http://www.reuters.com/article/entertainmentNews/idUSSCH56190720070505'
p413
sg4
S'20070505\xc2\xa001:13 PM EDT'
p414
sg6
S'CORRECTED: Critics underwhelmed by "Spider-Man 3"'
p415
sa(dp416
g2
S'http://www.reuters.com/article/companyNewsAndPR/idUSN0529399920070505'
p417
sg4
S'20070505\xc2\xa001:04 PM EDT'
p418
sg6
S'Buffett says may hire 4 chief investment officers'
p419
sa(dp420
g2
S'http://www.reuters.com/article/homepageCrisis/idUSL05601546._CH_.2400'
p421
sg4
S'20070505\xc2\xa001:01 PM EDT'
p422
sg6
S'Anjouan locals prepare to repel national troops'
p423
sa(dp424
g2
S'http://www.reuters.com/article/latestCrisis/idUSL05601546'
p425
sg4
S'20070505\xc2\xa001:01 PM EDT'
p426
sg6
S'Anjouan locals prepare to repel national troops'
p427
sa(dp428
g2
S'http://www.reuters.com/article/companyNewsAndPR/idUSN0429490720070505'
p429
sg4
S'20070505\xc2\xa012:59 PM EDT'
p430
sg6
S"CORRECTED - Critics underwhelmed by 'Spider-Man 3'"
p431
sa(dp432
g2
S'http://www.reuters.com/article/entertainmentNews/idUSN0529285320070505'
p433
sg4
S'20070505\xc2\xa012:46 PM EDT'
p434
sg6
S'"Spider-Man" breaks 1-day record in North America'
p435
sa(dp436
g2
S'http://www.reuters.com/article/ousiv/idUSPEK1435320070505'
p437
sg4
S'20070505\xc2\xa012:42 PM EDT'
p438
sg6
S"China's price-to-rent ratio suggests bubble: study"
p439
sa(dp440
g2
S'http://www.reuters.com/article/latestCrisis/idUSL05523320'
p441
sg4
S'20070505\xc2\xa012:28 PM EDT'
p442
sg6
S'Gunmen abduct British oil worker in Nigeria'
p443
sa(dp444
g2
S'http://www.reuters.com/article/businessNews/idUSWEN773520070505'
p445
sg4
S'20070505\xc2\xa012:28 PM EDT'
p446
sg6
S'Berkshire Hathaway profit rises 12 pct'
p447
sa(dp448
g2
S'http://www.reuters.com/article/sportsNews/idUSL0558603320070505'
p449
sg4
S'20070505\xc2\xa012:22 PM EDT'
p450
sg6
S'U.S. brings Germany back to earth with win'
p451
sa(dp452
g2
S'http://www.reuters.com/article/middleeastCrisis/idUSIBO552892'
p453
sg4
S'20070505\xc2\xa012:03 PM EDT'
p454
sg6
S'Bomber kills 15 at Iraqi police recruit centre'
p455
sa(dp456
g2
S'http://www.reuters.com/article/companyNewsAndPR/idUSL0526726720070505'
p457
sg4
S'20070505\xc2\xa011:29 AM EDT'
p458
sg6
S'UPDATE 7-Kenya Airways plane crashes in Cameroon, search on'
p459
sa(dp460
g2
S'http://www.reuters.com/article/companyNewsAndPR/idUSL0559384820070505'
p461
sg4
S'20070505\xc2\xa011:28 AM EDT'
p462
sg6
S'FACTBOX-Nationalities of those on crashed Kenya plane'
p463
sa(dp464
g2
S'http://www.reuters.com/article/latestCrisis/idUSL05593848'
p465
sg4
S'20070505\xc2\xa011:28 AM EDT'
p466
sg6
S'FACTBOX-Nationalities of those on crashed Kenya plane'
p467
sa(dp468
g2
S'http://www.reuters.com/article/topNews/idUSN0449491820070505'
p469
sg4
S'20070505\xc2\xa011:27 AM EDT'
p470
sg6
S'U.S.-Iran diplomatic dance ends with ice cream chat'
p471
sa(dp472
g2
S'http://www.reuters.com/article/worldNews/idUSN0448973720070505'
p473
sg4
S'20070505\xc2\xa011:25 AM EDT'
p474
sg6
S'U.S. eyes $500 mln ammunition sale to Iraq'
p475
sa(dp476
g2
S'http://www.reuters.com/article/worldNews/idUSL0433203120070505'
p477
sg4
S'20070505\xc2\xa011:25 AM EDT'
p478
sg6
S'FACTBOX: Security developments in Iraq, May 4'
p479
sa(dp480
g2
S'http://www.reuters.com/article/sportsNews/idUSFYO54299520070505'
p481
sg4
S'20070505\xc2\xa011:17 AM EDT'
p482
sg6
S'Sprunger leads Swiss to 4-1 win over Denmark'
p483
sa(dp484
g2
S'http://www.reuters.com/article/worldNews/idUSL0552591420070505'
p485
sg4
S'20070505\xc2\xa011:10 AM EDT'
p486
sg6
S'Palestinians reject U.S. peace plan'
p487
sa(dp488
g2
S'http://www.reuters.com/article/europeCrisis/idUSTZO540161'
p489
sg4
S'20070505\xc2\xa011:03 AM EDT'
p490
sg6
S'Serb volunteers vow in church to "defend" Kosovo'
p491
sa(dp492
g2
S'http://www.reuters.com/article/worldNews/idUSCOL14588420070505'
p493
sg4
S'20070505\xc2\xa010:54 AM EDT'
p494
sg6
S'Sri Lanka flood death toll hits 11'
p495
sa(dp496
g2
S'http://www.reuters.com/article/worldNews/idUSL0539525720070505'
p497
sg4
S'20070505\xc2\xa010:52 AM EDT'
p498
sg6
S'Ukraine opposition head Tymoshenko hails early poll'
p499
sa(dp500
g2
S'http://www.reuters.com/article/featuredCrisis/idUSL05585096'
p501
sg4
S'20070505\xc2\xa010:47 AM EDT'
p502
sg6
S'Palestinians reject US peace plan, Israel cool too'
p503
sa(dp504
g2
S'http://www.reuters.com/article/homepageCrisis/idUSL05585096._CH_.2400'
p505
sg4
S'20070505\xc2\xa010:47 AM EDT'
p506
sg6
S'Palestinians reject US peace plan, Israel cool too'
p507
sa(dp508
g2
S'http://www.reuters.com/article/peopleNews/idUSN0421203320070505'
p509
sg4
S'20070505\xc2\xa010:44 AM EDT'
p510
sg6
S'Fired radio host Imus plans to sue CBS'
p511
sa(dp512
g2
S'http://www.reuters.com/article/peopleNews/idUSN0324083320070505'
p513
sg4
S'20070505\xc2\xa010:44 AM EDT'
p514
sg6
S'Actor Hasselhoff says he is battling alcoholism'
p515
sa(dp516
g2
S'http://www.reuters.com/article/peopleNews/idUSN0322951620070505'
p517
sg4
S'20070505\xc2\xa010:44 AM EDT'
p518
sg6
S'Child Oscar winner Paquin relishes "ballsy" role'
p519
sa(dp520
g2
S'http://www.reuters.com/article/peopleNews/idUSN0322029720070505'
p521
sg4
S'20070505\xc2\xa010:44 AM EDT'
p522
sg6
S'Robin Williams says has been sober for 10 months'
p523
sa(dp524
g2
S'http://www.reuters.com/article/peopleNews/idUSN0319955320070505'
p525
sg4
S'20070505\xc2\xa010:44 AM EDT'
p526
sg6
S'Rapper Eve to be charged with drunk driving in LA'
p527
sa(dp528
g2
S'http://www.reuters.com/article/latestCrisis/idUSN05289387'
p529
sg4
S'20070505\xc2\xa010:25 AM EDT'
p530
sg6
S'Canadian Conservatives lose ground in opinion poll'
p531
sa(dp532
g2
S'http://www.reuters.com/article/latestCrisis/idUSL05132381'
p533
sg4
S'20070505\xc2\xa010:22 AM EDT'
p534
sg6
S'Oil slick closes Dubai beaches, clean-up launched'
p535
sa(dp536
g2
S'http://www.reuters.com/article/industryNews/idUSN0122703420070505'
p537
sg4
S'20070505\xc2\xa010:11 AM EDT'
p538
sg6
S'As Spidey opens, box office records hang by thread'
p539
sa(dp540
g2
S'http://www.reuters.com/article/industryNews/idUSWEN769620070505'
p541
sg4
S'20070505\xc2\xa010:11 AM EDT'
p542
sg6
S'Clear Channel board rejects new bid as vote nears'
p543
sa(dp544
g2
S'http://www.reuters.com/article/industryNews/idUSN0422490120070505'
p545
sg4
S'20070505\xc2\xa010:11 AM EDT'
p546
sg6
S'Bancrofts, Dow Jones board sued by shareholder'
p547
sa(dp548
g2
S'http://www.reuters.com/article/industryNews/idUSN0324125220070505'
p549
sg4
S'20070505\xc2\xa010:11 AM EDT'
p550
sg6
S'Clear Channel board rejects new bid as vote nears'
p551
sa(dp552
g2
S'http://www.reuters.com/article/businessNews/idUSWLA829720070505'
p553
sg4
S'20070505\xc2\xa010:10 AM EDT'
p554
sg6
S'Reuters soars on approach, Thomson touted as bidder'
p555
sa(dp556
g2
S'http://www.reuters.com/article/businessNews/idUSL0557798220070505'
p557
sg4
S'20070505\xc2\xa010:06 AM EDT'
p558
sg6
S'Philips no easy target for investors, CEO tells paper'
p559
sa(dp560
g2
S'http://www.reuters.com/article/worldNews/idUST15238920070505'
p561
sg4
S'20070505\xc2\xa010:05 AM EDT'
p562
sg6
S'North Korea nuclear talks may resume soon: report'
p563
sa(dp564
g2
S'http://www.reuters.com/article/homepageCrisis/idUSISL211436._CH_.2400'
p565
sg4
S'20070505\xc2\xa010:03 AM EDT'
p566
sg6
S'Militants stop cars, smash cameras in NW Pakistan'
p567
sa(dp568
g2
S'http://www.reuters.com/article/latestCrisis/idUSISL211436'
p569
sg4
S'20070505\xc2\xa010:03 AM EDT'
p570
sg6
S'Militants stop cars, smash cameras in NW Pakistan'
p571
sa(dp572
g2
S'http://www.reuters.com/article/entertainmentNews/idUSN0434898020070505'
p573
sg4
S'20070505\xc2\xa009:52 AM EDT'
p574
sg6
S'Baldwin- Basinger visitation dispute back in court'
p575
sa(dp576
g2
S'http://www.reuters.com/article/filmNews/idUSN0346871420070505'
p577
sg4
S'20070505\xc2\xa009:51 AM EDT'
p578
sg6
S'Oliver Stone unveils ad calling for Iraq withdrawal'
p579
sa(dp580
g2
S'http://www.reuters.com/article/filmNews/idUSN0323885020070505'
p581
sg4
S'20070505\xc2\xa009:51 AM EDT'
p582
sg6
S'George Lucas honored at San Francisco Film Festival'
p583
sa(dp584
g2
S'http://www.reuters.com/article/filmNews/idUSN0434000920070505'
p585
sg4
S'20070505\xc2\xa009:51 AM EDT'
p586
sg6
S'Filmmaker sets sights on Karl Marx biopic'
p587
sa(dp588
g2
S'http://www.reuters.com/article/filmNews/idUSN0424242220070505'
p589
sg4
S'20070505\xc2\xa009:51 AM EDT'
p590
sg6
S'Chestnut puts his faith in marital drama'
p591
sa(dp592
g2
S'http://www.reuters.com/article/filmNews/idUSN0347720420070505'
p593
sg4
S'20070505\xc2\xa009:51 AM EDT'
p594
sg6
S"NY's Tribeca rewards political, religious films"
p595
sa(dp596
g2
S'http://www.reuters.com/article/entertainmentNews/idUSL0416690920070505'
p597
sg4
S'20070505\xc2\xa009:51 AM EDT'
p598
sg6
S'"Four Minutes" best picture at German awards'
p599
sa(dp600
g2
S'http://www.reuters.com/article/latestCrisis/idUSSP51458'
p601
sg4
S'20070505\xc2\xa009:47 AM EDT'
p602
sg6
S'Gun, bomb attacks kill six in Thai south'
p603
sa(dp604
g2
S'http://www.reuters.com/article/topNews/idUSL0555515320070505'
p605
sg4
S'20070505\xc2\xa009:45 AM EDT'
p606
sg6
S'CHRONOLOGY-Danger stalks aid workers in Afghanistan'
p607
sa(dp608
g2
S'http://www.reuters.com/article/entertainmentNews/idUSSCH54897320070505'
p609
sg4
S'20070505\xc2\xa009:44 AM EDT'
p610
sg6
S'CORRECTED: "Four Minutes" best picture at German awards'
p611
sa(dp612
g2
S'http://www.reuters.com/article/latestCrisis/idUSL05555153'
p613
sg4
S'20070505\xc2\xa009:41 AM EDT'
p614
sg6
S'CHRONOLOGY-Danger stalks aid workers in Afghanistan'
p615
sa(dp616
g2
S'http://www.reuters.com/article/environmentNews/idUSL0473076220070505'
p617
sg4
S'20070505\xc2\xa009:38 AM EDT'
p618
sg6
S'Nuclear industry welcomes climate report backing'
p619
sa(dp620
g2
S'http://www.reuters.com/article/newsOne/idUSKHA54713520070505'
p621
sg4
S'20070505\xc2\xa009:37 AM EDT'
p622
sg6
S'Bomber kills 9 police recruits west of Baghdad'
p623
sa(dp624
g2
S'http://www.reuters.com/article/latestCrisis/idUSL05572160'
p625
sg4
S'20070505\xc2\xa009:34 AM EDT'
p626
sg6
S'Bomber kills 9 police recruits west of Baghdad'
p627
sa(dp628
g2
S'http://www.reuters.com/article/latestCrisis/idUSKHA547135'
p629
sg4
S'20070505\xc2\xa009:19 AM EDT'
p630
sg6
S'Bomber kills 9 police recruits west of Baghdad'
p631
sa(dp632
g2
S'http://www.reuters.com/article/topNews/idUSN0538488720070505'
p633
sg4
S'20070505\xc2\xa009:10 AM EDT'
p634
sg6
S'U.S. system trips up women seeking presidency'
p635
sa(dp636
g2
S'http://www.reuters.com/article/latestCrisis/idUSL05527568'
p637
sg4
S'20070505\xc2\xa008:46 AM EDT'
p638
sg6
S"Poaching rises in Zimbabwe's game parks-report"
p639
sa(dp640
g2
S'http://www.reuters.com/article/topNews/idUSL0555892120070505'
p641
sg4
S'20070505\xc2\xa008:43 AM EDT'
p642
sg6
S'Missing UK girl kidnapped in Portugal: police'
p643
sa(dp644
g2
S'http://www.reuters.com/article/worldNews/idUSSCH54417420070505'
p645
sg4
S'20070505\xc2\xa008:18 AM EDT'
p646
sg6
S'Scottish defeat leaves problem for Blair successor'
p647
sa(dp648
g2
S'http://www.reuters.com/article/topNews/idUSL0546211620070505'
p649
sg4
S'20070505\xc2\xa008:15 AM EDT'
p650
sg6
S'FACBOX-Recent air disasters in Africa'
p651
sa(dp652
g2
S'http://www.reuters.com/article/ousiv/idUSN2327525120070505'
p653
sg4
S'20070505\xc2\xa008:14 AM EDT'
p654
sg6
S'U.S. dark chocolate sales soar on health benefits'
p655
sa(dp656
g2
S'http://www.reuters.com/article/businessNews/idUSL0554081420070505'
p657
sg4
S'20070505\xc2\xa008:13 AM EDT'
p658
sg6
S'Magna only interested bidder for Chrysler: paper'
p659
sa(dp660
g2
S'http://www.reuters.com/article/topNews/idUSL026682020070505'
p661
sg4
S'20070505\xc2\xa008:09 AM EDT'
p662
sg6
S'CORRECTION: Scottish defeat leaves problem for Blair successor'
p663
sa(dp664
g2
S'http://www.reuters.com/article/latestCrisis/idUSL05535369'
p665
sg4
S'20070505\xc2\xa008:07 AM EDT'
p666
sg6
S'China plans to hold first "no car" day'
p667
sa(dp668
g2
S'http://www.reuters.com/article/latestCrisis/idUSL05506872'
p669
sg4
S'20070505\xc2\xa007:45 AM EDT'
p670
sg6
S'FACTBOX-Security developments in Iraq, May 5'
p671
sa(dp672
g2
S'http://www.reuters.com/article/latestCrisis/idUSL05551772'
p673
sg4
S'20070505\xc2\xa007:36 AM EDT'
p674
sg6
S'Italy prosecutors probe 8 suspect hospital deaths'
p675
sa(dp676
g2
S'http://www.reuters.com/article/latestCrisis/idUSL05525914'
p677
sg4
S'20070505\xc2\xa007:36 AM EDT'
p678
sg6
S'Hamas rejects U.S. security proposal'
p679
sa(dp680
g2
S'http://www.reuters.com/article/topNews/idUSDAH52174320070505'
p681
sg4
S'20070505\xc2\xa007:18 AM EDT'
p682
sg6
S"More sanctions won't stop nuclear work: Iran"
p683
sa(dp684
g2
S'http://www.reuters.com/article/companyNewsAndPR/idUSL0553897420070505'
p685
sg4
S'20070505\xc2\xa007:18 AM EDT'
p686
sg6
S'UPDATE 1-BT plans 2 bln sterling share buyback - FT'
p687
sa(dp688
g2
S'http://www.reuters.com/article/mergersNews/idUSL0553965820070505'
p689
sg4
S'20070505\xc2\xa007:17 AM EDT'
p690
sg6
S'ABN halts offers for LaSalle but RBS to bid-report'
p691
sa(dp692
g2
S'http://www.reuters.com/article/latestCrisis/idUSJAK212558'
p693
sg4
S'20070505\xc2\xa006:59 AM EDT'
p694
sg6
S"Indonesia's ex-army chief denies Timor violations"
p695
sa(dp696
g2
S'http://www.reuters.com/article/latestCrisis/idUSL05547030'
p697
sg4
S'20070505\xc2\xa006:43 AM EDT'
p698
sg6
S'Signal picked up from missing Kenya Airways plane'
p699
sa(dp700
g2
S'http://www.reuters.com/article/latestCrisis/idUSL05526359'
p701
sg4
S'20070505\xc2\xa006:40 AM EDT'
p702
sg6
S'ENI says no attacks on Nigerian oil plants'
p703
sa(dp704
g2
S'http://www.reuters.com/article/sportsNews/idUSN0426384620070505'
p705
sg4
S'20070505\xc2\xa006:35 AM EDT'
p706
sg6
S'All eyes on Vegas for De La Hoya, Mayweather showdown'
p707
sa(dp708
g2
S'http://www.reuters.com/article/topNews/idUSL0563924620070505'
p709
sg4
S'20070505\xc2\xa006:25 AM EDT'
p710
sg6
S'Purported tape from "dead" Qaeda leader put on Web'
p711
sa(dp712
g2
S'http://www.reuters.com/article/latestCrisis/idUSL05639246'
p713
sg4
S'20070505\xc2\xa006:21 AM EDT'
p714
sg6
S'Purported tape from "dead" Qaeda leader put on Web'
p715
sa(dp716
g2
S'http://www.reuters.com/article/businessNews/idUSL0515071220070505'
p717
sg4
S'20070505\xc2\xa006:12 AM EDT'
p718
sg6
S'EMI being eyed by 3 U.S. private equity firms: report'
p719
sa(dp720
g2
S'http://www.reuters.com/article/latestCrisis/idUSL05445870'
p721
sg4
S'20070505\xc2\xa006:06 AM EDT'
p722
sg6
S'Signal detected near where plane went missing-Kenya airways'
p723
sa(dp724
g2
S'http://www.reuters.com/article/companyNewsAndPR/idUSL0552284820070505'
p725
sg4
S'20070505\xc2\xa005:41 AM EDT'
p726
sg6
S'BT plans 2 bln sterling share buyback - FT'
p727
sa(dp728
g2
S'http://www.reuters.com/article/worldNews/idUSL0460241720070505'
p729
sg4
S'20070505\xc2\xa005:21 AM EDT'
p730
sg6
S'Turks hit streets again amid political crisis'
p731
sa(dp732
g2
S'http://www.reuters.com/article/latestCrisis/idUSL05496875'
p733
sg4
S'20070505\xc2\xa005:16 AM EDT'
p734
sg6
S'Saudi opposition calls for minister to be tried'
p735
sa(dp736
g2
S'http://www.reuters.com/article/latestCrisis/idUSHKG176719'
p737
sg4
S'20070505\xc2\xa005:14 AM EDT'
p738
sg6
S'Macau chief executive defends police firing'
p739
sa(dp740
g2
S'http://www.reuters.com/article/latestCrisis/idUSL05479078'
p741
sg4
S'20070505\xc2\xa005:05 AM EDT'
p742
sg6
S'Gunmen abduct 2 oil workers, hit terminal in Nigeria'
p743
sa(dp744
g2
S'http://www.reuters.com/article/companyNewsAndPR/idUSTFE00278120070505'
p745
sg4
S'20070505\xc2\xa004:59 AM EDT'
p746
sg6
S"Japan's Omi says not worried about return to deflation"
p747
sa(dp748
g2
S'http://www.reuters.com/article/latestCrisis/idUSDEL196806'
p749
sg4
S'20070505\xc2\xa004:55 AM EDT'
p750
sg6
S'Strike in Kashmir over rights violations, mosque'
p751
sa(dp752
g2
S'http://www.reuters.com/article/topNews/idUSISL19847720070505'
p753
sg4
S'20070505\xc2\xa004:51 AM EDT'
p754
sg6
S'Taliban extend deadline on French hostage'
p755
sa(dp756
g2
S'http://www.reuters.com/article/sportsNews/idUST21138220070505'
p757
sg4
S'20070505\xc2\xa004:48 AM EDT'
p758
sg6
S'Wariner dominant in world dress rehearsal'
p759
sa(dp760
g2
S'http://www.reuters.com/article/latestCrisis/idUSISL207152'
p761
sg4
S'20070505\xc2\xa004:45 AM EDT'
p762
sg6
S'Taliban extend deadline on French hostage'
p763
sa(dp764
g2
S'http://www.reuters.com/article/latestCrisis/idUSL05489796'
p765
sg4
S'20070505\xc2\xa004:38 AM EDT'
p766
sg6
S'Kenya Airways plane crashes in Cameroon-state radio'
p767
sa(dp768
g2
S'http://www.reuters.com/article/latestCrisis/idUSL05477306'
p769
sg4
S'20070505\xc2\xa004:31 AM EDT'
p770
sg6
S'Kenya Airways plane crashes in Cameroon-state radio'
p771
sa(dp772
g2
S'http://www.reuters.com/article/topNews/idUSSP19603920070505'
p773
sg4
S'20070505\xc2\xa004:29 AM EDT'
p774
sg6
S'Afghan, foreign troops set counter-insurgency training'
p775
sa(dp776
g2
S'http://www.reuters.com/article/latestCrisis/idUSSP196039'
p777
sg4
S'20070505\xc2\xa004:20 AM EDT'
p778
sg6
S'Afghan, foreign troops set counter-insurgency training'
p779
sa(dp780
g2
S'http://www.reuters.com/article/latestCrisis/idUSBKK237863'
p781
sg4
S'20070505\xc2\xa004:01 AM EDT'
p782
sg6
S'Muslim man, children killed in Thai south'
p783
sa(dp784
g2
S'http://www.reuters.com/article/worldNews/idUST16401620070505'
p785
sg4
S'20070505\xc2\xa003:43 AM EDT'
p786
sg6
S'One dead, 21 hurt in Japan rollercoaster accident'
p787
sa(dp788
g2
S'http://www.reuters.com/article/featuredCrisis/idUSISL199475'
p789
sg4
S'20070505\xc2\xa003:39 AM EDT'
p790
sg6
S'U.S. convoy, Afghan police hit by two suicide bombs'
p791
sa(dp792
g2
S'http://www.reuters.com/article/latestCrisis/idUST201770'
p793
sg4
S'20070505\xc2\xa003:36 AM EDT'
p794
sg6
S'One dead, 21 hurt in Japan rollercoaster accident'
p795
sa(dp796
g2
S'http://www.reuters.com/article/latestCrisis/idUSCOL145884'
p797
sg4
S'20070505\xc2\xa003:28 AM EDT'
p798
sg6
S'Sri Lanka flood death toll hits 11, 50,000 homeless'
p799
sa(dp800
g2
S'http://www.reuters.com/article/homepageCrisis/idUSCOL145884._CH_.2400'
p801
sg4
S'20070505\xc2\xa003:28 AM EDT'
p802
sg6
S'Sri Lanka flood death toll hits 11, 50,000 homeless'
p803
sa(dp804
g2
S'http://www.reuters.com/article/latestCrisis/idUSL05462266'
p805
sg4
S'20070505\xc2\xa003:20 AM EDT'
p806
sg6
S'Kenya Airways loses contact with 737, 115 aboard'
p807
sa(dp808
g2
S'http://www.reuters.com/article/worldNews/idUSTP5166420070505'
p809
sg4
S'20070505\xc2\xa003:17 AM EDT'
p810
sg6
S'Taiwan men seek mail-order brides from Vietnam'
p811
sa(dp812
g2
S'http://www.reuters.com/article/latestCrisis/idUST164016'
p813
sg4
S'20070505\xc2\xa003:03 AM EDT'
p814
sg6
S'One dead, 21 hurt in Japan roller coaster accident'
p815
sa(dp816
g2
S'http://www.reuters.com/article/sportsNews/idUSN0423605320070505'
p817
sg4
S'20070505\xc2\xa002:59 AM EDT'
p818
sg6
S'Rain likely to make Kentucky Derby wet and wild'
p819
sa(dp820
g2
S'http://www.reuters.com/article/sportsNews/idUSB45999720070505'
p821
sg4
S'20070505\xc2\xa002:33 AM EDT'
p822
sg6
S'Verlander in control as Tigers win fifth straight'
p823
sa(dp824
g2
S'http://www.reuters.com/article/sportsNews/idUSB45355720070505'
p825
sg4
S'20070505\xc2\xa002:29 AM EDT'
p826
sg6
S"Cardinals win first game since pitcher's death"
p827
sa(dp828
g2
S'http://www.reuters.com/article/featuredCrisis/idUSISL198477'
p829
sg4
S'20070505\xc2\xa002:15 AM EDT'
p830
sg6
S'Taliban extend deadline on French hostage'
p831
sa(dp832
g2
S'http://www.reuters.com/article/homepageCrisis/idUSISL198477._CH_.2400'
p833
sg4
S'20070505\xc2\xa002:15 AM EDT'
p834
sg6
S'Taliban extend deadline on French hostage'
p835
sa(dp836
g2
S'http://www.reuters.com/article/ousiv/idUSL0212305120070505'
p837
sg4
S'20070505\xc2\xa002:14 AM EDT'
p838
sg6
S'Bank of America sues ABN'
p839
sa(dp840
g2
S'http://www.reuters.com/article/businessNews/idUSN0431576520070505'
p841
sg4
S'20070505\xc2\xa002:14 AM EDT'
p842
sg6
S'April jobs growth softens as unemployment rises'
p843
sa(dp844
g2
S'http://www.reuters.com/article/worldNews/idUSPEK16346720070505'
p845
sg4
S'20070505\xc2\xa001:54 AM EDT'
p846
sg6
S"Beijing's pandas work overtime for holiday crowds"
p847
sa(dp848
g2
S'http://www.reuters.com/article/worldNews/idUSDHA20577820070505'
p849
sg4
S'20070505\xc2\xa001:47 AM EDT'
p850
sg6
S'Bangladesh picnickers drown after clash with police'
p851
sa(dp852
g2
S'http://www.reuters.com/article/latestCrisis/idUSDHA205778'
p853
sg4
S'20070505\xc2\xa001:43 AM EDT'
p854
sg6
S'Bangladesh picknickers drown after clash with police'
p855
sa(dp856
g2
S'http://www.reuters.com/article/businessNews/idUSSYD17854320070505'
p857
sg4
S'20070505\xc2\xa001:42 AM EDT'
p858
sg6
S'Late support revives Qantas bid: buyout group'
p859
sa(dp860
g2
S'http://www.reuters.com/article/mergersNews/idUSSYD7285520070505'
p861
sg4
S'20070505\xc2\xa001:39 AM EDT'
p862
sg6
S'UPDATE 2-Late support revives Qantas bid-buyout group'
p863
sa(dp864
g2
S'http://www.reuters.com/article/worldNews/idUSCOL18954720070505'
p865
sg4
S'20070505\xc2\xa001:18 AM EDT'
p866
sg6
S'Sri Lanka says sinks two Tiger rebel boats, 10 dead'
p867
sa(dp868
g2
S'http://www.reuters.com/article/latestCrisis/idUSB422271'
p869
sg4
S'20070505\xc2\xa001:17 AM EDT'
p870
sg6
S'REFILE-Indian chemicals factory blast kills seven'
p871
sa(dp872
g2
S'http://www.reuters.com/article/featuredCrisis/idUSCOL189547'
p873
sg4
S'20070505\xc2\xa001:11 AM EDT'
p874
sg6
S'Sri Lanka says sinks two Tiger rebel boats, 10 dead'
p875
sa(dp876
g2
S'http://www.reuters.com/article/environmentNews/idUSL0462938520070505'
p877
sg4
S'20070505\xc2\xa012:36 AM EDT'
p878
sg6
S'EU-Kyoto carbon trade link should meet deadline'
p879
sa(dp880
g2
S'http://www.reuters.com/article/topNews/idUSSP20731720070505'
p881
sg4
S'20070505\xc2\xa012:35 AM EDT'
p882
sg6
S"Beating global warming needn't cost the earth: U.N."
p883
sa(dp884
g2
S'http://www.reuters.com/article/domesticNews/idUSN0442953620070505'
p885
sg4
S'20070505\xc2\xa012:34 AM EDT'
p886
sg6
S"Queen's Jamestown tour evokes history, memories"
p887
sa(dp888
g2
S'http://www.reuters.com/article/worldNews/idUSL0331513520070505'
p889
sg4
S'20070505\xc2\xa012:32 AM EDT'
p890
sg6
S'Coalition partners keep pressure on Olmert'
p891
sa(dp892
g2
S'http://www.reuters.com/article/entertainmentNews/idUSN0427045920070505'
p893
sg4
S'20070505\xc2\xa012:28 AM EDT'
p894
sg6
S'DreamWorks teams with Jackson for "Lovely Bones"'
p895
sa(dp896
g2
S'http://www.reuters.com/article/businessNews/idUSN0418167520070505'
p897
sg4
S'20070505\xc2\xa012:28 AM EDT'
p898
sg6
S'Eyes on FOMC as stocks seen trending higher'
p899
sa(dp900
g2
S'http://www.reuters.com/article/companyNewsAndPR/idUSN04OSTBIZ20070505'
p901
sg4
S'20070505\xc2\xa012:22 AM EDT'
p902
sg6
S'PRESS DIGEST - Washington Post Business - May 5'
p903
sa(dp904
g2
S'http://www.reuters.com/article/sportsNews/idUSN0426013620070505'
p905
sg4
S'20070505\xc2\xa012:15 AM EDT'
p906
sg6
S'Nets edge out Raptors to advance in playoffs'
p907
sa(dp908
g2
S'http://www.reuters.com/article/sportsNews/idUSB43663420070505'
p909
sg4
S'20070505\xc2\xa012:13 AM EDT'
p910
sg6
S"Afinogenov's overtime goal gives Sabres comeback win"
p911
sa(dp912
g2
S'http://www.reuters.com/news/video/videoStory?storyID=a8dbf005d5ead6e167f2c09561bc1bbeda1f8f74'
p913
sg4
S'20070505\xc2\xa008:02 PM EDT'
p914
sg6
S'Belgian media forecast Sarko victory'
p915
sa(dp916
g2
S'http://www.reuters.com/news/video/videoStory?storyID=702682a87b5f165313b3266124cbcd799995de80'
p917
sg4
S'20070505\xc2\xa007:41 PM EDT'
p918
sg6
S'Robot rules'
p919
sa(dp920
g2
S'http://www.reuters.com/news/video/videoStory?storyID=864c4fef7117c6ddafee78a88cf219aae76fe0f4'
p921
sg4
S'20070505\xc2\xa004:41 PM EDT'
p922
sg6
S'Drought concerns'
p923
sa(dp924
g2
S'http://www.reuters.com/news/video/videoStory?storyID=3d8d9c8e480aab7d87b43cfad679e64ed38e7a50'
p925
sg4
S'20070505\xc2\xa012:53 PM EDT'
p926
sg6
S'Artist equality in Kenya'
p927
sa(dp928
g2
S'http://www.reuters.com/news/video/videoStory?storyID=ecef2528d894e9660bcfba12dd5180e3465b1481'
p929
sg4
S'20070505\xc2\xa012:45 PM EDT'
p930
sg6
S'Olive oil industry in jeopardy'
p931
sa(dp932
g2
S'http://www.reuters.com/news/video/videoStory?storyID=55dda7aee3076f75769569e0be91e25dfcfe57b8'
p933
sg4
S'20070505\xc2\xa012:35 PM EDT'
p934
sg6
S"Nigeria's controversial elections"
p935
sa(dp936
g2
S'http://www.reuters.com/news/video/videoStory?storyID=34cab0d82a12d4deb011dbe7460b8bae95bcaf12'
p937
sg4
S'20070505\xc2\xa010:39 AM EDT'
p938
sg6
S'French choose next President'
p939
sa(dp940
g2
S'http://www.reuters.com/news/video/videoStory?storyID=c98b91259eb87e96c3a1b75644d80ab9bd6579db'
p941
sg4
S'20070505\xc2\xa004:53 AM EDT'
p942
sg6
S'Red Hot Chili Pepper charity'
p943
sa(dp944
g2
S'http://www.reuters.com/news/video/videoStory?storyID=764c28f442a7528f47f531aec35af60f0f790d73'
p945
sg4
S'20070505\xc2\xa012:05 AM EDT'
p946
sg6
S'Global Coverage: Climate Change'
p947
sa.