(lp0
(dp1
S'href'
p2
S'http://www.reuters.com/article/latestCrisis/idUSJAK243368'
p3
sS'ts'
p4
S'20070114\xc2\xa011:58 PM EST'
p5
sS'title'
p6
S'Fuel spill may be new clue on missing Indonesia jet'
p7
sa(dp8
g2
S'http://www.reuters.com/article/reviewsNews/idUSN1234356520070115'
p9
sg4
S'20070114\xc2\xa011:56 PM EST'
p10
sg6
S'Film review: Yippee: A Journey to Jewish Joy'
p11
sa(dp12
g2
S'http://www.reuters.com/article/reviewsNews/idUSN1217889720070115'
p13
sg4
S'20070114\xc2\xa011:56 PM EST'
p14
sg6
S'Film review: When Pigs Fly'
p15
sa(dp16
g2
S'http://www.reuters.com/article/reviewsNews/idUSN1117518720070115'
p17
sg4
S'20070114\xc2\xa011:56 PM EST'
p18
sg6
S'"Rome" redux a brutal soap opera for the ages'
p19
sa(dp20
g2
S'http://www.reuters.com/article/reviewsNews/idUSN1117462920070115'
p21
sg4
S'20070114\xc2\xa011:56 PM EST'
p22
sg6
S'Disney\'s "Raven" spinoff "Cory" can\'t fail'
p23
sa(dp24
g2
S'http://www.reuters.com/article/musicNews/idUSN1432940720070115'
p25
sg4
S'20070114\xc2\xa011:56 PM EST'
p26
sg6
S'Roots label Shanachie ventures into country music'
p27
sa(dp28
g2
S'http://www.reuters.com/article/industryNews/idUSN1118178020070115'
p29
sg4
S'20070114\xc2\xa011:53 PM EST'
p30
sg6
S'Two EMI bosses face the music after profit warning'
p31
sa(dp32
g2
S'http://www.reuters.com/article/companyNewsAndPR/idUST17734920070115'
p33
sg4
S'20070114\xc2\xa011:49 PM EST'
p34
sg6
S'TOPIX at 8-month highs, bank and exporters up'
p35
sa(dp36
g2
S'http://www.reuters.com/article/musicNews/idUSN1432939920070115'
p37
sg4
S'20070114\xc2\xa011:36 PM EST'
p38
sg6
S'Australian boy band dancing in the charts'
p39
sa(dp40
g2
S'http://www.reuters.com/article/latestCrisis/idUSSP205241'
p41
sg4
S'20070114\xc2\xa011:19 PM EST'
p42
sg6
S'SE Asia seeks access to emissions market'
p43
sa(dp44
g2
S'http://www.reuters.com/article/companyNewsAndPR/idUSL1517962720070115'
p45
sg4
S'20070114\xc2\xa010:51 PM EST'
p46
sg6
S'PRESS DIGEST - Financial Times - Jan 15 =6'
p47
sa(dp48
g2
S'http://www.reuters.com/article/companyNewsAndPR/idUSL1510819820070115'
p49
sg4
S'20070114\xc2\xa010:45 PM EST'
p50
sg6
S'PRESS DIGEST - British Business Press - Jan 15 =7'
p51
sa(dp52
g2
S'http://www.reuters.com/article/companyNewsAndPR/idUST19617420070115'
p53
sg4
S'20070114\xc2\xa010:38 PM EST'
p54
sg6
S'FOREX-Yen edges up as BOJ rate move seen more likely'
p55
sa(dp56
g2
S'http://www.reuters.com/article/companyNewsAndPR/idUSSYU00149320070115'
p57
sg4
S'20070114\xc2\xa010:30 PM EST'
p58
sg6
S'Mayne Pharma says Hospira acquisition delayed to Feb'
p59
sa(dp60
g2
S'http://www.reuters.com/article/globalNews/idUSHAN17865920070115'
p61
sg4
S'20070114\xc2\xa010:29 PM EST'
p62
sg6
S"Bird flu threatens Vietnam's rice basket region"
p63
sa(dp64
g2
S'http://www.reuters.com/article/latestCrisis/idUSB177924'
p65
sg4
S'20070114\xc2\xa010:28 PM EST'
p66
sg6
S'INTERVIEW-Prize-winning Desai frets:Is there another book in me?'
p67
sa(dp68
g2
S'http://www.reuters.com/article/latestCrisis/idUSHAN178659'
p69
sg4
S'20070114\xc2\xa010:22 PM EST'
p70
sg6
S"Bird flu threatens Vietnam's rice basket region"
p71
sa(dp72
g2
S'http://www.reuters.com/article/worldNews/idUSL148713820070115'
p73
sg4
S'20070114\xc2\xa010:18 PM EST'
p74
sg6
S'U.S. accuses Iran over officials seized in Iraq'
p75
sa(dp76
g2
S'http://www.reuters.com/article/companyNewsAndPR/idUST28715620070115'
p77
sg4
S'20070114\xc2\xa010:12 PM EST'
p78
sg6
S'Nikkei up 0.91 pct on machinery data, softer yen'
p79
sa(dp80
g2
S'http://www.reuters.com/article/sportsNews/idUSN1437051320070115'
p81
sg4
S'20070114\xc2\xa010:11 PM EST'
p82
sg6
S'American Goydos wins Sony Open by a shot'
p83
sa(dp84
g2
S'http://www.reuters.com/article/televisionNews/idUSN1232963220070115'
p85
sg4
S'20070114\xc2\xa010:09 PM EST'
p86
sg6
S'"Grey\'s" wins Thursday for ABC; "Armed" misfires'
p87
sa(dp88
g2
S'http://www.reuters.com/article/televisionNews/idUSN1232949220070115'
p89
sg4
S'20070114\xc2\xa010:09 PM EST'
p90
sg6
S'American Idol extends talent search to songwriters'
p91
sa(dp92
g2
S'http://www.reuters.com/article/televisionNews/idUSN1218229920070115'
p93
sg4
S'20070114\xc2\xa010:09 PM EST'
p94
sg6
S'A&E; has hit on its hands with "Sopranos"'
p95
sa(dp96
g2
S'http://www.reuters.com/article/televisionNews/idUSN1039024520070115'
p97
sg4
S'20070114\xc2\xa010:09 PM EST'
p98
sg6
S'Light-hearted Canadian look at Muslims a TV hit'
p99
sa(dp100
g2
S'http://www.reuters.com/article/televisionNews/idUSDEL23490620070115'
p101
sg4
S'20070114\xc2\xa010:09 PM EST'
p102
sg6
S'Pole-dancing "Gandhi" video a disgrace, says India'
p103
sa(dp104
g2
S'http://www.reuters.com/article/musicNews/idUSN1334022720070115'
p105
sg4
S'20070114\xc2\xa010:09 PM EST'
p106
sg6
S'Catching up on some (almost) new classical gems'
p107
sa(dp108
g2
S'http://www.reuters.com/article/entertainmentNews/idUSN1432918720070115'
p109
sg4
S'20070114\xc2\xa010:08 PM EST'
p110
sg6
S'Grammys hope to expand brand beyond big night'
p111
sa(dp112
g2
S'http://www.reuters.com/article/televisionNews/idUSN1120502820070115'
p113
sg4
S'20070114\xc2\xa010:04 PM EST'
p114
sg6
S'Bush Iraq speech draws 42.5 million viewers'
p115
sa(dp116
g2
S'http://www.reuters.com/article/musicNews/idUSN1232949020070115'
p117
sg4
S'20070114\xc2\xa010:04 PM EST'
p118
sg6
S'New Dylan track appears on movie soundtrack'
p119
sa(dp120
g2
S'http://www.reuters.com/article/companyNewsAndPR/idUSKLT00454120070115'
p121
sg4
S'20070114\xc2\xa009:55 PM EST'
p122
sg6
S'Malaysia says GM has shown interest in Proton'
p123
sa(dp124
g2
S'http://www.reuters.com/article/worldNews/idUSKLR21024920070115'
p125
sg4
S'20070114\xc2\xa009:55 PM EST'
p126
sg6
S'Disease, trauma plague Malaysia flood victims'
p127
sa(dp128
g2
S'http://www.reuters.com/article/ousiv/idUSPEK29220320070115'
p129
sg4
S'20070114\xc2\xa009:53 PM EST'
p130
sg6
S'China takes in record $63 billion FDI in 2006'
p131
sa(dp132
g2
S'http://www.reuters.com/article/worldNews/idUSKLR22839220070115'
p133
sg4
S'20070114\xc2\xa009:37 PM EST'
p134
sg6
S'Disease, trauma plague Malaysia flood victims'
p135
sa(dp136
g2
S'http://www.reuters.com/article/companyNewsAndPR/idUST29148920070115'
p137
sg4
S'20070114\xc2\xa009:30 PM EST'
p138
sg6
S'JGBs fall on machine orders, chance of rate hike'
p139
sa(dp140
g2
S'http://www.reuters.com/article/latestCrisis/idUSKLR210249'
p141
sg4
S'20070114\xc2\xa009:29 PM EST'
p142
sg6
S'Disease fears rise after floods hit Malaysia'
p143
sa(dp144
g2
S'http://www.reuters.com/article/companyNewsAndPR/idUSHKG29199720070115'
p145
sg4
S'20070114\xc2\xa009:27 PM EST'
p146
sg6
S"TABLE-PetroChina's 2006 oil, gas output climbs 5.2 pct"
p147
sa(dp148
g2
S'http://www.reuters.com/article/companyNewsAndPR/idUST28715420070115'
p149
sg4
S'20070114\xc2\xa009:14 PM EST'
p150
sg6
S'Nikkei up 0.91 pct on machinery orders, softer yen'
p151
sa(dp152
g2
S'http://www.reuters.com/article/companyNewsAndPR/idUSPEK28122220070115'
p153
sg4
S'20070114\xc2\xa009:14 PM EST'
p154
sg6
S'RPT-UPDATE 1-Chip giant Intel plans new China plant-sources'
p155
sa(dp156
g2
S'http://www.reuters.com/article/inDepthNews/idUSL0567663920070115'
p157
sg4
S'20070114\xc2\xa009:13 PM EST'
p158
sg6
S'French rail faces suit over wartime deportations'
p159
sa(dp160
g2
S'http://www.reuters.com/article/worldNews/idUSL131459520070115'
p161
sg4
S'20070114\xc2\xa009:05 PM EST'
p162
sg6
S'Rice tells Abbas U.S. will expand peace drive'
p163
sa(dp164
g2
S'http://www.reuters.com/article/latestCrisis/idUSPEK290675'
p165
sg4
S'20070114\xc2\xa008:58 PM EST'
p166
sg6
S'Dropped apple leads to fatal China crash-Xinhua'
p167
sa(dp168
g2
S'http://www.reuters.com/article/latestCrisis/idUSSYD220755'
p169
sg4
S'20070114\xc2\xa008:50 PM EST'
p170
sg6
S'U.S. firefighters to help hard-pressed Australians'
p171
sa(dp172
g2
S'http://www.reuters.com/article/ousiv/idUSN1436397320070115'
p173
sg4
S'20070114\xc2\xa008:38 PM EST'
p174
sg6
S"Kimberly Clark may be buyout target: Barron's"
p175
sa(dp176
g2
S'http://www.reuters.com/article/companyNewsAndPR/idUST28715120070115'
p177
sg4
S'20070114\xc2\xa008:37 PM EST'
p178
sg6
S'Nikkei rises on softer yen, strong machinery orders'
p179
sa(dp180
g2
S'http://www.reuters.com/article/ousiv/idUSSYD20128120070115'
p181
sg4
S'20070114\xc2\xa008:36 PM EST'
p182
sg6
S'Yarraman says still committed to Evans & Tate deal'
p183
sa(dp184
g2
S'http://www.reuters.com/article/companyNewsAndPR/idUSL1517438220070115'
p185
sg4
S'20070114\xc2\xa008:36 PM EST'
p186
sg6
S"Lloyd's of London boss calls for discipline - FT"
p187
sa(dp188
g2
S'http://www.reuters.com/article/latestCrisis/idUSL15174382'
p189
sg4
S'20070114\xc2\xa008:36 PM EST'
p190
sg6
S"Lloyd's of London boss calls for discipline - FT"
p191
sa(dp192
g2
S'http://www.reuters.com/article/sportsNews/idUSN1433166320070115'
p193
sg4
S'20070114\xc2\xa008:33 PM EST'
p194
sg6
S'Cardinals hire Whisenhunt as their new coach'
p195
sa(dp196
g2
S'http://www.reuters.com/article/worldNews/idUSL1414739220070115'
p197
sg4
S'20070114\xc2\xa008:15 PM EST'
p198
sg6
S'Pentagon chief discusses Iraq, Afghan wars in UK'
p199
sa(dp200
g2
S'http://www.reuters.com/article/latestCrisis/idUSL15172507'
p201
sg4
S'20070114\xc2\xa008:04 PM EST'
p202
sg6
S'Israeli forces kill 2 Palestinians on Gaza border'
p203
sa(dp204
g2
S'http://www.reuters.com/article/latestCrisis/idUSL1487138'
p205
sg4
S'20070114\xc2\xa008:01 PM EST'
p206
sg6
S'US accuses Iran over officials seized in Iraq'
p207
sa(dp208
g2
S'http://www.reuters.com/article/latestCrisis/idUSN14370656'
p209
sg4
S'20070114\xc2\xa008:01 PM EST'
p210
sg6
S"Bush sees himself as flexible with 'thick hide'"
p211
sa(dp212
g2
S'http://www.reuters.com/article/sportsNews/idUSL1416707820070115'
p213
sg4
S'20070114\xc2\xa007:59 PM EST'
p214
sg6
S'Decision to discard Beckham made jointly, says Capello'
p215
sa(dp216
g2
S'http://www.reuters.com/article/companyNewsAndPR/idUST29053420070115'
p217
sg4
S'20070114\xc2\xa007:57 PM EST'
p218
sg6
S'FOREX-Yen edges up as BOJ rate move seen more likely'
p219
sa(dp220
g2
S'http://www.reuters.com/article/sportsNews/idUSL1285812220070115'
p221
sg4
S'20070114\xc2\xa007:46 PM EST'
p222
sg6
S'Murphy back from alcoholic abyss'
p223
sa(dp224
g2
S'http://www.reuters.com/article/companyNewsAndPR/idUST19800820070115'
p225
sg4
S'20070114\xc2\xa007:41 PM EST'
p226
sg6
S'JGBs fall on machinery orders, BOJ rate hike view'
p227
sa(dp228
g2
S'http://www.reuters.com/article/companyNewsAndPR/idUSL1416790320070115'
p229
sg4
S'20070114\xc2\xa007:32 PM EST'
p230
sg6
S'Fastweb eyes closer Vodafone ties - FT'
p231
sa(dp232
g2
S'http://www.reuters.com/article/latestCrisis/idUSJAK152391'
p233
sg4
S'20070114\xc2\xa007:30 PM EST'
p234
sg6
S'PRESS DIGEST-Indonesian General News - Jan 15'
p235
sa(dp236
g2
S'http://www.reuters.com/article/sportsNews/idUSL1416320520070115'
p237
sg4
S'20070114\xc2\xa007:22 PM EST'
p238
sg6
S'Chicago Bears skin Seahawks in NFL overtime'
p239
sa(dp240
g2
S'http://www.reuters.com/article/peopleNews/idUSN1030074520070115'
p241
sg4
S'20070114\xc2\xa007:14 PM EST'
p242
sg6
S'Graham Nash sings joys of his digital photo business'
p243
sa(dp244
g2
S'http://www.reuters.com/article/companyNewsAndPR/idUSL1416697920070115'
p245
sg4
S'20070114\xc2\xa007:13 PM EST'
p246
sg6
S"RPT-Aiello appointed CEO of News Corp's Star unit"
p247
sa(dp248
g2
S'http://www.reuters.com/article/companyNewsAndPR/idUSTKW00265020070115'
p249
sg4
S'20070114\xc2\xa007:09 PM EST'
p250
sg6
S'JGB futures fall on machinery orders, BOJ rate view'
p251
sa(dp252
g2
S'http://www.reuters.com/article/companyNewsAndPR/idUST26926520070115'
p253
sg4
S'20070114\xc2\xa007:07 PM EST'
p254
sg6
S'Nikkei rises following Wall St, softer yen'
p255
sa(dp256
g2
S'http://www.reuters.com/article/sportsNews/idUSN1436441820070114'
p257
sg4
S'20070114\xc2\xa006:59 PM EST'
p258
sg6
S'Bears beat Seahawks in overtime thriller'
p259
sa(dp260
g2
S'http://www.reuters.com/article/worldNews/idUSL0986763720070114'
p261
sg4
S'20070114\xc2\xa006:57 PM EST'
p262
sg6
S'Poland broadcasts "truth" to Belarus'
p263
sa(dp264
g2
S'http://www.reuters.com/article/inDepthNews/idUSN1225176820070114'
p265
sg4
S'20070114\xc2\xa006:50 PM EST'
p266
sg6
S'In New England, questions swirl over mild winter'
p267
sa(dp268
g2
S'http://www.reuters.com/article/scienceNews/idUSN0841982720070114'
p269
sg4
S'20070114\xc2\xa006:48 PM EST'
p270
sg6
S'Dinosaurs, humans coexist in U.S. creation museum'
p271
sa(dp272
g2
S'http://www.reuters.com/article/companyNewsAndPR/idUST16097120070114'
p273
sg4
S'20070114\xc2\xa006:45 PM EST'
p274
sg6
S'Foreign brokers place net Japan stock buy orders'
p275
sa(dp276
g2
S'http://www.reuters.com/article/companyNewsAndPR/idUSL1416697920070114'
p277
sg4
S'20070114\xc2\xa006:41 PM EST'
p278
sg6
S"Aiello appointed CEO of News Corp's Star unit"
p279
sa(dp280
g2
S'http://www.reuters.com/article/ousiv/idUSSYD20128120070114'
p281
sg4
S'20070114\xc2\xa006:30 PM EST'
p282
sg6
S'Yarraman says still committed to Evans & Tate deal'
p283
sa(dp284
g2
S'http://www.reuters.com/article/ousiv/idUSN1026780920070114'
p285
sg4
S'20070114\xc2\xa006:30 PM EST'
p286
sg6
S'Small trial stirs hope for chronic fatigue patients'
p287
sa(dp288
g2
S'http://www.reuters.com/article/ousiv/idUSL1461669520070114'
p289
sg4
S'20070114\xc2\xa006:30 PM EST'
p290
sg6
S"Airbus' market share fell in 2006: newspaper"
p291
sa(dp292
g2
S'http://www.reuters.com/article/musicNews/idUSN1435493220070114'
p293
sg4
S'20070114\xc2\xa006:18 PM EST'
p294
sg6
S'V2 fires staff, splits with White Stripes, Moby'
p295
sa(dp296
g2
S'http://www.reuters.com/article/musicNews/idUSN1432939920070114'
p297
sg4
S'20070114\xc2\xa006:18 PM EST'
p298
sg6
S'Australian boy band dancing in the charts'
p299
sa(dp300
g2
S'http://www.reuters.com/article/musicNews/idUSN1432935220070114'
p301
sg4
S'20070114\xc2\xa006:18 PM EST'
p302
sg6
S'Urban music risks more mediocrity in 2007'
p303
sa(dp304
g2
S'http://www.reuters.com/article/musicNews/idUSN1334022720070114'
p305
sg4
S'20070114\xc2\xa006:18 PM EST'
p306
sg6
S'Catching up on some (almost) new classical gems'
p307
sa(dp308
g2
S'http://www.reuters.com/article/musicNews/idUSN1326692720070114'
p309
sg4
S'20070114\xc2\xa006:18 PM EST'
p310
sg6
S'Christian bands reach great heights'
p311
sa(dp312
g2
S'http://www.reuters.com/article/musicNews/idUSN1232949020070114'
p313
sg4
S'20070114\xc2\xa006:18 PM EST'
p314
sg6
S'New Dylan track appears on movie soundtrack'
p315
sa(dp316
g2
S'http://www.reuters.com/article/companyNewsAndPR/idUST28474220070114'
p317
sg4
S'20070114\xc2\xa006:18 PM EST'
p318
sg6
S'Tokyo stocks seen taking cue from machinery orders'
p319
sa(dp320
g2
S'http://www.reuters.com/article/musicNews/idUSN1228044720070114'
p321
sg4
S'20070114\xc2\xa006:16 PM EST'
p322
sg6
S"Video games, rock'n'roll find common ground"
p323
sa(dp324
g2
S'http://www.reuters.com/article/musicNews/idUSN1232920820070114'
p325
sg4
S'20070114\xc2\xa006:07 PM EST'
p326
sg6
S'Lenny Kaye an unfortunate hall of fame omission'
p327
sa(dp328
g2
S'http://www.reuters.com/article/entertainmentNews/idUSN1432940720070114'
p329
sg4
S'20070114\xc2\xa006:05 PM EST'
p330
sg6
S'Roots label Shanachie ventures into country music'
p331
sa(dp332
g2
S'http://www.reuters.com/article/companyNewsAndPR/idUSL1137801220070114'
p333
sg4
S'20070114\xc2\xa006:04 PM EST'
p334
sg6
S'FEATURE-No business in snow business for low Swiss resorts'
p335
sa(dp336
g2
S'http://www.reuters.com/article/companyNewsAndPR/idUST17001420070114'
p337
sg4
S'20070114\xc2\xa006:00 PM EST'
p338
sg6
S'RPT-PREVIEW-BOJ leaning towards raising rates but doubts remain'
p339
sa(dp340
g2
S'http://www.reuters.com/article/worldNews/idUSL131459520070114'
p341
sg4
S'20070114\xc2\xa005:53 PM EST'
p342
sg6
S'Rice tells Abbas U.S. will expand peace drive'
p343
sa(dp344
g2
S'http://www.reuters.com/article/ousiv/idUSN1436793020070114'
p345
sg4
S'20070114\xc2\xa005:47 PM EST'
p346
sg6
S'Circuit City to open new prototype store:exec'
p347
sa(dp348
g2
S'http://www.reuters.com/article/newsOne/idUSL1414739220070114'
p349
sg4
S'20070114\xc2\xa005:39 PM EST'
p350
sg6
S'Pentagon chief discusses Iraq, Afghan wars in UK'
p351
sa(dp352
g2
S'http://www.reuters.com/article/worldNews/idUSL1491074120070114'
p353
sg4
S'20070114\xc2\xa005:36 PM EST'
p354
sg6
S'Egypt finds explosives cache in Sinai peninsula'
p355
sa(dp356
g2
S'http://www.reuters.com/article/worldNews/idUSMAN22898520070114'
p357
sg4
S'20070114\xc2\xa005:34 PM EST'
p358
sg6
S'Asian leaders to wind up summit with energy pact'
p359
sa(dp360
g2
S'http://www.reuters.com/article/worldNews/idUSMAN20816020070114'
p361
sg4
S'20070114\xc2\xa005:33 PM EST'
p362
sg6
S'Singapore sees ASEAN signing charter year from now'
p363
sa(dp364
g2
S'http://www.reuters.com/article/worldNews/idUSMAN19627720070114'
p365
sg4
S'20070114\xc2\xa005:33 PM EST'
p366
sg6
S'FACTBOX-Key facts about ASEAN'
p367
sa(dp368
g2
S'http://www.reuters.com/article/worldNews/idUSMAN19610420070114'
p369
sg4
S'20070114\xc2\xa005:33 PM EST'
p370
sg6
S'ASEAN, China agree to cut barriers to services'
p371
sa(dp372
g2
S'http://www.reuters.com/article/worldNews/idUSMAN00002320070114'
p373
sg4
S'20070114\xc2\xa005:33 PM EST'
p374
sg6
S"China's Wen plans to visit Japan early or mid-April"
p375
sa(dp376
g2
S'http://www.reuters.com/article/worldNews/idUSL1411552120070114'
p377
sg4
S'20070114\xc2\xa005:33 PM EST'
p378
sg6
S'Japan, China, South Korea agree to build trust'
p379
sa(dp380
g2
S'http://www.reuters.com/article/latestCrisis/idUSL14910741'
p381
sg4
S'20070114\xc2\xa005:33 PM EST'
p382
sg6
S'Egypt finds explosives cache in Sinai peninsula'
p383
sa(dp384
g2
S'http://www.reuters.com/article/latestCrisis/idUSSP212055'
p385
sg4
S'20070114\xc2\xa005:29 PM EST'
p386
sg6
S'Asian leaders to wind up summit with energy pact'
p387
sa(dp388
g2
S'http://www.reuters.com/article/businessNews/idUSL1412562420070114'
p389
sg4
S'20070114\xc2\xa005:26 PM EST'
p390
sg6
S'Iran says no decision yet on OPEC meeting'
p391
sa(dp392
g2
S'http://www.reuters.com/article/televisionNews/idUSN1220112620070114'
p393
sg4
S'20070114\xc2\xa005:25 PM EST'
p394
sg6
S'Movie veterans set for Golden Globe honors'
p395
sa(dp396
g2
S'http://www.reuters.com/article/televisionNews/idUSN1218229920070114'
p397
sg4
S'20070114\xc2\xa005:25 PM EST'
p398
sg6
S'A&E; has hit on its hands with "Sopranos"'
p399
sa(dp400
g2
S'http://www.reuters.com/article/televisionNews/idUSN1120502820070114'
p401
sg4
S'20070114\xc2\xa005:25 PM EST'
p402
sg6
S'Bush Iraq speech draws 42.5 million viewers'
p403
sa(dp404
g2
S'http://www.reuters.com/article/televisionNews/idUSN1117682320070114'
p405
sg4
S'20070114\xc2\xa005:25 PM EST'
p406
sg6
S'Kirstie Alley washed up in Lifetime comedy'
p407
sa(dp408
g2
S'http://www.reuters.com/article/televisionNews/idUSN1039024520070114'
p409
sg4
S'20070114\xc2\xa005:25 PM EST'
p410
sg6
S'Light-hearted Canadian look at Muslims a TV hit'
p411
sa(dp412
g2
S'http://www.reuters.com/article/televisionNews/idUSDEL23490620070114'
p413
sg4
S'20070114\xc2\xa005:25 PM EST'
p414
sg6
S'Pole-dancing "Gandhi" video a disgrace, says India'
p415
sa(dp416
g2
S'http://www.reuters.com/article/televisionNews/idUSN1234304420070114'
p417
sg4
S'20070114\xc2\xa005:25 PM EST'
p418
sg6
S"TV review: Disney Channel's Jump In!"
p419
sa(dp420
g2
S'http://www.reuters.com/article/televisionNews/idUSN1232963220070114'
p421
sg4
S'20070114\xc2\xa005:25 PM EST'
p422
sg6
S'"Grey\'s" wins Thursday for ABC; "Armed" misfires'
p423
sa(dp424
g2
S'http://www.reuters.com/article/televisionNews/idUSN1232949220070114'
p425
sg4
S'20070114\xc2\xa005:25 PM EST'
p426
sg6
S'American Idol extends talent search to songwriters'
p427
sa(dp428
g2
S'http://www.reuters.com/article/peopleNews/idUSL1286899520070114'
p429
sg4
S'20070114\xc2\xa005:25 PM EST'
p430
sg6
S'British ballerina dances into political storm'
p431
sa(dp432
g2
S'http://www.reuters.com/article/peopleNews/idUSL1200240420070114'
p433
sg4
S'20070114\xc2\xa005:25 PM EST'
p434
sg6
S'Beckham agreed Los Angeles move after advice from Cruise'
p435
sa(dp436
g2
S'http://www.reuters.com/article/peopleNews/idUSN1219041820070114'
p437
sg4
S'20070114\xc2\xa005:25 PM EST'
p438
sg6
S"Video of Steve Irwin's death destroyed: widow"
p439
sa(dp440
g2
S'http://www.reuters.com/article/peopleNews/idUSN1218668320070114'
p441
sg4
S'20070114\xc2\xa005:25 PM EST'
p442
sg6
S'Madonna urges more people to adopt from Africa'
p443
sa(dp444
g2
S'http://www.reuters.com/article/peopleNews/idUSN1145430020070114'
p445
sg4
S'20070114\xc2\xa005:25 PM EST'
p446
sg6
S'Beckhams to add spice to tired Hollywood scene'
p447
sa(dp448
g2
S'http://www.reuters.com/article/peopleNews/idUSN1116239020070114'
p449
sg4
S'20070114\xc2\xa005:25 PM EST'
p450
sg6
S'Timberlake, Diaz call it quits'
p451
sa(dp452
g2
S'http://www.reuters.com/article/peopleNews/idUSN1030074520070114'
p453
sg4
S'20070114\xc2\xa005:25 PM EST'
p454
sg6
S'Graham Nash sings joys of his digital photo business'
p455
sa(dp456
g2
S'http://www.reuters.com/article/entertainmentNews/idUSN1412608420070114'
p457
sg4
S'20070114\xc2\xa005:24 PM EST'
p458
sg6
S'"Idol" winner Underwood reflects on a big year'
p459
sa(dp460
g2
S'http://www.reuters.com/article/sportsNews/idUSL1416320520070114'
p461
sg4
S'20070114\xc2\xa005:00 PM EST'
p462
sg6
S'Bears beat Seahawks in overtime'
p463
sa(dp464
g2
S'http://www.reuters.com/article/worldNews/idUSN1436694320070114'
p465
sg4
S'20070114\xc2\xa004:58 PM EST'
p466
sg6
S'Iran, Nicaragua leaders tour slums, share goals'
p467
sa(dp468
g2
S'http://www.reuters.com/article/musicNews/idUSN1230203320070114'
p469
sg4
S'20070114\xc2\xa004:44 PM EST'
p470
sg6
S'Singer Paula Abdul cancels interviews after video'
p471
sa(dp472
g2
S'http://www.reuters.com/article/entertainmentNews/idUSN1432737420070114'
p473
sg4
S'20070114\xc2\xa004:43 PM EST'
p474
sg6
S'Jazz pianist Alice Coltrane dies in Calif'
p475
sa(dp476
g2
S'http://www.reuters.com/article/filmNews/idUSN1221128420070114'
p477
sg4
S'20070114\xc2\xa004:39 PM EST'
p478
sg6
S'Bollywood\'s "Guru" makes its premiere in Toronto'
p479
sa(dp480
g2
S'http://www.reuters.com/article/filmNews/idUSN1217724320070114'
p481
sg4
S'20070114\xc2\xa004:39 PM EST'
p482
sg6
S'Warren Beatty "enthralled" by TiVo, less by Arnold'
p483
sa(dp484
g2
S'http://www.reuters.com/article/industryNews/idUSN1212436320070114'
p485
sg4
S'20070114\xc2\xa004:39 PM EST'
p486
sg6
S'Elektra Records founder still scouting new talent'
p487
sa(dp488
g2
S'http://www.reuters.com/article/industryNews/idUSN1148298520070114'
p489
sg4
S'20070114\xc2\xa004:39 PM EST'
p490
sg6
S'MTV president resigns in latest Viacom shake-up'
p491
sa(dp492
g2
S'http://www.reuters.com/article/industryNews/idUSN1118178020070114'
p493
sg4
S'20070114\xc2\xa004:39 PM EST'
p494
sg6
S'Two EMI bosses face the music after profit warning'
p495
sa(dp496
g2
S'http://www.reuters.com/article/filmNews/idUSL1283705220070114'
p497
sg4
S'20070114\xc2\xa004:39 PM EST'
p498
sg6
S"Mali film puts West's blueprint for Africa on trial"
p499
sa(dp500
g2
S'http://www.reuters.com/article/filmNews/idUSL1257798820070114'
p501
sg4
S'20070114\xc2\xa004:39 PM EST'
p502
sg6
S'"The Queen" takes on Bond at British film awards'
p503
sa(dp504
g2
S'http://www.reuters.com/article/industryNews/idUSN1C48347020070114'
p505
sg4
S'20070114\xc2\xa004:39 PM EST'
p506
sg6
S'Stock of satellite radio providers XM, Sirius up'
p507
sa(dp508
g2
S'http://www.reuters.com/article/filmNews/idUSN1334101920070114'
p509
sg4
S'20070114\xc2\xa004:39 PM EST'
p510
sg6
S"Scorsese wins major critic group's awards"
p511
sa(dp512
g2
S'http://www.reuters.com/article/industryNews/idUSN126278220070114'
p513
sg4
S'20070114\xc2\xa004:39 PM EST'
p514
sg6
S'Buzz in the air as Hollywood awards season debuts'
p515
sa(dp516
g2
S'http://www.reuters.com/article/industryNews/idUSN1230714420070114'
p517
sg4
S'20070114\xc2\xa004:39 PM EST'
p518
sg6
S'Grand Ole Opry music show hit by age bias lawsuit'
p519
sa(dp520
g2
S'http://www.reuters.com/article/entertainmentNews/idUSN1217747320070114'
p521
sg4
S'20070114\xc2\xa004:38 PM EST'
p522
sg6
S'"Stomp" steals show at North America box office'
p523
sa(dp524
g2
S'http://www.reuters.com/article/ousiv/idUSN1341347920070114'
p525
sg4
S'20070114\xc2\xa004:37 PM EST'
p526
sg6
S'Bernanke to testify before Congress in February :WSJ'
p527
sa(dp528
g2
S'http://www.reuters.com/article/newsOne/idUSN0919146820070114'
p529
sg4
S'20070114\xc2\xa004:24 PM EST'
p530
sg6
S'Cheney: U.S. must show "stomach" to win in Iraq'
p531
sa(dp532
g2
S'http://www.reuters.com/article/companyNewsAndPR/idUSN1448170320070114'
p533
sg4
S'20070114\xc2\xa004:24 PM EST'
p534
sg6
S"UPDATE 1-'Stomp' steals show at North America box office"
p535
sa(dp536
g2
S'http://www.reuters.com/article/latestCrisis/idUSN14343594'
p537
sg4
S'20070114\xc2\xa004:23 PM EST'
p538
sg6
S"Cheney: U.S. must show 'stomach' to win in Iraq"
p539
sa(dp540
g2
S'http://www.reuters.com/article/entertainmentNews/idUSN1220972020070114'
p541
sg4
S'20070114\xc2\xa004:14 PM EST'
p542
sg6
S'"Borat, "The Queen," odd couple at Golden Globes'
p543
sa(dp544
g2
S'http://www.reuters.com/article/worldNews/idUSMAC63887820070114'
p545
sg4
S'20070114\xc2\xa003:59 PM EST'
p546
sg6
S'U.S. accuses Iran over officials seized in Iraq'
p547
sa(dp548
g2
S'http://www.reuters.com/article/newsOne/idUSBLA46652920070114'
p549
sg4
S'20070114\xc2\xa003:54 PM EST'
p550
sg6
S'Iran Guard says U.S., Britain, Israel "axis of evil"'
p551
sa(dp552
g2
S'http://www.reuters.com/article/newsOne/idUSN1434909620070114'
p553
sg4
S'20070114\xc2\xa003:47 PM EST'
p554
sg6
S'Iran, Nicaragua leaders tour slums, share goals'
p555
sa(dp556
g2
S'http://www.reuters.com/article/worldNews/idUSL1413271020070114'
p557
sg4
S'20070114\xc2\xa003:38 PM EST'
p558
sg6
S"Jordan's king urges Rice to push peace process"
p559
sa(dp560
g2
S'http://www.reuters.com/article/latestCrisis/idUS14094954'
p561
sg4
S'20070114\xc2\xa003:36 PM EST'
p562
sg6
S"Jordan's king urges Rice to push peace process"
p563
sa(dp564
g2
S'http://www.reuters.com/article/homepageCrisis/idUSL1498896._CH_.2400'
p565
sg4
S'20070114\xc2\xa003:31 PM EST'
p566
sg6
S'Rice tells Abbas U.S. will expand peace drive'
p567
sa(dp568
g2
S'http://www.reuters.com/article/latestCrisis/idUSL1498896'
p569
sg4
S'20070114\xc2\xa003:31 PM EST'
p570
sg6
S'Rice tells Abbas U.S. will expand peace drive'
p571
sa(dp572
g2
S'http://www.reuters.com/article/worldNews/idUSDEL21449020070114'
p573
sg4
S'20070114\xc2\xa003:27 PM EST'
p574
sg6
S'Nepal parliament to approve interim constitution'
p575
sa(dp576
g2
S'http://www.reuters.com/article/sportsNews/idUSL1463490420070114'
p577
sg4
S'20070114\xc2\xa003:22 PM EST'
p578
sg6
S'Cardinals appoint Whisenhunt as new head coach'
p579
sa(dp580
g2
S'http://www.reuters.com/article/peopleNews/idUSN1114912020070114'
p581
sg4
S'20070114\xc2\xa003:21 PM EST'
p582
sg6
S"Wynn sues Lloyd's for $54 mln over damaged Picasso"
p583
sa(dp584
g2
S'http://www.reuters.com/article/entertainmentNews/idUSL1410221720070114'
p585
sg4
S'20070114\xc2\xa003:20 PM EST'
p586
sg6
S'Kylie cancels shows due to bad cold'
p587
sa(dp588
g2
S'http://www.reuters.com/article/worldNews/idUSL1456599420070114'
p589
sg4
S'20070114\xc2\xa003:11 PM EST'
p590
sg6
S"Iraq's Talabani visits Assad seeking closer ties"
p591
sa(dp592
g2
S'http://www.reuters.com/article/worldNews/idUSIBO45824320070114'
p593
sg4
S'20070114\xc2\xa003:11 PM EST'
p594
sg6
S'Iraq treads "thin line" between U.S. and neighbors'
p595
sa(dp596
g2
S'http://www.reuters.com/article/homepageCrisis/idUSDEL214490._CH_.2400'
p597
sg4
S'20070114\xc2\xa003:05 PM EST'
p598
sg6
S'Nepal parliament to approve interim constitution'
p599
sa(dp600
g2
S'http://www.reuters.com/article/latestCrisis/idUSDEL214490'
p601
sg4
S'20070114\xc2\xa003:05 PM EST'
p602
sg6
S'Nepal parliament to approve interim constitution'
p603
sa(dp604
g2
S'http://www.reuters.com/article/worldNews/idUSL1415749620070114'
p605
sg4
S'20070114\xc2\xa002:50 PM EST'
p606
sg6
S'Egypt releases Al Jazeera reporter on bail-sources'
p607
sa(dp608
g2
S'http://www.reuters.com/article/entertainmentNews/idUSN1528321320070114'
p609
sg4
S'20070114\xc2\xa002:36 PM EST'
p610
sg6
S'Top movies at the North American box office'
p611
sa(dp612
g2
S'http://www.reuters.com/article/newsOne/idUSN1436378220070114'
p613
sg4
S'20070114\xc2\xa002:18 PM EST'
p614
sg6
S'U.S. denies British rumors on Bush climate change'
p615
sa(dp616
g2
S'http://www.reuters.com/article/latestCrisis/idUSL14373440'
p617
sg4
S'20070114\xc2\xa002:14 PM EST'
p618
sg6
S"Iraq's Talabani visits Assad seeking closer ties"
p619
sa(dp620
g2
S'http://www.reuters.com/article/worldNews/idUSL1413629720070114'
p621
sg4
S'20070114\xc2\xa002:13 PM EST'
p622
sg6
S'Ivorian police ditch uniforms to stem child traffic'
p623
sa(dp624
g2
S'http://www.reuters.com/article/topNews/idUSN1226832120070114'
p625
sg4
S'20070114\xc2\xa002:09 PM EST'
p626
sg6
S"New gene linked to Alzheimer's identified"
p627
sa(dp628
g2
S'http://www.reuters.com/article/topNews/idUSN1436045620070114'
p629
sg4
S'20070114\xc2\xa002:08 PM EST'
p630
sg6
S"Fidel Castro's son says father is getting better"
p631
sa(dp632
g2
S'http://www.reuters.com/article/newsOne/idUSN1428994720070114'
p633
sg4
S'20070114\xc2\xa002:04 PM EST'
p634
sg6
S'Cover-up is focus of CIA leak trial'
p635
sa(dp636
g2
S'http://www.reuters.com/article/worldNews/idUSL148600320070114'
p637
sg4
S'20070114\xc2\xa002:01 PM EST'
p638
sg6
S"France's Sarkozy wins backing for presidential bid"
p639
sa(dp640
g2
S'http://www.reuters.com/article/ousiv/idUSSEO6605520070114'
p641
sg4
S'20070114\xc2\xa001:59 PM EST'
p642
sg6
S'Hyundai Eng eyes $3 bln overseas orders in 2007'
p643
sa(dp644
g2
S'http://www.reuters.com/article/ousiv/idUSN1442176620070114'
p645
sg4
S'20070114\xc2\xa001:59 PM EST'
p646
sg6
S'Honduras temporarily grabs Exxon, Chevron terminals'
p647
sa(dp648
g2
S'http://www.reuters.com/article/ousiv/idUSN1436397320070114'
p649
sg4
S'20070114\xc2\xa001:59 PM EST'
p650
sg6
S"Kimberly Clark may be buyout target: Barron's"
p651
sa(dp652
g2
S'http://www.reuters.com/article/ousiv/idUSN1248157420070114'
p653
sg4
S'20070114\xc2\xa001:59 PM EST'
p654
sg6
S'Troubled waters for industry as key season opens'
p655
sa(dp656
g2
S'http://www.reuters.com/article/entertainmentNews/idUSL1413475520070114'
p657
sg4
S'20070114\xc2\xa001:52 PM EST'
p658
sg6
S'Dolce & Gabbana out of this world with space glamour'
p659
sa(dp660
g2
S'http://www.reuters.com/article/latestCrisis/idUSN14492510'
p661
sg4
S'20070114\xc2\xa001:33 PM EST'
p662
sg6
S'PREVIEW-Cover-up is focus of CIA leak trial'
p663
sa(dp664
g2
S'http://www.reuters.com/article/companyNewsAndPR/idUSN1332891620070114'
p665
sg4
S'20070114\xc2\xa001:28 PM EST'
p666
sg6
S"'Stomp' steals the show at N. America box office"
p667
sa(dp668
g2
S'http://www.reuters.com/article/latestCrisis/idUSN14328925'
p669
sg4
S'20070114\xc2\xa001:28 PM EST'
p670
sg6
S'Peru leader seeks constitution change on execution'
p671
sa(dp672
g2
S'http://www.reuters.com/article/newsOne/idUSN1434062020070114'
p673
sg4
S'20070114\xc2\xa001:26 PM EST'
p674
sg6
S'Latin leftists display anti-U.S. front in Ecuador'
p675
sa(dp676
g2
S'http://www.reuters.com/article/companyNewsAndPR/idUSN1436396620070114'
p677
sg4
S'20070114\xc2\xa001:26 PM EST'
p678
sg6
S"TV broadcasting stocks look undervalued-Barron's"
p679
sa(dp680
g2
S'http://www.reuters.com/article/worldNews/idUSL1414619020070114'
p681
sg4
S'20070114\xc2\xa001:18 PM EST'
p682
sg6
S'Talk of Israeli strike in Iran shows risks: Rice'
p683
sa(dp684
g2
S'http://www.reuters.com/article/latestCrisis/idUSL14146190'
p685
sg4
S'20070114\xc2\xa001:12 PM EST'
p686
sg6
S'Talk of Israeli strike in Iran shows risks-Rice'
p687
sa(dp688
g2
S'http://www.reuters.com/article/worldNews/idUSL1414678320070114'
p689
sg4
S'20070114\xc2\xa001:06 PM EST'
p690
sg6
S'Russia to send detectives to UK in spy murder probe'
p691
sa(dp692
g2
S'http://www.reuters.com/article/worldNews/idUSIBO43156420070114'
p693
sg4
S'20070114\xc2\xa001:02 PM EST'
p694
sg6
S'FACTBOX: Security developments in Iraq, Jan 14'
p695
sa(dp696
g2
S'http://www.reuters.com/article/latestCrisis/idUSL14153311'
p697
sg4
S'20070114\xc2\xa001:01 PM EST'
p698
sg6
S'Guinea frees activists ahead of banned protest'
p699
sa(dp700
g2
S'http://www.reuters.com/article/ousiv/idUSN1228040320070114'
p701
sg4
S'20070114\xc2\xa012:58 PM EST'
p702
sg6
S'Picky about wine? Try making your own'
p703
sa(dp704
g2
S'http://www.reuters.com/article/latestCrisis/idUSL14114286'
p705
sg4
S'20070114\xc2\xa012:51 PM EST'
p706
sg6
S'FACTBOX-Security developments in Iraq, Jan 14'
p707
sa(dp708
g2
S'http://www.reuters.com/article/worldNews/idUSL1414393020070114'
p709
sg4
S'20070114\xc2\xa012:48 PM EST'
p710
sg6
S'Liberia\'s "Iron Lady" ends first year on a high'
p711
sa(dp712
g2
S'http://www.reuters.com/article/sportsNews/idUSL14469541320070114'
p713
sg4
S'20070114\xc2\xa012:45 PM EST'
p714
sg6
S'Americans celebrate and despair in World Cup'
p715
sa(dp716
g2
S'http://www.reuters.com/article/sportsNews/idUSL1413323920070114'
p717
sg4
S'20070114\xc2\xa012:45 PM EST'
p718
sg6
S'Mancuso leads American one-two'
p719
sa(dp720
g2
S'http://www.reuters.com/article/latestCrisis/idUSL14146783'
p721
sg4
S'20070114\xc2\xa012:41 PM EST'
p722
sg6
S'Russia to send detectives to UK in spy murder probe'
p723
sa(dp724
g2
S'http://www.reuters.com/article/companyNewsAndPR/idUSN1436454520070114'
p725
sg4
S'20070114\xc2\xa012:34 PM EST'
p726
sg6
S"Xerox shares may rise another 25 pct-Barron's"
p727
sa(dp728
g2
S'http://www.reuters.com/article/latestCrisis/idUSL14565994'
p729
sg4
S'20070114\xc2\xa012:31 PM EST'
p730
sg6
S"Iraq's Talabani visits Assad seeking closer ties"
p731
sa(dp732
g2
S'http://www.reuters.com/article/newsOne/idUSN1436290420070114'
p733
sg4
S'20070114\xc2\xa012:28 PM EST'
p734
sg6
S'Oklahoma car crash kills 7 Mexicans'
p735
sa(dp736
g2
S'http://www.reuters.com/article/worldNews/idUSN1428098120070114'
p737
sg4
S'20070114\xc2\xa012:22 PM EST'
p738
sg6
S'Cheney: U.S. must show "stomach" to win in Iraq'
p739
sa(dp740
g2
S'http://www.reuters.com/article/newsOne/idUSISL19970420070114'
p741
sg4
S'20070114\xc2\xa012:16 PM EST'
p742
sg6
S'Hillary Clinton meets Afghan, Pakistani leaders'
p743
sa(dp744
g2
S'http://www.reuters.com/article/latestCrisis/idUSL14143930'
p745
sg4
S'20070114\xc2\xa012:14 PM EST'
p746
sg6
S'Liberia\'s "Iron Lady" ends first year on a high'
p747
sa(dp748
g2
S'http://www.reuters.com/article/businessNews/idUSN1238341420070114'
p749
sg4
S'20070114\xc2\xa012:10 PM EST'
p750
sg6
S'Stocks focus on earnings, inflation'
p751
sa(dp752
g2
S'http://www.reuters.com/article/latestCrisis/idUSL14149013'
p753
sg4
S'20070114\xc2\xa012:07 PM EST'
p754
sg6
S'Hillary Clinton meets Afghan, Pakistani leaders'
p755
sa(dp756
g2
S'http://www.reuters.com/article/latestCrisis/idUSL14132710'
p757
sg4
S'20070114\xc2\xa012:07 PM EST'
p758
sg6
S"Jordan's King Abdullah seeks bigger U.S. peace push"
p759
sa(dp760
g2
S'http://www.reuters.com/article/companyNewsAndPR/idUSN1436441620070114'
p761
sg4
S'20070114\xc2\xa012:06 PM EST'
p762
sg6
S'RPT-Bay Street Week Ahead: Not all doom and gloom on TSX'
p763
sa(dp764
g2
S'http://www.reuters.com/article/latestCrisis/idUSN14280981'
p765
sg4
S'20070114\xc2\xa012:03 PM EST'
p766
sg6
S"Cheney: U.S. must show 'stomach' to win in Iraq"
p767
sa(dp768
g2
S'http://www.reuters.com/article/ousiv/idUSN1225902020070114'
p769
sg4
S'20070114\xc2\xa012:01 PM EST'
p770
sg6
S"Disney's Iger earned $17 million in 2006"
p771
sa(dp772
g2
S'http://www.reuters.com/article/latestCrisis/idUSN14362904'
p773
sg4
S'20070114\xc2\xa011:59 AM EST'
p774
sg6
S'Oklahoma car crash kills 7 Mexicans'
p775
sa(dp776
g2
S'http://www.reuters.com/article/worldNews/idUSL1413661420070114'
p777
sg4
S'20070114\xc2\xa011:57 AM EST'
p778
sg6
S'Baghdad families imprisoned, divided by fear'
p779
sa(dp780
g2
S'http://www.reuters.com/article/companyNewsAndPR/idUSN1436368720070114'
p781
sg4
S'20070114\xc2\xa011:47 AM EST'
p782
sg6
S"YRC Worldwide shares could reach $60-Barron's"
p783
sa(dp784
g2
S'http://www.reuters.com/article/entertainmentNews/idUSL1412892420070114'
p785
sg4
S'20070114\xc2\xa011:46 AM EST'
p786
sg6
S'Scissor Sisters\' Shears ready to "get high"'
p787
sa(dp788
g2
S'http://www.reuters.com/article/newsOne/idUSL1289225520070114'
p789
sg4
S'20070114\xc2\xa011:35 AM EST'
p790
sg6
S'AU in Somalia to plan peace force'
p791
sa(dp792
g2
S'http://www.reuters.com/article/worldNews/idUSN1435632820070114'
p793
sg4
S'20070114\xc2\xa011:32 AM EST'
p794
sg6
S"Special police head for Brazil's crime-hit Rio"
p795
sa(dp796
g2
S'http://www.reuters.com/article/worldNews/idUSRAS44533220070114'
p797
sg4
S'20070114\xc2\xa011:25 AM EST'
p798
sg6
S'Iraq says rebels make $1 billion a year from refinery'
p799
sa(dp800
g2
S'http://www.reuters.com/article/worldNews/idUSMAC44864820070114'
p801
sg4
S'20070114\xc2\xa011:25 AM EST'
p802
sg6
S'Baghdad morgue took 16,000 bodies in 2006'
p803
sa(dp804
g2
S'http://www.reuters.com/article/homepageCrisis/idUSL1448716._CH_.2400'
p805
sg4
S'20070114\xc2\xa011:03 AM EST'
p806
sg6
S'AU in Somalia to plan peace force, govt hunts arms'
p807
sa(dp808
g2
S'http://www.reuters.com/article/latestCrisis/idUSL1448716'
p809
sg4
S'20070114\xc2\xa011:03 AM EST'
p810
sg6
S'AU in Somalia to plan peace force, govt hunts arms'
p811
sa(dp812
g2
S'http://www.reuters.com/article/latestCrisis/idUSRAS445332'
p813
sg4
S'20070114\xc2\xa010:59 AM EST'
p814
sg6
S'Iraqi rebels make $1 bln/yr from refinery-govt'
p815
sa(dp816
g2
S'http://www.reuters.com/article/latestCrisis/idUSN14356328'
p817
sg4
S'20070114\xc2\xa010:59 AM EST'
p818
sg6
S"Special police head for Brazil's crime-hit Rio"
p819
sa(dp820
g2
S'http://www.reuters.com/article/filmNews/idUSN1145105120070114'
p821
sg4
S'20070114\xc2\xa010:56 AM EST'
p822
sg6
S'"Borat" nominated for Writers Guild award'
p823
sa(dp824
g2
S'http://www.reuters.com/article/entertainmentNews/idUSL1420307520070114'
p825
sg4
S'20070114\xc2\xa010:56 AM EST'
p826
sg6
S'French cinema fans flock to look behind the cameras'
p827
sa(dp828
g2
S'http://www.reuters.com/article/companyNewsAndPR/idUSN1431633220070114'
p829
sg4
S'20070114\xc2\xa010:55 AM EST'
p830
sg6
S'RPR-Wall St Week Ahead: Stocks focus on earnings, inflation'
p831
sa(dp832
g2
S'http://www.reuters.com/article/worldNews/idUSL1413543720070114'
p833
sg4
S'20070114\xc2\xa010:50 AM EST'
p834
sg6
S'Italy rejects Berlusconi\'s "anti-US" jibe'
p835
sa(dp836
g2
S'http://www.reuters.com/article/latestCrisis/idUSL14136614'
p837
sg4
S'20070114\xc2\xa010:47 AM EST'
p838
sg6
S'FEATURE-Baghdad families imprisoned, divided by fear'
p839
sa(dp840
g2
S'http://www.reuters.com/article/latestCrisis/idUSL14136297'
p841
sg4
S'20070114\xc2\xa010:44 AM EST'
p842
sg6
S'Ivorian police ditch uniforms to stem child traffic'
p843
sa(dp844
g2
S'http://www.reuters.com/article/companyNewsAndPR/idUSN1431951220070114'
p845
sg4
S'20070114\xc2\xa010:41 AM EST'
p846
sg6
S'RPT-IPO VIEW-Lofty heights expected of IPO from AeroVironment'
p847
sa(dp848
g2
S'http://www.reuters.com/article/companyNewsAndPR/idUSN1436089320070114'
p849
sg4
S'20070114\xc2\xa010:25 AM EST'
p850
sg6
S'Argentina offers to pay Paris Club by 2017-report'
p851
sa(dp852
g2
S'http://www.reuters.com/article/inDepthNews/idUSN0817694120070114'
p853
sg4
S'20070114\xc2\xa010:08 AM EST'
p854
sg6
S'New Orleans struggles to keep its black character'
p855
sa(dp856
g2
S'http://www.reuters.com/article/latestCrisis/idUSN08176941'
p857
sg4
S'20070114\xc2\xa010:00 AM EST'
p858
sg6
S'FEATURE-New Orleans struggles to keep its black character'
p859
sa(dp860
g2
S'http://www.reuters.com/article/sportsNews/idUSL1412977720070114'
p861
sg4
S'20070114\xc2\xa009:57 AM EST'
p862
sg6
S"Mancuso wins women's super-combined event"
p863
sa(dp864
g2
S'http://www.reuters.com/article/newsOne/idUSL1412661720070114'
p865
sg4
S'20070114\xc2\xa009:53 AM EST'
p866
sg6
S'Kenya seeks African support for Somali peacekeepers'
p867
sa(dp868
g2
S'http://www.reuters.com/article/latestCrisis/idUSN14256138'
p869
sg4
S'20070114\xc2\xa009:51 AM EST'
p870
sg6
S'Rescuers search for seven in Brazil tunnel collapse'
p871
sa(dp872
g2
S'http://www.reuters.com/article/latestCrisis/idUSMAC448648'
p873
sg4
S'20070114\xc2\xa009:46 AM EST'
p874
sg6
S'Baghdad morgue took 16,000 bodies in 2006'
p875
sa(dp876
g2
S'http://www.reuters.com/article/latestCrisis/idUSL14128435'
p877
sg4
S'20070114\xc2\xa009:41 AM EST'
p878
sg6
S'Kurdish rebel killed in clash in SE Turkey-agency'
p879
sa(dp880
g2
S'http://www.reuters.com/article/worldNews/idUSL1285013420070114'
p881
sg4
S'20070114\xc2\xa009:32 AM EST'
p882
sg6
S'FACTBOX: Candidates lining up for French election'
p883
sa(dp884
g2
S'http://www.reuters.com/article/sportsNews/idUSL1483702820070114'
p885
sg4
S'20070114\xc2\xa009:31 AM EST'
p886
sg6
S'Matt wins Wengen super-combined'
p887
sa(dp888
g2
S'http://www.reuters.com/article/latestCrisis/idUSL1441110'
p889
sg4
S'20070114\xc2\xa009:28 AM EST'
p890
sg6
S'Veteran Senegal separatist leader dies in Paris'
p891
sa(dp892
g2
S'http://www.reuters.com/article/worldNews/idUSL1261194420070114'
p893
sg4
S'20070114\xc2\xa009:26 AM EST'
p894
sg6
S"France's Sarkozy: From pariah to presidential poll"
p895
sa(dp896
g2
S'http://www.reuters.com/article/latestCrisis/idUSN14360456'
p897
sg4
S'20070114\xc2\xa009:17 AM EST'
p898
sg6
S"Fidel Castro's son says father is getting better"
p899
sa(dp900
g2
S'http://www.reuters.com/article/newsOne/idUSL1483182420070114'
p901
sg4
S'20070114\xc2\xa009:16 AM EST'
p902
sg6
S'Prince Harry trains for Iraq : paper'
p903
sa(dp904
g2
S'http://www.reuters.com/article/latestCrisis/idUSN14289947'
p905
sg4
S'20070114\xc2\xa008:59 AM EST'
p906
sg6
S'PREVIEW-Is cover-up worse than crime in CIA leak trial?'
p907
sa(dp908
g2
S'http://www.reuters.com/article/ousiv/idUSWEN216320070114'
p909
sg4
S'20070114\xc2\xa008:30 AM EST'
p910
sg6
S'Wal-Mart clarifies healthcare figures'
p911
sa(dp912
g2
S'http://www.reuters.com/article/ousiv/idUSL1412101320070114'
p913
sg4
S'20070114\xc2\xa008:30 AM EST'
p914
sg6
S'LSE in discussions with investor Heyman: report'
p915
sa(dp916
g2
S'http://www.reuters.com/article/ousiv/idUSL1411088120070114'
p917
sg4
S'20070114\xc2\xa008:30 AM EST'
p918
sg6
S"DaimlerChrysler's FY report date in danger: paper"
p919
sa(dp920
g2
S'http://www.reuters.com/article/worldNews/idUSL1411472320070114'
p921
sg4
S'20070114\xc2\xa008:10 AM EST'
p922
sg6
S'Chad army, rebels dispute control of remote town'
p923
sa(dp924
g2
S'http://www.reuters.com/article/sportsNews/idUSL144949620070114'
p925
sg4
S'20070114\xc2\xa008:05 AM EST'
p926
sg6
S'Alpine skier Paerson eyes first win of season'
p927
sa(dp928
g2
S'http://www.reuters.com/article/latestCrisis/idUSMAN196277'
p929
sg4
S'20070114\xc2\xa008:02 AM EST'
p930
sg6
S'FACTBOX-Key facts about ASEAN'
p931
sa(dp932
g2
S'http://www.reuters.com/article/latestCrisis/idUSL14114723'
p933
sg4
S'20070114\xc2\xa007:55 AM EST'
p934
sg6
S'Chad army, rebels dispute control of remote town'
p935
sa(dp936
g2
S'http://www.reuters.com/article/companyNewsAndPR/idUST28223920070114'
p937
sg4
S'20070114\xc2\xa007:45 AM EST'
p938
sg6
S'Japan govt should ask for BOJ rate hike delay -LDP'
p939
sa(dp940
g2
S'http://www.reuters.com/article/ousiv/idUSL1242740420070114'
p941
sg4
S'20070114\xc2\xa007:45 AM EST'
p942
sg6
S'BP CEO Browne to retire earlier than planned'
p943
sa(dp944
g2
S'http://www.reuters.com/article/worldNews/idUSL1411890920070114'
p945
sg4
S'20070114\xc2\xa007:36 AM EST'
p946
sg6
S'Palestinians fear infighting dims statehood hope'
p947
sa(dp948
g2
S'http://www.reuters.com/article/worldNews/idUSL1282356720070114'
p949
sg4
S'20070114\xc2\xa007:36 AM EST'
p950
sg6
S'WITNESS: Israelis, Palestinians and a missing dog'
p951
sa(dp952
g2
S'http://www.reuters.com/article/industryNews/idUSN1119241220070114'
p953
sg4
S'20070114\xc2\xa007:28 AM EST'
p954
sg6
S'NY Times Co to cut 125 jobs'
p955
sa(dp956
g2
S'http://www.reuters.com/article/worldNews/idUSL142003020070114'
p957
sg4
S'20070114\xc2\xa007:16 AM EST'
p958
sg6
S'Italian court convicts SS men for wartime massacres'
p959
sa(dp960
g2
S'http://www.reuters.com/article/worldNews/idUSISL20341720070114'
p961
sg4
S'20070114\xc2\xa007:04 AM EST'
p962
sg6
S'NATO-led raid kills 30 Taliban, Afghan police say'
p963
sa(dp964
g2
S'http://www.reuters.com/article/latestCrisis/idUSL14118909'
p965
sg4
S'20070114\xc2\xa007:02 AM EST'
p966
sg6
S'Palestinians fear infighting dims statehood hope'
p967
sa(dp968
g2
S'http://www.reuters.com/article/latestCrisis/idUSISL303548'
p969
sg4
S'20070114\xc2\xa006:59 AM EST'
p970
sg6
S'NATO-led raid kills 30 Taliban, Afghan police say'
p971
sa(dp972
g2
S'http://www.reuters.com/article/companyNewsAndPR/idUSL1411674620070114'
p973
sg4
S'20070114\xc2\xa006:58 AM EST'
p974
sg6
S'BAE and Carlyle plan nuclear dockyard bid -source'
p975
sa(dp976
g2
S'http://www.reuters.com/article/sportsNews/idUSL1489016220070114'
p977
sg4
S'20070114\xc2\xa006:51 AM EST'
p978
sg6
S'Miller on course for second Wengen win'
p979
sa(dp980
g2
S'http://www.reuters.com/article/worldNews/idUSL1410748820070114'
p981
sg4
S'20070114\xc2\xa006:38 AM EST'
p982
sg6
S'Only road for ETA is to end violence: Spanish PM'
p983
sa(dp984
g2
S'http://www.reuters.com/article/companyNewsAndPR/idUSL1489191320070114'
p985
sg4
S'20070114\xc2\xa006:28 AM EST'
p986
sg6
S'Lower Saxony may be in EADS investor group'
p987
sa(dp988
g2
S'http://www.reuters.com/article/worldNews/idUSJAK23615420070114'
p989
sg4
S'20070114\xc2\xa006:28 AM EST'
p990
sg6
S'Indonesia to DNA test human fragments in plane hunt'
p991
sa(dp992
g2
S'http://www.reuters.com/article/latestCrisis/idUSL14107488'
p993
sg4
S'20070114\xc2\xa006:20 AM EST'
p994
sg6
S'Spanish PM: Only road for ETA is to end violence'
p995
sa(dp996
g2
S'http://www.reuters.com/article/newsOne/idUSN1333440320070114'
p997
sg4
S'20070114\xc2\xa006:15 AM EST'
p998
sg6
S'Bush says critics must offer alternative'
p999
sa(dp1000
g2
S'http://www.reuters.com/article/worldNews/idUSL1426762520070114'
p1001
sg4
S'20070114\xc2\xa006:05 AM EST'
p1002
sg6
S'Fresh unity government talks with Hamas under way: Abbas'
p1003
sa(dp1004
g2
S'http://www.reuters.com/article/latestCrisis/idUSISL199704'
p1005
sg4
S'20070114\xc2\xa005:58 AM EST'
p1006
sg6
S'Hillary Clinton in Afghanistan, due in Pakistan'
p1007
sa(dp1008
g2
S'http://www.reuters.com/article/worldNews/idUSL148546920070114'
p1009
sg4
S'20070114\xc2\xa005:56 AM EST'
p1010
sg6
S'FACTBOX: Policies of French presidential candidate Sarkozy'
p1011
sa(dp1012
g2
S'http://www.reuters.com/article/worldNews/idUSL148540820070114'
p1013
sg4
S'20070114\xc2\xa005:56 AM EST'
p1014
sg6
S"FACTBOX: Key facts about France's Sarkozy"
p1015
sa(dp1016
g2
S'http://www.reuters.com/article/latestCrisis/idUSL14267625'
p1017
sg4
S'20070114\xc2\xa005:50 AM EST'
p1018
sg6
S'Abbas: Fresh unity govt talks with Hamas under way'
p1019
sa(dp1020
g2
S'http://www.reuters.com/article/worldNews/idUSL146794320070114'
p1021
sg4
S'20070114\xc2\xa005:41 AM EST'
p1022
sg6
S'Rice: U.S. will deepen role in Mideast peace process'
p1023
sa(dp1024
g2
S'http://www.reuters.com/article/latestCrisis/idUSDEL214161'
p1025
sg4
S'20070114\xc2\xa005:38 AM EST'
p1026
sg6
S"Bangladesh's Awami League to contest polls"
p1027
sa(dp1028
g2
S'http://www.reuters.com/article/latestCrisis/idUSL1467943'
p1029
sg4
S'20070114\xc2\xa005:37 AM EST'
p1030
sg6
S'Rice: U.S. will deepen role in Mideast peace process'
p1031
sa(dp1032
g2
S'http://www.reuters.com/article/companyNewsAndPR/idUSL148100720070114'
p1033
sg4
S'20070114\xc2\xa005:33 AM EST'
p1034
sg6
S'Bidders nominate contractors for UAE power plan'
p1035
sa(dp1036
g2
S'http://www.reuters.com/article/latestCrisis/idUSISL229060'
p1037
sg4
S'20070114\xc2\xa005:21 AM EST'
p1038
sg6
S'Snowbound Pakistani village rebuilds after quake'
p1039
sa(dp1040
g2
S'http://www.reuters.com/article/globalNews/idUSHAN21104420070114'
p1041
sg4
S'20070114\xc2\xa005:15 AM EST'
p1042
sg6
S'Bird flu spreads to sixth Vietnamese province'
p1043
sa(dp1044
g2
S'http://www.reuters.com/article/newsOne/idUSN1334381420070114'
p1045
sg4
S'20070114\xc2\xa005:04 AM EST'
p1046
sg6
S'U.S. military boosts domestic surveillance: NY Times'
p1047
sa(dp1048
g2
S'http://www.reuters.com/article/latestCrisis/idUSHAN211044'
p1049
sg4
S'20070114\xc2\xa005:02 AM EST'
p1050
sg6
S'Bird flu spreads to sixth Vietnamese province'
p1051
sa(dp1052
g2
S'http://www.reuters.com/article/scienceNews/idUSL149840220070114'
p1053
sg4
S'20070114\xc2\xa004:45 AM EST'
p1054
sg6
S'Comoros volcano tremors grow stronger, more frequent'
p1055
sa(dp1056
g2
S'http://www.reuters.com/article/latestCrisis/idUSJAK236154'
p1057
sg4
S'20070114\xc2\xa004:43 AM EST'
p1058
sg6
S'Indonesia to DNA test human fragments in plane hunt'
p1059
sa(dp1060
g2
S'http://www.reuters.com/article/latestCrisis/idUSL1499718'
p1061
sg4
S'20070114\xc2\xa004:43 AM EST'
p1062
sg6
S'Egypt detains five in Muslim Brotherhood crackdown'
p1063
sa(dp1064
g2
S'http://www.reuters.com/article/musicNews/idUSN1214979720070114'
p1065
sg4
S'20070114\xc2\xa004:33 AM EST'
p1066
sg6
S'Toni Braxton parts ways with label'
p1067
sa(dp1068
g2
S'http://www.reuters.com/article/latestCrisis/idUSL1498402'
p1069
sg4
S'20070114\xc2\xa004:29 AM EST'
p1070
sg6
S'Comoros volcano tremors grow stronger, more frequent'
p1071
sa(dp1072
g2
S'http://www.reuters.com/article/sportsNews/idUSSP21027520070114'
p1073
sg4
S'20070114\xc2\xa004:17 AM EST'
p1074
sg6
S'Flames defeat Oilers for fifth-straight win'
p1075
sa(dp1076
g2
S'http://www.reuters.com/article/companyNewsAndPR/idUSL141805420070114'
p1077
sg4
S'20070114\xc2\xa004:17 AM EST'
p1078
sg6
S'Arison to gain sole control of Bank Hapoalim'
p1079
sa(dp1080
g2
S'http://www.reuters.com/article/companyNewsAndPR/idUSL1410474020070114'
p1081
sg4
S'20070114\xc2\xa004:15 AM EST'
p1082
sg6
S'TEXT-Retalix gets Super-Sol next gen software deal'
p1083
sa(dp1084
g2
S'http://www.reuters.com/article/companyNewsAndPR/idUSL1410052520070114'
p1085
sg4
S'20070114\xc2\xa004:06 AM EST'
p1086
sg6
S'UPDATE 1-Bahrain says no change to dollar-peg policy'
p1087
sa(dp1088
g2
S'http://www.reuters.com/article/latestCrisis/idUSDEL196683'
p1089
sg4
S'20070114\xc2\xa003:59 AM EST'
p1090
sg6
S"Bangladesh's Awami League says to contest polls"
p1091
sa(dp1092
g2
S'http://www.reuters.com/article/latestCrisis/idUSIBO431564'
p1093
sg4
S'20070114\xc2\xa003:57 AM EST'
p1094
sg6
S'FACTBOX-Security developments in Iraq, Jan 14'
p1095
sa(dp1096
g2
S'http://www.reuters.com/article/latestCrisis/idUSDEL205567'
p1097
sg4
S'20070114\xc2\xa003:37 AM EST'
p1098
sg6
S'Indian police find more skulls in murder probe -paper'
p1099
sa(dp1100
g2
S'http://www.reuters.com/article/latestCrisis/idUSISL211041'
p1101
sg4
S'20070114\xc2\xa003:23 AM EST'
p1102
sg6
S'Indo-Pak talks high on atmospherics, low on results'
p1103
sa(dp1104
g2
S'http://www.reuters.com/article/worldNews/idUSL1283038420070114'
p1105
sg4
S'20070114\xc2\xa003:22 AM EST'
p1106
sg6
S'New Red Cross, Red Crescent emblem comes into force'
p1107
sa(dp1108
g2
S'http://www.reuters.com/article/ousiv/idUSWEN212920070114'
p1109
sg4
S'20070114\xc2\xa003:21 AM EST'
p1110
sg6
S'Dolans raise offer to take Cablevision private'
p1111
sa(dp1112
g2
S'http://www.reuters.com/article/ousiv/idUSL136278520070114'
p1113
sg4
S'20070114\xc2\xa003:21 AM EST'
p1114
sg6
S'OPEC consulting on emergency meeting: Algeria'
p1115
sa(dp1116
g2
S'http://www.reuters.com/article/homepageCrisis/idUSL12830384._CH_.2400'
p1117
sg4
S'20070114\xc2\xa003:13 AM EST'
p1118
sg6
S'New Red Cross, Red Crescent emblem comes into force'
p1119
sa(dp1120
g2
S'http://www.reuters.com/article/latestCrisis/idUSL12830384'
p1121
sg4
S'20070114\xc2\xa003:13 AM EST'
p1122
sg6
S'New Red Cross, Red Crescent emblem comes into force'
p1123
sa(dp1124
g2
S'http://www.reuters.com/article/worldNews/idUSL149488420070114'
p1125
sg4
S'20070114\xc2\xa003:12 AM EST'
p1126
sg6
S'Iran demands U.S. free arrested "diplomats" in Iraq'
p1127
sa(dp1128
g2
S'http://www.reuters.com/article/latestCrisis/idUSDEL132803'
p1129
sg4
S'20070114\xc2\xa003:07 AM EST'
p1130
sg6
S'Six Assam rebels caught in India, many more flee'
p1131
sa(dp1132
g2
S'http://www.reuters.com/article/sportsNews/idUSSP20646520070114'
p1133
sg4
S'20070114\xc2\xa003:07 AM EST'
p1134
sg6
S'Federer seeks revenge in Phau opener'
p1135
sa(dp1136
g2
S'http://www.reuters.com/article/sportsNews/idUSL149520620070114'
p1137
sg4
S'20070114\xc2\xa003:06 AM EST'
p1138
sg6
S'Clijsters rules herself out as top contender'
p1139
sa(dp1140
g2
S'http://www.reuters.com/article/sportsNews/idUSSP20507820070114'
p1141
sg4
S'20070114\xc2\xa003:04 AM EST'
p1142
sg6
S"Garnett tops 10,000 rebounds in Timberwolves's win"
p1143
sa(dp1144
g2
S'http://www.reuters.com/article/sportsNews/idUSSP19994020070114'
p1145
sg4
S'20070114\xc2\xa003:00 AM EST'
p1146
sg6
S'Nadal fit to break Australian Open duck'
p1147
sa(dp1148
g2
S'http://www.reuters.com/article/sportsNews/idUSL149100220070114'
p1149
sg4
S'20070114\xc2\xa003:00 AM EST'
p1150
sg6
S'Federer ready to launch title bid at "Happy Slam"'
p1151
sa(dp1152
g2
S'http://www.reuters.com/article/sportsNews/idUSL1445450520070114'
p1153
sg4
S'20070114\xc2\xa003:00 AM EST'
p1154
sg6
S'Relaxed Mauresmo aims to enjoy title defense'
p1155
sa(dp1156
g2
S'http://www.reuters.com/article/worldNews/idUSN1316145220070114'
p1157
sg4
S'20070114\xc2\xa002:51 AM EST'
p1158
sg6
S'Anti-U.S. allies Venezuela and Iran seek OPEC oil cut'
p1159
sa(dp1160
g2
S'http://www.reuters.com/article/scienceNews/idUSL147338520070114'
p1161
sg4
S'20070114\xc2\xa002:50 AM EST'
p1162
sg6
S'EU eyes climate, energy, trade in new China talks'
p1163
sa(dp1164
g2
S'http://www.reuters.com/article/newsOne/idUSSP20063020070114'
p1165
sg4
S'20070114\xc2\xa002:41 AM EST'
p1166
sg6
S'Saints march into NFC title game behind McAllister'
p1167
sa(dp1168
g2
S'http://www.reuters.com/article/latestCrisis/idUSL1493248'
p1169
sg4
S'20070114\xc2\xa002:39 AM EST'
p1170
sg6
S'Israeli minister seeks NATO forces for Gaza'
p1171
sa(dp1172
g2
S'http://www.reuters.com/article/latestCrisis/idUSL14765853'
p1173
sg4
S'20070114\xc2\xa002:19 AM EST'
p1174
sg6
S'Rice to seek to bolster Abbas in Ramallah talks'
p1175
sa(dp1176
g2
S'http://www.reuters.com/article/latestCrisis/idUSL1473385'
p1177
sg4
S'20070114\xc2\xa002:18 AM EST'
p1178
sg6
S'PREVIEW-EU eyes climate, energy, trade in new China talks'
p1179
sa(dp1180
g2
S'http://www.reuters.com/article/ousiv/idUST27841720070114'
p1181
sg4
S'20070114\xc2\xa002:10 AM EST'
p1182
sg6
S'Japan Airlines to ask for Y60bln financing'
p1183
sa(dp1184
g2
S'http://www.reuters.com/article/sportsNews/idUSSP20695120070114'
p1185
sg4
S'20070114\xc2\xa001:46 AM EST'
p1186
sg6
S"Howell leads Sony, Fujikawa's fairytale continues"
p1187
sa(dp1188
g2
S'http://www.reuters.com/article/companyNewsAndPR/idUSN1435383920070114'
p1189
sg4
S'20070114\xc2\xa001:34 AM EST'
p1190
sg6
S'Honduras temporarily grabs Exxon, Chevron terminals'
p1191
sa(dp1192
g2
S'http://www.reuters.com/article/companyNewsAndPR/idUSN1435414120070114'
p1193
sg4
S'20070114\xc2\xa012:59 AM EST'
p1194
sg6
S'UPDATE 1-Honduras temporarily grabs Exxon, Chevron terminals'
p1195
sa(dp1196
g2
S'http://www.reuters.com/article/sportsNews/idUSSP19933920070114'
p1197
sg4
S'20070114\xc2\xa012:54 AM EST'
p1198
sg6
S'Howell targets patient approach in bid for Waialae title'
p1199
sa(dp1200
g2
S'http://www.reuters.com/article/companyNewsAndPR/idUSN1435394520070114'
p1201
sg4
S'20070114\xc2\xa012:50 AM EST'
p1202
sg6
S'Honduras temporarily grabs Exxon, Chevron terminals'
p1203
sa(dp1204
g2
S'http://www.reuters.com/article/worldNews/idUSPEK27988820070114'
p1205
sg4
S'20070114\xc2\xa012:50 AM EST'
p1206
sg6
S'Unclear Athens attack rocket was China-made: Beijing'
p1207
sa(dp1208
g2
S'http://www.reuters.com/article/worldNews/idUST27618520070114'
p1209
sg4
S'20070114\xc2\xa012:41 AM EST'
p1210
sg6
S'Rules on Japan military arms use may be eased: paper'
p1211
sa(dp1212
g2
S'http://www.reuters.com/article/sportsNews/idUSSP19868420070114'
p1213
sg4
S'20070114\xc2\xa012:38 AM EST'
p1214
sg6
S'Fujikawa continues dream week with leap into contention'
p1215
sa(dp1216
g2
S'http://www.reuters.com/article/latestCrisis/idUSB606437'
p1217
sg4
S'20070114\xc2\xa012:16 AM EST'
p1218
sg6
S'Nepal rebels set to join parliament after peace pact'
p1219
sa(dp1220
g2
S'http://www.reuters.com/article/homepageCrisis/idUSB606437._CH_.2400'
p1221
sg4
S'20070114\xc2\xa012:16 AM EST'
p1222
sg6
S'Nepal rebels set to join parliament after peace pact'
p1223
sa(dp1224
g2
S'http://www.reuters.com/article/companyNewsAndPR/idUSL1446379720070114'
p1225
sg4
S'20070114\xc2\xa012:04 AM EST'
p1226
sg6
S' =15'
p1227
sa(dp1228
g2
S'http://www.reuters.com/article/reviewsNews/idUSN1333861820070114'
p1229
sg4
S'20070114\xc2\xa012:03 AM EST'
p1230
sg6
S'"Primeval" a toothless monster movie'
p1231
sa(dp1232
g2
S'http://www.reuters.com/article/reviewsNews/idUSN1234356520070114'
p1233
sg4
S'20070114\xc2\xa012:03 AM EST'
p1234
sg6
S'Film review: Yippee: A Journey to Jewish Joy'
p1235
sa(dp1236
g2
S'http://www.reuters.com/article/reviewsNews/idUSN1232342820070114'
p1237
sg4
S'20070114\xc2\xa012:03 AM EST'
p1238
sg6
S'Billboard single reviews: Clay & Kenny'
p1239
sa(dp1240
g2
S'http://www.reuters.com/article/reviewsNews/idUSN1217889720070114'
p1241
sg4
S'20070114\xc2\xa012:03 AM EST'
p1242
sg6
S'Film review: When Pigs Fly'
p1243
sa(dp1244
g2
S'http://www.reuters.com/article/reviewsNews/idUSN1134352320070114'
p1245
sg4
S'20070114\xc2\xa012:03 AM EST'
p1246
sg6
S'Justin Timberlake cribs from Prince, Jackson'
p1247
sa(dp1248
g2
S'http://www.reuters.com/article/reviewsNews/idUSN1117518720070114'
p1249
sg4
S'20070114\xc2\xa012:03 AM EST'
p1250
sg6
S'"Rome" redux a brutal soap opera for the ages'
p1251
sa(dp1252
g2
S'http://www.reuters.com/article/reviewsNews/idUSN1117462920070114'
p1253
sg4
S'20070114\xc2\xa012:03 AM EST'
p1254
sg6
S'Disney\'s "Raven" spinoff "Cory" can\'t fail'
p1255
sa(dp1256
g2
S'http://www.reuters.com/news/video/videoStory?storyID=e4382434484ecef5f6106064383de30ea4387a56'
p1257
sg4
S'20070114\xc2\xa011:28 PM EST'
p1258
sg6
S'ASEAN plans eco-pact'
p1259
sa(dp1260
g2
S'http://www.reuters.com/news/video/videoStory?storyID=b0988d84662fd2610ca7325de517115c36bb8f3d'
p1261
sg4
S'20070114\xc2\xa011:11 PM EST'
p1262
sg6
S'Talk of the Town: Weekend box office'
p1263
sa(dp1264
g2
S'http://www.reuters.com/news/video/videoStory?storyID=646819a7d50f124b0776fa1b9a4599a26f5ac3ea'
p1265
sg4
S'20070114\xc2\xa007:28 PM EST'
p1266
sg6
S'Doggie deli'
p1267
sa(dp1268
g2
S'http://www.reuters.com/news/video/videoStory?storyID=2f5e3c2583618861fbca78b9819940e920f526a8'
p1269
sg4
S'20070114\xc2\xa005:12 PM EST'
p1270
sg6
S'Ferrari unveil F2007'
p1271
sa(dp1272
g2
S'http://www.reuters.com/news/video/videoStory?storyID=8fbf1c8f776fe2b42e56089967167ab6aa297439'
p1273
sg4
S'20070114\xc2\xa001:08 PM EST'
p1274
sg6
S'Using music to eradicate malaria '
p1275
sa(dp1276
g2
S'http://www.reuters.com/news/video/videoStory?storyID=7b740753514af341fb97b1f808ca87d6cd5cda0d'
p1277
sg4
S'20070114\xc2\xa008:21 AM EST'
p1278
sg6
S'Ivory Coast crisis resolution'
p1279
sa(dp1280
g2
S'http://www.reuters.com/news/video/videoStory?storyID=6793aba05256be6c7379286d9bb560211749b4e7'
p1281
sg4
S'20070114\xc2\xa008:13 AM EST'
p1282
sg6
S'Niger harnesses manual irrigation'
p1283
sa(dp1284
g2
S'http://www.reuters.com/news/video/videoStory?storyID=f92a2773a85ac2630ac9bdd726ebfe5fcbb365ef'
p1285
sg4
S'20070114\xc2\xa008:12 AM EST'
p1286
sg6
S'Europe retain Royal Trophy in style'
p1287
sa(dp1288
g2
S'http://www.reuters.com/news/video/videoStory?storyID=d935aaeba85cf10e25f81de6bcde1b3c91612348'
p1289
sg4
S'20070114\xc2\xa005:25 AM EST'
p1290
sg6
S'Too thin to be a model?'
p1291
sa(dp1292
g2
S'http://www.reuters.com/news/video/videoStory?storyID=c56b3c3efad5251257109d25c79105f88bcb1690'
p1293
sg4
S'20070114\xc2\xa004:37 AM EST'
p1294
sg6
S"Introducing the 'Burkini'"
p1295
sa(dp1296
g2
S'http://www.reuters.com/news/video/videoStory?storyID=7dec1cec63e6646153a408582b314d0e6a9360b9'
p1297
sg4
S'20070114\xc2\xa001:44 AM EST'
p1298
sg6
S'Military drill takes an icy turn'
p1299
sa.