(lp0
(dp1
S'href'
p2
S'http://www.reuters.com/article/pressRelease/idUS15304+03-Aug-2008+PRN20080803'
p3
sS'ts'
p4
S'20080802\xc2\xa011:45 PM EDT'
p5
sS'title'
p6
S'Good Time Rock and Roll Launches Great Park Summer Night Flight Series'
p7
sa(dp8
g2
S'http://www.reuters.com/article/pressRelease/idUS14939+03-Aug-2008+PRN20080803'
p9
sg4
S'20080802\xc2\xa011:30 PM EDT'
p10
sg6
S'Following Is a Test Release'
p11
sa(dp12
g2
S'http://www.reuters.com/article/pressRelease/idUS14876+03-Aug-2008+PRN20080803'
p13
sg4
S'20080802\xc2\xa011:28 PM EDT'
p14
sg6
S'Skin Health: Priceless'
p15
sa(dp16
g2
S'http://www.reuters.com/article/newsMaps/idUST19638320080803'
p17
sg4
S'20080802\xc2\xa011:07 PM EDT'
p18
sg6
S'Cabinet reshuffle fails to boost Japan PM image'
p19
sa(dp20
g2
S'http://www.reuters.com/article/pressRelease/idUS14269+03-Aug-2008+PRN20080803'
p21
sg4
S'20080802\xc2\xa011:00 PM EDT'
p22
sg6
S'Following Is a Test Release'
p23
sa(dp24
g2
S'http://www.reuters.com/article/sportsNews/idUSSP14528520080803'
p25
sg4
S'20080802\xc2\xa010:48 PM EDT'
p26
sg6
S'Panthers suspend receiver Smith after fight'
p27
sa(dp28
g2
S'http://www.reuters.com/article/newsOne/idUSDAH26515520080803'
p29
sg4
S'20080802\xc2\xa010:43 PM EDT'
p30
sg6
S'Iran, on deadline day, vows no nuclear retreat'
p31
sa(dp32
g2
S'http://www.reuters.com/article/politicsNews/idUSN0240918520080803'
p33
sg4
S'20080802\xc2\xa010:36 PM EDT'
p34
sg6
S"Brazil's Lula to seek rapid revival of trade talks"
p35
sa(dp36
g2
S'http://www.reuters.com/article/newsOne/idUSN0230158220080803'
p37
sg4
S'20080802\xc2\xa010:34 PM EDT'
p38
sg6
S'Obama says McCain campaign cynical, not racist'
p39
sa(dp40
g2
S'http://www.reuters.com/article/pressRelease/idUS13463+03-Aug-2008+PRN20080803'
p41
sg4
S'20080802\xc2\xa010:30 PM EDT'
p42
sg6
S'Following Is a Test Release'
p43
sa(dp44
g2
S'http://www.reuters.com/article/sportsNews/idUSSP15828820080803'
p45
sg4
S'20080802\xc2\xa010:18 PM EDT'
p46
sg6
S'Djokovic stuns Nadal to reach Cincinnati final'
p47
sa(dp48
g2
S'http://www.reuters.com/article/olympicsNews/idUSSP15299620080803'
p49
sg4
S'20080802\xc2\xa010:11 PM EDT'
p50
sg6
S'Olympics-Table tennis-Aggressive Wang to eclipse Athens silver'
p51
sa(dp52
g2
S'http://www.reuters.com/article/pressRelease/idUS12809+03-Aug-2008+PRN20080803'
p53
sg4
S'20080802\xc2\xa010:00 PM EDT'
p54
sg6
S'Following Is a Test Release'
p55
sa(dp56
g2
S'http://www.reuters.com/article/pressRelease/idUS12664+03-Aug-2008+BW20080803'
p57
sg4
S'20080802\xc2\xa009:52 PM EDT'
p58
sg6
S"Shaw's Update on Union Negotiation"
p59
sa(dp60
g2
S'http://www.reuters.com/article/pressRelease/idUS12224+03-Aug-2008+PRN20080803'
p61
sg4
S'20080802\xc2\xa009:30 PM EDT'
p62
sg6
S'Following Is a Test Release'
p63
sa(dp64
g2
S'http://www.reuters.com/article/pressRelease/idUS12102+03-Aug-2008+BW20080803'
p65
sg4
S'20080802\xc2\xa009:26 PM EDT'
p66
sg6
S'No. 5 GoDaddy.com Chevrolet Races to 1st NASCAR Win!'
p67
sa(dp68
g2
S'http://www.reuters.com/article/pressReleasesMolt/idUSL247600020080803'
p69
sg4
S'20080802\xc2\xa009:21 PM EDT'
p70
sg6
S'Chinese Games to start with a big, big bang'
p71
sa(dp72
g2
S'http://www.reuters.com/article/pressReleasesMolt/idUSL245385120080803'
p73
sg4
S'20080802\xc2\xa009:21 PM EDT'
p74
sg6
S'IOC says it may have been naive on Web access'
p75
sa(dp76
g2
S'http://www.reuters.com/article/pressReleasesMolt/idUSL1967077320080803'
p77
sg4
S'20080802\xc2\xa009:21 PM EDT'
p78
sg6
S'Olympics-Wear ox pendant to avoid rat clashes, leaders'
p79
sa(dp80
g2
S'http://www.reuters.com/article/pressRelease/idUS11350+03-Aug-2008+PRN20080803'
p81
sg4
S'20080802\xc2\xa009:00 PM EDT'
p82
sg6
S'Following Is a Test Release'
p83
sa(dp84
g2
S'http://www.reuters.com/article/newsMaps/idUSN0241688820080803'
p85
sg4
S'20080802\xc2\xa008:32 PM EDT'
p86
sg6
S'Argentine president defends aides, vows to stay course'
p87
sa(dp88
g2
S'http://www.reuters.com/article/pressRelease/idUS10726+03-Aug-2008+PRN20080803'
p89
sg4
S'20080802\xc2\xa008:30 PM EDT'
p90
sg6
S'Following Is a Test Release'
p91
sa(dp92
g2
S'http://www.reuters.com/article/bondsNews/idUSN0244063020080803'
p93
sg4
S'20080802\xc2\xa008:27 PM EDT'
p94
sg6
S'UPDATE 1-Argentine president defends aides, vows to stay course'
p95
sa(dp96
g2
S'http://www.reuters.com/article/pressRelease/idUS10020+03-Aug-2008+PRN20080803'
p97
sg4
S'20080802\xc2\xa008:00 PM EDT'
p98
sg6
S'Following Is a Test Release'
p99
sa(dp100
g2
S'http://www.reuters.com/article/pressRelease/idUS10003+03-Aug-2008+BW20080803'
p101
sg4
S'20080802\xc2\xa008:00 PM EDT'
p102
sg6
S'Rising Demand for Enterprise IP Telephony Fuels Asia Pacific Market'
p103
sa(dp104
g2
S'http://www.reuters.com/article/pressRelease/idUS10002+03-Aug-2008+BW20080803'
p105
sg4
S'20080802\xc2\xa008:00 PM EDT'
p106
sg6
S"New Report Examines China's Current Valve & Faucet Industry"
p107
sa(dp108
g2
S'http://www.reuters.com/article/sportsNews/idUSN0242336320080802'
p109
sg4
S'20080802\xc2\xa007:57 PM EDT'
p110
sg6
S'Clarke keeps faint Ryder Cup hopes alive with 65'
p111
sa(dp112
g2
S'http://www.reuters.com/article/worldNews/idUSL28755320080802'
p113
sg4
S'20080802\xc2\xa007:53 PM EDT'
p114
sg6
S'Two French aid workers freed in Afghanistan'
p115
sa(dp116
g2
S'http://www.reuters.com/article/sportsNews/idUSN3131311020080802'
p117
sg4
S'20080802\xc2\xa007:49 PM EDT'
p118
sg6
S'Westwood, Singh and Mickelson share lead in Ohio'
p119
sa(dp120
g2
S'http://www.reuters.com/article/sportsNews/idUSL1967077320080802'
p121
sg4
S'20080802\xc2\xa007:39 PM EDT'
p122
sg6
S'Olympics-Wear ox pendant to avoid rat clashes, leaders'
p123
sa(dp124
g2
S'http://www.reuters.com/article/pressRelease/idUS51426+02-Aug-2008+PRN20080802'
p125
sg4
S'20080802\xc2\xa007:30 PM EDT'
p126
sg6
S'Following Is a Test Release'
p127
sa(dp128
g2
S'http://www.reuters.com/article/pressRelease/idUS51424+02-Aug-2008+BW20080802'
p129
sg4
S'20080802\xc2\xa007:30 PM EDT'
p130
sg6
S"Is It a Dream or Is It the California Lottery's Big Spin(R)?"
p131
sa(dp132
g2
S'http://www.reuters.com/article/GCA-Russia/idUSL062719320080802'
p133
sg4
S'20080802\xc2\xa007:14 PM EDT'
p134
sg6
S'Russia railway soldiers leave Georgian rebel region'
p135
sa(dp136
g2
S'http://www.reuters.com/article/GCA-Russia/idUSL265890220080802'
p137
sg4
S'20080802\xc2\xa007:09 PM EDT'
p138
sg6
S'Latvian vote on sacking parliament falls short'
p139
sa(dp140
g2
S'http://www.reuters.com/article/pressRelease/idUS50964+02-Aug-2008+PRN20080802'
p141
sg4
S'20080802\xc2\xa007:00 PM EDT'
p142
sg6
S'Following Is a Test Release'
p143
sa(dp144
g2
S'http://www.reuters.com/article/worldNews/idUSN0241688820080802'
p145
sg4
S'20080802\xc2\xa006:35 PM EDT'
p146
sg6
S'Argentine president defends aides, to stay course'
p147
sa(dp148
g2
S'http://www.reuters.com/article/pressRelease/idUS50591+02-Aug-2008+PRN20080802'
p149
sg4
S'20080802\xc2\xa006:30 PM EDT'
p150
sg6
S'Following Is a Test Release'
p151
sa(dp152
g2
S'http://www.reuters.com/article/ousiv/idUSL166453420080802'
p153
sg4
S'20080802\xc2\xa006:02 PM EDT'
p154
sg6
S'Car industry gloom descends on GM, BMW, Nissan'
p155
sa(dp156
g2
S'http://www.reuters.com/article/ousivMolt/idUSN0137386920080802'
p157
sg4
S'20080802\xc2\xa006:01 PM EDT'
p158
sg6
S'Wall Street bankers brace for bonus cuts'
p159
sa(dp160
g2
S'http://www.reuters.com/article/pressRelease/idUS50269+02-Aug-2008+PRN20080802'
p161
sg4
S'20080802\xc2\xa006:00 PM EDT'
p162
sg6
S'Following Is a Test Release'
p163
sa(dp164
g2
S'http://www.reuters.com/article/pressRelease/idUS50200+02-Aug-2008+BW20080802'
p165
sg4
S'20080802\xc2\xa005:56 PM EDT'
p166
sg6
S'Concord Law School, Celebrating Its 10th Anniversary, Hosts Los Angeles Graduation'
p167
sa(dp168
g2
S'http://www.reuters.com/article/worldNews/idUSISL765720080802'
p169
sg4
S'20080802\xc2\xa005:38 PM EDT'
p170
sg6
S'Pakistani Taliban deny Zawahri death report'
p171
sa(dp172
g2
S'http://www.reuters.com/article/pressRelease/idUS49749+02-Aug-2008+PRN20080802'
p173
sg4
S'20080802\xc2\xa005:30 PM EDT'
p174
sg6
S'Following Is a Test Release'
p175
sa(dp176
g2
S'http://www.reuters.com/article/healthNews/idUSN0241418020080802'
p177
sg4
S'20080802\xc2\xa005:30 PM EDT'
p178
sg6
S'More than 56,000 in U.S. infected with AIDS each year'
p179
sa(dp180
g2
S'http://www.reuters.com/article/latestCrisis/idUSN02284821'
p181
sg4
S'20080802\xc2\xa005:24 PM EDT'
p182
sg6
S'More than 56,000 in US infected with AIDS each year'
p183
sa(dp184
g2
S'http://www.reuters.com/article/companyNewsAndPR/idUSN0132381820080802'
p185
sg4
S'20080802\xc2\xa005:22 PM EDT'
p186
sg6
S'Argentine president says no more cabinet changes'
p187
sa(dp188
g2
S'http://www.reuters.com/article/pressRelease/idUS49326+02-Aug-2008+PRN20080802'
p189
sg4
S'20080802\xc2\xa005:00 PM EDT'
p190
sg6
S'Following Is a Test Release'
p191
sa(dp192
g2
S'http://www.reuters.com/article/worldNews/idUSL22549020080802'
p193
sg4
S'20080802\xc2\xa004:56 PM EDT'
p194
sg6
S'Nine killed, 95 hurt in Hamas-Fatah violence in Gaza'
p195
sa(dp196
g2
S'http://www.reuters.com/article/homepageCrisis/idUSL225490._CH_.2400'
p197
sg4
S'20080802\xc2\xa004:51 PM EDT'
p198
sg6
S'Nine killed, 95 hurt in Hamas-Fatah violence in Gaza'
p199
sa(dp200
g2
S'http://www.reuters.com/article/middleeastCrisis/idUSL225490'
p201
sg4
S'20080802\xc2\xa004:51 PM EDT'
p202
sg6
S'Nine killed, 95 hurt in Hamas-Fatah violence in Gaza'
p203
sa(dp204
g2
S'http://www.reuters.com/article/companyNewsAndPR/idUSN0242216520080802'
p205
sg4
S'20080802\xc2\xa004:50 PM EDT'
p206
sg6
S'Argentine president defends commerce secretary'
p207
sa(dp208
g2
S'http://www.reuters.com/article/topNews/idUSNASU8020120080802'
p209
sg4
S'20080802\xc2\xa004:49 PM EDT'
p210
sg6
S'U.S. mulls what do to with any Guantanamo convict'
p211
sa(dp212
g2
S'http://www.reuters.com/article/olympicsNews/idUSL212498620080802'
p213
sg4
S'20080802\xc2\xa004:49 PM EDT'
p214
sg6
S'Olympics-Cycling-Cunego withdraws from Italian team'
p215
sa(dp216
g2
S'http://www.reuters.com/article/pressRelease/idUS48723+02-Aug-2008+PRN20080802'
p217
sg4
S'20080802\xc2\xa004:30 PM EDT'
p218
sg6
S'Following Is a Test Release'
p219
sa(dp220
g2
S'http://www.reuters.com/article/worldNews/idUSDAH26515520080802'
p221
sg4
S'20080802\xc2\xa004:26 PM EDT'
p222
sg6
S'Iran, on deadline day, vows no nuclear retreat'
p223
sa(dp224
g2
S'http://www.reuters.com/article/pressRelease/idUS48614+02-Aug-2008+BW20080802'
p225
sg4
S'20080802\xc2\xa004:24 PM EDT'
p226
sg6
S'CDC Numbers: HIV Prevention in US a Failure; AHF Calls for $200M to Test 10M People'
p227
sa(dp228
g2
S'http://www.reuters.com/article/politicsNews/idUSN0230158220080802'
p229
sg4
S'20080802\xc2\xa004:12 PM EDT'
p230
sg6
S'Obama says McCain campaign cynical, not racist'
p231
sa(dp232
g2
S'http://www.reuters.com/article/GCA-Oil/idUSL27987120080802'
p233
sg4
S'20080802\xc2\xa004:11 PM EDT'
p234
sg6
S'Weak dollar caused 30 percent of oil price rise: Iran'
p235
sa(dp236
g2
S'http://www.reuters.com/article/companyNewsAndPR/idUSN0241939220080802'
p237
sg4
S'20080802\xc2\xa004:00 PM EDT'
p238
sg6
S'UPDATE 2-Obama says McCain campaign cynical, not racist'
p239
sa(dp240
g2
S'http://www.reuters.com/article/pressRelease/idUS48286+02-Aug-2008+PRN20080802'
p241
sg4
S'20080802\xc2\xa004:00 PM EDT'
p242
sg6
S'Following Is a Test Release'
p243
sa(dp244
g2
S'http://www.reuters.com/article/pressRelease/idUS48274+02-Aug-2008+BW20080802'
p245
sg4
S'20080802\xc2\xa004:00 PM EDT'
p246
sg6
S'Webcast Alert: Smith Micro Q2 2008 Earnings Conference Call Webcast'
p247
sa(dp248
g2
S'http://www.reuters.com/article/pressRelease/idUS48276+02-Aug-2008+BW20080802'
p249
sg4
S'20080802\xc2\xa004:00 PM EDT'
p250
sg6
S'Reminder: International Rectifier Hosting Conference Call on August 4, 2008 to Discuss...'
p251
sa(dp252
g2
S'http://www.reuters.com/article/pressRelease/idUS48275+02-Aug-2008+BW20080802'
p253
sg4
S'20080802\xc2\xa004:00 PM EDT'
p254
sg6
S'Webcast Alert: Tandy Leather Factory Inc. Second Quarter 2008 Earnings Conference...'
p255
sa(dp256
g2
S'http://www.reuters.com/article/GCA-GCA-iraq/idUSL853192520080802'
p257
sg4
S'20080802\xc2\xa003:55 PM EDT'
p258
sg6
S'Fewer Iraqi civilians killed in July'
p259
sa(dp260
g2
S'http://www.reuters.com/article/domesticNews/idUSN0243795420080802'
p261
sg4
S'20080802\xc2\xa003:48 PM EDT'
p262
sg6
S'United Air and pilots in standstill pact: report'
p263
sa(dp264
g2
S'http://www.reuters.com/article/pressRelease/idUS47948+02-Aug-2008+PRN20080802'
p265
sg4
S'20080802\xc2\xa003:42 PM EDT'
p266
sg6
S'Jim Hall, Former NTSB Chairman and Counsel to The Nolan Law Group Issues Statement...'
p267
sa(dp268
g2
S'http://www.reuters.com/article/pressReleasesMolt/idUSN0240365320080802'
p269
sg4
S'20080802\xc2\xa003:41 PM EDT'
p270
sg6
S'S&P; emails slammed mortgage debt products: report'
p271
sa(dp272
g2
S'http://www.reuters.com/article/newsMaps/idUSL28883720080802'
p273
sg4
S'20080802\xc2\xa003:38 PM EDT'
p274
sg6
S'Explosion rocks main police station in Harare'
p275
sa(dp276
g2
S'http://www.reuters.com/article/latestCrisis/idUSL2121243'
p277
sg4
S'20080802\xc2\xa003:31 PM EDT'
p278
sg6
S'Explosion rocks main police station in Harare'
p279
sa(dp280
g2
S'http://www.reuters.com/article/pressRelease/idUS47727+02-Aug-2008+PRN20080802'
p281
sg4
S'20080802\xc2\xa003:30 PM EDT'
p282
sg6
S'Following Is a Test Release'
p283
sa(dp284
g2
S'http://www.reuters.com/article/pressRelease/idUS47721+02-Aug-2008+BW20080802'
p285
sg4
S'20080802\xc2\xa003:30 PM EDT'
p286
sg6
S'Kaplan University Graduates 2,278 Online Students'
p287
sa(dp288
g2
S'http://www.reuters.com/article/healthNews/idUSCOL15665020080802'
p289
sg4
S'20080802\xc2\xa003:29 PM EDT'
p290
sg6
S"'Hygiene hypothesis' may be tied to bowel disease"
p291
sa(dp292
g2
S'http://www.reuters.com/article/latestCrisis/idUSL288837'
p293
sg4
S'20080802\xc2\xa003:20 PM EDT'
p294
sg6
S'Explosion rocks main police station in Harare'
p295
sa(dp296
g2
S'http://www.reuters.com/article/pressRelease/idUS47228+02-Aug-2008+PRN20080802'
p297
sg4
S'20080802\xc2\xa003:00 PM EDT'
p298
sg6
S'Following Is a Test Release'
p299
sa(dp300
g2
S'http://www.reuters.com/article/pressRelease/idUS46863+02-Aug-2008+BW20080802'
p301
sg4
S'20080802\xc2\xa002:41 PM EDT'
p302
sg6
S'Allegheny Energy Announces Final Approval of West Virginia Transmission Line'
p303
sa(dp304
g2
S'http://www.reuters.com/article/pressRelease/idUS46658+02-Aug-2008+PRN20080802'
p305
sg4
S'20080802\xc2\xa002:30 PM EDT'
p306
sg6
S'Following Is a Test Release'
p307
sa(dp308
g2
S'http://www.reuters.com/article/pressRelease/idUS46013+02-Aug-2008+BW20080802'
p309
sg4
S'20080802\xc2\xa002:17 PM EDT'
p310
sg6
S"Merck Responds to Aids Activists' Pleas; Reduces Price of Stocrin by 40% in Mexico,..."
p311
sa(dp312
g2
S'http://www.reuters.com/article/newsOne/idUSL29510520080802'
p313
sg4
S'20080802\xc2\xa002:16 PM EDT'
p314
sg6
S'U.S. soldiers charged over killing of Iraqi prisoner'
p315
sa(dp316
g2
S'http://www.reuters.com/article/newsOne/idUSANW23624120080802'
p317
sg4
S'20080802\xc2\xa002:16 PM EDT'
p318
sg6
S'FACTBOX: Security developments in Iraq on August 2'
p319
sa(dp320
g2
S'http://www.reuters.com/article/homepageCrisis/idUSB114176._CH_.2400'
p321
sg4
S'20080802\xc2\xa002:06 PM EDT'
p322
sg6
S'S.Lanka military enters rebel capital, captures town'
p323
sa(dp324
g2
S'http://www.reuters.com/article/latestCrisis/idUSB114176'
p325
sg4
S'20080802\xc2\xa002:06 PM EDT'
p326
sg6
S'S.Lanka military enters rebel capital, captures town'
p327
sa(dp328
g2
S'http://www.reuters.com/article/pressRelease/idUS45508+02-Aug-2008+PRN20080802'
p329
sg4
S'20080802\xc2\xa002:00 PM EDT'
p330
sg6
S'Following Is a Test Release'
p331
sa(dp332
g2
S'http://www.reuters.com/article/politicsNews/idUSN0240918520080802'
p333
sg4
S'20080802\xc2\xa001:50 PM EDT'
p334
sg6
S'Bush, Lula discuss collapse of trade talks: W.House'
p335
sa(dp336
g2
S'http://www.reuters.com/article/worldNews/idUSDAH21962320080802'
p337
sg4
S'20080802\xc2\xa001:48 PM EDT'
p338
sg6
S'Iran accuses U.S. of double standards'
p339
sa(dp340
g2
S'http://www.reuters.com/article/worldNews/idUSL27319220080802'
p341
sg4
S'20080802\xc2\xa001:47 PM EDT'
p342
sg6
S'Syrian leader in Iran as nuclear deadline looms'
p343
sa(dp344
g2
S'http://www.reuters.com/article/sportsNews/idUSL207130620080802'
p345
sg4
S'20080802\xc2\xa001:38 PM EDT'
p346
sg6
S'Jelena Jankovic to take over as world number one'
p347
sa(dp348
g2
S'http://www.reuters.com/article/pressRelease/idUS44813+02-Aug-2008+PRN20080802'
p349
sg4
S'20080802\xc2\xa001:38 PM EDT'
p350
sg6
S'Change to Win Members Address DNC Platform Drafting Committee'
p351
sa(dp352
g2
S'http://www.reuters.com/article/pressRelease/idUS44800+02-Aug-2008+BW20080802'
p353
sg4
S'20080802\xc2\xa001:38 PM EDT'
p354
sg6
S'SpaceX Sets August 2 for Falcon 1 launch'
p355
sa(dp356
g2
S'http://www.reuters.com/article/pressRelease/idUS44746+02-Aug-2008+BW20080802'
p357
sg4
S'20080802\xc2\xa001:37 PM EDT'
p358
sg6
S'ADDING MULTIMEDIA SpaceX Conducts Full Thrust Firing of Falcon 9 Rocket'
p359
sa(dp360
g2
S'http://www.reuters.com/article/newsMaps/idUSL210828420080802'
p361
sg4
S'20080802\xc2\xa001:36 PM EDT'
p362
sg6
S'French towns ban 10-year-old bullfighting prodigy'
p363
sa(dp364
g2
S'http://www.reuters.com/article/pressRelease/idUS44482+02-Aug-2008+PRN20080802'
p365
sg4
S'20080802\xc2\xa001:30 PM EDT'
p366
sg6
S'Following Is a Test Release'
p367
sa(dp368
g2
S'http://www.reuters.com/article/newsMaps/idUSL29020620080802'
p369
sg4
S'20080802\xc2\xa001:21 PM EDT'
p370
sg6
S'Turkey says Kurdish rebels behind Istanbul bombs'
p371
sa(dp372
g2
S'http://www.reuters.com/article/latestCrisis/idUSL299050'
p373
sg4
S'20080802\xc2\xa001:18 PM EDT'
p374
sg6
S'S.Lanka military enters rebel capital, captures main town'
p375
sa(dp376
g2
S'http://www.reuters.com/article/latestCrisis/idUSL290206'
p377
sg4
S'20080802\xc2\xa001:16 PM EDT'
p378
sg6
S'Turkey says Kurdish rebels behind Istanbul bombs'
p379
sa(dp380
g2
S'http://www.reuters.com/article/pressRelease/idUS43618+02-Aug-2008+PRN20080802'
p381
sg4
S'20080802\xc2\xa001:09 PM EDT'
p382
sg6
S'Estimate of Annual HIV Incidence Increases to 56,300'
p383
sa(dp384
g2
S'http://www.reuters.com/article/pressRelease/idUS43608+02-Aug-2008+PRN20080802'
p385
sg4
S'20080802\xc2\xa001:08 PM EDT'
p386
sg6
S'New HIV Infection Figures from CDC Underscore Need for National AIDS Strategy for...'
p387
sa(dp388
g2
S'http://www.reuters.com/article/latestCrisis/idUSL295105'
p389
sg4
S'20080802\xc2\xa001:01 PM EDT'
p390
sg6
S'US soldiers charged over killing of Iraqi prisoner'
p391
sa(dp392
g2
S'http://www.reuters.com/article/pressRelease/idUS43349+02-Aug-2008+PRN20080802'
p393
sg4
S'20080802\xc2\xa001:00 PM EDT'
p394
sg6
S'Following Is a Test Release'
p395
sa(dp396
g2
S'http://www.reuters.com/article/olympicsNews/idUSL210212020080802'
p397
sg4
S'20080802\xc2\xa012:52 PM EDT'
p398
sg6
S"Cycling-Valverde's Olympic hopes rise after victory in Spain"
p399
sa(dp400
g2
S'http://www.reuters.com/article/businessNews/idUSL210483920080802'
p401
sg4
S'20080802\xc2\xa012:52 PM EDT'
p402
sg6
S'Carrefour denies report it looking for new chief'
p403
sa(dp404
g2
S'http://www.reuters.com/article/GCA-Olympics/idUSL247600020080802'
p405
sg4
S'20080802\xc2\xa012:50 PM EDT'
p406
sg6
S'Chinese Games to start with a big, big bang'
p407
sa(dp408
g2
S'http://www.reuters.com/article/politicsNews/idUSN0241777420080802'
p409
sg4
S'20080802\xc2\xa012:48 PM EDT'
p410
sg6
S'Obama says Bernanke, Paulson eye housing worries'
p411
sa(dp412
g2
S'http://www.reuters.com/article/GCA-Olympics/idUSL29170120080802'
p413
sg4
S'20080802\xc2\xa012:32 PM EDT'
p414
sg6
S'Beijing holds full rehearsal for opening of Games'
p415
sa(dp416
g2
S'http://www.reuters.com/article/pressRelease/idUS42205+02-Aug-2008+PRN20080802'
p417
sg4
S'20080802\xc2\xa012:30 PM EDT'
p418
sg6
S'Following Is a Test Release'
p419
sa(dp420
g2
S'http://www.reuters.com/article/scienceNews/idUSL148207720080802'
p421
sg4
S'20080802\xc2\xa012:27 PM EDT'
p422
sg6
S'Ancestor of T-Rex dinosaur unearthed in Poland'
p423
sa(dp424
g2
S'http://www.reuters.com/article/latestCrisis/idUSL2102138'
p425
sg4
S'20080802\xc2\xa012:23 PM EDT'
p426
sg6
S'Turkey detains three over dormitory collapse'
p427
sa(dp428
g2
S'http://www.reuters.com/article/homepageCrisis/idUSL2401834._CH_.2400'
p429
sg4
S'20080802\xc2\xa012:21 PM EDT'
p430
sg6
S'Somali ministers quit as government rift deepens'
p431
sa(dp432
g2
S'http://www.reuters.com/article/latestCrisis/idUSL2401834'
p433
sg4
S'20080802\xc2\xa012:21 PM EDT'
p434
sg6
S'Somali ministers quit as government rift deepens'
p435
sa(dp436
g2
S'http://www.reuters.com/article/worldNews/idUSISL17387020080802'
p437
sg4
S'20080802\xc2\xa012:19 PM EDT'
p438
sg6
S'FACTBOX: Security developments in Afghanistan'
p439
sa(dp440
g2
S'http://www.reuters.com/article/latestCrisis/idUSANW236241'
p441
sg4
S'20080802\xc2\xa012:18 PM EDT'
p442
sg6
S'FACTBOX-Security developments in Iraq, Aug 2'
p443
sa(dp444
g2
S'http://www.reuters.com/article/worldNews/idUSSHA22568720080802'
p445
sg4
S'20080802\xc2\xa012:15 PM EDT'
p446
sg6
S'Corrupt China official betrayed by leaky toilet'
p447
sa(dp448
g2
S'http://www.reuters.com/article/homepageCrisis/idUSL279875._CH_.2400'
p449
sg4
S'20080802\xc2\xa012:14 PM EDT'
p450
sg6
S'Georgia, S. Ossetia talk war after 6 die in clash'
p451
sa(dp452
g2
S'http://www.reuters.com/article/latestCrisis/idUSL279875'
p453
sg4
S'20080802\xc2\xa012:14 PM EDT'
p454
sg6
S'Georgia, S. Ossetia talk war after 6 die in clash'
p455
sa(dp456
g2
S'http://www.reuters.com/article/pressRelease/idUS41651+02-Aug-2008+PRN20080802'
p457
sg4
S'20080802\xc2\xa012:13 PM EDT'
p458
sg6
S"'The Critical and Missing Component of U.S. National Security Strategy'"
p459
sa(dp460
g2
S'http://www.reuters.com/article/pressRelease/idUS41145+02-Aug-2008+PRN20080802'
p461
sg4
S'20080802\xc2\xa012:00 PM EDT'
p462
sg6
S'Following Is a Test Release'
p463
sa(dp464
g2
S'http://www.reuters.com/article/rbssEnergyNews/idUSL23021520080802'
p465
sg4
S'20080802\xc2\xa011:51 AM EDT'
p466
sg6
S'UPDATE 2-Militant turf war kills three in Nigerian oil city'
p467
sa(dp468
g2
S'http://www.reuters.com/article/latestCrisis/idUSL230215'
p469
sg4
S'20080802\xc2\xa011:51 AM EDT'
p470
sg6
S'Militant turf war kills three in Nigerian oil city'
p471
sa(dp472
g2
S'http://www.reuters.com/article/latestCrisis/idUSL286606'
p473
sg4
S'20080802\xc2\xa011:44 AM EDT'
p474
sg6
S'Turkey says Kurdish rebels behind Istanbul bombing'
p475
sa(dp476
g2
S'http://www.reuters.com/article/latestCrisis/idUSL283708'
p477
sg4
S'20080802\xc2\xa011:40 AM EDT'
p478
sg6
S'CAR rebel group pulls out of peace process'
p479
sa(dp480
g2
S'http://www.reuters.com/article/pressRelease/idUS40031+02-Aug-2008+PRN20080802'
p481
sg4
S'20080802\xc2\xa011:34 AM EDT'
p482
sg6
S'A Statement From Larry Corey, MD, of the HIV Vaccine Trials Network Regarding the...'
p483
sa(dp484
g2
S'http://www.reuters.com/article/healthNews/idUSN3138696020080802'
p485
sg4
S'20080802\xc2\xa011:31 AM EDT'
p486
sg6
S'House asks FDA to turn over Vytorin study analysis: report'
p487
sa(dp488
g2
S'http://www.reuters.com/article/pressRelease/idUS39794+02-Aug-2008+PRN20080802'
p489
sg4
S'20080802\xc2\xa011:30 AM EDT'
p490
sg6
S'Following Is a Test Release'
p491
sa(dp492
g2
S'http://www.reuters.com/article/pressRelease/idUS39783+02-Aug-2008+BW20080802'
p493
sg4
S'20080802\xc2\xa011:30 AM EDT'
p494
sg6
S'Flowers Heritage Foundation to Present at International AIDS Conference in Mexico...'
p495
sa(dp496
g2
S'http://www.reuters.com/article/GCA-Olympics/idUSL27718120080802'
p497
sg4
S'20080802\xc2\xa011:28 AM EDT'
p498
sg6
S"No protests in athletes' village: IOC"
p499
sa(dp500
g2
S'http://www.reuters.com/article/GCA-Olympics/idUSL25490520080802'
p501
sg4
S'20080802\xc2\xa011:26 AM EDT'
p502
sg6
S'Clouds clear over Beijing as Web row eases'
p503
sa(dp504
g2
S'http://www.reuters.com/article/GCA-Olympics/idUSL245385120080802'
p505
sg4
S'20080802\xc2\xa011:26 AM EDT'
p506
sg6
S'IOC says it may have been naive on Web access'
p507
sa(dp508
g2
S'http://www.reuters.com/article/domesticNews/idUSGOR25497220080802'
p509
sg4
S'20080802\xc2\xa011:16 AM EDT'
p510
sg6
S'FACTBOX: AIDS infects 56,000 a year in U.S.'
p511
sa(dp512
g2
S'http://www.reuters.com/article/latestCrisis/idUSN02424013'
p513
sg4
S'20080802\xc2\xa011:12 AM EDT'
p514
sg6
S'FACTBOX-AIDS infects 56,000 a year in US, CDC says'
p515
sa(dp516
g2
S'http://www.reuters.com/article/innovationNews/idUSN0242150020080802'
p517
sg4
S'20080802\xc2\xa011:11 AM EDT'
p518
sg6
S'Going-private seen as option for CanWest: report'
p519
sa(dp520
g2
S'http://www.reuters.com/article/pressRelease/idUS39078+02-Aug-2008+BW20080802'
p521
sg4
S'20080802\xc2\xa011:11 AM EDT'
p522
sg6
S'CORRECTING and REPLACING Navajo Satellite Crisis: FCC Action Welcomed'
p523
sa(dp524
g2
S'http://www.reuters.com/article/worldNews/idUSL168473820080802'
p525
sg4
S'20080802\xc2\xa011:07 AM EDT'
p526
sg6
S'Iran ignores informal nuclear offer deadline'
p527
sa(dp528
g2
S'http://www.reuters.com/article/pressReleasesMolt/idUSL232317620080802'
p529
sg4
S'20080802\xc2\xa011:04 AM EDT'
p530
sg6
S'Porsche labor boss attacks ex-union head: report'
p531
sa(dp532
g2
S'http://www.reuters.com/article/pressRelease/idUS38781+02-Aug-2008+PRN20080802'
p533
sg4
S'20080802\xc2\xa011:00 AM EDT'
p534
sg6
S'Following Is a Test Release'
p535
sa(dp536
g2
S'http://www.reuters.com/article/asiaCrisis/idUSL287553'
p537
sg4
S'20080802\xc2\xa010:57 AM EDT'
p538
sg6
S'Two French aid workers freed in Afghanistan'
p539
sa(dp540
g2
S'http://www.reuters.com/article/politicsNews/idUSN0150607520080802'
p541
sg4
S'20080802\xc2\xa010:52 AM EDT'
p542
sg6
S'Obama "race card" controversy raises issue of trust'
p543
sa(dp544
g2
S'http://www.reuters.com/article/olympicsNews/idUSL255313020080802'
p545
sg4
S'20080802\xc2\xa010:47 AM EDT'
p546
sg6
S'WRAPUP 2-Olympics-Clouds clear over Beijing as Web row eases'
p547
sa(dp548
g2
S'http://www.reuters.com/article/worldNews/idUSBOM16125720080802'
p549
sg4
S'20080802\xc2\xa010:47 AM EDT'
p550
sg6
S'Pakistan to probe Kabul embassy bombing: India'
p551
sa(dp552
g2
S'http://www.reuters.com/article/sportsNews/idUSL27592920080802'
p553
sg4
S'20080802\xc2\xa010:43 AM EDT'
p554
sg6
S'IOC turn up the heat on the dope cheats'
p555
sa(dp556
g2
S'http://www.reuters.com/article/latestCrisis/idUSBOM161257'
p557
sg4
S'20080802\xc2\xa010:38 AM EDT'
p558
sg6
S'India says Pakistan to probe Kabul embassy bombing'
p559
sa(dp560
g2
S'http://www.reuters.com/article/latestCrisis/idUSL286782'
p561
sg4
S'20080802\xc2\xa010:35 AM EDT'
p562
sg6
S'Two French aid workers freed in Afghanistan'
p563
sa(dp564
g2
S'http://www.reuters.com/article/pressRelease/idUS37911+02-Aug-2008+PRN20080802'
p565
sg4
S'20080802\xc2\xa010:30 AM EDT'
p566
sg6
S'Following Is a Test Release'
p567
sa(dp568
g2
S'http://www.reuters.com/article/latestCrisis/idUSL2676469'
p569
sg4
S'20080802\xc2\xa010:27 AM EDT'
p570
sg6
S'Security service officer shot in south Russia'
p571
sa(dp572
g2
S'http://www.reuters.com/article/newsMaps/idUSBOM17614220080802'
p573
sg4
S'20080802\xc2\xa010:25 AM EDT'
p574
sg6
S'Pakistan to probe Indian embassy bombing: India'
p575
sa(dp576
g2
S'http://www.reuters.com/article/latestCrisis/idUSL282331'
p577
sg4
S'20080802\xc2\xa010:11 AM EDT'
p578
sg6
S'France assists Togo after floods kill 9, cut roads'
p579
sa(dp580
g2
S'http://www.reuters.com/article/latestCrisis/idUSN02414180'
p581
sg4
S'20080802\xc2\xa010:06 AM EDT'
p582
sg6
S'New estimates raise US AIDS infection rate 40 pct'
p583
sa(dp584
g2
S'http://www.reuters.com/article/pressRelease/idUS37067+02-Aug-2008+PRN20080802'
p585
sg4
S'20080802\xc2\xa010:06 AM EDT'
p586
sg6
S'Radio Address by President Bush to The Nation'
p587
sa(dp588
g2
S'http://www.reuters.com/article/pressRelease/idUS37058+02-Aug-2008+BW20080802'
p589
sg4
S'20080802\xc2\xa010:06 AM EDT'
p590
sg6
S'Radio Address by the President to the Nation'
p591
sa(dp592
g2
S'http://www.reuters.com/article/pressRelease/idUS37050+02-Aug-2008+PRN20080802'
p593
sg4
S'20080802\xc2\xa010:05 AM EDT'
p594
sg6
S'RNC: Obama vs. Obama on Offshore Drilling'
p595
sa(dp596
g2
S'http://www.reuters.com/article/pressRelease/idUS36852+02-Aug-2008+PRN20080802'
p597
sg4
S'20080802\xc2\xa010:00 AM EDT'
p598
sg6
S'Following Is a Test Release'
p599
sa(dp600
g2
S'http://www.reuters.com/article/latestCrisis/idUSBOM176142'
p601
sg4
S'20080802\xc2\xa009:50 AM EDT'
p602
sg6
S'India says Pakistan to probe Indian embassy bombing'
p603
sa(dp604
g2
S'http://www.reuters.com/article/newsMaps/idUSL27466920080802'
p605
sg4
S'20080802\xc2\xa009:49 AM EDT'
p606
sg6
S'Cattle raiders kill at least 30 in Kenya attack'
p607
sa(dp608
g2
S'http://www.reuters.com/article/latestCrisis/idUSISL155982'
p609
sg4
S'20080802\xc2\xa009:45 AM EDT'
p610
sg6
S'Roadside bomb kills 8 policemen in NW Pakistan'
p611
sa(dp612
g2
S'http://www.reuters.com/article/olympicsNews/idUSNB72308820080802'
p613
sg4
S'20080802\xc2\xa009:40 AM EDT'
p614
sg6
S'UPDATE 1-INTERVIEW-Olympics-Gymnastics-Comaneci was no victim'
p615
sa(dp616
g2
S'http://www.reuters.com/article/latestCrisis/idUSL274669'
p617
sg4
S'20080802\xc2\xa009:36 AM EDT'
p618
sg6
S'Cattle raiders kill at least 30 in Kenya attack'
p619
sa(dp620
g2
S'http://www.reuters.com/article/newsOne/idUSN0240960320080802'
p621
sg4
S'20080802\xc2\xa009:33 AM EDT'
p622
sg6
S'Michelle Yeoh brings kicks and poise to "Mummy"'
p623
sa(dp624
g2
S'http://www.reuters.com/article/pressRelease/idUS35965+02-Aug-2008+PRN20080802'
p625
sg4
S'20080802\xc2\xa009:30 AM EDT'
p626
sg6
S'Following Is a Test Release'
p627
sa(dp628
g2
S'http://www.reuters.com/article/latestCrisis/idUSISL173870'
p629
sg4
S'20080802\xc2\xa009:15 AM EDT'
p630
sg6
S'FACTBOX-Security developments in Afghanistan, Aug 2'
p631
sa(dp632
g2
S'http://www.reuters.com/article/GCA-Olympics/idUSL272939020080802'
p633
sg4
S'20080802\xc2\xa009:07 AM EDT'
p634
sg6
S'The importance of Yao in Beijing'
p635
sa(dp636
g2
S'http://www.reuters.com/article/pressRelease/idUS35331+02-Aug-2008+PRN20080802'
p637
sg4
S'20080802\xc2\xa009:00 AM EDT'
p638
sg6
S'Following Is a Test Release'
p639
sa(dp640
g2
S'http://www.reuters.com/article/domesticNews/idUSN0135345720080802'
p641
sg4
S'20080802\xc2\xa008:56 AM EDT'
p642
sg6
S'Scientist in anthrax case said to kill self'
p643
sa(dp644
g2
S'http://www.reuters.com/article/pressRelease/idUS35223+02-Aug-2008+PRN20080802'
p645
sg4
S'20080802\xc2\xa008:55 AM EDT'
p646
sg6
S"Hollywood's Elite Joins T-Mobile, Tony Hawk and Stone Temple Pilots at the Summer's..."
p647
sa(dp648
g2
S'http://www.reuters.com/article/latestCrisis/idUSISL244809'
p649
sg4
S'20080802\xc2\xa008:46 AM EDT'
p650
sg6
S'Pakistani Taliban deny Zawahri dead or wounded'
p651
sa(dp652
g2
S'http://www.reuters.com/article/newsMaps/idUSL245959720080802'
p653
sg4
S'20080802\xc2\xa008:46 AM EDT'
p654
sg6
S'Somali ministers quit as government rift deepens'
p655
sa(dp656
g2
S'http://www.reuters.com/article/rbssConsumerGoodsAndRetailNews/idUSL22979020080802'
p657
sg4
S'20080802\xc2\xa008:40 AM EDT'
p658
sg6
S'Germany set for long downturn, top economist says'
p659
sa(dp660
g2
S'http://www.reuters.com/article/rbssUtilitiesElectric/idUSL26136020080802'
p661
sg4
S'20080802\xc2\xa008:39 AM EDT'
p662
sg6
S'UPDATE 1-Areva, CAR secure deal to end Bakouma mine row'
p663
sa(dp664
g2
S'http://www.reuters.com/article/latestCrisis/idUSL258885'
p665
sg4
S'20080802\xc2\xa008:33 AM EDT'
p666
sg6
S"Catholics plan protests against Manila's Muslim deal"
p667
sa(dp668
g2
S'http://www.reuters.com/article/pressRelease/idUS34469+02-Aug-2008+PRN20080802'
p669
sg4
S'20080802\xc2\xa008:30 AM EDT'
p670
sg6
S'Following Is a Test Release'
p671
sa(dp672
g2
S'http://www.reuters.com/article/latestCrisis/idUSL223040'
p673
sg4
S'20080802\xc2\xa008:14 AM EDT'
p674
sg6
S'Turkish firefighters taking control of forest blaze'
p675
sa(dp676
g2
S'http://www.reuters.com/article/pressRelease/idUS34147+02-Aug-2008+PRN20080802'
p677
sg4
S'20080802\xc2\xa008:09 AM EDT'
p678
sg6
S'Video: Emirates Airline Makes Aviation History with Arrival of First Scheduled Airbus...'
p679
sa(dp680
g2
S'http://www.reuters.com/article/reutersComService_2_MOLT/idUSN1935785920080802'
p681
sg4
S'20080802\xc2\xa008:08 AM EDT'
p682
sg6
S'Mark Spitz makes splash about Beijing invite'
p683
sa(dp684
g2
S'http://www.reuters.com/article/GCA-Olympics/idUSL25054820080802'
p685
sg4
S'20080802\xc2\xa008:05 AM EDT'
p686
sg6
S'Chatterbox Chinese fans put off sharp shooters'
p687
sa(dp688
g2
S'http://www.reuters.com/article/GCA-Olympics/idUSL25363420080802'
p689
sg4
S'20080802\xc2\xa008:02 AM EDT'
p690
sg6
S'Bolt to chase sprint double in Beijing'
p691
sa(dp692
g2
S'http://www.reuters.com/article/pressRelease/idUS33928+02-Aug-2008+PRN20080802'
p693
sg4
S'20080802\xc2\xa008:00 AM EDT'
p694
sg6
S'Following Is a Test Release'
p695
sa(dp696
g2
S'http://www.reuters.com/article/pressRelease/idUS33923+02-Aug-2008+BW20080802'
p697
sg4
S'20080802\xc2\xa008:00 AM EDT'
p698
sg6
S'Navajo Satellite Crisis: FCC Action Welcomed'
p699
sa(dp700
g2
S'http://www.reuters.com/article/homepageCrisis/idUSL2459597._CH_.2400'
p701
sg4
S'20080802\xc2\xa007:53 AM EDT'
p702
sg6
S'Somali ministers quit as government rift deepens'
p703
sa(dp704
g2
S'http://www.reuters.com/article/latestCrisis/idUSL2459597'
p705
sg4
S'20080802\xc2\xa007:53 AM EDT'
p706
sg6
S'Somali ministers quit as government rift deepens'
p707
sa(dp708
g2
S'http://www.reuters.com/article/homepageCrisis/idUSL264823._CH_.2400'
p709
sg4
S'20080802\xc2\xa007:53 AM EDT'
p710
sg6
S'Six dead in Georgia, S. Ossetia shootout'
p711
sa(dp712
g2
S'http://www.reuters.com/article/latestCrisis/idUSL264823'
p713
sg4
S'20080802\xc2\xa007:53 AM EDT'
p714
sg6
S'Six dead in Georgia, S. Ossetia shootout'
p715
sa(dp716
g2
S'http://www.reuters.com/article/latestCrisis/idUSL1634659'
p717
sg4
S'20080802\xc2\xa007:52 AM EDT'
p718
sg6
S'Six dead in Georgia, S. Ossetia shootout'
p719
sa(dp720
g2
S'http://www.reuters.com/article/ousiv/idUSBNG5428920080802'
p721
sg4
S'20080802\xc2\xa007:50 AM EDT'
p722
sg6
S'IndyMac Bancorp files for Chapter 7 bankruptcy'
p723
sa(dp724
g2
S'http://www.reuters.com/article/newsOne/idUSSYD17135820080802'
p725
sg4
S'20080802\xc2\xa007:43 AM EDT'
p726
sg6
S'Qantas aborts Manila flight after hydraulic leak'
p727
sa(dp728
g2
S'http://www.reuters.com/article/rbssIndustryMaterialsUtilitiesNews/idUSL25614020080802'
p729
sg4
S'20080802\xc2\xa007:39 AM EDT'
p730
sg6
S'Areva, CAR secure deal to end Bakouma mine row'
p731
sa(dp732
g2
S'http://www.reuters.com/article/scienceNews/idUSL06431620080802'
p733
sg4
S'20080802\xc2\xa007:35 AM EDT'
p734
sg6
S'Ancient Greeks used "computer" to set Olympics date'
p735
sa(dp736
g2
S'http://www.reuters.com/article/newsOne/idUSISL30688420080802'
p737
sg4
S'20080802\xc2\xa007:32 AM EDT'
p738
sg6
S'Pakistani Taliban denies Zawahri dead or hurt'
p739
sa(dp740
g2
S'http://www.reuters.com/article/pressRelease/idUS32979+02-Aug-2008+PRN20080802'
p741
sg4
S'20080802\xc2\xa007:30 AM EDT'
p742
sg6
S'Following Is a Test Release'
p743
sa(dp744
g2
S'http://www.reuters.com/article/GCA-Olympics/idUSL25308020080802'
p745
sg4
S'20080802\xc2\xa007:15 AM EDT'
p746
sg6
S'CAS dismisses Azerbaijan hockey appeal against Spain'
p747
sa(dp748
g2
S'http://www.reuters.com/article/GCA-Olympics/idUSPEK20710920080802'
p749
sg4
S'20080802\xc2\xa007:15 AM EDT'
p750
sg6
S'China\'s darling Liu prepares to "fly"'
p751
sa(dp752
g2
S'http://www.reuters.com/article/GCA-Olympics/idUSPEK20429320080802'
p753
sg4
S'20080802\xc2\xa007:13 AM EDT'
p754
sg6
S'Zhang looks on formidable route to table tennis gold'
p755
sa(dp756
g2
S'http://www.reuters.com/article/GCA-Olympics/idUSPEK27003020080802'
p757
sg4
S'20080802\xc2\xa007:12 AM EDT'
p758
sg6
S'"Springboard diva" Guo prepares for final dive'
p759
sa(dp760
g2
S'http://www.reuters.com/article/latestCrisis/idUSL028448'
p761
sg4
S'20080802\xc2\xa007:00 AM EDT'
p762
sg6
S'Security service officer killed in south Russia'
p763
sa(dp764
g2
S'http://www.reuters.com/article/pressRelease/idUS32131+02-Aug-2008+PRN20080802'
p765
sg4
S'20080802\xc2\xa007:00 AM EDT'
p766
sg6
S'Following Is a Test Release'
p767
sa(dp768
g2
S'http://www.reuters.com/article/GCA-Olympics/idUSL258335220080802'
p769
sg4
S'20080802\xc2\xa006:54 AM EDT'
p770
sg6
S"Jeannie's still riding high at 49"
p771
sa(dp772
g2
S'http://www.reuters.com/article/newsMaps/idUST20694620080802'
p773
sg4
S'20080802\xc2\xa006:51 AM EDT'
p774
sg6
S'U.S. submarine radiation leak raises concern in Japan'
p775
sa(dp776
g2
S'http://www.reuters.com/article/rbssUtilitiesNaturalGas/idUSL24033220080802'
p777
sg4
S'20080802\xc2\xa006:49 AM EDT'
p778
sg6
S'Gas Natural buys first 9.9 pct of Fenosa - reports'
p779
sa(dp780
g2
S'http://www.reuters.com/article/latestCrisis/idUST231848'
p781
sg4
S'20080802\xc2\xa006:48 AM EDT'
p782
sg6
S'US submarine radiation leak raises concern in Japan'
p783
sa(dp784
g2
S'http://www.reuters.com/article/olympicsNews/idUSPEK23237220080802'
p785
sg4
S'20080802\xc2\xa006:44 AM EDT'
p786
sg6
S'FEATURE-Olympics-Table tennis-Success comes naturally for China'
p787
sa(dp788
g2
S'http://www.reuters.com/article/pressRelease/idUS31318+02-Aug-2008+PRN20080802'
p789
sg4
S'20080802\xc2\xa006:30 AM EDT'
p790
sg6
S'Following Is a Test Release'
p791
sa(dp792
g2
S'http://www.reuters.com/article/GCA-Olympics/idUSL24289720080802'
p793
sg4
S'20080802\xc2\xa006:21 AM EDT'
p794
sg6
S"Barcelona appeal to CAS over Messi's release"
p795
sa(dp796
g2
S'http://www.reuters.com/article/rbssEnergyNews/idUSL24692220080802'
p797
sg4
S'20080802\xc2\xa006:12 AM EDT'
p798
sg6
S'Militant turf war spreads to main Nigerian oil city'
p799
sa(dp800
g2
S'http://www.reuters.com/article/latestCrisis/idUSL246922'
p801
sg4
S'20080802\xc2\xa006:12 AM EDT'
p802
sg6
S'Militant turf war spreads to main Nigerian oil city'
p803
sa(dp804
g2
S'http://www.reuters.com/article/latestCrisis/idUST211757'
p805
sg4
S'20080802\xc2\xa006:10 AM EDT'
p806
sg6
S'Japan ministers seek support for naval mission'
p807
sa(dp808
g2
S'http://www.reuters.com/article/companyNewsAndPR/idUSDHA13936620080802'
p809
sg4
S'20080802\xc2\xa006:06 AM EDT'
p810
sg6
S'REFILE-Bangladesh to drop case against U.S. energy firm'
p811
sa(dp812
g2
S'http://www.reuters.com/article/pressRelease/idUS30660+02-Aug-2008+PRN20080802'
p813
sg4
S'20080802\xc2\xa006:00 AM EDT'
p814
sg6
S'Following Is a Test Release'
p815
sa(dp816
g2
S'http://www.reuters.com/article/pressRelease/idUS30628+02-Aug-2008+PRN20080802'
p817
sg4
S'20080802\xc2\xa005:59 AM EDT'
p818
sg6
S'GOOD MORNING -- August 02, 2008'
p819
sa(dp820
g2
S'http://www.reuters.com/article/reutersComService_2_MOLT/idUSCOO23500220080802'
p821
sg4
S'20080802\xc2\xa005:44 AM EDT'
p822
sg6
S'Australia determined to beat the heat'
p823
sa(dp824
g2
S'http://www.reuters.com/article/olympicsNews/idUSL269553620080802'
p825
sg4
S'20080802\xc2\xa005:43 AM EDT'
p826
sg6
S'Olympics-IOC picks winter Youth Games shortlist, donates funds'
p827
sa(dp828
g2
S'http://www.reuters.com/article/topNews/idUSDAH16809120080802'
p829
sg4
S'20080802\xc2\xa005:39 AM EDT'
p830
sg6
S'Iran, ahead of deadline, says will resist foes'
p831
sa(dp832
g2
S'http://www.reuters.com/article/olympicsNews/idUSB3767720080802'
p833
sg4
S'20080802\xc2\xa005:38 AM EDT'
p834
sg6
S'Olympics-Soccer-Australia determined to beat the heat'
p835
sa(dp836
g2
S'http://www.reuters.com/article/pressRelease/idUS29867+02-Aug-2008+PRN20080802'
p837
sg4
S'20080802\xc2\xa005:30 AM EDT'
p838
sg6
S'Following Is a Test Release'
p839
sa(dp840
g2
S'http://www.reuters.com/article/newsMaps/idUSL21362720080802'
p841
sg4
S'20080802\xc2\xa005:25 AM EDT'
p842
sg6
S'Detainee population in U.S. custody in Iraq falls'
p843
sa(dp844
g2
S'http://www.reuters.com/article/GCA-Olympics/idUSL28626920080802'
p845
sg4
S'20080802\xc2\xa005:18 AM EDT'
p846
sg6
S'Foreign volunteers smile their way to brotherhood'
p847
sa(dp848
g2
S'http://www.reuters.com/article/GCA-Olympics/idUSL22272520080802'
p849
sg4
S'20080802\xc2\xa005:01 AM EDT'
p850
sg6
S'Romanian athletes retire amid doping claims'
p851
sa(dp852
g2
S'http://www.reuters.com/article/pressRelease/idUS29210+02-Aug-2008+PRN20080802'
p853
sg4
S'20080802\xc2\xa005:00 AM EDT'
p854
sg6
S'Following Is a Test Release'
p855
sa(dp856
g2
S'http://www.reuters.com/article/newsMaps/idUSSP14728720080802'
p857
sg4
S'20080802\xc2\xa004:54 AM EDT'
p858
sg6
S'South Asia leaders urge joint terrorism fight'
p859
sa(dp860
g2
S'http://www.reuters.com/article/companyNewsAndPR/idUSSHA21558220080802'
p861
sg4
S'20080802\xc2\xa004:54 AM EDT'
p862
sg6
S"China's Alibaba says foreign trade growth slowing"
p863
sa(dp864
g2
S'http://www.reuters.com/article/olympicsNews/idUSSP17367120080802'
p865
sg4
S'20080802\xc2\xa004:52 AM EDT'
p866
sg6
S'Briefs-Philippines President Arroyo sets gold medal bounty'
p867
sa(dp868
g2
S'http://www.reuters.com/article/latestCrisis/idUST207351'
p869
sg4
S'20080802\xc2\xa004:40 AM EDT'
p870
sg6
S'Japan ministers seek support for naval mission'
p871
sa(dp872
g2
S'http://www.reuters.com/article/latestCrisis/idUSBOM171240'
p873
sg4
S'20080802\xc2\xa004:37 AM EDT'
p874
sg6
S'South Asia leaders urge joint terrorism fight'
p875
sa(dp876
g2
S'http://www.reuters.com/article/pressRelease/idUS28417+02-Aug-2008+PRN20080802'
p877
sg4
S'20080802\xc2\xa004:30 AM EDT'
p878
sg6
S'Following Is a Test Release'
p879
sa(dp880
g2
S'http://www.reuters.com/article/GCA-Olympics/idUSL21720720080802'
p881
sg4
S'20080802\xc2\xa004:30 AM EDT'
p882
sg6
S'IOC feels media heat on Internet restrictions'
p883
sa(dp884
g2
S'http://www.reuters.com/article/newsMaps/idUSBOM28172120080802'
p885
sg4
S'20080802\xc2\xa004:26 AM EDT'
p886
sg6
S'Karzai says terrorism gaining deep roots in Pakistan'
p887
sa(dp888
g2
S'http://www.reuters.com/article/latestCrisis/idUSL222250'
p889
sg4
S'20080802\xc2\xa004:12 AM EDT'
p890
sg6
S'Hamas officer killed in Gaza clashes'
p891
sa(dp892
g2
S'http://www.reuters.com/article/latestCrisis/idUSL217108'
p893
sg4
S'20080802\xc2\xa004:11 AM EDT'
p894
sg6
S'Kurdish rebel clash kills 5 in Turkey - sources'
p895
sa(dp896
g2
S'http://www.reuters.com/article/pressRelease/idUS27705+02-Aug-2008+PRN20080802'
p897
sg4
S'20080802\xc2\xa004:00 AM EDT'
p898
sg6
S'Following Is a Test Release'
p899
sa(dp900
g2
S'http://www.reuters.com/article/rbssITServicesConsulting/idUSSHA20846920080802'
p901
sg4
S'20080802\xc2\xa003:56 AM EDT'
p902
sg6
S'China urges more power conservation amid shortage'
p903
sa(dp904
g2
S'http://www.reuters.com/article/sportsNews/idUSL272397020080802'
p905
sg4
S'20080802\xc2\xa003:36 AM EDT'
p906
sg6
S'U.S. relay team stripped of gold'
p907
sa(dp908
g2
S'http://www.reuters.com/article/latestCrisis/idUSBOM281721'
p909
sg4
S'20080802\xc2\xa003:36 AM EDT'
p910
sg6
S'Karzai says terrorism gaining deep roots in Pakistan'
p911
sa(dp912
g2
S'http://www.reuters.com/article/pressRelease/idUS26849+02-Aug-2008+PRN20080802'
p913
sg4
S'20080802\xc2\xa003:30 AM EDT'
p914
sg6
S'Following Is a Test Release'
p915
sa(dp916
g2
S'http://www.reuters.com/article/latestCrisis/idUSL211358'
p917
sg4
S'20080802\xc2\xa003:25 AM EDT'
p918
sg6
S'Major Turkish forest fire spreads in tourism region'
p919
sa(dp920
g2
S'http://www.reuters.com/article/GCA-Olympics/idUSL2502820080802'
p921
sg4
S'20080802\xc2\xa003:23 AM EDT'
p922
sg6
S'Hardy withdraws after positive test'
p923
sa(dp924
g2
S'http://www.reuters.com/article/pressRelease/idUS26185+02-Aug-2008+PRN20080802'
p925
sg4
S'20080802\xc2\xa003:00 AM EDT'
p926
sg6
S'Following Is a Test Release'
p927
sa(dp928
g2
S'http://www.reuters.com/article/pressRelease/idUS25651+02-Aug-2008+PRN20080802'
p929
sg4
S'20080802\xc2\xa002:30 AM EDT'
p930
sg6
S'Following Is a Test Release'
p931
sa(dp932
g2
S'http://www.reuters.com/article/pressRelease/idUS25648+02-Aug-2008+PRN20080802'
p933
sg4
S'20080802\xc2\xa002:30 AM EDT'
p934
sg6
S'Alibaba.com Helps Small and Medium Businesses Sell Direct to China'
p935
sa(dp936
g2
S'http://www.reuters.com/article/pressRelease/idUS25487+02-Aug-2008+PRN20080802'
p937
sg4
S'20080802\xc2\xa002:19 AM EDT'
p938
sg6
S"Olympic Reporters' Guide to Labor Camps Published"
p939
sa(dp940
g2
S'http://www.reuters.com/article/GCA-Olympics/idUSPEK13112120080802'
p941
sg4
S'20080802\xc2\xa002:14 AM EDT'
p942
sg6
S"China's 'Super Dan' does it his way"
p943
sa(dp944
g2
S'http://www.reuters.com/article/rbssIndustryMaterialsUtilitiesNews/idUSJAK18709420080802'
p945
sg4
S'20080802\xc2\xa002:05 AM EDT'
p946
sg6
S"Indonesia Antam's Q2 sales slip 5 pct as nickel output falls"
p947
sa(dp948
g2
S'http://www.reuters.com/article/pressRelease/idUS25105+02-Aug-2008+PRN20080802'
p949
sg4
S'20080802\xc2\xa002:00 AM EDT'
p950
sg6
S'Following Is a Test Release'
p951
sa(dp952
g2
S'http://www.reuters.com/article/pressRelease/idUS25101+02-Aug-2008+BW20080802'
p953
sg4
S'20080802\xc2\xa002:00 AM EDT'
p954
sg6
S'Frost & Sullivan Honours TransPharma Medical for its Innovative ViaDerm Drug Delivery...'
p955
sa(dp956
g2
S'http://www.reuters.com/article/pressRelease/idUS25042+02-Aug-2008+PRN20080802'
p957
sg4
S'20080802\xc2\xa001:55 AM EDT'
p958
sg6
S'Global Internet Freedom Consortium (GIFC) Offers China-Based Reporters Software to...'
p959
sa(dp960
g2
S'http://www.reuters.com/article/GCA-Olympics/idUST20529420080802'
p961
sg4
S'20080802\xc2\xa001:54 AM EDT'
p962
sg6
S'German Mikitenko ruled out of marathon'
p963
sa(dp964
g2
S'http://www.reuters.com/article/sportsNews/idUSB58586420080802'
p965
sg4
S'20080802\xc2\xa001:52 AM EDT'
p966
sg6
S'Hunter helps Angels edge Yankees'
p967
sa(dp968
g2
S'http://www.reuters.com/article/pressRelease/idUS24709+02-Aug-2008+BW20080802'
p969
sg4
S'20080802\xc2\xa001:36 AM EDT'
p970
sg6
S'SpaceX Conducts Full Thrust Firing of Falcon 9 Rocket'
p971
sa(dp972
g2
S'http://www.reuters.com/article/pressRelease/idUS24631+02-Aug-2008+PRN20080802'
p973
sg4
S'20080802\xc2\xa001:30 AM EDT'
p974
sg6
S'Following Is a Test Release'
p975
sa(dp976
g2
S'http://www.reuters.com/article/latestCrisis/idUSSP133085'
p977
sg4
S'20080802\xc2\xa001:27 AM EDT'
p978
sg6
S'India, Pakistan premiers to meet as relations dip'
p979
sa(dp980
g2
S'http://www.reuters.com/article/pressRelease/idUS24159+02-Aug-2008+PRN20080802'
p981
sg4
S'20080802\xc2\xa001:00 AM EDT'
p982
sg6
S'Following Is a Test Release'
p983
sa(dp984
g2
S'http://www.reuters.com/article/olympicsNews/idUSN1029534220080802'
p985
sg4
S'20080802\xc2\xa012:49 AM EDT'
p986
sg6
S'FEATURE-Olympics-War vets thriving in Paralympic field of battle'
p987
sa(dp988
g2
S'http://www.reuters.com/article/sportsNews/idUSL949122220080802'
p989
sg4
S'20080802\xc2\xa012:46 AM EDT'
p990
sg6
S'Jankovic blows second chance to top rankings'
p991
sa(dp992
g2
S'http://www.reuters.com/article/domesticNews/idUSHAN5144620080802'
p993
sg4
S'20080802\xc2\xa012:41 AM EDT'
p994
sg6
S'Vietnam deports alleged U.S. child abuser'
p995
sa(dp996
g2
S'http://www.reuters.com/article/pressRelease/idUS23782+02-Aug-2008+PNW20080802'
p997
sg4
S'20080802\xc2\xa012:39 AM EDT'
p998
sg6
S'Investor Alert: KGS Urges SemGroup Energy Partners, L.P. Non-U.S. Shareholders, and...'
p999
sa(dp1000
g2
S'http://www.reuters.com/article/pressRelease/idUS23643+02-Aug-2008+PRN20080802'
p1001
sg4
S'20080802\xc2\xa012:30 AM EDT'
p1002
sg6
S'Following Is a Test Release'
p1003
sa(dp1004
g2
S'http://www.reuters.com/article/rbssIndustryMaterialsUtilitiesNews/idUSBOM14004320080802'
p1005
sg4
S'20080802\xc2\xa012:28 AM EDT'
p1006
sg6
S"India's Ambuja Cements July shipments down 1 pct y/y"
p1007
sa(dp1008
g2
S'http://www.reuters.com/article/latestCrisis/idUSSP147287'
p1009
sg4
S'20080802\xc2\xa012:24 AM EDT'
p1010
sg6
S'India-Pakistan unease hangs heavy over South Asia summit'
p1011
sa(dp1012
g2
S'http://www.reuters.com/article/GCA-Olympics/idUSL212754220080802'
p1013
sg4
S'20080802\xc2\xa012:11 AM EDT'
p1014
sg6
S'"Chinglish" thriving at Games, linguists say'
p1015
sa(dp1016
g2
S'http://www.reuters.com/article/pressRelease/idUS23322+02-Aug-2008+BW20080802'
p1017
sg4
S'20080802\xc2\xa012:11 AM EDT'
p1018
sg6
S'H.I.G. Capital Completes Sale of Stream Holdings'
p1019
sa(dp1020
g2
S'http://www.reuters.com/article/pressRelease/idUS22816+02-Aug-2008+PRN20080802'
p1021
sg4
S'20080802\xc2\xa012:00 AM EDT'
p1022
sg6
S'Following Is a Test Release'
p1023
sa(dp1024
g2
S'http://www.reuters.com/news/video/videoStory?storyID=ftpo1214513654773'
p1025
sg4
S'20080802\xc2\xa007:39 PM EDT'
p1026
sg6
S'Banned internet olympic row'
p1027
sa(dp1028
g2
S'http://www.reuters.com/news/video/videoStory?storyID=ftpo1214513654768'
p1029
sg4
S'20080802\xc2\xa007:26 PM EDT'
p1030
sg6
S'Olympic fireworks over Beijing'
p1031
sa(dp1032
g2
S'http://www.reuters.com/news/video/videoStory?storyID=WAO1213660414663'
p1033
sg4
S'20080802\xc2\xa001:08 PM EDT'
p1034
sg6
S"China's Olympic charm school"
p1035
sa(dp1036
g2
S'http://www.reuters.com/news/video/videoStory?storyID=ftpo1214513654753'
p1037
sg4
S'20080802\xc2\xa012:44 PM EDT'
p1038
sg6
S'People missing in Turkish fires'
p1039
sa(dp1040
g2
S'http://www.reuters.com/news/video/videoStory?storyID=WAO1213660414658'
p1041
sg4
S'20080802\xc2\xa012:42 PM EDT'
p1042
sg6
S'Deadly shootout in South Ossetia'
p1043
sa(dp1044
g2
S'http://www.reuters.com/news/video/videoStory?storyID=ftpo1214513654748'
p1045
sg4
S'20080802\xc2\xa012:37 PM EDT'
p1046
sg6
S'SAsian battle cry against terrorism'
p1047
sa(dp1048
g2
S'http://www.reuters.com/news/video/videoStory?storyID=WAO1213660414653'
p1049
sg4
S'20080802\xc2\xa012:34 PM EDT'
p1050
sg6
S'Pakistan police die in explosion'
p1051
sa(dp1052
g2
S'http://www.reuters.com/news/video/videoStory?storyID=WAO1213660414648'
p1053
sg4
S'20080802\xc2\xa012:16 PM EDT'
p1054
sg6
S'Movie madness in Zanzibar'
p1055
sa(dp1056
g2
S'http://www.reuters.com/news/video/videoStory?storyID=WAO1213660414643'
p1057
sg4
S'20080802\xc2\xa011:23 AM EDT'
p1058
sg6
S'Carpenter uses feet not hands'
p1059
sa(dp1060
g2
S'http://www.reuters.com/news/video/videoStory?storyID=WAO1213660414638'
p1061
sg4
S'20080802\xc2\xa011:02 AM EDT'
p1062
sg6
S"Algeria's hidden beauty spot"
p1063
sa(dp1064
g2
S'http://www.reuters.com/news/video/videoStory?storyID=WAO1213660414633'
p1065
sg4
S'20080802\xc2\xa010:01 AM EDT'
p1066
sg6
S'France: Illegal immigrants strike'
p1067
sa(dp1068
g2
S'http://www.reuters.com/news/video/videoStory?storyID=ftpo1214513654738'
p1069
sg4
S'20080802\xc2\xa009:36 AM EDT'
p1070
sg6
S'Notorious ETA prisoner freed'
p1071
sa(dp1072
g2
S'http://www.reuters.com/news/video/videoStory?storyID=WAO1213660414621'
p1073
sg4
S'20080802\xc2\xa007:38 AM EDT'
p1074
sg6
S'A whale of a time on Bondi Beach'
p1075
sa(dp1076
g2
S'http://www.reuters.com/news/video/videoStory?storyID=ftpo1214513654728'
p1077
sg4
S'20080802\xc2\xa006:30 AM EDT'
p1078
sg6
S'IOC execs take up Games issues'
p1079
sa(dp1080
g2
S'http://www.reuters.com/news/video/videoStory?storyID=ftpo1214513654723'
p1081
sg4
S'20080802\xc2\xa006:10 AM EDT'
p1082
sg6
S"China's Olympic weather worries"
p1083
sa(dp1084
g2
S'http://www.reuters.com/news/video/videoStory?storyID=WAO1213660414597'
p1085
sg4
S'20080802\xc2\xa004:28 AM EDT'
p1086
sg6
S"Music of the film 'Hijack' released"
p1087
sa.