(lp0
(dp1
S'href'
p2
S'http://www.reuters.com/article/artsNews/idUSLR13523420080914'
p3
sS'ts'
p4
S'20080913\xc2\xa011:45 PM EDT'
p5
sS'title'
p6
S'Morocco taps African roots with Gnawa music revival'
p7
sa(dp8
g2
S'http://www.reuters.com/article/worldNews/idUSSIN21470920080914'
p9
sg4
S'20080913\xc2\xa011:40 PM EDT'
p10
sg6
S"New breed of elite prostitutes cater to India's rich"
p11
sa(dp12
g2
S'http://www.reuters.com/article/rbssEngineeringConstruction/idUSSIN21507620080914'
p13
sg4
S'20080913\xc2\xa011:34 PM EDT'
p14
sg6
S'Singapore Keppel units to buy waste plant for $322mln'
p15
sa(dp16
g2
S'http://www.reuters.com/article/pressRelease/idUS15210+14-Sep-2008+PRN20080914'
p17
sg4
S'20080913\xc2\xa011:30 PM EDT'
p18
sg6
S'Following Is a Test Release'
p19
sa(dp20
g2
S'http://www.reuters.com/article/newsOne/idUSN1247424220080914'
p21
sg4
S'20080913\xc2\xa011:21 PM EDT'
p22
sg6
S'L.A. train crash kills 25; human error blamed'
p23
sa(dp24
g2
S'http://www.reuters.com/article/BROKER/idUSLE46379420080914'
p25
sg4
S'20080913\xc2\xa011:14 PM EDT'
p26
sg6
S'PRESS DIGEST - British business - Sept 14'
p27
sa(dp28
g2
S'http://www.reuters.com/article/bondsNews/idUSN1341221320080914'
p29
sg4
S'20080913\xc2\xa011:11 PM EDT'
p30
sg6
S'UPDATE 5-L.A. train crash kills 25; human error blamed'
p31
sa(dp32
g2
S'http://www.reuters.com/article/latestCrisis/idUSN13412213'
p33
sg4
S'20080913\xc2\xa011:11 PM EDT'
p34
sg6
S'L.A. train crash kills 25; human error blamed'
p35
sa(dp36
g2
S'http://www.reuters.com/article/bondsNews/idUSN1344575720080914'
p37
sg4
S'20080913\xc2\xa011:01 PM EDT'
p38
sg6
S'WRAPUP 18-Hurricane Ike strikes at heart of Texas oil wealth'
p39
sa(dp40
g2
S'http://www.reuters.com/article/latestCrisis/idUSN13445757'
p41
sg4
S'20080913\xc2\xa011:01 PM EDT'
p42
sg6
S'Hurricane Ike strikes at heart of Texas oil wealth'
p43
sa(dp44
g2
S'http://www.reuters.com/article/pressRelease/idUS14480+14-Sep-2008+PRN20080914'
p45
sg4
S'20080913\xc2\xa011:00 PM EDT'
p46
sg6
S'Following Is a Test Release'
p47
sa(dp48
g2
S'http://www.reuters.com/article/mediaNews/idUSN1342806420080914'
p49
sg4
S'20080913\xc2\xa010:42 PM EDT'
p50
sg6
S"UPDATE 1-'The Simpsons' wins 10th best cartoon Emmy"
p51
sa(dp52
g2
S'http://www.reuters.com/article/pressRelease/idUS13710+14-Sep-2008+PRN20080914'
p53
sg4
S'20080913\xc2\xa010:30 PM EDT'
p54
sg6
S'Following Is a Test Release'
p55
sa(dp56
g2
S'http://www.reuters.com/article/GCA-Gustav/idUSSP35361220080914'
p57
sg4
S'20080913\xc2\xa010:25 PM EDT'
p58
sg6
S'Damage by Hurricane Ike force Texans-Ravens to postpone game'
p59
sa(dp60
g2
S'http://www.reuters.com/article/pressRelease/idUS13372+14-Sep-2008+PRN20080914'
p61
sg4
S'20080913\xc2\xa010:22 PM EDT'
p62
sg6
S'Southwest Airlines Resumes Dallas Love Service at 5 P.M. CT; Limited Operations from...'
p63
sa(dp64
g2
S'http://www.reuters.com/article/newsMaps/idUSLE46145820080914'
p65
sg4
S'20080913\xc2\xa010:16 PM EDT'
p66
sg6
S'Hamas backs reconciliation but rejects pressure'
p67
sa(dp68
g2
S'http://www.reuters.com/article/newsMaps/idUSPEK33057420080914'
p69
sg4
S'20080913\xc2\xa010:02 PM EDT'
p70
sg6
S'Death toll from China mine mudslide climbs to 254'
p71
sa(dp72
g2
S'http://www.reuters.com/article/pressRelease/idUS12868+14-Sep-2008+PRN20080914'
p73
sg4
S'20080913\xc2\xa010:00 PM EDT'
p74
sg6
S'Following Is a Test Release'
p75
sa(dp76
g2
S'http://www.reuters.com/article/homepageCrisis/idUSPEK330574._CH_.2400'
p77
sg4
S'20080913\xc2\xa009:55 PM EDT'
p78
sg6
S'Death toll from China mine mudslide climbs to 254'
p79
sa(dp80
g2
S'http://www.reuters.com/article/americasCrisis/idUSPEK330574'
p81
sg4
S'20080913\xc2\xa009:55 PM EDT'
p82
sg6
S'Death toll from China mine mudslide climbs to 254'
p83
sa(dp84
g2
S'http://www.reuters.com/article/domesticNews/idUSN1248432920080914'
p85
sg4
S'20080913\xc2\xa009:49 PM EDT'
p86
sg6
S'Solo in Nevada, Palin draws big crowd'
p87
sa(dp88
g2
S'http://www.reuters.com/article/companyNewsAndPR/idUSN1342212320080914'
p89
sg4
S'20080913\xc2\xa009:45 PM EDT'
p90
sg6
S'UPDATE 1-Solo in Nevada, Palin draws big crowd'
p91
sa(dp92
g2
S'http://www.reuters.com/article/pressRelease/idUS12320+14-Sep-2008+GNW20080914'
p93
sg4
S'20080913\xc2\xa009:31 PM EDT'
p94
sg6
S'CenterPoint Energy Begins Power Restoration and Damage Assessment Following Hurricane...'
p95
sa(dp96
g2
S'http://www.reuters.com/article/pressRelease/idUS12284+14-Sep-2008+PRN20080914'
p97
sg4
S'20080913\xc2\xa009:30 PM EDT'
p98
sg6
S'Following Is a Test Release'
p99
sa(dp100
g2
S'http://www.reuters.com/article/latestCrisis/idUSLE154677'
p101
sg4
S'20080913\xc2\xa009:23 PM EDT'
p102
sg6
S'Russian plane crashes, all 87 on board feared dead'
p103
sa(dp104
g2
S'http://www.reuters.com/article/latestCrisis/idUSLE463005'
p105
sg4
S'20080913\xc2\xa009:18 PM EDT'
p106
sg6
S'Russian plane crashes, all 87 on board feared dead'
p107
sa(dp108
g2
S'http://www.reuters.com/article/newsMaps/idUSN1340057920080914'
p109
sg4
S'20080913\xc2\xa009:09 PM EDT'
p110
sg6
S'Bolivia says will arrest governor after killings'
p111
sa(dp112
g2
S'http://www.reuters.com/article/latestCrisis/idUSN13400579'
p113
sg4
S'20080913\xc2\xa009:04 PM EDT'
p114
sg6
S'Bolivia says will arrest governor after killings'
p115
sa(dp116
g2
S'http://www.reuters.com/article/pressRelease/idUS11659+14-Sep-2008+PRN20080914'
p117
sg4
S'20080913\xc2\xa009:00 PM EDT'
p118
sg6
S'Following Is a Test Release'
p119
sa(dp120
g2
S'http://www.reuters.com/article/privateEquityFinancialServicesAndRealEstate/idUSN1330411020080914'
p121
sg4
S'20080913\xc2\xa008:48 PM EDT'
p122
sg6
S'WRAPUP 3-Lehman fate in balance after 2nd day of emergency talks'
p123
sa(dp124
g2
S'http://www.reuters.com/article/pressRelease/idUS11178+14-Sep-2008+BW20080914'
p125
sg4
S'20080913\xc2\xa008:44 PM EDT'
p126
sg6
S'Statement by Press Secretary Dana Perino'
p127
sa(dp128
g2
S'http://www.reuters.com/article/pressRelease/idUS11144+14-Sep-2008+PRN20080914'
p129
sg4
S'20080913\xc2\xa008:41 PM EDT'
p130
sg6
S'Statement by White House Press Secretary Dana Perino'
p131
sa(dp132
g2
S'http://www.reuters.com/article/worldNews/idUSLD34107320080914'
p133
sg4
S'20080913\xc2\xa008:39 PM EDT'
p134
sg6
S'Sudan accused of bombing Darfur rebels, villagers'
p135
sa(dp136
g2
S'http://www.reuters.com/article/homepageCrisis/idUSN13425494._CH_.2400'
p137
sg4
S'20080913\xc2\xa008:37 PM EDT'
p138
sg6
S'Sudan accused of bombing Darfur rebels, villagers'
p139
sa(dp140
g2
S'http://www.reuters.com/article/africaCrisis/idUSN13425494'
p141
sg4
S'20080913\xc2\xa008:37 PM EDT'
p142
sg6
S'Sudan accused of bombing Darfur rebels, villagers'
p143
sa(dp144
g2
S'http://www.reuters.com/article/latestCrisis/idUSN13409774'
p145
sg4
S'20080913\xc2\xa008:36 PM EDT'
p146
sg6
S"DOE says 'stands ready' to release emergency oil"
p147
sa(dp148
g2
S'http://www.reuters.com/article/pressRelease/idUS10862+14-Sep-2008+PRN20080914'
p149
sg4
S'20080913\xc2\xa008:30 PM EDT'
p150
sg6
S'Following Is a Test Release'
p151
sa(dp152
g2
S'http://www.reuters.com/article/pressRelease/idUS10607+14-Sep-2008+PRN20080914'
p153
sg4
S'20080913\xc2\xa008:22 PM EDT'
p154
sg6
S'Statement by White House Press Secretary Dana Perino'
p155
sa(dp156
g2
S'http://www.reuters.com/article/pressRelease/idUS10010+14-Sep-2008+PRN20080914'
p157
sg4
S'20080913\xc2\xa008:00 PM EDT'
p158
sg6
S'Following Is a Test Release'
p159
sa(dp160
g2
S'http://www.reuters.com/article/pressRelease/idUS10007+14-Sep-2008+PRN20080914'
p161
sg4
S'20080913\xc2\xa008:00 PM EDT'
p162
sg6
S'American Physician Murdered in Pakistan'
p163
sa(dp164
g2
S'http://www.reuters.com/article/GCA-Gustav/idUSN1342661120080913'
p165
sg4
S'20080913\xc2\xa007:56 PM EDT'
p166
sg6
S'DOE says "stands ready" to release emergency oil'
p167
sa(dp168
g2
S'http://www.reuters.com/article/latestCrisis/idUSN13426611'
p169
sg4
S'20080913\xc2\xa007:54 PM EDT'
p170
sg6
S"DOE says 'stands ready' to release emergency oil"
p171
sa(dp172
g2
S'http://www.reuters.com/article/ousivMolt/idUSN0927996520080913'
p173
sg4
S'20080913\xc2\xa007:53 PM EDT'
p174
sg6
S'Lehman fate in balance as talks set to resume on Sunday'
p175
sa(dp176
g2
S'http://www.reuters.com/article/pressRelease/idUS83724+13-Sep-2008+PRN20080913'
p177
sg4
S'20080913\xc2\xa007:50 PM EDT'
p178
sg6
S'Continental Airlines Suspends Houston Flights Sunday; Change Flights at continental.com...'
p179
sa(dp180
g2
S'http://www.reuters.com/article/sportsNews/idUSSP35361220080913'
p181
sg4
S'20080913\xc2\xa007:47 PM EDT'
p182
sg6
S'Damage by Hurricane Ike force Texans-Ravens to postpone game'
p183
sa(dp184
g2
S'http://www.reuters.com/article/domesticNews/idUSN9645380320080913'
p185
sg4
S'20080913\xc2\xa007:43 PM EDT'
p186
sg6
S'Hurricane Ike damage may be less than feared'
p187
sa(dp188
g2
S'http://www.reuters.com/article/domesticNews/idUSN1342413820080913'
p189
sg4
S'20080913\xc2\xa007:43 PM EDT'
p190
sg6
S'Over 1.4 mln bpd gasoline output lost by Ike-EIA'
p191
sa(dp192
g2
S'http://www.reuters.com/article/pressRelease/idUS83585+13-Sep-2008+MW20080913'
p193
sg4
S'20080913\xc2\xa007:43 PM EDT'
p194
sg6
S' / CORRECTION - Collective Brands Announces Substantial Reduction in Damage Award in adidas Matter'
p195
sa(dp196
g2
S'http://www.reuters.com/article/rbssOilGasRefiningMarketing/idUSN1341357920080913'
p197
sg4
S'20080913\xc2\xa007:36 PM EDT'
p198
sg6
S'Valero: No big refinery damage, but no restart sked'
p199
sa(dp200
g2
S'http://www.reuters.com/article/GCA-Gustav/idUSN1342414620080913'
p201
sg4
S'20080913\xc2\xa007:34 PM EDT'
p202
sg6
S'Texas utilities warn of slow recovery after Ike'
p203
sa(dp204
g2
S'http://www.reuters.com/article/pressRelease/idUS83249+13-Sep-2008+PRN20080913'
p205
sg4
S'20080913\xc2\xa007:31 PM EDT'
p206
sg6
S'Statement by Family Research Council Action Executive Director David Nammo'
p207
sa(dp208
g2
S'http://www.reuters.com/article/pressRelease/idUS83225+13-Sep-2008+PRN20080913'
p209
sg4
S'20080913\xc2\xa007:30 PM EDT'
p210
sg6
S'Following Is a Test Release'
p211
sa(dp212
g2
S'http://www.reuters.com/article/pressRelease/idUS83216+13-Sep-2008+BW20080913'
p213
sg4
S'20080913\xc2\xa007:30 PM EDT'
p214
sg6
S'The Big Spin(R) Contestants Win More Than a Quarter of a Million Dollars'
p215
sa(dp216
g2
S'http://www.reuters.com/article/latestCrisis/idUSN13424146'
p217
sg4
S'20080913\xc2\xa007:25 PM EDT'
p218
sg6
S'Texas utilities warn of slow recovery after Ike'
p219
sa(dp220
g2
S'http://www.reuters.com/article/pressRelease/idUS83070+13-Sep-2008+BW20080913'
p221
sg4
S'20080913\xc2\xa007:24 PM EDT'
p222
sg6
S'Statement by Press Secretary Dana Perino'
p223
sa(dp224
g2
S'http://www.reuters.com/article/pressRelease/idUS82872+13-Sep-2008+BW20080913'
p225
sg4
S'20080913\xc2\xa007:17 PM EDT'
p226
sg6
S'HHS Secretary Declares Public Health Emergency for Louisiana Following Hurricane...'
p227
sa(dp228
g2
S'http://www.reuters.com/article/pressRelease/idUS82720+13-Sep-2008+PRN20080913'
p229
sg4
S'20080913\xc2\xa007:13 PM EDT'
p230
sg6
S'DNC: 177 McCain Lobbyists Have Already Impacted the Lives of Americans'
p231
sa(dp232
g2
S'http://www.reuters.com/article/companyNewsAndPR/idUSN1344575720080913'
p233
sg4
S'20080913\xc2\xa007:06 PM EDT'
p234
sg6
S'WRAPUP 16-Hurricane Ike damage may be less than feared'
p235
sa(dp236
g2
S'http://www.reuters.com/article/euPrivateEquityNews/idUSLC51062820080913'
p237
sg4
S'20080913\xc2\xa007:03 PM EDT'
p238
sg6
S'Berlusconi calls on unions as Alitalia faces abyss'
p239
sa(dp240
g2
S'http://www.reuters.com/article/politicsNews/idUSN1352446820080913'
p241
sg4
S'20080913\xc2\xa007:01 PM EDT'
p242
sg6
S"Obama campaign seizes on Greenspan's tax comments"
p243
sa(dp244
g2
S'http://www.reuters.com/article/mediaNews/idUSLC58045420080913'
p245
sg4
S'20080913\xc2\xa007:01 PM EDT'
p246
sg6
S'Brangelina tops Hollywood power league-Guinness'
p247
sa(dp248
g2
S'http://www.reuters.com/article/politicsNews/idUSN1234556120080913'
p249
sg4
S'20080913\xc2\xa007:00 PM EDT'
p250
sg6
S'Obama tries to regain his stride'
p251
sa(dp252
g2
S'http://www.reuters.com/article/pressRelease/idUS82449+13-Sep-2008+PRN20080913'
p253
sg4
S'20080913\xc2\xa007:00 PM EDT'
p254
sg6
S'Following Is a Test Release'
p255
sa(dp256
g2
S'http://www.reuters.com/article/pressRelease/idUS82444+13-Sep-2008+BW20080913'
p257
sg4
S'20080913\xc2\xa007:00 PM EDT'
p258
sg6
S'Academy Award Winning Aardman Animations, Create New HD TV Series Using Blackmagic...'
p259
sa(dp260
g2
S'http://www.reuters.com/article/latestCrisis/idUSLD452757'
p261
sg4
S'20080913\xc2\xa006:58 PM EDT'
p262
sg6
S'Tourist boat sinks in Paris, two seriously hurt'
p263
sa(dp264
g2
S'http://www.reuters.com/article/mnaNewsFinancialServicesAndRealEstate/idUSN1330411020080913'
p265
sg4
S'20080913\xc2\xa006:52 PM EDT'
p266
sg6
S'WRAPUP 2-Lehman fate in balance after 2nd day of emergency talks'
p267
sa(dp268
g2
S'http://www.reuters.com/article/latestCrisis/idUSLD427230'
p269
sg4
S'20080913\xc2\xa006:51 PM EDT'
p270
sg6
S'Tourist boat sinks in Paris, adult and child hurt'
p271
sa(dp272
g2
S'http://www.reuters.com/article/newsMaps/idUSLD45275720080913'
p273
sg4
S'20080913\xc2\xa006:46 PM EDT'
p274
sg6
S'Tourist boat sinks in Paris, two seriously hurt'
p275
sa(dp276
g2
S'http://www.reuters.com/article/pressRelease/idUS82121+13-Sep-2008+PRN20080913'
p277
sg4
S'20080913\xc2\xa006:42 PM EDT'
p278
sg6
S'Hurricane Ike Swamps Homes and Businesses'
p279
sa(dp280
g2
S'http://www.reuters.com/article/ousivMolt/idUSN1342056720080913'
p281
sg4
S'20080913\xc2\xa006:40 PM EDT'
p282
sg6
S'NY Fed says Lehman meeting ends, to resume Sunday'
p283
sa(dp284
g2
S'http://www.reuters.com/article/pressRelease/idUS81926+13-Sep-2008+PRN20080913'
p285
sg4
S'20080913\xc2\xa006:33 PM EDT'
p286
sg6
S"DNC Releases Report, 'No Reformer: McCain Puts Lobbyists First While Americans Struggle'"
p287
sa(dp288
g2
S'http://www.reuters.com/article/ousivMolt/idUSN1358253120080913'
p289
sg4
S'20080913\xc2\xa006:31 PM EDT'
p290
sg6
S"Fed's options limited if Lehman talks fail"
p291
sa(dp292
g2
S'http://www.reuters.com/article/pressRelease/idUS81847+13-Sep-2008+PRN20080913'
p293
sg4
S'20080913\xc2\xa006:30 PM EDT'
p294
sg6
S'Following Is a Test Release'
p295
sa(dp296
g2
S'http://www.reuters.com/article/pressRelease/idUS81841+13-Sep-2008+PRN20080913'
p297
sg4
S'20080913\xc2\xa006:29 PM EDT'
p298
sg6
S'Restoration Industry Association Provides Homeowners with Flood Clean Up & Repair...'
p299
sa(dp300
g2
S'http://www.reuters.com/article/pressRelease/idUS81672+13-Sep-2008+BW20080913'
p301
sg4
S'20080913\xc2\xa006:25 PM EDT'
p302
sg6
S'USAA Offers Tips to Homeowners Following Hurricane Ike'
p303
sa(dp304
g2
S'http://www.reuters.com/article/GCA-Gustav/idUSN1330721620080913'
p305
sg4
S'20080913\xc2\xa006:22 PM EDT'
p306
sg6
S'Houston area refiners not flooded-Reuters Witness'
p307
sa(dp308
g2
S'http://www.reuters.com/article/latestCrisis/idUSLD674416'
p309
sg4
S'20080913\xc2\xa006:00 PM EDT'
p310
sg6
S'Abbas urges new US leader to make peace a priority'
p311
sa(dp312
g2
S'http://www.reuters.com/article/pressRelease/idUS81169+13-Sep-2008+PRN20080913'
p313
sg4
S'20080913\xc2\xa006:00 PM EDT'
p314
sg6
S'Following Is a Test Release'
p315
sa(dp316
g2
S'http://www.reuters.com/article/pressRelease/idUS81118+13-Sep-2008+BW20080913'
p317
sg4
S'20080913\xc2\xa005:58 PM EDT'
p318
sg6
S'Target Provides $1 Million for Hurricane Relief'
p319
sa(dp320
g2
S'http://www.reuters.com/article/pressRelease/idUS80795+13-Sep-2008+PRN20080913'
p321
sg4
S'20080913\xc2\xa005:44 PM EDT'
p322
sg6
S'Trinitas to Provide Local Firefighter Assistance: Installs first of Two Neighborhood...'
p323
sa(dp324
g2
S'http://www.reuters.com/article/domesticNews/idUSWEN798120080913'
p325
sg4
S'20080913\xc2\xa005:38 PM EDT'
p326
sg6
S'Insurers loss from Ike seen from $8 bln to $18 bln'
p327
sa(dp328
g2
S'http://www.reuters.com/article/domesticNews/idUSN1341248920080913'
p329
sg4
S'20080913\xc2\xa005:38 PM EDT'
p330
sg6
S'Thousands rode Ike out in Galveston'
p331
sa(dp332
g2
S'http://www.reuters.com/article/domesticNews/idUSN1339789020080913'
p333
sg4
S'20080913\xc2\xa005:38 PM EDT'
p334
sg6
S'Hurricane Ike hits heart of U.S. oil sector'
p335
sa(dp336
g2
S'http://www.reuters.com/article/pressRelease/idUS80465+13-Sep-2008+BW20080913'
p337
sg4
S'20080913\xc2\xa005:35 PM EDT'
p338
sg6
S'CORRECTING and REPLACING: NASVF Venture Event in Michigan Sets Stage for Oklahoma'
p339
sa(dp340
g2
S'http://www.reuters.com/article/pressRelease/idUS80341+13-Sep-2008+PRN20080913'
p341
sg4
S'20080913\xc2\xa005:30 PM EDT'
p342
sg6
S'Following Is a Test Release'
p343
sa(dp344
g2
S'http://www.reuters.com/article/bondsNews/idUSN1340052520080913'
p345
sg4
S'20080913\xc2\xa005:27 PM EDT'
p346
sg6
S'UPDATE 3-Canada opposition bucks conservative trend -Harper'
p347
sa(dp348
g2
S'http://www.reuters.com/article/latestCrisis/idUSLD41737'
p349
sg4
S'20080913\xc2\xa005:21 PM EDT'
p350
sg6
S'Tourist boat sinks on River Seine in Paris'
p351
sa(dp352
g2
S'http://www.reuters.com/article/latestCrisis/idUSN13412489'
p353
sg4
S'20080913\xc2\xa005:20 PM EDT'
p354
sg6
S'Despite history, thousands rode Ike out in Galveston'
p355
sa(dp356
g2
S'http://www.reuters.com/article/rbssEnergyNews/idUSN1342116420080913'
p357
sg4
S'20080913\xc2\xa005:14 PM EDT'
p358
sg6
S'Shell says Deer Park refinery has power'
p359
sa(dp360
g2
S'http://www.reuters.com/article/GCA-Oil/idUSN0842928220080913'
p361
sg4
S'20080913\xc2\xa005:07 PM EDT'
p362
sg6
S'Hurricane Ike hits heart of U.S. oil sector'
p363
sa(dp364
g2
S'http://www.reuters.com/article/pressRelease/idUS79556+13-Sep-2008+BW20080913'
p365
sg4
S'20080913\xc2\xa005:07 PM EDT'
p366
sg6
S"Hurricane Ike Hits Oncor's Eastern Service Area"
p367
sa(dp368
g2
S'http://www.reuters.com/article/sportsNews/idUSLD40094820080913'
p369
sg4
S'20080913\xc2\xa005:02 PM EDT'
p370
sg6
S"Rossi grabs pole to end Stoner's streak"
p371
sa(dp372
g2
S'http://www.reuters.com/article/ELECTU/idUSN1341031520080913'
p373
sg4
S'20080913\xc2\xa005:01 PM EDT'
p374
sg6
S'UPDATE 1-Insurers loss from Ike seen from $8 bln to $18 bln'
p375
sa(dp376
g2
S'http://www.reuters.com/article/latestCrisis/idUSN13410315'
p377
sg4
S'20080913\xc2\xa005:01 PM EDT'
p378
sg6
S'Insurers loss from Ike seen from $8 bln to $18 bln'
p379
sa(dp380
g2
S'http://www.reuters.com/article/rbssPharmaceuticals - Diversified/idUSN1231297520080913'
p381
sg4
S'20080913\xc2\xa005:00 PM EDT'
p382
sg6
S'Statin pioneer, gene experts win US medical awards'
p383
sa(dp384
g2
S'http://www.reuters.com/article/latestCrisis/idUSN12312975'
p385
sg4
S'20080913\xc2\xa005:00 PM EDT'
p386
sg6
S'Statin pioneer, gene experts win US medical awards'
p387
sa(dp388
g2
S'http://www.reuters.com/article/pressRelease/idUS79263+13-Sep-2008+PRN20080913'
p389
sg4
S'20080913\xc2\xa005:00 PM EDT'
p390
sg6
S'Following Is a Test Release'
p391
sa(dp392
g2
S'http://www.reuters.com/article/pressRelease/idUS79256+13-Sep-2008+BW20080913'
p393
sg4
S'20080913\xc2\xa005:00 PM EDT'
p394
sg6
S'Renowned Stanford Microbe Hunter Stanley Falkow to Receive a 2008 Lasker Award'
p395
sa(dp396
g2
S'http://www.reuters.com/article/GCA-Gustav/idUSN1311474920080913'
p397
sg4
S'20080913\xc2\xa004:56 PM EDT'
p398
sg6
S"Texas dodged Ike's worst damage: governor"
p399
sa(dp400
g2
S'http://www.reuters.com/article/lifestyleMolt/idUSLD28955420080913'
p401
sg4
S'20080913\xc2\xa004:55 PM EDT'
p402
sg6
S'Pope, at Lourdes, remembers victims of terrorism'
p403
sa(dp404
g2
S'http://www.reuters.com/article/domesticNews/idUSN1247424220080913'
p405
sg4
S'20080913\xc2\xa004:47 PM EDT'
p406
sg6
S'Death toll rises to 24 in Los Angeles train crash'
p407
sa(dp408
g2
S'http://www.reuters.com/article/companyNewsAndPR/idUSN1341221320080913'
p409
sg4
S'20080913\xc2\xa004:44 PM EDT'
p410
sg6
S'UPDATE 3-Death toll rises to 24 in Los Angeles train crash'
p411
sa(dp412
g2
S'http://www.reuters.com/article/pressRelease/idUS78602+13-Sep-2008+GNW20080913'
p413
sg4
S'20080913\xc2\xa004:40 PM EDT'
p414
sg6
S'CenterPoint Energy Issues Post-Storm Natural Gas Safety Tips'
p415
sa(dp416
g2
S'http://www.reuters.com/article/GCA-GCA-iraq/idUSL926613320080913'
p417
sg4
S'20080913\xc2\xa004:35 PM EDT'
p418
sg6
S'Gunmen kill 4 Iraqi TV staff in Mosul'
p419
sa(dp420
g2
S'http://www.reuters.com/article/GCA-GCA-iraq/idUSANW32583320080913'
p421
sg4
S'20080913\xc2\xa004:35 PM EDT'
p422
sg6
S'FACTBOX-Security developments in Iraq, Sept 13'
p423
sa(dp424
g2
S'http://www.reuters.com/article/pressRelease/idUS78354+13-Sep-2008+PRN20080913'
p425
sg4
S'20080913\xc2\xa004:30 PM EDT'
p426
sg6
S'Following Is a Test Release'
p427
sa(dp428
g2
S'http://www.reuters.com/article/latestCrisis/idUSLD435699'
p429
sg4
S'20080913\xc2\xa004:28 PM EDT'
p430
sg6
S"FACTBOX-Zimbabwe's new cabinet ministries"
p431
sa(dp432
g2
S'http://www.reuters.com/article/newsMaps/idUSN1243884820080913'
p433
sg4
S'20080913\xc2\xa004:25 PM EDT'
p434
sg6
S'Bolivia, opposition eye compromise to end violence'
p435
sa(dp436
g2
S'http://www.reuters.com/article/latestCrisis/idUSN13114749'
p437
sg4
S'20080913\xc2\xa004:18 PM EDT'
p438
sg6
S"Texas dodged Ike's worst damage -governor"
p439
sa(dp440
g2
S'http://www.reuters.com/article/pressRelease/idUS78032+13-Sep-2008+BW20080913'
p441
sg4
S'20080913\xc2\xa004:16 PM EDT'
p442
sg6
S'AIR Worldwide Estimates Insured Losses to Onshore U.S. Properties from Hurricane...'
p443
sa(dp444
g2
S'http://www.reuters.com/article/latestCrisis/idUSANW325833'
p445
sg4
S'20080913\xc2\xa004:13 PM EDT'
p446
sg6
S'FACTBOX-Security developments in Iraq, Sept 13'
p447
sa(dp448
g2
S'http://www.reuters.com/article/latestCrisis/idUSLD440682'
p449
sg4
S'20080913\xc2\xa004:09 PM EDT'
p450
sg6
S'Zimbabwe power deal to scrap security ministry'
p451
sa(dp452
g2
S'http://www.reuters.com/article/worldNews/idUSLD36237120080913'
p453
sg4
S'20080913\xc2\xa004:04 PM EDT'
p454
sg6
S'Five bombs explode in Indian capital, 20 killed'
p455
sa(dp456
g2
S'http://www.reuters.com/article/worldNews/idUSLD51414920080913'
p457
sg4
S'20080913\xc2\xa004:04 PM EDT'
p458
sg6
S'FACTBOX: Indian Mujahideen Islamic militant group'
p459
sa(dp460
g2
S'http://www.reuters.com/article/pressRelease/idUS77498+13-Sep-2008+PRN20080913'
p461
sg4
S'20080913\xc2\xa004:00 PM EDT'
p462
sg6
S'Following Is a Test Release'
p463
sa(dp464
g2
S'http://www.reuters.com/article/latestCrisis/idUSLD514149'
p465
sg4
S'20080913\xc2\xa003:58 PM EDT'
p466
sg6
S'FACTBOX-Indian Mujahideen Islamic militant group'
p467
sa(dp468
g2
S'http://www.reuters.com/article/domesticNews/idUSN1248432920080913'
p469
sg4
S'20080913\xc2\xa003:54 PM EDT'
p470
sg6
S'Palin bids fond farewell to Alaska to campaign'
p471
sa(dp472
g2
S'http://www.reuters.com/article/pressRelease/idUS77249+13-Sep-2008+MW20080913'
p473
sg4
S'20080913\xc2\xa003:54 PM EDT'
p474
sg6
S' Message from Her Excellency the Right Honourable Michaelle Jean, Governor General and Commander-in-Chief of Canada, on'
p475
sa(dp476
g2
S'http://www.reuters.com/article/pressRelease/idUS77121+13-Sep-2008+PRN20080913'
p477
sg4
S'20080913\xc2\xa003:50 PM EDT'
p478
sg6
S'Table Mountain Casino Gives Away Over 3,900 MEGA MOUNTAIN JACKPOTS in Just Five Weeks'
p479
sa(dp480
g2
S'http://www.reuters.com/article/reutersComService_3_MOLT/idUSN1341060520080913'
p481
sg4
S'20080913\xc2\xa003:44 PM EDT'
p482
sg6
S'DOE talking with IEA in case emergency oil needed'
p483
sa(dp484
g2
S'http://www.reuters.com/article/pressRelease/idUS76899+13-Sep-2008+GNW20080913'
p485
sg4
S'20080913\xc2\xa003:43 PM EDT'
p486
sg6
S'CNP Responds to Hurricane Ike -- Crews to Assess Damage, Begin Power Restoration...'
p487
sa(dp488
g2
S'http://www.reuters.com/article/pressRelease/idUS76768+13-Sep-2008+PRN20080913'
p489
sg4
S'20080913\xc2\xa003:41 PM EDT'
p490
sg6
S'This Is A Test From PR Newswire - 5'
p491
sa(dp492
g2
S'http://www.reuters.com/article/latestCrisis/idUSN13410605'
p493
sg4
S'20080913\xc2\xa003:40 PM EDT'
p494
sg6
S'DOE talking with IEA in case emergency oil needed'
p495
sa(dp496
g2
S'http://www.reuters.com/article/lifestyleMolt/idUSN1340719820080913'
p497
sg4
S'20080913\xc2\xa003:33 PM EDT'
p498
sg6
S'"Slumdog Millionaire" wins Toronto festival prize'
p499
sa(dp500
g2
S'http://www.reuters.com/article/pressRelease/idUS76337+13-Sep-2008+PRN20080913'
p501
sg4
S'20080913\xc2\xa003:30 PM EDT'
p502
sg6
S'Following Is a Test Release'
p503
sa(dp504
g2
S'http://www.reuters.com/article/homepageCrisis/idUSN13445757._CH_.2400'
p505
sg4
S'20080913\xc2\xa003:20 PM EDT'
p506
sg6
S'Hurricane Ike rakes Texas coast, Houston'
p507
sa(dp508
g2
S'http://www.reuters.com/article/latestCrisis/idUSN13413254'
p509
sg4
S'20080913\xc2\xa003:18 PM EDT'
p510
sg6
S'DOE talking with IEA in case emergency oil needed'
p511
sa(dp512
g2
S'http://www.reuters.com/article/pressRelease/idUS75953+13-Sep-2008+MW20080913'
p513
sg4
S'20080913\xc2\xa003:17 PM EDT'
p514
sg6
S' Toys"R"Us and Scholastic Donate Supplies to Help Families Seeking Shelter From Hurricane Ike'
p515
sa(dp516
g2
S'http://www.reuters.com/article/GCA-Gustav/idUSN1231430820080913'
p517
sg4
S'20080913\xc2\xa003:11 PM EDT'
p518
sg6
S'U.S. faces potentially catastrophic storm: Chertoff'
p519
sa(dp520
g2
S'http://www.reuters.com/article/domesticNews/idUSN1340091320080913'
p521
sg4
S'20080913\xc2\xa003:11 PM EDT'
p522
sg6
S'Ike caused "a few deaths," surges: Chertoff'
p523
sa(dp524
g2
S'http://www.reuters.com/article/pressRelease/idUS75697+13-Sep-2008+PRN20080913'
p525
sg4
S'20080913\xc2\xa003:10 PM EDT'
p526
sg6
S'This Is A Test From PR Newswire - 4'
p527
sa(dp528
g2
S'http://www.reuters.com/article/latestCrisis/idUSN13413758'
p529
sg4
S'20080913\xc2\xa003:09 PM EDT'
p530
sg6
S"Ike's worst case damage did not occur- Texas governor"
p531
sa(dp532
g2
S'http://www.reuters.com/article/companyNewsAndPR/idUSN1341375820080913'
p533
sg4
S'20080913\xc2\xa003:09 PM EDT'
p534
sg6
S"Ike's worst case damage did not occur- Texas governor"
p535
sa(dp536
g2
S'http://www.reuters.com/article/latestCrisis/idUSN13400913'
p537
sg4
S'20080913\xc2\xa003:04 PM EDT'
p538
sg6
S"Ike caused 'a few deaths,' surges- US official"
p539
sa(dp540
g2
S'http://www.reuters.com/article/pressRelease/idUS75327+13-Sep-2008+PRN20080913'
p541
sg4
S'20080913\xc2\xa003:00 PM EDT'
p542
sg6
S'Following Is a Test Release'
p543
sa(dp544
g2
S'http://www.reuters.com/article/companyNews/idUSN1345571220080913'
p545
sg4
S'20080913\xc2\xa002:59 PM EDT'
p546
sg6
S'Viterra union suspends strike, to vote on offer'
p547
sa(dp548
g2
S'http://www.reuters.com/article/pressRelease/idUS75246+13-Sep-2008+BW20080913'
p549
sg4
S'20080913\xc2\xa002:58 PM EDT'
p550
sg6
S'Premier Power Solar Completes Private Placement and Reverse Merger'
p551
sa(dp552
g2
S'http://www.reuters.com/article/companyNewsAndPR/idUSN1340855020080913'
p553
sg4
S'20080913\xc2\xa002:56 PM EDT'
p554
sg6
S'Palin bids fond farewell to Alaska to campaign'
p555
sa(dp556
g2
S'http://www.reuters.com/article/mediaNews/idUSLD40933420080913'
p557
sg4
S'20080913\xc2\xa002:55 PM EDT'
p558
sg6
S'UPDATE 1-U.S.-Iraq security pact is close - Iraqi minister'
p559
sa(dp560
g2
S'http://www.reuters.com/article/latestCrisis/idUSLD409334'
p561
sg4
S'20080913\xc2\xa002:55 PM EDT'
p562
sg6
S'U.S.-Iraq security pact is close - Iraqi minister'
p563
sa(dp564
g2
S'http://www.reuters.com/article/companyNewsAndPR/idUSN1339659320080913'
p565
sg4
S'20080913\xc2\xa002:51 PM EDT'
p566
sg6
S"Ike caused 'significant surges'- U.S. official"
p567
sa(dp568
g2
S'http://www.reuters.com/article/latestCrisis/idUSN13396593'
p569
sg4
S'20080913\xc2\xa002:51 PM EDT'
p570
sg6
S"Ike caused 'significant surges'- U.S. official"
p571
sa(dp572
g2
S'http://www.reuters.com/article/globalMarketsNews/idUSN1340721520080913'
p573
sg4
S'20080913\xc2\xa002:50 PM EDT'
p574
sg6
S'Obama and McCain favor private solution to Lehman woes'
p575
sa(dp576
g2
S'http://www.reuters.com/article/pressRelease/idUS74742+13-Sep-2008+PRN20080913'
p577
sg4
S'20080913\xc2\xa002:42 PM EDT'
p578
sg6
S'This Is A Test From PR Newswire - 3'
p579
sa(dp580
g2
S'http://www.reuters.com/article/companyNewsAndPR/idUSN1349741520080913'
p581
sg4
S'20080913\xc2\xa002:35 PM EDT'
p582
sg6
S"Ecuador's Correa says to overhaul finance ministry"
p583
sa(dp584
g2
S'http://www.reuters.com/article/worldNews/idUSISL32809720080913'
p585
sg4
S'20080913\xc2\xa002:33 PM EDT'
p586
sg6
S'Pakistanis battle militants in northwest'
p587
sa(dp588
g2
S'http://www.reuters.com/article/pressRelease/idUS74355+13-Sep-2008+PRN20080913'
p589
sg4
S'20080913\xc2\xa002:30 PM EDT'
p590
sg6
S'Following Is a Test Release'
p591
sa(dp592
g2
S'http://www.reuters.com/article/pressRelease/idUS74292+13-Sep-2008+PRN20080913'
p593
sg4
S'20080913\xc2\xa002:28 PM EDT'
p594
sg6
S'United Airlines Offers Advice to our Customers Affected by Chicago Weather and Issues...'
p595
sa(dp596
g2
S'http://www.reuters.com/article/technologyNews/idUSDEL34682020080913'
p597
sg4
S'20080913\xc2\xa002:28 PM EDT'
p598
sg6
S"India's Nano car deadlock continues as talks fail"
p599
sa(dp600
g2
S'http://www.reuters.com/article/companyNewsAndPR/idUSN1341031120080913'
p601
sg4
S'20080913\xc2\xa002:27 PM EDT'
p602
sg6
S'DOE says 2.6 million without power in Texas, La.'
p603
sa(dp604
g2
S'http://www.reuters.com/article/latestCrisis/idUSN13410311'
p605
sg4
S'20080913\xc2\xa002:27 PM EDT'
p606
sg6
S'DOE says 2.6 million without power in Texas, La.'
p607
sa(dp608
g2
S'http://www.reuters.com/article/mediaNews/idUSLD72060620080913'
p609
sg4
S'20080913\xc2\xa002:25 PM EDT'
p610
sg6
S'IRAQ WRAPUP 2-Gunmen kill 4 Iraqi TV staff in Mosul'
p611
sa(dp612
g2
S'http://www.reuters.com/article/latestCrisis/idUSLD430556'
p613
sg4
S'20080913\xc2\xa002:23 PM EDT'
p614
sg6
S'Pakistanis battle militants in northwest'
p615
sa(dp616
g2
S'http://www.reuters.com/article/pressRelease/idUS73984+13-Sep-2008+PRN20080913'
p617
sg4
S'20080913\xc2\xa002:22 PM EDT'
p618
sg6
S'This Is A Test From PR Newswire - 2'
p619
sa(dp620
g2
S'http://www.reuters.com/article/gc06/idUSN1348264020080913'
p621
sg4
S'20080913\xc2\xa002:20 PM EDT'
p622
sg6
S'Regulators set to review Fannie, Freddie exit pay'
p623
sa(dp624
g2
S'http://www.reuters.com/article/GCA-Oil/idUSN1340218920080913'
p625
sg4
S'20080913\xc2\xa002:18 PM EDT'
p626
sg6
S'US oil refining shut by Ike is 3.783 mln bpd: DOE'
p627
sa(dp628
g2
S'http://www.reuters.com/article/rbssConsumerFinancialServices/idUSN1351436820080913'
p629
sg4
S'20080913\xc2\xa002:17 PM EDT'
p630
sg6
S'UPDATE 1-U.S. terms set to review Fannie, Freddie exit pay'
p631
sa(dp632
g2
S'http://www.reuters.com/article/rbssAluminum/idUSN1340853120080913'
p633
sg4
S'20080913\xc2\xa002:16 PM EDT'
p634
sg6
S"UPDATE 1-Texas alumina plants escape Ike's wrath, to reopen"
p635
sa(dp636
g2
S'http://www.reuters.com/article/sportsNews/idUSLD38151120080913'
p637
sg4
S'20080913\xc2\xa002:14 PM EDT'
p638
sg6
S'Russia take charge of Fed Cup final in Spain'
p639
sa(dp640
g2
S'http://www.reuters.com/article/worldNews/idUST26275020080913'
p641
sg4
S'20080913\xc2\xa002:13 PM EDT'
p642
sg6
S'Typhoon hits Taiwan, causing landslides'
p643
sa(dp644
g2
S'http://www.reuters.com/article/pressRelease/idUS73527+13-Sep-2008+MW20080913'
p645
sg4
S'20080913\xc2\xa002:13 PM EDT'
p646
sg6
S" New Democrat Leader Jack Layton's Campaign Tour Ottawa/Gatineau, Sunday September 14, 2008"
p647
sa(dp648
g2
S'http://www.reuters.com/article/latestCrisis/idUSN13402189'
p649
sg4
S'20080913\xc2\xa002:12 PM EDT'
p650
sg6
S'US oil refining shut by Ike is 3.783 mln bpd-DOE'
p651
sa(dp652
g2
S'http://www.reuters.com/article/latestCrisis/idUSWEN7981'
p653
sg4
S'20080913\xc2\xa002:12 PM EDT'
p654
sg6
S'Ike could cost insurers up to $18 billion -expert'
p655
sa(dp656
g2
S'http://www.reuters.com/article/latestCrisis/idUSN13408000'
p657
sg4
S'20080913\xc2\xa002:08 PM EDT'
p658
sg6
S'Ike weakens to tropical storm over Texas'
p659
sa(dp660
g2
S'http://www.reuters.com/article/companyNewsAndPR/idUSN1340800020080913'
p661
sg4
S'20080913\xc2\xa002:08 PM EDT'
p662
sg6
S'Ike weakens to tropical storm over Texas'
p663
sa(dp664
g2
S'http://www.reuters.com/article/pressRelease/idUS72737+13-Sep-2008+PRN20080913'
p665
sg4
S'20080913\xc2\xa002:06 PM EDT'
p666
sg6
S'TNMP Responds To Impact of Hurricane Ike'
p667
sa(dp668
g2
S'http://www.reuters.com/article/GCA-Oil/idUSLD42507020080913'
p669
sg4
S'20080913\xc2\xa002:05 PM EDT'
p670
sg6
S'OPEC cut decision proving ineffective: Khelil'
p671
sa(dp672
g2
S'http://www.reuters.com/article/worldNews/idUSLD36188320080913'
p673
sg4
S'20080913\xc2\xa002:02 PM EDT'
p674
sg6
S'Nigerian militants tell oil workers to leave delta'
p675
sa(dp676
g2
S'http://www.reuters.com/article/pressRelease/idUS72479+13-Sep-2008+PRN20080913'
p677
sg4
S'20080913\xc2\xa002:00 PM EDT'
p678
sg6
S'Following Is a Test Release'
p679
sa(dp680
g2
S'http://www.reuters.com/article/pressRelease/idUS72474+13-Sep-2008+BW20080913'
p681
sg4
S'20080913\xc2\xa002:00 PM EDT'
p682
sg6
S'Nationwide Begins Response for Ike'
p683
sa(dp684
g2
S'http://www.reuters.com/article/pressRelease/idUS72395+13-Sep-2008+BW20080913'
p685
sg4
S'20080913\xc2\xa001:58 PM EDT'
p686
sg6
S'Flood and Water Damage Repair and Risk Abatement (20 tips to minimize risks and devastation...'
p687
sa(dp688
g2
S'http://www.reuters.com/article/ousivMolt/idUSN1340463520080913'
p689
sg4
S'20080913\xc2\xa001:57 PM EDT'
p690
sg6
S'McCain adviser: avoid taxpayer bailout for Lehman'
p691
sa(dp692
g2
S'http://www.reuters.com/article/GCA-Gustav/idUSN1340591720080913'
p693
sg4
S'20080913\xc2\xa001:56 PM EDT'
p694
sg6
S'Bush declares disaster area for Texas after Ike'
p695
sa(dp696
g2
S'http://www.reuters.com/article/pressRelease/idUS72197+13-Sep-2008+BW20080913'
p697
sg4
S'20080913\xc2\xa001:53 PM EDT'
p698
sg6
S'Statement by Press Secretary Dana Perino'
p699
sa(dp700
g2
S'http://www.reuters.com/article/homepageCrisis/idUSN13405917._CH_.2400'
p701
sg4
S'20080913\xc2\xa001:48 PM EDT'
p702
sg6
S'Bush declares disaster area for Texas after Ike'
p703
sa(dp704
g2
S'http://www.reuters.com/article/latestCrisis/idUSN13405917'
p705
sg4
S'20080913\xc2\xa001:48 PM EDT'
p706
sg6
S'Bush declares disaster area for Texas after Ike'
p707
sa(dp708
g2
S'http://www.reuters.com/article/latestCrisis/idUSISL328097'
p709
sg4
S'20080913\xc2\xa001:44 PM EDT'
p710
sg6
S'Pakistanis battle militants, take two positions'
p711
sa(dp712
g2
S'http://www.reuters.com/article/pressRelease/idUS71776+13-Sep-2008+PRN20080913'
p713
sg4
S'20080913\xc2\xa001:42 PM EDT'
p714
sg6
S'American Capital Renews Secured Credit Facility'
p715
sa(dp716
g2
S'http://www.reuters.com/article/GCA-Gustav/idUSN1340586720080913'
p717
sg4
S'20080913\xc2\xa001:40 PM EDT'
p718
sg6
S'Alcoa eyes Sunday restart of Pt Comfort plant in Texas'
p719
sa(dp720
g2
S'http://www.reuters.com/article/newsMaps/idUSLD28294220080913'
p721
sg4
S'20080913\xc2\xa001:40 PM EDT'
p722
sg6
S'Russian troops withdraw from Georgian port region'
p723
sa(dp724
g2
S'http://www.reuters.com/article/newsMaps/idUSLD40758420080913'
p725
sg4
S'20080913\xc2\xa001:39 PM EDT'
p726
sg6
S'Second Georgian policeman killed in Abkhazia'
p727
sa(dp728
g2
S'http://www.reuters.com/article/pressRelease/idUS71644+13-Sep-2008+PRN20080913'
p729
sg4
S'20080913\xc2\xa001:39 PM EDT'
p730
sg6
S'Continental Airlines Assessing Impact of Hurricane Ike'
p731
sa(dp732
g2
S'http://www.reuters.com/article/latestCrisis/idUSLD361883'
p733
sg4
S'20080913\xc2\xa001:33 PM EDT'
p734
sg6
S'Nigerian militants tell oil workers to leave delta'
p735
sa(dp736
g2
S'http://www.reuters.com/article/pressRelease/idUS71302+13-Sep-2008+PRN20080913'
p737
sg4
S'20080913\xc2\xa001:30 PM EDT'
p738
sg6
S'Following Is a Test Release'
p739
sa(dp740
g2
S'http://www.reuters.com/article/globalMarketsNews/idUSN1328693220080913'
p741
sg4
S'20080913\xc2\xa001:29 PM EDT'
p742
sg6
S'Obama favors "private solution" to Lehman woes: aide'
p743
sa(dp744
g2
S'http://www.reuters.com/article/globalMarketsNews/idUSN1223123020080913'
p745
sg4
S'20080913\xc2\xa001:29 PM EDT'
p746
sg6
S"Lehman's worries spill over to nearby businesses"
p747
sa(dp748
g2
S'http://www.reuters.com/article/globalMarketsNews/idUSHAR27520620080913'
p749
sg4
S'20080913\xc2\xa001:29 PM EDT'
p750
sg6
S'FACTBOX: A brief history of Lehman Brothers'
p751
sa(dp752
g2
S'http://www.reuters.com/article/bondsNews/idUSN1340481420080913'
p753
sg4
S'20080913\xc2\xa001:29 PM EDT'
p754
sg6
S'Sherwin Alumina plant to reopen Saturday evening'
p755
sa(dp756
g2
S'http://www.reuters.com/article/GCA-GCA-iraq/idUSLD41623120080913'
p757
sg4
S'20080913\xc2\xa001:23 PM EDT'
p758
sg6
S'U.S.-Iraq security pact is close: Iraqi minister'
p759
sa(dp760
g2
S'http://www.reuters.com/article/newsOne/idUSSHA33672620080913'
p761
sg4
S'20080913\xc2\xa001:20 PM EDT'
p762
sg6
S'Chinese baby dies, hundreds sick from milk powder'
p763
sa(dp764
g2
S'http://www.reuters.com/article/newsOne/idUSLD39998720080913'
p765
sg4
S'20080913\xc2\xa001:20 PM EDT'
p766
sg6
S'Fifty-one believed dead in China bus crash'
p767
sa(dp768
g2
S'http://www.reuters.com/article/newsMaps/idUSLD34107320080913'
p769
sg4
S'20080913\xc2\xa001:19 PM EDT'
p770
sg6
S'Sudan accused of bombing Darfur rebels'
p771
sa(dp772
g2
S'http://www.reuters.com/article/pressRelease/idUS70078+13-Sep-2008+MW20080913'
p773
sg4
S'20080913\xc2\xa001:15 PM EDT'
p774
sg6
S' Coping With the Loss of a Pet: Peternity.com Honors National Pet Memorial Day'
p775
sa(dp776
g2
S'http://www.reuters.com/article/pressRelease/idUS69881+13-Sep-2008+PRN20080913'
p777
sg4
S'20080913\xc2\xa001:13 PM EDT'
p778
sg6
S'This Is A Test From PR Newswire'
p779
sa(dp780
g2
S'http://www.reuters.com/article/rbssRailsRoadsPassengers/idUSLD26774520080913'
p781
sg4
S'20080913\xc2\xa001:12 PM EDT'
p782
sg6
S'UPDATE 3-Train traffic resumes slowly in Channel Tunnel'
p783
sa(dp784
g2
S'http://www.reuters.com/article/latestCrisis/idUSLD416231'
p785
sg4
S'20080913\xc2\xa001:10 PM EDT'
p786
sg6
S'U.S.-Iraq security pact is close - Iraqi minister'
p787
sa(dp788
g2
S'http://www.reuters.com/article/rbssInvestmentServices/idUSN1340141720080913'
p789
sg4
S'20080913\xc2\xa001:10 PM EDT'
p790
sg6
S'Obama favors "private solution" to Lehman woes-aide'
p791
sa(dp792
g2
S'http://www.reuters.com/article/pressRelease/idUS69363+13-Sep-2008+PRN20080913'
p793
sg4
S'20080913\xc2\xa001:08 PM EDT'
p794
sg6
S'Red Cross There as Hurricane Ike Roars Ashore'
p795
sa(dp796
g2
S'http://www.reuters.com/article/pressRelease/idUS68819+13-Sep-2008+MW20080913'
p797
sg4
S'20080913\xc2\xa001:03 PM EDT'
p798
sg6
S' Layton Attacks Gas Pump Rip-Offs'
p799
sa(dp800
g2
S'http://www.reuters.com/article/homepageCrisis/idUSLD341073._CH_.2400'
p801
sg4
S'20080913\xc2\xa001:02 PM EDT'
p802
sg6
S'Sudan accused of bombing Darfur rebels, villagers'
p803
sa(dp804
g2
S'http://www.reuters.com/article/latestCrisis/idUSLD341073'
p805
sg4
S'20080913\xc2\xa001:02 PM EDT'
p806
sg6
S'Sudan accused of bombing Darfur rebels, villagers'
p807
sa(dp808
g2
S'http://www.reuters.com/article/pressRelease/idUS68455+13-Sep-2008+PRN20080913'
p809
sg4
S'20080913\xc2\xa001:00 PM EDT'
p810
sg6
S'Following Is a Test Release'
p811
sa(dp812
g2
S'http://www.reuters.com/article/newsMaps/idUSLD34322420080913'
p813
sg4
S'20080913\xc2\xa012:53 PM EDT'
p814
sg6
S'Israeli troops kill Palestinian in West Bank'
p815
sa(dp816
g2
S'http://www.reuters.com/article/pressReleasesMolt/idUSLD32528920080913'
p817
sg4
S'20080913\xc2\xa012:52 PM EDT'
p818
sg6
S'EADS denies backing out of U.S. tanker contest'
p819
sa(dp820
g2
S'http://www.reuters.com/article/GCA-Gustav/idUSN1334108220080913'
p821
sg4
S'20080913\xc2\xa012:48 PM EDT'
p822
sg6
S'Bush says danger from Hurricane Ike not yet passed'
p823
sa(dp824
g2
S'http://www.reuters.com/article/mnaNewsIndustryMaterialsAndUtilities/idUSLD37535320080913'
p825
sg4
S'20080913\xc2\xa012:45 PM EDT'
p826
sg6
S"UPDATE 1-Alitalia's licence at risk, may ground flights"
p827
sa(dp828
g2
S'http://www.reuters.com/article/pressRelease/idUS66242+13-Sep-2008+MW20080913'
p829
sg4
S'20080913\xc2\xa012:40 PM EDT'
p830
sg6
S' Members of the Media: AAA Texas Is Closely Following the Overnight Increases in Gasoline Prices as a Result of'
p831
sa(dp832
g2
S'http://www.reuters.com/article/CMPSRV/idUSLD39386320080913'
p833
sg4
S'20080913\xc2\xa012:39 PM EDT'
p834
sg6
S'UPDATE 1-EADS denies backing out of U.S. tanker contest'
p835
sa(dp836
g2
S'http://www.reuters.com/article/americasIpoNews/idUSN1339955820080913'
p837
sg4
S'20080913\xc2\xa012:38 PM EDT'
p838
sg6
S'UPDATE 1-Emergency talks on Lehman, markets resume'
p839
sa(dp840
g2
S'http://www.reuters.com/article/GCA-Oil/idUSN1339082820080913'
p841
sg4
S'20080913\xc2\xa012:35 PM EDT'
p842
sg6
S'Henry Hub shut, NYMEX declares force majeure'
p843
sa(dp844
g2
S'http://www.reuters.com/article/latestCrisis/idUSLD407584'
p845
sg4
S'20080913\xc2\xa012:32 PM EDT'
p846
sg6
S'Second Georgian policeman killed in Abkhazia'
p847
sa(dp848
g2
S'http://www.reuters.com/article/pressRelease/idUS65407+13-Sep-2008+BW20080913'
p849
sg4
S'20080913\xc2\xa012:32 PM EDT'
p850
sg6
S'Farmers Insurance is Ready to Help Houston, Galveston and Beaumont Area Customers...'
p851
sa(dp852
g2
S'http://www.reuters.com/article/pressRelease/idUS65199+13-Sep-2008+PRN20080913'
p853
sg4
S'20080913\xc2\xa012:30 PM EDT'
p854
sg6
S'Following Is a Test Release'
p855
sa(dp856
g2
S'http://www.reuters.com/article/pressRelease/idUS64955+13-Sep-2008+PRN20080913'
p857
sg4
S'20080913\xc2\xa012:28 PM EDT'
p858
sg6
S'OSRAM SYLVANIA Lights Up the Track at the SYLVANIA 300'
p859
sa(dp860
g2
S'http://www.reuters.com/article/pressRelease/idUS64406+13-Sep-2008+BW20080913'
p861
sg4
S'20080913\xc2\xa012:23 PM EDT'
p862
sg6
S'TXU Energy Ready to Assist Customers During Hurricane'
p863
sa(dp864
g2
S'http://www.reuters.com/article/companyNewsAndPR/idUSN1338391720080913'
p865
sg4
S'20080913\xc2\xa012:21 PM EDT'
p866
sg6
S'UPDATE 2-Bush says danger from Hurricane Ike not yet passed'
p867
sa(dp868
g2
S'http://www.reuters.com/article/etfNews/idUSN1338467320080913'
p869
sg4
S'20080913\xc2\xa012:20 PM EDT'
p870
sg6
S'Emergency talks on Lehman, markets resume'
p871
sa(dp872
g2
S'http://www.reuters.com/article/newsMaps/idUSLD39731720080913'
p873
sg4
S'20080913\xc2\xa012:17 PM EDT'
p874
sg6
S'TIMELINE: Major attacks in India since 2003'
p875
sa(dp876
g2
S'http://www.reuters.com/article/latestCrisis/idUSN13392073'
p877
sg4
S'20080913\xc2\xa012:15 PM EDT'
p878
sg6
S"NATO's Georgia hesitation emboldened Russia-Canada"
p879
sa(dp880
g2
S'http://www.reuters.com/article/companyNewsAndPR/idUSN1338029320080913'
p881
sg4
S'20080913\xc2\xa012:02 PM EDT'
p882
sg6
S'Canada opposition bucks conservative trend -Harper'
p883
sa(dp884
g2
S'http://www.reuters.com/article/pressRelease/idUS61386+13-Sep-2008+PRN20080913'
p885
sg4
S'20080913\xc2\xa012:00 PM EDT'
p886
sg6
S'Following Is a Test Release'
p887
sa(dp888
g2
S'http://www.reuters.com/article/pressRelease/idUS61033+13-Sep-2008+PRN20080913'
p889
sg4
S'20080913\xc2\xa011:57 AM EDT'
p890
sg6
S'This Is A Test From PR Newswire'
p891
sa(dp892
g2
S'http://www.reuters.com/article/pressRelease/idUS60969+13-Sep-2008+MW20080913'
p893
sg4
S'20080913\xc2\xa011:56 AM EDT'
p894
sg6
S" TeraRecon's iNtuition(TM) Client-Server 3D Solution Showcases Endovascular and Surgical Planning Clinical Tools"
p895
sa(dp896
g2
S'http://www.reuters.com/article/pressRelease/idUS60897+13-Sep-2008+BW20080913'
p897
sg4
S'20080913\xc2\xa011:56 AM EDT'
p898
sg6
S'Hurricane Gustav is No Match for Mobile Communications Team'
p899
sa(dp900
g2
S'http://www.reuters.com/article/latestCrisis/idUSLD363258'
p901
sg4
S'20080913\xc2\xa011:53 AM EDT'
p902
sg6
S'Second Georgian policeman killed in Abkhazia'
p903
sa(dp904
g2
S'http://www.reuters.com/article/newsOne/idUSLC26517520080913'
p905
sg4
S'20080913\xc2\xa011:47 AM EDT'
p906
sg6
S"It's sport, not sex say Europe champion pole dancers"
p907
sa(dp908
g2
S'http://www.reuters.com/article/companyNewsAndPR/idUSN1347763020080913'
p909
sg4
S'20080913\xc2\xa011:45 AM EDT'
p910
sg6
S'CORRECTED-(OFFICIAL)-Bush: Danger from Ike not yet passed'
p911
sa(dp912
g2
S'http://www.reuters.com/article/latestCrisis/idUSN13477630'
p913
sg4
S'20080913\xc2\xa011:45 AM EDT'
p914
sg6
S'(OFFICIAL)-Bush: Danger from Ike not yet passed'
p915
sa(dp916
g2
S'http://www.reuters.com/article/pressRelease/idUS59536+13-Sep-2008+PRN20080913'
p917
sg4
S'20080913\xc2\xa011:45 AM EDT'
p918
sg6
S"Freddie Mac's Hoops for the Homeless(R) Nets $600,000 to Help Fight Family Homelessness..."
p919
sa(dp920
g2
S'http://www.reuters.com/article/rbssOilGasExplorationProduction/idUSLD39530320080913'
p921
sg4
S'20080913\xc2\xa011:41 AM EDT'
p922
sg6
S"Eni's Russian relations good despite Cold War talk"
p923
sa(dp924
g2
S'http://www.reuters.com/article/pressRelease/idUS58878+13-Sep-2008+PRN20080913'
p925
sg4
S'20080913\xc2\xa011:40 AM EDT'
p926
sg6
S'Screening for Ischemia in Asymptomatic Patients With Type 2 Diabetes: Five- Year...'
p927
sa(dp928
g2
S'http://www.reuters.com/article/latestCrisis/idUSSP343696'
p929
sg4
S'20080913\xc2\xa011:37 AM EDT'
p930
sg6
S'At least 18 people killed in India capital bombs'
p931
sa(dp932
g2
S'http://www.reuters.com/article/latestCrisis/idUSSP344187'
p933
sg4
S'20080913\xc2\xa011:35 AM EDT'
p934
sg6
S'At least 18 people killed in India capital bombs'
p935
sa(dp936
g2
S'http://www.reuters.com/article/pressRelease/idUS57647+13-Sep-2008+PRN20080913'
p937
sg4
S'20080913\xc2\xa011:30 AM EDT'
p938
sg6
S'PSE&G; Sends Crews to Texas as Hurricane Ike Strikes'
p939
sa(dp940
g2
S'http://www.reuters.com/article/pressRelease/idUS57643+13-Sep-2008+PRN20080913'
p941
sg4
S'20080913\xc2\xa011:30 AM EDT'
p942
sg6
S'Following Is a Test Release'
p943
sa(dp944
g2
S'http://www.reuters.com/article/pressRelease/idUS57475+13-Sep-2008+PRN20080913'
p945
sg4
S'20080913\xc2\xa011:28 AM EDT'
p946
sg6
S'AmeriCares Mobilizes in Response to Hurricane Ike'
p947
sa(dp948
g2
S'http://www.reuters.com/article/rbssBanks/idUSLD34647820080913'
p949
sg4
S'20080913\xc2\xa011:26 AM EDT'
p950
sg6
S'EU ministers outline bank supervision shake-up'
p951
sa(dp952
g2
S'http://www.reuters.com/article/bondsNews/idUSN1348650620080913'
p953
sg4
S'20080913\xc2\xa011:22 AM EDT'
p954
sg6
S'Venezuela seeks to lower tone in US diplomatic spat'
p955
sa(dp956
g2
S'http://www.reuters.com/article/GCA-GCA-iraq/idUSANS93382420080913'
p957
sg4
S'20080913\xc2\xa011:21 AM EDT'
p958
sg6
S'Saudi Arabia to release Iraqi prisoners, Iraq says'
p959
sa(dp960
g2
S'http://www.reuters.com/article/latestCrisis/idUSLD343224'
p961
sg4
S'20080913\xc2\xa011:19 AM EDT'
p962
sg6
S'Israeli troops kill Palestinian in West Bank'
p963
sa(dp964
g2
S'http://www.reuters.com/article/rbssOilGasRefiningMarketing/idUSN1338989420080913'
p965
sg4
S'20080913\xc2\xa011:17 AM EDT'
p966
sg6
S'Valero says shuttered Texas refineries lose power'
p967
sa(dp968
g2
S'http://www.reuters.com/article/latestCrisis/idUSLD720606'
p969
sg4
S'20080913\xc2\xa011:17 AM EDT'
p970
sg6
S'Gunmen kill 4 Iraqi TV staff in Mosul'
p971
sa(dp972
g2
S'http://www.reuters.com/article/bondsNews/idUSN1338484820080913'
p973
sg4
S'20080913\xc2\xa011:12 AM EDT'
p974
sg6
S'Death toll rises to 17 in Los Angeles train crash'
p975
sa(dp976
g2
S'http://www.reuters.com/article/latestCrisis/idUSN13384848'
p977
sg4
S'20080913\xc2\xa011:12 AM EDT'
p978
sg6
S'Death toll rises to 17 in Los Angeles train crash'
p979
sa(dp980
g2
S'http://www.reuters.com/article/rbssIntegratedOilGas/idUSN1338954720080913'
p981
sg4
S'20080913\xc2\xa011:12 AM EDT'
p982
sg6
S'Exxon begins damage assessments at Texas refineries'
p983
sa(dp984
g2
S'http://www.reuters.com/article/pressReleasesMolt/idUSN1236833520080913'
p985
sg4
S'20080913\xc2\xa011:10 AM EDT'
p986
sg6
S'Lehman a test of government will on bailouts'
p987
sa(dp988
g2
S'http://www.reuters.com/article/pressRelease/idUS53952+13-Sep-2008+PRN20080913'
p989
sg4
S'20080913\xc2\xa011:00 AM EDT'
p990
sg6
S'Following Is a Test Release'
p991
sa(dp992
g2
S'http://www.reuters.com/article/pressRelease/idUS53950+13-Sep-2008+PRN20080913'
p993
sg4
S'20080913\xc2\xa011:00 AM EDT'
p994
sg6
S'Frontier Airlines Announces a Mile High Sale'
p995
sa(dp996
g2
S'http://www.reuters.com/article/mnaNewsFinancialServicesAndRealEstate/idUSLD33741720080913'
p997
sg4
S'20080913\xc2\xa010:58 AM EDT'
p998
sg6
S'Germany sees Lehman solution by Monday, Europe frets'
p999
sa(dp1000
g2
S'http://www.reuters.com/article/managementIssues/idUSLD36623520080913'
p1001
sg4
S'20080913\xc2\xa010:57 AM EDT'
p1002
sg6
S'Porsche plans coup against VW chairman - magazine'
p1003
sa(dp1004
g2
S'http://www.reuters.com/article/pressRelease/idUS53458+13-Sep-2008+PRN20080913'
p1005
sg4
S'20080913\xc2\xa010:56 AM EDT'
p1006
sg6
S'This Is A Test From PR Newswire'
p1007
sa(dp1008
g2
S'http://www.reuters.com/article/reutersComService_2_MOLT/idUSN1244207120080913'
p1009
sg4
S'20080913\xc2\xa010:53 AM EDT'
p1010
sg6
S'Hurricane Ike could hammer insurers'
p1011
sa(dp1012
g2
S'http://www.reuters.com/article/GCA-Gustav/idUSN1332710420080913'
p1013
sg4
S'20080913\xc2\xa010:52 AM EDT'
p1014
sg6
S'Cuba reports extensive damage to sugar industry'
p1015
sa(dp1016
g2
S'http://www.reuters.com/article/pressRelease/idUS52713+13-Sep-2008+PRN20080913'
p1017
sg4
S'20080913\xc2\xa010:50 AM EDT'
p1018
sg6
S'What is the Optimal Method of Ischemia Evaluation in WomeN: Preliminary Data from...'
p1019
sa(dp1020
g2
S'http://www.reuters.com/article/pressRelease/idUS52488+13-Sep-2008+BW20080913'
p1021
sg4
S'20080913\xc2\xa010:48 AM EDT'
p1022
sg6
S'H-E-B Disaster Response Unit Headed to Houston to Deliver Relief Supplies and Provide...'
p1023
sa(dp1024
g2
S'http://www.reuters.com/article/pressRelease/idUS52268+13-Sep-2008+MW20080913'
p1025
sg4
S'20080913\xc2\xa010:46 AM EDT'
p1026
sg6
S' Revolutionary War Relic of Historical Import Goes to Auction in Detroit at DuMouchelle Art Galleries'
p1027
sa(dp1028
g2
S'http://www.reuters.com/article/latestCrisis/idUSSP336841'
p1029
sg4
S'20080913\xc2\xa010:43 AM EDT'
p1030
sg6
S'At least ten killed by bombs in Indian capital'
p1031
sa(dp1032
g2
S'http://www.reuters.com/article/usDollarRpt/idUSLD29361220080913'
p1033
sg4
S'20080913\xc2\xa010:39 AM EDT'
p1034
sg6
S'WRAPUP 5-Europe hatches muted response to economic downturn'
p1035
sa(dp1036
g2
S'http://www.reuters.com/article/pressRelease/idUS51397+13-Sep-2008+PRN20080913'
p1037
sg4
S'20080913\xc2\xa010:38 AM EDT'
p1038
sg6
S'Americans for a Strong National Highway Network Applauds FHWA Decision to Reject...'
p1039
sa(dp1040
g2
S'http://www.reuters.com/article/pressRelease/idUS51297+13-Sep-2008+PRN20080913'
p1041
sg4
S'20080913\xc2\xa010:37 AM EDT'
p1042
sg6
S'Mercedes-Benz USA Employees Take Action Against Hunger'
p1043
sa(dp1044
g2
S'http://www.reuters.com/article/latestCrisis/idUSLD372548'
p1045
sg4
S'20080913\xc2\xa010:35 AM EDT'
p1046
sg6
S"Poland says Russia obstructs Europe's energy plans"
p1047
sa(dp1048
g2
S'http://www.reuters.com/article/latestCrisis/idUSDEL333915'
p1049
sg4
S'20080913\xc2\xa010:35 AM EDT'
p1050
sg6
S'At least seven killed by bombs in Indian capital'
p1051
sa(dp1052
g2
S'http://www.reuters.com/article/latestCrisis/idUSLD301437'
p1053
sg4
S'20080913\xc2\xa010:32 AM EDT'
p1054
sg6
S"MDC seeks control over Zimbabwe's economy, police"
p1055
sa(dp1056
g2
S'http://www.reuters.com/article/pressRelease/idUS50465+13-Sep-2008+PRN20080913'
p1057
sg4
S'20080913\xc2\xa010:30 AM EDT'
p1058
sg6
S'Following Is a Test Release'
p1059
sa(dp1060
g2
S'http://www.reuters.com/article/pressRelease/idUS49974+13-Sep-2008+BW20080913'
p1061
sg4
S'20080913\xc2\xa010:26 AM EDT'
p1062
sg6
S'RMI Enables new category of Portable Navigation Devices with Rich Media and Low Cost...'
p1063
sa(dp1064
g2
S'http://www.reuters.com/article/latestCrisis/idUSLD362371'
p1065
sg4
S'20080913\xc2\xa010:20 AM EDT'
p1066
sg6
S'Five bombs explode in Indian capital, three killed'
p1067
sa(dp1068
g2
S'http://www.reuters.com/article/pressRelease/idUS49234+13-Sep-2008+BW20080913'
p1069
sg4
S'20080913\xc2\xa010:20 AM EDT'
p1070
sg6
S'Remarks by The President on Hurricane Ike'
p1071
sa(dp1072
g2
S'http://www.reuters.com/article/rbssIndustryMaterialsUtilitiesNews/idUSN1337158320080913'
p1073
sg4
S'20080913\xc2\xa010:19 AM EDT'
p1074
sg6
S'STP Texas nuclear reactor stays on through Ike'
p1075
sa(dp1076
g2
S'http://www.reuters.com/article/newsMaps/idUSKLR159620080913'
p1077
sg4
S'20080913\xc2\xa010:16 AM EDT'
p1078
sg6
S'Malaysia\'s Anwar hits out at "political" arrests'
p1079
sa(dp1080
g2
S'http://www.reuters.com/article/euIpoNews/idUSLD11764420080913'
p1081
sg4
S'20080913\xc2\xa010:16 AM EDT'
p1082
sg6
S"ECB's Draghi says banking crisis far from over"
p1083
sa(dp1084
g2
S'http://www.reuters.com/article/economicNews/idUSLD14293120080913'
p1085
sg4
S'20080913\xc2\xa010:09 AM EDT'
p1086
sg6
S"EU's Almunia says still risks of second-round effects"
p1087
sa(dp1088
g2
S'http://www.reuters.com/article/pressRelease/idUS47749+13-Sep-2008+PRN20080913'
p1089
sg4
S'20080913\xc2\xa010:06 AM EDT'
p1090
sg6
S'Radio Address by President Bush to The Nation'
p1091
sa(dp1092
g2
S'http://www.reuters.com/article/pressRelease/idUS47735+13-Sep-2008+BW20080913'
p1093
sg4
S'20080913\xc2\xa010:06 AM EDT'
p1094
sg6
S'Radio Address by the President to the Nation'
p1095
sa(dp1096
g2
S'http://www.reuters.com/article/latestCrisis/idUSSP330027'
p1097
sg4
S'20080913\xc2\xa010:04 AM EDT'
p1098
sg6
S'At least three dead in Indian capital bombs - TV'
p1099
sa(dp1100
g2
S'http://www.reuters.com/article/topNews/idUSLD31108120080913'
p1101
sg4
S'20080913\xc2\xa010:00 AM EDT'
p1102
sg6
S'Iraq bombings kill at least 8'
p1103
sa(dp1104
g2
S'http://www.reuters.com/article/topNews/idUSLD71916520080913'
p1105
sg4
S'20080913\xc2\xa010:00 AM EDT'
p1106
sg6
S'Gunmen kill 4 Iraqi TV staff in Mosul: station'
p1107
sa(dp1108
g2
S'http://www.reuters.com/article/pressRelease/idUS47102+13-Sep-2008+PRN20080913'
p1109
sg4
S'20080913\xc2\xa010:00 AM EDT'
p1110
sg6
S'Following Is a Test Release'
p1111
sa(dp1112
g2
S'http://www.reuters.com/article/pressRelease/idUS47092+13-Sep-2008+PRN20080913'
p1113
sg4
S'20080913\xc2\xa010:00 AM EDT'
p1114
sg6
S'On2 Technologies Unveils New Advanced Video Compression Format'
p1115
sa(dp1116
g2
S'http://www.reuters.com/article/latestCrisis/idUSN13383917'
p1117
sg4
S'20080913\xc2\xa009:53 AM EDT'
p1118
sg6
S'Bush: Danger from Hurricane Ike not yet passed'
p1119
sa(dp1120
g2
S'http://www.reuters.com/article/newsMaps/idUSDEL2783020080913'
p1121
sg4
S'20080913\xc2\xa009:51 AM EDT'
p1122
sg6
S'Twenty injured as fresh violence hits Indian Kashmir'
p1123
sa(dp1124
g2
S'http://www.reuters.com/article/pressRelease/idUS45960+13-Sep-2008+BW20080913'
p1125
sg4
S'20080913\xc2\xa009:50 AM EDT'
p1126
sg6
S'RMI Announces Home Media Player Solution at IBC 2008 Extending Advanced Features...'
p1127
sa(dp1128
g2
S'http://www.reuters.com/article/latestCrisis/idUSDEL327056'
p1129
sg4
S'20080913\xc2\xa009:49 AM EDT'
p1130
sg6
S'Four bombs explode in Indian capital - police'
p1131
sa(dp1132
g2
S'http://www.reuters.com/article/rbssIntegratedOilGas/idUSN1338376320080913'
p1133
sg4
S'20080913\xc2\xa009:42 AM EDT'
p1134
sg6
S'Shell to restaff some offshore platforms after Ike'
p1135
sa(dp1136
g2
S'http://www.reuters.com/article/latestCrisis/idUSLD363743'
p1137
sg4
S'20080913\xc2\xa009:42 AM EDT'
p1138
sg6
S'Death toll from Cairo rock slide rises to 82'
p1139
sa(dp1140
g2
S'http://www.reuters.com/article/homepageCrisis/idUSLD361333._CH_.2400'
p1141
sg4
S'20080913\xc2\xa009:38 AM EDT'
p1142
sg6
S'Sudan accused of bombing Darfur rebels, villagers'
p1143
sa(dp1144
g2
S'http://www.reuters.com/article/latestCrisis/idUSLD361333'
p1145
sg4
S'20080913\xc2\xa009:38 AM EDT'
p1146
sg6
S'Sudan accused of bombing Darfur rebels, villagers'
p1147
sa(dp1148
g2
S'http://www.reuters.com/article/rbssAirlines/idUSLD35839820080913'
p1149
sg4
S'20080913\xc2\xa009:36 AM EDT'
p1150
sg6
S"Germany's TUI examines deal with Air Berlin-magazine"
p1151
sa(dp1152
g2
S'http://www.reuters.com/article/rbssOilGasExplorationProduction/idUSLD33004420080913'
p1153
sg4
S'20080913\xc2\xa009:35 AM EDT'
p1154
sg6
S"Italy's Enel undaunted by Russia political risks"
p1155
sa(dp1156
g2
S'http://www.reuters.com/article/rbssOilGasExplorationProduction/idUSLD32880520080913'
p1157
sg4
S'20080913\xc2\xa009:33 AM EDT'
p1158
sg6
S"Eni's Russian relations good despite Cold War talk"
p1159
sa(dp1160
g2
S'http://www.reuters.com/article/rbssAutoTruckMotorcycleParts/idUSLD34358220080913'
p1161
sg4
S'20080913\xc2\xa009:32 AM EDT'
p1162
sg6
S"UPDATE 1-Germany's Continental issues profit warning"
p1163
sa(dp1164
g2
S'http://www.reuters.com/article/pressRelease/idUS43957+13-Sep-2008+PRN20080913'
p1165
sg4
S'20080913\xc2\xa009:30 AM EDT'
p1166
sg6
S'Following Is a Test Release'
p1167
sa(dp1168
g2
S'http://www.reuters.com/article/latestCrisis/idUSDEL319269'
p1169
sg4
S'20080913\xc2\xa009:24 AM EDT'
p1170
sg6
S'Blasts rocks India capital, 20 injured'
p1171
sa(dp1172
g2
S'http://www.reuters.com/article/GCA-Gustav/idUSHER34820920080913'
p1173
sg4
S'20080913\xc2\xa009:23 AM EDT'
p1174
sg6
S'FACTBOX: Hurricane Ike lashes Texas coast'
p1175
sa(dp1176
g2
S'http://www.reuters.com/article/latestCrisis/idUSLD719165'
p1177
sg4
S'20080913\xc2\xa009:20 AM EDT'
p1178
sg6
S'Gunmen kill 4 Iraqi TV staff in Mosul - station'
p1179
sa(dp1180
g2
S'http://www.reuters.com/article/latestCrisis/idUSN12255176'
p1181
sg4
S'20080913\xc2\xa009:19 AM EDT'
p1182
sg6
S'FACTBOX-Hurricane Ike lashes Texas coast, Houston'
p1183
sa(dp1184
g2
S'http://www.reuters.com/article/bondsNews/idUSN1225517620080913'
p1185
sg4
S'20080913\xc2\xa009:19 AM EDT'
p1186
sg6
S'FACTBOX-Hurricane Ike lashes Texas coast, Houston'
p1187
sa(dp1188
g2
S'http://www.reuters.com/article/homepageCrisis/idUSLD350688._CH_.2400'
p1189
sg4
S'20080913\xc2\xa009:12 AM EDT'
p1190
sg6
S'Twenty injured as fresh violence hits Indian Kashmir'
p1191
sa(dp1192
g2
S'http://www.reuters.com/article/latestCrisis/idUSLD350688'
p1193
sg4
S'20080913\xc2\xa009:12 AM EDT'
p1194
sg6
S'Twenty injured as fresh violence hits Indian Kashmir'
p1195
sa(dp1196
g2
S'http://www.reuters.com/article/companyNewsAndPR/idUSN1337955420080913'
p1197
sg4
S'20080913\xc2\xa009:07 AM EDT'
p1198
sg6
S'Hurricane Ike weakens to Category 1 over Texas'
p1199
sa(dp1200
g2
S'http://www.reuters.com/article/latestCrisis/idUSN13379554'
p1201
sg4
S'20080913\xc2\xa009:07 AM EDT'
p1202
sg6
S'Hurricane Ike weakens to Category 1 over Texas'
p1203
sa(dp1204
g2
S'http://www.reuters.com/article/newsMaps/idUSSP31901420080913'
p1205
sg4
S'20080913\xc2\xa009:02 AM EDT'
p1206
sg6
S'Afghan governor, 3 others die in blast near Kabul'
p1207
sa(dp1208
g2
S'http://www.reuters.com/article/pressRelease/idUS41038+13-Sep-2008+PRN20080913'
p1209
sg4
S'20080913\xc2\xa009:00 AM EDT'
p1210
sg6
S'Following Is a Test Release'
p1211
sa(dp1212
g2
S'http://www.reuters.com/article/GCA-Gustav/idUSN1137024220080913'
p1213
sg4
S'20080913\xc2\xa008:55 AM EDT'
p1214
sg6
S'FACTBOX: Ike slams ashore amid 22 percent of U.S. refining'
p1215
sa(dp1216
g2
S'http://www.reuters.com/article/latestCrisis/idUSN13341082'
p1217
sg4
S'20080913\xc2\xa008:55 AM EDT'
p1218
sg6
S'Bush: Danger from Hurricane Ike not yet passed'
p1219
sa(dp1220
g2
S'http://www.reuters.com/article/pressRelease/idUS40863+13-Sep-2008+BW20080913'
p1221
sg4
S'20080913\xc2\xa008:54 AM EDT'
p1222
sg6
S'Packet Vision Teams with RMI to Deliver the Next Level of Targeted Television Advertising'
p1223
sa(dp1224
g2
S'http://www.reuters.com/article/newsOne/idUSLD32958920080913'
p1225
sg4
S'20080913\xc2\xa008:50 AM EDT'
p1226
sg6
S'EU Georgia monitoring team ready on time: Solana'
p1227
sa(dp1228
g2
S'http://www.reuters.com/article/latestCrisis/idUSLD329589'
p1229
sg4
S'20080913\xc2\xa008:47 AM EDT'
p1230
sg6
S'INTERVIEW-EU Georgia monitoring team ready on time - Solana'
p1231
sa(dp1232
g2
S'http://www.reuters.com/article/latestCrisis/idUSLD452113'
p1233
sg4
S'20080913\xc2\xa008:41 AM EDT'
p1234
sg6
S'China says 432 babies fall ill from milk powder'
p1235
sa(dp1236
g2
S'http://www.reuters.com/article/rbssAirlines/idUSMOS34517720080913'
p1237
sg4
S'20080913\xc2\xa008:37 AM EDT'
p1238
sg6
S'Norway says SAS needs changes, would evaluate bid'
p1239
sa(dp1240
g2
S'http://www.reuters.com/article/ousivMolt/idUSN1232304120080913'
p1241
sg4
S'20080913\xc2\xa008:36 AM EDT'
p1242
sg6
S'Walgreen offers to buy Longs for $3 billion including debt'
p1243
sa(dp1244
g2
S'http://www.reuters.com/article/pressRelease/idUS40149+13-Sep-2008+BW20080913'
p1245
sg4
S'20080913\xc2\xa008:36 AM EDT'
p1246
sg6
S'Aetna Reminds Members Affected by Hurricane Ike Where to Call for Help'
p1247
sa(dp1248
g2
S'http://www.reuters.com/article/pressRelease/idUS39986+13-Sep-2008+PRN20080913'
p1249
sg4
S'20080913\xc2\xa008:30 AM EDT'
p1250
sg6
S'Following Is a Test Release'
p1251
sa(dp1252
g2
S'http://www.reuters.com/article/pressRelease/idUS39981+13-Sep-2008+BW20080913'
p1253
sg4
S'20080913\xc2\xa008:30 AM EDT'
p1254
sg6
S'EQECAT Initial Post-Landfall Estimates Of Insured Onshore Losses From Hurricane Ike'
p1255
sa(dp1256
g2
S'http://www.reuters.com/article/rbssEnergyNews/idUSLD33864620080913'
p1257
sg4
S'20080913\xc2\xa008:21 AM EDT'
p1258
sg6
S'UPDATE 1-Total CEO argues merits of high energy prices'
p1259
sa(dp1260
g2
S'http://www.reuters.com/article/homepageCrisis/idUSLD261495._CH_.2400'
p1261
sg4
S'20080913\xc2\xa008:18 AM EDT'
p1262
sg6
S'Russian troops withdraw from Georgian port region'
p1263
sa(dp1264
g2
S'http://www.reuters.com/article/newsMaps/idUSLD23045120080913'
p1265
sg4
S'20080913\xc2\xa008:17 AM EDT'
p1266
sg6
S'Sarkozy limbers up for judo lessons from Putin'
p1267
sa(dp1268
g2
S'http://www.reuters.com/article/homepageCrisis/idUSDEL122136._CH_.2400'
p1269
sg4
S'20080913\xc2\xa008:13 AM EDT'
p1270
sg6
S'India urges villagers to evacuate as flood waters rise'
p1271
sa(dp1272
g2
S'http://www.reuters.com/article/americasCrisis/idUSDEL122136'
p1273
sg4
S'20080913\xc2\xa008:13 AM EDT'
p1274
sg6
S'India urges villagers to evacuate as flood waters rise'
p1275
sa(dp1276
g2
S'http://www.reuters.com/article/sportsNews/idUSSP23723020080913'
p1277
sg4
S'20080913\xc2\xa008:10 AM EDT'
p1278
sg6
S'Wakefield slows down Blue Jays in Red Sox win'
p1279
sa(dp1280
g2
S'http://www.reuters.com/article/pressRelease/idUS39015+13-Sep-2008+BW20080913'
p1281
sg4
S'20080913\xc2\xa008:08 AM EDT'
p1282
sg6
S'Flagstone Estimates Onshore Industry Insured Losses of $10 Billion to $16 Billion...'
p1283
sa(dp1284
g2
S'http://www.reuters.com/article/pressRelease/idUS38824+13-Sep-2008+GNW20080913'
p1285
sg4
S'20080913\xc2\xa008:01 AM EDT'
p1286
sg6
S'Gardy & Notis, LLP Files Securities Fraud Class Action Against Synchronoss Technologies,...'
p1287
sa(dp1288
g2
S'http://www.reuters.com/article/pressRelease/idUS38787+13-Sep-2008+PRN20080913'
p1289
sg4
S'20080913\xc2\xa008:00 AM EDT'
p1290
sg6
S'Following Is a Test Release'
p1291
sa(dp1292
g2
S'http://www.reuters.com/article/mediaNews/idUSLD32429020080913'
p1293
sg4
S'20080913\xc2\xa007:59 AM EDT'
p1294
sg6
S'Gunmen kill 4 Iraqi TV staff in Mosul - station'
p1295
sa(dp1296
g2
S'http://www.reuters.com/article/latestCrisis/idUSLD324290'
p1297
sg4
S'20080913\xc2\xa007:59 AM EDT'
p1298
sg6
S'Gunmen kill 4 Iraqi TV staff in Mosul - station'
p1299
sa(dp1300
g2
S'http://www.reuters.com/article/rbssInvestmentServices/idUSLD33321420080913'
p1301
sg4
S'20080913\xc2\xa007:52 AM EDT'
p1302
sg6
S'D.Boerse wants Asian wealth fund as investor-report'
p1303
sa(dp1304
g2
S'http://www.reuters.com/article/companyNewsAndPR/idUSLC57858320080913'
p1305
sg4
S'20080913\xc2\xa007:45 AM EDT'
p1306
sg6
S'Gastric cancer patients live longer on Roche pill'
p1307
sa(dp1308
g2
S'http://www.reuters.com/article/entertainmentNews/idUSLD32736420080913'
p1309
sg4
S'20080913\xc2\xa007:44 AM EDT'
p1310
sg6
S'Has ABBA museum met its Waterloo?'
p1311
sa(dp1312
g2
S'http://www.reuters.com/article/musicNews/idUSN1242348820080913'
p1313
sg4
S'20080913\xc2\xa007:42 AM EDT'
p1314
sg6
S'Checker\'s "Twist" tops all-time singles chart'
p1315
sa(dp1316
g2
S'http://www.reuters.com/article/olympicsNews/idUSPEK32823920080913'
p1317
sg4
S'20080913\xc2\xa007:37 AM EDT'
p1318
sg6
S"Paralympics-Beijing's 'second' Games prove a big draw"
p1319
sa(dp1320
g2
S'http://www.reuters.com/article/ousivMolt/idUSN1247698720080913'
p1321
sg4
S'20080913\xc2\xa007:36 AM EDT'
p1322
sg6
S'GM to provide $10.6 billion to support Delphi'
p1323
sa(dp1324
g2
S'http://www.reuters.com/article/pressRelease/idUS37816+13-Sep-2008+PRN20080913'
p1325
sg4
S'20080913\xc2\xa007:30 AM EDT'
p1326
sg6
S'Following Is a Test Release'
p1327
sa(dp1328
g2
S'http://www.reuters.com/article/rbssIntegratedOilGas/idUSLD32282320080913'
p1329
sg4
S'20080913\xc2\xa007:23 AM EDT'
p1330
sg6
S'Total CEO argues merits of high energy prices'
p1331
sa(dp1332
g2
S'http://www.reuters.com/article/ousivMolt/idUSRAT00402220080913'
p1333
sg4
S'20080913\xc2\xa007:16 AM EDT'
p1334
sg6
S'Bankruptcy chief calls urgent Alitalia union talks'
p1335
sa(dp1336
g2
S'http://www.reuters.com/article/globalMarketsNews/idUSN1243563020080913'
p1337
sg4
S'20080913\xc2\xa007:15 AM EDT'
p1338
sg6
S'Wide financial sector fears to drive market'
p1339
sa(dp1340
g2
S'http://www.reuters.com/article/latestCrisis/idUSLD320872'
p1341
sg4
S'20080913\xc2\xa007:12 AM EDT'
p1342
sg6
S'Jewish boy stabbed in West Bank, Palestinians shot'
p1343
sa(dp1344
g2
S'http://www.reuters.com/article/latestCrisis/idUSLD311081'
p1345
sg4
S'20080913\xc2\xa007:10 AM EDT'
p1346
sg6
S'Iraq bombings kill at least 8 - police'
p1347
sa(dp1348
g2
S'http://www.reuters.com/article/rbssCommercialPrinting Services/idUSLD27600820080913'
p1349
sg4
S'20080913\xc2\xa007:06 AM EDT'
p1350
sg6
S'Controversy erupts over Kenya central bank deputy move'
p1351
sa(dp1352
g2
S'http://www.reuters.com/article/latestCrisis/idUSLD276008'
p1353
sg4
S'20080913\xc2\xa007:06 AM EDT'
p1354
sg6
S'Controversy erupts over Kenya central bank deputy move'
p1355
sa(dp1356
g2
S'http://www.reuters.com/article/gc05/idUSLC32584920080913'
p1357
sg4
S'20080913\xc2\xa007:05 AM EDT'
p1358
sg6
S'Car bomb kills 30 north of Baghdad: police'
p1359
sa(dp1360
g2
S'http://www.reuters.com/article/rbssAutoTruckManufacturers/idUSLD31538420080913'
p1361
sg4
S'20080913\xc2\xa007:00 AM EDT'
p1362
sg6
S"Mahindra interested in Italy's Malaguti -report"
p1363
sa(dp1364
g2
S'http://www.reuters.com/article/pressRelease/idUS36470+13-Sep-2008+PRN20080913'
p1365
sg4
S'20080913\xc2\xa007:00 AM EDT'
p1366
sg6
S'Following Is a Test Release'
p1367
sa(dp1368
g2
S'http://www.reuters.com/article/rbssITServicesConsulting/idUSBOM23519220080913'
p1369
sg4
S'20080913\xc2\xa006:59 AM EDT'
p1370
sg6
S'NCDEX, NSE to start power bourse in Oct - official'
p1371
sa(dp1372
g2
S'http://www.reuters.com/article/rbssOilGasExplorationProduction/idUSRAT00402120080913'
p1373
sg4
S'20080913\xc2\xa006:51 AM EDT'
p1374
sg6
S'Eni sees crude prices dropping well below $100'
p1375
sa(dp1376
g2
S'http://www.reuters.com/article/pressRelease/idUS36141+13-Sep-2008+PRN20080913'
p1377
sg4
S'20080913\xc2\xa006:51 AM EDT'
p1378
sg6
S'RAD001 Combined with Sandostatin LAR(R) Depot and as Monotherapy Controls Growth...'
p1379
sa(dp1380
g2
S'http://www.reuters.com/article/homepageCrisis/idUSDEL27830._CH_.2400'
p1381
sg4
S'20080913\xc2\xa006:45 AM EDT'
p1382
sg6
S'Dozen injured as fresh violence hits Indian Kashmir'
p1383
sa(dp1384
g2
S'http://www.reuters.com/article/latestCrisis/idUSDEL27830'
p1385
sg4
S'20080913\xc2\xa006:45 AM EDT'
p1386
sg6
S'Dozen injured as fresh violence hits Indian Kashmir'
p1387
sa(dp1388
g2
S'http://www.reuters.com/article/rbssBiotechnology/idUSLC64015920080913'
p1389
sg4
S'20080913\xc2\xa006:45 AM EDT'
p1390
sg6
S'Targeted Tarceva use effective for some tumours'
p1391
sa(dp1392
g2
S'http://www.reuters.com/article/newsMaps/idUSSP30786720080913'
p1393
sg4
S'20080913\xc2\xa006:42 AM EDT'
p1394
sg6
S'FACTBOX: Security developments in Afghanistan'
p1395
sa(dp1396
g2
S'http://www.reuters.com/article/environmentNews/idUSSHA33802220080913'
p1397
sg4
S'20080913\xc2\xa006:41 AM EDT'
p1398
sg6
S'China mulls green tax to curb pollution: report'
p1399
sa(dp1400
g2
S'http://www.reuters.com/article/latestCrisis/idUSSHA336726'
p1401
sg4
S'20080913\xc2\xa006:40 AM EDT'
p1402
sg6
S'China says 432 babies ill in milk powder scare'
p1403
sa(dp1404
g2
S'http://www.reuters.com/article/worldNews/idUSSP26321320080913'
p1405
sg4
S'20080913\xc2\xa006:37 AM EDT'
p1406
sg6
S'Thai ruling coalition begins search for new PM'
p1407
sa(dp1408
g2
S'http://www.reuters.com/article/latestCrisis/idUSSP307867'
p1409
sg4
S'20080913\xc2\xa006:34 AM EDT'
p1410
sg6
S'FACTBOX-Security developments in Afghanistan, Sept 13'
p1411
sa(dp1412
g2
S'http://www.reuters.com/article/latestCrisis/idUSSHA338022'
p1413
sg4
S'20080913\xc2\xa006:30 AM EDT'
p1414
sg6
S'China mulls green tax to curb pollution - report'
p1415
sa(dp1416
g2
S'http://www.reuters.com/article/pressRelease/idUS35029+13-Sep-2008+PRN20080913'
p1417
sg4
S'20080913\xc2\xa006:30 AM EDT'
p1418
sg6
S'Following Is a Test Release'
p1419
sa(dp1420
g2
S'http://www.reuters.com/article/newsMaps/idUSLD30721820080913'
p1421
sg4
S'20080913\xc2\xa006:17 AM EDT'
p1422
sg6
S'German police arrest suspected al Qaeda supporter'
p1423
sa(dp1424
g2
S'http://www.reuters.com/article/pressRelease/idUS34101+13-Sep-2008+PRN20080913'
p1425
sg4
S'20080913\xc2\xa006:00 AM EDT'
p1426
sg6
S'Following Is a Test Release'
p1427
sa(dp1428
g2
S'http://www.reuters.com/article/pressRelease/idUS34098+13-Sep-2008+PRN20080913'
p1429
sg4
S'20080913\xc2\xa006:00 AM EDT'
p1430
sg6
S'Academy Award Winner Gustavo Santaolalla Receives Gabi Lifetime Achievement Award...'
p1431
sa(dp1432
g2
S'http://www.reuters.com/article/pressRelease/idUS34062+13-Sep-2008+PRN20080913'
p1433
sg4
S'20080913\xc2\xa005:59 AM EDT'
p1434
sg6
S'GOOD MORNING -- September 13, 2008'
p1435
sa(dp1436
g2
S'http://www.reuters.com/article/latestCrisis/idUSSP249608'
p1437
sg4
S'20080913\xc2\xa005:58 AM EDT'
p1438
sg6
S'Afghan governor, 3 others die in blast near Kabul'
p1439
sa(dp1440
g2
S'http://www.reuters.com/article/newsOne/idUSLD30328620080913'
p1441
sg4
S'20080913\xc2\xa005:56 AM EDT'
p1442
sg6
S"Britain's Brown faces leadership challenge call"
p1443
sa(dp1444
g2
S'http://www.reuters.com/article/pressRelease/idUS33189+13-Sep-2008+PRN20080913'
p1445
sg4
S'20080913\xc2\xa005:30 AM EDT'
p1446
sg6
S'Following Is a Test Release'
p1447
sa(dp1448
g2
S'http://www.reuters.com/article/filmNews/idUSDEL26890220080913'
p1449
sg4
S'20080913\xc2\xa005:28 AM EDT'
p1450
sg6
S'Bollywood\'s "Last Lear" a treat for Shakespeare lovers'
p1451
sa(dp1452
g2
S'http://www.reuters.com/article/privateEquityIndustryMaterialsAndUtilities/idUSLD30568120080913'
p1453
sg4
S'20080913\xc2\xa005:19 AM EDT'
p1454
sg6
S'Foreign investors eye Polish chemical markers-paper'
p1455
sa(dp1456
g2
S'http://www.reuters.com/article/pressRelease/idUS32857+13-Sep-2008+MW20080913'
p1457
sg4
S'20080913\xc2\xa005:19 AM EDT'
p1458
sg6
S' 42 Below Cocktail World Cup Winner Announced'
p1459
sa(dp1460
g2
S'http://www.reuters.com/article/worldNews/idUSLD29149920080913'
p1461
sg4
S'20080913\xc2\xa005:18 AM EDT'
p1462
sg6
S'Freight, passenger traffic resume in Channel Tunnel'
p1463
sa(dp1464
g2
S'http://www.reuters.com/article/GCA-GCA-iraq/idUSN1244292520080913'
p1465
sg4
S'20080913\xc2\xa005:05 AM EDT'
p1466
sg6
S"Tens of thousands of Iraqis may come to U.S. in '09"
p1467
sa(dp1468
g2
S'http://www.reuters.com/article/pressRelease/idUS32173+13-Sep-2008+PRN20080913'
p1469
sg4
S'20080913\xc2\xa005:00 AM EDT'
p1470
sg6
S'Following Is a Test Release'
p1471
sa(dp1472
g2
S'http://www.reuters.com/article/latestCrisis/idUSDEL214092'
p1473
sg4
S'20080913\xc2\xa004:48 AM EDT'
p1474
sg6
S'Wild elephant kills four in Nepal village - police'
p1475
sa(dp1476
g2
S'http://www.reuters.com/article/rbssPharmaceuticals - Generic & Specialty/idUSLD30030920080913'
p1477
sg4
S'20080913\xc2\xa004:30 AM EDT'
p1478
sg6
S'Polish media tycoon may sell his pension fund-paper'
p1479
sa(dp1480
g2
S'http://www.reuters.com/article/pressRelease/idUS31195+13-Sep-2008+PRN20080913'
p1481
sg4
S'20080913\xc2\xa004:30 AM EDT'
p1482
sg6
S'Following Is a Test Release'
p1483
sa(dp1484
g2
S'http://www.reuters.com/article/asiaCrisis/idUSLD261495'
p1485
sg4
S'20080913\xc2\xa004:14 AM EDT'
p1486
sg6
S'Russian troops pull out of Georgian port region'
p1487
sa(dp1488
g2
S'http://www.reuters.com/article/musicNews/idUSN1242401420080913'
p1489
sg4
S'20080913\xc2\xa004:11 AM EDT'
p1490
sg6
S"UK music hits haven't always crossed the pond"
p1491
sa(dp1492
g2
S'http://www.reuters.com/article/musicNews/idUSN1242394020080913'
p1493
sg4
S'20080913\xc2\xa004:09 AM EDT'
p1494
sg6
S'UK performers still keen to conquer U.S. charts'
p1495
sa(dp1496
g2
S'http://www.reuters.com/article/pressRelease/idUS30039+13-Sep-2008+PRN20080913'
p1497
sg4
S'20080913\xc2\xa004:00 AM EDT'
p1498
sg6
S'Following Is a Test Release'
p1499
sa(dp1500
g2
S'http://www.reuters.com/article/latestCrisis/idUSLD267745'
p1501
sg4
S'20080913\xc2\xa003:52 AM EDT'
p1502
sg6
S'Freight, passenger traffic resume in Channel Tunnel'
p1503
sa(dp1504
g2
S'http://www.reuters.com/article/environmentNews/idUSSP26425520080913'
p1505
sg4
S'20080913\xc2\xa003:45 AM EDT'
p1506
sg6
S'Australia seeks to lower carbon emissions from cars'
p1507
sa(dp1508
g2
S'http://www.reuters.com/article/latestCrisis/idUSSP264255'
p1509
sg4
S'20080913\xc2\xa003:43 AM EDT'
p1510
sg6
S'Australia seeks to lower carbon emissions from cars'
p1511
sa(dp1512
g2
S'http://www.reuters.com/article/GCA-Gustav/idUSN1230518820080913'
p1513
sg4
S'20080913\xc2\xa003:40 AM EDT'
p1514
sg6
S'Hurricane Ike makes landfall near Galveston, Texas'
p1515
sa(dp1516
g2
S'http://www.reuters.com/article/latestCrisis/idUSN12305188'
p1517
sg4
S'20080913\xc2\xa003:35 AM EDT'
p1518
sg6
S'Hurricane Ike makes landfall near Galveston, Texas'
p1519
sa(dp1520
g2
S'http://www.reuters.com/article/pressRelease/idUS28794+13-Sep-2008+PRN20080913'
p1521
sg4
S'20080913\xc2\xa003:30 AM EDT'
p1522
sg6
S'Following Is a Test Release'
p1523
sa(dp1524
g2
S'http://www.reuters.com/article/latestCrisis/idUSLD291499'
p1525
sg4
S'20080913\xc2\xa003:22 AM EDT'
p1526
sg6
S'Freight, passenger traffic resume in Channel Tunnel'
p1527
sa(dp1528
g2
S'http://www.reuters.com/article/pressRelease/idUS28430+13-Sep-2008+PRN20080913'
p1529
sg4
S'20080913\xc2\xa003:14 AM EDT'
p1530
sg6
S'Metallica Looks Outside the Music Industry for Design and Branding'
p1531
sa(dp1532
g2
S'http://www.reuters.com/article/worldNews/idUSSP8237320080913'
p1533
sg4
S'20080913\xc2\xa003:13 AM EDT'
p1534
sg6
S'Myanmar blames "insurgents" for deadly bomb blasts'
p1535
sa(dp1536
g2
S'http://www.reuters.com/article/latestCrisis/idUSSP82373'
p1537
sg4
S'20080913\xc2\xa003:10 AM EDT'
p1538
sg6
S'Myanmar blames "insurgents" for deadly bomb blasts'
p1539
sa(dp1540
g2
S'http://www.reuters.com/article/pressRelease/idUS28132+13-Sep-2008+PRN20080913'
p1541
sg4
S'20080913\xc2\xa003:00 AM EDT'
p1542
sg6
S'Following Is a Test Release'
p1543
sa(dp1544
g2
S'http://www.reuters.com/article/internetNews/idUSN1234778920080913'
p1545
sg4
S'20080913\xc2\xa002:52 AM EDT'
p1546
sg6
S'Media group to create new digital video "ecosystem"'
p1547
sa(dp1548
g2
S'http://www.reuters.com/article/technologyNews/idUSN1247430620080913'
p1549
sg4
S'20080913\xc2\xa002:51 AM EDT'
p1550
sg6
S'Google buys Korean blogging software company'
p1551
sa(dp1552
g2
S'http://www.reuters.com/article/worldNews/idUSLD50145620080913'
p1553
sg4
S'20080913\xc2\xa002:41 AM EDT'
p1554
sg6
S'African Union hails Zimbabwe "turning point"'
p1555
sa(dp1556
g2
S'http://www.reuters.com/article/latestCrisis/idUSN13322322'
p1557
sg4
S'20080913\xc2\xa002:41 AM EDT'
p1558
sg6
S'Bolivian rivals meet as political tensions simmer'
p1559
sa(dp1560
g2
S'http://www.reuters.com/article/latestCrisis/idUSLD501456'
p1561
sg4
S'20080913\xc2\xa002:39 AM EDT'
p1562
sg6
S'African Union hails Zimbabwe "turning point"'
p1563
sa(dp1564
g2
S'http://www.reuters.com/article/pressRelease/idUS27325+13-Sep-2008+PRN20080913'
p1565
sg4
S'20080913\xc2\xa002:30 AM EDT'
p1566
sg6
S'Following Is a Test Release'
p1567
sa(dp1568
g2
S'http://www.reuters.com/article/domesticNews/idUSN1237295420080913'
p1569
sg4
S'20080913\xc2\xa002:10 AM EDT'
p1570
sg6
S'Hurricane Ike could hammer insurers'
p1571
sa(dp1572
g2
S'http://www.reuters.com/article/domesticNews/idUSN1229266820080913'
p1573
sg4
S'20080913\xc2\xa002:10 AM EDT'
p1574
sg6
S'Ike could further dampen Louisiana cotton harvest'
p1575
sa(dp1576
g2
S'http://www.reuters.com/article/domesticNews/idUSN1245065620080913'
p1577
sg4
S'20080913\xc2\xa002:10 AM EDT'
p1578
sg6
S'Chertoff says Ike a worst-case scenario for U.S.'
p1579
sa(dp1580
g2
S'http://www.reuters.com/article/domesticNews/idUSN1240499420080913'
p1581
sg4
S'20080913\xc2\xa002:10 AM EDT'
p1582
sg6
S'Texas, west La. ports shut; stranded ship OK'
p1583
sa(dp1584
g2
S'http://www.reuters.com/article/worldNews/idUSN1233044520080913'
p1585
sg4
S'20080913\xc2\xa002:03 AM EDT'
p1586
sg6
S'Mexican police find 24 bodies; drug gang suspected'
p1587
sa(dp1588
g2
S'http://www.reuters.com/article/latestCrisis/idUSN12438848'
p1589
sg4
S'20080913\xc2\xa002:00 AM EDT'
p1590
sg6
S'Bolivia declares martial law in protest-hit region'
p1591
sa(dp1592
g2
S'http://www.reuters.com/article/pressRelease/idUS26365+13-Sep-2008+PRN20080913'
p1593
sg4
S'20080913\xc2\xa002:00 AM EDT'
p1594
sg6
S'Following Is a Test Release'
p1595
sa(dp1596
g2
S'http://www.reuters.com/article/latestCrisis/idUSN13355567'
p1597
sg4
S'20080913\xc2\xa001:55 AM EDT'
p1598
sg6
S'Mexican police find 24 bodies; drug gang suspected'
p1599
sa(dp1600
g2
S'http://www.reuters.com/article/companyNewsAndPR/idUSN1232708820080913'
p1601
sg4
S'20080913\xc2\xa001:35 AM EDT'
p1602
sg6
S'UPDATE 5-At least 10 dead, 100 hurt in L.A. train crash'
p1603
sa(dp1604
g2
S'http://www.reuters.com/article/pressRelease/idUS25542+13-Sep-2008+PRN20080913'
p1605
sg4
S'20080913\xc2\xa001:30 AM EDT'
p1606
sg6
S'Following Is a Test Release'
p1607
sa(dp1608
g2
S'http://www.reuters.com/article/latestCrisis/idUSSP319014'
p1609
sg4
S'20080913\xc2\xa001:27 AM EDT'
p1610
sg6
S'Afghan governor dies in suicide blast near Kabul'
p1611
sa(dp1612
g2
S'http://www.reuters.com/article/pressRelease/idUS24918+13-Sep-2008+PRN20080913'
p1613
sg4
S'20080913\xc2\xa001:00 AM EDT'
p1614
sg6
S'Following Is a Test Release'
p1615
sa(dp1616
g2
S'http://www.reuters.com/article/companyNewsAndPR/idUSN1235585020080913'
p1617
sg4
S'20080913\xc2\xa012:52 AM EDT'
p1618
sg6
S'WRAPUP 11-Hurricane Ike menaces vulnerable Texas coast'
p1619
sa(dp1620
g2
S'http://www.reuters.com/article/worldNews/idUSSP12564220080913'
p1621
sg4
S'20080913\xc2\xa012:48 AM EDT'
p1622
sg6
S'Taliban executions still haunt Afghan soccer field'
p1623
sa(dp1624
g2
S'http://www.reuters.com/article/latestCrisis/idUSN12330445'
p1625
sg4
S'20080913\xc2\xa012:40 AM EDT'
p1626
sg6
S'Mexican police find 24 bodies dumped near capital'
p1627
sa(dp1628
g2
S'http://www.reuters.com/article/newsOne/idUSN1248664820080913'
p1629
sg4
S'20080913\xc2\xa012:31 AM EDT'
p1630
sg6
S'Honduras in diplomatic snub to U.S. over Bolivia'
p1631
sa(dp1632
g2
S'http://www.reuters.com/article/newsOne/idUSN1238914620080913'
p1633
sg4
S'20080913\xc2\xa012:31 AM EDT'
p1634
sg6
S'U.S. OKs departure of some embassy staff from Bolivia'
p1635
sa(dp1636
g2
S'http://www.reuters.com/article/pressRelease/idUS24237+13-Sep-2008+PRN20080913'
p1637
sg4
S'20080913\xc2\xa012:30 AM EDT'
p1638
sg6
S'Following Is a Test Release'
p1639
sa(dp1640
g2
S'http://www.reuters.com/article/rbssInvestmentServices/idUSSHA32989020080913'
p1641
sg4
S'20080913\xc2\xa012:28 AM EDT'
p1642
sg6
S'China steps up pace of foreign fund approvals'
p1643
sa(dp1644
g2
S'http://www.reuters.com/article/newsOne/idUSLC9293620080913'
p1645
sg4
S'20080913\xc2\xa012:24 AM EDT'
p1646
sg6
S"Russia puzzled, angered at West's Georgia response"
p1647
sa(dp1648
g2
S'http://www.reuters.com/article/newsOne/idUSLC66333720080913'
p1649
sg4
S'20080913\xc2\xa012:24 AM EDT'
p1650
sg6
S'Medvedev condemns Georgia NATO membership promise'
p1651
sa(dp1652
g2
S'http://www.reuters.com/article/latestCrisis/idUSSP125642'
p1653
sg4
S'20080913\xc2\xa012:24 AM EDT'
p1654
sg6
S'FEATURE-Afghan soccer field haunted by Taliban executions'
p1655
sa(dp1656
g2
S'http://www.reuters.com/article/latestCrisis/idUSLD282942'
p1657
sg4
S'20080913\xc2\xa012:18 AM EDT'
p1658
sg6
S'Russian troops withdraw from Georgian port'
p1659
sa(dp1660
g2
S'http://www.reuters.com/article/pressRelease/idUS23363+13-Sep-2008+PRN20080913'
p1661
sg4
S'20080913\xc2\xa012:00 AM EDT'
p1662
sg6
S'Following Is a Test Release'
p1663
sa(dp1664
g2
S'http://www.reuters.com/article/rbssREITResidentialCommercial/idUSL0917709320080913'
p1665
sg4
S'20080913\xc2\xa012:00 AM EDT'
p1666
sg6
S'DIARY - Today in Belgium/Luxembourg - Sept 15'
p1667
sa(dp1668
g2
S'http://www.reuters.com/news/video/videoStory?storyID=ftpo1218216646096'
p1669
sg4
S'20080913\xc2\xa002:28 PM EDT'
p1670
sg6
S'Death and destruction in Delhi'
p1671
sa(dp1672
g2
S'http://www.reuters.com/news/video/videoStory?storyID=ftpo1218216646091'
p1673
sg4
S'20080913\xc2\xa002:09 PM EDT'
p1674
sg6
S'Powerful typhoon hits Taiwan'
p1675
sa(dp1676
g2
S'http://www.reuters.com/news/video/videoStory?storyID=ftpo1218216646086'
p1677
sg4
S'20080913\xc2\xa012:13 PM EDT'
p1678
sg6
S'Ike brings floods to Texas'
p1679
sa(dp1680
g2
S'http://www.reuters.com/news/video/videoStory?storyID=ftpo1218216646081'
p1681
sg4
S'20080913\xc2\xa012:06 PM EDT'
p1682
sg6
S'Milk powder poisons 432 babies'
p1683
sa(dp1684
g2
S'http://www.reuters.com/news/video/videoStory?storyID=ftpo1218216646071'
p1685
sg4
S'20080913\xc2\xa011:21 AM EDT'
p1686
sg6
S'200,000 pray with Pope in Paris'
p1687
sa(dp1688
g2
S'http://www.reuters.com/news/video/videoStory?storyID=WAO1213660422465'
p1689
sg4
S'20080913\xc2\xa011:13 AM EDT'
p1690
sg6
S'Bush: Danger from Ike not over'
p1691
sa(dp1692
g2
S'http://www.reuters.com/news/video/videoStory?storyID=ftpo1218216646066'
p1693
sg4
S'20080913\xc2\xa011:09 AM EDT'
p1694
sg6
S'Blasts rock Indian capital'
p1695
sa(dp1696
g2
S'http://www.reuters.com/news/video/videoStory?storyID=ftpo1218216646056'
p1697
sg4
S'20080913\xc2\xa010:23 AM EDT'
p1698
sg6
S'West Bank stabbing backlash'
p1699
sa(dp1700
g2
S'http://www.reuters.com/news/video/videoStory?storyID=WAO1213660422460'
p1701
sg4
S'20080913\xc2\xa010:03 AM EDT'
p1702
sg6
S'Russian troops withdraw from Poti'
p1703
sa(dp1704
g2
S'http://www.reuters.com/news/video/videoStory?storyID=WAO1213660422455'
p1705
sg4
S'20080913\xc2\xa009:09 AM EDT'
p1706
sg6
S'Children accused of witchcraft'
p1707
sa(dp1708
g2
S'http://www.reuters.com/news/video/videoStory?storyID=ftpo1218216646036'
p1709
sg4
S'20080913\xc2\xa006:27 AM EDT'
p1710
sg6
S'Dozens die in  Iraq blast'
p1711
sa(dp1712
g2
S'http://www.reuters.com/news/video/videoStory?storyID=ftpo1218216646031'
p1713
sg4
S'20080913\xc2\xa006:19 AM EDT'
p1714
sg6
S'Eurostar back on track'
p1715
sa(dp1716
g2
S'http://www.reuters.com/news/video/videoStory?storyID=WAO1213660422385'
p1717
sg4
S'20080913\xc2\xa005:52 AM EDT'
p1718
sg6
S"New York's gastronomic battle"
p1719
sa.