(lp0
(dp1
S'href'
p2
S'http://www.reuters.com/article/tokyoMktRpt/idUST22457020090223'
p3
sS'ts'
p4
S'20090222\xc2\xa011:59 PM EST'
p5
sS'title'
p6
S'Nikkei down on U.S. bank fears but Citi report helps'
p7
sa(dp8
g2
S'http://www.reuters.com/article/mediaNews/idUSN2275498720090223'
p9
sg4
S'20090222\xc2\xa011:59 PM EST'
p10
sg6
S'FACTBOX-UPDATE 1-Full list of Academy Award winners'
p11
sa(dp12
g2
S'http://www.reuters.com/article/rbssSoftware/idUSBOM37677920090223'
p13
sg4
S'20090222\xc2\xa011:57 PM EST'
p14
sg6
S"India's Infosys eyes two European firms-report"
p15
sa(dp16
g2
S'http://www.reuters.com/article/rbssBanks/idUSHKG36125320090223'
p17
sg4
S'20090222\xc2\xa011:55 PM EST'
p18
sg6
S'Merrill names new head of Asia-Pac global sales'
p19
sa(dp20
g2
S'http://www.reuters.com/article/peopleNews/idUSTRE51M1QL20090223'
p21
sg4
S'20090222\xc2\xa011:53 PM EST'
p22
sg6
S'FACTBOX: Five facts about Sean Penn'
p23
sa(dp24
g2
S'http://www.reuters.com/article/mediaNews/idUSN2254011020090223'
p25
sg4
S'20090222\xc2\xa011:50 PM EST'
p26
sg6
S'FACTBOX - Five facts about Sean Penn'
p27
sa(dp28
g2
S'http://www.reuters.com/article/mediaNews/idUSN2245640820090223'
p29
sg4
S'20090222\xc2\xa011:48 PM EST'
p30
sg6
S"Sean Penn wins best actor Oscar for 'Milk'"
p31
sa(dp32
g2
S'http://www.reuters.com/article/bondsNews/idUSN2232146920090223'
p33
sg4
S'20090222\xc2\xa011:48 PM EST'
p34
sg6
S'UPDATE 1-Chrysler gives Canada more details, more needed'
p35
sa(dp36
g2
S'http://www.reuters.com/article/peopleNews/idUSTRE51M1OD20090223'
p37
sg4
S'20090222\xc2\xa011:46 PM EST'
p38
sg6
S'FACTBOX: Five facts about Kate Winslet'
p39
sa(dp40
g2
S'http://www.reuters.com/article/rbssConsumerElectronics/idUSN1739089220090223'
p41
sg4
S'20090222\xc2\xa011:45 PM EST'
p42
sg6
S'FACTBOX- Five facts about Kate Winslet'
p43
sa(dp44
g2
S'http://www.reuters.com/article/PBLSHG/idUSN2029758620090223'
p45
sg4
S'20090222\xc2\xa011:43 PM EST'
p46
sg6
S'FACTBOX - Five facts about "Departures"'
p47
sa(dp48
g2
S'http://www.reuters.com/article/usDollarRpt/idUSSP42888820090223'
p49
sg4
S'20090222\xc2\xa011:43 PM EST'
p50
sg6
S'RPT-GLOBAL MARKETS-Stocks rally, US dollar falls on Citi relief'
p51
sa(dp52
g2
S'http://www.reuters.com/article/privateEquityFinancialServicesAndRealEstate/idUSBNG7423920090223'
p53
sg4
S'20090222\xc2\xa011:42 PM EST'
p54
sg6
S'Guy Hands buys out stricken investors- FT'
p55
sa(dp56
g2
S'http://www.reuters.com/article/mediaNews/idUSN2226793620090223'
p57
sg4
S'20090222\xc2\xa011:41 PM EST'
p58
sg6
S'Kate Winslet wins best actress Oscar'
p59
sa(dp60
g2
S'http://www.reuters.com/article/managementIssues/idUSTFA00430020090223'
p61
sg4
S'20090222\xc2\xa011:41 PM EST'
p62
sg6
S'Honda names Senior Managing Director Ito next CEO'
p63
sa(dp64
g2
S'http://www.reuters.com/article/rbssBanks/idUSSEO31515320090223'
p65
sg4
S'20090222\xc2\xa011:38 PM EST'
p66
sg6
S'UPDATE 1-South Korea may inject public funds into more banks'
p67
sa(dp68
g2
S'http://www.reuters.com/article/rbssBanks/idUSSEO31161620090223'
p69
sg4
S'20090222\xc2\xa011:36 PM EST'
p70
sg6
S'UPDATE 1-South Korea may inject public funds into more banks'
p71
sa(dp72
g2
S'http://www.reuters.com/article/OILINT/idUSPEK36829520090223'
p73
sg4
S'20090222\xc2\xa011:36 PM EST'
p74
sg6
S'Exxon, PetroChina agree 20-25 year LNG deal -source'
p75
sa(dp76
g2
S'http://www.reuters.com/article/topNews/idUSTRE51M1L320090223'
p77
sg4
S'20090222\xc2\xa011:31 PM EST'
p78
sg6
S'Danny Boyle wins Oscar for directing "Slumdog"'
p79
sa(dp80
g2
S'http://www.reuters.com/article/pressRelease/idUS43523+23-Feb-2009+PRN20090223'
p81
sg4
S'20090222\xc2\xa011:30 PM EST'
p82
sg6
S'Following Is a Test Release'
p83
sa(dp84
g2
S'http://www.reuters.com/article/filmNews/idUSTRE51M1K920090223'
p85
sg4
S'20090222\xc2\xa011:29 PM EST'
p86
sg6
S'Danny Boyle wins Oscar for directing "Slumdog"'
p87
sa(dp88
g2
S'http://www.reuters.com/article/rbssEntertainmentProduction/idUSN1749898020090223'
p89
sg4
S'20090222\xc2\xa011:28 PM EST'
p90
sg6
S"Danny Boyle wins Oscar for directing 'Slumdog'"
p91
sa(dp92
g2
S'http://www.reuters.com/article/rbssRealEstateOperations/idUSHKG31406420090223'
p93
sg4
S'20090222\xc2\xa011:28 PM EST'
p94
sg6
S'Sun Hung Kai Prop says sells $449 mln in luxury flats'
p95
sa(dp96
g2
S'http://www.reuters.com/article/artsNews/idUSTRE51M1JA20090223'
p97
sg4
S'20090222\xc2\xa011:25 PM EST'
p98
sg6
S'Refined glamour as stars hit Oscars red carpet'
p99
sa(dp100
g2
S'http://www.reuters.com/article/latestCrisis/idUSSEO142280'
p101
sg4
S'20090222\xc2\xa011:24 PM EST'
p102
sg6
S'North Korea deploys new mid-range missile -South'
p103
sa(dp104
g2
S'http://www.reuters.com/article/entertainmentNews/idUSTRE51M1H620090223'
p105
sg4
S'20090222\xc2\xa011:12 PM EST'
p106
sg6
S'"Departures" wins best foreign language Oscar'
p107
sa(dp108
g2
S'http://www.reuters.com/article/rbssConsumerElectronics/idUSN2228785720090223'
p109
sg4
S'20090222\xc2\xa011:11 PM EST'
p110
sg6
S'"Departures" wins best foreign language Oscar'
p111
sa(dp112
g2
S'http://www.reuters.com/article/bondsNews/idUST31224020090223'
p113
sg4
S'20090222\xc2\xa011:09 PM EST'
p114
sg6
S'TREASURIES-Fall in Asia, hit by media report on Citi'
p115
sa(dp116
g2
S'http://www.reuters.com/article/rbssPharmaceuticals - Generic & Specialty/idUST31396920090223'
p117
sg4
S'20090222\xc2\xa011:03 PM EST'
p118
sg6
S"Astellas ponders CV Therapeutics' $1 bln rejection"
p119
sa(dp120
g2
S'http://www.reuters.com/article/lifestyleMolt/idUSTRE51M1FG20090223'
p121
sg4
S'20090222\xc2\xa011:01 PM EST'
p122
sg6
S'Borneo pygmy elephants, planters battle for land'
p123
sa(dp124
g2
S'http://www.reuters.com/article/usDollarRpt/idUST31085420090223'
p125
sg4
S'20090222\xc2\xa011:00 PM EST'
p126
sg6
S'UPDATE 1-Almost 80 pct Japan voters want PM out soon -poll'
p127
sa(dp128
g2
S'http://www.reuters.com/article/pressRelease/idUS39947+23-Feb-2009+PRN20090223'
p129
sg4
S'20090222\xc2\xa011:00 PM EST'
p130
sg6
S'Following Is a Test Release'
p131
sa(dp132
g2
S'http://www.reuters.com/article/latestCrisis/idUSKLR354893'
p133
sg4
S'20090222\xc2\xa010:58 PM EST'
p134
sg6
S'Borneo pygmy elephants, planters battle for land'
p135
sa(dp136
g2
S'http://www.reuters.com/article/pressRelease/idUS39531+23-Feb-2009+PRN20090223'
p137
sg4
S'20090222\xc2\xa010:56 PM EST'
p138
sg6
S'Progressive Jackpot Hits at Table Mountain Casino Penny Slot Player Wins Nearly $3...'
p139
sa(dp140
g2
S'http://www.reuters.com/article/mediaNews/idUSN2029228720090223'
p141
sg4
S'20090222\xc2\xa010:56 PM EST'
p142
sg6
S'FACTBOX-Stars talk about Oscar night'
p143
sa(dp144
g2
S'http://www.reuters.com/article/worldNews/idUSTRE51M12B20090223'
p145
sg4
S'20090222\xc2\xa010:49 PM EST'
p146
sg6
S'Australia PM faces elections in home state'
p147
sa(dp148
g2
S'http://www.reuters.com/article/newsMaps/idUSTRE51M1D920090223'
p149
sg4
S'20090222\xc2\xa010:48 PM EST'
p150
sg6
S'Heavy security as Tibetans prepare for new year'
p151
sa(dp152
g2
S'http://www.reuters.com/article/RAILRD/idUSLN28168220090223'
p153
sg4
S'20090222\xc2\xa010:44 PM EST'
p154
sg6
S'PRESS DIGEST - British business - Feb 23'
p155
sa(dp156
g2
S'http://www.reuters.com/article/rbssFinancialServices - Diversified/idUST31104020090223'
p157
sg4
S'20090222\xc2\xa010:44 PM EST'
p158
sg6
S'FOREX-Dollar losses steepen as report on Citi helps stocks'
p159
sa(dp160
g2
S'http://www.reuters.com/article/pressRelease/idUS38178+23-Feb-2009+BW20090223'
p161
sg4
S'20090222\xc2\xa010:43 PM EST'
p162
sg6
S'NOVA Chemicals Secures $150 Million In New Financing'
p163
sa(dp164
g2
S'http://www.reuters.com/article/sportsNews/idUSTRE51M1BE20090223'
p165
sg4
S'20090222\xc2\xa010:41 PM EST'
p166
sg6
S'Lightning strike late to shock Bruins'
p167
sa(dp168
g2
S'http://www.reuters.com/article/rbssInvestmentTrusts/idUSDEL42936920090223'
p169
sg4
S'20090222\xc2\xa010:38 PM EST'
p170
sg6
S'Indian stock, fx, bond markets closed for holiday'
p171
sa(dp172
g2
S'http://www.reuters.com/article/filmNews/idUSTRE51M1A820090223'
p173
sg4
S'20090222\xc2\xa010:37 PM EST'
p174
sg6
S'FACTBOX: Academy Award winners'
p175
sa(dp176
g2
S'http://www.reuters.com/article/tokyoMktRpt/idUSTKW00430020090223'
p177
sg4
S'20090222\xc2\xa010:36 PM EST'
p178
sg6
S'Nikkei turns positive after WSJ report on Citi'
p179
sa(dp180
g2
S'http://www.reuters.com/article/topNews/idUSTRE51M19B20090223'
p181
sg4
S'20090222\xc2\xa010:35 PM EST'
p182
sg6
S'Penelope Cruz wins first Oscar for Spanish actress'
p183
sa(dp184
g2
S'http://www.reuters.com/article/mediaNews/idUSN2228785120090223'
p185
sg4
S'20090222\xc2\xa010:35 PM EST'
p186
sg6
S'FACTBOX-Academy Award winners'
p187
sa(dp188
g2
S'http://www.reuters.com/article/mediaNews/idUSN2270362320090223'
p189
sg4
S'20090222\xc2\xa010:33 PM EST'
p190
sg6
S'UPDATE 1-Penelope Cruz wins first Oscar for Spanish actress'
p191
sa(dp192
g2
S'http://www.reuters.com/article/pressRelease/idUS36777+23-Feb-2009+PRN20090223'
p193
sg4
S'20090222\xc2\xa010:30 PM EST'
p194
sg6
S'Following Is a Test Release'
p195
sa(dp196
g2
S'http://www.reuters.com/article/bondsNews/idUST31251920090223'
p197
sg4
S'20090222\xc2\xa010:28 PM EST'
p198
sg6
S'JGBs rise, but off highs as Nikkei trims losses'
p199
sa(dp200
g2
S'http://www.reuters.com/article/pressReleasesMolt/idUSTRE51M17A20090223'
p201
sg4
S'20090222\xc2\xa010:26 PM EST'
p202
sg6
S'Seoul shares rise 2.2 pct after Citi stake report'
p203
sa(dp204
g2
S'http://www.reuters.com/article/CHMMFG/idUSDEL37458620090223'
p205
sg4
S'20090222\xc2\xa010:26 PM EST'
p206
sg6
S'Reliance to acquire oil storages in US-co. official'
p207
sa(dp208
g2
S'http://www.reuters.com/article/rbssRealEstateOperations/idUSBKK43263820090223'
p209
sg4
S'20090222\xc2\xa010:22 PM EST'
p210
sg6
S'Thai Central Pattana plans up to 5 bln baht bonds'
p211
sa(dp212
g2
S'http://www.reuters.com/article/mediaNews/idUSN2227965120090223'
p213
sg4
S'20090222\xc2\xa010:22 PM EST'
p214
sg6
S'Non-comic host Hugh Jackman embraces Oscar humor'
p215
sa(dp216
g2
S'http://www.reuters.com/article/filmNews/idUSTRE51M15320090223'
p217
sg4
S'20090222\xc2\xa010:21 PM EST'
p218
sg6
S'FACTBOX: Five facts about Heath Ledger'
p219
sa(dp220
g2
S'http://www.reuters.com/article/peopleNews/idUSTRE51M14320090223'
p221
sg4
S'20090222\xc2\xa010:19 PM EST'
p222
sg6
S'Heath Ledger wins best supporting actor Oscar'
p223
sa(dp224
g2
S'http://www.reuters.com/article/rbssConsumerElectronics/idUSN1739424220090223'
p225
sg4
S'20090222\xc2\xa010:19 PM EST'
p226
sg6
S'FACTBOX - Five facts about Heath Ledger'
p227
sa(dp228
g2
S'http://www.reuters.com/article/rbssConsumerGoodsAndRetailNews/idUSN2228781820090223'
p229
sg4
S'20090222\xc2\xa010:18 PM EST'
p230
sg6
S'Heath Ledger wins best supporting actor Oscar'
p231
sa(dp232
g2
S'http://www.reuters.com/article/companyNews/idUSN2238854820090223'
p233
sg4
S'20090222\xc2\xa010:15 PM EST'
p234
sg6
S'Refined glamour as stars hit Oscars red carpet'
p235
sa(dp236
g2
S'http://www.reuters.com/article/BANKSL/idUST31024220090223'
p237
sg4
S'20090222\xc2\xa010:14 PM EST'
p238
sg6
S'Nikkei trims losses after WSJ report on Citi'
p239
sa(dp240
g2
S'http://www.reuters.com/article/LRTOYS/idUSLN27675320090223'
p241
sg4
S'20090222\xc2\xa010:13 PM EST'
p242
sg6
S'PRESS DIGEST - Financial Times - Feb 23'
p243
sa(dp244
g2
S'http://www.reuters.com/article/worldNews/idUSTRE51M11X20090223'
p245
sg4
S'20090222\xc2\xa010:12 PM EST'
p246
sg6
S'British Guantanamo detainee released to UK: report'
p247
sa(dp248
g2
S'http://www.reuters.com/article/rbssInvestmentServices/idUSSEO30910620090223'
p249
sg4
S'20090222\xc2\xa010:09 PM EST'
p250
sg6
S'Seoul shares rise 2.2 pct after Citi stake report'
p251
sa(dp252
g2
S'http://www.reuters.com/article/pressRelease/idUS34348+23-Feb-2009+PRN20090223'
p253
sg4
S'20090222\xc2\xa010:07 PM EST'
p254
sg6
S"Cole Haan at This Year's Academy Awards"
p255
sa(dp256
g2
S'http://www.reuters.com/article/ousivMolt/idUSTRE51M11320090223'
p257
sg4
S'20090222\xc2\xa010:06 PM EST'
p258
sg6
S'South Korean won jumps over 2 pct on Citi report'
p259
sa(dp260
g2
S'http://www.reuters.com/article/sportsNews/idUSTRE51M10N20090223'
p261
sg4
S'20090222\xc2\xa010:04 PM EST'
p262
sg6
S'Powell to run 400 in Sydney, vows to regain top spot'
p263
sa(dp264
g2
S'http://www.reuters.com/article/sportsNews/idUSTRE51M01720090223'
p265
sg4
S'20090222\xc2\xa010:04 PM EST'
p266
sg6
S'Roddick ends Stepanek run to claim Memphis title'
p267
sa(dp268
g2
S'http://www.reuters.com/article/rbssFinancialServices - Diversified/idUSSEO30037720090223'
p269
sg4
S'20090222\xc2\xa010:03 PM EST'
p270
sg6
S'South Korean won jumps over 2 pct on Citi report'
p271
sa(dp272
g2
S'http://www.reuters.com/article/sportsNews/idUSTRE51M0ZZ20090223'
p273
sg4
S'20090222\xc2\xa010:01 PM EST'
p274
sg6
S'Riviera redemption for Mickelson on final hole'
p275
sa(dp276
g2
S'http://www.reuters.com/article/pressRelease/idUS33574+23-Feb-2009+PRN20090223'
p277
sg4
S'20090222\xc2\xa010:00 PM EST'
p278
sg6
S'Following Is a Test Release'
p279
sa(dp280
g2
S'http://www.reuters.com/article/pressRelease/idUS33536+23-Feb-2009+BW20090223'
p281
sg4
S'20090222\xc2\xa010:00 PM EST'
p282
sg6
S'Research and Markets: InvestFrost ICT - APAC Location-based Services Applications Financial Market Outlook'
p283
sa(dp284
g2
S'http://www.reuters.com/article/pressRelease/idUS33534+23-Feb-2009+BW20090223'
p285
sg4
S'20090222\xc2\xa010:00 PM EST'
p286
sg6
S'Research and Markets: Acquisition of NFS to Offer Key Market Opportunities to Babcock & Wilcox Company'
p287
sa(dp288
g2
S'http://www.reuters.com/article/ousivMolt/idUSTRE51M0TG20090223'
p289
sg4
S'20090222\xc2\xa009:57 PM EST'
p290
sg6
S'INSTANT VIEW: Citi in talks to hand big stake to U.S. government'
p291
sa(dp292
g2
S'http://www.reuters.com/article/ousivMolt/idUSTRE51M0YH20090223'
p293
sg4
S'20090222\xc2\xa009:55 PM EST'
p294
sg6
S'HK shares up 1.7 pct, spurred by Citi report'
p295
sa(dp296
g2
S'http://www.reuters.com/article/hongkongMktRpt/idUSHKG31106520090223'
p297
sg4
S'20090222\xc2\xa009:53 PM EST'
p298
sg6
S'HK shares up 1.7 pct, spurred by Citi report'
p299
sa(dp300
g2
S'http://www.reuters.com/article/rbssMiningMetalsSpecialty/idUSSP39331120090223'
p301
sg4
S'20090222\xc2\xa009:48 PM EST'
p302
sg6
S"CORRECTED - CORRECTED-BHP's China president to leave company-spokeswoman"
p303
sa(dp304
g2
S'http://www.reuters.com/article/entertainmentNews/idUSTRE51K09P20090223'
p305
sg4
S'20090222\xc2\xa009:48 PM EST'
p306
sg6
S'No sign of recession at pre-Oscar gift suites'
p307
sa(dp308
g2
S'http://www.reuters.com/article/rbssAutoTruckMotorcycleParts/idUSSHA30846120090223'
p309
sg4
S'20090222\xc2\xa009:36 PM EST'
p310
sg6
S'China Weichai says no talks to buy GM French plant'
p311
sa(dp312
g2
S'http://www.reuters.com/article/rbssSoftware/idUSN2227224520090223'
p313
sg4
S'20090222\xc2\xa009:36 PM EST'
p314
sg6
S'Microsoft seeks refund from some laid off workers'
p315
sa(dp316
g2
S'http://www.reuters.com/article/rbssConsumerFinancialServices/idUST28048020090223'
p317
sg4
S'20090222\xc2\xa009:35 PM EST'
p318
sg6
S'UPDATE 2-Japan moneylender SFCG fails as credit woes spread'
p319
sa(dp320
g2
S'http://www.reuters.com/article/pressRelease/idUS29936+23-Feb-2009+PRN20090223'
p321
sg4
S'20090222\xc2\xa009:30 PM EST'
p322
sg6
S'Following Is a Test Release'
p323
sa(dp324
g2
S'http://www.reuters.com/article/pressRelease/idUS29914+23-Feb-2009+BW20090223'
p325
sg4
S'20090222\xc2\xa009:30 PM EST'
p326
sg6
S'OKI Joins the Photovoltaic Power Conditioner Market'
p327
sa(dp328
g2
S'http://www.reuters.com/article/managementIssues/idUSHKG14624520090223'
p329
sg4
S'20090222\xc2\xa009:27 PM EST'
p330
sg6
S'UPDATE 1-Citi names new head of Asia Pacific banking'
p331
sa(dp332
g2
S'http://www.reuters.com/article/pressRelease/idUS29275+23-Feb-2009+PRN20090223'
p333
sg4
S'20090222\xc2\xa009:24 PM EST'
p334
sg6
S'Sikorsky Global Helicopters Delivers S-300CBi(TM) Helicopter'
p335
sa(dp336
g2
S'http://www.reuters.com/article/rbssMiningMetalsSpecialty/idUSTKB00429520090223'
p337
sg4
S'20090222\xc2\xa009:23 PM EST'
p338
sg6
S'Sumitomo Mining says eyeing stakes in coppper mines'
p339
sa(dp340
g2
S'http://www.reuters.com/article/businessNews/idUSTRE51M0R320090223'
p341
sg4
S'20090222\xc2\xa009:22 PM EST'
p342
sg6
S'Nikkei trims losses after WSJ report on Citi'
p343
sa(dp344
g2
S'http://www.reuters.com/article/rbssChemicalsCommodity/idUSHKG6957020090223'
p345
sg4
S'20090222\xc2\xa009:21 PM EST'
p346
sg6
S'Sinopec, China firms consider Chemtura assets-report'
p347
sa(dp348
g2
S'http://www.reuters.com/article/tokyoMktRpt/idUST31048320090223'
p349
sg4
S'20090222\xc2\xa009:17 PM EST'
p350
sg6
S'Nikkei trims losses after WSJ report on Citi'
p351
sa(dp352
g2
S'http://www.reuters.com/article/mediaNews/idUSLK50564920090223'
p353
sg4
S'20090222\xc2\xa009:17 PM EST'
p354
sg6
S'FACTBOX-Facts about the Oscars'
p355
sa(dp356
g2
S'http://www.reuters.com/article/pressRelease/idUS27649+23-Feb-2009+PRN20090223'
p357
sg4
S'20090222\xc2\xa009:12 PM EST'
p358
sg6
S'Angelina Jolie Wears LANA MARKS Cleopatra Clutch on 2009 Academy Awards Red Carpet'
p359
sa(dp360
g2
S'http://www.reuters.com/article/rbssAirlines/idUSSYD40986720090223'
p361
sg4
S'20090222\xc2\xa009:12 PM EST'
p362
sg6
S'UPDATE 1-Virgin Blue sees year loss due to new US route'
p363
sa(dp364
g2
S'http://www.reuters.com/article/rbssInvestmentServices/idUSBKK42265420090223'
p365
sg4
S'20090222\xc2\xa009:08 PM EST'
p366
sg6
S'Thai stocks seen lower, PTT in focus after results'
p367
sa(dp368
g2
S'http://www.reuters.com/article/pressRelease/idUS27249+23-Feb-2009+PRN20090223'
p369
sg4
S'20090222\xc2\xa009:08 PM EST'
p370
sg6
S"'Slumdog Millionare' Stars, Frieda Pinto and Dev Patel, Styled by Jeffrey Paul for..."
p371
sa(dp372
g2
S'http://www.reuters.com/article/rbssInvestmentServices/idUSHKG30836820090223'
p373
sg4
S'20090222\xc2\xa009:06 PM EST'
p374
sg6
S'PRESS DIGEST - Hong Kong - Feb 23'
p375
sa(dp376
g2
S'http://www.reuters.com/article/ousivMolt/idUSTRE51M0LY20090223'
p377
sg4
S'20090222\xc2\xa009:05 PM EST'
p378
sg6
S'U.S. stock futures up on report of possible U.S. stake in Citi'
p379
sa(dp380
g2
S'http://www.reuters.com/article/hongkongMktRpt/idUSHKF07994420090223'
p381
sg4
S'20090222\xc2\xa009:00 PM EST'
p382
sg6
S'HK shares open up 0.6 pct but HSBC slammed'
p383
sa(dp384
g2
S'http://www.reuters.com/article/sportsNews/idUSTRE51M0NL20090223'
p385
sg4
S'20090222\xc2\xa009:00 PM EST'
p386
sg6
S'Stricker in bitter-sweet mood after another last day slip'
p387
sa(dp388
g2
S'http://www.reuters.com/article/pressRelease/idUS26015+23-Feb-2009+PRN20090223'
p389
sg4
S'20090222\xc2\xa009:00 PM EST'
p390
sg6
S'Following Is a Test Release'
p391
sa(dp392
g2
S'http://www.reuters.com/article/pressRelease/idUS25974+23-Feb-2009+BW20090223'
p393
sg4
S'20090222\xc2\xa009:00 PM EST'
p394
sg6
S'Research and Markets: SWOT Review of the Key Ophthalmic Device Companies: An Essential Source of High Quality Information'
p395
sa(dp396
g2
S'http://www.reuters.com/article/pressRelease/idUS25618+23-Feb-2009+BW20090223'
p397
sg4
S'20090222\xc2\xa008:57 PM EST'
p398
sg6
S'IAB Takes on Creativity in Interactive Marketing Communications, Forms Advertising Agency Advisory Board'
p399
sa(dp400
g2
S'http://www.reuters.com/article/topNews/idUSTRE51M0L020090223'
p401
sg4
S'20090222\xc2\xa008:56 PM EST'
p402
sg6
S'FACTBOX: Five facts about Penelope Cruz'
p403
sa(dp404
g2
S'http://www.reuters.com/article/topNews/idUSTRE51M0KX20090223'
p405
sg4
S'20090222\xc2\xa008:56 PM EST'
p406
sg6
S'Penelope Cruz wins best supporting actress Oscar'
p407
sa(dp408
g2
S'http://www.reuters.com/article/bondsNews/idUSHKG26036720090223'
p409
sg4
S'20090222\xc2\xa008:56 PM EST'
p410
sg6
S'US stock futures up on WSJ report of possible US stake in Citi'
p411
sa(dp412
g2
S'http://www.reuters.com/article/rbssBanks/idUSSIN41794720090223'
p413
sg4
S'20090222\xc2\xa008:55 PM EST'
p414
sg6
S'Deutsche launches Asia\'s first "inverse ETF" in S\'pore'
p415
sa(dp416
g2
S'http://www.reuters.com/article/mediaNews/idUSN2047005520090223'
p417
sg4
S'20090222\xc2\xa008:54 PM EST'
p418
sg6
S'FACTBOX - Five facts about Penelope Cruz'
p419
sa(dp420
g2
S'http://www.reuters.com/article/rbssFinancialServices - Diversified/idUSSEO23144320090223'
p421
sg4
S'20090222\xc2\xa008:54 PM EST'
p422
sg6
S'Citigroup names new head of Asia Pacific banking'
p423
sa(dp424
g2
S'http://www.reuters.com/article/mediaNews/idUSN2226386620090223'
p425
sg4
S'20090222\xc2\xa008:54 PM EST'
p426
sg6
S'Penelope Cruz wins best supporting actress Oscar'
p427
sa(dp428
g2
S'http://www.reuters.com/article/usDollarRpt/idUSTKW00429920090223'
p429
sg4
S'20090222\xc2\xa008:54 PM EST'
p430
sg6
S"Euro jumps to day's high after WSJ report on Citi"
p431
sa(dp432
g2
S'http://www.reuters.com/article/etfNews/idUSHKG8276620090223'
p433
sg4
S'20090222\xc2\xa008:50 PM EST'
p434
sg6
S'RPT-US govt seeking up to 40 pct stake in Citigroup -WSJ'
p435
sa(dp436
g2
S'http://www.reuters.com/article/usDollarRpt/idUST30621620090223'
p437
sg4
S'20090222\xc2\xa008:47 PM EST'
p438
sg6
S'FOREX-Dollar eases vs yen, bank nerves keep market wary'
p439
sa(dp440
g2
S'http://www.reuters.com/article/rbssBanks/idUSHKG30961320090223'
p441
sg4
S'20090222\xc2\xa008:47 PM EST'
p442
sg6
S'RPT-US govt seeking up to 40 pct stake in Citigroup -WSJ'
p443
sa(dp444
g2
S'http://www.reuters.com/article/rbssFinancialServices - Diversified/idUSHKG8603920090223'
p445
sg4
S'20090222\xc2\xa008:46 PM EST'
p446
sg6
S'US govt seeking up to 40 pct stake in Citigroup -WSJ'
p447
sa(dp448
g2
S'http://www.reuters.com/article/rbssRetailSpecialty/idUSSEO22162320090223'
p449
sg4
S'20090222\xc2\xa008:45 PM EST'
p450
sg6
S'Korea Hot Stocks-Shippers, Internet firms gain'
p451
sa(dp452
g2
S'http://www.reuters.com/article/rbssInvestmentServices/idUSSEO30883120090223'
p453
sg4
S'20090222\xc2\xa008:40 PM EST'
p454
sg6
S'Seoul shares extend losses, jitters hit banks'
p455
sa(dp456
g2
S'http://www.reuters.com/article/tokyoMktRpt/idUST25870620090223'
p457
sg4
S'20090222\xc2\xa008:34 PM EST'
p458
sg6
S'Nikkei falls 2 pct on US bank fears, demand worries'
p459
sa(dp460
g2
S'http://www.reuters.com/article/pressRelease/idUS22218+23-Feb-2009+PRN20090223'
p461
sg4
S'20090222\xc2\xa008:30 PM EST'
p462
sg6
S'Following Is a Test Release'
p463
sa(dp464
g2
S'http://www.reuters.com/article/pressRelease/idUS22211+23-Feb-2009+PRN20090223'
p465
sg4
S'20090222\xc2\xa008:30 PM EST'
p466
sg6
S"America Voted: Sam Kori George Wins 'Oscars(R) Designer Challenge'"
p467
sa(dp468
g2
S'http://www.reuters.com/article/rbssFoodProcessing/idUSBAK00068020090223'
p469
sg4
S'20090222\xc2\xa008:28 PM EST'
p470
sg6
S'Thai Union Frozen Q4 net profit down, below forecasts'
p471
sa(dp472
g2
S'http://www.reuters.com/article/rbssRealEstateOperations/idUSSIN42679520090223'
p473
sg4
S'20090222\xc2\xa008:25 PM EST'
p474
sg6
S'CapitaLand pays staff bonuses in shopping vouchers'
p475
sa(dp476
g2
S'http://www.reuters.com/article/GCA-Oil/idUSTRE51L1TT20090223'
p477
sg4
S'20090222\xc2\xa008:21 PM EST'
p478
sg6
S'Vietnam opens $3 billion oil refinery'
p479
sa(dp480
g2
S'http://www.reuters.com/article/hongkongMktRpt/idUSHKG21971720090223'
p481
sg4
S'20090222\xc2\xa008:18 PM EST'
p482
sg6
S'Hk shares seen lower in global sell-off'
p483
sa(dp484
g2
S'http://www.reuters.com/article/lifestyleMolt/idUSTRE51M09O20090223'
p485
sg4
S'20090222\xc2\xa008:13 PM EST'
p486
sg6
S'U.S. women look ahead to new pro soccer league'
p487
sa(dp488
g2
S'http://www.reuters.com/article/rbssEngineeringConstruction/idUSKLR38508820090223'
p489
sg4
S'20090222\xc2\xa008:07 PM EST'
p490
sg6
S"Malaysia's Gamuda pre-qualifies for $2.7 bln contracts in Qatar"
p491
sa(dp492
g2
S'http://www.reuters.com/article/pressRelease/idUS19222+23-Feb-2009+BW20090223'
p493
sg4
S'20090222\xc2\xa008:07 PM EST'
p494
sg6
S'Biocomposites Granted SFDA Clearance for geneX\xc2\xae in P.R.China'
p495
sa(dp496
g2
S'http://www.reuters.com/article/artsNews/idUSTRE51M0C120090223'
p497
sg4
S'20090222\xc2\xa008:05 PM EST'
p498
sg6
S'Sunken Greek treasures at risk from scuba looters'
p499
sa(dp500
g2
S'http://www.reuters.com/article/pressRelease/idUS18198+23-Feb-2009+PRN20090223'
p501
sg4
S'20090222\xc2\xa008:00 PM EST'
p502
sg6
S'Following Is a Test Release'
p503
sa(dp504
g2
S'http://www.reuters.com/article/pressRelease/idUS18163+23-Feb-2009+BW20090223'
p505
sg4
S'20090222\xc2\xa008:00 PM EST'
p506
sg6
S'TUV Rheinland Photovoltaic Certificates Accepted by Japan Photovoltaic Expansion Center for Residential Solar Generation Installation Subsidy Programme'
p507
sa(dp508
g2
S'http://www.reuters.com/article/pressRelease/idUS18159+23-Feb-2009+BW20090223'
p509
sg4
S'20090222\xc2\xa008:00 PM EST'
p510
sg6
S'SpringSoft Agrees to Acquire Certess'
p511
sa(dp512
g2
S'http://www.reuters.com/article/rbssFinancialServicesAndRealEstateNews/idUST30732020090223'
p513
sg4
S'20090222\xc2\xa007:59 PM EST'
p514
sg6
S'UPDATE 1-Japan moneylender SFCG seeks bankruptcy protection'
p515
sa(dp516
g2
S'http://www.reuters.com/article/lifestyleMolt/idUSTRE51M09X20090223'
p517
sg4
S'20090222\xc2\xa007:54 PM EST'
p518
sg6
S'World Series franchise plan unveiled'
p519
sa(dp520
g2
S'http://www.reuters.com/article/rbssIndustryMaterialsUtilitiesNews/idUSBJI00014220090223'
p521
sg4
S'20090222\xc2\xa007:49 PM EST'
p522
sg6
S'China Jan imports of refined copper fall 14.7 pct on month'
p523
sa(dp524
g2
S'http://www.reuters.com/article/rbssRealEstateOperations/idUSMAN40358420090223'
p525
sg4
S'20090222\xc2\xa007:49 PM EST'
p526
sg6
S'PRESS DIGEST - Philippine newspapers - Feb 23'
p527
sa(dp528
g2
S'http://www.reuters.com/article/rbssSemiconductors/idUSSIN43872520090223'
p529
sg4
S'20090222\xc2\xa007:46 PM EST'
p530
sg6
S'Singapore Hot Stocks-DBS, UOB in focus'
p531
sa(dp532
g2
S'http://www.reuters.com/article/pressRelease/idUS16084+23-Feb-2009+PRN20090223'
p533
sg4
S'20090222\xc2\xa007:43 PM EST'
p534
sg6
S'J.Crew Featured on the Oscars(R) Red Carpet'
p535
sa(dp536
g2
S'http://www.reuters.com/article/companyNewsAndPR/idUST30714420090223'
p537
sg4
S'20090222\xc2\xa007:43 PM EST'
p538
sg6
S'More than third of Japan voters want PM to go now'
p539
sa(dp540
g2
S'http://www.reuters.com/article/pressRelease/idUS13846+23-Feb-2009+PRN20090223'
p541
sg4
S'20090222\xc2\xa007:30 PM EST'
p542
sg6
S'Following Is a Test Release'
p543
sa(dp544
g2
S'http://www.reuters.com/article/lifestyleMolt/idUSTRE51M04P20090223'
p545
sg4
S'20090222\xc2\xa007:27 PM EST'
p546
sg6
S"China's jobless migrants loath to return to countryside"
p547
sa(dp548
g2
S'http://www.reuters.com/article/rbssEngineeringConstruction/idUSKLR39465120090223'
p549
sg4
S'20090222\xc2\xa007:23 PM EST'
p550
sg6
S'PRESS DIGEST - Malaysia - Feb 23'
p551
sa(dp552
g2
S'http://www.reuters.com/article/rbssAirlines/idUSSEO23691420090223'
p553
sg4
S'20090222\xc2\xa007:19 PM EST'
p554
sg6
S'PRESS DIGEST - South Korean newspapers - Feb 23'
p555
sa(dp556
g2
S'http://www.reuters.com/article/rbssAutoTruckManufacturers/idUST27402820090223'
p557
sg4
S'20090222\xc2\xa007:15 PM EST'
p558
sg6
S'REFILE-Toyota to cut parent-based 2009 output 20 pct-Nikkei'
p559
sa(dp560
g2
S'http://www.reuters.com/article/politicsNews/idUSTRE51M02I20090223'
p561
sg4
S'20090222\xc2\xa007:13 PM EST'
p562
sg6
S'Rolls-Royce wins two U.S. helicopter contracts'
p563
sa(dp564
g2
S'http://www.reuters.com/article/rbssInvestmentServices/idUSSEO21661920090223'
p565
sg4
S'20090222\xc2\xa007:12 PM EST'
p566
sg6
S'Seoul shares dip on banks, some tech firms up'
p567
sa(dp568
g2
S'http://www.reuters.com/article/rbssAutoTruckManufacturers/idUSLM27295120090223'
p569
sg4
S'20090222\xc2\xa007:12 PM EST'
p570
sg6
S'Saab CEO says unit eyed by other carmakers-paper'
p571
sa(dp572
g2
S'http://www.reuters.com/article/topNews/idUSTRE51M01Y20090223'
p573
sg4
S'20090222\xc2\xa007:11 PM EST'
p574
sg6
S'Amnesty calls for arms embargo of Israel and Hamas'
p575
sa(dp576
g2
S'http://www.reuters.com/article/tokyoMktRpt/idUST25869320090223'
p577
sg4
S'20090222\xc2\xa007:10 PM EST'
p578
sg6
S'Nikkei falls 1.4 pct after Wall St hit by bank fears'
p579
sa(dp580
g2
S'http://www.reuters.com/article/rbssAerospaceDefense/idUSN2231888620090223'
p581
sg4
S'20090222\xc2\xa007:08 PM EST'
p582
sg6
S'UPDATE 1-Rolls-Royce wins two US helicopter contracts'
p583
sa(dp584
g2
S'http://www.reuters.com/article/homepageCrisis/idUSLM144141._CH_.2400'
p585
sg4
S'20090222\xc2\xa007:01 PM EST'
p586
sg6
S'Amnesty calls for arms embargo of Israel and Hamas'
p587
sa(dp588
g2
S'http://www.reuters.com/article/middleeastCrisis/idUSLM144141'
p589
sg4
S'20090222\xc2\xa007:01 PM EST'
p590
sg6
S'Amnesty calls for arms embargo of Israel and Hamas'
p591
sa(dp592
g2
S'http://www.reuters.com/article/pressRelease/idUS10145+23-Feb-2009+BW20090223'
p593
sg4
S'20090222\xc2\xa007:01 PM EST'
p594
sg6
S"Research and Markets: The Essential Source for Data, Analysis and Strategic Insight into Taiwan's Power Company, Ltd."
p595
sa(dp596
g2
S'http://www.reuters.com/article/rbssBanks/idUSTKB00429420090223'
p597
sg4
S'20090222\xc2\xa007:00 PM EST'
p598
sg6
S'Mizuho to issue $850 mln preferred securities'
p599
sa(dp600
g2
S'http://www.reuters.com/article/pressRelease/idUS10042+23-Feb-2009+PRN20090223'
p601
sg4
S'20090222\xc2\xa007:00 PM EST'
p602
sg6
S'Following Is a Test Release'
p603
sa(dp604
g2
S'http://www.reuters.com/article/pressRelease/idUS10034+23-Feb-2009+PRN20090223'
p605
sg4
S'20090222\xc2\xa007:00 PM EST'
p606
sg6
S'Manpower Inc. is First Foreign Multinational Corporation to Receive License to Provide...'
p607
sa(dp608
g2
S'http://www.reuters.com/article/latestCrisis/idUSLK473880'
p609
sg4
S'20090222\xc2\xa007:00 PM EST'
p610
sg6
S'Manufacturing holds key for poorest nations - UN'
p611
sa(dp612
g2
S'http://www.reuters.com/article/filmNews/idUSTRE51L0IO20090222'
p613
sg4
S'20090222\xc2\xa006:59 PM EST'
p614
sg6
S'Stars, fans converge on Hollywood for Oscar night'
p615
sa(dp616
g2
S'http://www.reuters.com/article/rbssAirlines/idUSSYU00607320090222'
p617
sg4
S'20090222\xc2\xa006:54 PM EST'
p618
sg6
S"Australia's Virgin Blue books H1 loss"
p619
sa(dp620
g2
S'http://www.reuters.com/article/sportsNews/idUSTRE51J6EY20090222'
p621
sg4
S'20090222\xc2\xa006:50 PM EST'
p622
sg6
S'Mickelson holds nerve to win by one shot at Riviera'
p623
sa(dp624
g2
S'http://www.reuters.com/article/rbssInvestmentServices/idUST25252620090222'
p625
sg4
S'20090222\xc2\xa006:42 PM EST'
p626
sg6
S'Nikkei set to fall after Wall St slide on bank fears'
p627
sa(dp628
g2
S'http://www.reuters.com/article/rbssSteel/idUSSYU00607220090222'
p629
sg4
S'20090222\xc2\xa006:42 PM EST'
p630
sg6
S"Australia's Fortescue plans to raise new capital"
p631
sa(dp632
g2
S'http://www.reuters.com/article/pressRelease/idUS108940+22-Feb-2009+PRN20090222'
p633
sg4
S'20090222\xc2\xa006:41 PM EST'
p634
sg6
S'Companies Learn About Reducing Commute Impact on Bay Area'
p635
sa(dp636
g2
S'http://www.reuters.com/article/rbssSteel/idUSSP41603620090222'
p637
sg4
S'20090222\xc2\xa006:40 PM EST'
p638
sg6
S'Fortescue'
p639
sa(dp640
g2
S'http://www.reuters.com/article/rbssFinancialServicesAndRealEstateNews/idUSTKB00429320090222'
p641
sg4
S'20090222\xc2\xa006:38 PM EST'
p642
sg6
S'Japan moneylender SFCG seeks bankruptcy protection'
p643
sa(dp644
g2
S'http://www.reuters.com/article/newsOne/idUSTRE51L23S20090222'
p645
sg4
S'20090222\xc2\xa006:37 PM EST'
p646
sg6
S'French tourist killed, 20 wounded in Egypt attack'
p647
sa(dp648
g2
S'http://www.reuters.com/article/pressRelease/idUS107596+22-Feb-2009+PRN20090222'
p649
sg4
S'20090222\xc2\xa006:30 PM EST'
p650
sg6
S'Following Is a Test Release'
p651
sa(dp652
g2
S'http://www.reuters.com/article/rbssSteel/idUSSYD39382220090222'
p653
sg4
S'20090222\xc2\xa006:28 PM EST'
p654
sg6
S'UPDATE 1-BlueScope sees H2 loss as steel demand stalls'
p655
sa(dp656
g2
S'http://www.reuters.com/article/rbssInvestmentServices/idUSSEO22152620090222'
p657
sg4
S'20090222\xc2\xa006:23 PM EST'
p658
sg6
S'Seoul shares may fall on global jitters, won'
p659
sa(dp660
g2
S'http://www.reuters.com/article/politicsNews/idUSTRE51L2QT20090222'
p661
sg4
S'20090222\xc2\xa006:21 PM EST'
p662
sg6
S'Obama to name watchdog to oversee stimulus outlays'
p663
sa(dp664
g2
S'http://www.reuters.com/article/worldNews/idUSTRE51L1JT20090222'
p665
sg4
S'20090222\xc2\xa006:19 PM EST'
p666
sg6
S'Netanyahu, Livni hold first post-election talks'
p667
sa(dp668
g2
S'http://www.reuters.com/article/GCA-autos/idUSTRE51L2Q320090222'
p669
sg4
S'20090222\xc2\xa006:17 PM EST'
p670
sg6
S'Chrysler provides more details to Canada: minister'
p671
sa(dp672
g2
S'http://www.reuters.com/article/bondsNews/idUSN2226302420090222'
p673
sg4
S'20090222\xc2\xa006:16 PM EST'
p674
sg6
S'Obama to name watchdog to oversee stimulus outlays'
p675
sa(dp676
g2
S'http://www.reuters.com/article/etfNews/idUSN2228193520090222'
p677
sg4
S'20090222\xc2\xa006:16 PM EST'
p678
sg6
S'Chrysler provides more details to Canada-minister'
p679
sa(dp680
g2
S'http://www.reuters.com/article/worldNews/idUSTRE51L2PU20090222'
p681
sg4
S'20090222\xc2\xa006:14 PM EST'
p682
sg6
S'Colombian prosecutors probe illegal wiretap scandal'
p683
sa(dp684
g2
S'http://www.reuters.com/article/rbssChemicalsDiversified/idUSSYB00599020090222'
p685
sg4
S'20090222\xc2\xa006:06 PM EST'
p686
sg6
S"Australia's Futuris sells $67.4 mln stake in AACo"
p687
sa(dp688
g2
S'http://www.reuters.com/article/pressRelease/idUS104985+22-Feb-2009+PRN20090222'
p689
sg4
S'20090222\xc2\xa006:00 PM EST'
p690
sg6
S'VIZIO Files FCC Request to Cease Unreasonable Funai Patent Enforcement'
p691
sa(dp692
g2
S'http://www.reuters.com/article/pressRelease/idUS104986+22-Feb-2009+PRN20090222'
p693
sg4
S'20090222\xc2\xa006:00 PM EST'
p694
sg6
S'Following Is a Test Release'
p695
sa(dp696
g2
S'http://www.reuters.com/article/pressRelease/idUS104976+22-Feb-2009+PRN20090222'
p697
sg4
S'20090222\xc2\xa006:00 PM EST'
p698
sg6
S'Northern Offshore Comments on OSE Filing'
p699
sa(dp700
g2
S'http://www.reuters.com/article/pressRelease/idUS104940+22-Feb-2009+BW20090222'
p701
sg4
S'20090222\xc2\xa006:00 PM EST'
p702
sg6
S'Realtek Selects Teradyne UltraWave 12G and New ESA Toolkit for Wireless Test'
p703
sa(dp704
g2
S'http://www.reuters.com/article/rbssAerospaceDefense/idUSLM12346020090222'
p705
sg4
S'20090222\xc2\xa005:54 PM EST'
p706
sg6
S'UPDATE 1-EADS denies new A400M aircraft delay, names point man'
p707
sa(dp708
g2
S'http://www.reuters.com/article/sportsNews/idUSTRE51L2MW20090222'
p709
sg4
S'20090222\xc2\xa005:46 PM EST'
p710
sg6
S'Robredo beats Monaco to win second successive tournament'
p711
sa(dp712
g2
S'http://www.reuters.com/article/pressRelease/idUS103888+22-Feb-2009+MW20090222'
p713
sg4
S'20090222\xc2\xa005:45 PM EST'
p714
sg6
S' Statement by Ministers Concerning the Rescue  of the Crew of Fishing Vessel Monte Galineiro'
p715
sa(dp716
g2
S'http://www.reuters.com/article/BANKSL/idUSLM19772120090222'
p717
sg4
S'20090222\xc2\xa005:34 PM EST'
p718
sg6
S'Northern Rock plans new mortgage lending-UK Treasury'
p719
sa(dp720
g2
S'http://www.reuters.com/article/pressRelease/idUS102791+22-Feb-2009+PRN20090222'
p721
sg4
S'20090222\xc2\xa005:30 PM EST'
p722
sg6
S'Following Is a Test Release'
p723
sa(dp724
g2
S'http://www.reuters.com/article/pressRelease/idUS102787+22-Feb-2009+PRN20090222'
p725
sg4
S'20090222\xc2\xa005:30 PM EST'
p726
sg6
S'Sikorsky Looks Ahead to Envelope Expansions After Unprecedented Period of First Flights'
p727
sa(dp728
g2
S'http://www.reuters.com/article/rbssConsumerElectronics/idUSN2232121820090222'
p729
sg4
S'20090222\xc2\xa005:29 PM EST'
p730
sg6
S'UPDATE 2-Stars, fans converge on Hollywood for Oscar night'
p731
sa(dp732
g2
S'http://www.reuters.com/article/boxOfficeCharts/idUSN2228388420090222'
p733
sg4
S'20090222\xc2\xa005:26 PM EST'
p734
sg6
S'VIDEO MONITOR - VH-1'
p735
sa(dp736
g2
S'http://www.reuters.com/article/boxOfficeCharts/idUSN2228384020090222'
p737
sg4
S'20090222\xc2\xa005:26 PM EST'
p738
sg6
S'VIDEO MONITOR - MTV'
p739
sa(dp740
g2
S'http://www.reuters.com/article/boxOfficeCharts/idUSN2228377220090222'
p741
sg4
S'20090222\xc2\xa005:26 PM EST'
p742
sg6
S'VIDEO MONITOR - CMT'
p743
sa(dp744
g2
S'http://www.reuters.com/article/boxOfficeCharts/idUSN2228373820090222'
p745
sg4
S'20090222\xc2\xa005:25 PM EST'
p746
sg6
S'VIDEO MONITOR - BET'
p747
sa(dp748
g2
S'http://www.reuters.com/article/worldNews/idUSTRE51L2KT20090222'
p749
sg4
S'20090222\xc2\xa005:23 PM EST'
p750
sg6
S"Israel's Livni, Netanyahu agree to further talks"
p751
sa(dp752
g2
S'http://www.reuters.com/article/latestCrisis/idUSLM196119'
p753
sg4
S'20090222\xc2\xa005:10 PM EST'
p754
sg6
S"Israel's Livni, Netanyahu agree to further talks"
p755
sa(dp756
g2
S'http://www.reuters.com/article/weekAheadG7/idUSJPDIARY20090222'
p757
sg4
S'20090222\xc2\xa005:00 PM EST'
p758
sg6
S'DIARY-Japan Feb 23: Zero emission coal workshop'
p759
sa(dp760
g2
S'http://www.reuters.com/article/pressRelease/idUS100757+22-Feb-2009+PRN20090222'
p761
sg4
S'20090222\xc2\xa005:00 PM EST'
p762
sg6
S'Following Is a Test Release'
p763
sa(dp764
g2
S'http://www.reuters.com/article/pressRelease/idUS100719+22-Feb-2009+BW20090222'
p765
sg4
S'20090222\xc2\xa005:00 PM EST'
p766
sg6
S'IAB and 4A`s Announce New Tools to Simplify Interactive Advertising Operations'
p767
sa(dp768
g2
S'http://www.reuters.com/article/pressRelease/idUS100715+22-Feb-2009+BW20090222'
p769
sg4
S'20090222\xc2\xa005:00 PM EST'
p770
sg6
S'IAB Launches Task Forces to Tackle Data Ownership and Contracts for Interactive Advertising Sales'
p771
sa(dp772
g2
S'http://www.reuters.com/article/pressRelease/idUS100713+22-Feb-2009+BW20090222'
p773
sg4
S'20090222\xc2\xa005:00 PM EST'
p774
sg6
S'IAB Announces Annual Sales and Service Excellence Award Winners'
p775
sa(dp776
g2
S'http://www.reuters.com/article/pressRelease/idUS100724+22-Feb-2009+BW20090222'
p777
sg4
S'20090222\xc2\xa005:00 PM EST'
p778
sg6
S'IAB Takes on Creativity in Interactive Marketing Communications, Forms Advertising Agency Advisory Board'
p779
sa(dp780
g2
S'http://www.reuters.com/article/GCA-BarackObama/idUSTRE51G5X720090222'
p781
sg4
S'20090222\xc2\xa004:55 PM EST'
p782
sg6
S'Obama aims to halve deficit by 2013'
p783
sa(dp784
g2
S'http://www.reuters.com/article/GCA-BarackObama/idUSTRE51L2DV20090222'
p785
sg4
S'20090222\xc2\xa004:55 PM EST'
p786
sg6
S'Obama to set big goals in first budget'
p787
sa(dp788
g2
S'http://www.reuters.com/article/reutersEdge/idUSTRE51L2DX20090222'
p789
sg4
S'20090222\xc2\xa004:54 PM EST'
p790
sg6
S'Obama to set big goals in first budget'
p791
sa(dp792
g2
S'http://www.reuters.com/article/reutersEdge/idUSTRE51L2JF20090222'
p793
sg4
S'20090222\xc2\xa004:46 PM EST'
p794
sg6
S'FACTBOX: Obama budget would aim to halve to deficit'
p795
sa(dp796
g2
S'http://www.reuters.com/article/GCA-BarackObama/idUSTRE51L2IZ20090222'
p797
sg4
S'20090222\xc2\xa004:45 PM EST'
p798
sg6
S'FACTBOX: Obama budget would aim to halve to deficit'
p799
sa(dp800
g2
S'http://www.reuters.com/article/pressRelease/idUS99828+22-Feb-2009+BW20090222'
p801
sg4
S'20090222\xc2\xa004:45 PM EST'
p802
sg6
S'Rolls-Royce Predicts Resilient Rotorcraft Market'
p803
sa(dp804
g2
S'http://www.reuters.com/article/pressRelease/idUS99832+22-Feb-2009+BW20090222'
p805
sg4
S'20090222\xc2\xa004:45 PM EST'
p806
sg6
S'LHTEC Awarded CTS800 Mk.9T Lynx Upgrade Contract'
p807
sa(dp808
g2
S'http://www.reuters.com/article/pressRelease/idUS99831+22-Feb-2009+BW20090222'
p809
sg4
S'20090222\xc2\xa004:45 PM EST'
p810
sg6
S'Rolls-Royce and Bell Helicopter Sign Model 250 Engine Agreement Worth up to $400 Million'
p811
sa(dp812
g2
S'http://www.reuters.com/article/pressRelease/idUS99830+22-Feb-2009+BW20090222'
p813
sg4
S'20090222\xc2\xa004:45 PM EST'
p814
sg6
S'Rolls-Royce Awarded $32 Million Model 250 Service Contract'
p815
sa(dp816
g2
S'http://www.reuters.com/article/rbssLeisureProducts/idUSWLF00226220090222'
p817
sg4
S'20090222\xc2\xa004:44 PM EST'
p818
sg6
S"RPT-NZ's Sky City H1 underlying profit flat"
p819
sa(dp820
g2
S'http://www.reuters.com/article/governmentFilingsNews/idUSN2227943720090222'
p821
sg4
S'20090222\xc2\xa004:44 PM EST'
p822
sg6
S'FACTBOX-Obama budget would aim to halve to deficit'
p823
sa(dp824
g2
S'http://www.reuters.com/article/rbssInvestmentServices/idUSSYD42918720090222'
p825
sg4
S'20090222\xc2\xa004:43 PM EST'
p826
sg6
S'PRESS DIGEST-Australian Business News - Feb 23'
p827
sa(dp828
g2
S'http://www.reuters.com/article/rbssLeisureProducts/idUSWEL37329120090222'
p829
sg4
S'20090222\xc2\xa004:42 PM EST'
p830
sg6
S"UPDATE 1-NZ's Sky City H1 profit flat, outlook uncertain"
p831
sa(dp832
g2
S'http://www.reuters.com/article/worldNews/idUSTRE51L2I920090222'
p833
sg4
S'20090222\xc2\xa004:39 PM EST'
p834
sg6
S'Cairo bomb killed French tourist, health ministry'
p835
sa(dp836
g2
S'http://www.reuters.com/article/rbssSteel/idUSSYU00607120090222'
p837
sg4
S'20090222\xc2\xa004:38 PM EST'
p838
sg6
S'BlueScope H1 profit jumps, sees tough conditions'
p839
sa(dp840
g2
S'http://www.reuters.com/article/domesticNews/idUSTRE51L2HW20090222'
p841
sg4
S'20090222\xc2\xa004:36 PM EST'
p842
sg6
S'U.S. gasoline prices edge up to $1.94/gallon: survey'
p843
sa(dp844
g2
S'http://www.reuters.com/article/latestCrisis/idUSLM248058'
p845
sg4
S'20090222\xc2\xa004:35 PM EST'
p846
sg6
S'Cairo bomb killed French tourist, health ministry'
p847
sa(dp848
g2
S'http://www.reuters.com/article/pressRelease/idUS97693+22-Feb-2009+PRN20090222'
p849
sg4
S'20090222\xc2\xa004:30 PM EST'
p850
sg6
S'Following Is a Test Release'
p851
sa(dp852
g2
S'http://www.reuters.com/article/rbssAerospaceDefense/idUSLM21241520090222'
p853
sg4
S'20090222\xc2\xa004:11 PM EST'
p854
sg6
S"Europe's A400M may be delayed another year-report"
p855
sa(dp856
g2
S'http://www.reuters.com/article/pressRelease/idUS94680+22-Feb-2009+PRN20090222'
p857
sg4
S'20090222\xc2\xa004:00 PM EST'
p858
sg6
S'Following Is a Test Release'
p859
sa(dp860
g2
S'http://www.reuters.com/article/GCA-CreditCrisis/idUSTRE51L2F520090222'
p861
sg4
S'20090222\xc2\xa003:56 PM EST'
p862
sg6
S"ECB's Orphanides ECB has room to cut rates: DJ"
p863
sa(dp864
g2
S'http://www.reuters.com/article/rbssLeisureProducts/idUSWEL00226220090222'
p865
sg4
S'20090222\xc2\xa003:44 PM EST'
p866
sg6
S"NZ's Sky City H1 underlying profit flat"
p867
sa(dp868
g2
S'http://www.reuters.com/article/rbssMiningMetalsSpecialty/idUSN2230023220090222'
p869
sg4
S'20090222\xc2\xa003:38 PM EST'
p870
sg6
S'PREVIEW-Zinc output cuts may help miners in TC talks'
p871
sa(dp872
g2
S'http://www.reuters.com/article/reutersEdge/idUSTRE51L2EV20090222'
p873
sg4
S'20090222\xc2\xa003:32 PM EST'
p874
sg6
S"FACTBOX: How Obama's first federal budget compares"
p875
sa(dp876
g2
S'http://www.reuters.com/article/reutersEdge/idUSTRE51L2ER20090222'
p877
sg4
S'20090222\xc2\xa003:32 PM EST'
p878
sg6
S'FACTBOX: Obama prepares for big week-budget, Congress speech'
p879
sa(dp880
g2
S'http://www.reuters.com/article/pressRelease/idUS93007+22-Feb-2009+PRN20090222'
p881
sg4
S'20090222\xc2\xa003:30 PM EST'
p882
sg6
S'Following Is a Test Release'
p883
sa(dp884
g2
S'http://www.reuters.com/article/GCA-BarackObama/idUSTRE51L2EB20090222'
p885
sg4
S'20090222\xc2\xa003:27 PM EST'
p886
sg6
S"FACTBOX: How Obama's first federal budget compares"
p887
sa(dp888
g2
S'http://www.reuters.com/article/GCA-BarackObama/idUSTRE51L2E920090222'
p889
sg4
S'20090222\xc2\xa003:27 PM EST'
p890
sg6
S'FACTBOX: Obama prepares for big week-budget, Congress speech'
p891
sa(dp892
g2
S'http://www.reuters.com/article/rbssInvestmentServices/idUSWLF00226120090222'
p893
sg4
S'20090222\xc2\xa003:27 PM EST'
p894
sg6
S'NZ Exchange full year profit up 17 pct'
p895
sa(dp896
g2
S'http://www.reuters.com/article/americasIpoNews/idUSN1837290220090222'
p897
sg4
S'20090222\xc2\xa003:25 PM EST'
p898
sg6
S"FACTBOX-How Obama's first federal budget compares"
p899
sa(dp900
g2
S'http://www.reuters.com/article/companyNewsAndPR/idUSN2028199220090222'
p901
sg4
S'20090222\xc2\xa003:24 PM EST'
p902
sg6
S'FACTBOX-Obama prepares for big week-budget, Congress speech'
p903
sa(dp904
g2
S'http://www.reuters.com/article/GCA-Oil/idUSTRE51L2DM20090222'
p905
sg4
S'20090222\xc2\xa003:11 PM EST'
p906
sg6
S'Libya extends meetings on oil distribution plan'
p907
sa(dp908
g2
S'http://www.reuters.com/article/ousiv/idUSTRE51L2DC20090222'
p909
sg4
S'20090222\xc2\xa003:07 PM EST'
p910
sg6
S"Northern Trust has relatively rosy outlook: Barron's"
p911
sa(dp912
g2
S'http://www.reuters.com/article/worldNews/idUSTRE51L1XJ20090222'
p913
sg4
S'20090222\xc2\xa003:06 PM EST'
p914
sg6
S'Insurgents kill 11 peacekeepers in Somalia'
p915
sa(dp916
g2
S'http://www.reuters.com/article/worldNews/idUSTRE51L2CS20090222'
p917
sg4
S'20090222\xc2\xa003:06 PM EST'
p918
sg6
S'Nigeria governor imposes curfew, death toll rises'
p919
sa(dp920
g2
S'http://www.reuters.com/article/etfNews/idUSN2226921120090222'
p921
sg4
S'20090222\xc2\xa003:03 PM EST'
p922
sg6
S"Northern Trust has relatively rosy outlook-Barron's"
p923
sa(dp924
g2
S'http://www.reuters.com/article/homepageCrisis/idUSLM205771._CH_.2400'
p925
sg4
S'20090222\xc2\xa003:03 PM EST'
p926
sg6
S'Nigeria governor imposes curfew, death toll rises'
p927
sa(dp928
g2
S'http://www.reuters.com/article/latestCrisis/idUSLM205771'
p929
sg4
S'20090222\xc2\xa003:03 PM EST'
p930
sg6
S'Nigeria governor imposes curfew, death toll rises'
p931
sa(dp932
g2
S'http://www.reuters.com/article/pressRelease/idUS91266+22-Feb-2009+PRN20090222'
p933
sg4
S'20090222\xc2\xa003:00 PM EST'
p934
sg6
S'Following Is a Test Release'
p935
sa(dp936
g2
S'http://www.reuters.com/article/latestCrisis/idUSLM218213'
p937
sg4
S'20090222\xc2\xa002:50 PM EST'
p938
sg6
S"Morocco's AMP party picks W.Saharan as leader"
p939
sa(dp940
g2
S'http://www.reuters.com/article/GCA-CreditCrisis/idUSTRE51L18J20090222'
p941
sg4
S'20090222\xc2\xa002:50 PM EST'
p942
sg6
S'European leaders vow stricter oversight of markets'
p943
sa(dp944
g2
S'http://www.reuters.com/article/ousivMolt/idUSSP42335720090222'
p945
sg4
S'20090222\xc2\xa002:49 PM EST'
p946
sg6
S'Europe says all markets must be regulated'
p947
sa(dp948
g2
S'http://www.reuters.com/article/worldNews/idUSTRE51L2AV20090222'
p949
sg4
S'20090222\xc2\xa002:48 PM EST'
p950
sg6
S'Gulf states launch Arab aid plan to rebuild Gaza'
p951
sa(dp952
g2
S'http://www.reuters.com/article/rbssAirlines/idUSSYD40991520090222'
p953
sg4
S'20090222\xc2\xa002:46 PM EST'
p954
sg6
S'PRESS DIGEST-Australian General News - Feb 23'
p955
sa(dp956
g2
S'http://www.reuters.com/article/homepageCrisis/idUSLM216487._CH_.2400'
p957
sg4
S'20090222\xc2\xa002:45 PM EST'
p958
sg6
S'Gulf states launch Arab aid plan to rebuild Gaza'
p959
sa(dp960
g2
S'http://www.reuters.com/article/latestCrisis/idUSLM216487'
p961
sg4
S'20090222\xc2\xa002:45 PM EST'
p962
sg6
S'Gulf states launch Arab aid plan to rebuild Gaza'
p963
sa(dp964
g2
S'http://www.reuters.com/article/pressRelease/idUS90336+22-Feb-2009+PRN20090222'
p965
sg4
S'20090222\xc2\xa002:45 PM EST'
p966
sg6
S'Sikorsky Aircraft Honors the Los Angeles County Fire Department for Distinguished...'
p967
sa(dp968
g2
S'http://www.reuters.com/article/industryNews/idUSTRE51L29S20090222'
p969
sg4
S'20090222\xc2\xa002:37 PM EST'
p970
sg6
S"Time Warner Cable shares could slide: Barron's"
p971
sa(dp972
g2
S'http://www.reuters.com/article/worldNews/idUSTRE51L29H20090222'
p973
sg4
S'20090222\xc2\xa002:36 PM EST'
p974
sg6
S'Rwanda says genocide suspect would get fair trial'
p975
sa(dp976
g2
S'http://www.reuters.com/article/filmNews/idUSTRE51L28S20090222'
p977
sg4
S'20090222\xc2\xa002:34 PM EST'
p978
sg6
S'"Madea Goes to Jail" locks up No. 1 at box office'
p979
sa(dp980
g2
S'http://www.reuters.com/article/pressRelease/idUS89641+22-Feb-2009+PRN20090222'
p981
sg4
S'20090222\xc2\xa002:34 PM EST'
p982
sg6
S'NEWSWEEK: International Editions: Highlights and Exclusives, March 2, 2009 Issue'
p983
sa(dp984
g2
S'http://www.reuters.com/article/mediaNews/idUSN2227789520090222'
p985
sg4
S'20090222\xc2\xa002:30 PM EST'
p986
sg6
S"Time Warner Cable shares could slide-Barron's"
p987
sa(dp988
g2
S'http://www.reuters.com/article/pressRelease/idUS89398+22-Feb-2009+PRN20090222'
p989
sg4
S'20090222\xc2\xa002:30 PM EST'
p990
sg6
S'Following Is a Test Release'
p991
sa(dp992
g2
S'http://www.reuters.com/article/GCA-autos/idUSTRE51L1H520090222'
p993
sg4
S'20090222\xc2\xa002:26 PM EST'
p994
sg6
S"GM's Opel to present plan for survival within days"
p995
sa(dp996
g2
S'http://www.reuters.com/article/rbssConsumerGoodsAndRetailNews/idUSN2226193820090222'
p997
sg4
S'20090222\xc2\xa002:25 PM EST'
p998
sg6
S"'Madea Goes to Jail' locks up No. 1 at box office"
p999
sa(dp1000
g2
S'http://www.reuters.com/article/rbssConsumerGoodsAndRetailNews/idUSLM22573920090222'
p1001
sg4
S'20090222\xc2\xa002:25 PM EST'
p1002
sg6
S"UPDATE 1-GM's Opel to present plan for survival within days"
p1003
sa(dp1004
g2
S'http://www.reuters.com/article/GCA-GCA-iraq/idUSTRE51L27O20090222'
p1005
sg4
S'20090222\xc2\xa002:21 PM EST'
p1006
sg6
S'Iraq accuses Sunni lawmaker of bomb attacks'
p1007
sa(dp1008
g2
S'http://www.reuters.com/article/latestCrisis/idUSLM205728'
p1009
sg4
S'20090222\xc2\xa002:18 PM EST'
p1010
sg6
S'Iraq accuses Sunni lawmaker of bomb attacks'
p1011
sa(dp1012
g2
S'http://www.reuters.com/article/domesticNews/idUSTRE51L26T20090222'
p1013
sg4
S'20090222\xc2\xa002:17 PM EST'
p1014
sg6
S'Some U.S. states embrace housing plan, others skeptical'
p1015
sa(dp1016
g2
S'http://www.reuters.com/article/GCA-Oil/idUSTRE51L26I20090222'
p1017
sg4
S'20090222\xc2\xa002:17 PM EST'
p1018
sg6
S'Kuwait restarts oil exports after storm disruption'
p1019
sa(dp1020
g2
S'http://www.reuters.com/article/pressRelease/idUS88323+22-Feb-2009+PRN20090222'
p1021
sg4
S'20090222\xc2\xa002:15 PM EST'
p1022
sg6
S'NEWSWEEK: Media Lead Sheet/March 2, 2009 Issue (on newsstands Monday, February 23)'
p1023
sa(dp1024
g2
S'http://www.reuters.com/article/rbssInsuranceProperty & Casualty/idUSN2226553120090222'
p1025
sg4
S'20090222\xc2\xa002:13 PM EST'
p1026
sg6
S"Loews 'double discount' stock a good buy-Barron's"
p1027
sa(dp1028
g2
S'http://www.reuters.com/article/FSCONS/idUSN2227640820090222'
p1029
sg4
S'20090222\xc2\xa002:10 PM EST'
p1030
sg6
S'Some U.S. states embrace housing plan, others skeptical'
p1031
sa(dp1032
g2
S'http://www.reuters.com/article/OILPRD/idUSLM11136220090222'
p1033
sg4
S'20090222\xc2\xa002:09 PM EST'
p1034
sg6
S'WRAPUP 2-Kuwait restarts oil exports after storm disruption'
p1035
sa(dp1036
g2
S'http://www.reuters.com/article/pressRelease/idUS87562+22-Feb-2009+PRN20090222'
p1037
sg4
S'20090222\xc2\xa002:01 PM EST'
p1038
sg6
S'Dr. Garth Gemar, M.D. Named Medical Director of Southwest Ambulance'
p1039
sa(dp1040
g2
S'http://www.reuters.com/article/pressRelease/idUS87475+22-Feb-2009+PRN20090222'
p1041
sg4
S'20090222\xc2\xa002:00 PM EST'
p1042
sg6
S'Following Is a Test Release'
p1043
sa(dp1044
g2
S'http://www.reuters.com/article/pressRelease/idUS87470+22-Feb-2009+PRN20090222'
p1045
sg4
S'20090222\xc2\xa002:00 PM EST'
p1046
sg6
S'Sikorsky Aircraft Launches Sikorsky Global Helicopters'
p1047
sa(dp1048
g2
S'http://www.reuters.com/article/latestCrisis/idUSLM206922'
p1049
sg4
S'20090222\xc2\xa001:57 PM EST'
p1050
sg6
S'Two foreigners among four dead in Cairo blast-police'
p1051
sa(dp1052
g2
S'http://www.reuters.com/article/sportsNews/idUSTRE51L24A20090222'
p1053
sg4
S'20090222\xc2\xa001:39 PM EST'
p1054
sg6
S"Beckham unsure of Galaxy return's impact on England hopes"
p1055
sa(dp1056
g2
S'http://www.reuters.com/article/rbssIndustryMaterialsUtilitiesNews/idUSWEL40672420090222'
p1057
sg4
S'20090222\xc2\xa001:33 PM EST'
p1058
sg6
S'PRESS DIGEST-New Zealand newspapers - Feb 23'
p1059
sa(dp1060
g2
S'http://www.reuters.com/article/Manufacturing09/idUSTRE51L22P20090222'
p1061
sg4
S'20090222\xc2\xa001:31 PM EST'
p1062
sg6
S'Calling a bottom for U.S. industrials? Not so fast'
p1063
sa(dp1064
g2
S'http://www.reuters.com/article/pressRelease/idUS85847+22-Feb-2009+PRN20090222'
p1065
sg4
S'20090222\xc2\xa001:30 PM EST'
p1066
sg6
S'Following Is a Test Release'
p1067
sa(dp1068
g2
S'http://www.reuters.com/article/worldNews/idUSTRE51L1W420090222'
p1069
sg4
S'20090222\xc2\xa001:27 PM EST'
p1070
sg6
S'Four killed in Cairo blast, two foreigners'
p1071
sa(dp1072
g2
S'http://www.reuters.com/article/pressRelease/idUS85703+22-Feb-2009+PRN20090222'
p1073
sg4
S'20090222\xc2\xa001:27 PM EST'
p1074
sg6
S'Rentrak Theatrical Announces Box Office Estimates for Weekend of February 22, 2009'
p1075
sa(dp1076
g2
S'http://www.reuters.com/article/latestCrisis/idUSLM214265'
p1077
sg4
S'20090222\xc2\xa001:24 PM EST'
p1078
sg6
S'Four killed in Cairo blast, two foreigners'
p1079
sa(dp1080
g2
S'http://www.reuters.com/article/GCA-CreditCrisis/idUSTRE51L1QN20090222'
p1081
sg4
S'20090222\xc2\xa001:23 PM EST'
p1082
sg6
S'Republican governors split over Obama stimulus'
p1083
sa(dp1084
g2
S'http://www.reuters.com/article/healthNews/idUSTRE51L1ZZ20090222'
p1085
sg4
S'20090222\xc2\xa001:13 PM EST'
p1086
sg6
S'Antibodies protect against bird flu and more'
p1087
sa(dp1088
g2
S'http://www.reuters.com/article/healthNews/idUSTRE51L20320090222'
p1089
sg4
S'20090222\xc2\xa001:13 PM EST'
p1090
sg6
S'FACTBOX: New antibodies work against many flu strains'
p1091
sa(dp1092
g2
S'http://www.reuters.com/article/lifestyleMolt/idUSTRE51L1YN20090222'
p1093
sg4
S'20090222\xc2\xa001:06 PM EST'
p1094
sg6
S'Mouse study sheds light on obesity gene'
p1095
sa(dp1096
g2
S'http://www.reuters.com/article/sportsNews/idUSTRE51L1YA20090222'
p1097
sg4
S'20090222\xc2\xa001:03 PM EST'
p1098
sg6
S'"Blade Runner" Pistorius making good recovery'
p1099
sa(dp1100
g2
S'http://www.reuters.com/article/companyNewsAndPR/idUSN2227254020090222'
p1101
sg4
S'20090222\xc2\xa001:03 PM EST'
p1102
sg6
S'UPDATE 1-Republican governors split over Obama stimulus'
p1103
sa(dp1104
g2
S'http://www.reuters.com/article/euIpoNews/idUSN2227050120090222'
p1105
sg4
S'20090222\xc2\xa001:02 PM EST'
p1106
sg6
S'FACTBOX-New antibodies work against many flu strains'
p1107
sa(dp1108
g2
S'http://www.reuters.com/article/latestCrisis/idUSN22270501'
p1109
sg4
S'20090222\xc2\xa001:02 PM EST'
p1110
sg6
S'FACTBOX-New antibodies work against many flu strains'
p1111
sa(dp1112
g2
S'http://www.reuters.com/article/companyNewsAndPR/idUSN2227057820090222'
p1113
sg4
S'20090222\xc2\xa001:01 PM EST'
p1114
sg6
S'Antibodies protect against bird flu and more'
p1115
sa(dp1116
g2
S'http://www.reuters.com/article/latestCrisis/idUSN22270578'
p1117
sg4
S'20090222\xc2\xa001:01 PM EST'
p1118
sg6
S'Antibodies protect against bird flu and more'
p1119
sa(dp1120
g2
S'http://www.reuters.com/article/worldNews/idUSTRE51L1XP20090222'
p1121
sg4
S'20090222\xc2\xa001:00 PM EST'
p1122
sg6
S'Congo, Somalia conflicts make 350,000 new refugees'
p1123
sa(dp1124
g2
S'http://www.reuters.com/article/pressRelease/idUS83921+22-Feb-2009+PRN20090222'
p1125
sg4
S'20090222\xc2\xa001:00 PM EST'
p1126
sg6
S'Following Is a Test Release'
p1127
sa(dp1128
g2
S'http://www.reuters.com/article/GCA-autos/idUSTRE51L12S20090222'
p1129
sg4
S'20090222\xc2\xa012:56 PM EST'
p1130
sg6
S'German politicians row over aid to carmaker Opel'
p1131
sa(dp1132
g2
S'http://www.reuters.com/article/lifestyleMolt/idUSTRE51L1WL20090222'
p1133
sg4
S'20090222\xc2\xa012:55 PM EST'
p1134
sg6
S"Farhi's classic designs key to beating downturn"
p1135
sa(dp1136
g2
S'http://www.reuters.com/article/pressRelease/idUS83532+22-Feb-2009+BW20090222'
p1137
sg4
S'20090222\xc2\xa012:53 PM EST'
p1138
sg6
S'Enough is Enough: BGA Demands Resignation of Senator Roland Burris'
p1139
sa(dp1140
g2
S'http://www.reuters.com/article/worldNews/idUSTRE51L0UJ20090222'
p1141
sg4
S'20090222\xc2\xa012:50 PM EST'
p1142
sg6
S'Congo, Somalia conflicts make 350,000 new refugees'
p1143
sa(dp1144
g2
S'http://www.reuters.com/article/worldNews/idUSTRE51L1VT20090222'
p1145
sg4
S'20090222\xc2\xa012:50 PM EST'
p1146
sg6
S'Eleven peackeepers killed in Somalia attack: AU'
p1147
sa(dp1148
g2
S'http://www.reuters.com/article/bondsNews/idUSLM8741520090222'
p1149
sg4
S'20090222\xc2\xa012:50 PM EST'
p1150
sg6
S'UPDATE 4-European leaders vow stricter oversight of markets'
p1151
sa(dp1152
g2
S'http://www.reuters.com/article/rbssAutoTruckManufacturers/idUSLM19588120090222'
p1153
sg4
S'20090222\xc2\xa012:50 PM EST'
p1154
sg6
S'UPDATE 1-German politicians row over aid to carmaker Opel'
p1155
sa(dp1156
g2
S'http://www.reuters.com/article/rbssRetailApparelAccessories/idUSLM13626920090222'
p1157
sg4
S'20090222\xc2\xa012:50 PM EST'
p1158
sg6
S"Farhi's classic designs key to beating downturn"
p1159
sa(dp1160
g2
S'http://www.reuters.com/article/latestCrisis/idUSLM205957'
p1161
sg4
S'20090222\xc2\xa012:46 PM EST'
p1162
sg6
S'Bomb wounds four in area of Cairo-security sources'
p1163
sa(dp1164
g2
S'http://www.reuters.com/article/latestCrisis/idUSLM342059'
p1165
sg4
S'20090222\xc2\xa012:37 PM EST'
p1166
sg6
S'Eleven peackeepers killed in Somalia attack-AU'
p1167
sa(dp1168
g2
S'http://www.reuters.com/article/pressRelease/idUS82111+22-Feb-2009+PRN20090222'
p1169
sg4
S'20090222\xc2\xa012:30 PM EST'
p1170
sg6
S'Following Is a Test Release'
p1171
sa(dp1172
g2
S'http://www.reuters.com/article/pressRelease/idUS82107+22-Feb-2009+PRN20090222'
p1173
sg4
S'20090222\xc2\xa012:30 PM EST'
p1174
sg6
S"'Project Runway' Designer in San Francisco to Educate About Living with HIV and Combat..."
p1175
sa(dp1176
g2
S'http://www.reuters.com/article/mediaNews/idUSN2227097120090222'
p1177
sg4
S'20090222\xc2\xa012:27 PM EST'
p1178
sg6
S'UPDATE 1-Hugh Jackman looks to dazzle Oscar watchers'
p1179
sa(dp1180
g2
S'http://www.reuters.com/article/GCA-Oil/idUSTRE51L1TT20090222'
p1181
sg4
S'20090222\xc2\xa012:25 PM EST'
p1182
sg6
S'Vietnam opens $3 billion oil refinery'
p1183
sa(dp1184
g2
S'http://www.reuters.com/article/homepageCrisis/idUSLM299449._CH_.2400'
p1185
sg4
S'20090222\xc2\xa012:18 PM EST'
p1186
sg6
S'Netanyahu says can work with Obama for peace'
p1187
sa(dp1188
g2
S'http://www.reuters.com/article/latestCrisis/idUSLM299449'
p1189
sg4
S'20090222\xc2\xa012:18 PM EST'
p1190
sg6
S'Netanyahu says can work with Obama for peace'
p1191
sa(dp1192
g2
S'http://www.reuters.com/article/latestCrisis/idUSLM145722'
p1193
sg4
S'20090222\xc2\xa012:11 PM EST'
p1194
sg6
S'INTERVIEW-Sudan investors wary of war crimes case - minister'
p1195
sa(dp1196
g2
S'http://www.reuters.com/article/newsOne/idUSTRE51L1SS20090222'
p1197
sg4
S'20090222\xc2\xa012:04 PM EST'
p1198
sg6
S'Bernanke to reassure help is coming for economy'
p1199
sa(dp1200
g2
S'http://www.reuters.com/article/latestCrisis/idUSB178307'
p1201
sg4
S'20090222\xc2\xa012:04 PM EST'
p1202
sg6
S'Bride among 15 killed as train rams car in India'
p1203
sa(dp1204
g2
S'http://www.reuters.com/article/pressRelease/idUS80596+22-Feb-2009+PRN20090222'
p1205
sg4
S'20090222\xc2\xa012:03 PM EST'
p1206
sg6
S'NEWSWEEK Cover: The Confidence Game'
p1207
sa(dp1208
g2
S'http://www.reuters.com/article/rbssEngineeringConstruction/idUSLM18696520090222'
p1209
sg4
S'20090222\xc2\xa012:02 PM EST'
p1210
sg6
S'Sonatrach signs gas deal for petchem joint venture'
p1211
sa(dp1212
g2
S'http://www.reuters.com/article/topNews/idUSISL39669620090222'
p1213
sg4
S'20090222\xc2\xa012:01 PM EST'
p1214
sg6
S'Pakistan to allay U.S. fears on pact with Islamists'
p1215
sa(dp1216
g2
S'http://www.reuters.com/article/topNews/idUSTRE51L0TM20090222'
p1217
sg4
S'20090222\xc2\xa012:01 PM EST'
p1218
sg6
S"Taliban kidnap top government official in Pakistan's Swat"
p1219
sa(dp1220
g2
S'http://www.reuters.com/article/pressRelease/idUS80433+22-Feb-2009+PRN20090222'
p1221
sg4
S'20090222\xc2\xa012:00 PM EST'
p1222
sg6
S'Following Is a Test Release'
p1223
sa(dp1224
g2
S'http://www.reuters.com/article/mediaNews/idUSN0142109420090222'
p1225
sg4
S'20090222\xc2\xa011:59 AM EST'
p1226
sg6
S'The top movies at the North American box office'
p1227
sa(dp1228
g2
S'http://www.reuters.com/article/GCA-CreditCrisis/idUSTRE51L1JM20090222'
p1229
sg4
S'20090222\xc2\xa011:57 AM EST'
p1230
sg6
S'France to inject $6.3 bln into mutual bank: source'
p1231
sa(dp1232
g2
S'http://www.reuters.com/article/americasRegulatoryNews/idUSN2251742920090222'
p1233
sg4
S'20090222\xc2\xa011:56 AM EST'
p1234
sg6
S'PREVIEW-Bernanke to reassure help is coming for US economy'
p1235
sa(dp1236
g2
S'http://www.reuters.com/article/politicsNews/idUSTRE51L1RN20090222'
p1237
sg4
S'20090222\xc2\xa011:48 AM EST'
p1238
sg6
S'Feds question Burris in Blagojevich case: paper'
p1239
sa(dp1240
g2
S'http://www.reuters.com/article/peopleNews/idUSTRE51L0C020090222'
p1241
sg4
S'20090222\xc2\xa011:44 AM EST'
p1242
sg6
S'Myers loses his mojo with "Love Guru" Razzie'
p1243
sa(dp1244
g2
S'http://www.reuters.com/article/worldNews/idUSTRE51L0E920090222'
p1245
sg4
S'20090222\xc2\xa011:43 AM EST'
p1246
sg6
S'Blast in China coal mine kills 74'
p1247
sa(dp1248
g2
S'http://www.reuters.com/article/companyNewsAndPR/idUSLM18414320090222'
p1249
sg4
S'20090222\xc2\xa011:40 AM EST'
p1250
sg6
S'Dubai launches $20 bln bonds, UAE cbank takes half'
p1251
sa(dp1252
g2
S'http://www.reuters.com/article/ousivMolt/idUSTRE51L14120090222'
p1253
sg4
S'20090222\xc2\xa011:37 AM EST'
p1254
sg6
S"Russia's Deripaska: I don't need state financial help"
p1255
sa(dp1256
g2
S'http://www.reuters.com/article/companyNewsAndPR/idUSN2232058220090222'
p1257
sg4
S'20090222\xc2\xa011:36 AM EST'
p1258
sg6
S'Republican governors split over Obama stimulus'
p1259
sa(dp1260
g2
S'http://www.reuters.com/article/companyNews/idUSLM6529620090222'
p1261
sg4
S'20090222\xc2\xa011:35 AM EST'
p1262
sg6
S"UPDATE 3-Russia's Deripaska:I don't need state financial help"
p1263
sa(dp1264
g2
S'http://www.reuters.com/article/pressRelease/idUS79126+22-Feb-2009+MW20090222'
p1265
sg4
S'20090222\xc2\xa011:35 AM EST'
p1266
sg6
S' "Find George Koutroubis" Campaign Launches $1,000 Facebook Contest.  Residents Of Whitby To Receive $250 Bonus'
p1267
sa(dp1268
g2
S'http://www.reuters.com/article/pressRelease/idUS79090+22-Feb-2009+MW20090222'
p1269
sg4
S'20090222\xc2\xa011:34 AM EST'
p1270
sg6
S' "Find George Koutroubis" Campaign Launches $1,000 Facebook Contest.  Residents Of Whitby To Receive $250 Bonus'
p1271
sa(dp1272
g2
S'http://www.reuters.com/article/pressRelease/idUS79016+22-Feb-2009+PRN20090222'
p1273
sg4
S'20090222\xc2\xa011:33 AM EST'
p1274
sg6
S'Elbit Imaging Ltd. Announces Interest Rate for the Next Interest Period for Series...'
p1275
sa(dp1276
g2
S'http://www.reuters.com/article/pressRelease/idUS78868+22-Feb-2009+PRN20090222'
p1277
sg4
S'20090222\xc2\xa011:30 AM EST'
p1278
sg6
S'Following Is a Test Release'
p1279
sa(dp1280
g2
S'http://www.reuters.com/article/internetNews/idUSTRE51L1PJ20090222'
p1281
sg4
S'20090222\xc2\xa011:30 AM EST'
p1282
sg6
S'Microsoft unveils new online employment resource'
p1283
sa(dp1284
g2
S'http://www.reuters.com/article/rbssSoftware/idUSN2226482620090222'
p1285
sg4
S'20090222\xc2\xa011:27 AM EST'
p1286
sg6
S'Microsoft unveils new online employment resource'
p1287
sa(dp1288
g2
S'http://www.reuters.com/article/rbssPharmaceuticals - Generic & Specialty/idUSN2229270020090222'
p1289
sg4
S'20090222\xc2\xa011:12 AM EST'
p1290
sg6
S'RPT-IPO VIEW-Mead IPO, stimulus package no balm-Jefferies exec'
p1291
sa(dp1292
g2
S'http://www.reuters.com/article/latestCrisis/idUSLM123261'
p1293
sg4
S'20090222\xc2\xa011:06 AM EST'
p1294
sg6
S'FACTBOX-Security developments in Iraq, Feb 22'
p1295
sa(dp1296
g2
S'http://www.reuters.com/article/rbssPharmaceuticals - Diversified/idUSN2230173120090222'
p1297
sg4
S'20090222\xc2\xa011:05 AM EST'
p1298
sg6
S"Merck girds to battle Teva's generic Singulair"
p1299
sa(dp1300
g2
S'http://www.reuters.com/article/rbssBanks/idUSLM16351720090222'
p1301
sg4
S'20090222\xc2\xa011:00 AM EST'
p1302
sg6
S"UPDATE 1-Egypt's Credit Agricole 2008 profit down 7 pct"
p1303
sa(dp1304
g2
S'http://www.reuters.com/article/pressRelease/idUS77013+22-Feb-2009+PRN20090222'
p1305
sg4
S'20090222\xc2\xa011:00 AM EST'
p1306
sg6
S'Following Is a Test Release'
p1307
sa(dp1308
g2
S'http://www.reuters.com/article/latestCrisis/idUSLM148671'
p1309
sg4
S'20090222\xc2\xa010:56 AM EST'
p1310
sg6
S'Iraq accuses Sunni lawmaker of bomb attacks'
p1311
sa(dp1312
g2
S'http://www.reuters.com/article/pressReleasesMolt/idUSTRE51J6LC20090222'
p1313
sg4
S'20090222\xc2\xa010:54 AM EST'
p1314
sg6
S'Bank rescue details key to stave off bears'
p1315
sa(dp1316
g2
S'http://www.reuters.com/article/etfNews/idUSN2230505820090222'
p1317
sg4
S'20090222\xc2\xa010:53 AM EST'
p1318
sg6
S'RPT-Wall St Wk Ahead:Bank rescue details key to stave off bears'
p1319
sa(dp1320
g2
S'http://www.reuters.com/article/lifestyleMolt/idUSTRE51J65Y20090222'
p1321
sg4
S'20090222\xc2\xa010:40 AM EST'
p1322
sg6
S'Tradition, abandon meet at Rio Carnival "blocos"'
p1323
sa(dp1324
g2
S'http://www.reuters.com/article/ousivMolt/idUSTRE51L1FV20090222'
p1325
sg4
S'20090222\xc2\xa010:38 AM EST'
p1326
sg6
S'European summit to prepare G20 finance reforms'
p1327
sa(dp1328
g2
S'http://www.reuters.com/article/rbssCoal/idUSPEK28099820090222'
p1329
sg4
S'20090222\xc2\xa010:35 AM EST'
p1330
sg6
S'UPDATE 4-Blast in China coal mine kills 74, scores rescued'
p1331
sa(dp1332
g2
S'http://www.reuters.com/article/latestCrisis/idUSN22318352'
p1333
sg4
S'20090222\xc2\xa010:32 AM EST'
p1334
sg6
S'Tradition, abandon meet at Rio Carnival "blocos"'
p1335
sa(dp1336
g2
S'http://www.reuters.com/article/sportsNews/idUSTRE51L0ZA20090222'
p1337
sg4
S'20090222\xc2\xa010:30 AM EST'
p1338
sg6
S'Vonn seals 19th win with super-G victory'
p1339
sa(dp1340
g2
S'http://www.reuters.com/article/rbssInvestmentServices/idUSN2027875220090222'
p1341
sg4
S'20090222\xc2\xa010:30 AM EST'
p1342
sg6
S'RPT-BAY STREET-Canada bank profits down but not out, for now'
p1343
sa(dp1344
g2
S'http://www.reuters.com/article/pressRelease/idUS74827+22-Feb-2009+PRN20090222'
p1345
sg4
S'20090222\xc2\xa010:30 AM EST'
p1346
sg6
S'Following Is a Test Release'
p1347
sa(dp1348
g2
S'http://www.reuters.com/article/latestCrisis/idUSCOL419559'
p1349
sg4
S'20090222\xc2\xa010:21 AM EST'
p1350
sg6
S'Sri Lanka says rebel air wing no longer a threat'
p1351
sa(dp1352
g2
S'http://www.reuters.com/article/worldNews/idUSTRE51L1BG20090222'
p1353
sg4
S'20090222\xc2\xa010:20 AM EST'
p1354
sg6
S'Zimbabwe PM Tsvangirai calls for reconciliation'
p1355
sa(dp1356
g2
S'http://www.reuters.com/article/homepageCrisis/idUSLM135514._CH_.2400'
p1357
sg4
S'20090222\xc2\xa010:15 AM EST'
p1358
sg6
S'Zimbabwe PM Tsvangirai calls for reconciliation'
p1359
sa(dp1360
g2
S'http://www.reuters.com/article/ousivMolt/idUSTRE51L1IH20090222'
p1361
sg4
S'20090222\xc2\xa010:11 AM EST'
p1362
sg6
S'FACTBOX: Who is Oleg Deripaska?'
p1363
sa(dp1364
g2
S'http://www.reuters.com/article/newsMaps/idUSTRE51L1GS20090222'
p1365
sg4
S'20090222\xc2\xa010:03 AM EST'
p1366
sg6
S'Greece says pirates seize cargo ship off Somalia'
p1367
sa(dp1368
g2
S'http://www.reuters.com/article/newsMaps/idUSTRE51L1GX20090222'
p1369
sg4
S'20090222\xc2\xa010:03 AM EST'
p1370
sg6
S'FACTBOX: Ships held by Somali pirates'
p1371
sa(dp1372
g2
S'http://www.reuters.com/article/globalMarketsNews/idUSTRE51L1GN20090222'
p1373
sg4
S'20090222\xc2\xa010:01 AM EST'
p1374
sg6
S'End of bear market rallies'
p1375
sa(dp1376
g2
S'http://www.reuters.com/article/pressRelease/idUS72815+22-Feb-2009+PRN20090222'
p1377
sg4
S'20090222\xc2\xa010:00 AM EST'
p1378
sg6
S'Following Is a Test Release'
p1379
sa(dp1380
g2
S'http://www.reuters.com/article/pressRelease/idUS72808+22-Feb-2009+PRN20090222'
p1381
sg4
S'20090222\xc2\xa010:00 AM EST'
p1382
sg6
S'Microsoft Equips Individuals With New Training Resources Needed for Jobs'
p1383
sa(dp1384
g2
S'http://www.reuters.com/article/usDollarRpt/idUSLL67938220090222'
p1385
sg4
S'20090222\xc2\xa010:00 AM EST'
p1386
sg6
S'GLOBAL MARKETS WEEKAHEAD-End of bear market rallies'
p1387
sa(dp1388
g2
S'http://www.reuters.com/article/rbssAutoTruckManufacturers/idUSLM15179120090222'
p1389
sg4
S'20090222\xc2\xa009:55 AM EST'
p1390
sg6
S"GM's Opel to present plan for survival within days"
p1391
sa(dp1392
g2
S'http://www.reuters.com/article/latestCrisis/idUSLM609923'
p1393
sg4
S'20090222\xc2\xa009:53 AM EST'
p1394
sg6
S'FACTBOX-Ships held by Somali pirates'
p1395
sa(dp1396
g2
S'http://www.reuters.com/article/GCA-CreditCrisis/idUSTRE51L1FP20090222'
p1397
sg4
S'20090222\xc2\xa009:51 AM EST'
p1398
sg6
S"FACTBOX: Chair's summary from European leaders mtg in Berlin"
p1399
sa(dp1400
g2
S'http://www.reuters.com/article/innovationNews/idUSTRE51L1EX20090222'
p1401
sg4
S'20090222\xc2\xa009:47 AM EST'
p1402
sg6
S'Resolution eyeing Prudential unit: report'
p1403
sa(dp1404
g2
S'http://www.reuters.com/article/globalMarketsNews/idUSTRE51J18920090222'
p1405
sg4
S'20090222\xc2\xa009:42 AM EST'
p1406
sg6
S'UBS chairman attacked over U.S. tax fraud probe: paper'
p1407
sa(dp1408
g2
S'http://www.reuters.com/article/ousivMolt/idUSTRE51L1DT20090222'
p1409
sg4
S'20090222\xc2\xa009:39 AM EST'
p1410
sg6
S'U.S. Senate delays tax haven hearing over UBS: paper'
p1411
sa(dp1412
g2
S'http://www.reuters.com/article/rbssInvestmentServices/idUSTHO25162720090222'
p1413
sg4
S'20090222\xc2\xa009:38 AM EST'
p1414
sg6
S'UPDATE 1-UBS chairman attacked over US tax fraud probe-paper'
p1415
sa(dp1416
g2
S'http://www.reuters.com/article/ousivMolt/idUSTRE51L1D620090222'
p1417
sg4
S'20090222\xc2\xa009:36 AM EST'
p1418
sg6
S'UBS rejects reports top bosses aware of tax fraud'
p1419
sa(dp1420
g2
S'http://www.reuters.com/article/rbssInsuranceLifeHealth/idUSLM55830220090222'
p1421
sg4
S'20090222\xc2\xa009:34 AM EST'
p1422
sg6
S"Resolution eyeing UK's Prudential unit -report"
p1423
sa(dp1424
g2
S'http://www.reuters.com/article/worldNews/idUSTRE51L15620090222'
p1425
sg4
S'20090222\xc2\xa009:32 AM EST'
p1426
sg6
S'Iran conducts tests at Bushehr plant this week'
p1427
sa(dp1428
g2
S'http://www.reuters.com/article/pressRelease/idUS69597+22-Feb-2009+PRN20090222'
p1429
sg4
S'20090222\xc2\xa009:30 AM EST'
p1430
sg6
S'Following Is a Test Release'
p1431
sa(dp1432
g2
S'http://www.reuters.com/article/GCA-Oil/idUSTRE51L1BW20090222'
p1433
sg4
S'20090222\xc2\xa009:29 AM EST'
p1434
sg6
S'Iraq faces severe risk due to oil dependence: minister'
p1435
sa(dp1436
g2
S'http://www.reuters.com/article/companyNewsAndPR/idUSTHO25110920090222'
p1437
sg4
S'20090222\xc2\xa009:22 AM EST'
p1438
sg6
S'UBS rejects reports top bosses aware of tax fraud'
p1439
sa(dp1440
g2
S'http://www.reuters.com/article/latestCrisis/idUSB128199'
p1441
sg4
S'20090222\xc2\xa009:14 AM EST'
p1442
sg6
S'Bride among twelve killed as train rams car in India'
p1443
sa(dp1444
g2
S'http://www.reuters.com/article/rbssCasinosGaming/idUSLM12881420090222'
p1445
sg4
S'20090222\xc2\xa009:12 AM EST'
p1446
sg6
S'William Hill to launch rights issue - paper'
p1447
sa(dp1448
g2
S'http://www.reuters.com/article/GCA-GCA-iraq/idUSTRE51L0YE20090222'
p1449
sg4
S'20090222\xc2\xa009:12 AM EST'
p1450
sg6
S'U.S. and Iraq launch new bid to eradicate al Qaeda'
p1451
sa(dp1452
g2
S'http://www.reuters.com/article/latestCrisis/idUSLM61107'
p1453
sg4
S'20090222\xc2\xa009:10 AM EST'
p1454
sg6
S'Nigerian governor imposes curfew after clashes'
p1455
sa(dp1456
g2
S'http://www.reuters.com/article/rbssBanks/idUSLM13579720090222'
p1457
sg4
S'20090222\xc2\xa009:06 AM EST'
p1458
sg6
S"Egypt's Credit Agricole says '08 net down 7 pct"
p1459
sa(dp1460
g2
S'http://www.reuters.com/article/lifestyleMolt/idUSTRE51L1A720090222'
p1461
sg4
S'20090222\xc2\xa009:03 AM EST'
p1462
sg6
S'Bushmeat, an African delicacy, facing NY crackdown'
p1463
sa(dp1464
g2
S'http://www.reuters.com/article/africaCrisis/idUSLM135514'
p1465
sg4
S'20090222\xc2\xa009:02 AM EST'
p1466
sg6
S"Zimbabwe's Tsvangirai calls for reconciliation"
p1467
sa(dp1468
g2
S'http://www.reuters.com/article/rbssInvestmentServices/idUSTHO24984320090222'
p1469
sg4
S'20090222\xc2\xa009:02 AM EST'
p1470
sg6
S'US Senate delays tax haven hearing over UBS-paper'
p1471
sa(dp1472
g2
S'http://www.reuters.com/article/latestCrisis/idUSLM136765'
p1473
sg4
S'20090222\xc2\xa009:02 AM EST'
p1474
sg6
S'Greece says pirates seize cargo ship off Somalia'
p1475
sa(dp1476
g2
S'http://www.reuters.com/article/pressRelease/idUS65656+22-Feb-2009+PRN20090222'
p1477
sg4
S'20090222\xc2\xa009:00 AM EST'
p1478
sg6
S'Following Is a Test Release'
p1479
sa(dp1480
g2
S'http://www.reuters.com/article/pressRelease/idUS65642+22-Feb-2009+PRN20090222'
p1481
sg4
S'20090222\xc2\xa009:00 AM EST'
p1482
sg6
S'Patient Advocate Foundation Partners with Breakaway from Cancer, Raising Awareness...'
p1483
sa(dp1484
g2
S'http://www.reuters.com/article/latestCrisis/idUSLM125240'
p1485
sg4
S'20090222\xc2\xa008:56 AM EST'
p1486
sg6
S'France says Iran should allay Gulf Arab fears'
p1487
sa(dp1488
g2
S'http://www.reuters.com/article/latestCrisis/idUSLM128166'
p1489
sg4
S'20090222\xc2\xa008:55 AM EST'
p1490
sg6
S'Greece says pirates seize cargo vessel off Somalia'
p1491
sa(dp1492
g2
S'http://www.reuters.com/article/latestCrisis/idUSLM91141'
p1493
sg4
S'20090222\xc2\xa008:51 AM EST'
p1494
sg6
S'Netanyahu says can work with Obama for peace'
p1495
sa(dp1496
g2
S'http://www.reuters.com/article/latestCrisis/idUSLM573139'
p1497
sg4
S'20090222\xc2\xa008:50 AM EST'
p1498
sg6
S'Nigeria troops repel attack on Agip oil terminal'
p1499
sa(dp1500
g2
S'http://www.reuters.com/article/bondsNews/idUSLM9586820090222'
p1501
sg4
S'20090222\xc2\xa008:47 AM EST'
p1502
sg6
S"FACTBOX-Chair's summary from European leaders mtg in Berlin"
p1503
sa(dp1504
g2
S'http://www.reuters.com/article/rbssWirelessTelecommunicationServices/idUSLM81289520090222'
p1505
sg4
S'20090222\xc2\xa008:46 AM EST'
p1506
sg6
S"Egypt's Orascom Telecom extends drops, index falls"
p1507
sa(dp1508
g2
S'http://www.reuters.com/article/rbssInvestmentServices/idUSTHO24782720090222'
p1509
sg4
S'20090222\xc2\xa008:46 AM EST'
p1510
sg6
S'UBS chairman under fire over US tax fraud probe-paper'
p1511
sa(dp1512
g2
S'http://www.reuters.com/article/latestCrisis/idUSLM127186'
p1513
sg4
S'20090222\xc2\xa008:36 AM EST'
p1514
sg6
S"Zimbabwe's Tsvangirai calls for reconciliation"
p1515
sa(dp1516
g2
S'http://www.reuters.com/article/latestCrisis/idUSN20521558'
p1517
sg4
S'20090222\xc2\xa008:34 AM EST'
p1518
sg6
S'Bushmeat, an African delicacy, facing NY crackdown'
p1519
sa(dp1520
g2
S'http://www.reuters.com/article/euIpoNews/idUSBAE00160020090222'
p1521
sg4
S'20090222\xc2\xa008:31 AM EST'
p1522
sg6
S'EU leaders back oversight, tax haven sanctions'
p1523
sa(dp1524
g2
S'http://www.reuters.com/article/pressRelease/idUS63565+22-Feb-2009+PRN20090222'
p1525
sg4
S'20090222\xc2\xa008:30 AM EST'
p1526
sg6
S'Following Is a Test Release'
p1527
sa(dp1528
g2
S'http://www.reuters.com/article/worldNews/idUSTRE51L17L20090222'
p1529
sg4
S'20090222\xc2\xa008:29 AM EST'
p1530
sg6
S'Insurgents target peacekeepers in Somalia'
p1531
sa(dp1532
g2
S'http://www.reuters.com/article/GCA-CreditCrisis/idUSTRE51H2CQ20090222'
p1533
sg4
S'20090222\xc2\xa008:24 AM EST'
p1534
sg6
S'European leaders eye G20 boost'
p1535
sa(dp1536
g2
S'http://www.reuters.com/article/GCA-CreditCrisis/idUSTRE51L13F20090222'
p1537
sg4
S'20090222\xc2\xa008:20 AM EST'
p1538
sg6
S'European finmins agree on hedge fund regulation: source'
p1539
sa(dp1540
g2
S'http://www.reuters.com/article/worldNews/idUSTRE51L03R20090222'
p1541
sg4
S'20090222\xc2\xa008:20 AM EST'
p1542
sg6
S'Australia mourns victims of bushfire disaster'
p1543
sa(dp1544
g2
S'http://www.reuters.com/article/OILPRD/idUSLM12020820090222'
p1545
sg4
S'20090222\xc2\xa008:16 AM EST'
p1546
sg6
S'Nigeria troops repel attack on Agip oil terminal'
p1547
sa(dp1548
g2
S'http://www.reuters.com/article/latestCrisis/idUSLM120208'
p1549
sg4
S'20090222\xc2\xa008:16 AM EST'
p1550
sg6
S'Nigeria troops repel attack on Agip oil terminal'
p1551
sa(dp1552
g2
S'http://www.reuters.com/article/GCA-Oil/idUSTRE51L15H20090222'
p1553
sg4
S'20090222\xc2\xa008:12 AM EST'
p1554
sg6
S'Iran official sees possible oil price rise: IRNA'
p1555
sa(dp1556
g2
S'http://www.reuters.com/article/worldNews/idUSTRE51L15B20090222'
p1557
sg4
S'20090222\xc2\xa008:11 AM EST'
p1558
sg6
S"FACTBOX: Iran's Bushehr nuclear plant"
p1559
sa(dp1560
g2
S'http://www.reuters.com/article/pressRelease/idUS61925+22-Feb-2009+PRN20090222'
p1561
sg4
S'20090222\xc2\xa008:04 AM EST'
p1562
sg6
S'Civil Rights Pioneers Honored on Stamps'
p1563
sa(dp1564
g2
S'http://www.reuters.com/article/pressRelease/idUS61713+22-Feb-2009+PRN20090222'
p1565
sg4
S'20090222\xc2\xa008:00 AM EST'
p1566
sg6
S'Following Is a Test Release'
p1567
sa(dp1568
g2
S'http://www.reuters.com/article/managementIssues/idUSLM10175020090222'
p1569
sg4
S'20090222\xc2\xa007:46 AM EST'
p1570
sg6
S"Irish Life refused chairwoman's offer to resign"
p1571
sa(dp1572
g2
S'http://www.reuters.com/article/worldNews/idUSPEK28223020090222'
p1573
sg4
S'20090222\xc2\xa007:38 AM EST'
p1574
sg6
S'Clinton says U.S. and China are in the same economic boat'
p1575
sa(dp1576
g2
S'http://www.reuters.com/article/worldNews/idUSTRE51J43520090222'
p1577
sg4
S'20090222\xc2\xa007:38 AM EST'
p1578
sg6
S'Clinton ends China visit with church, Web chat'
p1579
sa(dp1580
g2
S'http://www.reuters.com/article/latestCrisis/idUSLM82482'
p1581
sg4
S'20090222\xc2\xa007:34 AM EST'
p1582
sg6
S'Sri Lanka says rebel air wing no longer a threat'
p1583
sa(dp1584
g2
S'http://www.reuters.com/article/rbssAutoTruckManufacturers/idUSLM10483820090222'
p1585
sg4
S'20090222\xc2\xa007:33 AM EST'
p1586
sg6
S'German politicians spar over aid to carmaker Opel'
p1587
sa(dp1588
g2
S'http://www.reuters.com/article/homepageCrisis/idUSISL46407._CH_.2400'
p1589
sg4
S'20090222\xc2\xa007:32 AM EST'
p1590
sg6
S"Taliban kidnap top govt official in Pakistan's Swat"
p1591
sa(dp1592
g2
S'http://www.reuters.com/article/latestCrisis/idUSISL46407'
p1593
sg4
S'20090222\xc2\xa007:32 AM EST'
p1594
sg6
S"Taliban kidnap top govt official in Pakistan's Swat"
p1595
sa(dp1596
g2
S'http://www.reuters.com/article/pressRelease/idUS59977+22-Feb-2009+PRN20090222'
p1597
sg4
S'20090222\xc2\xa007:30 AM EST'
p1598
sg6
S'Following Is a Test Release'
p1599
sa(dp1600
g2
S'http://www.reuters.com/article/pressRelease/idUS59973+22-Feb-2009+PRN20090222'
p1601
sg4
S'20090222\xc2\xa007:30 AM EST'
p1602
sg6
S'Breast Cancer Patients May Have a New Treatment Option When Cancer Spreads'
p1603
sa(dp1604
g2
S'http://www.reuters.com/article/pressRelease/idUS59965+22-Feb-2009+PRN20090222'
p1605
sg4
S'20090222\xc2\xa007:30 AM EST'
p1606
sg6
S'Aching Back? Cholesterol Medication Might Help'
p1607
sa(dp1608
g2
S'http://www.reuters.com/article/rbssFoodDistribution & Convenience Stores/idUSLM10269920090222'
p1609
sg4
S'20090222\xc2\xa007:27 AM EST'
p1610
sg6
S'Tesco US boss says launch approach was wrong-paper'
p1611
sa(dp1612
g2
S'http://www.reuters.com/article/rbssRealEstateOperations/idUSLM7004820090222'
p1613
sg4
S'20090222\xc2\xa007:25 AM EST'
p1614
sg6
S'UPDATE 1-Emaar shares fall after U.S. unit bankruptcy'
p1615
sa(dp1616
g2
S'http://www.reuters.com/article/bondsNews/idUSLM10776820090222'
p1617
sg4
S'20090222\xc2\xa007:23 AM EST'
p1618
sg6
S'UPDATE 1-Clinton ends China visit with church, Web chat'
p1619
sa(dp1620
g2
S'http://www.reuters.com/article/ousiv/idUSTRE51L10520090222'
p1621
sg4
S'20090222\xc2\xa007:21 AM EST'
p1622
sg6
S'RBS to restructure and create non-core unit: source'
p1623
sa(dp1624
g2
S'http://www.reuters.com/article/companyNews/idUSLL6309820090222'
p1625
sg4
S'20090222\xc2\xa007:17 AM EST'
p1626
sg6
S'RUSAL CEO Deripaska says does not need state help'
p1627
sa(dp1628
g2
S'http://www.reuters.com/article/sportsNews/idUSTRE51L0BB20090222'
p1629
sg4
S'20090222\xc2\xa007:02 AM EST'
p1630
sg6
S'Bolt maintains improvement over longer sprint'
p1631
sa(dp1632
g2
S'http://www.reuters.com/article/pressRelease/idUS58272+22-Feb-2009+PRN20090222'
p1633
sg4
S'20090222\xc2\xa007:00 AM EST'
p1634
sg6
S'Following Is a Test Release'
p1635
sa(dp1636
g2
S'http://www.reuters.com/article/latestCrisis/idUSLM56895'
p1637
sg4
S'20090222\xc2\xa006:45 AM EST'
p1638
sg6
S'US, Iraq launch new bid to eradicate al Qaeda'
p1639
sa(dp1640
g2
S'http://www.reuters.com/article/sportsNews/idUSSYD40334120090222'
p1641
sg4
S'20090222\xc2\xa006:44 AM EST'
p1642
sg6
S'Teenager Lee sets sights on Tiger after landmark victory'
p1643
sa(dp1644
g2
S'http://www.reuters.com/article/AIRLIN/idUSLM4771020090222'
p1645
sg4
S'20090222\xc2\xa006:41 AM EST'
p1646
sg6
S'CORRECTED - Airbus expects more European support for plane buys'
p1647
sa(dp1648
g2
S'http://www.reuters.com/article/homepageCrisis/idUSLM55620._CH_.2400'
p1649
sg4
S'20090222\xc2\xa006:35 AM EST'
p1650
sg6
S'Gunmen kidnap Pakistani in northern Somalia'
p1651
sa(dp1652
g2
S'http://www.reuters.com/article/worldNews/idUSTRE51L01A20090222'
p1653
sg4
S'20090222\xc2\xa006:33 AM EST'
p1654
sg6
S'European leaders meet amid euro-zone worries'
p1655
sa(dp1656
g2
S'http://www.reuters.com/article/domesticNews/idUSTRE51H5IO20090222'
p1657
sg4
S'20090222\xc2\xa006:31 AM EST'
p1658
sg6
S'Stanford surrenders passport, Antigua units seized'
p1659
sa(dp1660
g2
S'http://www.reuters.com/article/latestCrisis/idUSLM315528'
p1661
sg4
S'20090222\xc2\xa006:30 AM EST'
p1662
sg6
S'Gulf defence spending seen strong despite low oil'
p1663
sa(dp1664
g2
S'http://www.reuters.com/article/pressRelease/idUS56830+22-Feb-2009+PRN20090222'
p1665
sg4
S'20090222\xc2\xa006:30 AM EST'
p1666
sg6
S'Following Is a Test Release'
p1667
sa(dp1668
g2
S'http://www.reuters.com/article/pressRelease/idUS56821+22-Feb-2009+BW20090222'
p1669
sg4
S'20090222\xc2\xa006:30 AM EST'
p1670
sg6
S'The Biggest Gathering of Interactive Advertising Leaders and Newsmakers of 2009 - Be There!'
p1671
sa(dp1672
g2
S'http://www.reuters.com/article/rbssInvestmentServices/idUSLM73156720090222'
p1673
sg4
S'20090222\xc2\xa006:22 AM EST'
p1674
sg6
S"Egypt's EFG-Hermes seeks 3.6 mln of own shares"
p1675
sa(dp1676
g2
S'http://www.reuters.com/article/worldNews/idUSTRE51K1GF20090222'
p1677
sg4
S'20090222\xc2\xa006:12 AM EST'
p1678
sg6
S'Pakistani Taliban say Swat ceasefire to be reviewed'
p1679
sa(dp1680
g2
S'http://www.reuters.com/article/peopleNews/idUSTRE51L0JA20090222'
p1681
sg4
S'20090222\xc2\xa006:03 AM EST'
p1682
sg6
S'FACTBOX: Facts about the Oscars'
p1683
sa(dp1684
g2
S'http://www.reuters.com/article/rbssWirelessTelecommunicationServices/idUSLM7693620090222'
p1685
sg4
S'20090222\xc2\xa006:00 AM EST'
p1686
sg6
S"UPDATE 1-Egypt's Orascom Telecom may sell IT subsidiaries"
p1687
sa(dp1688
g2
S'http://www.reuters.com/article/homepageCrisis/idUSLM68678._CH_.2400'
p1689
sg4
S'20090222\xc2\xa006:00 AM EST'
p1690
sg6
S'Insurgents target peacekeepers in Somalia'
p1691
sa(dp1692
g2
S'http://www.reuters.com/article/pressRelease/idUS55290+22-Feb-2009+PRN20090222'
p1693
sg4
S'20090222\xc2\xa006:00 AM EST'
p1694
sg6
S'Following Is a Test Release'
p1695
sa(dp1696
g2
S'http://www.reuters.com/article/pressRelease/idUS55269+22-Feb-2009+PRN20090222'
p1697
sg4
S'20090222\xc2\xa005:59 AM EST'
p1698
sg6
S'GOOD MORNING -- February 22, 2009'
p1699
sa(dp1700
g2
S'http://www.reuters.com/article/latestCrisis/idUSLM232749'
p1701
sg4
S'20090222\xc2\xa005:49 AM EST'
p1702
sg6
S'FACTBOX-Military and civilian deaths in Iraq'
p1703
sa(dp1704
g2
S'http://www.reuters.com/article/newsMaps/idUSTRE51L0BK20090222'
p1705
sg4
S'20090222\xc2\xa005:41 AM EST'
p1706
sg6
S'Asian finmins agree deal on currency swaps'
p1707
sa(dp1708
g2
S'http://www.reuters.com/article/latestCrisis/idUSLK172730'
p1709
sg4
S'20090222\xc2\xa005:38 AM EST'
p1710
sg6
S'Congo, Somalia conflicts make 350,000 new refugees'
p1711
sa(dp1712
g2
S'http://www.reuters.com/article/homepageCrisis/idUSLK172730._CH_.2400'
p1713
sg4
S'20090222\xc2\xa005:38 AM EST'
p1714
sg6
S'Congo, Somalia conflicts make 350,000 new refugees'
p1715
sa(dp1716
g2
S'http://www.reuters.com/article/latestCrisis/idUSISL421211'
p1717
sg4
S'20090222\xc2\xa005:37 AM EST'
p1718
sg6
S'INTERVIEW-Afghans face another crisis: air pollution'
p1719
sa(dp1720
g2
S'http://www.reuters.com/article/pressRelease/idUS52957+22-Feb-2009+PRN20090222'
p1721
sg4
S'20090222\xc2\xa005:30 AM EST'
p1722
sg6
S'Following Is a Test Release'
p1723
sa(dp1724
g2
S'http://www.reuters.com/article/televisionNews/idUSTRE51J38N20090222'
p1725
sg4
S'20090222\xc2\xa005:16 AM EST'
p1726
sg6
S'Dying British reality TV star prepares to wed'
p1727
sa(dp1728
g2
S'http://www.reuters.com/article/rbssOilGasExplorationProduction/idUSDHA10572920090222'
p1729
sg4
S'20090222\xc2\xa005:10 AM EST'
p1730
sg6
S'Tullow appoints Bangladeshi firm to produce gas'
p1731
sa(dp1732
g2
S'http://www.reuters.com/article/pressRelease/idUS49959+22-Feb-2009+PRN20090222'
p1733
sg4
S'20090222\xc2\xa005:00 AM EST'
p1734
sg6
S'Following Is a Test Release'
p1735
sa(dp1736
g2
S'http://www.reuters.com/article/pressRelease/idUS49749+22-Feb-2009+PRN20090222'
p1737
sg4
S'20090222\xc2\xa004:57 AM EST'
p1738
sg6
S'Moet & Chandon Releases Grand Vintage 1929 Magnum Commemorating First-Ever Academy...'
p1739
sa(dp1740
g2
S'http://www.reuters.com/article/GCA-Economy/idUSTRE51K1XC20090222'
p1741
sg4
S'20090222\xc2\xa004:48 AM EST'
p1742
sg6
S'Governors unlikely to turn down stimulus funds'
p1743
sa(dp1744
g2
S'http://www.reuters.com/article/latestCrisis/idUSLM347786'
p1745
sg4
S'20090222\xc2\xa004:47 AM EST'
p1746
sg6
S'FACTBOX-Military deaths in Afghanistan'
p1747
sa(dp1748
g2
S'http://www.reuters.com/article/africaCrisis/idUSLM68678'
p1749
sg4
S'20090222\xc2\xa004:41 AM EST'
p1750
sg6
S'Insurgents target peackeepers in Somalia-witnesses'
p1751
sa(dp1752
g2
S'http://www.reuters.com/article/rbssWirelessTelecommunicationServices/idUSLM6805320090222'
p1753
sg4
S'20090222\xc2\xa004:37 AM EST'
p1754
sg6
S"Egypt's Mobinil offers to buy IT firms from OT"
p1755
sa(dp1756
g2
S'http://www.reuters.com/article/latestCrisis/idUSLM51506'
p1757
sg4
S'20090222\xc2\xa004:36 AM EST'
p1758
sg6
S"SAfrica's ANC risked Mandela health for rally-paper"
p1759
sa(dp1760
g2
S'http://www.reuters.com/article/rbssREITResidentialCommercial/idUSLM6742320090222'
p1761
sg4
S'20090222\xc2\xa004:35 AM EST'
p1762
sg6
S'Gazit-Globe raises 400 mln shekels in bond issue'
p1763
sa(dp1764
g2
S'http://www.reuters.com/article/pressRelease/idUS46816+22-Feb-2009+PRN20090222'
p1765
sg4
S'20090222\xc2\xa004:30 AM EST'
p1766
sg6
S'Following Is a Test Release'
p1767
sa(dp1768
g2
S'http://www.reuters.com/article/rbssSemiconductors/idUSLM6103520090222'
p1769
sg4
S'20090222\xc2\xa004:28 AM EST'
p1770
sg6
S'Israel industrial exports seen down 10 pct in 2009'
p1771
sa(dp1772
g2
S'http://www.reuters.com/article/rbssIndustryMaterialsUtilitiesNews/idUSLM6175320090222'
p1773
sg4
S'20090222\xc2\xa004:28 AM EST'
p1774
sg6
S'Raytheon says UAE to buy advanced missiles'
p1775
sa(dp1776
g2
S'http://www.reuters.com/article/GCA-CreditCrisis/idUSTRE51K1YC20090222'
p1777
sg4
S'20090222\xc2\xa004:24 AM EST'
p1778
sg6
S'U.S. bank stress tests to show capital needs: source'
p1779
sa(dp1780
g2
S'http://www.reuters.com/article/latestCrisis/idUSLM59729'
p1781
sg4
S'20090222\xc2\xa004:13 AM EST'
p1782
sg6
S'Insurgents target peackeepers in Somalia-witnesses'
p1783
sa(dp1784
g2
S'http://www.reuters.com/article/sportsNews/idUSTRE51L0ML20090222'
p1785
sg4
S'20090222\xc2\xa004:06 AM EST'
p1786
sg6
S'New Zealand teen amateur Lee wins Johnnie Walker'
p1787
sa(dp1788
g2
S'http://www.reuters.com/article/worldNews/idUSTRE51L0PQ20090222'
p1789
sg4
S'20090222\xc2\xa004:05 AM EST'
p1790
sg6
S"FACTBOX: Australia's deadliest bushfire disaster"
p1791
sa(dp1792
g2
S'http://www.reuters.com/article/pressRelease/idUS43719+22-Feb-2009+PRN20090222'
p1793
sg4
S'20090222\xc2\xa004:00 AM EST'
p1794
sg6
S'Following Is a Test Release'
p1795
sa(dp1796
g2
S'http://www.reuters.com/article/topNews/idUSTRE51L09A20090222'
p1797
sg4
S'20090222\xc2\xa003:56 AM EST'
p1798
sg6
S'Clinton: diplomat, politician or advice columnist?'
p1799
sa(dp1800
g2
S'http://www.reuters.com/article/latestCrisis/idUSB20484'
p1801
sg4
S'20090222\xc2\xa003:53 AM EST'
p1802
sg6
S"FACTBOX-Australia's deadliest bushfire disaster"
p1803
sa(dp1804
g2
S'http://www.reuters.com/article/pressRelease/idUS40477+22-Feb-2009+PRN20090222'
p1805
sg4
S'20090222\xc2\xa003:30 AM EST'
p1806
sg6
S'Following Is a Test Release'
p1807
sa(dp1808
g2
S'http://www.reuters.com/article/newsMaps/idUSTRE51L0DK20090222'
p1809
sg4
S'20090222\xc2\xa003:24 AM EST'
p1810
sg6
S'Political prisoners among 6,000 freed in Myanmar'
p1811
sa(dp1812
g2
S'http://www.reuters.com/article/africaCrisis/idUSLM55620'
p1813
sg4
S'20090222\xc2\xa003:17 AM EST'
p1814
sg6
S'Gunmen kidnap Pakistani in northern Somalia'
p1815
sa(dp1816
g2
S'http://www.reuters.com/article/latestCrisis/idUSLM53575'
p1817
sg4
S'20090222\xc2\xa003:06 AM EST'
p1818
sg6
S'Gunmen kidnap Pakistani in northern Somalia'
p1819
sa(dp1820
g2
S'http://www.reuters.com/article/pressRelease/idUS37740+22-Feb-2009+PRN20090222'
p1821
sg4
S'20090222\xc2\xa003:00 AM EST'
p1822
sg6
S'Following Is a Test Release'
p1823
sa(dp1824
g2
S'http://www.reuters.com/article/latestCrisis/idUSDEL392644'
p1825
sg4
S'20090222\xc2\xa002:35 AM EST'
p1826
sg6
S'Protest in Indian Kashmir over youth killings'
p1827
sa(dp1828
g2
S'http://www.reuters.com/article/pressRelease/idUS34610+22-Feb-2009+PRN20090222'
p1829
sg4
S'20090222\xc2\xa002:30 AM EST'
p1830
sg6
S'Following Is a Test Release'
p1831
sa(dp1832
g2
S'http://www.reuters.com/article/economicNews/idUSPEK26148720090222'
p1833
sg4
S'20090222\xc2\xa002:21 AM EST'
p1834
sg6
S"China eyes record $139 bln deficit in '09 -paper"
p1835
sa(dp1836
g2
S'http://www.reuters.com/article/filmNews/idUSTRE51L06020090222'
p1837
sg4
S'20090222\xc2\xa002:09 AM EST'
p1838
sg6
S'"The Wrestler" wins big at Spirit Awards'
p1839
sa(dp1840
g2
S'http://www.reuters.com/article/pressRelease/idUS31218+22-Feb-2009+PRN20090222'
p1841
sg4
S'20090222\xc2\xa002:00 AM EST'
p1842
sg6
S'Following Is a Test Release'
p1843
sa(dp1844
g2
S'http://www.reuters.com/article/sportsNews/idUSTRE51L0E020090222'
p1845
sg4
S'20090222\xc2\xa001:55 AM EST'
p1846
sg6
S'Mason propels Spurs past Wizards'
p1847
sa(dp1848
g2
S'http://www.reuters.com/article/sportsNews/idUSTRE51L0H020090222'
p1849
sg4
S'20090222\xc2\xa001:51 AM EST'
p1850
sg6
S'Cotto and Pavlik post bounce-back wins'
p1851
sa(dp1852
g2
S'http://www.reuters.com/article/politicsNews/idUSTRE51K0YK20090222'
p1853
sg4
S'20090222\xc2\xa001:42 AM EST'
p1854
sg6
S"FACTBOX: Clinton's track record on China human rights"
p1855
sa(dp1856
g2
S'http://www.reuters.com/article/filmNews/idUSN2131684120090222'
p1857
sg4
S'20090222\xc2\xa001:35 AM EST'
p1858
sg6
S'Actors union rejects studio contract offer'
p1859
sa(dp1860
g2
S'http://www.reuters.com/article/mediaNews/idUSN2030905120090222'
p1861
sg4
S'20090222\xc2\xa001:35 AM EST'
p1862
sg6
S"CORRECTED - 'The Wrestler' big winner at indie film awards"
p1863
sa(dp1864
g2
S'http://www.reuters.com/article/pressRelease/idUS29344+22-Feb-2009+PRN20090222'
p1865
sg4
S'20090222\xc2\xa001:30 AM EST'
p1866
sg6
S'Following Is a Test Release'
p1867
sa(dp1868
g2
S'http://www.reuters.com/article/bondsNews/idUSN2128247720090222'
p1869
sg4
S'20090222\xc2\xa001:03 AM EST'
p1870
sg6
S'Clinton ends China visit with church, Web chat'
p1871
sa(dp1872
g2
S'http://www.reuters.com/article/mediaNews/idUSLK50564920090222'
p1873
sg4
S'20090222\xc2\xa001:00 AM EST'
p1874
sg6
S'FACTBOX-Facts about the Oscars'
p1875
sa(dp1876
g2
S'http://www.reuters.com/article/mediaNews/idUSN2131326120090222'
p1877
sg4
S'20090222\xc2\xa001:00 AM EST'
p1878
sg6
S'Oscars set to shake up their act'
p1879
sa(dp1880
g2
S'http://www.reuters.com/article/pressRelease/idUS28111+22-Feb-2009+PRN20090222'
p1881
sg4
S'20090222\xc2\xa001:00 AM EST'
p1882
sg6
S'Following Is a Test Release'
p1883
sa(dp1884
g2
S'http://www.reuters.com/article/pressRelease/idUS27449+22-Feb-2009+PRN20090222'
p1885
sg4
S'20090222\xc2\xa012:44 AM EST'
p1886
sg6
S"NLRB Blocks New Organization's Attempts to Divide UHW; SEIU UHW Committed to Securing..."
p1887
sa(dp1888
g2
S'http://www.reuters.com/article/sportsNews/idUSTRE51L0DR20090222'
p1889
sg4
S'20090222\xc2\xa012:32 AM EST'
p1890
sg6
S'Panthers shut out Bruins to stay in playoff hunt'
p1891
sa(dp1892
g2
S'http://www.reuters.com/article/pressRelease/idUS26842+22-Feb-2009+PRN20090222'
p1893
sg4
S'20090222\xc2\xa012:30 AM EST'
p1894
sg6
S'Following Is a Test Release'
p1895
sa(dp1896
g2
S'http://www.reuters.com/article/rbssWirelessTelecommunicationServices/idUSLM2577520090222'
p1897
sg4
S'20090222\xc2\xa012:28 AM EST'
p1898
sg6
S'Qtel says to own 65 pct of Indosat after tender'
p1899
sa(dp1900
g2
S'http://www.reuters.com/article/rbssPharmaceuticals - Diversified/idUST28150220090222'
p1901
sg4
S'20090222\xc2\xa012:21 AM EST'
p1902
sg6
S'Daiichi Sankyo to launch flu preventive drug-Nikkei'
p1903
sa(dp1904
g2
S'http://www.reuters.com/article/pressRelease/idUS25681+22-Feb-2009+BW20090222'
p1905
sg4
S'20090222\xc2\xa012:01 AM EST'
p1906
sg6
S'Census Bureau Daily Feature for Sunday, February 22:  Famous Movie`s 75th'
p1907
sa(dp1908
g2
S'http://www.reuters.com/article/pressRelease/idUS25680+22-Feb-2009+BW20090222'
p1909
sg4
S'20090222\xc2\xa012:01 AM EST'
p1910
sg6
S'Census Bureau Black History Month Feature for Sunday, February 22'
p1911
sa(dp1912
g2
S'http://www.reuters.com/article/pressRelease/idUS25660+22-Feb-2009+PRN20090222'
p1913
sg4
S'20090222\xc2\xa012:00 AM EST'
p1914
sg6
S'Following Is a Test Release'
p1915
sa(dp1916
g2
S'http://www.reuters.com/news/video/videoStory?storyID=WAO1235343231911'
p1917
sg4
S'20090222\xc2\xa007:28 PM EST'
p1918
sg6
S'Australians flee fresh fires'
p1919
sa(dp1920
g2
S'http://www.reuters.com/news/video/videoStory?storyID=WAO1228958982118'
p1921
sg4
S'20090222\xc2\xa002:01 PM EST'
p1922
sg6
S'European leaders in markets pledge'
p1923
sa(dp1924
g2
S'http://www.reuters.com/news/video/videoStory?storyID=WAO1228958982111'
p1925
sg4
S'20090222\xc2\xa001:12 PM EST'
p1926
sg6
S'Fans gather for Hollywood Oscars'
p1927
sa(dp1928
g2
S'http://www.reuters.com/news/video/videoStory?storyID=WAO1228958982106'
p1929
sg4
S'20090222\xc2\xa012:49 PM EST'
p1930
sg6
S'Dying British star weds'
p1931
sa(dp1932
g2
S'http://www.reuters.com/news/video/videoStory?storyID=WAO1228958982101'
p1933
sg4
S'20090222\xc2\xa011:13 AM EST'
p1934
sg6
S'Mike Myers crowned king of flops'
p1935
sa(dp1936
g2
S'http://www.reuters.com/news/video/videoStory?storyID=ftpo1228961567002'
p1937
sg4
S'20090222\xc2\xa010:43 AM EST'
p1938
sg6
S'Scores die in Chinese mine blast'
p1939
sa(dp1940
g2
S'http://www.reuters.com/news/video/videoStory?storyID=WAO1228958982091'
p1941
sg4
S'20090222\xc2\xa008:56 AM EST'
p1942
sg6
S'Egypt opens Rafah border'
p1943
sa(dp1944
g2
S'http://www.reuters.com/news/video/videoStory?storyID=WAO1228958982061'
p1945
sg4
S'20090222\xc2\xa005:17 AM EST'
p1946
sg6
S'Oscars bling to be toned down'
p1947
sa.