(lp0
(dp1
S'href'
p2
S'http://www.reuters.com/article/GCA-Oil/idUSTRE5BD0E420091214'
p3
sS'ts'
p4
S'20091213\xc2\xa011:53PM UTC'
p5
sS'title'
p6
S'Sinopec adds new crude link to pipeline network'
p7
sa(dp8
g2
S'http://www.reuters.com/article/hotStocksNews/idUSSGC00339520091214'
p9
sg4
S'20091213\xc2\xa011:48PM UTC'
p10
sg6
S"Singapore's ARA, Qatar's Regency to launch Islamic REIT"
p11
sa(dp12
g2
S'http://www.reuters.com/article/economicNews/idUSTOE5BA08O20091214'
p13
sg4
S'20091213\xc2\xa011:46PM UTC'
p14
sg6
S'TABLE-Japan revised Oct industrial output +0.5 pct m/m'
p15
sa(dp16
g2
S'http://www.reuters.com/article/hotStocksNews/idUSSGE5BD05P20091214'
p17
sg4
S'20091213\xc2\xa011:44PM UTC'
p18
sg6
S'Motor racing-Trulli and Kovalainen to race for Lotus in 2010'
p19
sa(dp20
g2
S'http://www.reuters.com/article/usDollarRpt/idUSTKW00669820091214'
p21
sg4
S'20091213\xc2\xa011:42PM UTC'
p22
sg6
S'Yen falls broadly after statement on Dubai'
p23
sa(dp24
g2
S'http://www.reuters.com/article/bondsNews/idUSLDE5BD01A20091214'
p25
sg4
S'20091213\xc2\xa011:39PM UTC'
p26
sg6
S'TEXT-Dubai govt statement on restructuring, aid'
p27
sa(dp28
g2
S'http://www.reuters.com/article/BANKSL/idUSLDE5BC09H20091214'
p29
sg4
S'20091213\xc2\xa011:37PM UTC'
p30
sg6
S'Abu Dhabi gives $10 bln to Dubai, repays Nakheel bond'
p31
sa(dp32
g2
S'http://www.reuters.com/article/hotStocksNews/idUSKLA01051120091214'
p33
sg4
S'20091213\xc2\xa011:35PM UTC'
p34
sg6
S'Malaysia sells 2.5 bln rgt bond, avg yield 2.876 pct'
p35
sa(dp36
g2
S'http://www.reuters.com/article/economicNews/idUSTKB00660620091214'
p37
sg4
S'20091213\xc2\xa011:34PM UTC'
p38
sg6
S'Japan revised Oct industrial output +0.5 pct m/m'
p39
sa(dp40
g2
S'http://www.reuters.com/article/asiaPrivateEquityNews/idUSTRE5BD0CL20091214'
p41
sg4
S'20091213\xc2\xa011:32PM UTC'
p42
sg6
S"China's HiSoft, NeoPhotonics eye U.S. IPOs in 2010: investor"
p43
sa(dp44
g2
S'http://www.reuters.com/article/CMPTRS/idUSTOE5BD03J20091214'
p45
sg4
S'20091213\xc2\xa011:31PM UTC'
p46
sg6
S"China's HiSoft, NeoPhotonics eye U.S. IPOs in 2010 -investor"
p47
sa(dp48
g2
S'http://www.reuters.com/article/rbssInvestmentTrusts/idUSBMA00661020091214'
p49
sg4
S'20091213\xc2\xa011:30PM UTC'
p50
sg6
S'Indian shares fall 0.1 pct; banks down'
p51
sa(dp52
g2
S'http://www.reuters.com/article/pressRelease/idUS31510+14-Dec-2009+PRN20091214'
p53
sg4
S'20091213\xc2\xa011:30PM UTC'
p54
sg6
S'Following Is a Test Release'
p55
sa(dp56
g2
S'http://www.reuters.com/article/bondsNews/idUSTFD00648620091214'
p57
sg4
S'20091213\xc2\xa011:29PM UTC'
p58
sg6
S'Japan sets JGB cap in budget policy draft -Kyodo'
p59
sa(dp60
g2
S'http://www.reuters.com/article/cyclicalConsumerGoodsSector/idUSSGE5BD06Y20091214'
p61
sg4
S'20091213\xc2\xa011:14PM UTC'
p62
sg6
S'New Issue-Allgreen Properties issues S$50 mln bond'
p63
sa(dp64
g2
S'http://www.reuters.com/article/CARMFG/idUSTOE5BD03R20091214'
p65
sg4
S'20091213\xc2\xa011:12PM UTC'
p66
sg6
S"China's BAIC to make statement on Saab at 0800 GMT"
p67
sa(dp68
g2
S'http://www.reuters.com/article/euMergersNews/idUSSGE5BD06L20091214'
p69
sg4
S'20091213\xc2\xa011:12PM UTC'
p70
sg6
S'Deals of the day -- mergers and acquisitions'
p71
sa(dp72
g2
S'http://www.reuters.com/article/BANKSL/idUSN1313709920091214'
p73
sg4
S'20091213\xc2\xa011:10PM UTC'
p74
sg6
S'UPDATE 3-Citi near deal to pay back bailout money-reports'
p75
sa(dp76
g2
S'http://www.reuters.com/article/pressRelease/idUS29691+14-Dec-2009+PRN20091214'
p77
sg4
S'20091213\xc2\xa011:00PM UTC'
p78
sg6
S'ISRA-PVF: Jim Ryan Picks Up Where He Left Off in 2002 - Stumbling Aimlessly Down the Road to Defeat'
p79
sa(dp80
g2
S'http://www.reuters.com/article/pressRelease/idUS29594+14-Dec-2009+PRN20091214'
p81
sg4
S'20091213\xc2\xa011:00PM UTC'
p82
sg6
S'Following Is a Test Release'
p83
sa(dp84
g2
S'http://www.reuters.com/article/marketsNews/idUSTOE5BD01W20091214'
p85
sg4
S'20091213\xc2\xa010:55PM UTC'
p86
sg6
S'TREASURIES-Rise in Asia on dip buying; FOMC, data eyed'
p87
sa(dp88
g2
S'http://www.reuters.com/article/latestCrisis/idUSTOE5BD00Y'
p89
sg4
S'20091213\xc2\xa010:45PM UTC'
p90
sg6
S"FACTBOX-North Korea's arms trade, sanctions"
p91
sa(dp92
g2
S'http://www.reuters.com/article/worldNews/idUSTRE5BD0AV20091214'
p93
sg4
S'20091213\xc2\xa010:33PM UTC'
p94
sg6
S'Russia cuts gas to Armenia after bomb found: report'
p95
sa(dp96
g2
S'http://www.reuters.com/article/pressRelease/idUS27685+14-Dec-2009+PRN20091214'
p97
sg4
S'20091213\xc2\xa010:30PM UTC'
p98
sg6
S'Following Is a Test Release'
p99
sa(dp100
g2
S'http://www.reuters.com/article/AIRDEF/idUSLDE5BD00M20091214'
p101
sg4
S'20091213\xc2\xa010:27PM UTC'
p102
sg6
S'PRESS DIGEST - Financial Times - Dec 14'
p103
sa(dp104
g2
S'http://www.reuters.com/article/GCA-BusinessofGreen/idUSTRE5BA2JJ20091214'
p105
sg4
S'20091213\xc2\xa010:25PM UTC'
p106
sg6
S'Closed UK steel plant to get EU carbon permits: government'
p107
sa(dp108
g2
S'http://www.reuters.com/article/pressReleasesMolt/idUSTRE5BD0A820091214'
p109
sg4
S'20091213\xc2\xa010:22PM UTC'
p110
sg6
S'Japan business mood up more than forecast'
p111
sa(dp112
g2
S'http://www.reuters.com/article/industrialsSector/idUSTOE5BD02Q20091214'
p113
sg4
S'20091213\xc2\xa010:19PM UTC'
p114
sg6
S'UPDATE 1-Tokyo Steel cuts prices again due to weak demand'
p115
sa(dp116
g2
S'http://www.reuters.com/article/hotStocksNews/idUSWNAS784720091214'
p117
sg4
S'20091213\xc2\xa010:10PM UTC'
p118
sg6
S"Australia's Woodside won't rule out more fund raising"
p119
sa(dp120
g2
S'http://www.reuters.com/article/rbssFinancialServicesAndRealEstateNews/idUSTOE5BD02T20091214'
p121
sg4
S'20091213\xc2\xa010:02PM UTC'
p122
sg6
S'South Korean markets at 0300 GMT'
p123
sa(dp124
g2
S'http://www.reuters.com/article/BROKER/idUSTOE5BD02N20091214'
p125
sg4
S'20091213\xc2\xa010:01PM UTC'
p126
sg6
S"UPDATE 1-China's BAIC to make statement on Saab at 0400 GMT"
p127
sa(dp128
g2
S'http://www.reuters.com/article/pressRelease/idUS25592+14-Dec-2009+PRN20091214'
p129
sg4
S'20091213\xc2\xa010:00PM UTC'
p130
sg6
S'Following Is a Test Release'
p131
sa(dp132
g2
S'http://www.reuters.com/article/olympicsNews/idUSLDE5BC0E620091214'
p133
sg4
S'20091213\xc2\xa010:00PM UTC'
p134
sg6
S'Alpine skiing-Austria respond in style to Janka challenge'
p135
sa(dp136
g2
S'http://www.reuters.com/article/pressReleasesMolt/idUSTRE5BD04L20091214'
p137
sg4
S'20091213\xc2\xa09:57PM UTC'
p138
sg6
S'Houston eyes Asia trade as Panama Canal expands'
p139
sa(dp140
g2
S'http://www.reuters.com/article/bondsNews/idUSTOE5BD02G20091214'
p141
sg4
S'20091213\xc2\xa09:55PM UTC'
p142
sg6
S'JGB curve steepens; eyes on auction, issuance plan'
p143
sa(dp144
g2
S'http://www.reuters.com/article/economicNews/idUSTOE5B905720091214'
p145
sg4
S'20091213\xc2\xa09:55PM UTC'
p146
sg6
S'UPDATE 2-BOJ tankan improvement slows, capex outlook bleak'
p147
sa(dp148
g2
S'http://www.reuters.com/article/pressReleasesMolt/idUSTRE5BD09K20091214'
p149
sg4
S'20091213\xc2\xa09:49PM UTC'
p150
sg6
S'Kelly in lead for BofA top job, pay an obstacle: report'
p151
sa(dp152
g2
S'http://www.reuters.com/article/RAILRD/idUSN1313320720091214'
p153
sg4
S'20091213\xc2\xa09:48PM UTC'
p154
sg6
S'CN Rail, union seek arbitration after talks fail'
p155
sa(dp156
g2
S'http://www.reuters.com/article/hotStocksNews/idUSSEL00281620091214'
p157
sg4
S'20091213\xc2\xa09:40PM UTC'
p158
sg6
S'SK Telecom to buy $343 mln stake in Hana card unit'
p159
sa(dp160
g2
S'http://www.reuters.com/article/mergersNews/idUSLDE5BD00A20091214'
p161
sg4
S'20091213\xc2\xa09:38PM UTC'
p162
sg6
S'Minerva offers to work with Kirsh if scraps bid-paper'
p163
sa(dp164
g2
S'http://www.reuters.com/article/financialsSector/idUSTOE5BD02B20091214'
p165
sg4
S'20091213\xc2\xa09:35PM UTC'
p166
sg6
S'Seoul shares turn lower; KOPEC jumps on debut'
p167
sa(dp168
g2
S'http://www.reuters.com/article/technology-media-telco-SP/idUSTOE5BD01120091214'
p169
sg4
S'20091213\xc2\xa09:34PM UTC'
p170
sg6
S"Taiwan's Asustek shares hit 6-wk low on subsidiary"
p171
sa(dp172
g2
S'http://www.reuters.com/article/GCA-Autos/idUSTRE5BD09220091214'
p173
sg4
S'20091213\xc2\xa09:31PM UTC'
p174
sg6
S'Volkswagen aims for a tenth of India market in 4-6 years'
p175
sa(dp176
g2
S'http://www.reuters.com/article/pressRelease/idUS23305+14-Dec-2009+PRN20091214'
p177
sg4
S'20091213\xc2\xa09:30PM UTC'
p178
sg6
S'Following Is a Test Release'
p179
sa(dp180
g2
S'http://www.reuters.com/article/companyNewsAndPR/idUSTKX00659520091214'
p181
sg4
S'20091213\xc2\xa09:27PM UTC'
p182
sg6
S'Japan Hirano: BOJ tankan better but outlook severe'
p183
sa(dp184
g2
S'http://www.reuters.com/article/newsOne/idUSTRE5BC1P420091214'
p185
sg4
S'20091213\xc2\xa09:25PM UTC'
p186
sg6
S'Morgan Stanley hires ex-Merrill COO Fleming'
p187
sa(dp188
g2
S'http://www.reuters.com/article/etfNews/idUSN1314193120091214'
p189
sg4
S'20091213\xc2\xa09:24PM UTC'
p190
sg6
S'UPDATE 3-Morgan Stanley hires ex-Merrill COO Fleming'
p191
sa(dp192
g2
S'http://www.reuters.com/article/swissMktRpt/idUSN1313150820091214'
p193
sg4
S'20091213\xc2\xa09:20PM UTC'
p194
sg6
S'UPDATE 9-Billionaire, ex-president head for Chile run-off'
p195
sa(dp196
g2
S'http://www.reuters.com/article/rbssFinancialServicesAndRealEstateNews/idUSSGE5BD00920091214'
p197
sg4
S'20091213\xc2\xa09:19PM UTC'
p198
sg6
S'Thai stocks seen firmer on positive U.S. data'
p199
sa(dp200
g2
S'http://www.reuters.com/article/PBLSHG/idUSTOE5BD00K20091214'
p201
sg4
S'20091213\xc2\xa09:16PM UTC'
p202
sg6
S'PRESS DIGEST - Hong Kong - Dec 14'
p203
sa(dp204
g2
S'http://www.reuters.com/article/hotStocksNews/idUSBJC00241420091214'
p205
sg4
S'20091213\xc2\xa09:14PM UTC'
p206
sg6
S'China makes it easier for Macau residents to buy yuan'
p207
sa(dp208
g2
S'http://www.reuters.com/article/rbssSteel/idUSTKG00660120091214'
p209
sg4
S'20091213\xc2\xa09:12PM UTC'
p210
sg6
S'Tokyo Steel to cut prices for most products in Jan'
p211
sa(dp212
g2
S'http://www.reuters.com/article/goldMktRpt/idUSTOE5B805I20091214'
p213
sg4
S'20091213\xc2\xa09:10PM UTC'
p214
sg6
S'PRECIOUS-Gold off 4-week lows as dollar dip supports'
p215
sa(dp216
g2
S'http://www.reuters.com/article/pressRelease/idUS21210+14-Dec-2009+BW20091214'
p217
sg4
S'20091213\xc2\xa09:10PM UTC'
p218
sg6
S'Mitsubishi Electric Receives 2nd Diamond Vision Display Order from Hakodate Racecourse'
p219
sa(dp220
g2
S'http://www.reuters.com/article/companyNews/idUSTOE5BD01D20091214'
p221
sg4
S'20091213\xc2\xa09:09PM UTC'
p222
sg6
S'Nikkei falls as yen gains; JAL and ANA rise'
p223
sa(dp224
g2
S'http://www.reuters.com/article/CARMFG/idUSSHA24927520091214'
p225
sg4
S'20091213\xc2\xa09:08PM UTC'
p226
sg6
S"China's BAIC to make statement on Saab at 0400 GMT"
p227
sa(dp228
g2
S'http://www.reuters.com/article/GCA-Autos/idUSTRE5BD08B20091214'
p229
sg4
S'20091213\xc2\xa09:05PM UTC'
p230
sg6
S'Daimler sees double digit North Asian sales growth in 2010'
p231
sa(dp232
g2
S'http://www.reuters.com/article/hotStocksNews/idUSBJD00331620091214'
p233
sg4
S'20091213\xc2\xa09:04PM UTC'
p234
sg6
S'Daimler sees double digit N.Asian sales growth in 2010'
p235
sa(dp236
g2
S'http://www.reuters.com/article/politicsNews/idUSTRE5BD07X20091214'
p237
sg4
S'20091213\xc2\xa09:02PM UTC'
p238
sg6
S"Venezuela's Chavez sees U.S. 'threat' over Iran ties"
p239
sa(dp240
g2
S'http://www.reuters.com/article/pressRelease/idUS20242+14-Dec-2009+PRN20091214'
p241
sg4
S'20091213\xc2\xa09:00PM UTC'
p242
sg6
S'Following Is a Test Release'
p243
sa(dp244
g2
S'http://www.reuters.com/article/pressRelease/idUS20220+14-Dec-2009+BW20091214'
p245
sg4
S'20091213\xc2\xa09:00PM UTC'
p246
sg6
S'Trusted Computing Group Forms Greater China Regional Forum to Promote TCG Standards and Adoption of Trusted Computing'
p247
sa(dp248
g2
S'http://www.reuters.com/article/pressRelease/idUS20216+14-Dec-2009+BW20091214'
p249
sg4
S'20091213\xc2\xa09:00PM UTC'
p250
sg6
S'Research and Markets: Bahrain Information Technology Report 2010 Estimates the Total Size of the Bahrain IT Market for 2010 to Be US$366Mn'
p251
sa(dp252
g2
S'http://www.reuters.com/article/hongkongMktRpt/idUSHKF00001620091214'
p253
sg4
S'20091213\xc2\xa08:57PM UTC'
p254
sg6
S'HK shares to open down 1.2 pct; HSBC falls'
p255
sa(dp256
g2
S'http://www.reuters.com/article/GCA-Oil/idUSTRE5BD07Q20091214'
p257
sg4
S'20091213\xc2\xa08:55PM UTC'
p258
sg6
S'Iraq raises January Basra Light crude price to Asia'
p259
sa(dp260
g2
S'http://www.reuters.com/article/pressReleasesMolt/idUSTRE5BD07J20091214'
p261
sg4
S'20091213\xc2\xa08:55PM UTC'
p262
sg6
S'Quiet start masks Hong Kong shift to yuan offshore market'
p263
sa(dp264
g2
S'http://www.reuters.com/article/pressReleasesMolt/idUSTRE5BD07C20091214'
p265
sg4
S'20091213\xc2\xa08:53PM UTC'
p266
sg6
S'Real estate firm Fairfield files for bankruptcy'
p267
sa(dp268
g2
S'http://www.reuters.com/article/bankruptcyNews/idUSN1313529420091214'
p269
sg4
S'20091213\xc2\xa08:51PM UTC'
p270
sg6
S'Real estate co Fairfield files for bankruptcy'
p271
sa(dp272
g2
S'http://www.reuters.com/article/pressReleasesMolt/idUSTRE5BD07620091214'
p273
sg4
S'20091213\xc2\xa08:48PM UTC'
p274
sg6
S'China not likely to raise rates in Q1: economist'
p275
sa(dp276
g2
S'http://www.reuters.com/article/GCA-Oil/idUSTRE5BD06X20091214'
p277
sg4
S'20091213\xc2\xa08:46PM UTC'
p278
sg6
S'BP Texas City FCC malfunctions, shuts down'
p279
sa(dp280
g2
S'http://www.reuters.com/article/companyNewsAndPR/idUSN1315260320091214'
p281
sg4
S'20091213\xc2\xa08:43PM UTC'
p282
sg6
S'BP Texas City FCC malfunctions, shuts down -filing'
p283
sa(dp284
g2
S'http://www.reuters.com/article/hotStocksNews/idUSSGE5BC01B20091214'
p285
sg4
S'20091213\xc2\xa08:43PM UTC'
p286
sg6
S'Swimming-Olympic champion Trickett retires'
p287
sa(dp288
g2
S'http://www.reuters.com/article/pressRelease/idUS18660+14-Dec-2009+PRN20091214'
p289
sg4
S'20091213\xc2\xa08:38PM UTC'
p290
sg6
S"Cowboys Stadium and HDlogix Team Up to Premiere Live 3D Broadcast on the World's Largest High Definition Television"
p291
sa(dp292
g2
S'http://www.reuters.com/article/rbssInvestmentServices/idUSTOE5BD00O20091214'
p293
sg4
S'20091213\xc2\xa08:30PM UTC'
p294
sg6
S'HK shares set to open flat; Chinese telecoms in focus'
p295
sa(dp296
g2
S'http://www.reuters.com/article/pressRelease/idUS17952+14-Dec-2009+PRN20091214'
p297
sg4
S'20091213\xc2\xa08:30PM UTC'
p298
sg6
S'Following Is a Test Release'
p299
sa(dp300
g2
S'http://www.reuters.com/article/sportsNews/idUSTRE5BD06320091214'
p301
sg4
S'20091213\xc2\xa08:25PM UTC'
p302
sg6
S'Vikings pillage Bengals to clinch playoff berth'
p303
sa(dp304
g2
S'http://www.reuters.com/article/sportsNews/idUSTRE5BC1PG20091214'
p305
sg4
S'20091213\xc2\xa08:21PM UTC'
p306
sg6
S'Manning drives Colts to record for successive wins'
p307
sa(dp308
g2
S'http://www.reuters.com/article/hotStocksNews/idUSECB00053020091214'
p309
sg4
S'20091213\xc2\xa08:19PM UTC'
p310
sg6
S'Chinese c.bank sets yuan mid-point at 6.8279'
p311
sa(dp312
g2
S'http://www.reuters.com/article/GCA-Oil/idUSTRE5BC1ZE20091214'
p313
sg4
S'20091213\xc2\xa08:18PM UTC'
p314
sg6
S'Algeria struggles to wean economy off oil and gas'
p315
sa(dp316
g2
S'http://www.reuters.com/article/hotStocksNews/idUSTPU00195920091214'
p317
sg4
S'20091213\xc2\xa08:09PM UTC'
p318
sg6
S'Taiwan stocks open down; Asustek drops'
p319
sa(dp320
g2
S'http://www.reuters.com/article/BROKER/idUSTOE5BD00E20091214'
p321
sg4
S'20091213\xc2\xa08:07PM UTC'
p322
sg6
S'Nikkei down but airlines climb on "open skies" deal'
p323
sa(dp324
g2
S'http://www.reuters.com/article/pressRelease/idUS15761+14-Dec-2009+BW20091214'
p325
sg4
S'20091213\xc2\xa08:05PM UTC'
p326
sg6
S'Symbio To Showcase First Chinese Applications Built with PayPal X at China Developer & Partner Conference'
p327
sa(dp328
g2
S'http://www.reuters.com/article/pressReleasesMolt/idUSTRE5BD04Q20091214'
p329
sg4
S'20091213\xc2\xa08:04PM UTC'
p330
sg6
S'FACTBOX: Five facts about the Port of Houston'
p331
sa(dp332
g2
S'http://www.reuters.com/article/rbssManagedHealthCare/idUSSGE5BD00B20091214'
p333
sg4
S'20091213\xc2\xa08:04PM UTC'
p334
sg6
S'PRESS DIGEST - Singapore newspapers - Dec 14'
p335
sa(dp336
g2
S'http://www.reuters.com/article/pressRelease/idUS15272+14-Dec-2009+PRN20091214'
p337
sg4
S'20091213\xc2\xa08:00PM UTC'
p338
sg6
S'Following Is a Test Release'
p339
sa(dp340
g2
S'http://www.reuters.com/article/GCA-Afghanistan-Pakistan/idUSTRE5BD00220091214'
p341
sg4
S'20091213\xc2\xa07:57PM UTC'
p342
sg6
S'Obama: Afghanistan troop rise was hardest decision'
p343
sa(dp344
g2
S'http://www.reuters.com/article/olympicsNews/idUSB14278620091214'
p345
sg4
S'20091213\xc2\xa07:52PM UTC'
p346
sg6
S'Curling-Martin earns another shot at elusive Olympic gold'
p347
sa(dp348
g2
S'http://www.reuters.com/article/GCA-Oil/idUSTRE5BD03F20091214'
p349
sg4
S'20091213\xc2\xa07:48PM UTC'
p350
sg6
S'Sinopec unlikely to inject assets from parent this year'
p351
sa(dp352
g2
S'http://www.reuters.com/article/bondsNews/idUSTOE5BC03T20091214'
p353
sg4
S'20091213\xc2\xa07:44PM UTC'
p354
sg6
S'JGB futures dip; limited impact from tankan survey'
p355
sa(dp356
g2
S'http://www.reuters.com/article/hotStocksNews/idUSSEL00281420091214'
p357
sg4
S'20091213\xc2\xa07:43PM UTC'
p358
sg6
S"S.Korea's Hanil wins $200 mln project in Ghana"
p359
sa(dp360
g2
S'http://www.reuters.com/article/companyNewsAndPR/idUSGEE5BA22H20091214'
p361
sg4
S'20091213\xc2\xa07:37PM UTC'
p362
sg6
S"BoE's Dale-employment not fallen as much as expected"
p363
sa(dp364
g2
S'http://www.reuters.com/article/latestCrisis/idUSTOE5BD001'
p365
sg4
S'20091213\xc2\xa07:30PM UTC'
p366
sg6
S'PRESS DIGEST - South Korean newspapers - Dec 14'
p367
sa(dp368
g2
S'http://www.reuters.com/article/pressRelease/idUS12653+14-Dec-2009+PRN20091214'
p369
sg4
S'20091213\xc2\xa07:30PM UTC'
p370
sg6
S'Following Is a Test Release'
p371
sa(dp372
g2
S'http://www.reuters.com/article/sportsNews/idUSTRE5BC1TV20091214'
p373
sg4
S'20091213\xc2\xa07:28PM UTC'
p374
sg6
S'Saints whip Falcons to clinch first-round playoff bye'
p375
sa(dp376
g2
S'http://www.reuters.com/article/lifestyleMolt/idUSTRE5BD02420091214'
p377
sg4
S'20091213\xc2\xa07:20PM UTC'
p378
sg6
S'Can "Nellie the Elephant" help your heart beat?'
p379
sa(dp380
g2
S'http://www.reuters.com/article/hotStocksNews/idUSSEL00281320091214'
p381
sg4
S'20091213\xc2\xa07:17PM UTC'
p382
sg6
S'S.Korea GS wins $220 mln gas plant order from Oman'
p383
sa(dp384
g2
S'http://www.reuters.com/article/companyNewsAndPR/idUSN1321575920091214'
p385
sg4
S'20091213\xc2\xa07:14PM UTC'
p386
sg6
S"W.House's Summers: Still inequality in US higher education"
p387
sa(dp388
g2
S'http://www.reuters.com/article/filmNews/idUSTRE5BC1ZM20091214'
p389
sg4
S'20091213\xc2\xa07:13PM UTC'
p390
sg6
S'L.A. critics honor Iraq war movie "Hurt Locker"'
p391
sa(dp392
g2
S'http://www.reuters.com/article/tokyoMktRpt/idUSTKW00669720091214'
p393
sg4
S'20091213\xc2\xa07:12PM UTC'
p394
sg6
S'Nikkei flat; JAL jumps after "open skies" deal'
p395
sa(dp396
g2
S'http://www.reuters.com/article/rbssInvestmentServices/idUSKLR42288920091214'
p397
sg4
S'20091213\xc2\xa07:11PM UTC'
p398
sg6
S'PRESS DIGEST - Malaysia - Dec 14'
p399
sa(dp400
g2
S'http://www.reuters.com/article/rbssInvestmentServices/idUSTOE5BD00220091214'
p401
sg4
S'20091213\xc2\xa07:08PM UTC'
p402
sg6
S'Seoul shares open higher; KOPEC jumps on debut'
p403
sa(dp404
g2
S'http://www.reuters.com/article/hotStocksNews/idUSLAG00599720091214'
p405
sg4
S'20091213\xc2\xa07:01PM UTC'
p406
sg6
S"BoE's Dale-employment not fallen as much as expected"
p407
sa(dp408
g2
S'http://www.reuters.com/article/latestCrisis/idUSLDE5BC08O'
p409
sg4
S'20091213\xc2\xa07:01PM UTC'
p410
sg6
S'UK to spend more to protect troops in Afghanistan'
p411
sa(dp412
g2
S'http://www.reuters.com/article/regulatoryNewsHealthcare/idUSN1314203120091214'
p413
sg4
S'20091213\xc2\xa07:00PM UTC'
p414
sg6
S'UPDATE 1-Obama sees Senate healthcare passage by Dec. 25'
p415
sa(dp416
g2
S'http://www.reuters.com/article/latestCrisis/idUSN13201595'
p417
sg4
S'20091213\xc2\xa07:00PM UTC'
p418
sg6
S'Obama: Afghanistan troop rise was hardest decision'
p419
sa(dp420
g2
S'http://www.reuters.com/article/pressRelease/idUS10040+14-Dec-2009+PRN20091214'
p421
sg4
S'20091213\xc2\xa07:00PM UTC'
p422
sg6
S'Following Is a Test Release'
p423
sa(dp424
g2
S'http://www.reuters.com/article/pressRelease/idUS70037+13-Dec-2009+BW20091213'
p425
sg4
S'20091213\xc2\xa06:59PM UTC'
p426
sg6
S'ChemGenex, Hospira, Announce Agreement to License, Develop and Commercialize Leukemia Drug in Europe'
p427
sa(dp428
g2
S'http://www.reuters.com/article/internetNews/idUSTRE5BC20420091213'
p429
sg4
S'20091213\xc2\xa06:56PM UTC'
p430
sg6
S'AOL in talks with Russian investment firm on ICQ'
p431
sa(dp432
g2
S'http://www.reuters.com/article/pressRelease/idUS69679+13-Dec-2009+PRN20091213'
p433
sg4
S'20091213\xc2\xa06:54PM UTC'
p434
sg6
S"Downtown Denver's 16th St. Mall is Transformed Into a City Wide Stereo System with the premiere of 'UNSILENT NIGHT'"
p435
sa(dp436
g2
S'http://www.reuters.com/article/filmNews/idUSTRE5BC1ZM20091213'
p437
sg4
S'20091213\xc2\xa06:51PM UTC'
p438
sg6
S'L.A. critics honor Iraq war movie "Hurt Locker"'
p439
sa(dp440
g2
S'http://www.reuters.com/article/hotStocksNews/idUSTOE5B800O20091213'
p441
sg4
S'20091213\xc2\xa06:48PM UTC'
p442
sg6
S'NYMEX crude falls more than $1 to $68.86/bbl'
p443
sa(dp444
g2
S'http://www.reuters.com/article/GCA-Oil/idUSTRE5BC1ZE20091213'
p445
sg4
S'20091213\xc2\xa06:45PM UTC'
p446
sg6
S'Algeria struggles to wean economy off oil and gas'
p447
sa(dp448
g2
S'http://www.reuters.com/article/mergersNews/idUSN1314531620091213'
p449
sg4
S'20091213\xc2\xa06:44PM UTC'
p450
sg6
S'AOL in talks with Russian investment firm on ICQ-WSJ'
p451
sa(dp452
g2
S'http://www.reuters.com/article/sportsNews/idUSTRE5BC1YP20091213'
p453
sg4
S'20091213\xc2\xa06:42PM UTC'
p454
sg6
S'Rays sign Aussie reliever Balfour to 1-year deal'
p455
sa(dp456
g2
S'http://www.reuters.com/article/worldNews/idUSTRE5BC0P020091213'
p457
sg4
S'20091213\xc2\xa06:39PM UTC'
p458
sg6
S'Billionaire, ex-president head for Chile run-off'
p459
sa(dp460
g2
S'http://www.reuters.com/article/ousivMolt/idUSTRE5B23RK20091213'
p461
sg4
S'20091213\xc2\xa06:36PM UTC'
p462
sg6
S'Dollar firms near highs on rate hike talk'
p463
sa(dp464
g2
S'http://www.reuters.com/article/ousiv/idUSTRE5B10OV20091213'
p465
sg4
S'20091213\xc2\xa06:32PM UTC'
p466
sg6
S'Gold near 4-week lows as dollar stays firm'
p467
sa(dp468
g2
S'http://www.reuters.com/article/swissMktRpt/idUSN1313150820091213'
p469
sg4
S'20091213\xc2\xa06:31PM UTC'
p470
sg6
S'UPDATE 7-Billionaire, ex-president head for Chile run-off'
p471
sa(dp472
g2
S'http://www.reuters.com/article/companyNewsAndPR/idUSSGE5BC01C20091213'
p473
sg4
S'20091213\xc2\xa06:30PM UTC'
p474
sg6
S'FOREX-Dollar supported near highs on rate hike talk'
p475
sa(dp476
g2
S'http://www.reuters.com/article/pressRelease/idUS66919+13-Dec-2009+PRN20091213'
p477
sg4
S'20091213\xc2\xa06:30PM UTC'
p478
sg6
S'Following Is a Test Release'
p479
sa(dp480
g2
S'http://www.reuters.com/article/rbssFinancialServicesAndRealEstateNews/idUSTOE5BC03B20091213'
p481
sg4
S'20091213\xc2\xa06:27PM UTC'
p482
sg6
S'Seoul shares seen higher; KOPEC debuts'
p483
sa(dp484
g2
S'http://www.reuters.com/article/goldMktRpt/idUSTOE5BC03C20091213'
p485
sg4
S'20091213\xc2\xa06:27PM UTC'
p486
sg6
S'PRECIOUS-Gold near 4-week lows as dollar stays firm'
p487
sa(dp488
g2
S'http://www.reuters.com/article/businessNews/idUSTRE5BC1P420091213'
p489
sg4
S'20091213\xc2\xa06:25PM UTC'
p490
sg6
S'Morgan Stanley hires ex-Merrill COO Fleming'
p491
sa(dp492
g2
S'http://www.reuters.com/article/domesticNews/idUSTRE5BC06920091213'
p493
sg4
S'20091213\xc2\xa06:22PM UTC'
p494
sg6
S'Houston elects openly gay mayor'
p495
sa(dp496
g2
S'http://www.reuters.com/article/worldNews/idUSTRE5BC1DA20091213'
p497
sg4
S'20091213\xc2\xa06:19PM UTC'
p498
sg6
S"Italian protester breaks Berlusconi's nose"
p499
sa(dp500
g2
S'http://www.reuters.com/article/worldNews/idUSTRE5BC1SC20091213'
p501
sg4
S'20091213\xc2\xa06:19PM UTC'
p502
sg6
S'FACTBOX: Facts about Italian PM Silvio Berlusconi'
p503
sa(dp504
g2
S'http://www.reuters.com/article/pressRelease/idUS66182+13-Dec-2009+PRN20091213'
p505
sg4
S'20091213\xc2\xa06:19PM UTC'
p506
sg6
S"AXA and AMP Announce They Have Submitted Their Best and Final Joint Proposal to AXA Asia Pacific Holdings' Committee of Independent Directors"
p507
sa(dp508
g2
S'http://www.reuters.com/article/swissMktRpt/idUSSGE5BC01220091213'
p509
sg4
S'20091213\xc2\xa06:12PM UTC'
p510
sg6
S"UPDATE 2-Australia's Woodside to raise $2.3 billion"
p511
sa(dp512
g2
S'http://www.reuters.com/article/pressReleasesMolt/idUSTRE5BA4J620091213'
p513
sg4
S'20091213\xc2\xa06:10PM UTC'
p514
sg6
S'Citi near deal to pay back part of bailout: report'
p515
sa(dp516
g2
S'http://www.reuters.com/article/privateEquity/idUSN1313709920091213'
p517
sg4
S'20091213\xc2\xa06:08PM UTC'
p518
sg6
S'UPDATE 1-Citi near deal to pay back part of bailout-WSJ'
p519
sa(dp520
g2
S'http://www.reuters.com/article/hotStocksNews/idUSSYU00915320091213'
p521
sg4
S'20091213\xc2\xa06:07PM UTC'
p522
sg6
S"Australia's Westpac launches A$1 billion RMBS-source"
p523
sa(dp524
g2
S'http://www.reuters.com/article/rbssInvestmentServices/idUSTOE5BC03020091213'
p525
sg4
S'20091213\xc2\xa06:05PM UTC'
p526
sg6
S'Nikkei likely to rise, but eyes on tankan'
p527
sa(dp528
g2
S'http://www.reuters.com/article/companyNewsAndPR/idUSTOE5BC01920091213'
p529
sg4
S'20091213\xc2\xa06:05PM UTC'
p530
sg6
S'WEEKAHEAD - the view from Reuters Asia news editors'
p531
sa(dp532
g2
S'http://www.reuters.com/article/technologyNews/idUSTRE5BC1QQ20091213'
p533
sg4
S'20091213\xc2\xa06:04PM UTC'
p534
sg6
S'Accenture ends relationship with Tiger Woods'
p535
sa(dp536
g2
S'http://www.reuters.com/article/worldNews/idUSTRE5BC1W320091213'
p537
sg4
S'20091213\xc2\xa06:03PM UTC'
p538
sg6
S'Low turnout in Catalan independence "referendum"'
p539
sa(dp540
g2
S'http://www.reuters.com/article/pressRelease/idUS64889+13-Dec-2009+PRN20091213'
p541
sg4
S'20091213\xc2\xa06:00PM UTC'
p542
sg6
S'Following Is a Test Release'
p543
sa(dp544
g2
S'http://www.reuters.com/article/companyNewsAndPR/idUSN1314314420091213'
p545
sg4
S'20091213\xc2\xa05:59PM UTC'
p546
sg6
S'Conoco JV Borger refinery hit by power outage -filing'
p547
sa(dp548
g2
S'http://www.reuters.com/article/ousiv/idUSTRE5BC1VP20091213'
p549
sg4
S'20091213\xc2\xa05:57PM UTC'
p550
sg6
S'Markets set to start higher'
p551
sa(dp552
g2
S'http://www.reuters.com/article/innovationNews/idUSTRE5BC1O620091213'
p553
sg4
S'20091213\xc2\xa05:50PM UTC'
p554
sg6
S'AXA, AMP raise bid for AXA Asia Pacific to $11.7 bln'
p555
sa(dp556
g2
S'http://www.reuters.com/article/pressReleasesMolt/idUSTRE5BC1VC20091213'
p557
sg4
S'20091213\xc2\xa05:48PM UTC'
p558
sg6
S'MySQL founder in Web campaign against Oracle-Sun'
p559
sa(dp560
g2
S'http://www.reuters.com/article/pressRelease/idUS64122+13-Dec-2009+PRN20091213'
p561
sg4
S'20091213\xc2\xa05:47PM UTC'
p562
sg6
S'Arbitrator to decide wage and benefit issues for CN locomotive engineers after renewed negotiations end without settlement'
p563
sa(dp564
g2
S'http://www.reuters.com/article/euRegulatoryNews/idUSLDE5BC0JY20091213'
p565
sg4
S'20091213\xc2\xa05:42PM UTC'
p566
sg6
S'MySQL founder in Web campaign against Oracle-Sun'
p567
sa(dp568
g2
S'http://www.reuters.com/article/etfNews/idUSN1314360020091213'
p569
sg4
S'20091213\xc2\xa05:40PM UTC'
p570
sg6
S"Seabreeze adds long positions to its shorts-Barron's"
p571
sa(dp572
g2
S'http://www.reuters.com/article/hotStocksNews/idUSSYU00915220091213'
p573
sg4
S'20091213\xc2\xa05:38PM UTC'
p574
sg6
S"France's AXA to pay most of raised AXA Pacific bid"
p575
sa(dp576
g2
S'http://www.reuters.com/article/topNews/idUSTRE5BC0HR20091213'
p577
sg4
S'20091213\xc2\xa05:38PM UTC'
p578
sg6
S'Philippines hostage crisis ends, victims freed'
p579
sa(dp580
g2
S'http://www.reuters.com/article/companyNewsAndPR/idUSN1313944820091213'
p581
sg4
S'20091213\xc2\xa05:36PM UTC'
p582
sg6
S'BP finishes Texas City hydrotreater work -filing'
p583
sa(dp584
g2
S'http://www.reuters.com/article/sportsNews/idUSTRE5BC1TV20091213'
p585
sg4
S'20091213\xc2\xa05:35PM UTC'
p586
sg6
S'Saints whip Falcons to clinch first-round playoff bye'
p587
sa(dp588
g2
S'http://www.reuters.com/article/hotStocksNews/idUSLDE5BC0KM20091213'
p589
sg4
S'20091213\xc2\xa05:32PM UTC'
p590
sg6
S'Soccer-Banfield win first Argentine league title'
p591
sa(dp592
g2
S'http://www.reuters.com/article/pressRelease/idUS63215+13-Dec-2009+PRN20091213'
p593
sg4
S'20091213\xc2\xa05:30PM UTC'
p594
sg6
S'Following Is a Test Release'
p595
sa(dp596
g2
S'http://www.reuters.com/article/politicsNews/idUSTRE5BC1TI20091213'
p597
sg4
S'20091213\xc2\xa05:27PM UTC'
p598
sg6
S'Senate backs move to boost farm trade with Cuba'
p599
sa(dp600
g2
S'http://www.reuters.com/article/BANKSL/idUSN1314193120091213'
p601
sg4
S'20091213\xc2\xa05:17PM UTC'
p602
sg6
S'UPDATE 2-Morgan Stanley hires ex-Merrill COO Fleming'
p603
sa(dp604
g2
S'http://www.reuters.com/article/globalMarketsNews/idUSTRE5BC1RY20091213'
p605
sg4
S'20091213\xc2\xa05:11PM UTC'
p606
sg6
S'Expectations may be too high for Amazon'
p607
sa(dp608
g2
S'http://www.reuters.com/article/bondsNews/idUSN1315208620091213'
p609
sg4
S'20091213\xc2\xa05:10PM UTC'
p610
sg6
S'LATAM WEEKAHEAD-Central banks to signal low rates to stay'
p611
sa(dp612
g2
S'http://www.reuters.com/article/mediaNews/idUSN1314478320091213'
p613
sg4
S'20091213\xc2\xa05:09PM UTC'
p614
sg6
S'RPT-Accenture ends relationship with Tiger Woods'
p615
sa(dp616
g2
S'http://www.reuters.com/article/mediaNews/idUSN1314223620091213'
p617
sg4
S'20091213\xc2\xa05:05PM UTC'
p618
sg6
S'Accenture ends relationship with Tiger Woods'
p619
sa(dp620
g2
S'http://www.reuters.com/article/COMSRV/idUSN1313374220091213'
p621
sg4
S'20091213\xc2\xa05:05PM UTC'
p622
sg6
S"Expectations may be too high for Amazon - Barron's"
p623
sa(dp624
g2
S'http://www.reuters.com/article/newsMaps/idUSTRE5BC1QH20091213'
p625
sg4
S'20091213\xc2\xa05:01PM UTC'
p626
sg6
S'SNAP ANALYSIS: Billionaire seen winning Chile presidency run-off'
p627
sa(dp628
g2
S'http://www.reuters.com/article/weekAheadG7/idUSJPDIARY20091213'
p629
sg4
S'20091213\xc2\xa05:00PM UTC'
p630
sg6
S'DIARY-Japan-Dec 14 -BOJ tankan survey, revised output data'
p631
sa(dp632
g2
S'http://www.reuters.com/article/pressRelease/idUS61379+13-Dec-2009+PRN20091213'
p633
sg4
S'20091213\xc2\xa05:00PM UTC'
p634
sg6
S'Following Is a Test Release'
p635
sa(dp636
g2
S'http://www.reuters.com/article/sportsNews/idUSTRE5BC1PG20091213'
p637
sg4
S'20091213\xc2\xa04:56PM UTC'
p638
sg6
S'Manning leads Colts to NFL record for regular season wins'
p639
sa(dp640
g2
S'http://www.reuters.com/article/hotStocksNews/idUSSAG00246420091213'
p641
sg4
S'20091213\xc2\xa04:52PM UTC'
p642
sg6
S'Pinera leads Chile vote, faces run-off - official'
p643
sa(dp644
g2
S'http://www.reuters.com/article/swissMktRpt/idUSSYU00915120091213'
p645
sg4
S'20091213\xc2\xa04:47PM UTC'
p646
sg6
S"Australia's Woodside says to raise $2.3 billion"
p647
sa(dp648
g2
S'http://www.reuters.com/article/topNews/idUSTRE5BC1C220091213'
p649
sg4
S'20091213\xc2\xa04:44PM UTC'
p650
sg6
S'Fed can do no more to cut unemployment: Greenspan'
p651
sa(dp652
g2
S'http://www.reuters.com/article/hotStocksNews/idUSSYU00914820091213'
p653
sg4
S'20091213\xc2\xa04:40PM UTC'
p654
sg6
S'AXA, AMP raise bid for AXA Asia Pacific'
p655
sa(dp656
g2
S'http://www.reuters.com/article/swissMktRpt/idUSSYU00915020091213'
p657
sg4
S'20091213\xc2\xa04:37PM UTC'
p658
sg6
S"Australia's Woodside says plans capital raising"
p659
sa(dp660
g2
S'http://www.reuters.com/article/hotStocksNews/idUSWLF00448120091213'
p661
sg4
S'20091213\xc2\xa04:32PM UTC'
p662
sg6
S'AMP Ltd put on trading halt - NZX'
p663
sa(dp664
g2
S'http://www.reuters.com/article/pressRelease/idUS59709+13-Dec-2009+PRN20091213'
p665
sg4
S'20091213\xc2\xa04:30PM UTC'
p666
sg6
S'Following Is a Test Release'
p667
sa(dp668
g2
S'http://www.reuters.com/article/newsMaps/idUSTRE5BC0ZS20091213'
p669
sg4
S'20091213\xc2\xa04:29PM UTC'
p670
sg6
S'Israel votes new funding for settlements'
p671
sa(dp672
g2
S'http://www.reuters.com/article/newsMaps/idUSTRE5BC1MF20091213'
p673
sg4
S'20091213\xc2\xa04:27PM UTC'
p674
sg6
S'Kurds, Turkish nationalists clash in Istanbul'
p675
sa(dp676
g2
S'http://www.reuters.com/article/reutersComService_3_MOLT/idUSTRE5BC1LT20091213'
p677
sg4
S'20091213\xc2\xa04:21PM UTC'
p678
sg6
S'Woodside to launch A$2.5 billion rights issue'
p679
sa(dp680
g2
S'http://www.reuters.com/article/latestCrisis/idUSLDE5BC0JU'
p681
sg4
S'20091213\xc2\xa04:18PM UTC'
p682
sg6
S'Kurds, Turkish nationalists clash in Istanbul-agency'
p683
sa(dp684
g2
S'http://www.reuters.com/article/pressRelease/idUS58701+13-Dec-2009+PRN20091213'
p685
sg4
S'20091213\xc2\xa04:00PM UTC'
p686
sg6
S'Following Is a Test Release'
p687
sa(dp688
g2
S'http://www.reuters.com/article/swissMktRpt/idUSSGE5BC00N20091213'
p689
sg4
S'20091213\xc2\xa03:57PM UTC'
p690
sg6
S'Woodside to launch A$2.5 bln rights issue - report'
p691
sa(dp692
g2
S'http://www.reuters.com/article/pressRelease/idUS58391+13-Dec-2009+PRN20091213'
p693
sg4
S'20091213\xc2\xa03:52PM UTC'
p694
sg6
S'NADA Commends the U.S. Senate for Passing Dealers Rights Amendment in Spending Bill'
p695
sa(dp696
g2
S'http://www.reuters.com/article/BROKER/idUSN1313418520091213'
p697
sg4
S'20091213\xc2\xa03:47PM UTC'
p698
sg6
S"AXA stock rise could surge even higher - Barron's"
p699
sa(dp700
g2
S'http://www.reuters.com/article/pressRelease/idUS57985+13-Dec-2009+BW20091213'
p701
sg4
S'20091213\xc2\xa03:40PM UTC'
p702
sg6
S'Gregory Fleming Joins Morgan Stanley as President of Morgan Stanley Investment Management, Including Merchant Banking'
p703
sa(dp704
g2
S'http://www.reuters.com/article/pressRelease/idUS57843+13-Dec-2009+BW20091213'
p705
sg4
S'20091213\xc2\xa03:34PM UTC'
p706
sg6
S'Accenture Sponsorship Update'
p707
sa(dp708
g2
S'http://www.reuters.com/article/topNews/idUSTRE5BC0S520091213'
p709
sg4
S'20091213\xc2\xa03:33PM UTC'
p710
sg6
S'Climate progress eludes ministers, protesters held'
p711
sa(dp712
g2
S'http://www.reuters.com/article/GCA-Afghanistan-Pakistan/idUSTRE5BC10H20091213'
p713
sg4
S'20091213\xc2\xa03:31PM UTC'
p714
sg6
S'Pakistan aid package set to focus on water, power'
p715
sa(dp716
g2
S'http://www.reuters.com/article/pressRelease/idUS57708+13-Dec-2009+PRN20091213'
p717
sg4
S'20091213\xc2\xa03:30PM UTC'
p718
sg6
S'Following Is a Test Release'
p719
sa(dp720
g2
S'http://www.reuters.com/article/pressReleasesMolt/idUSTRE5BC0I220091213'
p721
sg4
S'20091213\xc2\xa03:29PM UTC'
p722
sg6
S'Spyker still in Saab talks, BAIC signs asset deal'
p723
sa(dp724
g2
S'http://www.reuters.com/article/hotStocksNews/idUSSAG00246320091213'
p725
sg4
S'20091213\xc2\xa03:28PM UTC'
p726
sg6
S'Billionaire leads Chile vote, faces run-off - media'
p727
sa(dp728
g2
S'http://www.reuters.com/article/politicsNews/idUSTRE5BB16Q20091213'
p729
sg4
S'20091213\xc2\xa03:26PM UTC'
p730
sg6
S'Congress OKs bill to boost SEC, fund agencies'
p731
sa(dp732
g2
S'http://www.reuters.com/article/earningsSeason/idUSLDE5BC0HY20091213'
p733
sg4
S'20091213\xc2\xa03:25PM UTC'
p734
sg6
S'UPDATE 2-Nokia plans job cuts through 2010 at Finnish plant'
p735
sa(dp736
g2
S'http://www.reuters.com/article/latestCrisis/idUSN13140321'
p737
sg4
S'20091213\xc2\xa03:25PM UTC'
p738
sg6
S'Pakistan aid package set to focus on water, power'
p739
sa(dp740
g2
S'http://www.reuters.com/article/bankruptcyNews/idUSLDE5BC05Q20091213'
p741
sg4
S'20091213\xc2\xa03:20PM UTC'
p742
sg6
S'UPDATE 3-Spyker still in Saab talks, BAIC signs asset deal'
p743
sa(dp744
g2
S'http://www.reuters.com/article/GCA-BarackObama/idUSTRE5B83ZG20091213'
p745
sg4
S'20091213\xc2\xa03:17PM UTC'
p746
sg6
S"Divided Democrats can't pass health bill"
p747
sa(dp748
g2
S'http://www.reuters.com/article/companyNewsAndPR/idUSN1019300920091213'
p749
sg4
S'20091213\xc2\xa03:15PM UTC'
p750
sg6
S'FACTBOX-Highlights of $447 billion US spending bill'
p751
sa(dp752
g2
S'http://www.reuters.com/article/RAILRD/idUSN1313650120091213'
p753
sg4
S'20091213\xc2\xa03:13PM UTC'
p754
sg6
S'UPDATE 1-Congress OKs bill to boost SEC, fund agencies'
p755
sa(dp756
g2
S'http://www.reuters.com/article/companyNewsAndPR/idUSN1113650120091213'
p757
sg4
S'20091213\xc2\xa03:12PM UTC'
p758
sg6
S'US Congress OKs bill to boost SEC, fund agencies'
p759
sa(dp760
g2
S'http://www.reuters.com/article/GCA-Economy/idUSTRE5BC1I820091213'
p761
sg4
S'20091213\xc2\xa03:08PM UTC'
p762
sg6
S"Low inflation making Fed's job easier for now"
p763
sa(dp764
g2
S'http://www.reuters.com/article/regulatoryNewsHealthcare/idUSN1314106820091213'
p765
sg4
S'20091213\xc2\xa03:03PM UTC'
p766
sg6
S"Divided Democrats can't pass health bill-McConnell"
p767
sa(dp768
g2
S'http://www.reuters.com/article/pressRelease/idUS56798+13-Dec-2009+PRN20091213'
p769
sg4
S'20091213\xc2\xa03:00PM UTC'
p770
sg6
S'Following Is a Test Release'
p771
sa(dp772
g2
S'http://www.reuters.com/article/newsMaps/idUSTRE5BC1H420091213'
p773
sg4
S'20091213\xc2\xa02:52PM UTC'
p774
sg6
S'Israel expels Jewish seminary from army deal'
p775
sa(dp776
g2
S'http://www.reuters.com/article/companyNews/idUSN1313141120091213'
p777
sg4
S'20091213\xc2\xa02:48PM UTC'
p778
sg6
S"Volkswagen poised to navigate rough roads-Barron's"
p779
sa(dp780
g2
S'http://www.reuters.com/article/latestCrisis/idUSLDE5BC0HV'
p781
sg4
S'20091213\xc2\xa02:47PM UTC'
p782
sg6
S'Israel expels Jewish seminary from army deal'
p783
sa(dp784
g2
S'http://www.reuters.com/article/entertainmentNews/idUSTRE5B901X20091213'
p785
sg4
S'20091213\xc2\xa02:37PM UTC'
p786
sg6
S'Disney\'s "Princess" charms weekend moviegoers'
p787
sa(dp788
g2
S'http://www.reuters.com/article/asiaPrivateEquityNews/idUSTRE5BC1DN20091213'
p789
sg4
S'20091213\xc2\xa02:35PM UTC'
p790
sg6
S'AES to sell interests in Oman and Pakinstan units'
p791
sa(dp792
g2
S'http://www.reuters.com/article/asiaPrivateEquityNews/idUSTRE5BC1FY20091213'
p793
sg4
S'20091213\xc2\xa02:34PM UTC'
p794
sg6
S'ACWA to buy 58 percent stake in Oman power plant'
p795
sa(dp796
g2
S'http://www.reuters.com/article/PBLSHG/idUSN1313483320091213'
p797
sg4
S'20091213\xc2\xa02:34PM UTC'
p798
sg6
S'UPDATE 1-Disney\'s "Princess" charms weekend moviegoers'
p799
sa(dp800
g2
S'http://www.reuters.com/article/pressRelease/idUS55954+13-Dec-2009+PRN20091213'
p801
sg4
S'20091213\xc2\xa02:30PM UTC'
p802
sg6
S'Following Is a Test Release'
p803
sa(dp804
g2
S'http://www.reuters.com/article/pressRelease/idUS54824+13-Dec-2009+PRN20091213'
p805
sg4
S'20091213\xc2\xa02:10PM UTC'
p806
sg6
S'Online Holiday Spending Approaches $20 Billion for the Season as Two Days Surpass $800 Million in Spending in Most Recent Week'
p807
sa(dp808
g2
S'http://www.reuters.com/article/etfNews/idUSN1316330120091213'
p809
sg4
S'20091213\xc2\xa02:08PM UTC'
p810
sg6
S"Invesco could poised for growth story - Barron's"
p811
sa(dp812
g2
S'http://www.reuters.com/article/pressRelease/idUS54038+13-Dec-2009+PRN20091213'
p813
sg4
S'20091213\xc2\xa02:00PM UTC'
p814
sg6
S'Following Is a Test Release'
p815
sa(dp816
g2
S'http://www.reuters.com/article/mediaNews/idUSLDE5BC0F720091213'
p817
sg4
S'20091213\xc2\xa02:00PM UTC'
p818
sg6
S'Lady Gaga tops the British singles charts again'
p819
sa(dp820
g2
S'http://www.reuters.com/article/earningsSeason/idUSN1313076120091213'
p821
sg4
S'20091213\xc2\xa01:57PM UTC'
p822
sg6
S"Coach poised for growth as U.S. economy rebounds-Barron's"
p823
sa(dp824
g2
S'http://www.reuters.com/article/companyNewsAndPR/idUSN1316334620091213'
p825
sg4
S'20091213\xc2\xa01:53PM UTC'
p826
sg6
S'Top 10 films at the North American box office'
p827
sa(dp828
g2
S'http://www.reuters.com/article/ELECTU/idUSWNBB068220091213'
p829
sg4
S'20091213\xc2\xa01:40PM UTC'
p830
sg6
S'AES to sell interests in Oman and Pakistan units'
p831
sa(dp832
g2
S'http://www.reuters.com/article/pressRelease/idUS52705+13-Dec-2009+BW20091213'
p833
sg4
S'20091213\xc2\xa01:39PM UTC'
p834
sg6
S'Curtain Falls on East Asian Games in Hong Kong'
p835
sa(dp836
g2
S'http://www.reuters.com/article/pressRelease/idUS52136+13-Dec-2009+PRN20091213'
p837
sg4
S'20091213\xc2\xa01:30PM UTC'
p838
sg6
S'Following Is a Test Release'
p839
sa(dp840
g2
S'http://www.reuters.com/article/pressRelease/idUS52103+13-Dec-2009+BW20091213'
p841
sg4
S'20091213\xc2\xa01:29PM UTC'
p842
sg6
S'Dolby 3D y Barco Projection adquieren rol protag\xc3\xb3nico en el estreno mundial de Avatar'
p843
sa(dp844
g2
S'http://www.reuters.com/article/pressRelease/idUS51703+13-Dec-2009+PRN20091213'
p845
sg4
S'20091213\xc2\xa01:24PM UTC'
p846
sg6
S'Rentrak Announces Box Office Numbers for Weekend of December 11, 2009'
p847
sa(dp848
g2
S'http://www.reuters.com/article/companyNewsAndPR/idUSN1325976820091213'
p849
sg4
S'20091213\xc2\xa01:20PM UTC'
p850
sg6
S'AES to sell interests in Oman and Pakinstan units'
p851
sa(dp852
g2
S'http://www.reuters.com/article/homepageCrisis/idUSGEE5BA1RO._CH_.2400'
p853
sg4
S'20091213\xc2\xa01:08PM UTC'
p854
sg6
S"Kidnapped peacekeepers freed in Sudan's Darfur"
p855
sa(dp856
g2
S'http://www.reuters.com/article/latestCrisis/idUSGEE5BA1RO'
p857
sg4
S'20091213\xc2\xa01:08PM UTC'
p858
sg6
S"Kidnapped peacekeepers freed in Sudan's Darfur"
p859
sa(dp860
g2
S'http://www.reuters.com/article/americasRegulatoryNews/idUSN1316211220091213'
p861
sg4
S'20091213\xc2\xa01:01PM UTC'
p862
sg6
S'No more Fed can do to cut unemployment - Greenspan'
p863
sa(dp864
g2
S'http://www.reuters.com/article/pressRelease/idUS50220+13-Dec-2009+PRN20091213'
p865
sg4
S'20091213\xc2\xa01:00PM UTC'
p866
sg6
S'Following Is a Test Release'
p867
sa(dp868
g2
S'http://www.reuters.com/article/PBLSHG/idUSN133527020091213'
p869
sg4
S'20091213\xc2\xa012:53PM UTC'
p870
sg6
S'Disney\'s "Princess and the Frog" charms moviegoers'
p871
sa(dp872
g2
S'http://www.reuters.com/article/bondsNews/idUSLDE5BC0HC20091213'
p873
sg4
S'20091213\xc2\xa012:52PM UTC'
p874
sg6
S'UPDATE 1-Vote recount fails to change Romania election outcome'
p875
sa(dp876
g2
S'http://www.reuters.com/article/hotStocksNews/idUSLDE5BC0H420091213'
p877
sg4
S'20091213\xc2\xa012:50PM UTC'
p878
sg6
S'Nokia plans job cuts through 2010 at Finnish plant'
p879
sa(dp880
g2
S'http://www.reuters.com/article/latestCrisis/idUSGEE5BA1QQ'
p881
sg4
S'20091213\xc2\xa012:47PM UTC'
p882
sg6
S'SUDAN-DARFUR/KIDNAP (URGENT)'
p883
sa(dp884
g2
S'http://www.reuters.com/article/hotStocksNews/idUSGEE5BA1QQ20091213'
p885
sg4
S'20091213\xc2\xa012:46PM UTC'
p886
sg6
S"URGENT-Kidnapped peacekeepers freed in Sudan's Darfur"
p887
sa(dp888
g2
S'http://www.reuters.com/article/newsMaps/idUSTRE5BC0QA20091213'
p889
sg4
S'20091213\xc2\xa012:40PM UTC'
p890
sg6
S'Air France crash remains a mystery, investigators say'
p891
sa(dp892
g2
S'http://www.reuters.com/article/latestCrisis/idUSLDE5BC0F8'
p893
sg4
S'20091213\xc2\xa012:38PM UTC'
p894
sg6
S'Air France crash remains a mystery, investigators say'
p895
sa(dp896
g2
S'http://www.reuters.com/article/pressRelease/idUS48280+13-Dec-2009+PRN20091213'
p897
sg4
S'20091213\xc2\xa012:30PM UTC'
p898
sg6
S'Following Is a Test Release'
p899
sa(dp900
g2
S'http://www.reuters.com/article/domesticNews/idUSTRE5BC15620091213'
p901
sg4
S'20091213\xc2\xa012:22PM UTC'
p902
sg6
S'Nobel economics laureate Samuelson dies at 94'
p903
sa(dp904
g2
S'http://www.reuters.com/article/GCA-Economy/idUSTRE5BC16G20091213'
p905
sg4
S'20091213\xc2\xa012:17PM UTC'
p906
sg6
S'White House economists see jobs growth by spring'
p907
sa(dp908
g2
S'http://www.reuters.com/article/americasRegulatoryNews/idUSN1315630020091213'
p909
sg4
S'20091213\xc2\xa012:15PM UTC'
p910
sg6
S'UPDATE 1-White House economists see jobs growth by spring'
p911
sa(dp912
g2
S'http://www.reuters.com/article/pressReleasesMolt/idUSTRE5BA3HM20091213'
p913
sg4
S'20091213\xc2\xa012:10PM UTC'
p914
sg6
S'Federal Reserve likely to repeat low rate pledge'
p915
sa(dp916
g2
S'http://www.reuters.com/article/pressRelease/idUS46765+13-Dec-2009+BW20091213'
p917
sg4
S'20091213\xc2\xa012:06PM UTC'
p918
sg6
S"Cision UK Ltd: Guinness World Records officially recognises the World's Oldest Golf Course"
p919
sa(dp920
g2
S'http://www.reuters.com/article/companyNewsAndPR/idUSN1320068020091213'
p921
sg4
S'20091213\xc2\xa012:04PM UTC'
p922
sg6
S'FED FOCUS-U.S. Fed likely to repeat low rate pledge this week'
p923
sa(dp924
g2
S'http://www.reuters.com/article/sportsNews/idUSTRE5BC18L20091213'
p925
sg4
S'20091213\xc2\xa012:04PM UTC'
p926
sg6
S'Spaniard Martin lands Dunhill title, 77 for Els'
p927
sa(dp928
g2
S'http://www.reuters.com/article/pressRelease/idUS46263+13-Dec-2009+PRN20091213'
p929
sg4
S'20091213\xc2\xa012:00PM UTC'
p930
sg6
S'Following Is a Test Release'
p931
sa(dp932
g2
S'http://www.reuters.com/article/newsMaps/idUSTRE5BC0WV20091213'
p933
sg4
S'20091213\xc2\xa011:58AM UTC'
p934
sg6
S"Petraeus sees shift in Al Qaeda's Iraq tactics"
p935
sa(dp936
g2
S'http://www.reuters.com/article/hotStocksNews/idUSLDE5BC0FW20091213'
p937
sg4
S'20091213\xc2\xa011:56AM UTC'
p938
sg6
S'Vote recount fails to change Romania election outcome'
p939
sa(dp940
g2
S'http://www.reuters.com/article/pressRelease/idUS45704+13-Dec-2009+BW20091213'
p941
sg4
S'20091213\xc2\xa011:51AM UTC'
p942
sg6
S'Curtain Falls on East Asian Games in Hong Kong'
p943
sa(dp944
g2
S'http://www.reuters.com/article/latestCrisis/idUSLDE5BC0EX'
p945
sg4
S'20091213\xc2\xa011:42AM UTC'
p946
sg6
S'Unclear when Nigeria leader will return home-envoy'
p947
sa(dp948
g2
S'http://www.reuters.com/article/pressRelease/idUS44222+13-Dec-2009+PRN20091213'
p949
sg4
S'20091213\xc2\xa011:30AM UTC'
p950
sg6
S'Following Is a Test Release'
p951
sa(dp952
g2
S'http://www.reuters.com/article/euPrivateEquityNews/idUSTRE5BC16Q20091213'
p953
sg4
S'20091213\xc2\xa011:11AM UTC'
p954
sg6
S'Cadbury, Hershey hold talks on friendly bid: report'
p955
sa(dp956
g2
S'http://www.reuters.com/article/latestCrisis/idUSLDE5BC0D1'
p957
sg4
S'20091213\xc2\xa011:05AM UTC'
p958
sg6
S'Three German tourists die in Egypt car crash'
p959
sa(dp960
g2
S'http://www.reuters.com/article/companyNews/idUSLDE5BC0D920091213'
p961
sg4
S'20091213\xc2\xa011:03AM UTC'
p962
sg6
S'Cadbury, Hershey hold talks on friendly bid-paper'
p963
sa(dp964
g2
S'http://www.reuters.com/article/rbssFinancialServicesAndRealEstateNews/idUSN1313101320091213'
p965
sg4
S'20091213\xc2\xa011:00AM UTC'
p966
sg6
S'White House economists see jobs growth by spring'
p967
sa(dp968
g2
S'http://www.reuters.com/article/AIRDEF/idUSLDE5BC0EI20091213'
p969
sg4
S'20091213\xc2\xa010:55AM UTC'
p970
sg6
S'Rolls-Royce faces JSF component delay-paper'
p971
sa(dp972
g2
S'http://www.reuters.com/article/ousiv/idUSTRE5BB0DM20091213'
p973
sg4
S'20091213\xc2\xa010:54AM UTC'
p974
sg6
S'Stock action hinges on Fed, data'
p975
sa(dp976
g2
S'http://www.reuters.com/article/environmentNews/idUSTRE5BC14Z20091213'
p977
sg4
S'20091213\xc2\xa010:50AM UTC'
p978
sg6
S'Forest communities said key to climate fight'
p979
sa(dp980
g2
S'http://www.reuters.com/article/etfNews/idUSN1113495320091213'
p981
sg4
S'20091213\xc2\xa010:46AM UTC'
p982
sg6
S'BAY STREET-Canadian fund investors seen equity shy in 2010'
p983
sa(dp984
g2
S'http://www.reuters.com/article/BANKSL/idUSN1315965620091213'
p985
sg4
S'20091213\xc2\xa010:46AM UTC'
p986
sg6
S'RPT-Wall St Week Ahead: Stock action hinges on Fed, data'
p987
sa(dp988
g2
S'http://www.reuters.com/article/basicMaterialsSector/idUSLDE5BC0BH20091213'
p989
sg4
S'20091213\xc2\xa010:43AM UTC'
p990
sg6
S'Guinea force needed after leader shot -ECOWAS'
p991
sa(dp992
g2
S'http://www.reuters.com/article/homepageCrisis/idUSLDE5BC0BH._CH_.2400'
p993
sg4
S'20091213\xc2\xa010:43AM UTC'
p994
sg6
S'Guinea force needed after leader shot -ECOWAS'
p995
sa(dp996
g2
S'http://www.reuters.com/article/latestCrisis/idUSLDE5BC0BH'
p997
sg4
S'20091213\xc2\xa010:43AM UTC'
p998
sg6
S'Guinea force needed after leader shot -ECOWAS'
p999
sa(dp1000
g2
S'http://www.reuters.com/article/latestCrisis/idUSLDE5BC0EC'
p1001
sg4
S'20091213\xc2\xa010:40AM UTC'
p1002
sg6
S'Forest communities said key to climate fight'
p1003
sa(dp1004
g2
S'http://www.reuters.com/article/GCA-BusinessofGreen/idUSTRE5BC14S20091213'
p1005
sg4
S'20091213\xc2\xa010:35AM UTC'
p1006
sg6
S'ADB chief says climate finance insufficient'
p1007
sa(dp1008
g2
S'http://www.reuters.com/article/latestCrisis/idUSLDE5BC0AC'
p1009
sg4
S'20091213\xc2\xa010:29AM UTC'
p1010
sg6
S'INTERVIEW-ADB chief says climate finance insufficient'
p1011
sa(dp1012
g2
S'http://www.reuters.com/article/innovationNewsFinancialServicesAndRealEstate/idUSTRE5BC14F20091213'
p1013
sg4
S'20091213\xc2\xa010:27AM UTC'
p1014
sg6
S'Terra Firma seeks investors in EMI: report'
p1015
sa(dp1016
g2
S'http://www.reuters.com/article/newsOne/idUSTRE5BC13R20091213'
p1017
sg4
S'20091213\xc2\xa010:21AM UTC'
p1018
sg6
S'Iraqis skeptical about glittering promise of oil'
p1019
sa(dp1020
g2
S'http://www.reuters.com/article/privateEquityFinancialServicesAndRealEstate/idUSLDE5BC0DM20091213'
p1021
sg4
S'20091213\xc2\xa010:21AM UTC'
p1022
sg6
S'Terra Firma seeks investors in EMI-paper'
p1023
sa(dp1024
g2
S'http://www.reuters.com/article/newsOne/idUSTRE5BC13W20091213'
p1025
sg4
S'20091213\xc2\xa010:21AM UTC'
p1026
sg6
S'FACTBOX: Details on bidding for Iraqi oilfields'
p1027
sa(dp1028
g2
S'http://www.reuters.com/article/sportsNews/idUSTRE5BC0V520091213'
p1029
sg4
S'20091213\xc2\xa010:06AM UTC'
p1030
sg6
S'Hirscher completes Austrian sweep'
p1031
sa(dp1032
g2
S'http://www.reuters.com/article/pressRelease/idUS38389+13-Dec-2009+BW20091213'
p1033
sg4
S'20091213\xc2\xa010:00AM UTC'
p1034
sg6
S'The New York Times Invites Submissions for Fourth Annual "Win a Trip With Nick" Contest'
p1035
sa(dp1036
g2
S'http://www.reuters.com/article/americasRegulatoryNews/idUSN1316132020091213'
p1037
sg4
S'20091213\xc2\xa09:55AM UTC'
p1038
sg6
S"White House's Romer: US jobless rate could still rise"
p1039
sa(dp1040
g2
S'http://www.reuters.com/article/ELECTU/idUSGEE5BA13S20091213'
p1041
sg4
S'20091213\xc2\xa09:52AM UTC'
p1042
sg6
S'FACTBOX-Details on bidding for Iraqi oilfields'
p1043
sa(dp1044
g2
S'http://www.reuters.com/article/worldNews/idUSTRE5BC11G20091213'
p1045
sg4
S'20091213\xc2\xa09:51AM UTC'
p1046
sg6
S'Thaksin back in Cambodia as Thai "spy" to be freed'
p1047
sa(dp1048
g2
S'http://www.reuters.com/article/latestCrisis/idUSLDE5BC03A'
p1049
sg4
S'20091213\xc2\xa09:49AM UTC'
p1050
sg6
S"ANALYSIS-Turkey's courts seen as conservatives' last bastion"
p1051
sa(dp1052
g2
S'http://www.reuters.com/article/olympicsNews/idUSLDE5BC0A720091213'
p1053
sg4
S'20091213\xc2\xa09:48AM UTC'
p1054
sg6
S'UPDATE 1-Alpine skiing-Hirscher completes Austrian sweep'
p1055
sa(dp1056
g2
S'http://www.reuters.com/article/euPrivateEquityNews/idUSTRE5BC11420091213'
p1057
sg4
S'20091213\xc2\xa09:45AM UTC'
p1058
sg6
S'Tube Lines says "not aware" of TfL takeover bid'
p1059
sa(dp1060
g2
S'http://www.reuters.com/article/newsMaps/idUSTRE5BC10820091213'
p1061
sg4
S'20091213\xc2\xa09:19AM UTC'
p1062
sg6
S'Ethnic tensions simmer in crisis-struck Guinea'
p1063
sa(dp1064
g2
S'http://www.reuters.com/article/homepageCrisis/idUSN12140300._CH_.2400'
p1065
sg4
S'20091213\xc2\xa09:19AM UTC'
p1066
sg6
S'Pakistan aid package set to focus on water, power'
p1067
sa(dp1068
g2
S'http://www.reuters.com/article/latestCrisis/idUSN12140300'
p1069
sg4
S'20091213\xc2\xa09:19AM UTC'
p1070
sg6
S'Pakistan aid package set to focus on water, power'
p1071
sa(dp1072
g2
S'http://www.reuters.com/article/innovationNews/idUSTRE5BC0RT20091213'
p1073
sg4
S'20091213\xc2\xa09:13AM UTC'
p1074
sg6
S'Egypt wants Orascom, France Tel deal over Mobinil'
p1075
sa(dp1076
g2
S'http://www.reuters.com/article/basicMaterialsSector/idUSLDE5BC06B20091213'
p1077
sg4
S'20091213\xc2\xa09:13AM UTC'
p1078
sg6
S'Ethnic tensions simmer in crisis-struck Guinea'
p1079
sa(dp1080
g2
S'http://www.reuters.com/article/africaCrisis/idUSLDE5BC06B'
p1081
sg4
S'20091213\xc2\xa09:13AM UTC'
p1082
sg6
S'Ethnic tensions simmer in crisis-struck Guinea'
p1083
sa(dp1084
g2
S'http://www.reuters.com/article/rbssConsumerFinancialServices/idUSN1316081820091213'
p1085
sg4
S'20091213\xc2\xa09:11AM UTC'
p1086
sg6
S'Summers: economists see job growth by spring'
p1087
sa(dp1088
g2
S'http://www.reuters.com/article/latestCrisis/idUSLDE5BC04P'
p1089
sg4
S'20091213\xc2\xa09:05AM UTC'
p1090
sg6
S'Israel votes new funds for settlements'
p1091
sa(dp1092
g2
S'http://www.reuters.com/article/technology-media-telco-SP/idUSLDE5BC02220091213'
p1093
sg4
S'20091213\xc2\xa09:01AM UTC'
p1094
sg6
S'Egypt wants Orascom, France Tel deal over Mobinil'
p1095
sa(dp1096
g2
S'http://www.reuters.com/article/topNews/idUSTRE5BC0VW20091213'
p1097
sg4
S'20091213\xc2\xa08:58AM UTC'
p1098
sg6
S"D-Day nears for Dubai's $3.5 billion debt hurdle"
p1099
sa(dp1100
g2
S'http://www.reuters.com/article/GCA-Afghanistan-Pakistan/idUSTRE5BC0XK20091213'
p1101
sg4
S'20091213\xc2\xa08:55AM UTC'
p1102
sg6
S'German minister under fire over Afghan airstrike'
p1103
sa(dp1104
g2
S'http://www.reuters.com/article/companyNewsAndPR/idUSLDE5BC07U20091213'
p1105
sg4
S'20091213\xc2\xa08:48AM UTC'
p1106
sg6
S"REFILE-PREVIEW-D-Day nears for Dubai's $3.5 bln debt hurdle"
p1107
sa(dp1108
g2
S'http://www.reuters.com/article/euPrivateEquityNews/idUSTRE5BC0WJ20091213'
p1109
sg4
S'20091213\xc2\xa08:47AM UTC'
p1110
sg6
S"PartyGaming, Austria's bwin in merger talks: report"
p1111
sa(dp1112
g2
S'http://www.reuters.com/article/latestCrisis/idUSLDE5BC09O'
p1113
sg4
S'20091213\xc2\xa08:39AM UTC'
p1114
sg6
S'German minister under fire over Afghan airstrike'
p1115
sa(dp1116
g2
S'http://www.reuters.com/article/GCA-Iran/idUSTRE5BC0VH20091213'
p1117
sg4
S'20091213\xc2\xa08:36AM UTC'
p1118
sg6
S'TIMELINE: Iran leader says opposition violated law'
p1119
sa(dp1120
g2
S'http://www.reuters.com/article/olympicsNews/idUSLDE5BC0A520091213'
p1121
sg4
S'20091213\xc2\xa08:24AM UTC'
p1122
sg6
S'UPDATE 1-Alpine skiing-Aubert completes French double in Are'
p1123
sa(dp1124
g2
S'http://www.reuters.com/article/sportsNews/idUSTRE5BC0U520091213'
p1125
sg4
S'20091213\xc2\xa08:21AM UTC'
p1126
sg6
S'Aubert crowns superb French weekend in Are'
p1127
sa(dp1128
g2
S'http://www.reuters.com/article/pressRelease/idUS32151+13-Dec-2009+MW20091213'
p1129
sg4
S'20091213\xc2\xa08:19AM UTC'
p1130
sg6
S" Media Advisory: Canada's Progress at the United Nations Conference on Climate Change"
p1131
sa(dp1132
g2
S'http://www.reuters.com/article/newsOne/idUSTRE5BC0TS20091213'
p1133
sg4
S'20091213\xc2\xa08:18AM UTC'
p1134
sg6
S'UAE, Oman seen unlikely to rejoin Gulf union now'
p1135
sa(dp1136
g2
S'http://www.reuters.com/article/newsOne/idUSTRE5BC0TX20091213'
p1137
sg4
S'20091213\xc2\xa08:18AM UTC'
p1138
sg6
S'FACTBOX: What next for the Gulf Arab monetary union?'
p1139
sa(dp1140
g2
S'http://www.reuters.com/article/managementIssues/idUSLDE5BC08Q20091213'
p1141
sg4
S'20091213\xc2\xa08:15AM UTC'
p1142
sg6
S'Barclays may defer up to 60 pct of bonuses-paper'
p1143
sa(dp1144
g2
S'http://www.reuters.com/article/newsMaps/idUSTRE5BC0TC20091213'
p1145
sg4
S'20091213\xc2\xa08:11AM UTC'
p1146
sg6
S'PLO set to extend Abbas term as Palestinian leader'
p1147
sa(dp1148
g2
S'http://www.reuters.com/article/olympicsNews/idUSLDE5BC0A020091213'
p1149
sg4
S'20091213\xc2\xa08:09AM UTC'
p1150
sg6
S"Alpine skiing-Austrian Hirscher wins Val d'Isere giant slalom"
p1151
sa(dp1152
g2
S'http://www.reuters.com/article/asianCurrencyNews/idUSGEE5B619Z20091213'
p1153
sg4
S'20091213\xc2\xa08:01AM UTC'
p1154
sg6
S'FACTBOX-What next for the Gulf Arab monetary union?'
p1155
sa(dp1156
g2
S'http://www.reuters.com/article/asianCurrencyNews/idUSGEE5BB0BE20091213'
p1157
sg4
S'20091213\xc2\xa08:01AM UTC'
p1158
sg6
S'PREVIEW-UAE, Oman seen unlikely to rejoin Gulf union now'
p1159
sa(dp1160
g2
S'http://www.reuters.com/article/companyNewsAndPR/idUSN0712297920091213'
p1161
sg4
S'20091213\xc2\xa08:00AM UTC'
p1162
sg6
S"SPECIAL REPORT-Amazon projects undercut Brazil's new green path"
p1163
sa(dp1164
g2
S'http://www.reuters.com/article/pressRelease/idUS31505+13-Dec-2009+PRN20091213'
p1165
sg4
S'20091213\xc2\xa08:00AM UTC'
p1166
sg6
S'Following Is a Test Release'
p1167
sa(dp1168
g2
S'http://www.reuters.com/article/pressRelease/idUS31483+13-Dec-2009+BW20091213'
p1169
sg4
S'20091213\xc2\xa08:00AM UTC'
p1170
sg6
S'AES Oasis Enters into Agreement to Sell Pakistan Facilities'
p1171
sa(dp1172
g2
S'http://www.reuters.com/article/pressRelease/idUS31480+13-Dec-2009+BW20091213'
p1173
sg4
S'20091213\xc2\xa08:00AM UTC'
p1174
sg6
S'AES Enters Agreements to Sell Equity Interests in Oman and Pakistan Businesses'
p1175
sa(dp1176
g2
S'http://www.reuters.com/article/pressRelease/idUS31479+13-Dec-2009+BW20091213'
p1177
sg4
S'20091213\xc2\xa08:00AM UTC'
p1178
sg6
S'Celldex Therapeutics Presents Positive Results from Phase 2 Study of the Antibody-Drug Conjugate (ADC) Product Candidate CDX-011 in Advanced Breast Cancer'
p1179
sa(dp1180
g2
S'http://www.reuters.com/article/sportsNews/idUSTRE5BC0SN20091213'
p1181
sg4
S'20091213\xc2\xa07:56AM UTC'
p1182
sg6
S'Woods unlikely to play in Masters: Lyle'
p1183
sa(dp1184
g2
S'http://www.reuters.com/article/asiaPrivateEquityNews/idUSTRE5BC0RY20091213'
p1185
sg4
S'20091213\xc2\xa07:45AM UTC'
p1186
sg6
S'Kuwait finance minister says no dispute with Citi: report'
p1187
sa(dp1188
g2
S'http://www.reuters.com/article/CARMFG/idUSWEA534820091213'
p1189
sg4
S'20091213\xc2\xa07:41AM UTC'
p1190
sg6
S'Spyker still in talks with GM about Saab sale'
p1191
sa(dp1192
g2
S'http://www.reuters.com/article/latestCrisis/idUSTOE5BC01G'
p1193
sg4
S'20091213\xc2\xa07:36AM UTC'
p1194
sg6
S'Environment ministers try to unlock climate deal'
p1195
sa(dp1196
g2
S'http://www.reuters.com/article/BANKSL/idUSLDE5BC08B20091213'
p1197
sg4
S'20091213\xc2\xa07:34AM UTC'
p1198
sg6
S'Kuwait finmin says no dispute with Citi- paper'
p1199
sa(dp1200
g2
S'http://www.reuters.com/article/topNews/idUSTRE5BC0QX20091213'
p1201
sg4
S'20091213\xc2\xa07:31AM UTC'
p1202
sg6
S"Mugabe's ZANU-PF battles to regain absolute power"
p1203
sa(dp1204
g2
S'http://www.reuters.com/article/olympicsNews/idUSLDE5BC09320091213'
p1205
sg4
S'20091213\xc2\xa07:31AM UTC'
p1206
sg6
S"Alpine skiing-France's Aubert wins Are slalom"
p1207
sa(dp1208
g2
S'http://www.reuters.com/article/pressRelease/idUS30644+13-Dec-2009+PRN20091213'
p1209
sg4
S'20091213\xc2\xa07:30AM UTC'
p1210
sg6
S'Following Is a Test Release'
p1211
sa(dp1212
g2
S'http://www.reuters.com/article/latestCrisis/idUSLDE5BC037'
p1213
sg4
S'20091213\xc2\xa07:15AM UTC'
p1214
sg6
S'Cause of Air France crash may remain mystery-sources'
p1215
sa(dp1216
g2
S'http://www.reuters.com/article/olympicsNews/idUSLDE5BC07N20091213'
p1217
sg4
S'20091213\xc2\xa07:13AM UTC'
p1218
sg6
S'BRIEF-Alpine skiing-Kostelic undergoes knee surgery'
p1219
sa(dp1220
g2
S'http://www.reuters.com/article/pressRelease/idUS30071+13-Dec-2009+BW20091213'
p1221
sg4
S'20091213\xc2\xa07:04AM UTC'
p1222
sg6
S'JohnsonDiversey Chairman Announces Commitment to Carbon Footprint Company`s Product Portfolio'
p1223
sa(dp1224
g2
S'http://www.reuters.com/article/pressRelease/idUS29970+13-Dec-2009+PRN20091213'
p1225
sg4
S'20091213\xc2\xa07:00AM UTC'
p1226
sg6
S'Following Is a Test Release'
p1227
sa(dp1228
g2
S'http://www.reuters.com/article/rbssTechMediaTelecomNews/idUSLDE5BC07T20091213'
p1229
sg4
S'20091213\xc2\xa06:50AM UTC'
p1230
sg6
S'Egypt wants Orascom, France Tel deal over Mobinil'
p1231
sa(dp1232
g2
S'http://www.reuters.com/article/pressRelease/idUS29298+13-Dec-2009+PRN20091213'
p1233
sg4
S'20091213\xc2\xa06:30AM UTC'
p1234
sg6
S'Following Is a Test Release'
p1235
sa(dp1236
g2
S'http://www.reuters.com/article/worldNews/idUSTRE5BC0PB20091213'
p1237
sg4
S'20091213\xc2\xa06:26AM UTC'
p1238
sg6
S"Chile's main presidential candidates"
p1239
sa(dp1240
g2
S'http://www.reuters.com/article/latestCrisis/idUSHAF340326'
p1241
sg4
S'20091213\xc2\xa06:19AM UTC'
p1242
sg6
S'Iran leader says opposition violated law'
p1243
sa(dp1244
g2
S'http://www.reuters.com/article/newsMaps/idUSTRE5BC0NK20091213'
p1245
sg4
S'20091213\xc2\xa06:18AM UTC'
p1246
sg6
S'India test fires ballistic missile off east coast'
p1247
sa(dp1248
g2
S'http://www.reuters.com/article/environmentNews/idUSTRE5BC0ND20091213'
p1249
sg4
S'20091213\xc2\xa06:16AM UTC'
p1250
sg6
S'Indian farmers adapt to shifting weather patterns'
p1251
sa(dp1252
g2
S'http://www.reuters.com/article/latestCrisis/idUSDEL64222'
p1253
sg4
S'20091213\xc2\xa06:15AM UTC'
p1254
sg6
S'Indian farmers adapt to shifting weather patterns'
p1255
sa(dp1256
g2
S'http://www.reuters.com/article/rbssTechMediaTelecomNews/idUSLDE5BC07220091213'
p1257
sg4
S'20091213\xc2\xa06:13AM UTC'
p1258
sg6
S'Orascom Telecom head denies remarks on Mobinil sale'
p1259
sa(dp1260
g2
S'http://www.reuters.com/article/pressRelease/idUS28562+13-Dec-2009+MW20091213'
p1261
sg4
S'20091213\xc2\xa06:00AM UTC'
p1262
sg6
S' Melrose Jewelers Australia Launches Its Rolex Watch Store With Mens Rolex & Lady Rolex Watches at MelroseJewelers.com'
p1263
sa(dp1264
g2
S'http://www.reuters.com/article/pressRelease/idUS28555+13-Dec-2009+PRN20091213'
p1265
sg4
S'20091213\xc2\xa06:00AM UTC'
p1266
sg6
S'Following Is a Test Release'
p1267
sa(dp1268
g2
S'http://www.reuters.com/article/pressRelease/idUS28549+13-Dec-2009+MW20091213'
p1269
sg4
S'20091213\xc2\xa06:00AM UTC'
p1270
sg6
S' Melrose Jewelers Australia Launches Its Rolex Watch Store With Mens Rolex & Lady Rolex Watches at MelroseJewelers.com'
p1271
sa(dp1272
g2
S'http://www.reuters.com/article/pressRelease/idUS28537+13-Dec-2009+PRN20091213'
p1273
sg4
S'20091213\xc2\xa05:59AM UTC'
p1274
sg6
S'GOOD MORNING -- December 13, 2009'
p1275
sa(dp1276
g2
S'http://www.reuters.com/article/GCA-Iran/idUSTRE5BC0N820091213'
p1277
sg4
S'20091213\xc2\xa05:57AM UTC'
p1278
sg6
S'Iran leader says opposition violated law'
p1279
sa(dp1280
g2
S'http://www.reuters.com/article/hotStocksNews/idUSLDE5BC06G20091213'
p1281
sg4
S'20091213\xc2\xa05:57AM UTC'
p1282
sg6
S'Iran leader says opposition violated law'
p1283
sa(dp1284
g2
S'http://www.reuters.com/article/latestCrisis/idUSLDE5BC06G'
p1285
sg4
S'20091213\xc2\xa05:57AM UTC'
p1286
sg6
S'Iran leader says opposition violated law'
p1287
sa(dp1288
g2
S'http://www.reuters.com/article/worldNews/idUSTRE5BC0I920091213'
p1289
sg4
S'20091213\xc2\xa05:54AM UTC'
p1290
sg6
S'Sudan leaders reach deal on disputed reforms'
p1291
sa(dp1292
g2
S'http://www.reuters.com/article/newsOne/idUSTRE5BC0MH20091213'
p1293
sg4
S'20091213\xc2\xa05:53AM UTC'
p1294
sg6
S'Volcker finds British bonus tax "interesting": report'
p1295
sa(dp1296
g2
S'http://www.reuters.com/article/homepageCrisis/idUSLDE5BC068._CH_.2400'
p1297
sg4
S'20091213\xc2\xa05:50AM UTC'
p1298
sg6
S'Sudan leaders reach deal on disputed reforms'
p1299
sa(dp1300
g2
S'http://www.reuters.com/article/latestCrisis/idUSLDE5BC068'
p1301
sg4
S'20091213\xc2\xa05:50AM UTC'
p1302
sg6
S'Sudan leaders reach deal on disputed reforms'
p1303
sa(dp1304
g2
S'http://www.reuters.com/article/worldNews/idUSTRE5BB11V20091213'
p1305
sg4
S'20091213\xc2\xa05:50AM UTC'
p1306
sg6
S'Thailand to charge plane crew over North Korean arms'
p1307
sa(dp1308
g2
S'http://www.reuters.com/article/managementIssues/idUSLDE5BC05S20091213'
p1309
sg4
S'20091213\xc2\xa05:49AM UTC'
p1310
sg6
S'Volcker finds British bonus tax "interesting"-paper'
p1311
sa(dp1312
g2
S'http://www.reuters.com/article/latestCrisis/idUSTOE5BC027'
p1313
sg4
S'20091213\xc2\xa05:49AM UTC'
p1314
sg6
S'Thailand to charge plane crew over N.Korean arms'
p1315
sa(dp1316
g2
S'http://www.reuters.com/article/latestCrisis/idUSTOE5BC024'
p1317
sg4
S'20091213\xc2\xa05:44AM UTC'
p1318
sg6
S'INTERVIEW-Malaysia PM to offer CO2 reductions in Copenhagen'
p1319
sa(dp1320
g2
S'http://www.reuters.com/article/rbssWirelessTelecommunicationServices/idUSLR68420091213'
p1321
sg4
S'20091213\xc2\xa05:44AM UTC'
p1322
sg6
S'DIARY - Egypt/Sudan - Dec 13'
p1323
sa(dp1324
g2
S'http://www.reuters.com/article/latestCrisis/idUSTOE5BC022'
p1325
sg4
S'20091213\xc2\xa05:37AM UTC'
p1326
sg6
S'Philippines hostage crisis ends, victims freed'
p1327
sa(dp1328
g2
S'http://www.reuters.com/article/sportsNews/idUSTRE5BC0KE20091213'
p1329
sg4
S'20091213\xc2\xa05:34AM UTC'
p1330
sg6
S"Hirscher sets pace in men's giant slalom"
p1331
sa(dp1332
g2
S'http://www.reuters.com/article/olympicsNews/idUSLDE5BC04W20091213'
p1333
sg4
S'20091213\xc2\xa05:34AM UTC'
p1334
sg6
S"Alpine skiing-Hirscher sets pace in men's giant slalom"
p1335
sa(dp1336
g2
S'http://www.reuters.com/article/newsMaps/idUSTRE5BC0H420091213'
p1337
sg4
S'20091213\xc2\xa05:33AM UTC'
p1338
sg6
S'Leader of rebel Abkhazia wins second term'
p1339
sa(dp1340
g2
S'http://www.reuters.com/article/homepageCrisis/idUSLDE5BC05Y._CH_.2400'
p1341
sg4
S'20091213\xc2\xa05:32AM UTC'
p1342
sg6
S'Leader of rebel Abkhazia wins second term'
p1343
sa(dp1344
g2
S'http://www.reuters.com/article/latestCrisis/idUSLDE5BC05Y'
p1345
sg4
S'20091213\xc2\xa05:32AM UTC'
p1346
sg6
S'Leader of rebel Abkhazia wins second term'
p1347
sa(dp1348
g2
S'http://www.reuters.com/article/pressRelease/idUS26885+13-Dec-2009+PRN20091213'
p1349
sg4
S'20091213\xc2\xa05:30AM UTC'
p1350
sg6
S'Following Is a Test Release'
p1351
sa(dp1352
g2
S'http://www.reuters.com/article/GCA-Oil/idUSTRE5BB18Q20091213'
p1353
sg4
S'20091213\xc2\xa05:19AM UTC'
p1354
sg6
S'No boon for U.S. firms in Iraq oil deal auction'
p1355
sa(dp1356
g2
S'http://www.reuters.com/article/hotStocksNews/idUSLDE5BC05520091213'
p1357
sg4
S'20091213\xc2\xa05:09AM UTC'
p1358
sg6
S'Saab says confident of finding buyer'
p1359
sa(dp1360
g2
S'http://www.reuters.com/article/latestCrisis/idUSLDE5BC05J'
p1361
sg4
S'20091213\xc2\xa05:07AM UTC'
p1362
sg6
S'Sudan leaders reach deal on disputed reforms - SPLM'
p1363
sa(dp1364
g2
S'http://www.reuters.com/article/pressRelease/idUS24936+13-Dec-2009+PRN20091213'
p1365
sg4
S'20091213\xc2\xa05:00AM UTC'
p1366
sg6
S'Following Is a Test Release'
p1367
sa(dp1368
g2
S'http://www.reuters.com/article/companyNewsAndPR/idUSLDE5BC04U20091213'
p1369
sg4
S'20091213\xc2\xa04:57AM UTC'
p1370
sg6
S"China's BAIC inks deal for some Saab assets-WSJ"
p1371
sa(dp1372
g2
S'http://www.reuters.com/article/hotStocksNews/idUSTOE5BC01H20091213'
p1373
sg4
S'20091213\xc2\xa04:55AM UTC'
p1374
sg6
S'Philippine hostage crisis ends, victims freed'
p1375
sa(dp1376
g2
S'http://www.reuters.com/article/latestCrisis/idUSTOE5BC01H'
p1377
sg4
S'20091213\xc2\xa04:55AM UTC'
p1378
sg6
S'Philippine hostage crisis ends, victims freed'
p1379
sa(dp1380
g2
S'http://www.reuters.com/article/GCA-Iran/idUSTRE5BC07T20091213'
p1381
sg4
S'20091213\xc2\xa04:52AM UTC'
p1382
sg6
S'Iran opposition warns of action against reformers'
p1383
sa(dp1384
g2
S'http://www.reuters.com/article/latestCrisis/idUSLDE5BC02B'
p1385
sg4
S'20091213\xc2\xa04:50AM UTC'
p1386
sg6
S'Leader of rebel Abkhazia wins second term - results'
p1387
sa(dp1388
g2
S'http://www.reuters.com/article/telcommunicationsServicesSector/idUSLDE5BC04Q20091213'
p1389
sg4
S'20091213\xc2\xa04:41AM UTC'
p1390
sg6
S'UPDATE 1-Egypt Orascom Telecom to seek $800 mln rights issue'
p1391
sa(dp1392
g2
S'http://www.reuters.com/article/worldNews/idUSTRE5BC0EF20091213'
p1393
sg4
S'20091213\xc2\xa04:41AM UTC'
p1394
sg6
S'Brown in Afghanistan, seeks to fix rift with Karzai'
p1395
sa(dp1396
g2
S'http://www.reuters.com/article/GCA-Oil/idUSTRE5BC0G120091213'
p1397
sg4
S'20091213\xc2\xa04:37AM UTC'
p1398
sg6
S"Kuwait's ruler says oil prices, demand good for now: report"
p1399
sa(dp1400
g2
S'http://www.reuters.com/article/euDealsNews/idUSTRE5BC0FW20091213'
p1401
sg4
S'20091213\xc2\xa04:35AM UTC'
p1402
sg6
S"Apax signs deal to buy control of Israel's Psagot"
p1403
sa(dp1404
g2
S'http://www.reuters.com/article/pressRelease/idUS23165+13-Dec-2009+PRN20091213'
p1405
sg4
S'20091213\xc2\xa04:30AM UTC'
p1406
sg6
S'Following Is a Test Release'
p1407
sa(dp1408
g2
S'http://www.reuters.com/article/sportsNews/idUSTRE5BC0EZ20091213'
p1409
sg4
S'20091213\xc2\xa04:28AM UTC'
p1410
sg6
S'Miller out of giant slalom with injury'
p1411
sa(dp1412
g2
S'http://www.reuters.com/article/olympicsNews/idUSLDE5BC03D20091213'
p1413
sg4
S'20091213\xc2\xa04:27AM UTC'
p1414
sg6
S'UPDATE 1-Alpine skiing-Miller out of giant slalom with injury'
p1415
sa(dp1416
g2
S'http://www.reuters.com/article/pressRelease/idUS21533+13-Dec-2009+PRN20091213'
p1417
sg4
S'20091213\xc2\xa04:00AM UTC'
p1418
sg6
S'Following Is a Test Release'
p1419
sa(dp1420
g2
S'http://www.reuters.com/article/hotStocksNews/idUSLDE5BC03B20091213'
p1421
sg4
S'20091213\xc2\xa03:51AM UTC'
p1422
sg6
S'Egypt Orascom Telecom to seek $800 mln rights issue'
p1423
sa(dp1424
g2
S'http://www.reuters.com/article/hotStocksNews/idUSLDE5BC03220091213'
p1425
sg4
S'20091213\xc2\xa03:35AM UTC'
p1426
sg6
S'Kuwait says has alternatives for China refinery- oil min'
p1427
sa(dp1428
g2
S'http://www.reuters.com/article/worldNews/idUSTRE5BC0EK20091213'
p1429
sg4
S'20091213\xc2\xa03:35AM UTC'
p1430
sg6
S'Sudan leaders "make progress" in reform row talks'
p1431
sa(dp1432
g2
S'http://www.reuters.com/article/latestCrisis/idUSLDE5BC03F'
p1433
sg4
S'20091213\xc2\xa03:32AM UTC'
p1434
sg6
S'Sudan leaders "make progress" in reform row talks'
p1435
sa(dp1436
g2
S'http://www.reuters.com/article/hotStocksNews/idUSTOE5BC01I20091213'
p1437
sg4
S'20091213\xc2\xa03:31AM UTC'
p1438
sg6
S"UK's Brown in Afghanistan, meets Karzai after spat"
p1439
sa(dp1440
g2
S'http://www.reuters.com/article/latestCrisis/idUSTOE5BC01I'
p1441
sg4
S'20091213\xc2\xa03:31AM UTC'
p1442
sg6
S"UK's Brown in Afghanistan, meets Karzai after spat"
p1443
sa(dp1444
g2
S'http://www.reuters.com/article/pressRelease/idUS19959+13-Dec-2009+PRN20091213'
p1445
sg4
S'20091213\xc2\xa03:30AM UTC'
p1446
sg6
S'Following Is a Test Release'
p1447
sa(dp1448
g2
S'http://www.reuters.com/article/newsOne/idUSTRE5BC0CO20091213'
p1449
sg4
S'20091213\xc2\xa03:19AM UTC'
p1450
sg6
S'North Korea, U.S. agree to resume peace talks: report'
p1451
sa(dp1452
g2
S'http://www.reuters.com/article/gc08/idUSTRE5BC0DQ20091213'
p1453
sg4
S'20091213\xc2\xa03:09AM UTC'
p1454
sg6
S'Iran Guards condemn "insult" to religious leaders'
p1455
sa(dp1456
g2
S'http://www.reuters.com/article/hotStocksNews/idUSDAH32830620091213'
p1457
sg4
S'20091213\xc2\xa03:08AM UTC'
p1458
sg6
S'Iran Guards condemn "insult" to religious leaders'
p1459
sa(dp1460
g2
S'http://www.reuters.com/article/GCA-Oil/idUSTRE5BC0DJ20091213'
p1461
sg4
S'20091213\xc2\xa03:02AM UTC'
p1462
sg6
S'Iran to start drilling for oil in Caspian Sea: report'
p1463
sa(dp1464
g2
S'http://www.reuters.com/article/gc05/idUSTRE5BC0D320091213'
p1465
sg4
S'20091213\xc2\xa03:00AM UTC'
p1466
sg6
S'Pakistan kills about 22 militants, eyes new fronts'
p1467
sa(dp1468
g2
S'http://www.reuters.com/article/pressRelease/idUS18369+13-Dec-2009+PRN20091213'
p1469
sg4
S'20091213\xc2\xa03:00AM UTC'
p1470
sg6
S'Following Is a Test Release'
p1471
sa(dp1472
g2
S'http://www.reuters.com/article/homepageCrisis/idUSTOE5BC014._CH_.2400'
p1473
sg4
S'20091213\xc2\xa02:57AM UTC'
p1474
sg6
S'Pakistan kills about 22 militants, eyes new fronts'
p1475
sa(dp1476
g2
S'http://www.reuters.com/article/latestCrisis/idUSTOE5BC014'
p1477
sg4
S'20091213\xc2\xa02:57AM UTC'
p1478
sg6
S'Pakistan kills about 22 militants, eyes new fronts'
p1479
sa(dp1480
g2
S'http://www.reuters.com/article/GCA-Oil/idUSTRE5BC0CH20091213'
p1481
sg4
S'20091213\xc2\xa02:48AM UTC'
p1482
sg6
S'Kuwait sees no OPEC policy change after price drop'
p1483
sa(dp1484
g2
S'http://www.reuters.com/article/environmentNews/idUSTRE5BC06X20091213'
p1485
sg4
S'20091213\xc2\xa02:40AM UTC'
p1486
sg6
S"Amazon projects undercut Brazil's new green path"
p1487
sa(dp1488
g2
S'http://www.reuters.com/article/reutersComService_2_MOLT/idUSTRE5BC0BM20091213'
p1489
sg4
S'20091213\xc2\xa02:35AM UTC'
p1490
sg6
S'China demotes editor after Obama interview: sources'
p1491
sa(dp1492
g2
S'http://www.reuters.com/article/latestCrisis/idUSSAL322094'
p1493
sg4
S'20091213\xc2\xa02:35AM UTC'
p1494
sg6
S'PRESS DIGEST - Iran - Dec 13'
p1495
sa(dp1496
g2
S'http://www.reuters.com/article/pressRelease/idUS17668+13-Dec-2009+PRN20091213'
p1497
sg4
S'20091213\xc2\xa02:30AM UTC'
p1498
sg6
S'Following Is a Test Release'
p1499
sa(dp1500
g2
S'http://www.reuters.com/article/mediaNews/idUSTOE5BC00K20091213'
p1501
sg4
S'20091213\xc2\xa02:28AM UTC'
p1502
sg6
S'China demotes editor after Obama interview-sources'
p1503
sa(dp1504
g2
S'http://www.reuters.com/article/sportsNews/idUSTRE5BC08N20091213'
p1505
sg4
S'20091213\xc2\xa02:26AM UTC'
p1506
sg6
S'Allenby storms to fourth Australian PGA title'
p1507
sa(dp1508
g2
S'http://www.reuters.com/article/pressRelease/idUS16994+13-Dec-2009+PRN20091213'
p1509
sg4
S'20091213\xc2\xa02:00AM UTC'
p1510
sg6
S'Following Is a Test Release'
p1511
sa(dp1512
g2
S'http://www.reuters.com/article/sportsNews/idUSTRE5BC0AM20091213'
p1513
sg4
S'20091213\xc2\xa01:56AM UTC'
p1514
sg6
S'Padres sign Correia to one-year deal'
p1515
sa(dp1516
g2
S'http://www.reuters.com/article/hotStocksNews/idUSLC46002920091213'
p1517
sg4
S'20091213\xc2\xa01:47AM UTC'
p1518
sg6
S'Orascom Telecom head says will not sell Mobinil stake'
p1519
sa(dp1520
g2
S'http://www.reuters.com/article/latestCrisis/idUSTOE5BC003'
p1521
sg4
S'20091213\xc2\xa01:44AM UTC'
p1522
sg6
S'Thailand to charge plane crew over N.Korean arms'
p1523
sa(dp1524
g2
S'http://www.reuters.com/article/sportsNews/idUSTRE5BC05C20091213'
p1525
sg4
S'20091213\xc2\xa01:37AM UTC'
p1526
sg6
S'Celtics trample Bulls for 10th straight win'
p1527
sa(dp1528
g2
S'http://www.reuters.com/article/GCA-Afghanistan-Pakistan/idUSTRE5BC09V20091213'
p1529
sg4
S'20091213\xc2\xa01:34AM UTC'
p1530
sg6
S'Germany sees no majority for more troops to Afghanistan alone'
p1531
sa(dp1532
g2
S'http://www.reuters.com/article/pressRelease/idUS16568+13-Dec-2009+PRN20091213'
p1533
sg4
S'20091213\xc2\xa01:30AM UTC'
p1534
sg6
S'Following Is a Test Release'
p1535
sa(dp1536
g2
S'http://www.reuters.com/article/latestCrisis/idUSKAM321664'
p1537
sg4
S'20091213\xc2\xa01:29AM UTC'
p1538
sg6
S'FACTBOX-Security developments in Iraq, Dec 13'
p1539
sa(dp1540
g2
S'http://www.reuters.com/article/sportsNews/idUSTRE5BC09220091213'
p1541
sg4
S'20091213\xc2\xa01:24AM UTC'
p1542
sg6
S'Wang becomes free agent after Yankees decline contract'
p1543
sa(dp1544
g2
S'http://www.reuters.com/article/worldNews/idUSTRE5BC08820091213'
p1545
sg4
S'20091213\xc2\xa01:18AM UTC'
p1546
sg6
S'Jewish settler woman stabbed in West Bank'
p1547
sa(dp1548
g2
S'http://www.reuters.com/article/worldNews/idUSTRE5BC07E20091213'
p1549
sg4
S'20091213\xc2\xa01:12AM UTC'
p1550
sg6
S'Billionaire favored in Chile vote but run-off seen'
p1551
sa(dp1552
g2
S'http://www.reuters.com/article/latestCrisis/idUSLDE5BC01B'
p1553
sg4
S'20091213\xc2\xa01:12AM UTC'
p1554
sg6
S'Jewish settler woman stabbed in West Bank'
p1555
sa(dp1556
g2
S'http://www.reuters.com/article/hotStocksNews/idUSDAH32064220091213'
p1557
sg4
S'20091213\xc2\xa01:06AM UTC'
p1558
sg6
S'Iran opposition warns of action against reformers'
p1559
sa(dp1560
g2
S'http://www.reuters.com/article/latestCrisis/idUSN07122979'
p1561
sg4
S'20091213\xc2\xa01:00AM UTC'
p1562
sg6
S"SPECIAL REPORT-Amazon projects undercut Brazil's new green path"
p1563
sa(dp1564
g2
S'http://www.reuters.com/article/companyNewsAndPR/idUSN1215609720091213'
p1565
sg4
S'20091213\xc2\xa01:00AM UTC'
p1566
sg6
S'Billionaire favored in Chile vote but run-off seen'
p1567
sa(dp1568
g2
S'http://www.reuters.com/article/pressRelease/idUS16038+13-Dec-2009+PRN20091213'
p1569
sg4
S'20091213\xc2\xa01:00AM UTC'
p1570
sg6
S'Green Day, MTV Games, Harmonix and Warner Bros./Reprise Records Announce Green Day: Rock Band(TM)'
p1571
sa(dp1572
g2
S'http://www.reuters.com/article/pressRelease/idUS16039+13-Dec-2009+PRN20091213'
p1573
sg4
S'20091213\xc2\xa01:00AM UTC'
p1574
sg6
S'Following Is a Test Release'
p1575
sa(dp1576
g2
S'http://www.reuters.com/article/worldNews/idUSTRE5BC06I20091213'
p1577
sg4
S'20091213\xc2\xa012:35AM UTC'
p1578
sg6
S'Gunmen storm jail, free 31 prisoners in Philippines'
p1579
sa(dp1580
g2
S'http://www.reuters.com/article/latestCrisis/idUSTOE5BC00B'
p1581
sg4
S'20091213\xc2\xa012:33AM UTC'
p1582
sg6
S'Gunmen storm jail, free 31 prisoners in Philippines'
p1583
sa(dp1584
g2
S'http://www.reuters.com/article/pressRelease/idUS15559+13-Dec-2009+PRN20091213'
p1585
sg4
S'20091213\xc2\xa012:30AM UTC'
p1586
sg6
S'Following Is a Test Release'
p1587
sa(dp1588
g2
S'http://www.reuters.com/article/olympicsNews/idUSB5912420091213'
p1589
sg4
S'20091213\xc2\xa012:28AM UTC'
p1590
sg6
S'Curling-Bernard last-rock heroics earn Olympic spot'
p1591
sa(dp1592
g2
S'http://www.reuters.com/article/sportsNews/idUSTRE5BC04G20091213'
p1593
sg4
S'20091213\xc2\xa012:16AM UTC'
p1594
sg6
S'Elias and Bergfors power Devils past Flyers'
p1595
sa(dp1596
g2
S'http://www.reuters.com/article/pressRelease/idUS15189+13-Dec-2009+PRN20091213'
p1597
sg4
S'20091213\xc2\xa012:05AM UTC'
p1598
sg6
S"Spike TV Announces 2009 'Video Game Awards' Winners"
p1599
sa(dp1600
g2
S'http://www.reuters.com/article/pressRelease/idUS15129+13-Dec-2009+PRN20091213'
p1601
sg4
S'20091213\xc2\xa012:01AM UTC'
p1602
sg6
S'U.S. Census Bureau Daily Feature for December 13'
p1603
sa(dp1604
g2
S'http://www.reuters.com/article/pressRelease/idUS15114+13-Dec-2009+PRN20091213'
p1605
sg4
S'20091213\xc2\xa012:00AM UTC'
p1606
sg6
S'Following Is a Test Release'
p1607
sa(dp1608
g2
S'http://www.reuters.com/news/video/videoStory?storyID=WAO1260319163892'
p1609
sg4
S'20091213\xc2\xa011:01PM UTC'
p1610
sg6
S'\xe3\x83\x99\xe3\x83\xab\xe3\x83\xab\xe3\x82\xb9\xe3\x82\xb3\xe3\x83\xbc\xe3\x83\x8b\xe4\xbc\x8a\xe9\xa6\x96\xe7\x9b\xb8\xe3\x81\x8c\xe9\x9b\x86\xe4\xbc\x9a\xe3\x81\xa7\xe8\xa5\xb2\xe3\x82\x8f\xe3\x82\x8c\xe3\x82\x8b\xef\xbc\x8814\xe6\x97\xa5\xef\xbc\x89'
p1611
sa(dp1612
g2
S'http://www.reuters.com/news/video/videoStory?storyID=RCDOVE5BDHLL1'
p1613
sg4
S'20091213\xc2\xa07:53PM UTC'
p1614
sg6
S"Tiger Woods' caddy defends golf star"
p1615
sa(dp1616
g2
S'http://www.reuters.com/news/video/videoStory?storyID=RCDOVE5BCVSO1'
p1617
sg4
S'20091213\xc2\xa06:08PM UTC'
p1618
sg6
S'Disney\'s "Princess" tops box office'
p1619
sa(dp1620
g2
S'http://www.reuters.com/news/video/videoStory?storyID=RCDOVE5BCUEV1'
p1621
sg4
S'20091213\xc2\xa05:08PM UTC'
p1622
sg6
S'Berlusconi attacked'
p1623
sa(dp1624
g2
S'http://www.reuters.com/news/video/videoStory?storyID=RCDOVE5BCRY71'
p1625
sg4
S'20091213\xc2\xa03:18PM UTC'
p1626
sg6
S'Hostage crisis ends in Philippines'
p1627
sa(dp1628
g2
S'http://www.reuters.com/news/video/videoStory?storyID=RCDOVE5BCQ701'
p1629
sg4
S'20091213\xc2\xa02:08PM UTC'
p1630
sg6
S'Taxi driver lives American dream'
p1631
sa(dp1632
g2
S'http://www.reuters.com/news/video/videoStory?storyID=RCDOVE5BCPXD2'
p1633
sg4
S'20091213\xc2\xa02:03PM UTC'
p1634
sg6
S"Ghana's first female pilot"
p1635
sa(dp1636
g2
S'http://www.reuters.com/news/video/videoStory?storyID=WAO1260319163934'
p1637
sg4
S'20091213\xc2\xa01:48PM UTC'
p1638
sg6
S'Desmond Tutu calls for climate curbs'
p1639
sa(dp1640
g2
S'http://www.reuters.com/news/video/videoStory?storyID=RCDOVE5BCPJO1'
p1641
sg4
S'20091213\xc2\xa01:48PM UTC'
p1642
sg6
S'Desmond Tutu calls for climate curbs'
p1643
sa(dp1644
g2
S'http://www.reuters.com/news/video/videoStory?storyID=RCDOVE5BCP361'
p1645
sg4
S'20091213\xc2\xa01:23PM UTC'
p1646
sg6
S'Police use water cannons on Kurds'
p1647
sa(dp1648
g2
S'http://www.reuters.com/news/video/videoStory?storyID=RCDOVE5BCNEU1'
p1649
sg4
S'20091213\xc2\xa012:08PM UTC'
p1650
sg6
S"Living in China's coal heartland"
p1651
sa(dp1652
g2
S'http://www.reuters.com/news/video/videoStory?storyID=RCDOVE5BCMGD1'
p1653
sg4
S'20091213\xc2\xa011:23AM UTC'
p1654
sg6
S'Art festival in Bethlehem'
p1655
sa(dp1656
g2
S'http://www.reuters.com/news/video/videoStory?storyID=RCDOVE5BCL9V1'
p1657
sg4
S'20091213\xc2\xa010:48AM UTC'
p1658
sg6
S"Ivory Coast's long-awaited election"
p1659
sa(dp1660
g2
S'http://www.reuters.com/news/video/videoStory?storyID=RCDOVE5BCLCB1'
p1661
sg4
S'20091213\xc2\xa010:38AM UTC'
p1662
sg6
S'Historic train rides again'
p1663
sa(dp1664
g2
S'http://www.reuters.com/news/video/videoStory?storyID=RCDOVE5BCI9J1'
p1665
sg4
S'20091213\xc2\xa08:28AM UTC'
p1666
sg6
S'Mugabe gets five more years'
p1667
sa(dp1668
g2
S'http://www.reuters.com/news/video/videoStory?storyID=RCDOVE5BCG131'
p1669
sg4
S'20091213\xc2\xa06:43AM UTC'
p1670
sg6
S'Pandas go on display in Australia'
p1671
sa.