(lp0
(dp1
S'href'
p2
S'http://www.reuters.com/article/musicNews/idUSTRE53I05Q20090419'
p3
sS'ts'
p4
S'20090418\xc2\xa011:52 PM EDT'
p5
sS'title'
p6
S'Madonna suffers minor injuries in fall from horse'
p7
sa(dp8
g2
S'http://www.reuters.com/article/rbssConsumerElectronics/idUSSEO33673920090419'
p9
sg4
S'20090418\xc2\xa011:40 PM EDT'
p10
sg6
S'UPDATE 1-Samsung display unit sees robust smartphone growth'
p11
sa(dp12
g2
S'http://www.reuters.com/article/pressRelease/idUS14552+19-Apr-2009+PRN20090419'
p13
sg4
S'20090418\xc2\xa011:30 PM EDT'
p14
sg6
S'Following Is a Test Release'
p15
sa(dp16
g2
S'http://www.reuters.com/article/rbssSteel/idUST34018220090419'
p17
sg4
S'20090418\xc2\xa011:29 PM EDT'
p18
sg6
S'Nippon Steel pretax profit seen down 43 pct-Nikkei'
p19
sa(dp20
g2
S'http://www.reuters.com/article/pressRelease/idUS14068+19-Apr-2009+PRN20090419'
p21
sg4
S'20090418\xc2\xa011:00 PM EDT'
p22
sg6
S'Following Is a Test Release'
p23
sa(dp24
g2
S'http://www.reuters.com/article/GCA-CreditCrisis/idUSTRE53I02M20090419'
p25
sg4
S'20090418\xc2\xa010:49 PM EDT'
p26
sg6
S'Geithner sees no new banking crisis: report'
p27
sa(dp28
g2
S'http://www.reuters.com/article/rbssConsumerElectronics/idUSSEO33267820090419'
p29
sg4
S'20090418\xc2\xa010:45 PM EDT'
p30
sg6
S'Samsung display unit sees robust smartphone growth'
p31
sa(dp32
g2
S'http://www.reuters.com/article/CARMFG/idUSBJB00060220090419'
p33
sg4
S'20090418\xc2\xa010:41 PM EDT'
p34
sg6
S"China's Changan Auto to invest 20 bln yuan for engine base"
p35
sa(dp36
g2
S'http://www.reuters.com/article/usDollarRpt/idUST36012920090419'
p37
sg4
S'20090418\xc2\xa010:39 PM EDT'
p38
sg6
S'U.S. Geithner sees no new banking crisis -newspaper'
p39
sa(dp40
g2
S'http://www.reuters.com/article/rbssAutoTruckManufacturers/idUST2394820090419'
p41
sg4
S'20090418\xc2\xa010:34 PM EDT'
p42
sg6
S"China's Changan Auto to invest 20 bln yuan for engine base"
p43
sa(dp44
g2
S'http://www.reuters.com/article/pressRelease/idUS13229+19-Apr-2009+PRN20090419'
p45
sg4
S'20090418\xc2\xa010:30 PM EDT'
p46
sg6
S'Following Is a Test Release'
p47
sa(dp48
g2
S'http://www.reuters.com/article/pressRelease/idUS12621+19-Apr-2009+PRN20090419'
p49
sg4
S'20090418\xc2\xa010:00 PM EDT'
p50
sg6
S'Following Is a Test Release'
p51
sa(dp52
g2
S'http://www.reuters.com/article/pressRelease/idUS12077+19-Apr-2009+PRN20090419'
p53
sg4
S'20090418\xc2\xa009:32 PM EDT'
p54
sg6
S'Keanu Reeves Wins Celebrity Category of 2009 Toyota Pro/Celebrity Race'
p55
sa(dp56
g2
S'http://www.reuters.com/article/pressRelease/idUS12023+19-Apr-2009+PRN20090419'
p57
sg4
S'20090418\xc2\xa009:30 PM EDT'
p58
sg6
S'Following Is a Test Release'
p59
sa(dp60
g2
S'http://www.reuters.com/article/pressRelease/idUS11857+19-Apr-2009+PRN20090419'
p61
sg4
S'20090418\xc2\xa009:21 PM EDT'
p62
sg6
S'An Online Green MBA That Practices What It Teaches'
p63
sa(dp64
g2
S'http://www.reuters.com/article/pressRelease/idUS11416+19-Apr-2009+PRN20090419'
p65
sg4
S'20090418\xc2\xa009:00 PM EDT'
p66
sg6
S'Following Is a Test Release'
p67
sa(dp68
g2
S'http://www.reuters.com/article/pressRelease/idUS11117+19-Apr-2009+PRN20090419'
p69
sg4
S'20090418\xc2\xa008:45 PM EDT'
p70
sg6
S'AJC Applauds U.S. Decision to Not Attend Durban Review Conference'
p71
sa(dp72
g2
S'http://www.reuters.com/article/pressRelease/idUS10761+19-Apr-2009+PRN20090419'
p73
sg4
S'20090418\xc2\xa008:30 PM EDT'
p74
sg6
S'Following Is a Test Release'
p75
sa(dp76
g2
S'http://www.reuters.com/article/GCA-BarackObama/idUSTRE53H2FN20090419'
p77
sg4
S'20090418\xc2\xa008:19 PM EDT'
p78
sg6
S'Chavez proposes U.S. envoy in move to mend ties'
p79
sa(dp80
g2
S'http://www.reuters.com/article/politicsNews/idUSTRE53I00720090419'
p81
sg4
S'20090418\xc2\xa008:18 PM EDT'
p82
sg6
S'Chavez proposes U.S. envoy in move to mend ties'
p83
sa(dp84
g2
S'http://www.reuters.com/article/politicsNews/idUSTRE53H24720090419'
p85
sg4
S'20090418\xc2\xa008:01 PM EDT'
p86
sg6
S'U.S. says will not attend U.N. conference on racism'
p87
sa(dp88
g2
S'http://www.reuters.com/article/pressRelease/idUS10014+19-Apr-2009+PRN20090419'
p89
sg4
S'20090418\xc2\xa008:00 PM EDT'
p90
sg6
S'Following Is a Test Release'
p91
sa(dp92
g2
S'http://www.reuters.com/article/politicsNews/idUSTRE53H1M120090418'
p93
sg4
S'20090418\xc2\xa007:59 PM EDT'
p94
sg6
S'U.S. will boycott U.N. conference on racism'
p95
sa(dp96
g2
S'http://www.reuters.com/article/etfNews/idUSSNAPSHOT20090418'
p97
sg4
S'20090418\xc2\xa007:40 PM EDT'
p98
sg6
S'SNAPSHOT - Financial Crisis - 2340 GMT'
p99
sa(dp100
g2
S'http://www.reuters.com/article/globalNews/idUSTRE53F58G20090418'
p101
sg4
S'20090418\xc2\xa007:35 PM EDT'
p102
sg6
S'Obama wins praise at summit but feels heat on Cuba'
p103
sa(dp104
g2
S'http://www.reuters.com/article/globalNews/idUSTRE53H2FN20090418'
p105
sg4
S'20090418\xc2\xa007:35 PM EDT'
p106
sg6
S'Chavez proposes US envoy in move to mend ties'
p107
sa(dp108
g2
S'http://www.reuters.com/article/pressRelease/idUS75052+18-Apr-2009+PRN20090418'
p109
sg4
S'20090418\xc2\xa007:30 PM EDT'
p110
sg6
S'Following Is a Test Release'
p111
sa(dp112
g2
S'http://www.reuters.com/article/worldNews/idUSTRE53H22T20090418'
p113
sg4
S'20090418\xc2\xa007:22 PM EDT'
p114
sg6
S'France arrests ETA military chief'
p115
sa(dp116
g2
S'http://www.reuters.com/article/worldNews/idUSTRE53H23S20090418'
p117
sg4
S'20090418\xc2\xa007:22 PM EDT'
p118
sg6
S'FACTBOX: Key facts about Basque separatist group ETA'
p119
sa(dp120
g2
S'http://www.reuters.com/article/pressRelease/idUS74546+18-Apr-2009+PRN20090418'
p121
sg4
S'20090418\xc2\xa007:00 PM EDT'
p122
sg6
S'Following Is a Test Release'
p123
sa(dp124
g2
S'http://www.reuters.com/article/pressRelease/idUS74536+18-Apr-2009+BW20090418'
p125
sg4
S'20090418\xc2\xa007:00 PM EDT'
p126
sg6
S'Image Entertainment Terminates Merger Agreement with Nyx'
p127
sa(dp128
g2
S'http://www.reuters.com/article/sportsNews/idUSTRE53H22K20090418'
p129
sg4
S'20090418\xc2\xa006:48 PM EDT'
p130
sg6
S'Rose blooms as Bulls upset champions Celtics'
p131
sa(dp132
g2
S'http://www.reuters.com/article/pressRelease/idUS74017+18-Apr-2009+PRN20090418'
p133
sg4
S'20090418\xc2\xa006:30 PM EDT'
p134
sg6
S'Following Is a Test Release'
p135
sa(dp136
g2
S'http://www.reuters.com/article/sportsNews/idUSTRE53H2C120090418'
p137
sg4
S'20090418\xc2\xa006:30 PM EDT'
p138
sg6
S'American Gay takes three-shot lead at Harbour Town'
p139
sa(dp140
g2
S'http://www.reuters.com/article/GCA-BarackObama/idUSTRE53H2BE20090418'
p141
sg4
S'20090418\xc2\xa006:28 PM EDT'
p142
sg6
S'Obama urges Caribbean tax havens to be transparent'
p143
sa(dp144
g2
S'http://www.reuters.com/article/pressReleasesMolt/idUSN1626307520090418'
p145
sg4
S'20090418\xc2\xa006:18 PM EDT'
p146
sg6
S'Fed officials suggest worst of recession is over'
p147
sa(dp148
g2
S'http://www.reuters.com/article/sportsNews/idUSTRE53H24R20090418'
p149
sg4
S'20090418\xc2\xa006:17 PM EDT'
p150
sg6
S'Lundqvist sparkles as Rangers blank the Capitals'
p151
sa(dp152
g2
S'http://www.reuters.com/article/sportsNews/idUSTRE53H29820090418'
p153
sg4
S'20090418\xc2\xa006:13 PM EDT'
p154
sg6
S'Teenagers Wozniacki and Lisicki reach final'
p155
sa(dp156
g2
S'http://www.reuters.com/article/newsMaps/idUSTRE53H28V20090418'
p157
sg4
S'20090418\xc2\xa006:09 PM EDT'
p158
sg6
S'Britain sends envoy to UN over Sri Lanka'
p159
sa(dp160
g2
S'http://www.reuters.com/article/latestCrisis/idUSLI274546'
p161
sg4
S'20090418\xc2\xa006:04 PM EDT'
p162
sg6
S'Britain sends envoy to UN over Sri Lanka'
p163
sa(dp164
g2
S'http://www.reuters.com/article/homepageCrisis/idUSLI274546._CH_.2400'
p165
sg4
S'20090418\xc2\xa006:04 PM EDT'
p166
sg6
S'Britain sends envoy to UN over Sri Lanka'
p167
sa(dp168
g2
S'http://www.reuters.com/article/pressRelease/idUS73326+18-Apr-2009+PRN20090418'
p169
sg4
S'20090418\xc2\xa006:01 PM EDT'
p170
sg6
S'Getting Closer to Controlling Cancer Requires Funding More Laboratories and Commitment...'
p171
sa(dp172
g2
S'http://www.reuters.com/article/pressRelease/idUS73285+18-Apr-2009+PRN20090418'
p173
sg4
S'20090418\xc2\xa006:00 PM EDT'
p174
sg6
S'Following Is a Test Release'
p175
sa(dp176
g2
S'http://www.reuters.com/article/GCA-Cuba/idUSTRE53H27R20090418'
p177
sg4
S'20090418\xc2\xa005:54 PM EDT'
p178
sg6
S'U.S. hopes to make progress on Colombia trade pact'
p179
sa(dp180
g2
S'http://www.reuters.com/article/companyNewsAndPR/idUSN1827075120090418'
p181
sg4
S'20090418\xc2\xa005:52 PM EDT'
p182
sg6
S'WRAPUP 2-U.S. officials suggest worst of recession is over'
p183
sa(dp184
g2
S'http://www.reuters.com/article/latestCrisis/idUSN18326736'
p185
sg4
S'20090418\xc2\xa005:51 PM EDT'
p186
sg6
S'US hopes to make progress on Colombia trade pact'
p187
sa(dp188
g2
S'http://www.reuters.com/article/pressRelease/idUS72618+18-Apr-2009+PRN20090418'
p189
sg4
S'20090418\xc2\xa005:38 PM EDT'
p190
sg6
S'AbitibiBowater receives court orders in the United States and Canada'
p191
sa(dp192
g2
S'http://www.reuters.com/article/pressRelease/idUS72323+18-Apr-2009+PRN20090418'
p193
sg4
S'20090418\xc2\xa005:30 PM EDT'
p194
sg6
S'Following Is a Test Release'
p195
sa(dp196
g2
S'http://www.reuters.com/article/GCA-Housing/idUSTRE53H26420090418'
p197
sg4
S'20090418\xc2\xa005:28 PM EDT'
p198
sg6
S"Fed's Lockhart: commercial property woes pose risk"
p199
sa(dp200
g2
S'http://www.reuters.com/article/companyNewsAndPR/idUSNAT00488420090418'
p201
sg4
S'20090418\xc2\xa005:27 PM EDT'
p202
sg6
S"Fed's Lockhart: commercial property woes pose risk"
p203
sa(dp204
g2
S'http://www.reuters.com/article/GCA-Housing/idUSTRE53H25020090418'
p205
sg4
S'20090418\xc2\xa005:07 PM EDT'
p206
sg6
S'U.S. housing sales near bottom: Freddie Mac official'
p207
sa(dp208
g2
S'http://www.reuters.com/article/companyNewsAndPR/idUSNAT00488320090418'
p209
sg4
S'20090418\xc2\xa005:06 PM EDT'
p210
sg6
S'US housing sales near bottom -Freddie Mac official'
p211
sa(dp212
g2
S'http://www.reuters.com/article/pressRelease/idUS71374+18-Apr-2009+PRN20090418'
p213
sg4
S'20090418\xc2\xa005:00 PM EDT'
p214
sg6
S'Following Is a Test Release'
p215
sa(dp216
g2
S'http://www.reuters.com/article/topNews/idUSTRE53H24720090418'
p217
sg4
S'20090418\xc2\xa004:48 PM EDT'
p218
sg6
S'U.S. says will not attend U.N. conference on racism'
p219
sa(dp220
g2
S'http://www.reuters.com/article/latestCrisis/idUSLI267117'
p221
sg4
S'20090418\xc2\xa004:35 PM EDT'
p222
sg6
S'FACTBOX-Key facts about Basque separatist group ETA'
p223
sa(dp224
g2
S'http://www.reuters.com/article/companyNewsAndPR/idUSNAT00488220090418'
p225
sg4
S'20090418\xc2\xa004:31 PM EDT'
p226
sg6
S"Fed's Lockhart does not mention economy, policy"
p227
sa(dp228
g2
S'http://www.reuters.com/article/pressRelease/idUS70637+18-Apr-2009+PRN20090418'
p229
sg4
S'20090418\xc2\xa004:30 PM EDT'
p230
sg6
S'Following Is a Test Release'
p231
sa(dp232
g2
S'http://www.reuters.com/article/pressRelease/idUS70380+18-Apr-2009+PRN20090418'
p233
sg4
S'20090418\xc2\xa004:20 PM EDT'
p234
sg6
S'Memphis Truck Dealer Richard Sweebe Wins Top Industry Honor'
p235
sa(dp236
g2
S'http://www.reuters.com/article/latestCrisis/idUST333093'
p237
sg4
S'20090418\xc2\xa004:08 PM EDT'
p238
sg6
S'Earthquake jolts northern Japan, Russian far east'
p239
sa(dp240
g2
S'http://www.reuters.com/article/pressRelease/idUS69864+18-Apr-2009+PRN20090418'
p241
sg4
S'20090418\xc2\xa004:00 PM EDT'
p242
sg6
S'Following Is a Test Release'
p243
sa(dp244
g2
S'http://www.reuters.com/article/sportsNews/idUSTRE53H1GD20090418'
p245
sg4
S'20090418\xc2\xa003:51 PM EDT'
p246
sg6
S'Nadal to face Djokovic in Monte Carlo final'
p247
sa(dp248
g2
S'http://www.reuters.com/article/GCA-BarackObama/idUSTRE53H0U720090418'
p249
sg4
S'20090418\xc2\xa003:47 PM EDT'
p250
sg6
S"Obama says he'll cut dozens of wasteful programs"
p251
sa(dp252
g2
S'http://www.reuters.com/article/governmentFilingsNews/idUSN1836868520090418'
p253
sg4
S'20090418\xc2\xa003:46 PM EDT'
p254
sg6
S"UPDATE 1-Obama says he'll cut dozens of wasteful programs"
p255
sa(dp256
g2
S'http://www.reuters.com/article/gc04/idUSTRE53H1CG20090418'
p257
sg4
S'20090418\xc2\xa003:31 PM EDT'
p258
sg6
S'Kohn says Fed can prevent inflation surge'
p259
sa(dp260
g2
S'http://www.reuters.com/article/pressRelease/idUS69018+18-Apr-2009+PRN20090418'
p261
sg4
S'20090418\xc2\xa003:30 PM EDT'
p262
sg6
S'Following Is a Test Release'
p263
sa(dp264
g2
S'http://www.reuters.com/article/companyNewsAndPR/idUSN1834115820090418'
p265
sg4
S'20090418\xc2\xa003:27 PM EDT'
p266
sg6
S'UPDATE 2-Kohn says Fed can prevent inflation surge'
p267
sa(dp268
g2
S'http://www.reuters.com/article/worldNews/idUSTRE53H0YF20090418'
p269
sg4
S'20090418\xc2\xa003:26 PM EDT'
p270
sg6
S'Iran jails U.S.-Iranian reporter for 8 years'
p271
sa(dp272
g2
S'http://www.reuters.com/article/companyNewsAndPR/idUSN1853909420090418'
p273
sg4
S'20090418\xc2\xa003:22 PM EDT'
p274
sg6
S'CORRECTED - WRAPUP 1-U.S. officials suggest worst of recession is over'
p275
sa(dp276
g2
S'http://www.reuters.com/article/pressRelease/idUS68635+18-Apr-2009+PRN20090418'
p277
sg4
S'20090418\xc2\xa003:20 PM EDT'
p278
sg6
S"Despite Economic Changes, 'Fundamentals of Business Are Enduring,' Says ATD Chairman"
p279
sa(dp280
g2
S'http://www.reuters.com/article/ousiv/idUSTRE53H1Z520090418'
p281
sg4
S'20090418\xc2\xa003:18 PM EDT'
p282
sg6
S'Two Fed officials face grilling from Volcker'
p283
sa(dp284
g2
S'http://www.reuters.com/article/companyNewsAndPR/idUSN1836763120090418'
p285
sg4
S'20090418\xc2\xa003:17 PM EDT'
p286
sg6
S'Two Fed officials face grilling from Volcker'
p287
sa(dp288
g2
S'http://www.reuters.com/article/worldNews/idUSTRE53H1WV20090418'
p289
sg4
S'20090418\xc2\xa003:13 PM EDT'
p290
sg6
S'Obama "disappointed" by Iran\'s sentencing of journalist'
p291
sa(dp292
g2
S'http://www.reuters.com/article/companyNewsAndPR/idUSN1833100020090418'
p293
sg4
S'20090418\xc2\xa003:04 PM EDT'
p294
sg6
S'US unveils $100 mln microfinance fund for Americas'
p295
sa(dp296
g2
S'http://www.reuters.com/article/pressRelease/idUS67793+18-Apr-2009+PRN20090418'
p297
sg4
S'20090418\xc2\xa003:00 PM EDT'
p298
sg6
S'Following Is a Test Release'
p299
sa(dp300
g2
S'http://www.reuters.com/article/politicsNews/idUSTRE53H1Y020090418'
p301
sg4
S'20090418\xc2\xa002:53 PM EDT'
p302
sg6
S'Obama reprieve for CIA illegal: U.N. rapporteur'
p303
sa(dp304
g2
S'http://www.reuters.com/article/sportsNews/idUSTRE53H1XR20090418'
p305
sg4
S'20090418\xc2\xa002:49 PM EDT'
p306
sg6
S'Captain Wade leads castaways into NBA playoffs'
p307
sa(dp308
g2
S'http://www.reuters.com/article/pressRelease/idUS66952+18-Apr-2009+PRN20090418'
p309
sg4
S'20090418\xc2\xa002:30 PM EDT'
p310
sg6
S'Following Is a Test Release'
p311
sa(dp312
g2
S'http://www.reuters.com/article/bankruptcyNews/idUSN1836808220090418'
p313
sg4
S'20090418\xc2\xa002:28 PM EDT'
p314
sg6
S'SemGroup seeks court OK to sell NYMEX seats'
p315
sa(dp316
g2
S'http://www.reuters.com/article/companyNewsAndPR/idUSNAT00488120090418'
p317
sg4
S'20090418\xc2\xa002:22 PM EDT'
p318
sg6
S"Fed's Stern does not address economy in remarks"
p319
sa(dp320
g2
S'http://www.reuters.com/article/healthNews/idUSTRE53H1VW20090418'
p321
sg4
S'20090418\xc2\xa002:14 PM EDT'
p322
sg6
S'West, Central African meningitis toll over 2,500'
p323
sa(dp324
g2
S'http://www.reuters.com/article/homepageCrisis/idUSLI343130._CH_.2400'
p325
sg4
S'20090418\xc2\xa002:12 PM EDT'
p326
sg6
S'West, Central African meningitis toll over 2,500'
p327
sa(dp328
g2
S'http://www.reuters.com/article/latestCrisis/idUSLI343130'
p329
sg4
S'20090418\xc2\xa002:12 PM EDT'
p330
sg6
S'West, Central African meningitis toll over 2,500'
p331
sa(dp332
g2
S'http://www.reuters.com/article/internetNews/idUSTRE53G1WU20090418'
p333
sg4
S'20090418\xc2\xa002:10 PM EDT'
p334
sg6
S"Pirate Bay's fileshare four get year in jail"
p335
sa(dp336
g2
S'http://www.reuters.com/article/worldNews/idUSTRE53H19Q20090418'
p337
sg4
S'20090418\xc2\xa002:09 PM EDT'
p338
sg6
S'Mugabe, Tsvangirai show rare unity in ceremony'
p339
sa(dp340
g2
S'http://www.reuters.com/article/globalNews/idUSTRE53H1UL20090418'
p341
sg4
S'20090418\xc2\xa002:06 PM EDT'
p342
sg6
S'Summers says U.S. banks not a topic at summit'
p343
sa(dp344
g2
S'http://www.reuters.com/article/bondsNews/idUSN1836783420090418'
p345
sg4
S'20090418\xc2\xa002:05 PM EDT'
p346
sg6
S'Summers says U.S. banks not a topic at summit'
p347
sa(dp348
g2
S'http://www.reuters.com/article/politicsNews/idUSTRE53H1RO20090418'
p349
sg4
S'20090418\xc2\xa002:00 PM EDT'
p350
sg6
S"Obama hopes to meet with Colombia's Uribe on trade"
p351
sa(dp352
g2
S'http://www.reuters.com/article/politicsNews/idUSTRE53H1UC20090418'
p353
sg4
S'20090418\xc2\xa002:00 PM EDT'
p354
sg6
S'US hopes to make progress on Colombian trade pact'
p355
sa(dp356
g2
S'http://www.reuters.com/article/pressRelease/idUS65857+18-Apr-2009+PRN20090418'
p357
sg4
S'20090418\xc2\xa002:00 PM EDT'
p358
sg6
S'Following Is a Test Release'
p359
sa(dp360
g2
S'http://www.reuters.com/article/worldNews/idUSLI11637320090418'
p361
sg4
S'20090418\xc2\xa001:55 PM EDT'
p362
sg6
S'NATO frees pirate hostages, Belgian ship seized'
p363
sa(dp364
g2
S'http://www.reuters.com/article/pressRelease/idUS65167+18-Apr-2009+PRN20090418'
p365
sg4
S'20090418\xc2\xa001:41 PM EDT'
p366
sg6
S'PennyPic Daily Report Alerts Subscribers on Market Movers: AXP, WFC, JPM, C, AIG,...'
p367
sa(dp368
g2
S'http://www.reuters.com/article/worldNews/idUSTRE53H11V20090418'
p369
sg4
S'20090418\xc2\xa001:35 PM EDT'
p370
sg6
S'Suicide car-bomber kills 27 in Pakistan'
p371
sa(dp372
g2
S'http://www.reuters.com/article/sportsNews/idUSTRE53H1SE20090418'
p373
sg4
S'20090418\xc2\xa001:34 PM EDT'
p374
sg6
S'Cubs outfielder Bradley suspended for two games'
p375
sa(dp376
g2
S'http://www.reuters.com/article/GCA-CreditCrisis/idUSTRE53H1IR20090418'
p377
sg4
S'20090418\xc2\xa001:34 PM EDT'
p378
sg6
S"Fed's Dudley: Consumers pay price on bailout furor"
p379
sa(dp380
g2
S'http://www.reuters.com/article/bondsNews/idUSN1833896920090418'
p381
sg4
S'20090418\xc2\xa001:32 PM EDT'
p382
sg6
S"UPDATE 1-Fed's Dudley: Consumers pay price on bailout furor"
p383
sa(dp384
g2
S'http://www.reuters.com/article/pressRelease/idUS64654+18-Apr-2009+PRN20090418'
p385
sg4
S'20090418\xc2\xa001:30 PM EDT'
p386
sg6
S'Following Is a Test Release'
p387
sa(dp388
g2
S'http://www.reuters.com/article/homepageCrisis/idUSLI196182._CH_.2400'
p389
sg4
S'20090418\xc2\xa001:28 PM EDT'
p390
sg6
S'Eight killed in eastern Congo attacks - witnesses'
p391
sa(dp392
g2
S'http://www.reuters.com/article/latestCrisis/idUSLI196182'
p393
sg4
S'20090418\xc2\xa001:28 PM EDT'
p394
sg6
S'Eight killed in eastern Congo attacks - witnesses'
p395
sa(dp396
g2
S'http://www.reuters.com/article/domesticNews/idUSTRE53H1PN20090418'
p397
sg4
S'20090418\xc2\xa001:19 PM EDT'
p398
sg6
S'Delta stops using India call centers: report'
p399
sa(dp400
g2
S'http://www.reuters.com/article/rbssIndustryMaterialsUtilitiesNews/idUSN1833285120090418'
p401
sg4
S'20090418\xc2\xa001:15 PM EDT'
p402
sg6
S'Delta stops using India call centers - WSJ'
p403
sa(dp404
g2
S'http://www.reuters.com/article/companyNewsAndPR/idUSN1836617520090418'
p405
sg4
S'20090418\xc2\xa001:10 PM EDT'
p406
sg6
S'Fed facilities make exit strategy more complex -Dudley'
p407
sa(dp408
g2
S'http://www.reuters.com/article/worldNews/idUSTRE53H0VC20090418'
p409
sg4
S'20090418\xc2\xa001:01 PM EDT'
p410
sg6
S'Iran says its military might help regional security'
p411
sa(dp412
g2
S'http://www.reuters.com/article/pressRelease/idUS61902+18-Apr-2009+PRN20090418'
p413
sg4
S'20090418\xc2\xa001:00 PM EDT'
p414
sg6
S'Following Is a Test Release'
p415
sa(dp416
g2
S'http://www.reuters.com/article/domesticNews/idUSTRE53H1JZ20090418'
p417
sg4
S'20090418\xc2\xa012:59 PM EDT'
p418
sg6
S"Clinton says will press Iran on journalist's case"
p419
sa(dp420
g2
S'http://www.reuters.com/article/politicsNews/idUSTRE53H1MG20090418'
p421
sg4
S'20090418\xc2\xa012:58 PM EDT'
p422
sg6
S"Clinton says will press Iran on journalist's case"
p423
sa(dp424
g2
S'http://www.reuters.com/article/GCA-BarackObama/idUSTRE53H1L320090418'
p425
sg4
S'20090418\xc2\xa012:47 PM EDT'
p426
sg6
S'FACTBOX: Economy, Cuba, security figure in Americas talks'
p427
sa(dp428
g2
S'http://www.reuters.com/article/worldNews/idUSTRE53H1KP20090418'
p429
sg4
S'20090418\xc2\xa012:38 PM EDT'
p430
sg6
S'Thousands protest widening Turkish coup plot probe'
p431
sa(dp432
g2
S'http://www.reuters.com/article/americasMergersNews/idUSN1836661820090418'
p433
sg4
S'20090418\xc2\xa012:32 PM EDT'
p434
sg6
S'BlackRock to take over management of R3'
p435
sa(dp436
g2
S'http://www.reuters.com/article/pressRelease/idUS58836+18-Apr-2009+PRN20090418'
p437
sg4
S'20090418\xc2\xa012:30 PM EDT'
p438
sg6
S'Following Is a Test Release'
p439
sa(dp440
g2
S'http://www.reuters.com/article/usDollarRpt/idUSLI95100820090418'
p441
sg4
S'20090418\xc2\xa012:30 PM EDT'
p442
sg6
S'ECB Trichet: Euro zone economy to rebound in 2010'
p443
sa(dp444
g2
S'http://www.reuters.com/article/GCA-CreditCrisis/idUSTRE53H1IE20090418'
p445
sg4
S'20090418\xc2\xa012:08 PM EDT'
p446
sg6
S'Kohn: 2 percent inflation goal gives Fed flexibility'
p447
sa(dp448
g2
S'http://www.reuters.com/article/governmentFilingsNews/idUSLI17762320090418'
p449
sg4
S'20090418\xc2\xa012:05 PM EDT'
p450
sg6
S'Germany sees no EU legal action on GMO ban'
p451
sa(dp452
g2
S'http://www.reuters.com/article/GCA-Economy/idUSTRE53H1B920090418'
p453
sg4
S'20090418\xc2\xa012:04 PM EDT'
p454
sg6
S'Volcker says economy recovery a "long slog"'
p455
sa(dp456
g2
S'http://www.reuters.com/article/ousiv/idUSTRE53H1H720090418'
p457
sg4
S'20090418\xc2\xa012:03 PM EDT'
p458
sg6
S'Extreme uncertainty in world economic outlook: OECD'
p459
sa(dp460
g2
S'http://www.reuters.com/article/pressRelease/idUS55832+18-Apr-2009+MW20090418'
p461
sg4
S'20090418\xc2\xa012:00 PM EDT'
p462
sg6
S' SDG&E; Earns National Arbor Day Foundation Award for Tree Care'
p463
sa(dp464
g2
S'http://www.reuters.com/article/pressRelease/idUS55798+18-Apr-2009+PRN20090418'
p465
sg4
S'20090418\xc2\xa012:00 PM EDT'
p466
sg6
S'Following Is a Test Release'
p467
sa(dp468
g2
S'http://www.reuters.com/article/bondsNews/idUSN1836465120090418'
p469
sg4
S'20090418\xc2\xa011:56 AM EDT'
p470
sg6
S'Kohn: 2 pct inflation goal gives Fed flexibility'
p471
sa(dp472
g2
S'http://www.reuters.com/article/latestCrisis/idUSLI183162'
p473
sg4
S'20090418\xc2\xa011:47 AM EDT'
p474
sg6
S'Somali MPs vote to establish sharia law'
p475
sa(dp476
g2
S'http://www.reuters.com/article/companyNewsAndPR/idUSNYS00500720090418'
p477
sg4
S'20090418\xc2\xa011:45 AM EDT'
p478
sg6
S"Fed's Dudley: Consumers pay price on bailout furor"
p479
sa(dp480
g2
S'http://www.reuters.com/article/rbssBanks/idUSN1835402020090418'
p481
sg4
S'20090418\xc2\xa011:42 AM EDT'
p482
sg6
S'Soccer-Gillett seeking $400 million investment - paper'
p483
sa(dp484
g2
S'http://www.reuters.com/article/pressRelease/idUS52539+18-Apr-2009+PRN20090418'
p485
sg4
S'20090418\xc2\xa011:30 AM EDT'
p486
sg6
S'Following Is a Test Release'
p487
sa(dp488
g2
S'http://www.reuters.com/article/governmentFilingsNews/idUSN1836564620090418'
p489
sg4
S'20090418\xc2\xa011:19 AM EDT'
p490
sg6
S'UPDATE 1-Obama aide Volcker: Economy recovery a "long slog"'
p491
sa(dp492
g2
S'http://www.reuters.com/article/pressRelease/idUS50836+18-Apr-2009+BW20090418'
p493
sg4
S'20090418\xc2\xa011:13 AM EDT'
p494
sg6
S'Report Offers U.S. and Cuban Leaders Roadmap for Negotiations after Summit of the Americas'
p495
sa(dp496
g2
S'http://www.reuters.com/article/economicNews/idUSLI16792620090418'
p497
sg4
S'20090418\xc2\xa011:06 AM EDT'
p498
sg6
S'Extreme uncertainty in world economic outlook-OECD'
p499
sa(dp500
g2
S'http://www.reuters.com/article/pressRelease/idUS49539+18-Apr-2009+PRN20090418'
p501
sg4
S'20090418\xc2\xa011:00 AM EDT'
p502
sg6
S'Following Is a Test Release'
p503
sa(dp504
g2
S'http://www.reuters.com/article/usDollarRpt/idUSLI03482120090418'
p505
sg4
S'20090418\xc2\xa010:41 AM EDT'
p506
sg6
S'CORRECTED - NATO forces confirm hijack of Belgian ship'
p507
sa(dp508
g2
S'http://www.reuters.com/article/latestCrisis/idUSLI034821'
p509
sg4
S'20090418\xc2\xa010:41 AM EDT'
p510
sg6
S'NATO forces confirm hijack of Belgian ship'
p511
sa(dp512
g2
S'http://www.reuters.com/article/reutersEdge/idUSN1733025020090418'
p513
sg4
S'20090418\xc2\xa010:30 AM EDT'
p514
sg6
S'Amid stock market rebound, GE sings cautious tune'
p515
sa(dp516
g2
S'http://www.reuters.com/article/reutersEdge/idUSTRE53G4HU20090418'
p517
sg4
S'20090418\xc2\xa010:30 AM EDT'
p518
sg6
S'CORRECTED: NBC Universal offers sneak peek at media earnings'
p519
sa(dp520
g2
S'http://www.reuters.com/article/bondsNews/idUSNYS00500620090418'
p521
sg4
S'20090418\xc2\xa010:30 AM EDT'
p522
sg6
S'Kohn says Fed can prevent inflation surge'
p523
sa(dp524
g2
S'http://www.reuters.com/article/pressRelease/idUS46459+18-Apr-2009+PRN20090418'
p525
sg4
S'20090418\xc2\xa010:30 AM EDT'
p526
sg6
S'Following Is a Test Release'
p527
sa(dp528
g2
S'http://www.reuters.com/article/latestCrisis/idUSLI170695'
p529
sg4
S'20090418\xc2\xa010:17 AM EDT'
p530
sg6
S'NATO frees hostages from pirates, new ship seized'
p531
sa(dp532
g2
S'http://www.reuters.com/article/rbssOilRelatedServicesEquipment/idUSLI15013120090418'
p533
sg4
S'20090418\xc2\xa010:14 AM EDT'
p534
sg6
S'Aker Solutions agrees to new valuation of Aker deal'
p535
sa(dp536
g2
S'http://www.reuters.com/article/companyNewsAndPR/idUSN1836494520090418'
p537
sg4
S'20090418\xc2\xa010:13 AM EDT'
p538
sg6
S'Obama aide Volcker sees recovery as "long slog"'
p539
sa(dp540
g2
S'http://www.reuters.com/article/pressRelease/idUS43452+18-Apr-2009+PRN20090418'
p541
sg4
S'20090418\xc2\xa010:00 AM EDT'
p542
sg6
S'Following Is a Test Release'
p543
sa(dp544
g2
S'http://www.reuters.com/article/pressRelease/idUS43450+18-Apr-2009+PRN20090418'
p545
sg4
S'20090418\xc2\xa010:00 AM EDT'
p546
sg6
S'Sunday: Survivors, Advocates to Gather In Lafayette Park to Remember Past Genocides,...'
p547
sa(dp548
g2
S'http://www.reuters.com/article/peopleNews/idUSTRE53H15Y20090418'
p549
sg4
S'20090418\xc2\xa009:59 AM EDT'
p550
sg6
S'Bai Ling cranks up moonstruck life for "High Voltage"'
p551
sa(dp552
g2
S'http://www.reuters.com/article/rbssMiningMetalsSpecialty/idUSLI14166120090418'
p553
sg4
S'20090418\xc2\xa009:38 AM EDT'
p554
sg6
S'Geovic determined on Cameroon cobalt mine'
p555
sa(dp556
g2
S'http://www.reuters.com/article/newsMaps/idUSTRE53H18Z20090418'
p557
sg4
S'20090418\xc2\xa009:35 AM EDT'
p558
sg6
S'Opposition attacks ANC in last rallies before vote'
p559
sa(dp560
g2
S'http://www.reuters.com/article/newsMaps/idUSTRE53H0TE20090418'
p561
sg4
S'20090418\xc2\xa009:32 AM EDT'
p562
sg6
S'Afghan quake survivors struggling without aid'
p563
sa(dp564
g2
S'http://www.reuters.com/article/pressRelease/idUS40269+18-Apr-2009+PRN20090418'
p565
sg4
S'20090418\xc2\xa009:30 AM EDT'
p566
sg6
S'Following Is a Test Release'
p567
sa(dp568
g2
S'http://www.reuters.com/article/pressRelease/idUS40249+18-Apr-2009+BW20090418'
p569
sg4
S'20090418\xc2\xa009:30 AM EDT'
p570
sg6
S'NEC Executive to Highlight Innovative Financing Options for Exhibitors, Studios Seeking to Deploy the Latest in Digital Cinema Technologies'
p571
sa(dp572
g2
S'http://www.reuters.com/article/latestCrisis/idUSLI156521'
p573
sg4
S'20090418\xc2\xa009:23 AM EDT'
p574
sg6
S'Afghan quake survivors struggling without aid'
p575
sa(dp576
g2
S'http://www.reuters.com/article/pressReleasesMolt/idUSTRE53G61V20090418'
p577
sg4
S'20090418\xc2\xa009:08 AM EDT'
p578
sg6
S'Earnings deluge may swamp stock rally'
p579
sa(dp580
g2
S'http://www.reuters.com/article/topNews/idUSTRE53H14520090418'
p581
sg4
S'20090418\xc2\xa009:05 AM EDT'
p582
sg6
S'Somali pirates seize Belgian ship: pirate source'
p583
sa(dp584
g2
S'http://www.reuters.com/article/latestCrisis/idUSLI132825'
p585
sg4
S'20090418\xc2\xa009:00 AM EDT'
p586
sg6
S'Somali pirates seize Belgian ship - pirate source'
p587
sa(dp588
g2
S'http://www.reuters.com/article/pressRelease/idUS37573+18-Apr-2009+PRN20090418'
p589
sg4
S'20090418\xc2\xa009:00 AM EDT'
p590
sg6
S'Following Is a Test Release'
p591
sa(dp592
g2
S'http://www.reuters.com/article/pressRelease/idUS36804+18-Apr-2009+PRN20090418'
p593
sg4
S'20090418\xc2\xa008:30 AM EDT'
p594
sg6
S'Following Is a Test Release'
p595
sa(dp596
g2
S'http://www.reuters.com/article/ousivMolt/idUSTRE53G62Q20090418'
p597
sg4
S'20090418\xc2\xa008:28 AM EDT'
p598
sg6
S"Can Citigroup's results be sustained?"
p599
sa(dp600
g2
S'http://www.reuters.com/article/latestCrisis/idUSLI130733'
p601
sg4
S'20090418\xc2\xa008:03 AM EDT'
p602
sg6
S'Belgian ship feared hijacked by Somali pirates'
p603
sa(dp604
g2
S'http://www.reuters.com/article/latestCrisis/idUSISL238803'
p605
sg4
S'20090418\xc2\xa008:03 AM EDT'
p606
sg6
S'Suicide car-bomber kills at least 20 in Pakistan'
p607
sa(dp608
g2
S'http://www.reuters.com/article/pressRelease/idUS35910+18-Apr-2009+PRN20090418'
p609
sg4
S'20090418\xc2\xa008:00 AM EDT'
p610
sg6
S'Following Is a Test Release'
p611
sa(dp612
g2
S'http://www.reuters.com/article/pressRelease/idUS35908+18-Apr-2009+PRN20090418'
p613
sg4
S'20090418\xc2\xa008:00 AM EDT'
p614
sg6
S"Mary J. Blige and Big Boi 'Bringing Hope Home' to Atlanta"
p615
sa(dp616
g2
S'http://www.reuters.com/article/pressRelease/idUS35901+18-Apr-2009+BW20090418'
p617
sg4
S'20090418\xc2\xa008:00 AM EDT'
p618
sg6
S'In-Stat: 66.3 Million US TV Viewers are Simultaneously Using a PC While Watching TV'
p619
sa(dp620
g2
S'http://www.reuters.com/article/politicsNews/idUSTRE53H13H20090418'
p621
sg4
S'20090418\xc2\xa007:59 AM EDT'
p622
sg6
S'Clinton commends Zimbabwe progress, urges more'
p623
sa(dp624
g2
S'http://www.reuters.com/article/homepageCrisis/idUSN18364675._CH_.2400'
p625
sg4
S'20090418\xc2\xa007:56 AM EDT'
p626
sg6
S'Clinton commends Zimbabwe progress, urges more'
p627
sa(dp628
g2
S'http://www.reuters.com/article/latestCrisis/idUSN18364675'
p629
sg4
S'20090418\xc2\xa007:56 AM EDT'
p630
sg6
S'Clinton commends Zimbabwe progress, urges more'
p631
sa(dp632
g2
S'http://www.reuters.com/article/managementIssues/idUSLI19732520090418'
p633
sg4
S'20090418\xc2\xa007:52 AM EDT'
p634
sg6
S'German dealers eye ex-VW CEO as Opel boss-report'
p635
sa(dp636
g2
S'http://www.reuters.com/article/ousivMolt/idUSPEK33230620090418'
p637
sg4
S'20090418\xc2\xa007:40 AM EDT'
p638
sg6
S'China says key currency countries need watching'
p639
sa(dp640
g2
S'http://www.reuters.com/article/ousivMolt/idUSTRE53H0RD20090418'
p641
sg4
S'20090418\xc2\xa007:39 AM EDT'
p642
sg6
S'China not clear of crisis despite good signs'
p643
sa(dp644
g2
S'http://www.reuters.com/article/ousivMolt/idUSTRE53H0J820090418'
p645
sg4
S'20090418\xc2\xa007:39 AM EDT'
p646
sg6
S"China's economy hit bottom in first quarter"
p647
sa(dp648
g2
S'http://www.reuters.com/article/worldNews/idUSTRE53H0TN20090418'
p649
sg4
S'20090418\xc2\xa007:38 AM EDT'
p650
sg6
S'Turkey pledges to help train Somali armed forces'
p651
sa(dp652
g2
S'http://www.reuters.com/article/technology-media-telco-SP/idUSLI72045520090418'
p653
sg4
S'20090418\xc2\xa007:34 AM EDT'
p654
sg6
S'Chipmaker Infineon seeks state guarantee -report'
p655
sa(dp656
g2
S'http://www.reuters.com/article/latestCrisis/idUSISL188347'
p657
sg4
S'20090418\xc2\xa007:33 AM EDT'
p658
sg6
S'Suicide car-bomber kills at least 20 in Pakistan'
p659
sa(dp660
g2
S'http://www.reuters.com/article/GCA-Russia/idUSTRE53H10P20090418'
p661
sg4
S'20090418\xc2\xa007:33 AM EDT'
p662
sg6
S'Russia, China stage war games in Central Asia'
p663
sa(dp664
g2
S'http://www.reuters.com/article/rbssBanks/idUSSHA35961020090418'
p665
sg4
S'20090418\xc2\xa007:30 AM EDT'
p666
sg6
S'China Guangdong Nuclear fund raises $1 bln'
p667
sa(dp668
g2
S'http://www.reuters.com/article/pressRelease/idUS34854+18-Apr-2009+PRN20090418'
p669
sg4
S'20090418\xc2\xa007:30 AM EDT'
p670
sg6
S'Following Is a Test Release'
p671
sa(dp672
g2
S'http://www.reuters.com/article/ousivMolt/idUSTRE53H0IZ20090418'
p673
sg4
S'20090418\xc2\xa007:23 AM EDT'
p674
sg6
S"China's economy hit bottom in first quarter: Party adviser"
p675
sa(dp676
g2
S'http://www.reuters.com/article/ousivMolt/idUSTRE53H0H820090418'
p677
sg4
S'20090418\xc2\xa007:23 AM EDT'
p678
sg6
S"China's Wen says key currency countries need watching"
p679
sa(dp680
g2
S'http://www.reuters.com/article/ousivMolt/idUSTRE53H0QK20090418'
p681
sg4
S'20090418\xc2\xa007:23 AM EDT'
p682
sg6
S'China not clear of crisis despite good signs: Zhou'
p683
sa(dp684
g2
S'http://www.reuters.com/article/rbssInvestmentTrusts/idUSLI7069120090418'
p685
sg4
S'20090418\xc2\xa007:20 AM EDT'
p686
sg6
S'UPDATE 2-Singapore Technologies makes offer for BCM -report'
p687
sa(dp688
g2
S'http://www.reuters.com/article/pressRelease/idUS33878+18-Apr-2009+PRN20090418'
p689
sg4
S'20090418\xc2\xa007:00 AM EDT'
p690
sg6
S'Following Is a Test Release'
p691
sa(dp692
g2
S'http://www.reuters.com/article/latestCrisis/idUSLI89952'
p693
sg4
S'20090418\xc2\xa006:53 AM EDT'
p694
sg6
S'Pope to visit Italian student hall struck by quake'
p695
sa(dp696
g2
S'http://www.reuters.com/article/sportsNews/idUSTRE53H0Y020090418'
p697
sg4
S'20090418\xc2\xa006:53 AM EDT'
p698
sg6
S'Tokyo put numbers before celebrity power'
p699
sa(dp700
g2
S'http://www.reuters.com/article/latestCrisis/idUSLI81863'
p701
sg4
S'20090418\xc2\xa006:44 AM EDT'
p702
sg6
S'NATO forces capture 7 pirates, free 20 hostages'
p703
sa(dp704
g2
S'http://www.reuters.com/article/newsMaps/idUSTRE53H0VH20090418'
p705
sg4
S'20090418\xc2\xa006:41 AM EDT'
p706
sg6
S'Iran jails US-Iranian reporter for 8 years: lawyer'
p707
sa(dp708
g2
S'http://www.reuters.com/article/olympicsNews/idUST35839720090418'
p709
sg4
S'20090418\xc2\xa006:36 AM EDT'
p710
sg6
S'Olympics-Tokyo put numbers before celebrity power'
p711
sa(dp712
g2
S'http://www.reuters.com/article/latestCrisis/idUSLI002847'
p713
sg4
S'20090418\xc2\xa006:35 AM EDT'
p714
sg6
S'NATO forces free 20 hostages from Somali pirates'
p715
sa(dp716
g2
S'http://www.reuters.com/article/pressRelease/idUS33096+18-Apr-2009+PRN20090418'
p717
sg4
S'20090418\xc2\xa006:30 AM EDT'
p718
sg6
S'Following Is a Test Release'
p719
sa(dp720
g2
S'http://www.reuters.com/article/rbssAirlines/idUSTP17892120090418'
p721
sg4
S'20090418\xc2\xa006:20 AM EDT'
p722
sg6
S'Taiwan, China to sign financial services pact'
p723
sa(dp724
g2
S'http://www.reuters.com/article/pressRelease/idUS32593+18-Apr-2009+BW20090418'
p725
sg4
S'20090418\xc2\xa006:15 AM EDT'
p726
sg6
S'Consumer Electronics Association Statement on White House CTO Appointment'
p727
sa(dp728
g2
S'http://www.reuters.com/article/pressRelease/idUS32592+18-Apr-2009+BW20090418'
p729
sg4
S'20090418\xc2\xa006:15 AM EDT'
p730
sg6
S'Penn Libraries` 2009 Lorraine Beitler Lecture by Karen J. Greenberg, Clemens Nathan: Human Rights in the 21st Century'
p731
sa(dp732
g2
S'http://www.reuters.com/article/latestCrisis/idUSLI116373'
p733
sg4
S'20090418\xc2\xa006:08 AM EDT'
p734
sg6
S'NATO forces capture 7 pirates in Gulf of Aden'
p735
sa(dp736
g2
S'http://www.reuters.com/article/rbssInvestmentTrusts/idUSLI9423520090418'
p737
sg4
S'20090418\xc2\xa006:02 AM EDT'
p738
sg6
S'Singapore Technologies makes offer for BCM -report'
p739
sa(dp740
g2
S'http://www.reuters.com/article/pressRelease/idUS32198+18-Apr-2009+MW20090418'
p741
sg4
S'20090418\xc2\xa006:01 AM EDT'
p742
sg6
S' Venture Capital Investment Plummets in Q1 2009 to 12-Year Low, According to the MoneyTree Report'
p743
sa(dp744
g2
S'http://www.reuters.com/article/companyNewsAndPR/idUSN1733768120090418'
p745
sg4
S'20090418\xc2\xa006:00 AM EDT'
p746
sg6
S"Obama says he'll cut dozens of wasteful programs"
p747
sa(dp748
g2
S'http://www.reuters.com/article/pressRelease/idUS32169+18-Apr-2009+PRN20090418'
p749
sg4
S'20090418\xc2\xa006:00 AM EDT'
p750
sg6
S'Following Is a Test Release'
p751
sa(dp752
g2
S'http://www.reuters.com/article/pressRelease/idUS32147+18-Apr-2009+PRN20090418'
p753
sg4
S'20090418\xc2\xa005:59 AM EDT'
p754
sg6
S'GOOD MORNING -- April 18, 2009'
p755
sa(dp756
g2
S'http://www.reuters.com/article/topNews/idUSTRE53F7UC20090418'
p757
sg4
S'20090418\xc2\xa005:44 AM EDT'
p758
sg6
S'N.Korea seeks talks with South but warns on sanction'
p759
sa(dp760
g2
S'http://www.reuters.com/article/homepageCrisis/idUSSP406143._CH_.2400'
p761
sg4
S'20090418\xc2\xa005:42 AM EDT'
p762
sg6
S'Afghan quake survivors struggling without aid'
p763
sa(dp764
g2
S'http://www.reuters.com/article/latestCrisis/idUSSP406143'
p765
sg4
S'20090418\xc2\xa005:42 AM EDT'
p766
sg6
S'Afghan quake survivors struggling without aid'
p767
sa(dp768
g2
S'http://www.reuters.com/article/pressRelease/idUS31295+18-Apr-2009+PRN20090418'
p769
sg4
S'20090418\xc2\xa005:30 AM EDT'
p770
sg6
S'Following Is a Test Release'
p771
sa(dp772
g2
S'http://www.reuters.com/article/pressRelease/idUS30785+18-Apr-2009+MW20090418'
p773
sg4
S'20090418\xc2\xa005:13 AM EDT'
p774
sg6
S' Learn How to Get Publicity for Yourself in Free Teleseminar'
p775
sa(dp776
g2
S'http://www.reuters.com/article/pressRelease/idUS30324+18-Apr-2009+PRN20090418'
p777
sg4
S'20090418\xc2\xa005:00 AM EDT'
p778
sg6
S'Following Is a Test Release'
p779
sa(dp780
g2
S'http://www.reuters.com/article/topNews/idUSTRE53H0P920090418'
p781
sg4
S'20090418\xc2\xa004:53 AM EDT'
p782
sg6
S'North Korea army warns South over arms interception'
p783
sa(dp784
g2
S'http://www.reuters.com/article/worldNews/idUSTRE53H0OI20090418'
p785
sg4
S'20090418\xc2\xa004:49 AM EDT'
p786
sg6
S'Thai police probe motives behind Sondhi shooting'
p787
sa(dp788
g2
S'http://www.reuters.com/article/privateEquityFinancialServicesAndRealEstate/idUSPEK33486620090418'
p789
sg4
S'20090418\xc2\xa004:36 AM EDT'
p790
sg6
S"UPDATE 1-China's CIC says considering investments in Europe"
p791
sa(dp792
g2
S'http://www.reuters.com/article/pressRelease/idUS29518+18-Apr-2009+PRN20090418'
p793
sg4
S'20090418\xc2\xa004:30 AM EDT'
p794
sg6
S'Following Is a Test Release'
p795
sa(dp796
g2
S'http://www.reuters.com/article/latestCrisis/idUSBKK399860'
p797
sg4
S'20090418\xc2\xa004:22 AM EDT'
p798
sg6
S'Thai police probe motives behind Sondhi shooting'
p799
sa(dp800
g2
S'http://www.reuters.com/article/pressRelease/idUS29308+18-Apr-2009+MW20090418'
p801
sg4
S'20090418\xc2\xa004:21 AM EDT'
p802
sg6
S' Auto Club Automotive Fair Features Something for Most Drivers -- Teen Driver Safety, Used Car Sale, Travel Show and'
p803
sa(dp804
g2
S'http://www.reuters.com/article/rbssOilGasRefiningMarketing/idUSBOM35643720090418'
p805
sg4
S'20090418\xc2\xa004:10 AM EDT'
p806
sg6
S"India's Reliance refinery sheds export unit tag"
p807
sa(dp808
g2
S'http://www.reuters.com/article/pressRelease/idUS28859+18-Apr-2009+PRN20090418'
p809
sg4
S'20090418\xc2\xa004:00 AM EDT'
p810
sg6
S'Following Is a Test Release'
p811
sa(dp812
g2
S'http://www.reuters.com/article/companyNewsAndPR/idUSPEK35807020090418'
p813
sg4
S'20090418\xc2\xa003:58 AM EDT'
p814
sg6
S"China's CIC says considering investments in Europe"
p815
sa(dp816
g2
S'http://www.reuters.com/article/newsMaps/idUSTRE53H0NX20090418'
p817
sg4
S'20090418\xc2\xa003:58 AM EDT'
p818
sg6
S'U.S. says not playing favourites in Afghan poll'
p819
sa(dp820
g2
S'http://www.reuters.com/article/newsMaps/idUSTRE53H0O220090418'
p821
sg4
S'20090418\xc2\xa003:57 AM EDT'
p822
sg6
S'FACTBOX - Security developments in Afghanistan, April 18'
p823
sa(dp824
g2
S'http://www.reuters.com/article/rbssWirelessTelecommunicationServices/idUSL514054620090418'
p825
sg4
S'20090418\xc2\xa003:44 AM EDT'
p826
sg6
S'DIARY - Egypt/Sudan - April 18'
p827
sa(dp828
g2
S'http://www.reuters.com/article/reutersEdge/idUSTRE53G5LI20090418'
p829
sg4
S'20090418\xc2\xa003:42 AM EDT'
p830
sg6
S'Smatterings of a U.S. rebound emerge, slowly'
p831
sa(dp832
g2
S'http://www.reuters.com/article/latestCrisis/idUSSP392410'
p833
sg4
S'20090418\xc2\xa003:42 AM EDT'
p834
sg6
S'FACTBOX-Security developments in Afghanistan, April 18'
p835
sa(dp836
g2
S'http://www.reuters.com/article/sportsNews/idUSSP39431420090418'
p837
sg4
S'20090418\xc2\xa003:38 AM EDT'
p838
sg6
S'Dementieva and Wozniacki reach semis'
p839
sa(dp840
g2
S'http://www.reuters.com/article/pressRelease/idUS28075+18-Apr-2009+PRN20090418'
p841
sg4
S'20090418\xc2\xa003:30 AM EDT'
p842
sg6
S'Following Is a Test Release'
p843
sa(dp844
g2
S'http://www.reuters.com/article/newsMaps/idUSTRE53H04O20090418'
p845
sg4
S'20090418\xc2\xa003:17 AM EDT'
p846
sg6
S'Red Cross hostage in Philippines walks free'
p847
sa(dp848
g2
S'http://www.reuters.com/article/usDollarRpt/idUSSP40476820090418'
p849
sg4
S'20090418\xc2\xa003:16 AM EDT'
p850
sg6
S'UPDATE 2-Trichet says ECB must watch prices, may cut rates'
p851
sa(dp852
g2
S'http://www.reuters.com/article/homepageCrisis/idUSSP466246._CH_.2400'
p853
sg4
S'20090418\xc2\xa003:10 AM EDT'
p854
sg6
S'Red Cross hostage in Philippines walks free'
p855
sa(dp856
g2
S'http://www.reuters.com/article/industryNews/idUSTRE53H0KN20090418'
p857
sg4
S'20090418\xc2\xa003:09 AM EDT'
p858
sg6
S'India Satyam has 10 percent extra staff says chairman: report'
p859
sa(dp860
g2
S'http://www.reuters.com/article/ousiv/idUSTRE53H0KC20090418'
p861
sg4
S'20090418\xc2\xa003:02 AM EDT'
p862
sg6
S'Venture capital money down to 1997 levels: reports'
p863
sa(dp864
g2
S'http://www.reuters.com/article/privateEquity/idUSSHA35555420090418'
p865
sg4
S'20090418\xc2\xa003:02 AM EDT'
p866
sg6
S'China regulator says IPOs to resume after reforms'
p867
sa(dp868
g2
S'http://www.reuters.com/article/rbssBiotechnology/idUSN1733361620090418'
p869
sg4
S'20090418\xc2\xa003:01 AM EDT'
p870
sg6
S'Venture capital money down to 1997 levels-reports'
p871
sa(dp872
g2
S'http://www.reuters.com/article/pressRelease/idUS27282+18-Apr-2009+PRN20090418'
p873
sg4
S'20090418\xc2\xa003:00 AM EDT'
p874
sg6
S'Following Is a Test Release'
p875
sa(dp876
g2
S'http://www.reuters.com/article/rbssITServicesConsulting/idUSBOM35797920090418'
p877
sg4
S'20090418\xc2\xa002:50 AM EDT'
p878
sg6
S'India Satyam has 10 pct extra staff says chairman-report'
p879
sa(dp880
g2
S'http://www.reuters.com/article/sportsNews/idUSTRE53H0CZ20090418'
p881
sg4
S'20090418\xc2\xa002:42 AM EDT'
p882
sg6
S'Marlins rally to equal franchise-best start'
p883
sa(dp884
g2
S'http://www.reuters.com/article/pressRelease/idUS26685+18-Apr-2009+PRN20090418'
p885
sg4
S'20090418\xc2\xa002:30 AM EDT'
p886
sg6
S'Following Is a Test Release'
p887
sa(dp888
g2
S'http://www.reuters.com/article/bondsNews/idUSPEK30646520090418'
p889
sg4
S'20090418\xc2\xa002:25 AM EDT'
p890
sg6
S"UPDATE 2-China's Wen: key currency countries need watching"
p891
sa(dp892
g2
S'http://www.reuters.com/article/economicNews/idUSPEK7800220090418'
p893
sg4
S'20090418\xc2\xa002:14 AM EDT'
p894
sg6
S"China's economy hit bottom in Q1 -Party adviser"
p895
sa(dp896
g2
S'http://www.reuters.com/article/pressRelease/idUS26088+18-Apr-2009+PRN20090418'
p897
sg4
S'20090418\xc2\xa002:00 AM EDT'
p898
sg6
S'Following Is a Test Release'
p899
sa(dp900
g2
S'http://www.reuters.com/article/sportsNews/idUSTRE53G5OB20090418'
p901
sg4
S'20090418\xc2\xa001:48 AM EDT'
p902
sg6
S'Yankees notch first win in new stadium'
p903
sa(dp904
g2
S'http://www.reuters.com/article/sportsNews/idUSTRE53H0HT20090418'
p905
sg4
S'20090418\xc2\xa001:48 AM EDT'
p906
sg6
S'Baseball results'
p907
sa(dp908
g2
S'http://www.reuters.com/article/sportsNews/idUSTRE53H0GZ20090418'
p909
sg4
S'20090418\xc2\xa001:35 AM EDT'
p910
sg6
S"Kenya's Cheruiyot seeking fifth Boston Marathon"
p911
sa(dp912
g2
S'http://www.reuters.com/article/pressRelease/idUS25616+18-Apr-2009+PRN20090418'
p913
sg4
S'20090418\xc2\xa001:31 AM EDT'
p914
sg6
S'Following Is a Test Release'
p915
sa(dp916
g2
S'http://www.reuters.com/article/newsMaps/idUSTRE53H0GM20090418'
p917
sg4
S'20090418\xc2\xa001:26 AM EDT'
p918
sg6
S'China coal mine warehouse blast kills at least 18'
p919
sa(dp920
g2
S'http://www.reuters.com/article/newsMaps/idUSTRE53H0G920090418'
p921
sg4
S'20090418\xc2\xa001:14 AM EDT'
p922
sg6
S'China plans $10 bln ASEAN infrastructure fund'
p923
sa(dp924
g2
S'http://www.reuters.com/article/latestCrisis/idUSSHA357533'
p925
sg4
S'20090418\xc2\xa001:13 AM EDT'
p926
sg6
S'China coal mine warehouse blast kills at least 18'
p927
sa(dp928
g2
S'http://www.reuters.com/article/newsMaps/idUSTRE53H07520090418'
p929
sg4
S'20090418\xc2\xa001:08 AM EDT'
p930
sg6
S'More aid needed for struggling Pakistan: Holbrooke'
p931
sa(dp932
g2
S'http://www.reuters.com/article/newsMaps/idUSTRE53H0G120090418'
p933
sg4
S'20090418\xc2\xa001:08 AM EDT'
p934
sg6
S'U.S. envoy Holbrooke chatted with Iran mininster'
p935
sa(dp936
g2
S'http://www.reuters.com/article/sportsNews/idUSTRE53H06W20090418'
p937
sg4
S'20090418\xc2\xa001:05 AM EDT'
p938
sg6
S'Guerin OT goal gives Penguins 2-0 series lead'
p939
sa(dp940
g2
S'http://www.reuters.com/article/homepageCrisis/idUSDHA399949._CH_.2400'
p941
sg4
S'20090418\xc2\xa001:04 AM EDT'
p942
sg6
S'Bangladesh ports reopen after storm crosses coast'
p943
sa(dp944
g2
S'http://www.reuters.com/article/latestCrisis/idUSDHA399949'
p945
sg4
S'20090418\xc2\xa001:04 AM EDT'
p946
sg6
S'Bangladesh ports reopen after storm crosses coast'
p947
sa(dp948
g2
S'http://www.reuters.com/article/newsMaps/idUSTRE53H0F620090418'
p949
sg4
S'20090418\xc2\xa001:02 AM EDT'
p950
sg6
S'U.S. seeks to prevent Taliban use of radio, web: WSJ'
p951
sa(dp952
g2
S'http://www.reuters.com/article/pressRelease/idUS25046+18-Apr-2009+PRN20090418'
p953
sg4
S'20090418\xc2\xa001:00 AM EDT'
p954
sg6
S'Following Is a Test Release'
p955
sa(dp956
g2
S'http://www.reuters.com/article/mediaNews/idUSN1833313420090418'
p957
sg4
S'20090418\xc2\xa012:55 AM EDT'
p958
sg6
S'U.S. seeks to prevent Taliban use of radio, web-WSJ'
p959
sa(dp960
g2
S'http://www.reuters.com/article/latestCrisis/idUSN18333134'
p961
sg4
S'20090418\xc2\xa012:55 AM EDT'
p962
sg6
S'U.S. seeks to prevent Taliban use of radio, web-WSJ'
p963
sa(dp964
g2
S'http://www.reuters.com/article/newsMaps/idUSTRE53H0EH20090418'
p965
sg4
S'20090418\xc2\xa012:51 AM EDT'
p966
sg6
S'U.S. says not playing favorites in Afghan poll'
p967
sa(dp968
g2
S'http://www.reuters.com/article/latestCrisis/idUSSP400416'
p969
sg4
S'20090418\xc2\xa012:46 AM EDT'
p970
sg6
S'U.S. says not playing favourites in Afghan poll'
p971
sa(dp972
g2
S'http://www.reuters.com/article/latestCrisis/idUSLH650334'
p973
sg4
S'20090418\xc2\xa012:44 AM EDT'
p974
sg6
S'Congo MPs vote Kabila ally National Assembly speaker'
p975
sa(dp976
g2
S'http://www.reuters.com/article/domesticNews/idUSTRE53H0DG20090418'
p977
sg4
S'20090418\xc2\xa012:43 AM EDT'
p978
sg6
S"CIA interrogators inflated suspect's importance: NYT"
p979
sa(dp980
g2
S'http://www.reuters.com/article/latestCrisis/idUSN18353856'
p981
sg4
S'20090418\xc2\xa012:40 AM EDT'
p982
sg6
S"CIA interrogators inflated suspect's importance-NYT"
p983
sa(dp984
g2
S'http://www.reuters.com/article/entertainmentNews/idUSTRE53H0D720090418'
p985
sg4
S'20090418\xc2\xa012:40 AM EDT'
p986
sg6
S"Yusuf Islam's past, present in harmony on new album"
p987
sa(dp988
g2
S'http://www.reuters.com/article/pressRelease/idUS24129+18-Apr-2009+PRN20090418'
p989
sg4
S'20090418\xc2\xa012:30 AM EDT'
p990
sg6
S'Following Is a Test Release'
p991
sa(dp992
g2
S'http://www.reuters.com/article/newsMaps/idUSTRE53H06I20090418'
p993
sg4
S'20090418\xc2\xa012:28 AM EDT'
p994
sg6
S'FACTBOX: Philippine rebel group Abu Sayyaf'
p995
sa(dp996
g2
S'http://www.reuters.com/article/homepageCrisis/idUSSP396470._CH_.2400'
p997
sg4
S'20090418\xc2\xa012:18 AM EDT'
p998
sg6
S'More aid needed for struggling Pakistan -Holbrooke'
p999
sa(dp1000
g2
S'http://www.reuters.com/article/latestCrisis/idUSSP396470'
p1001
sg4
S'20090418\xc2\xa012:18 AM EDT'
p1002
sg6
S'More aid needed for struggling Pakistan -Holbrooke'
p1003
sa(dp1004
g2
S'http://www.reuters.com/article/pressRelease/idUS23470+18-Apr-2009+PRN20090418'
p1005
sg4
S'20090418\xc2\xa012:05 AM EDT'
p1006
sg6
S'U.S. Venture Investment Lowest in 11 Years, Down 50% to $3.9 Billion in First Quarter'
p1007
sa(dp1008
g2
S'http://www.reuters.com/article/pressRelease/idUS23263+18-Apr-2009+PRN20090418'
p1009
sg4
S'20090418\xc2\xa012:01 AM EDT'
p1010
sg6
S'U.S. Census Bureau Daily Feature for April 18'
p1011
sa(dp1012
g2
S'http://www.reuters.com/article/pressRelease/idUS23226+18-Apr-2009+PRN20090418'
p1013
sg4
S'20090418\xc2\xa012:00 AM EDT'
p1014
sg6
S'Following Is a Test Release'
p1015
sa(dp1016
g2
S'http://www.reuters.com/news/video/videoStory?storyID=ftpo1235901102246'
p1017
sg4
S'20090418\xc2\xa003:32 PM EDT'
p1018
sg6
S'Life goes on for Swat residents'
p1019
sa(dp1020
g2
S'http://www.reuters.com/news/video/videoStory?storyID=WAO1235849075332'
p1021
sg4
S'20090418\xc2\xa001:25 PM EDT'
p1022
sg6
S'Zimbabwe Independence Day'
p1023
sa(dp1024
g2
S'http://www.reuters.com/news/video/videoStory?storyID=WAO1235849075327'
p1025
sg4
S'20090418\xc2\xa001:08 PM EDT'
p1026
sg6
S"Prince Philip's milestone"
p1027
sa(dp1028
g2
S'http://www.reuters.com/news/video/videoStory?storyID=WAO1235849075322'
p1029
sg4
S'20090418\xc2\xa012:26 PM EDT'
p1030
sg6
S'Pirate Bay founders appeal verdict'
p1031
sa(dp1032
g2
S'http://www.reuters.com/news/video/videoStory?storyID=WAO1235849075298'
p1033
sg4
S'20090418\xc2\xa011:06 AM EDT'
p1034
sg6
S'Iran shows off its military might'
p1035
sa(dp1036
g2
S'http://www.reuters.com/news/video/videoStory?storyID=WAO1235849075293'
p1037
sg4
S'20090418\xc2\xa010:30 AM EDT'
p1038
sg6
S'African musicians jazz it up'
p1039
sa(dp1040
g2
S'http://www.reuters.com/news/video/videoStory?storyID=ftpo1235901102226'
p1041
sg4
S'20090418\xc2\xa010:08 AM EDT'
p1042
sg6
S'Obama reaches out to Cuba'
p1043
sa(dp1044
g2
S'http://www.reuters.com/news/video/videoStory?storyID=ftpo1235901102221'
p1045
sg4
S'20090418\xc2\xa009:02 AM EDT'
p1046
sg6
S'Red Cross hostage rescued'
p1047
sa(dp1048
g2
S'http://www.reuters.com/news/video/videoStory?storyID=WAO1235849075266'
p1049
sg4
S'20090418\xc2\xa007:52 AM EDT'
p1050
sg6
S'Jacob Zuma talks to Reuters'
p1051
sa.