(lp0
(dp1
S'href'
p2
S'http://www.reuters.com/article/usDollarRpt/idUSN0716657220100208'
p3
sS'ts'
p4
S'20100207\xc2\xa011:59PM UTC'
p5
sS'title'
p6
S"FACTBOX-Costa Rica's president-elect Laura Chinchilla"
p7
sa(dp8
g2
S'http://www.reuters.com/article/rbssInvestmentTrusts/idUSSGE61705T20100208'
p9
sg4
S'20100207\xc2\xa011:54PM UTC'
p10
sg6
S'Indian shares flip flop; techs down, metals rise'
p11
sa(dp12
g2
S'http://www.reuters.com/article/televisionNews/idUSTRE6170NH20100208'
p13
sg4
S'20100207\xc2\xa011:54PM UTC'
p14
sg6
S'Michael Chiklis starring in "Family" pilot'
p15
sa(dp16
g2
S'http://www.reuters.com/article/peopleNews/idUSTRE6170N120100208'
p17
sg4
S'20100207\xc2\xa011:52PM UTC'
p18
sg6
S'Brit actress Lucy Punch cast in "Bad Teacher"'
p19
sa(dp20
g2
S'http://www.reuters.com/article/sportsNews/idUSTRE6170LO20100208'
p21
sg4
S'20100207\xc2\xa011:42PM UTC'
p22
sg6
S'Super Bowl win was destiny for Saints, says MVP Brees'
p23
sa(dp24
g2
S'http://www.reuters.com/article/lifestyleMolt/idUSTRE6170LA20100208'
p25
sg4
S'20100207\xc2\xa011:41PM UTC'
p26
sg6
S"Fifth of adults choose pet over partner on V'Day"
p27
sa(dp28
g2
S'http://www.reuters.com/article/peopleNews/idUSTRE6170MD20100208'
p29
sg4
S'20100207\xc2\xa011:39PM UTC'
p30
sg6
S'"Lost" actor joins "Hawaii Five-O"'
p31
sa(dp32
g2
S'http://www.reuters.com/article/televisionNews/idUSTRE6170M620100208'
p33
sg4
S'20100207\xc2\xa011:38PM UTC'
p34
sg6
S'Big TV producers staying in familiar genres'
p35
sa(dp36
g2
S'http://www.reuters.com/article/euPrivateEquityNews/idUSTRE6170L520100208'
p37
sg4
S'20100207\xc2\xa011:31PM UTC'
p38
sg6
S'Affinity planning new Asia buyout fund: sources'
p39
sa(dp40
g2
S'http://www.reuters.com/article/bankruptcyNews/idUSTKC00571420100208'
p41
sg4
S'20100207\xc2\xa011:30PM UTC'
p42
sg6
S'Japan corp bankruptcies down but debt up due to JAL'
p43
sa(dp44
g2
S'http://www.reuters.com/article/privateEquity/idUSHKU00015820100208'
p45
sg4
S'20100207\xc2\xa011:30PM UTC'
p46
sg6
S'Affinity planning new Asia buyout fund - sources'
p47
sa(dp48
g2
S'http://www.reuters.com/article/pressRelease/idUS34099+08-Feb-2010+PRN20100208'
p49
sg4
S'20100207\xc2\xa011:30PM UTC'
p50
sg6
S'Following Is a Test Release'
p51
sa(dp52
g2
S'http://www.reuters.com/article/newIssuesNews/idUSTOE61703H20100208'
p53
sg4
S'20100207\xc2\xa011:28PM UTC'
p54
sg6
S'Hong Kong IPO Pipeline - Feb 8'
p55
sa(dp56
g2
S'http://www.reuters.com/article/companyNews/idUSTOE61703T20100208'
p57
sg4
S'20100207\xc2\xa011:28PM UTC'
p58
sg6
S'Nikkei drifts after hitting 2-mth low, Kirin down'
p59
sa(dp60
g2
S'http://www.reuters.com/article/financialsSector/idUSSGE61706220100208'
p61
sg4
S'20100207\xc2\xa011:28PM UTC'
p62
sg6
S'Market Chatter -- Corporate finance press digest'
p63
sa(dp64
g2
S'http://www.reuters.com/article/environmentNews/idUSTRE6170KD20100208'
p65
sg4
S'20100207\xc2\xa011:27PM UTC'
p66
sg6
S'Australia\'s "Top End" too dry to become food bowl'
p67
sa(dp68
g2
S'http://www.reuters.com/article/pressReleasesMolt/idUSTRE6170K220100208'
p69
sg4
S'20100207\xc2\xa011:23PM UTC'
p70
sg6
S'Alongside gags, Super Bowl ads plumb male psyche'
p71
sa(dp72
g2
S'http://www.reuters.com/article/hotStocksNews/idUSN0715004520100208'
p73
sg4
S'20100207\xc2\xa011:23PM UTC'
p74
sg6
S"Costa Rica's Chinchilla declares election victory"
p75
sa(dp76
g2
S'http://www.reuters.com/article/latestCrisis/idUSSGE617035'
p77
sg4
S'20100207\xc2\xa011:19PM UTC'
p78
sg6
S'Australia\'s "Top End" too dry to become food bowl'
p79
sa(dp80
g2
S'http://www.reuters.com/article/hotStocksNews/idUSJKF00230820100208'
p81
sg4
S'20100207\xc2\xa011:11PM UTC'
p82
sg6
S'Indonesia may issue global sukuk in early H2-official'
p83
sa(dp84
g2
S'http://www.reuters.com/article/bondsNews/idUSTOE61701520100208'
p85
sg4
S'20100207\xc2\xa011:08PM UTC'
p86
sg6
S'TREASURIES-Edge down but flight to quality limits losses'
p87
sa(dp88
g2
S'http://www.reuters.com/article/pressRelease/idUS32168+08-Feb-2010+PRN20100208'
p89
sg4
S'20100207\xc2\xa011:04PM UTC'
p90
sg6
S"Saints' Drew Brees 'Going to Disney World' to Celebrate Victory, MVP Performance in Super Bowl XLIV"
p91
sa(dp92
g2
S'http://www.reuters.com/article/BANKSL/idUSLDE61701320100208'
p93
sg4
S'20100207\xc2\xa011:01PM UTC'
p94
sg6
S'PRESS DIGEST - Financial Times - Feb 8'
p95
sa(dp96
g2
S'http://www.reuters.com/article/pressRelease/idUS31459+08-Feb-2010+PRN20100208'
p97
sg4
S'20100207\xc2\xa011:00PM UTC'
p98
sg6
S'Following Is a Test Release'
p99
sa(dp100
g2
S'http://www.reuters.com/article/hotStocksNews/idUSJKF00230720100208'
p101
sg4
S'20100207\xc2\xa010:57PM UTC'
p102
sg6
S'Indonesia to place limits on retail sukuk purchases'
p103
sa(dp104
g2
S'http://www.reuters.com/article/hotStocksNews/idUSN0714399220100208'
p105
sg4
S'20100207\xc2\xa010:51PM UTC'
p106
sg6
S'Chinchilla headed for clear Costa Rica election win'
p107
sa(dp108
g2
S'http://www.reuters.com/article/rbssFinancialServicesAndRealEstateNews/idUSTOE61703420100208'
p109
sg4
S'20100207\xc2\xa010:44PM UTC'
p110
sg6
S'South Korean markets at 0340 GMT'
p111
sa(dp112
g2
S'http://www.reuters.com/article/technologyNews/idUSTRE6170H420100208'
p113
sg4
S'20100207\xc2\xa010:41PM UTC'
p114
sg6
S'China shuts down largest hacker training website'
p115
sa(dp116
g2
S'http://www.reuters.com/article/tokyoMktRpt/idUSTKW00680120100208'
p117
sg4
S'20100207\xc2\xa010:39PM UTC'
p118
sg6
S'Kirin extends losses as merger talks with Suntory end'
p119
sa(dp120
g2
S'http://www.reuters.com/article/rbssInvestmentTrusts/idUSBMA00694720100208'
p121
sg4
S'20100207\xc2\xa010:36PM UTC'
p122
sg6
S'Indian shares fall 0.5 pct; Infosys, Reliance down'
p123
sa(dp124
g2
S'http://www.reuters.com/article/pressRelease/idUS29477+08-Feb-2010+PRN20100208'
p125
sg4
S'20100207\xc2\xa010:30PM UTC'
p126
sg6
S'Following Is a Test Release'
p127
sa(dp128
g2
S'http://www.reuters.com/article/technologySector/idUSTOE61702620100208'
p129
sg4
S'20100207\xc2\xa010:28PM UTC'
p130
sg6
S'China shuts down largest hacker training website'
p131
sa(dp132
g2
S'http://www.reuters.com/article/hotStocksNews/idUSJKF00230620100208'
p133
sg4
S'20100207\xc2\xa010:28PM UTC'
p134
sg6
S'Indonesia raises 8 trln rupiah from retail sukuk'
p135
sa(dp136
g2
S'http://www.reuters.com/article/etfNews/idUSLDE61700U20100208'
p137
sg4
S'20100207\xc2\xa010:24PM UTC'
p138
sg6
S'PRESS DIGEST - British business - Feb 8'
p139
sa(dp140
g2
S'http://www.reuters.com/article/worldNews/idUSTRE6170G920100208'
p141
sg4
S'20100207\xc2\xa010:22PM UTC'
p142
sg6
S'China seizes more melamine-tainted milk powder'
p143
sa(dp144
g2
S'http://www.reuters.com/article/hotStocksNews/idUSN0717369520100208'
p145
sg4
S'20100207\xc2\xa010:22PM UTC'
p146
sg6
S"Costa Rica's Solis concedes defeat in election"
p147
sa(dp148
g2
S'http://www.reuters.com/article/latestCrisis/idUSTOE61701K'
p149
sg4
S'20100207\xc2\xa010:20PM UTC'
p150
sg6
S'China seizes more melamine-tainted milk powder'
p151
sa(dp152
g2
S'http://www.reuters.com/article/usDollarRpt/idUSTOE61702N20100208'
p153
sg4
S'20100207\xc2\xa010:18PM UTC'
p154
sg6
S'FOREX-Euro slips as eurozone fiscal woes fester'
p155
sa(dp156
g2
S'http://www.reuters.com/article/pressRelease/idUS28009+08-Feb-2010+BW20100208'
p157
sg4
S'20100207\xc2\xa010:11PM UTC'
p158
sg6
S'Western Union gibt Ergebnisse des vierten Quartals und des Gesamtjahres bekannt'
p159
sa(dp160
g2
S'http://www.reuters.com/article/pressRelease/idUS27741+08-Feb-2010+PRN20100208'
p161
sg4
S'20100207\xc2\xa010:08PM UTC'
p162
sg6
S'Four Consumer-Created Doritos Ads Crash The Super Bowl, Now Face The Pros In Attempt To Win $5 Million Prize'
p163
sa(dp164
g2
S'http://www.reuters.com/article/pressRelease/idUS27718+08-Feb-2010+MW20100208'
p165
sg4
S'20100207\xc2\xa010:07PM UTC'
p166
sg6
S" kgb's 542542 Text Answer Service Runs 30-Second Commercial During Super Bowl XLIV"
p167
sa(dp168
g2
S'http://www.reuters.com/article/pressRelease/idUS26997+08-Feb-2010+PRN20100208'
p169
sg4
S'20100207\xc2\xa010:00PM UTC'
p170
sg6
S'Following Is a Test Release'
p171
sa(dp172
g2
S'http://www.reuters.com/article/pressRelease/idUS26949+08-Feb-2010+BW20100208'
p173
sg4
S'20100207\xc2\xa010:00PM UTC'
p174
sg6
S'Samsung 500GB External HDD Available Pre-loaded with `Michael Jackson`s THIS IS IT`'
p175
sa(dp176
g2
S'http://www.reuters.com/article/pressRelease/idUS26845+08-Feb-2010+MW20100208'
p177
sg4
S'20100207\xc2\xa09:58PM UTC'
p178
sg6
S' Save The World Technologies to Exit Tree Business'
p179
sa(dp180
g2
S'http://www.reuters.com/article/pressReleasesMolt/idUSTRE6170EK20100208'
p181
sg4
S'20100207\xc2\xa09:52PM UTC'
p182
sg6
S'Barclays poaches 3 more private bankers from UBS'
p183
sa(dp184
g2
S'http://www.reuters.com/article/pressRelease/idUS26342+08-Feb-2010+MW20100208'
p185
sg4
S'20100207\xc2\xa09:50PM UTC'
p186
sg6
S' New Solid European Tie-Ups for HotelsCombined.com'
p187
sa(dp188
g2
S'http://www.reuters.com/article/swissMktRpt/idUSSGE61700S20100208'
p189
sg4
S'20100207\xc2\xa09:49PM UTC'
p190
sg6
S'UPDATE 1-Barclays poaches 3 more private bankers from UBS'
p191
sa(dp192
g2
S'http://www.reuters.com/article/managementIssues/idUSN0714446520100208'
p193
sg4
S'20100207\xc2\xa09:48PM UTC'
p194
sg6
S'CORRECTED - CIT, emerging from bankruptcy, hires Thain as CEO'
p195
sa(dp196
g2
S'http://www.reuters.com/article/hotStocksNews/idUSSGE61701U20100208'
p197
sg4
S'20100207\xc2\xa09:46PM UTC'
p198
sg6
S'NFL-New Orleans Saints defeat Indianapolis to win Super Bowl'
p199
sa(dp200
g2
S'http://www.reuters.com/article/privateEquity/idUSTOE61702E20100208'
p201
sg4
S'20100207\xc2\xa09:46PM UTC'
p202
sg6
S'CITIC Capital raises 2nd China buyout fund, $925 mln'
p203
sa(dp204
g2
S'http://www.reuters.com/article/televisionNews/idUSTRE6170DS20100208'
p205
sg4
S'20100207\xc2\xa09:42PM UTC'
p206
sg6
S'Henry Winkler joins USA\'s "Royal Pains"'
p207
sa(dp208
g2
S'http://www.reuters.com/article/hotStocksNews/idUSSGC00347920100208'
p209
sg4
S'20100207\xc2\xa09:40PM UTC'
p210
sg6
S"Genting S'pore shares up as much as 5.4 pct on casino"
p211
sa(dp212
g2
S'http://www.reuters.com/article/pressRelease/idUS25063+08-Feb-2010+PRN20100208'
p213
sg4
S'20100207\xc2\xa09:36PM UTC'
p214
sg6
S'The Who Rocks Bridgestone Super Bowl Halftime Show at Super Bowl XLIV on CBS'
p215
sa(dp216
g2
S'http://www.reuters.com/article/hotStocksNews/idUSN0617369520100208'
p217
sg4
S'20100207\xc2\xa09:35PM UTC'
p218
sg6
S"Ruling party's Chinchilla ahead in Costa Rica vote"
p219
sa(dp220
g2
S'http://www.reuters.com/article/entertainmentNews/idUSTRE6170D820100208'
p221
sg4
S'20100207\xc2\xa09:32PM UTC'
p222
sg6
S'NBC considers lifting Emmys tape delay'
p223
sa(dp224
g2
S'http://www.reuters.com/article/pressRelease/idUS24317+08-Feb-2010+PRN20100208'
p225
sg4
S'20100207\xc2\xa09:30PM UTC'
p226
sg6
S'Following Is a Test Release'
p227
sa(dp228
g2
S'http://www.reuters.com/article/winterOlympic/idUSLDE61700L20100208'
p229
sg4
S'20100207\xc2\xa09:27PM UTC'
p230
sg6
S'UK police to use anti-terror powers at 2012 games'
p231
sa(dp232
g2
S'http://www.reuters.com/article/companyNews/idUSTOE61701X20100208'
p233
sg4
S'20100207\xc2\xa09:21PM UTC'
p234
sg6
S'Nikkei hits 2-mth low as exporters fall; Toyota up'
p235
sa(dp236
g2
S'http://www.reuters.com/article/marketsNews/idUSTOE61701A20100208'
p237
sg4
S'20100207\xc2\xa09:16PM UTC'
p238
sg6
S'JGBs gain after Treasuries rise, Nikkei hits 2-mth low'
p239
sa(dp240
g2
S'http://www.reuters.com/article/SCHOOL/idUSN0716080420100208'
p241
sg4
S'20100207\xc2\xa09:15PM UTC'
p242
sg6
S'UPDATE 2-US federal agencies to close Monday after blizzard'
p243
sa(dp244
g2
S'http://www.reuters.com/article/latestCrisis/idUSN07160804'
p245
sg4
S'20100207\xc2\xa09:15PM UTC'
p246
sg6
S'US federal agencies to close Monday after blizzard'
p247
sa(dp248
g2
S'http://www.reuters.com/article/financialsSector/idUSSGE61700L20100208'
p249
sg4
S'20100207\xc2\xa09:09PM UTC'
p250
sg6
S'Affinity looks to sell Australian Loscam - sources'
p251
sa(dp252
g2
S'http://www.reuters.com/article/rbssInvestmentServices/idUSTOE61701P20100208'
p253
sg4
S'20100207\xc2\xa09:09PM UTC'
p254
sg6
S'PRESS DIGEST - Hong Kong - Feb 8'
p255
sa(dp256
g2
S'http://www.reuters.com/article/rbssInvestmentServices/idUSTOE61701O20100208'
p257
sg4
S'20100207\xc2\xa09:08PM UTC'
p258
sg6
S'Seoul shares slip; banks, Kumho Asiana issues fall'
p259
sa(dp260
g2
S'http://www.reuters.com/article/sportsNews/idUSTRE6170BL20100208'
p261
sg4
S'20100207\xc2\xa09:08PM UTC'
p262
sg6
S'Hurricanes trade veteran defenseman Wallin to Sharks'
p263
sa(dp264
g2
S'http://www.reuters.com/article/GCA-CreditCrisis/idUSTRE6170BE20100208'
p265
sg4
S'20100207\xc2\xa09:07PM UTC'
p266
sg6
S'CIT, emerging from bankruptcy, hires Thain as CEO'
p267
sa(dp268
g2
S'http://www.reuters.com/article/hotStocksNews/idUSWEN984720100208'
p269
sg4
S'20100207\xc2\xa09:05PM UTC'
p270
sg6
S'BRIEF-Siam Cement to buy 51 pct of Q-CON for $24.6 mln'
p271
sa(dp272
g2
S'http://www.reuters.com/article/pressRelease/idUS21170+08-Feb-2010+PRN20100208'
p273
sg4
S'20100207\xc2\xa09:00PM UTC'
p274
sg6
S'Following Is a Test Release'
p275
sa(dp276
g2
S'http://www.reuters.com/article/pressRelease/idUS21133+08-Feb-2010+BW20100208'
p277
sg4
S'20100207\xc2\xa09:00PM UTC'
p278
sg6
S'CIT Board of Directors Elects John A. Thain Chairman and Chief Executive Officer'
p279
sa(dp280
g2
S'http://www.reuters.com/article/pressRelease/idUS21126+08-Feb-2010+BW20100208'
p281
sg4
S'20100207\xc2\xa09:00PM UTC'
p282
sg6
S'Kuraray Commences New PVB Resin Production Line in Europe'
p283
sa(dp284
g2
S'http://www.reuters.com/article/hongkongMktRpt/idUSHKF00013920100208'
p285
sg4
S'20100207\xc2\xa08:56PM UTC'
p286
sg6
S'HK stocks to open at 5-mth low; China Resources up'
p287
sa(dp288
g2
S'http://www.reuters.com/article/latestCrisis/idUSHAN31841'
p289
sg4
S'20100207\xc2\xa08:54PM UTC'
p290
sg6
S'PRESS DIGEST - Vietnam newspapers - Feb 8'
p291
sa(dp292
g2
S'http://www.reuters.com/article/companyNews/idUSTOE61701020100208'
p293
sg4
S'20100207\xc2\xa08:41PM UTC'
p294
sg6
S'Nikkei hits 2-mth low as exporters fall; Toyota up'
p295
sa(dp296
g2
S'http://www.reuters.com/article/pressRelease/idUS19739+08-Feb-2010+PRN20100208'
p297
sg4
S'20100207\xc2\xa08:41PM UTC'
p298
sg6
S"Volkswagen 'Punch Dub' Super Bowl Ad Features Cameos by Multiple Grammy-Award Winner and U.S. Messenger of Peace Designee Stevie Wonder and Comedian Tracy Morgan"
p299
sa(dp300
g2
S'http://www.reuters.com/article/pressRelease/idUS19673+08-Feb-2010+PRN20100208'
p301
sg4
S'20100207\xc2\xa08:40PM UTC'
p302
sg6
S'2010 Census Ad Campaign Positioned to Save Taxpayers Millions Helping Boost Mail Back Participation Rates'
p303
sa(dp304
g2
S'http://www.reuters.com/article/ousiv/idUSTRE6170AB20100208'
p305
sg4
S'20100207\xc2\xa08:36PM UTC'
p306
sg6
S'Down for 4th straight week; CRB loses 9 percent'
p307
sa(dp308
g2
S'http://www.reuters.com/article/sportsNews/idUSTRE61623W20100208'
p309
sg4
S'20100207\xc2\xa08:35PM UTC'
p310
sg6
S'Magic explode in third quarter to beat Celtics'
p311
sa(dp312
g2
S'http://www.reuters.com/article/idgSmallBusiness/idUS152201935320100208'
p313
sg4
S'20100207\xc2\xa08:34PM UTC'
p314
sg6
S'Apotheker is out as SAP CEO'
p315
sa(dp316
g2
S'http://www.reuters.com/article/sportsNews/idUSTRE61625G20100208'
p317
sg4
S'20100207\xc2\xa08:30PM UTC'
p318
sg6
S'Stricker to hunt Woods after Northern Trust win'
p319
sa(dp320
g2
S'http://www.reuters.com/article/pressRelease/idUS18767+08-Feb-2010+PRN20100208'
p321
sg4
S'20100207\xc2\xa08:30PM UTC'
p322
sg6
S'Following Is a Test Release'
p323
sa(dp324
g2
S'http://www.reuters.com/article/pressRelease/idUS18659+08-Feb-2010+PRN20100208'
p325
sg4
S'20100207\xc2\xa08:29PM UTC'
p326
sg6
S"Leading Pro-Life Group Reacts to Tebow's Super Bowl Ad"
p327
sa(dp328
g2
S'http://www.reuters.com/article/sportsNews/idUSTRE61709C20100208'
p329
sg4
S'20100207\xc2\xa08:27PM UTC'
p330
sg6
S"Vancouver's smoke-free Games plan runs out of puff"
p331
sa(dp332
g2
S'http://www.reuters.com/article/latestCrisis/idUSTOE61601S'
p333
sg4
S'20100207\xc2\xa08:25PM UTC'
p334
sg6
S'RPT-Envoys go to North Korea for nuclear talks push'
p335
sa(dp336
g2
S'http://www.reuters.com/article/bondsNews/idUSTOE61602320100208'
p337
sg4
S'20100207\xc2\xa08:25PM UTC'
p338
sg6
S'JGBs gain after Treasuries rise, Nikkei hits 2-mth low'
p339
sa(dp340
g2
S'http://www.reuters.com/article/companyNewsAndPR/idUSLDE61700820100208'
p341
sg4
S'20100207\xc2\xa08:25PM UTC'
p342
sg6
S'BT to open up broadband tunnel network to rivals - FT'
p343
sa(dp344
g2
S'http://www.reuters.com/article/hongkongMktRpt/idUSTOE61700R20100208'
p345
sg4
S'20100207\xc2\xa08:21PM UTC'
p346
sg6
S'HK stocks may fall on weak markets, crisis worries'
p347
sa(dp348
g2
S'http://www.reuters.com/article/hotStocksNews/idUSSGE61700I20100208'
p349
sg4
S'20100207\xc2\xa08:19PM UTC'
p350
sg6
S"LME metals rally, paring last week's losses"
p351
sa(dp352
g2
S'http://www.reuters.com/article/hotStocksNews/idUSECB00056920100208'
p353
sg4
S'20100207\xc2\xa08:19PM UTC'
p354
sg6
S'Chinese c.bank sets yuan mid-point at 6.8273'
p355
sa(dp356
g2
S'http://www.reuters.com/article/hotStocksNews/idUSSYU00936720100208'
p357
sg4
S'20100207\xc2\xa08:17PM UTC'
p358
sg6
S'Santos lifts 2P reserve estimates by 42 pct'
p359
sa(dp360
g2
S'http://www.reuters.com/article/hotStocksNews/idUSSEL00295220100208'
p361
sg4
S'20100207\xc2\xa08:15PM UTC'
p362
sg6
S'S.Korea KDIC to offer shares in Korea Life via IPO'
p363
sa(dp364
g2
S'http://www.reuters.com/article/hotStocksNews/idUSSGC00347820100208'
p365
sg4
S'20100207\xc2\xa08:09PM UTC'
p366
sg6
S'Genting Singapore halts trade pending announcement'
p367
sa(dp368
g2
S'http://www.reuters.com/article/pressReleasesMolt/idUSTRE61708920100208'
p369
sg4
S'20100207\xc2\xa08:08PM UTC'
p370
sg6
S'Citi in talks over $3 billion in car loans: report'
p371
sa(dp372
g2
S'http://www.reuters.com/article/hotStocksNews/idUSTPU00213820100208'
p373
sg4
S'20100207\xc2\xa08:08PM UTC'
p374
sg6
S'Taiwan stocks rise on LCD shares; AU up'
p375
sa(dp376
g2
S'http://www.reuters.com/article/privateEquityFinancialServicesAndRealEstate/idUSN0713902820100208'
p377
sg4
S'20100207\xc2\xa08:02PM UTC'
p378
sg6
S'Citi in talks over $3 bln in car loans - FT'
p379
sa(dp380
g2
S'http://www.reuters.com/article/pressRelease/idUS15894+08-Feb-2010+PRN20100208'
p381
sg4
S'20100207\xc2\xa08:00PM UTC'
p382
sg6
S'Following Is a Test Release'
p383
sa(dp384
g2
S'http://www.reuters.com/article/pressRelease/idUS15859+08-Feb-2010+BW20100208'
p385
sg4
S'20100207\xc2\xa08:00PM UTC'
p386
sg6
S'Robbins Umeda LLP Announces an Investigation of the Acquisition of Airgas, Inc. by Air Products & Chemicals Inc.'
p387
sa(dp388
g2
S'http://www.reuters.com/article/cyclicalConsumerGoodsSector/idUSTOE61602420100208'
p389
sg4
S'20100207\xc2\xa07:59PM UTC'
p390
sg6
S'UPDATE 1-Toyota shares up after apology, Prius recall news'
p391
sa(dp392
g2
S'http://www.reuters.com/article/swissMktRpt/idUSSGC00347720100208'
p393
sg4
S'20100207\xc2\xa07:57PM UTC'
p394
sg6
S'Barclays Wealth names Malhotra head of South Asia'
p395
sa(dp396
g2
S'http://www.reuters.com/article/hotStocksNews/idUSLDE61700420100208'
p397
sg4
S'20100207\xc2\xa07:53PM UTC'
p398
sg6
S"Ukraine's Yanukovich ahead with half of votes counted"
p399
sa(dp400
g2
S'http://www.reuters.com/article/pressRelease/idUS15350+08-Feb-2010+BW20100208'
p401
sg4
S'20100207\xc2\xa07:53PM UTC'
p402
sg6
S'Samson Oil & Gas Advises on the Gene #1-22H Well'
p403
sa(dp404
g2
S'http://www.reuters.com/article/basicMaterialsSector/idUSSYU00936620100208'
p405
sg4
S'20100207\xc2\xa07:52PM UTC'
p406
sg6
S'REFILE-BHP names new iron ore head as Rio venture nears'
p407
sa(dp408
g2
S'http://www.reuters.com/article/companyNewsAndPR/idUSTKU10584220100208'
p409
sg4
S'20100207\xc2\xa07:50PM UTC'
p410
sg6
S"BOJ's Yamaguchi:Japan economy may hit soft patch"
p411
sa(dp412
g2
S'http://www.reuters.com/article/bondsNews/idUSTKU10584120100208'
p413
sg4
S'20100207\xc2\xa07:45PM UTC'
p414
sg6
S'Japan Kan: World needs caution on excess liquidity'
p415
sa(dp416
g2
S'http://www.reuters.com/article/sportsNews/idUSTRE61705R20100208'
p417
sg4
S'20100207\xc2\xa07:45PM UTC'
p418
sg6
S'Give a home to us not the Olympics, say protesters'
p419
sa(dp420
g2
S'http://www.reuters.com/article/newsMaps/idUSTRE61621N20100208'
p421
sg4
S'20100207\xc2\xa07:39PM UTC'
p422
sg6
S'Argentine ex-Pres Kirchner has emergency surgery'
p423
sa(dp424
g2
S'http://www.reuters.com/article/usDollarRpt/idUSN0715724720100208'
p425
sg4
S'20100207\xc2\xa07:38PM UTC'
p426
sg6
S'UPDATE 3-Argentine ex-Pres Kirchner has emergency surgery'
p427
sa(dp428
g2
S'http://www.reuters.com/article/latestCrisis/idUSN07157247'
p429
sg4
S'20100207\xc2\xa07:38PM UTC'
p430
sg6
S'Argentine ex-Pres Kirchner has emergency surgery'
p431
sa(dp432
g2
S'http://www.reuters.com/article/pressRelease/idUS12837+08-Feb-2010+PRN20100208'
p433
sg4
S'20100207\xc2\xa07:30PM UTC'
p434
sg6
S'Following Is a Test Release'
p435
sa(dp436
g2
S'http://www.reuters.com/article/pressRelease/idUS12671+08-Feb-2010+PRN20100208'
p437
sg4
S'20100207\xc2\xa07:28PM UTC'
p438
sg6
S'National Press Club Luncheon with Agriculture Secretary Tom Vilsack Cancelled'
p439
sa(dp440
g2
S'http://www.reuters.com/article/pressRelease/idUS12573+08-Feb-2010+PRN20100208'
p441
sg4
S'20100207\xc2\xa07:27PM UTC'
p442
sg6
S"CareerBuilder's 'Casual Friday' Crowned Winner of TV Ad Contest During Big Game's 2nd Quarter"
p443
sa(dp444
g2
S'http://www.reuters.com/article/hotStocksNews/idUSWNA345020100208'
p445
sg4
S'20100207\xc2\xa07:26PM UTC'
p446
sg6
S"BRIEF-Moody's places GMAC Servicing Advance Facility on review"
p447
sa(dp448
g2
S'http://www.reuters.com/article/lifestyleMolt/idUSTRE61702V20100208'
p449
sg4
S'20100207\xc2\xa07:23PM UTC'
p450
sg6
S"X-Factor's twins Jedward miss out on No. 1 spot"
p451
sa(dp452
g2
S'http://www.reuters.com/article/homepageCrisis/idUSN07132514._CH_.2400'
p453
sg4
S'20100207\xc2\xa07:19PM UTC'
p454
sg6
S'Haiti protesters denounce aid corruption, hoarding'
p455
sa(dp456
g2
S'http://www.reuters.com/article/latestCrisis/idUSN07132514'
p457
sg4
S'20100207\xc2\xa07:19PM UTC'
p458
sg6
S'Haiti protesters denounce aid corruption, hoarding'
p459
sa(dp460
g2
S'http://www.reuters.com/article/GCA-BusinessofGreen/idUSTRE61701J20100208'
p461
sg4
S'20100207\xc2\xa07:16PM UTC'
p462
sg6
S'UK should press EU for tighter carbon caps'
p463
sa(dp464
g2
S'http://www.reuters.com/article/ELECTU/idUSN0716110420100208'
p465
sg4
S'20100207\xc2\xa07:15PM UTC'
p466
sg6
S'UPDATE 9-At least 5 dead in Connecticut power plant blast'
p467
sa(dp468
g2
S'http://www.reuters.com/article/latestCrisis/idUSN07161104'
p469
sg4
S'20100207\xc2\xa07:15PM UTC'
p470
sg6
S'At least 5 dead in Connecticut power plant blast'
p471
sa(dp472
g2
S'http://www.reuters.com/article/rbssOilRelatedServicesEquipment/idUSSGE60P00320100208'
p473
sg4
S'20100207\xc2\xa07:13PM UTC'
p474
sg6
S'PRESS DIGEST - Malaysia - Feb 8'
p475
sa(dp476
g2
S'http://www.reuters.com/article/hotStocksNews/idUSTOE61700120100208'
p477
sg4
S'20100207\xc2\xa07:08PM UTC'
p478
sg6
S'Seoul shares open lower; Kumho Petrochem tumbles'
p479
sa(dp480
g2
S'http://www.reuters.com/article/tokyoMktRpt/idUSTKW00680020100208'
p481
sg4
S'20100207\xc2\xa07:08PM UTC'
p482
sg6
S'Nikkei hits 2-mth low as exporters fall, Toyota up'
p483
sa(dp484
g2
S'http://www.reuters.com/article/regulatoryNewsHealthcare/idUSN0715185020100208'
p485
sg4
S'20100207\xc2\xa07:05PM UTC'
p486
sg6
S'Obama invites Republicans to healthcare session'
p487
sa(dp488
g2
S'http://www.reuters.com/article/latestCrisis/idUSN07151850'
p489
sg4
S'20100207\xc2\xa07:05PM UTC'
p490
sg6
S'Obama invites Republicans to healthcare session'
p491
sa(dp492
g2
S'http://www.reuters.com/article/economicNews/idUSTOE5B608920100208'
p493
sg4
S'20100207\xc2\xa07:05PM UTC'
p494
sg6
S'REFILE-Japan Jan M3 money supply +2.1 pct yr/yr - BOJ'
p495
sa(dp496
g2
S'http://www.reuters.com/article/latestCrisis/idUSLDE615051'
p497
sg4
S'20100207\xc2\xa07:01PM UTC'
p498
sg6
S'Study links oestrogen hormone therapy to asthma'
p499
sa(dp500
g2
S'http://www.reuters.com/article/pressRelease/idUS10140+08-Feb-2010+GNW20100208'
p501
sg4
S'20100207\xc2\xa07:00PM UTC'
p502
sg6
S'Nidec to Acquire SC WADO Co., Ltd. Through Nidec Electronics (Thailand) Co., Ltd.'
p503
sa(dp504
g2
S'http://www.reuters.com/article/pressRelease/idUS10137+08-Feb-2010+MW20100208'
p505
sg4
S'20100207\xc2\xa07:00PM UTC'
p506
sg6
S' Fire and Accidental Damage Most Important Van Insurance Criteria'
p507
sa(dp508
g2
S'http://www.reuters.com/article/pressRelease/idUS10132+08-Feb-2010+MW20100208'
p509
sg4
S'20100207\xc2\xa07:00PM UTC'
p510
sg6
S' UK Office Supplies Giant AOS Online Expand New Product Range in 2010'
p511
sa(dp512
g2
S'http://www.reuters.com/article/pressRelease/idUS10126+08-Feb-2010+MW20100208'
p513
sg4
S'20100207\xc2\xa07:00PM UTC'
p514
sg6
S' Insurers Abusing Their Powers In Accident Claims Warn Solicitors'
p515
sa(dp516
g2
S'http://www.reuters.com/article/pressRelease/idUS10121+08-Feb-2010+MW20100208'
p517
sg4
S'20100207\xc2\xa07:00PM UTC'
p518
sg6
S' Safeguard Welcomes News of Conviction of Traveller Gang'
p519
sa(dp520
g2
S'http://www.reuters.com/article/pressRelease/idUS10113+08-Feb-2010+MW20100208'
p521
sg4
S'20100207\xc2\xa07:00PM UTC'
p522
sg6
S' 70% Drivers NEVER Check Their Oil: Swinton Car Insurance'
p523
sa(dp524
g2
S'http://www.reuters.com/article/pressRelease/idUS10110+08-Feb-2010+MW20100208'
p525
sg4
S'20100207\xc2\xa07:00PM UTC'
p526
sg6
S' Electronic Gadgets Revealed as Homeowners Most Treasured Possessions'
p527
sa(dp528
g2
S'http://www.reuters.com/article/pressRelease/idUS10030+08-Feb-2010+PRN20100208'
p529
sg4
S'20100207\xc2\xa07:00PM UTC'
p530
sg6
S'Following Is a Test Release'
p531
sa(dp532
g2
S'http://www.reuters.com/article/topNews/idUSTRE61619Q20100207'
p533
sg4
S'20100207\xc2\xa06:58PM UTC'
p534
sg6
S'At least 5 dead in Connecticut gas plant blast'
p535
sa(dp536
g2
S'http://www.reuters.com/article/usDollarRpt/idUSN0715724720100207'
p537
sg4
S'20100207\xc2\xa06:58PM UTC'
p538
sg6
S'UPDATE 2-Argentine ex-Pres Kirchner has emergency surgery'
p539
sa(dp540
g2
S'http://www.reuters.com/article/companyNews/idUSN0716155720100207'
p541
sg4
S'20100207\xc2\xa06:51PM UTC'
p542
sg6
S'No injuries in Louisiana refinery blast -local media'
p543
sa(dp544
g2
S'http://www.reuters.com/article/ousivMolt/idUSTRE5BF27F20100207'
p545
sg4
S'20100207\xc2\xa06:46PM UTC'
p546
sg6
S'Euro looking sick as eurozone fiscal woes fester'
p547
sa(dp548
g2
S'http://www.reuters.com/article/sportsNews/idUSTRE61625V20100207'
p549
sg4
S'20100207\xc2\xa06:45PM UTC'
p550
sg6
S'Media banned from training at snow starved Games venue'
p551
sa(dp552
g2
S'http://www.reuters.com/article/winterOlympic/idUSLDE6100ZW20100207'
p553
sg4
S'20100207\xc2\xa06:44PM UTC'
p554
sg6
S'TAKE A LOOK-Vancouver 2010 Winter Olympics'
p555
sa(dp556
g2
S'http://www.reuters.com/article/hotStocksNews/idUSSEL00295120100207'
p557
sg4
S'20100207\xc2\xa06:43PM UTC'
p558
sg6
S'Trading in Kumho Industrial suspended -S.Korea bourse'
p559
sa(dp560
g2
S'http://www.reuters.com/article/sportsNews/idUSTRE61625G20100207'
p561
sg4
S'20100207\xc2\xa06:42PM UTC'
p562
sg6
S'Stricker wins Northern Trust Open by two strokes'
p563
sa(dp564
g2
S'http://www.reuters.com/article/GCA-Autos/idUSTRE61625920100207'
p565
sg4
S'20100207\xc2\xa06:41PM UTC'
p566
sg6
S'Toyota mulling recall on Sai, Lexus hybrid: report'
p567
sa(dp568
g2
S'http://www.reuters.com/article/GCA-BarackObama/idUSTRE61625020100207'
p569
sg4
S'20100207\xc2\xa06:41PM UTC'
p570
sg6
S'Holding September 11 trial in New York difficult: Obama'
p571
sa(dp572
g2
S'http://www.reuters.com/article/financialsSector/idUSTOE61601K20100207'
p573
sg4
S'20100207\xc2\xa06:38PM UTC'
p574
sg6
S'Seoul shares may rebound; eyes on Kumho Industrial'
p575
sa(dp576
g2
S'http://www.reuters.com/article/rbssAutoTruckManufacturers/idUSTOE61601H20100207'
p577
sg4
S'20100207\xc2\xa06:37PM UTC'
p578
sg6
S'Toyota mulling recall on Sai, Lexus hybrid-Nikkei'
p579
sa(dp580
g2
S'http://www.reuters.com/article/bondsNews/idUSN0713075320100207'
p581
sg4
S'20100207\xc2\xa06:37PM UTC'
p582
sg6
S'Holding Sept. 11 trial in New York difficult -Obama'
p583
sa(dp584
g2
S'http://www.reuters.com/article/domesticNews/idUSTRE6144K120100207'
p585
sg4
S'20100207\xc2\xa06:35PM UTC'
p586
sg6
S'Mid-Atlantic digs out from blizzard'
p587
sa(dp588
g2
S'http://www.reuters.com/article/pressRelease/idUS71803+07-Feb-2010+PRN20100207'
p589
sg4
S'20100207\xc2\xa06:30PM UTC'
p590
sg6
S'Following Is a Test Release'
p591
sa(dp592
g2
S'http://www.reuters.com/article/sportsNews/idUSTRE61623W20100207'
p593
sg4
S'20100207\xc2\xa06:28PM UTC'
p594
sg6
S'Magic explode for 19-0 run in third to top Celtics'
p595
sa(dp596
g2
S'http://www.reuters.com/article/pressRelease/idUS71466+07-Feb-2010+MW20100207'
p597
sg4
S'20100207\xc2\xa06:25PM UTC'
p598
sg6
S' Common Sense Says "Root for the Underdogs"'
p599
sa(dp600
g2
S'http://www.reuters.com/article/pressRelease/idUS71437+07-Feb-2010+PRN20100207'
p601
sg4
S'20100207\xc2\xa06:25PM UTC'
p602
sg6
S'E*TRADE Reveals Super Bowl(R) XLIV Advertisements'
p603
sa(dp604
g2
S'http://www.reuters.com/article/companyNews/idUSTOE61601A20100207'
p605
sg4
S'20100207\xc2\xa06:24PM UTC'
p606
sg6
S"Japan's Nikkei set to slip on yen; Toyota in focus"
p607
sa(dp608
g2
S'http://www.reuters.com/article/pressReleasesMolt/idUSTRE6161TS20100207'
p609
sg4
S'20100207\xc2\xa06:23PM UTC'
p610
sg6
S'SAP CEO resigns unexpectedly, co-CEOs appointed'
p611
sa(dp612
g2
S'http://www.reuters.com/article/managementIssues/idUSLDE6160MF20100207'
p613
sg4
S'20100207\xc2\xa06:23PM UTC'
p614
sg6
S'UPDATE 2-SAP CEO resigns unexpectedly, co-CEOs appointed'
p615
sa(dp616
g2
S'http://www.reuters.com/article/politicsNews/idUSTRE6161GN20100207'
p617
sg4
S'20100207\xc2\xa06:17PM UTC'
p618
sg6
S'Obama anti-terror adviser lashes out at lawmakers'
p619
sa(dp620
g2
S'http://www.reuters.com/article/sportsNews/idUSTRE61623320100207'
p621
sg4
S'20100207\xc2\xa06:15PM UTC'
p622
sg6
S'Canadians say you get what you pay for'
p623
sa(dp624
g2
S'http://www.reuters.com/article/hotStocksNews/idUSN0710050820100207'
p625
sg4
S'20100207\xc2\xa06:13PM UTC'
p626
sg6
S'Exxon reports Baytown refinery coker upset - filing'
p627
sa(dp628
g2
S'http://www.reuters.com/article/GCA-BarackObama/idUSTRE6161SP20100207'
p629
sg4
S'20100207\xc2\xa06:12PM UTC'
p630
sg6
S'Obama, partial to Saints, hosts Super Bowl party'
p631
sa(dp632
g2
S'http://www.reuters.com/article/latestCrisis/idUSN07142452'
p633
sg4
S'20100207\xc2\xa06:09PM UTC'
p634
sg6
S'Obama anti-terror adviser lashes out at lawmakers'
p635
sa(dp636
g2
S'http://www.reuters.com/article/RCOMUS_NWS/idUSRTR29TKG'
p637
sg4
S'20100207\xc2\xa06:05PM UTC'
p638
sg6
S'Ukraine votes'
p639
sa(dp640
g2
S'http://www.reuters.com/article/GCA-BusinessofGreen/idUSTRE61622I20100207'
p641
sg4
S'20100207\xc2\xa06:04PM UTC'
p642
sg6
S'"Smart" power key as EU sparks electric car debate'
p643
sa(dp644
g2
S'http://www.reuters.com/article/financialsSector/idUSSGE61602O20100207'
p645
sg4
S'20100207\xc2\xa06:01PM UTC'
p646
sg6
S'UPDATE 1-AMP to consider position on $11 bln AXA Asia deal'
p647
sa(dp648
g2
S'http://www.reuters.com/article/rbssConsumerGoodsAndRetailNews/idUSLDE6140TP20100207'
p649
sg4
S'20100207\xc2\xa06:01PM UTC'
p650
sg6
S'"Smart" power key as EU sparks electric car debate'
p651
sa(dp652
g2
S'http://www.reuters.com/article/pressRelease/idUS69620+07-Feb-2010+PRN20100207'
p653
sg4
S'20100207\xc2\xa06:00PM UTC'
p654
sg6
S'Following Is a Test Release'
p655
sa(dp656
g2
S'http://www.reuters.com/article/pressRelease/idUS69616+07-Feb-2010+PRN20100207'
p657
sg4
S'20100207\xc2\xa06:00PM UTC'
p658
sg6
S'Our Shepherd Lutheran Childcare Opens Expanded Facility with Rooms for New Oakland County Families and Added Employment Opportunities'
p659
sa(dp660
g2
S'http://www.reuters.com/article/pressRelease/idUS69609+07-Feb-2010+BW20100207'
p661
sg4
S'20100207\xc2\xa06:00PM UTC'
p662
sg6
S"Research and Markets: Fertilizer Market in China - China's Fertilizer Industry Will Usher Many New Development Opportunities"
p663
sa(dp664
g2
S'http://www.reuters.com/article/pressRelease/idUS69608+07-Feb-2010+BW20100207'
p665
sg4
S'20100207\xc2\xa06:00PM UTC'
p666
sg6
S'Research and Markets: The Taiwanese Server Motherboard Industry - the Updated 4Q 2009 Edition'
p667
sa(dp668
g2
S'http://www.reuters.com/article/pressRelease/idUS69607+07-Feb-2010+BW20100207'
p669
sg4
S'20100207\xc2\xa06:00PM UTC'
p670
sg6
S'Research and Markets: The Taiwanese Server System Industry - the Updated 4Q 2009 Edition'
p671
sa(dp672
g2
S'http://www.reuters.com/article/pressRelease/idUS69610+07-Feb-2010+BW20100207'
p673
sg4
S'20100207\xc2\xa06:00PM UTC'
p674
sg6
S'Research and Markets: Profiting from Consumer Mega-Trends in Asia Pacific: Sensory'
p675
sa(dp676
g2
S'http://www.reuters.com/article/asiaPrivateEquityNews/idUSTRE61622D20100207'
p677
sg4
S'20100207\xc2\xa05:56PM UTC'
p678
sg6
S"Australia's Telstra far from broadband deal: report"
p679
sa(dp680
g2
S'http://www.reuters.com/article/europeanCurrencyNews/idUSN0716110420100207'
p681
sg4
S'20100207\xc2\xa05:54PM UTC'
p682
sg6
S'UPDATE 8-At least 5 dead in Connecticut gas plant blast'
p683
sa(dp684
g2
S'http://www.reuters.com/article/hotStocksNews/idUSN0723072820100207'
p685
sg4
S'20100207\xc2\xa05:53PM UTC'
p686
sg6
S'Chevron reports SF-Bay refinery flaring -filing'
p687
sa(dp688
g2
S'http://www.reuters.com/article/newsMaps/idUSTRE61621N20100207'
p689
sg4
S'20100207\xc2\xa05:47PM UTC'
p690
sg6
S'Argentine ex-President to have emergency surgery'
p691
sa(dp692
g2
S'http://www.reuters.com/article/sportsNews/idUSTRE6161SG20100207'
p693
sg4
S'20100207\xc2\xa05:45PM UTC'
p694
sg6
S'Ovechkin leads Caps to 14th successive victory'
p695
sa(dp696
g2
S'http://www.reuters.com/article/topNews/idUSTRE61520W20100207'
p697
sg4
S'20100207\xc2\xa05:45PM UTC'
p698
sg6
S"Opposition's Yanukovich claims win in Ukraine poll"
p699
sa(dp700
g2
S'http://www.reuters.com/article/latestCrisis/idUSSGE61602N'
p701
sg4
S'20100207\xc2\xa05:41PM UTC'
p702
sg6
S"Support down for Australia's Rudd, CO2 scheme -poll"
p703
sa(dp704
g2
S'http://www.reuters.com/article/companyNewsAndPR/idUSN0714874820100207'
p705
sg4
S'20100207\xc2\xa05:34PM UTC'
p706
sg6
S'BP shuts Texas City ultraformer for repairs-filing'
p707
sa(dp708
g2
S'http://www.reuters.com/article/pressRelease/idUS68215+07-Feb-2010+PRN20100207'
p709
sg4
S'20100207\xc2\xa05:30PM UTC'
p710
sg6
S'Following Is a Test Release'
p711
sa(dp712
g2
S'http://www.reuters.com/article/businessNews/idUSTRE61620A20100207'
p713
sg4
S'20100207\xc2\xa05:29PM UTC'
p714
sg6
S'Obama says economy turning corner to growth'
p715
sa(dp716
g2
S'http://www.reuters.com/article/bondsNews/idUSN079464220100207'
p717
sg4
S'20100207\xc2\xa05:28PM UTC'
p718
sg6
S'UPDATE 1-Obama says U.S. economy turning corner to growth'
p719
sa(dp720
g2
S'http://www.reuters.com/article/hotStocksNews/idUSLDE6160OY20100207'
p721
sg4
S'20100207\xc2\xa05:26PM UTC'
p722
sg6
S"Ukraine's Yanukovich camp says leads election"
p723
sa(dp724
g2
S'http://www.reuters.com/article/globalMarketsNews/idUSTRE61620320100207'
p725
sg4
S'20100207\xc2\xa05:25PM UTC'
p726
sg6
S"Motorola shares could rise 40 percent: Barron's"
p727
sa(dp728
g2
S'http://www.reuters.com/article/businessEditorsPick/idUSTRE6161XT20100207'
p729
sg4
S'20100207\xc2\xa05:23PM UTC'
p730
sg6
S'IOC reinstates former Samsung chief Lee'
p731
sa(dp732
g2
S'http://www.reuters.com/article/COMSRV/idUSN0716730820100207'
p733
sg4
S'20100207\xc2\xa05:22PM UTC'
p734
sg6
S"Motorola shares could rise 40 percent - Barron's"
p735
sa(dp736
g2
S'http://www.reuters.com/article/GCA-Autos/idUSTRE6161ZF20100207'
p737
sg4
S'20100207\xc2\xa05:19PM UTC'
p738
sg6
S'Suing Toyota? Take a number and get in line'
p739
sa(dp740
g2
S'http://www.reuters.com/article/GCA-Autos/idUSTRE6161YR20100207'
p741
sg4
S'20100207\xc2\xa05:16PM UTC'
p742
sg6
S'Safety critic says Toyota has ducked problem'
p743
sa(dp744
g2
S'http://www.reuters.com/article/CARMFG/idUSN0713463120100207'
p745
sg4
S'20100207\xc2\xa05:14PM UTC'
p746
sg6
S'Safety critic says Toyota has ducked problem'
p747
sa(dp748
g2
S'http://www.reuters.com/article/latestCrisis/idUSN07137822'
p749
sg4
S'20100207\xc2\xa05:08PM UTC'
p750
sg6
S"Argentina's Kirchner has emergency surgery - media"
p751
sa(dp752
g2
S'http://www.reuters.com/article/hotStocksNews/idUSN0713782220100207'
p753
sg4
S'20100207\xc2\xa05:08PM UTC'
p754
sg6
S"Argentina's Kirchner has emergency surgery - media"
p755
sa(dp756
g2
S'http://www.reuters.com/article/filmNews/idUSTRE6161XC20100207'
p757
sg4
S'20100207\xc2\xa05:04PM UTC'
p758
sg6
S'"Valentine\'s Day" a date to forget'
p759
sa(dp760
g2
S'http://www.reuters.com/article/homepageCrisis/idUSLDE61603I._CH_.2400'
p761
sg4
S'20100207\xc2\xa05:04PM UTC'
p762
sg6
S'Incumbent declared winner in flawed Nigeria poll'
p763
sa(dp764
g2
S'http://www.reuters.com/article/latestCrisis/idUSLDE61603I'
p765
sg4
S'20100207\xc2\xa05:04PM UTC'
p766
sg6
S'Incumbent declared winner in flawed Nigeria poll'
p767
sa(dp768
g2
S'http://www.reuters.com/article/newsMaps/idUSTRE6161WV20100207'
p769
sg4
S'20100207\xc2\xa05:00PM UTC'
p770
sg6
S'SNAP ANALYSIS - Ukraine faces uncertainty after Yanukovich win'
p771
sa(dp772
g2
S'http://www.reuters.com/article/financialsSector/idUSSYU00936520100207'
p773
sg4
S'20100207\xc2\xa05:00PM UTC'
p774
sg6
S'AMP to consider position on AXA Asia Pacific'
p775
sa(dp776
g2
S'http://www.reuters.com/article/weekAheadG7/idUSJPDIARY20100207'
p777
sg4
S'20100207\xc2\xa05:00PM UTC'
p778
sg6
S'DIARY-Japan-Feb 8 -Bank lending data, Ozawa news conference'
p779
sa(dp780
g2
S'http://www.reuters.com/article/pressRelease/idUS66829+07-Feb-2010+PRN20100207'
p781
sg4
S'20100207\xc2\xa05:00PM UTC'
p782
sg6
S'Following Is a Test Release'
p783
sa(dp784
g2
S'http://www.reuters.com/article/pressRelease/idUS66821+07-Feb-2010+BW20100207'
p785
sg4
S'20100207\xc2\xa05:00PM UTC'
p786
sg6
S'Oncor Experts Answer Questions About Electric Service'
p787
sa(dp788
g2
S'http://www.reuters.com/article/pressRelease/idUS66784+07-Feb-2010+BW20100207'
p789
sg4
S'20100207\xc2\xa04:59PM UTC'
p790
sg6
S'Statement of Health and Human Services Secretary Kathleen Sebelius on National Black HIV/AIDS Awareness Day'
p791
sa(dp792
g2
S'http://www.reuters.com/article/filmNews/idUSTRE6140YM20100207'
p793
sg4
S'20100207\xc2\xa04:54PM UTC'
p794
sg6
S'"Avatar" loses box office crown to "Dear John"'
p795
sa(dp796
g2
S'http://www.reuters.com/article/hotStocksNews/idUSLDE6160OF20100207'
p797
sg4
S'20100207\xc2\xa04:53PM UTC'
p798
sg6
S'Tymoshenko camp says leads in Ukraine election'
p799
sa(dp800
g2
S'http://www.reuters.com/article/euIpoNews/idUSLDE6160NQ20100207'
p801
sg4
S'20100207\xc2\xa04:51PM UTC'
p802
sg6
S'UPDATE 2-Santander eyes 15 bln stg float of UK businesses-report'
p803
sa(dp804
g2
S'http://www.reuters.com/article/newsMaps/idUSTRE6161V520100207'
p805
sg4
S'20100207\xc2\xa04:50PM UTC'
p806
sg6
S'High-profile U.S. case tests Haitian justice system'
p807
sa(dp808
g2
S'http://www.reuters.com/article/bondsNews/idUSN0140567120100207'
p809
sg4
S'20100207\xc2\xa04:50PM UTC'
p810
sg6
S'Obama says U.S. economy turning corner to growth'
p811
sa(dp812
g2
S'http://www.reuters.com/article/mediaNews/idUSN0616618220100207'
p813
sg4
S'20100207\xc2\xa04:49PM UTC'
p814
sg6
S"CORRECTED - 'Avatar' dethroned at box office by 'Dear John'"
p815
sa(dp816
g2
S'http://www.reuters.com/article/domesticNews/idUSTRE6161UX20100207'
p817
sg4
S'20100207\xc2\xa04:48PM UTC'
p818
sg6
S'Kentucky town closes ranks behind Toyota'
p819
sa(dp820
g2
S'http://www.reuters.com/article/pressRelease/idUS65879+07-Feb-2010+BW20100207'
p821
sg4
S'20100207\xc2\xa04:45PM UTC'
p822
sg6
S'AREVA and EDF reach agreement on used nuclear fuel management'
p823
sa(dp824
g2
S'http://www.reuters.com/article/homepageCrisis/idUSN07229252._CH_.2400'
p825
sg4
S'20100207\xc2\xa04:44PM UTC'
p826
sg6
S'High-profile US case tests Haitian justice system'
p827
sa(dp828
g2
S'http://www.reuters.com/article/latestCrisis/idUSN07229252'
p829
sg4
S'20100207\xc2\xa04:44PM UTC'
p830
sg6
S'High-profile US case tests Haitian justice system'
p831
sa(dp832
g2
S'http://www.reuters.com/article/africaCrisis/idUSLDE6160ND'
p833
sg4
S'20100207\xc2\xa04:44PM UTC'
p834
sg6
S'Three dead in eastern Guinea religious clashes'
p835
sa(dp836
g2
S'http://www.reuters.com/article/rbssAluminum/idUSLDE6160ND20100207'
p837
sg4
S'20100207\xc2\xa04:44PM UTC'
p838
sg6
S'UPDATE 1-Three dead in eastern Guinea religious clashes'
p839
sa(dp840
g2
S'http://www.reuters.com/article/homepageCrisis/idUSLDE6160ND._CH_.2400'
p841
sg4
S'20100207\xc2\xa04:44PM UTC'
p842
sg6
S'Three dead in eastern Guinea religious clashes'
p843
sa(dp844
g2
S'http://www.reuters.com/article/companyNewsAndPR/idUSN0715282620100207'
p845
sg4
S'20100207\xc2\xa04:41PM UTC'
p846
sg6
S'Kentucky town closes ranks behind Toyota'
p847
sa(dp848
g2
S'http://www.reuters.com/article/mediaNews/idUSN0740967420100207'
p849
sg4
S'20100207\xc2\xa04:36PM UTC'
p850
sg6
S"CORRECTED - UPDATE 1-'Avatar' loses box office crown to 'Dear John'"
p851
sa(dp852
g2
S'http://www.reuters.com/article/GCA-Oil/idUSTRE6161UA20100207'
p853
sg4
S'20100207\xc2\xa04:36PM UTC'
p854
sg6
S'Average gasoline price in four-week slide'
p855
sa(dp856
g2
S'http://www.reuters.com/article/sportsNews/idUSTRE6161U120100207'
p857
sg4
S'20100207\xc2\xa04:34PM UTC'
p858
sg6
S"IOC to consider stripping Cox's Olympic gold medal"
p859
sa(dp860
g2
S'http://www.reuters.com/article/pressRelease/idUS65207+07-Feb-2010+PRN20100207'
p861
sg4
S'20100207\xc2\xa04:30PM UTC'
p862
sg6
S'Following Is a Test Release'
p863
sa(dp864
g2
S'http://www.reuters.com/article/gc04/idUSTRE6160PQ20100207'
p865
sg4
S'20100207\xc2\xa04:13PM UTC'
p866
sg6
S'Geithner: No double-dip slump but recovery slow'
p867
sa(dp868
g2
S'http://www.reuters.com/article/newsOne/idUSTRE6161SX20100207'
p869
sg4
S'20100207\xc2\xa04:11PM UTC'
p870
sg6
S'Private equity firms brace for tax battle'
p871
sa(dp872
g2
S'http://www.reuters.com/article/asianCurrencyNews/idUSN0713952320100207'
p873
sg4
S'20100207\xc2\xa04:01PM UTC'
p874
sg6
S"UPDATE 1-US's Geithner-No double-dip slump but recovery slow"
p875
sa(dp876
g2
S'http://www.reuters.com/article/pressRelease/idUS63467+07-Feb-2010+PRN20100207'
p877
sg4
S'20100207\xc2\xa04:00PM UTC'
p878
sg6
S'Following Is a Test Release'
p879
sa(dp880
g2
S'http://www.reuters.com/article/hotStocksNews/idUSLDE6160NG20100207'
p881
sg4
S'20100207\xc2\xa03:53PM UTC'
p882
sg6
S'Ukrainian PM Tymoshenko should resign - Yanukovich'
p883
sa(dp884
g2
S'http://www.reuters.com/article/pressRelease/idUS63216+07-Feb-2010+BW20100207'
p885
sg4
S'20100207\xc2\xa03:52PM UTC'
p886
sg6
S'Saveology.com CMO to Speak at CableLabs Cable Information Services Summit'
p887
sa(dp888
g2
S'http://www.reuters.com/article/pressRelease/idUS63184+07-Feb-2010+BW20100207'
p889
sg4
S'20100207\xc2\xa03:51PM UTC'
p890
sg6
S'Gulf Bridge International Sign Agreement With Vodafone Qatar to Land GBI`s Submarine Cable in Qatar'
p891
sa(dp892
g2
S'http://www.reuters.com/article/hotStocksNews/idUSLDE6160M920100207'
p893
sg4
S'20100207\xc2\xa03:41PM UTC'
p894
sg6
S"Ukraine's Yanukovich leads rival by 7 pct in first result"
p895
sa(dp896
g2
S'http://www.reuters.com/article/pressRelease/idUS62750+07-Feb-2010+BW20100207'
p897
sg4
S'20100207\xc2\xa03:33PM UTC'
p898
sg6
S'CORRECTING and REPLACING Azaleos to Present Top Five Management Secrets at SharePoint Technology Conference'
p899
sa(dp900
g2
S'http://www.reuters.com/article/hotStocksNews/idUSLDE6160M720100207'
p901
sg4
S'20100207\xc2\xa03:31PM UTC'
p902
sg6
S"Ukraine's Yanukovich promises fast economic reforms"
p903
sa(dp904
g2
S'http://www.reuters.com/article/pressRelease/idUS62716+07-Feb-2010+PRN20100207'
p905
sg4
S'20100207\xc2\xa03:30PM UTC'
p906
sg6
S'Following Is a Test Release'
p907
sa(dp908
g2
S'http://www.reuters.com/article/pressReleasesMolt/idUSTRE6133U820100207'
p909
sg4
S'20100207\xc2\xa03:15PM UTC'
p910
sg6
S'Toyota to recall Prius for brake glitch: dealer'
p911
sa(dp912
g2
S'http://www.reuters.com/article/pressReleasesMolt/idUSTRE6161RV20100207'
p913
sg4
S'20100207\xc2\xa03:15PM UTC'
p914
sg6
S'Toyota stumbles but its "kaizen" cult endures'
p915
sa(dp916
g2
S'http://www.reuters.com/article/pressReleasesMolt/idUSTRE6161RJ20100207'
p917
sg4
S'20100207\xc2\xa03:12PM UTC'
p918
sg6
S"Goldman's payment demands on AIG probed: report"
p919
sa(dp920
g2
S'http://www.reuters.com/article/euRegulatoryNews/idUSN0715147720100207'
p921
sg4
S'20100207\xc2\xa03:09PM UTC'
p922
sg6
S"Goldman's payment demands on AIG probed-NYT"
p923
sa(dp924
g2
S'http://www.reuters.com/article/topNews/idUSLDE61607220100207'
p925
sg4
S'20100207\xc2\xa03:07PM UTC'
p926
sg6
S'Iran ratchets up atom work despite sanctions threat'
p927
sa(dp928
g2
S'http://www.reuters.com/article/pressRelease/idUS61952+07-Feb-2010+MW20100207'
p929
sg4
S'20100207\xc2\xa03:05PM UTC'
p930
sg6
S' Tethys Petroleum Limited: Kazakh Exploration Well Flows Over 6,800 Barrels of Oil per Day'
p931
sa(dp932
g2
S'http://www.reuters.com/article/ousivMolt/idUSTRE6161QQ20100207'
p933
sg4
S'20100207\xc2\xa03:02PM UTC'
p934
sg6
S'Trade tensions flare as recovery fades'
p935
sa(dp936
g2
S'http://www.reuters.com/article/pressRelease/idUS61717+07-Feb-2010+PRN20100207'
p937
sg4
S'20100207\xc2\xa03:00PM UTC'
p938
sg6
S'Following Is a Test Release'
p939
sa(dp940
g2
S'http://www.reuters.com/article/pressRelease/idUS61565+07-Feb-2010+PRN20100207'
p941
sg4
S'20100207\xc2\xa02:54PM UTC'
p942
sg6
S'Boeing 747-8 Freighter to Make Debut Flight'
p943
sa(dp944
g2
S'http://www.reuters.com/article/asiaPrivateEquityNews/idUSTRE6161PA20100207'
p945
sg4
S'20100207\xc2\xa02:51PM UTC'
p946
sg6
S'JAL to stay with American, end Delta talks: report'
p947
sa(dp948
g2
S'http://www.reuters.com/article/AIRLIN/idUSTOE61601220100207'
p949
sg4
S'20100207\xc2\xa02:47PM UTC'
p950
sg6
S'JAL to stay with American, end Delta talks-media'
p951
sa(dp952
g2
S'http://www.reuters.com/article/latestCrisis/idUSLDE6160HT'
p953
sg4
S'20100207\xc2\xa02:39PM UTC'
p954
sg6
S'FACTBOX-Military deaths in Afghanistan'
p955
sa(dp956
g2
S'http://www.reuters.com/article/newsOne/idUSTRE6161GU20100207'
p957
sg4
S'20100207\xc2\xa02:37PM UTC'
p958
sg6
S'Palin: Won\'t "close the door" on White House run'
p959
sa(dp960
g2
S'http://www.reuters.com/article/pressReleasesMolt/idUSTRE6161AI20100207'
p961
sg4
S'20100207\xc2\xa02:36PM UTC'
p962
sg6
S'G7 talk on Greece will not soothe global investors'
p963
sa(dp964
g2
S'http://www.reuters.com/article/managementIssues/idUSPAB00815620100207'
p965
sg4
S'20100207\xc2\xa02:34PM UTC'
p966
sg6
S'SAP '
p967
sa(dp968
g2
S'http://www.reuters.com/article/gc05/idUSTRE61618E20100207'
p969
sg4
S'20100207\xc2\xa02:33PM UTC'
p970
sg6
S'Taliban, NATO prepare for big Helmand offensive'
p971
sa(dp972
g2
S'http://www.reuters.com/article/latestCrisis/idUSSGE61601R'
p973
sg4
S'20100207\xc2\xa02:32PM UTC'
p974
sg6
S'FACTBOX-Security developments in Afghanistan, Feb 7'
p975
sa(dp976
g2
S'http://www.reuters.com/article/pressRelease/idUS60748+07-Feb-2010+PRN20100207'
p977
sg4
S'20100207\xc2\xa02:30PM UTC'
p978
sg6
S'Following Is a Test Release'
p979
sa(dp980
g2
S'http://www.reuters.com/article/swissMktRpt/idUSLDE6160KO20100207'
p981
sg4
S'20100207\xc2\xa02:28PM UTC'
p982
sg6
S'Germany says public demands crackdown on tax evasion'
p983
sa(dp984
g2
S'http://www.reuters.com/article/topNews/idUSTRE6161M020100207'
p985
sg4
S'20100207\xc2\xa02:27PM UTC'
p986
sg6
S"Ukraine's Yanukovich makes unlikely comeback"
p987
sa(dp988
g2
S'http://www.reuters.com/article/topNews/idUSTRE6161HD20100207'
p989
sg4
S'20100207\xc2\xa02:27PM UTC'
p990
sg6
S'Yanukovich wins Ukraine election: exit polls'
p991
sa(dp992
g2
S'http://www.reuters.com/article/sportsNews/idUSTRE6151IO20100207'
p993
sg4
S'20100207\xc2\xa02:24PM UTC'
p994
sg6
S"Size, speed present new America's Cup challenge"
p995
sa(dp996
g2
S'http://www.reuters.com/article/pressRelease/idUS60352+07-Feb-2010+PRN20100207'
p997
sg4
S'20100207\xc2\xa02:19PM UTC'
p998
sg6
S'Cranberries Float to New Home in Richmond'
p999
sa(dp1000
g2
S'http://www.reuters.com/article/hotStocksNews/idUSDAH76842420100207'
p1001
sg4
S'20100207\xc2\xa02:17PM UTC'
p1002
sg6
S'Iran to start producing 20 pct atom fuel Tuesday-TV'
p1003
sa(dp1004
g2
S'http://www.reuters.com/article/pressRelease/idUS60265+07-Feb-2010+PRN20100207'
p1005
sg4
S'20100207\xc2\xa02:16PM UTC'
p1006
sg6
S'SAP Returns to Co-CEO Structure with Bill McDermott and Jim Hagemann Snabe'
p1007
sa(dp1008
g2
S'http://www.reuters.com/article/pressRelease/idUS60000+07-Feb-2010+PRN20100207'
p1009
sg4
S'20100207\xc2\xa02:09PM UTC'
p1010
sg6
S'Rentrak Announces Box Office Numbers for Weekend of February 5, 2010'
p1011
sa(dp1012
g2
S'http://www.reuters.com/article/SCHOOL/idUSN0716080420100207'
p1013
sg4
S'20100207\xc2\xa02:07PM UTC'
p1014
sg6
S'UPDATE 1-U.S. mid-Atlantic digs out from blizzard'
p1015
sa(dp1016
g2
S'http://www.reuters.com/article/hotStocksNews/idUSLDE6160LI20100207'
p1017
sg4
S'20100207\xc2\xa02:06PM UTC'
p1018
sg6
S"Ukraine's Tymoshenko refuses to concede defeat"
p1019
sa(dp1020
g2
S'http://www.reuters.com/article/worldNews/idUSTRE6160EZ20100207'
p1021
sg4
S'20100207\xc2\xa02:01PM UTC'
p1022
sg6
S'Yemen arrests embassy bomb threat suspect'
p1023
sa(dp1024
g2
S'http://www.reuters.com/article/pressRelease/idUS59482+07-Feb-2010+PRN20100207'
p1025
sg4
S'20100207\xc2\xa02:00PM UTC'
p1026
sg6
S'Following Is a Test Release'
p1027
sa(dp1028
g2
S'http://www.reuters.com/article/latestCrisis/idUSLDE6160KQ'
p1029
sg4
S'20100207\xc2\xa01:58PM UTC'
p1030
sg6
S'Yemen arrests embassy bomb threat suspect'
p1031
sa(dp1032
g2
S'http://www.reuters.com/article/hotStocksNews/idUSLDE6160JW20100207'
p1033
sg4
S'20100207\xc2\xa01:50PM UTC'
p1034
sg6
S'Ukraine\'s Yanukovich camp hails "absolute victory"'
p1035
sa(dp1036
g2
S'http://www.reuters.com/article/companyNewsAndPR/idUSN0717077420100207'
p1037
sg4
S'20100207\xc2\xa01:41PM UTC'
p1038
sg6
S'Palin: Won\'t "close the door" on White House run'
p1039
sa(dp1040
g2
S'http://www.reuters.com/article/worldNews/idUSTRE6161G320100207'
p1041
sg4
S'20100207\xc2\xa01:37PM UTC'
p1042
sg6
S'Instant View: Yanukovich wins Ukraine election: exit polls'
p1043
sa(dp1044
g2
S'http://www.reuters.com/article/latestCrisis/idUSN07196396'
p1045
sg4
S'20100207\xc2\xa01:36PM UTC'
p1046
sg6
S'US anti-terrorism adviser lashes out at lawmakers'
p1047
sa(dp1048
g2
S'http://www.reuters.com/article/pressRelease/idUS57810+07-Feb-2010+MW20100207'
p1049
sg4
S'20100207\xc2\xa01:36PM UTC'
p1050
sg6
S' Media Advisory: Minister Toews Joins Canadian Centre for Child Protection to Mark Safer Internet Day'
p1051
sa(dp1052
g2
S'http://www.reuters.com/article/pressRelease/idUS57376+07-Feb-2010+PRN20100207'
p1053
sg4
S'20100207\xc2\xa01:30PM UTC'
p1054
sg6
S'Following Is a Test Release'
p1055
sa(dp1056
g2
S'http://www.reuters.com/article/AIRDEF/idUSN0614740820100207'
p1057
sg4
S'20100207\xc2\xa01:28PM UTC'
p1058
sg6
S'FACTBOX-Endeavour to carry final space station hub, cupola'
p1059
sa(dp1060
g2
S'http://www.reuters.com/article/hotStocksNews/idUSLDE6160K420100207'
p1061
sg4
S'20100207\xc2\xa01:18PM UTC'
p1062
sg6
S'Ukraine Tymoshenko aide says election too early to call'
p1063
sa(dp1064
g2
S'http://www.reuters.com/article/homepageCrisis/idUSLDE6160IK._CH_.2400'
p1065
sg4
S'20100207\xc2\xa01:17PM UTC'
p1066
sg6
S'Ethiopian troops cross into two Somali towns-locals'
p1067
sa(dp1068
g2
S'http://www.reuters.com/article/latestCrisis/idUSLDE6160IK'
p1069
sg4
S'20100207\xc2\xa01:17PM UTC'
p1070
sg6
S'Ethiopian troops cross into two Somali towns-locals'
p1071
sa(dp1072
g2
S'http://www.reuters.com/article/companyNews/idUSN0714925020100207'
p1073
sg4
S'20100207\xc2\xa01:12PM UTC'
p1074
sg6
S'LATAM WEEKAHEAD-Inflation seen creeping up in latest data'
p1075
sa(dp1076
g2
S'http://www.reuters.com/article/newsOne/idUSTRE6160K220100207'
p1077
sg4
S'20100207\xc2\xa01:03PM UTC'
p1078
sg6
S"Factbox: Policies of Ukraine's election frontrunners"
p1079
sa(dp1080
g2
S'http://www.reuters.com/article/scienceNews/idUSTRE6161CS20100207'
p1081
sg4
S'20100207\xc2\xa01:02PM UTC'
p1082
sg6
S'Scientists find gene variant link to ageing cells'
p1083
sa(dp1084
g2
S'http://www.reuters.com/article/hotStocksNews/idUSLDE61606H20100207'
p1085
sg4
S'20100207\xc2\xa01:02PM UTC'
p1086
sg6
S'Yanukovich wins Ukraine election-exit polls'
p1087
sa(dp1088
g2
S'http://www.reuters.com/article/pressRelease/idUS55104+07-Feb-2010+PRN20100207'
p1089
sg4
S'20100207\xc2\xa01:00PM UTC'
p1090
sg6
S'Following Is a Test Release'
p1091
sa(dp1092
g2
S'http://www.reuters.com/article/hotStocksNews/idUSN0716642320100207'
p1093
sg4
S'20100207\xc2\xa012:56PM UTC'
p1094
sg6
S'Two dead, dozens injured in Connecticut blast-CNN'
p1095
sa(dp1096
g2
S'http://www.reuters.com/article/latestCrisis/idUSN07166423'
p1097
sg4
S'20100207\xc2\xa012:56PM UTC'
p1098
sg6
S'Two dead, dozens injured in Connecticut blast-CNN'
p1099
sa(dp1100
g2
S'http://www.reuters.com/article/scienceNews/idUSTRE6151JD20100207'
p1101
sg4
S'20100207\xc2\xa012:50PM UTC'
p1102
sg6
S'Space shuttle launch reset for early Monday'
p1103
sa(dp1104
g2
S'http://www.reuters.com/article/hotStocksNews/idUSN0716673520100207'
p1105
sg4
S'20100207\xc2\xa012:46PM UTC'
p1106
sg6
S'Mexico sets 250,000 tonne 2010 sugar import quota'
p1107
sa(dp1108
g2
S'http://www.reuters.com/article/usDollarRpt/idUSN0713204120100207'
p1109
sg4
S'20100207\xc2\xa012:40PM UTC'
p1110
sg6
S'G7 talk on Greece will not soothe global investors'
p1111
sa(dp1112
g2
S'http://www.reuters.com/article/ousivMolt/idUSTRE61500A20100207'
p1113
sg4
S'20100207\xc2\xa012:34PM UTC'
p1114
sg6
S'Recovery, debt woes to hound'
p1115
sa(dp1116
g2
S'http://www.reuters.com/article/pressRelease/idUS52823+07-Feb-2010+PRN20100207'
p1117
sg4
S'20100207\xc2\xa012:30PM UTC'
p1118
sg6
S'Following Is a Test Release'
p1119
sa(dp1120
g2
S'http://www.reuters.com/article/weekAheadWallStreet/idUSN0714391920100207'
p1121
sg4
S'20100207\xc2\xa012:29PM UTC'
p1122
sg6
S'UPDATE 1-Wall St Week Ahead: Recovery, debt woes to hound'
p1123
sa(dp1124
g2
S'http://www.reuters.com/article/hotStocksNews/idUSN0714185120100207'
p1125
sg4
S'20100207\xc2\xa012:25PM UTC'
p1126
sg6
S'Large explosion reported at power plant in Connecticut'
p1127
sa(dp1128
g2
S'http://www.reuters.com/article/latestCrisis/idUSN07141851'
p1129
sg4
S'20100207\xc2\xa012:25PM UTC'
p1130
sg6
S'Large explosion reported at power plant in Connecticut'
p1131
sa(dp1132
g2
S'http://www.reuters.com/article/newsMaps/idUSTRE61618T20100207'
p1133
sg4
S'20100207\xc2\xa012:20PM UTC'
p1134
sg6
S"Ukraine Tymoshenko's team cries foul before polls close"
p1135
sa(dp1136
g2
S'http://www.reuters.com/article/mediaNews/idUSN1818757320100207'
p1137
sg4
S'20100207\xc2\xa012:13PM UTC'
p1138
sg6
S'The top movies at the North American box office'
p1139
sa(dp1140
g2
S'http://www.reuters.com/article/homepageCrisis/idUSLDE6160EJ._CH_.2400'
p1141
sg4
S'20100207\xc2\xa012:06PM UTC'
p1142
sg6
S'Taliban, NATO prepare for big Helmand offensive'
p1143
sa(dp1144
g2
S'http://www.reuters.com/article/latestCrisis/idUSLDE6160EJ'
p1145
sg4
S'20100207\xc2\xa012:06PM UTC'
p1146
sg6
S'Taliban, NATO prepare for big Helmand offensive'
p1147
sa(dp1148
g2
S'http://www.reuters.com/article/pressRelease/idUS50699+07-Feb-2010+MW20100207'
p1149
sg4
S'20100207\xc2\xa012:00PM UTC'
p1150
sg6
S" Canada's Government Designates Air Transat to Serve Jamaica"
p1151
sa(dp1152
g2
S'http://www.reuters.com/article/pressRelease/idUS50704+07-Feb-2010+MW20100207'
p1153
sg4
S'20100207\xc2\xa012:00PM UTC'
p1154
sg6
S' Canada Announces More Air Travel Options in the Caribbean'
p1155
sa(dp1156
g2
S'http://www.reuters.com/article/pressRelease/idUS50701+07-Feb-2010+MW20100207'
p1157
sg4
S'20100207\xc2\xa012:00PM UTC'
p1158
sg6
S' Media Advisory: Minister Oda to Provide Update on Haiti Earthquake Relief Fund'
p1159
sa(dp1160
g2
S'http://www.reuters.com/article/pressRelease/idUS50653+07-Feb-2010+PRN20100207'
p1161
sg4
S'20100207\xc2\xa012:00PM UTC'
p1162
sg6
S'Following Is a Test Release'
p1163
sa(dp1164
g2
S'http://www.reuters.com/article/newsOne/idUSTRE61617O20100207'
p1165
sg4
S'20100207\xc2\xa011:58AM UTC'
p1166
sg6
S"Zale pines for shoppers' love on Valentine's Day"
p1167
sa(dp1168
g2
S'http://www.reuters.com/article/pressRelease/idUS50290+07-Feb-2010+PRN20100207'
p1169
sg4
S'20100207\xc2\xa011:55AM UTC'
p1170
sg6
S'Operation Super Bowl: ASPCA, Pet Airways Transfer Rescued Dogs from Mississippi Puppy Mill to New York City for Adoption'
p1171
sa(dp1172
g2
S'http://www.reuters.com/article/financialsSector/idUSLDE6160HD20100207'
p1173
sg4
S'20100207\xc2\xa011:49AM UTC'
p1174
sg6
S"UPDATE 1-Jordan's Housing Bank '09 net profit down 34 pct"
p1175
sa(dp1176
g2
S'http://www.reuters.com/article/hotStocksNews/idUSLDE6160H920100207'
p1177
sg4
S'20100207\xc2\xa011:48AM UTC'
p1178
sg6
S'Kuwait c.bank cuts discount rate by 50 bps-agency'
p1179
sa(dp1180
g2
S'http://www.reuters.com/article/AIRLIN/idUSN0714401420100207'
p1181
sg4
S'20100207\xc2\xa011:46AM UTC'
p1182
sg6
S'U.S. mid-Atlantic digs out from blizzard'
p1183
sa(dp1184
g2
S'http://www.reuters.com/article/latestCrisis/idUSN07144014'
p1185
sg4
S'20100207\xc2\xa011:46AM UTC'
p1186
sg6
S'U.S. mid-Atlantic digs out from blizzard'
p1187
sa(dp1188
g2
S'http://www.reuters.com/article/newsMaps/idUSTRE6160HJ20100207'
p1189
sg4
S'20100207\xc2\xa011:39AM UTC'
p1190
sg6
S"Lebanon recovers crashed Ethiopian jet's black box"
p1191
sa(dp1192
g2
S'http://www.reuters.com/article/reuterscomService1/idUSTRE61615X20100207'
p1193
sg4
S'20100207\xc2\xa011:37AM UTC'
p1194
sg6
S'Vonn leads the Vancouver gold rush'
p1195
sa(dp1196
g2
S'http://www.reuters.com/article/latestCrisis/idUSLDE61605J'
p1197
sg4
S'20100207\xc2\xa011:37AM UTC'
p1198
sg6
S"Lebanon recovers crashed Ethiopian jet's black box"
p1199
sa(dp1200
g2
S'http://www.reuters.com/article/GCA-Olympics2010/idUSTRE61615Q20100207'
p1201
sg4
S'20100207\xc2\xa011:35AM UTC'
p1202
sg6
S'Speedskating-TV comic ensures U.S. show goes on'
p1203
sa(dp1204
g2
S'http://www.reuters.com/article/rbssInvestmentServices/idUSLDE6160F420100207'
p1205
sg4
S'20100207\xc2\xa011:33AM UTC'
p1206
sg6
S"REFILE-U.S. won't renegotiate UBS tax deal-paper"
p1207
sa(dp1208
g2
S'http://www.reuters.com/article/environmentNews/idUSTRE61615G20100207'
p1209
sg4
S'20100207\xc2\xa011:32AM UTC'
p1210
sg6
S'Water at core of climate change impacts: experts'
p1211
sa(dp1212
g2
S'http://www.reuters.com/article/pressRelease/idUS48230+07-Feb-2010+PRN20100207'
p1213
sg4
S'20100207\xc2\xa011:30AM UTC'
p1214
sg6
S'Following Is a Test Release'
p1215
sa(dp1216
g2
S'http://www.reuters.com/article/sportsNews/idUSTRE61614Z20100207'
p1217
sg4
S'20100207\xc2\xa011:25AM UTC'
p1218
sg6
S'Angry Chad of 2006 mellows for Vancouver'
p1219
sa(dp1220
g2
S'http://www.reuters.com/article/winterOlympicSkiJumping/idUSLDE60R1EZ20100207'
p1221
sg4
S'20100207\xc2\xa011:25AM UTC'
p1222
sg6
S'PREVIEW-Olympics-Vonn leads the Vancouver gold rush'
p1223
sa(dp1224
g2
S'http://www.reuters.com/article/newsMaps/idUSTRE61614S20100207'
p1225
sg4
S'20100207\xc2\xa011:22AM UTC'
p1226
sg6
S'Iran tests radar-evading aircraft says commander'
p1227
sa(dp1228
g2
S'http://www.reuters.com/article/hotStocksNews/idUSLDE6160FE20100207'
p1229
sg4
S'20100207\xc2\xa011:22AM UTC'
p1230
sg6
S"Jordan's Housing Bank '09 net profit down 34 pct"
p1231
sa(dp1232
g2
S'http://www.reuters.com/article/pressReleasesMolt/idUSTRE61614120100207'
p1233
sg4
S'20100207\xc2\xa011:15AM UTC'
p1234
sg6
S"U.S. won't renegotiate UBS tax deal: report"
p1235
sa(dp1236
g2
S'http://www.reuters.com/article/latestCrisis/idUSLDE6160G3'
p1237
sg4
S'20100207\xc2\xa011:14AM UTC'
p1238
sg6
S'Water at core of climate change impacts-UN experts'
p1239
sa(dp1240
g2
S'http://www.reuters.com/article/winterOlympicSpeedSkating/idUSLDE6120D820100207'
p1241
sg4
S'20100207\xc2\xa011:12AM UTC'
p1242
sg6
S'FEATURE-Olympics-Angry Chad of 2006 mellows for Vancouver'
p1243
sa(dp1244
g2
S'http://www.reuters.com/article/homepageCrisis/idUSCOC755050._CH_.2400'
p1245
sg4
S'20100207\xc2\xa011:11AM UTC'
p1246
sg6
S'Anger grows at poll delay in Ivory Coast rebel zones'
p1247
sa(dp1248
g2
S'http://www.reuters.com/article/latestCrisis/idUSCOC755050'
p1249
sg4
S'20100207\xc2\xa011:11AM UTC'
p1250
sg6
S'Anger grows at poll delay in Ivory Coast rebel zones'
p1251
sa(dp1252
g2
S'http://www.reuters.com/article/topNews/idUSTRE61457A20100207'
p1253
sg4
S'20100207\xc2\xa011:05AM UTC'
p1254
sg6
S'G7 reassures on Greece, talks tough on banks'
p1255
sa(dp1256
g2
S'http://www.reuters.com/article/usDollarRpt/idUSSGE61601120100207'
p1257
sg4
S'20100207\xc2\xa011:05AM UTC'
p1258
sg6
S'WEEKAHEAD - the view from Reuters Asia news editors'
p1259
sa(dp1260
g2
S'http://www.reuters.com/article/businessEditorsPick/idUSTRE61613H20100207'
p1261
sg4
S'20100207\xc2\xa011:04AM UTC'
p1262
sg6
S'Rink rebel Davis in line for double gold strike'
p1263
sa(dp1264
g2
S'http://www.reuters.com/article/pressRelease/idUS45851+07-Feb-2010+PRN20100207'
p1265
sg4
S'20100207\xc2\xa011:00AM UTC'
p1266
sg6
S'Following Is a Test Release'
p1267
sa(dp1268
g2
S'http://www.reuters.com/article/innovationNews/idUSTRE61612H20100207'
p1269
sg4
S'20100207\xc2\xa010:56AM UTC'
p1270
sg6
S'Lloyds in talks with private equity over unit: report'
p1271
sa(dp1272
g2
S'http://www.reuters.com/article/privateEquityFinancialServicesAndRealEstate/idUSLDE6160DI20100207'
p1273
sg4
S'20100207\xc2\xa010:55AM UTC'
p1274
sg6
S'REFILE-Lloyds in talks with private equity over unit-rpt'
p1275
sa(dp1276
g2
S'http://www.reuters.com/article/sportsNews/idUSTRE61612620100207'
p1277
sg4
S'20100207\xc2\xa010:52AM UTC'
p1278
sg6
S"No snow but Ethiopia's ski hope is on a roll"
p1279
sa(dp1280
g2
S'http://www.reuters.com/article/winterOlympicCrossCountrySkiing/idUSLDE61428420100207'
p1281
sg4
S'20100207\xc2\xa010:50AM UTC'
p1282
sg6
S"FEATURE-Olympics-No snow but Ethiopia's ski hope is on a roll"
p1283
sa(dp1284
g2
S'http://www.reuters.com/article/asiaPrivateEquityNews/idUSTRE61611N20100207'
p1285
sg4
S'20100207\xc2\xa010:42AM UTC'
p1286
sg6
S"UAE's Arabtec says Aabar merger on track"
p1287
sa(dp1288
g2
S'http://www.reuters.com/article/mediaNews/idUSN0519354520100207'
p1289
sg4
S'20100207\xc2\xa010:30AM UTC'
p1290
sg6
S'BAY STREET-Welcome to the Olympic investment race'
p1291
sa(dp1292
g2
S'http://www.reuters.com/article/pressRelease/idUS43526+07-Feb-2010+PRN20100207'
p1293
sg4
S'20100207\xc2\xa010:30AM UTC'
p1294
sg6
S'Following Is a Test Release'
p1295
sa(dp1296
g2
S'http://www.reuters.com/article/pressReleasesMolt/idUSTRE6160ZW20100207'
p1297
sg4
S'20100207\xc2\xa010:20AM UTC'
p1298
sg6
S'Swiss minister urges debate on tax data: report'
p1299
sa(dp1300
g2
S'http://www.reuters.com/article/managementIssues/idUSLDE6160CV20100207'
p1301
sg4
S'20100207\xc2\xa010:19AM UTC'
p1302
sg6
S'RBS bonuses to hit 1.3 bln stg -report'
p1303
sa(dp1304
g2
S'http://www.reuters.com/article/swissMktRpt/idUSLDE6160CX20100207'
p1305
sg4
S'20100207\xc2\xa010:14AM UTC'
p1306
sg6
S'Swiss minister urges debate on tax data -paper'
p1307
sa(dp1308
g2
S'http://www.reuters.com/article/euPrivateEquityNews/idUSTRE6160Z820100207'
p1309
sg4
S'20100207\xc2\xa010:09AM UTC'
p1310
sg6
S'Santander eyes 15 billion sterling float of businesses: report'
p1311
sa(dp1312
g2
S'http://www.reuters.com/article/hotStocksNews/idUSTOE61409G20100207'
p1313
sg4
S'20100207\xc2\xa010:03AM UTC'
p1314
sg6
S'Huatai Sec to raise up to $2.5 bln in Shanghai IPO'
p1315
sa(dp1316
g2
S'http://www.reuters.com/article/pressRelease/idUS42012+07-Feb-2010+PRN20100207'
p1317
sg4
S'20100207\xc2\xa010:00AM UTC'
p1318
sg6
S'Following Is a Test Release'
p1319
sa(dp1320
g2
S'http://www.reuters.com/article/latestCrisis/idUSLDE6160CA'
p1321
sg4
S'20100207\xc2\xa09:48AM UTC'
p1322
sg6
S'One dead in eastern Guinea religious clashes'
p1323
sa(dp1324
g2
S'http://www.reuters.com/article/rbssAluminum/idUSLDE6160CA20100207'
p1325
sg4
S'20100207\xc2\xa09:48AM UTC'
p1326
sg6
S'One dead in eastern Guinea religious clashes'
p1327
sa(dp1328
g2
S'http://www.reuters.com/article/homepageCrisis/idUSLDE6160CA._CH_.2400'
p1329
sg4
S'20100207\xc2\xa09:48AM UTC'
p1330
sg6
S'One dead in eastern Guinea religious clashes'
p1331
sa(dp1332
g2
S'http://www.reuters.com/article/GCA-Afghanistan-Pakistan/idUSTRE61410M20100207'
p1333
sg4
S'20100207\xc2\xa09:44AM UTC'
p1334
sg6
S'Taliban dig in for big assault, say Afghan villagers'
p1335
sa(dp1336
g2
S'http://www.reuters.com/article/financialsSector/idUSLDE6160DS20100207'
p1337
sg4
S'20100207\xc2\xa09:44AM UTC'
p1338
sg6
S'UPDATE 1-Dexia sees tough 2010, to refocus on retail banking'
p1339
sa(dp1340
g2
S'http://www.reuters.com/article/newsMaps/idUSTRE6160JD20100207'
p1341
sg4
S'20100207\xc2\xa09:40AM UTC'
p1342
sg6
S"Iraq panel reinstates election ban amid Shi'ite ire"
p1343
sa(dp1344
g2
S'http://www.reuters.com/article/ousiv/idUSTRE6160XO20100207'
p1345
sg4
S'20100207\xc2\xa09:33AM UTC'
p1346
sg6
S'Mid-east markets as fall as global stocks, oil weigh'
p1347
sa(dp1348
g2
S'http://www.reuters.com/article/latestCrisis/idUSKAM722802'
p1349
sg4
S'20100207\xc2\xa09:32AM UTC'
p1350
sg6
S'FACTBOX-Security developments in Iraq, Feb 7'
p1351
sa(dp1352
g2
S'http://www.reuters.com/article/pressRelease/idUS40083+07-Feb-2010+PRN20100207'
p1353
sg4
S'20100207\xc2\xa09:30AM UTC'
p1354
sg6
S'Following Is a Test Release'
p1355
sa(dp1356
g2
S'http://www.reuters.com/article/latestCrisis/idUSLDE6160B6'
p1357
sg4
S'20100207\xc2\xa09:22AM UTC'
p1358
sg6
S"Iraq panel reinstates election ban amid Shi'ite ire"
p1359
sa(dp1360
g2
S'http://www.reuters.com/article/swissMktRpt/idUSLDE6160E220100207'
p1361
sg4
S'20100207\xc2\xa09:14AM UTC'
p1362
sg6
S'UPDATE 1-Ocado seeks banks for 1 bln stg listing-source'
p1363
sa(dp1364
g2
S'http://www.reuters.com/article/entertainmentNews/idUSTRE6160VV20100207'
p1365
sg4
S'20100207\xc2\xa09:11AM UTC'
p1366
sg6
S'All eyes on Ellen in "American Idol" judge debut'
p1367
sa(dp1368
g2
S'http://www.reuters.com/article/newsOne/idUSTRE6160OR20100207'
p1369
sg4
S'20100207\xc2\xa09:08AM UTC'
p1370
sg6
S'U.S. not in direct talks with Taliban: Holbrooke'
p1371
sa(dp1372
g2
S'http://www.reuters.com/article/homepageCrisis/idUSSGE61601C._CH_.2400'
p1373
sg4
S'20100207\xc2\xa09:08AM UTC'
p1374
sg6
S'Taliban dig in for big assault, say Afghan villagers'
p1375
sa(dp1376
g2
S'http://www.reuters.com/article/latestCrisis/idUSSGE61601C'
p1377
sg4
S'20100207\xc2\xa09:08AM UTC'
p1378
sg6
S'Taliban dig in for big assault, say Afghan villagers'
p1379
sa(dp1380
g2
S'http://www.reuters.com/article/newsOne/idUSTRE6160VG20100207'
p1381
sg4
S'20100207\xc2\xa09:08AM UTC'
p1382
sg6
S'Taliban will negotiate, but path fraught with risk'
p1383
sa(dp1384
g2
S'http://www.reuters.com/article/GCA-BusinessofGreen/idUSTRE6160V620100207'
p1385
sg4
S'20100207\xc2\xa09:06AM UTC'
p1386
sg6
S'Arava Power gets deals for 15 mid-size solar fields'
p1387
sa(dp1388
g2
S'http://www.reuters.com/article/GCA-Afghanistan-Pakistan/idUSTRE6142RE20100207'
p1389
sg4
S'20100207\xc2\xa09:04AM UTC'
p1390
sg6
S'U.S. sees NATO filling gap for Afghan trainers'
p1391
sa(dp1392
g2
S'http://www.reuters.com/article/GCA-Afghanistan-Pakistan/idUSTRE6160CZ20100207'
p1393
sg4
S'20100207\xc2\xa09:01AM UTC'
p1394
sg6
S'Afghan police commander arrested in bomb ring'
p1395
sa(dp1396
g2
S'http://www.reuters.com/article/mediaNews/idUSN0424494920100207'
p1397
sg4
S'20100207\xc2\xa09:00AM UTC'
p1398
sg6
S'All eyes on Ellen in "American Idol" judge debut'
p1399
sa(dp1400
g2
S'http://www.reuters.com/article/pressRelease/idUS37622+07-Feb-2010+PRN20100207'
p1401
sg4
S'20100207\xc2\xa09:00AM UTC'
p1402
sg6
S'Following Is a Test Release'
p1403
sa(dp1404
g2
S'http://www.reuters.com/article/pressRelease/idUS37603+07-Feb-2010+BW20100207'
p1405
sg4
S'20100207\xc2\xa09:00AM UTC'
p1406
sg6
S'MBS Polymer Announces Complete List of Speakers for 13th Annual Dubai Plast Pro 2010'
p1407
sa(dp1408
g2
S'http://www.reuters.com/article/newsMaps/idUSTRE6160KM20100207'
p1409
sg4
S'20100207\xc2\xa08:59AM UTC'
p1410
sg6
S'Karzai demands halt to Afghan civilian casualties'
p1411
sa(dp1412
g2
S'http://www.reuters.com/article/newsMaps/idUSTRE6160TC20100207'
p1413
sg4
S'20100207\xc2\xa08:56AM UTC'
p1414
sg6
S'Israeli forces arrest two foreigners in West Bank'
p1415
sa(dp1416
g2
S'http://www.reuters.com/article/hotStocksNews/idUSLDE6160DC20100207'
p1417
sg4
S'20100207\xc2\xa08:56AM UTC'
p1418
sg6
S'Britain: Iran nuclear plans break five U.N. resolutions'
p1419
sa(dp1420
g2
S'http://www.reuters.com/article/GCA-GreenBusiness/idUSTRE6160T520100207'
p1421
sg4
S'20100207\xc2\xa08:54AM UTC'
p1422
sg6
S'Better Place sees electric cars on roads in 2011'
p1423
sa(dp1424
g2
S'http://www.reuters.com/article/latestCrisis/idUSN07141337'
p1425
sg4
S'20100207\xc2\xa08:48AM UTC'
p1426
sg6
S'U.S. sees NATO filling gap for Afghan trainers'
p1427
sa(dp1428
g2
S'http://www.reuters.com/article/GCA-CreditCrisis/idUSTRE6160KH20100207'
p1429
sg4
S'20100207\xc2\xa08:47AM UTC'
p1430
sg6
S'Greece sticks to austerity plan: finance minister'
p1431
sa(dp1432
g2
S'http://www.reuters.com/article/homepageCrisis/idUSLDE61607V._CH_.2400'
p1433
sg4
S'20100207\xc2\xa08:46AM UTC'
p1434
sg6
S'Karzai demands halt to Afghan civilian casualties'
p1435
sa(dp1436
g2
S'http://www.reuters.com/article/latestCrisis/idUSLDE61607V'
p1437
sg4
S'20100207\xc2\xa08:46AM UTC'
p1438
sg6
S'Karzai demands halt to Afghan civilian casualties'
p1439
sa(dp1440
g2
S'http://www.reuters.com/article/latestCrisis/idUSLDE6160AP'
p1441
sg4
S'20100207\xc2\xa08:43AM UTC'
p1442
sg6
S'Israeli forces arrest two foreigners in West Bank'
p1443
sa(dp1444
g2
S'http://www.reuters.com/article/financialsSector/idUSPAB00815520100207'
p1445
sg4
S'20100207\xc2\xa08:40AM UTC'
p1446
sg6
S'Dexia sees bulk of revenues coming from retail'
p1447
sa(dp1448
g2
S'http://www.reuters.com/article/companyNewsAndPR/idUSLDE61609S20100207'
p1449
sg4
S'20100207\xc2\xa08:38AM UTC'
p1450
sg6
S'Electric cars to hit Israeli roads in 2011'
p1451
sa(dp1452
g2
S'http://www.reuters.com/article/bondsNews/idUSLDE61608220100207'
p1453
sg4
S'20100207\xc2\xa08:34AM UTC'
p1454
sg6
S'CORRECTED - Greece sticks to austerity plan, Q1 crucial-finmin'
p1455
sa(dp1456
g2
S'http://www.reuters.com/article/pressRelease/idUS35090+07-Feb-2010+PRN20100207'
p1457
sg4
S'20100207\xc2\xa08:30AM UTC'
p1458
sg6
S'Following Is a Test Release'
p1459
sa(dp1460
g2
S'http://www.reuters.com/article/topNews/idUSTRE6160NL20100207'
p1461
sg4
S'20100207\xc2\xa08:30AM UTC'
p1462
sg6
S'Iran says arrests people hired by CIA'
p1463
sa(dp1464
g2
S'http://www.reuters.com/article/hotStocksNews/idUSLDE6160CM20100207'
p1465
sg4
S'20100207\xc2\xa08:25AM UTC'
p1466
sg6
S'UPDATE 1-Libyan court finds Swiss man not guilty: lawyer'
p1467
sa(dp1468
g2
S'http://www.reuters.com/article/latestCrisis/idUSDAH744992'
p1469
sg4
S'20100207\xc2\xa08:22AM UTC'
p1470
sg6
S'Iran says arrests people hired by CIA'
p1471
sa(dp1472
g2
S'http://www.reuters.com/article/swissMktRpt/idUSLDE6160BV20100207'
p1473
sg4
S'20100207\xc2\xa08:10AM UTC'
p1474
sg6
S'Ocado seeks banks for 1.2 bln stg listing-report'
p1475
sa(dp1476
g2
S'http://www.reuters.com/article/hotStocksNews/idUSLDE6160BU20100207'
p1477
sg4
S'20100207\xc2\xa08:10AM UTC'
p1478
sg6
S'Libyan court finds Swiss man not guilty: lawyer'
p1479
sa(dp1480
g2
S'http://www.reuters.com/article/GCA-BarackObama/idUSTRE6160PJ20100207'
p1481
sg4
S'20100207\xc2\xa08:04AM UTC'
p1482
sg6
S"Obama's 2010 strategy taking shape"
p1483
sa(dp1484
g2
S'http://www.reuters.com/article/pressRelease/idUS33452+07-Feb-2010+MW20100207'
p1485
sg4
S'20100207\xc2\xa08:00AM UTC'
p1486
sg6
S' REMINDER: Cisco Announces Upcoming Events With the Financial Community'
p1487
sa(dp1488
g2
S'http://www.reuters.com/article/latestCrisis/idUSNAHO33333'
p1489
sg4
S'20100207\xc2\xa08:00AM UTC'
p1490
sg6
S"ANALYSIS-Obama's 2010 strategy taking shape"
p1491
sa(dp1492
g2
S'http://www.reuters.com/article/pressRelease/idUS33409+07-Feb-2010+PRN20100207'
p1493
sg4
S'20100207\xc2\xa08:00AM UTC'
p1494
sg6
S'Following Is a Test Release'
p1495
sa(dp1496
g2
S'http://www.reuters.com/article/newsMaps/idUSTRE6160FD20100207'
p1497
sg4
S'20100207\xc2\xa07:58AM UTC'
p1498
sg6
S'Incumbent declared winner in flawed Nigeria poll'
p1499
sa(dp1500
g2
S'http://www.reuters.com/article/GCA-Oil/idUSTRE6160OK20100207'
p1501
sg4
S'20100207\xc2\xa07:49AM UTC'
p1502
sg6
S'Nigerian militants say disabled Shell oil pipeline'
p1503
sa(dp1504
g2
S'http://www.reuters.com/article/politicsNews/idUSTRE6160KA20100207'
p1505
sg4
S'20100207\xc2\xa07:47AM UTC'
p1506
sg6
S'U.S. calls for greater international pressure on Iran'
p1507
sa(dp1508
g2
S'http://www.reuters.com/article/latestCrisis/idUSLDE616043'
p1509
sg4
S'20100207\xc2\xa07:43AM UTC'
p1510
sg6
S'Saudi Arabia opens military supply to local firms'
p1511
sa(dp1512
g2
S'http://www.reuters.com/article/latestCrisis/idUSLDE6160BJ'
p1513
sg4
S'20100207\xc2\xa07:41AM UTC'
p1514
sg6
S'U.S. not in direct talks with Taliban-Holbrooke'
p1515
sa(dp1516
g2
S'http://www.reuters.com/article/pressRelease/idUS32275+07-Feb-2010+PRN20100207'
p1517
sg4
S'20100207\xc2\xa07:30AM UTC'
p1518
sg6
S'Following Is a Test Release'
p1519
sa(dp1520
g2
S'http://www.reuters.com/article/newsMaps/idUSTRE6160GW20100207'
p1521
sg4
S'20100207\xc2\xa07:26AM UTC'
p1522
sg6
S'NATO should be global security forum: Rasmussen'
p1523
sa(dp1524
g2
S'http://www.reuters.com/article/companyNewsAndPR/idUSLDE6160A520100207'
p1525
sg4
S'20100207\xc2\xa07:21AM UTC'
p1526
sg6
S'UPDATE 1-Nigerian militants say disabled Shell oil pipeline'
p1527
sa(dp1528
g2
S'http://www.reuters.com/article/latestCrisis/idUSLDE6160A5'
p1529
sg4
S'20100207\xc2\xa07:21AM UTC'
p1530
sg6
S'Nigerian militants say disabled Shell oil pipeline'
p1531
sa(dp1532
g2
S'http://www.reuters.com/article/hotStocksNews/idUSLDE6160AR20100207'
p1533
sg4
S'20100207\xc2\xa07:20AM UTC'
p1534
sg6
S'U.S. not in direct talks with Taliban-Holbrooke'
p1535
sa(dp1536
g2
S'http://www.reuters.com/article/latestCrisis/idUSLDE6160AR'
p1537
sg4
S'20100207\xc2\xa07:20AM UTC'
p1538
sg6
S'U.S. not in direct talks with Taliban-Holbrooke'
p1539
sa(dp1540
g2
S'http://www.reuters.com/article/latestCrisis/idUSDAH740422'
p1541
sg4
S'20100207\xc2\xa07:10AM UTC'
p1542
sg6
S'Iran arrests people hired by CIA - IRNA'
p1543
sa(dp1544
g2
S'http://www.reuters.com/article/latestCrisis/idUSLDE61607K'
p1545
sg4
S'20100207\xc2\xa07:09AM UTC'
p1546
sg6
S'NATO should be global security forum: Rasmussen'
p1547
sa(dp1548
g2
S'http://www.reuters.com/article/pressRelease/idUS31353+07-Feb-2010+PRN20100207'
p1549
sg4
S'20100207\xc2\xa07:00AM UTC'
p1550
sg6
S'Following Is a Test Release'
p1551
sa(dp1552
g2
S'http://www.reuters.com/article/hotStocksNews/idUSLDE61609U20100207'
p1553
sg4
S'20100207\xc2\xa06:54AM UTC'
p1554
sg6
S'Iran must see patience is at an end - Germany'
p1555
sa(dp1556
g2
S'http://www.reuters.com/article/artsNews/idUSTRE6160IR20100207'
p1557
sg4
S'20100207\xc2\xa06:53AM UTC'
p1558
sg6
S'British jazz legend John Dankworth dies at 82'
p1559
sa(dp1560
g2
S'http://www.reuters.com/article/pressRelease/idUS30886+07-Feb-2010+BW20100207'
p1561
sg4
S'20100207\xc2\xa06:48AM UTC'
p1562
sg6
S'Student visas: Government responds to pressure from education sector'
p1563
sa(dp1564
g2
S'http://www.reuters.com/article/CHMMFG/idUSLDE61604R20100207'
p1565
sg4
S'20100207\xc2\xa06:47AM UTC'
p1566
sg6
S'REFILE-Potash Corp raises Israel Chem stake to 13.9 pct'
p1567
sa(dp1568
g2
S'http://www.reuters.com/article/pressRelease/idUS30776+07-Feb-2010+BW20100207'
p1569
sg4
S'20100207\xc2\xa06:45AM UTC'
p1570
sg6
S'Diamond Foods "Let\'s Get Aquatic"MEDIA ALERT'
p1571
sa(dp1572
g2
S'http://www.reuters.com/article/hotStocksNews/idUSLDE61609H20100207'
p1573
sg4
S'20100207\xc2\xa06:44AM UTC'
p1574
sg6
S'Nigerian militants say disable Shell oil pipeline'
p1575
sa(dp1576
g2
S'http://www.reuters.com/article/latestCrisis/idUSLDE61609H'
p1577
sg4
S'20100207\xc2\xa06:44AM UTC'
p1578
sg6
S'Nigerian militants say disable Shell oil pipeline'
p1579
sa(dp1580
g2
S'http://www.reuters.com/article/pressRelease/idUS30376+07-Feb-2010+PRN20100207'
p1581
sg4
S'20100207\xc2\xa06:30AM UTC'
p1582
sg6
S'Following Is a Test Release'
p1583
sa(dp1584
g2
S'http://www.reuters.com/article/hotStocksNews/idUSN0716743020100207'
p1585
sg4
S'20100207\xc2\xa06:20AM UTC'
p1586
sg6
S'US calls for greater international pressure on Iran'
p1587
sa(dp1588
g2
S'http://www.reuters.com/article/economicNews/idUSTOE61601020100207'
p1589
sg4
S'20100207\xc2\xa06:16AM UTC'
p1590
sg6
S'Official think-tank sees China 2010 GDP up 10 pct'
p1591
sa(dp1592
g2
S'http://www.reuters.com/article/pressRelease/idUS29704+07-Feb-2010+BW20100207'
p1593
sg4
S'20100207\xc2\xa06:06AM UTC'
p1594
sg6
S'Intel Gets to the Core with Super Bowl Ad'
p1595
sa(dp1596
g2
S'http://www.reuters.com/article/pressRelease/idUS29527+07-Feb-2010+PRN20100207'
p1597
sg4
S'20100207\xc2\xa06:00AM UTC'
p1598
sg6
S'Following Is a Test Release'
p1599
sa(dp1600
g2
S'http://www.reuters.com/article/pressRelease/idUS29510+07-Feb-2010+PRN20100207'
p1601
sg4
S'20100207\xc2\xa05:59AM UTC'
p1602
sg6
S'GOOD MORNING -- February 07, 2010'
p1603
sa(dp1604
g2
S'http://www.reuters.com/article/newsMaps/idUSTRE6160DM20100207'
p1605
sg4
S'20100207\xc2\xa05:48AM UTC'
p1606
sg6
S'Iran says to start work on 20 percent nuclear fuel'
p1607
sa(dp1608
g2
S'http://www.reuters.com/article/latestCrisis/idUSLDE616026'
p1609
sg4
S'20100207\xc2\xa05:45AM UTC'
p1610
sg6
S"Iraq Shi'ite leaders vow Baath purge as furore grows"
p1611
sa(dp1612
g2
S'http://www.reuters.com/article/pressRelease/idUS28693+07-Feb-2010+BW20100207'
p1613
sg4
S'20100207\xc2\xa05:45AM UTC'
p1614
sg6
S'Up in the Air Soars with Scripter Win'
p1615
sa(dp1616
g2
S'http://www.reuters.com/article/sportsNews/idUSTRE61608K20100207'
p1617
sg4
S'20100207\xc2\xa05:38AM UTC'
p1618
sg6
S'James scores 47 as Cavs extend winning run to 11'
p1619
sa(dp1620
g2
S'http://www.reuters.com/article/pressRelease/idUS27831+07-Feb-2010+PRN20100207'
p1621
sg4
S'20100207\xc2\xa05:30AM UTC'
p1622
sg6
S'Following Is a Test Release'
p1623
sa(dp1624
g2
S'http://www.reuters.com/article/BROKER/idUSLDE61605J20100207'
p1625
sg4
S'20100207\xc2\xa05:26AM UTC'
p1626
sg6
S"UPDATE 1-Lebanon recovers crashed Ethiopian jet's data boxes"
p1627
sa(dp1628
g2
S'http://www.reuters.com/article/pressRelease/idUS25957+07-Feb-2010+PRN20100207'
p1629
sg4
S'20100207\xc2\xa05:00AM UTC'
p1630
sg6
S'Following Is a Test Release'
p1631
sa(dp1632
g2
S'http://www.reuters.com/article/latestCrisis/idUSLDE60R25J'
p1633
sg4
S'20100207\xc2\xa05:00AM UTC'
p1634
sg6
S'Reuters quote of the day, February 7'
p1635
sa(dp1636
g2
S'http://www.reuters.com/article/latestCrisis/idUSLDE61602D'
p1637
sg4
S'20100207\xc2\xa04:58AM UTC'
p1638
sg6
S'NATO should consult more countries on security - chief'
p1639
sa(dp1640
g2
S'http://www.reuters.com/article/BROKER/idUSLDE61604W20100207'
p1641
sg4
S'20100207\xc2\xa04:55AM UTC'
p1642
sg6
S'Search teams recover black boxes from Ethiopian plane'
p1643
sa(dp1644
g2
S'http://www.reuters.com/article/latestCrisis/idUSLDE61604W'
p1645
sg4
S'20100207\xc2\xa04:55AM UTC'
p1646
sg6
S'Search teams recover black boxes from Ethiopian plane'
p1647
sa(dp1648
g2
S'http://www.reuters.com/article/asiaRegulatoryNews/idUSLDE61601T20100207'
p1649
sg4
S'20100207\xc2\xa04:53AM UTC'
p1650
sg6
S"Saudi consumers demand gov't action on Toyota"
p1651
sa(dp1652
g2
S'http://www.reuters.com/article/latestCrisis/idUSSGE61208L'
p1653
sg4
S'20100207\xc2\xa04:33AM UTC'
p1654
sg6
S'Pakistan says seizes Taliban base on Afghan border'
p1655
sa(dp1656
g2
S'http://www.reuters.com/article/hotStocksNews/idUSN0720155720100207'
p1657
sg4
S'20100207\xc2\xa04:32AM UTC'
p1658
sg6
S'Space shuttle launch delayed at least a day'
p1659
sa(dp1660
g2
S'http://www.reuters.com/article/pressRelease/idUS24158+07-Feb-2010+PRN20100207'
p1661
sg4
S'20100207\xc2\xa04:30AM UTC'
p1662
sg6
S'Following Is a Test Release'
p1663
sa(dp1664
g2
S'http://www.reuters.com/article/pressRelease/idUS22379+07-Feb-2010+PRN20100207'
p1665
sg4
S'20100207\xc2\xa04:00AM UTC'
p1666
sg6
S'Following Is a Test Release'
p1667
sa(dp1668
g2
S'http://www.reuters.com/article/hotStocksNews/idUSLDE61602P20100207'
p1669
sg4
S'20100207\xc2\xa03:35AM UTC'
p1670
sg6
S'Result declared in flawed Nigeria state poll'
p1671
sa(dp1672
g2
S'http://www.reuters.com/article/latestCrisis/idUSLDE61602P'
p1673
sg4
S'20100207\xc2\xa03:35AM UTC'
p1674
sg6
S'Result declared in flawed Nigeria state poll'
p1675
sa(dp1676
g2
S'http://www.reuters.com/article/earningsSeason/idUSLDE61602K20100207'
p1677
sg4
S'20100207\xc2\xa03:30AM UTC'
p1678
sg6
S'Israel Discount Bank US unit posts higher Q4 profit'
p1679
sa(dp1680
g2
S'http://www.reuters.com/article/pressRelease/idUS20610+07-Feb-2010+PRN20100207'
p1681
sg4
S'20100207\xc2\xa03:30AM UTC'
p1682
sg6
S'Following Is a Test Release'
p1683
sa(dp1684
g2
S'http://www.reuters.com/article/pressRelease/idUS20598+07-Feb-2010+BW20100207'
p1685
sg4
S'20100207\xc2\xa03:30AM UTC'
p1686
sg6
S'Better Place Opens First Electric Vehicle Demonstration Center'
p1687
sa(dp1688
g2
S'http://www.reuters.com/article/latestCrisis/idUSLDE61601H'
p1689
sg4
S'20100207\xc2\xa03:22AM UTC'
p1690
sg6
S'Yemen arrests embassy bomb threat suspect'
p1691
sa(dp1692
g2
S'http://www.reuters.com/article/pressRelease/idUS19667+07-Feb-2010+MW20100207'
p1693
sg4
S'20100207\xc2\xa03:13AM UTC'
p1694
sg6
S" SickKids Signs Historic Partnership to Develop State-of-the-Art Children's Hospital in Qatar"
p1695
sa(dp1696
g2
S'http://www.reuters.com/article/pressRelease/idUS18900+07-Feb-2010+MW20100207'
p1697
sg4
S'20100207\xc2\xa03:00AM UTC'
p1698
sg6
S" SickKids Signs Historic Partnership to Develop State-of-the-Art Children's Hospital in Qatar"
p1699
sa(dp1700
g2
S'http://www.reuters.com/article/pressRelease/idUS18881+07-Feb-2010+PRN20100207'
p1701
sg4
S'20100207\xc2\xa03:00AM UTC'
p1702
sg6
S'Following Is a Test Release'
p1703
sa(dp1704
g2
S'http://www.reuters.com/article/GCA-Oil/idUSTRE6160E220100207'
p1705
sg4
S'20100207\xc2\xa02:53AM UTC'
p1706
sg6
S'Kuwait keeps non-government members on top oil body'
p1707
sa(dp1708
g2
S'http://www.reuters.com/article/hotStocksNews/idUSDAH72711620100207'
p1709
sg4
S'20100207\xc2\xa02:43AM UTC'
p1710
sg6
S'Iran to start work on 20 pct nuclear fuel-president'
p1711
sa(dp1712
g2
S'http://www.reuters.com/article/OILPRD/idUSLDE61602120100207'
p1713
sg4
S'20100207\xc2\xa02:41AM UTC'
p1714
sg6
S'TEXT-EMG-Israel natgas deal amendment comes into force'
p1715
sa(dp1716
g2
S'http://www.reuters.com/article/pressRelease/idUS18394+07-Feb-2010+PRN20100207'
p1717
sg4
S'20100207\xc2\xa02:30AM UTC'
p1718
sg6
S'Following Is a Test Release'
p1719
sa(dp1720
g2
S'http://www.reuters.com/article/worldNews/idUSTRE6160BU20100207'
p1721
sg4
S'20100207\xc2\xa02:09AM UTC'
p1722
sg6
S'Philippine campaign starts as race tightens'
p1723
sa(dp1724
g2
S'http://www.reuters.com/article/homepageCrisis/idUSSGE61600X._CH_.2400'
p1725
sg4
S'20100207\xc2\xa02:07AM UTC'
p1726
sg6
S'Afghan police commander arrested in bomb ring'
p1727
sa(dp1728
g2
S'http://www.reuters.com/article/latestCrisis/idUSSGE61600X'
p1729
sg4
S'20100207\xc2\xa02:07AM UTC'
p1730
sg6
S'Afghan police commander arrested in bomb ring'
p1731
sa(dp1732
g2
S'http://www.reuters.com/article/hotStocksNews/idUSLDE61601F20100207'
p1733
sg4
S'20100207\xc2\xa02:04AM UTC'
p1734
sg6
S'Saudi Fransi makes highest loan loss impairment in Q4'
p1735
sa(dp1736
g2
S'http://www.reuters.com/article/industrialsSector/idUSLDE61601C20100207'
p1737
sg4
S'20100207\xc2\xa02:04AM UTC'
p1738
sg6
S"Deutsche Bahn's Grube sees only gradual recovery"
p1739
sa(dp1740
g2
S'http://www.reuters.com/article/sportsNews/idUSTRE61607H20100207'
p1741
sg4
S'20100207\xc2\xa02:01AM UTC'
p1742
sg6
S"Toronto routs Ottawa to snap Sens' 11-game win streak"
p1743
sa(dp1744
g2
S'http://www.reuters.com/article/pressRelease/idUS17828+07-Feb-2010+PRN20100207'
p1745
sg4
S'20100207\xc2\xa02:00AM UTC'
p1746
sg6
S'Following Is a Test Release'
p1747
sa(dp1748
g2
S'http://www.reuters.com/article/pressRelease/idUS17796+07-Feb-2010+BW20100207'
p1749
sg4
S'20100207\xc2\xa02:00AM UTC'
p1750
sg6
S'Ampal-American Israel Corporation Announced That the Amendment to the Gas Sale Agreement Between EMG and Israel Electric Corporation Legally Came into Force'
p1751
sa(dp1752
g2
S'http://www.reuters.com/article/pressRelease/idUS17288+07-Feb-2010+PRN20100207'
p1753
sg4
S'20100207\xc2\xa01:30AM UTC'
p1754
sg6
S'Following Is a Test Release'
p1755
sa(dp1756
g2
S'http://www.reuters.com/article/hotStocksNews/idUSSGE60R0FU20100207'
p1757
sg4
S'20100207\xc2\xa01:27AM UTC'
p1758
sg6
S'Strong quake strikes east of Taiwan'
p1759
sa(dp1760
g2
S'http://www.reuters.com/article/homepageCrisis/idUS126553607023._CH_.2400'
p1761
sg4
S'20100207\xc2\xa01:27AM UTC'
p1762
sg6
S'Strong quake strikes east of Taiwan'
p1763
sa(dp1764
g2
S'http://www.reuters.com/article/latestCrisis/idUS126553607023'
p1765
sg4
S'20100207\xc2\xa01:27AM UTC'
p1766
sg6
S'Strong quake strikes east of Taiwan'
p1767
sa(dp1768
g2
S'http://www.reuters.com/article/rbssWirelessTelecommunicationServices/idUSLR68420100207'
p1769
sg4
S'20100207\xc2\xa01:22AM UTC'
p1770
sg6
S'DIARY - Egypt/Sudan - Feb 7'
p1771
sa(dp1772
g2
S'http://www.reuters.com/article/pressRelease/idUS17032+07-Feb-2010+PRN20100207'
p1773
sg4
S'20100207\xc2\xa01:11AM UTC'
p1774
sg6
S'Following Is a Test Release'
p1775
sa(dp1776
g2
S'http://www.reuters.com/article/pressRelease/idUS16958+07-Feb-2010+PRN20100207'
p1777
sg4
S'20100207\xc2\xa01:07AM UTC'
p1778
sg6
S'Following Is a Test Release'
p1779
sa(dp1780
g2
S'http://www.reuters.com/article/pressRelease/idUS16824+07-Feb-2010+PRN20100207'
p1781
sg4
S'20100207\xc2\xa01:00AM UTC'
p1782
sg6
S'Following Is a Test Release'
p1783
sa(dp1784
g2
S'http://www.reuters.com/article/domesticNews/idUSTRE6160BF20100207'
p1785
sg4
S'20100207\xc2\xa012:42AM UTC'
p1786
sg6
S'New Orleans elects first white mayor since 1978'
p1787
sa(dp1788
g2
S'http://www.reuters.com/article/pressRelease/idUS16550+07-Feb-2010+PRN20100207'
p1789
sg4
S'20100207\xc2\xa012:40AM UTC'
p1790
sg6
S'The Ohio State University Wins $50,000 Grand Prize at the Wake Forest University MBA Case Competition'
p1791
sa(dp1792
g2
S'http://www.reuters.com/article/pressRelease/idUS16399+07-Feb-2010+PRN20100207'
p1793
sg4
S'20100207\xc2\xa012:30AM UTC'
p1794
sg6
S"Pixar's 'Up' Wins the Annie for Best Feature"
p1795
sa(dp1796
g2
S'http://www.reuters.com/article/pressRelease/idUS16398+07-Feb-2010+PRN20100207'
p1797
sg4
S'20100207\xc2\xa012:30AM UTC'
p1798
sg6
S'Following Is a Test Release'
p1799
sa(dp1800
g2
S'http://www.reuters.com/article/newsOne/idUSTRE61517220100207'
p1801
sg4
S'20100207\xc2\xa012:24AM UTC'
p1802
sg6
S'Amazon reshelves Macmillan titles but not e-books'
p1803
sa(dp1804
g2
S'http://www.reuters.com/article/companyNewsAndPR/idUSSGE61600M20100207'
p1805
sg4
S'20100207\xc2\xa012:23AM UTC'
p1806
sg6
S'UPDATE 2-Australia to end bank and funding guarantees'
p1807
sa(dp1808
g2
S'http://www.reuters.com/article/companyNewsAndPR/idUSN0617556920100207'
p1809
sg4
S'20100207\xc2\xa012:19AM UTC'
p1810
sg6
S'New Orleans elects first white mayor since 1978'
p1811
sa(dp1812
g2
S'http://www.reuters.com/article/pressRelease/idUS16211+07-Feb-2010+PRN20100207'
p1813
sg4
S'20100207\xc2\xa012:18AM UTC'
p1814
sg6
S'Following Is a Test Release'
p1815
sa(dp1816
g2
S'http://www.reuters.com/article/pressRelease/idUS16156+07-Feb-2010+PRN20100207'
p1817
sg4
S'20100207\xc2\xa012:12AM UTC'
p1818
sg6
S'Following Is a Test Release'
p1819
sa(dp1820
g2
S'http://www.reuters.com/article/etfNews/idUSLDE61600M20100207'
p1821
sg4
S'20100207\xc2\xa012:02AM UTC'
p1822
sg6
S'PRESS DIGEST - British business - Feb 7'
p1823
sa(dp1824
g2
S'http://www.reuters.com/article/pressRelease/idUS16026+07-Feb-2010+PRN20100207'
p1825
sg4
S'20100207\xc2\xa012:01AM UTC'
p1826
sg6
S'U.S. Census Bureau Daily Feature for February 7'
p1827
sa(dp1828
g2
S'http://www.reuters.com/article/pressRelease/idUS16018+07-Feb-2010+PRN20100207'
p1829
sg4
S'20100207\xc2\xa012:01AM UTC'
p1830
sg6
S'U.S. Census Bureau Black History Month Feature for Feb. 7'
p1831
sa(dp1832
g2
S'http://www.reuters.com/article/pressRelease/idUS15992+07-Feb-2010+PRN20100207'
p1833
sg4
S'20100207\xc2\xa012:00AM UTC'
p1834
sg6
S'Following Is a Test Release'
p1835
sa(dp1836
g2
S'http://www.reuters.com/news/video/videoStory?storyID=WAO1260319170656'
p1837
sg4
S'20100207\xc2\xa07:47PM UTC'
p1838
sg6
S"Shuttle Endeavour's pre-dawn launch"
p1839
sa(dp1840
g2
S'http://www.reuters.com/news/video/videoStory?storyID=RCDOVE617HKL1'
p1841
sg4
S'20100207\xc2\xa07:47PM UTC'
p1842
sg6
S"Shuttle Endeavour's pre-dawn launch"
p1843
sa(dp1844
g2
S'http://www.reuters.com/news/video/videoStory?storyID=RCDOVE616WOD1'
p1845
sg4
S'20100207\xc2\xa06:42PM UTC'
p1846
sg6
S'"Dear John" tops "Avatar"'
p1847
sa(dp1848
g2
S'http://www.reuters.com/news/video/videoStory?storyID=RCDOVE616WON1'
p1849
sg4
S'20100207\xc2\xa06:42PM UTC'
p1850
sg6
S'"Dear John" tops "Avatar."'
p1851
sa(dp1852
g2
S'http://www.reuters.com/news/video/videoStory?storyID=RCDOVE616W5L1'
p1853
sg4
S'20100207\xc2\xa06:17PM UTC'
p1854
sg6
S'Blizzard ends, cleanup begins'
p1855
sa(dp1856
g2
S'http://www.reuters.com/news/video/videoStory?storyID=RCDOVE616VNU1'
p1857
sg4
S'20100207\xc2\xa06:02PM UTC'
p1858
sg6
S'Carnival has gone to the dogs'
p1859
sa(dp1860
g2
S'http://www.reuters.com/news/video/videoStory?storyID=RCDOVE616TUI1'
p1861
sg4
S'20100207\xc2\xa04:37PM UTC'
p1862
sg6
S'At least 2 die in plant explosion'
p1863
sa(dp1864
g2
S'http://www.reuters.com/news/video/videoStory?storyID=RCDOVE616SPF1'
p1865
sg4
S'20100207\xc2\xa03:52PM UTC'
p1866
sg6
S'Exit polls give Yanukovich lead'
p1867
sa(dp1868
g2
S'http://www.reuters.com/news/video/videoStory?storyID=RCDOVE616PSQ1'
p1869
sg4
S'20100207\xc2\xa01:47PM UTC'
p1870
sg6
S'Holbrooke on the Taliban'
p1871
sa(dp1872
g2
S'http://www.reuters.com/news/video/videoStory?storyID=RCDOVE616P151'
p1873
sg4
S'20100207\xc2\xa01:22PM UTC'
p1874
sg6
S'Ukrainians vote in tense run-off'
p1875
sa(dp1876
g2
S'http://www.reuters.com/news/video/videoStory?storyID=RCDOVE616NJZ1'
p1877
sg4
S'20100207\xc2\xa012:17PM UTC'
p1878
sg6
S'Blast in Kandahar'
p1879
sa(dp1880
g2
S'http://www.reuters.com/news/video/videoStory?storyID=RCDOVE616MEJ1'
p1881
sg4
S'20100207\xc2\xa011:27AM UTC'
p1882
sg6
S'Park returns from North Korea'
p1883
sa(dp1884
g2
S'http://www.reuters.com/news/video/videoStory?storyID=RCDOVE616LA51'
p1885
sg4
S'20100207\xc2\xa010:32AM UTC'
p1886
sg6
S'Shiite anger over Saddam candidates'
p1887
sa(dp1888
g2
S'http://www.reuters.com/news/video/videoStory?storyID=RCDOVE616KKD1'
p1889
sg4
S'20100207\xc2\xa010:02AM UTC'
p1890
sg6
S'Iran spurns nuclear offer'
p1891
sa(dp1892
g2
S'http://www.reuters.com/news/video/videoStory?storyID=WAO1260319170613'
p1893
sg4
S'20100207\xc2\xa08:55AM UTC'
p1894
sg6
S'Watching militant groups in PoK: Min'
p1895
sa(dp1896
g2
S'http://www.reuters.com/news/video/videoStory?storyID=WAO1260319170608'
p1897
sg4
S'20100207\xc2\xa08:52AM UTC'
p1898
sg6
S'PM lists J&K;, Maoists as big worry'
p1899
sa(dp1900
g2
S'http://www.reuters.com/news/video/videoStory?storyID=WAO1260319170603'
p1901
sg4
S'20100207\xc2\xa08:49AM UTC'
p1902
sg6
S'IPCC gets EU backing'
p1903
sa(dp1904
g2
S'http://www.reuters.com/news/video/videoStory?storyID=WAO1260319170601'
p1905
sg4
S'20100207\xc2\xa08:44AM UTC'
p1906
sg6
S'Railways asks India Inc to invest'
p1907
sa(dp1908
g2
S'http://www.reuters.com/news/video/videoStory?storyID=WAO1260319170596'
p1909
sg4
S'20100207\xc2\xa08:40AM UTC'
p1910
sg6
S'Jharkhand issues Avian flu alert'
p1911
sa(dp1912
g2
S'http://www.reuters.com/news/video/videoStory?storyID=RCDOVE616G7R1'
p1913
sg4
S'20100207\xc2\xa06:57AM UTC'
p1914
sg6
S'Beijing singles shop for love'
p1915
sa(dp1916
g2
S'http://www.reuters.com/news/video/videoStory?storyID=WAO1260319170591'
p1917
sg4
S'20100207\xc2\xa02:04AM UTC'
p1918
sg6
S'Satyam probe almost complete: Min'
p1919
sa(dp1920
g2
S'http://www.reuters.com/news/video/videoStory?storyID=WAO1260319170586'
p1921
sg4
S'20100207\xc2\xa01:58AM UTC'
p1922
sg6
S"Security for Shah Rukh's film:Chavan"
p1923
sa.