(lp0
(dp1
S'href'
p2
S'http://www.reuters.com/article/2010/10/17/idUS19970+17-Oct-2010+PRN20101017'
p3
sS'ts'
p4
S'20101016\xc2\xa011:30PM UTC'
p5
sS'title'
p6
S'Following Is a Test Release'
p7
sa(dp8
g2
S'http://www.reuters.com/article/2010/10/17/us-baseball-playoffs-philadelhpia-idUSTRE69G05F20101017'
p9
sg4
S'20101016\xc2\xa011:08PM UTC'
p10
sg6
S'Lincecum sparks Giants to 4-3 win over Phils in NLCS'
p11
sa(dp12
g2
S'http://www.reuters.com/article/2010/10/17/idUS18573+17-Oct-2010+PRN20101017'
p13
sg4
S'20101016\xc2\xa011:00PM UTC'
p14
sg6
S'Following Is a Test Release'
p15
sa(dp16
g2
S'http://www.reuters.com/article/2010/10/17/us-china-economy-gdp-idUSTRE69G04920101017'
p17
sg4
S'20101016\xc2\xa010:49PM UTC'
p18
sg6
S'China government researcher sees GDP up 9 percent in 2011'
p19
sa(dp20
g2
S'http://www.reuters.com/article/2010/10/17/china-economy-gdp-idUSTOE69G00520101017'
p21
sg4
S'20101016\xc2\xa010:48PM UTC'
p22
sg6
S'China govt researcher sees GDP up 9 pct in 2011 -Xinhua'
p23
sa(dp24
g2
S'http://www.reuters.com/article/2010/10/17/idUS17196+17-Oct-2010+PRN20101017'
p25
sg4
S'20101016\xc2\xa010:30PM UTC'
p26
sg6
S'Following Is a Test Release'
p27
sa(dp28
g2
S'http://www.reuters.com/article/2010/10/17/ecb-trichet-idUSSGE69G00A20101017'
p29
sg4
S'20101016\xc2\xa010:08PM UTC'
p30
sg6
S"UPDATE 1-ECB's Trichet rejects Weber view on bond buying"
p31
sa(dp32
g2
S'http://www.reuters.com/article/2010/10/17/ecb-trichet-idUSSGE69G00920101017'
p33
sg4
S'20101016\xc2\xa010:06PM UTC'
p34
sg6
S"ECB's Trichet rejects Weber view on bond buying"
p35
sa(dp36
g2
S'http://www.reuters.com/article/2010/10/17/idUS15736+17-Oct-2010+PRN20101017'
p37
sg4
S'20101016\xc2\xa010:00PM UTC'
p38
sg6
S'Following Is a Test Release'
p39
sa(dp40
g2
S'http://www.reuters.com/article/2010/10/17/idUS14987+17-Oct-2010+BW20101017'
p41
sg4
S'20101016\xc2\xa09:45PM UTC'
p42
sg6
S'Gap Inc. aggiorna gli investitori sul piano strategico della societ\xc3\xa0 per i prossimi tre-cinque anni'
p43
sa(dp44
g2
S'http://www.reuters.com/article/2010/10/17/idUS14983+17-Oct-2010+BW20101017'
p45
sg4
S'20101016\xc2\xa09:45PM UTC'
p46
sg6
S'Gap Inc. fait le point pour les investisseurs sur sa strat\xc3\xa9gie pour les trois \xc3\xa0 cinq prochaines ann\xc3\xa9es'
p47
sa(dp48
g2
S'http://www.reuters.com/article/2010/10/17/us-baseball-playoffs-texas-idUSTRE69F08920101017'
p49
sg4
S'20101016\xc2\xa09:30PM UTC'
p50
sg6
S'Rangers rout Yanks to tie AL Championship Series'
p51
sa(dp52
g2
S'http://www.reuters.com/article/2010/10/17/idUS14274+17-Oct-2010+PRN20101017'
p53
sg4
S'20101016\xc2\xa09:30PM UTC'
p54
sg6
S'Following Is a Test Release'
p55
sa(dp56
g2
S'http://www.reuters.com/article/2010/10/17/us-golf-pga-saturday-idUSTRE69G01G20101017'
p57
sg4
S'20101016\xc2\xa09:03PM UTC'
p58
sg6
S'Magical Mediate stays three ahead in San Martin'
p59
sa(dp60
g2
S'http://www.reuters.com/article/2010/10/17/idUS12729+17-Oct-2010+PRN20101017'
p61
sg4
S'20101016\xc2\xa09:00PM UTC'
p62
sg6
S'Following Is a Test Release'
p63
sa(dp64
g2
S'http://www.reuters.com/article/2010/10/17/us-mexico-gunmen-attack-idUSTRE69G00I20101017'
p65
sg4
S'20101016\xc2\xa08:37PM UTC'
p66
sg6
S'Six killed in gun attack in Mexican border city'
p67
sa(dp68
g2
S'http://www.reuters.com/article/2010/10/17/idUS11297+17-Oct-2010+PRN20101017'
p69
sg4
S'20101016\xc2\xa08:30PM UTC'
p70
sg6
S'Following Is a Test Release'
p71
sa(dp72
g2
S'http://www.reuters.com/article/2010/10/17/idUS10626+17-Oct-2010+PRN20101017'
p73
sg4
S'20101016\xc2\xa08:12PM UTC'
p74
sg6
S'Ulrich Joins V O Group as VP General Counsel'
p75
sa(dp76
g2
S'http://www.reuters.com/article/2010/10/17/idUS10014+17-Oct-2010+PRN20101017'
p77
sg4
S'20101016\xc2\xa08:00PM UTC'
p78
sg6
S'Following Is a Test Release'
p79
sa(dp80
g2
S'http://www.reuters.com/article/2010/10/16/us-billingsley-idUSTRE69F1CT20101016'
p81
sg4
S'20101016\xc2\xa07:48PM UTC'
p82
sg6
S'"Leave It to Beaver" mom Barbara Billingsley dies'
p83
sa(dp84
g2
S'http://www.reuters.com/article/2010/10/16/people-billingsley-idUSN1624800320101016'
p85
sg4
S'20101016\xc2\xa07:46PM UTC'
p86
sg6
S"UPDATE 2-'Leave It to Beaver' mom Barbara Billingsley dies"
p87
sa(dp88
g2
S'http://www.reuters.com/article/2010/10/16/us-germany-merkel-immigration-idUSTRE69F1K320101016'
p89
sg4
S'20101016\xc2\xa07:46PM UTC'
p90
sg6
S'Merkel says German multiculturalism has failed'
p91
sa(dp92
g2
S'http://www.reuters.com/article/2010/10/16/us-soccer-world-fifa-idUSTRE69F1KR20101016'
p93
sg4
S'20101016\xc2\xa07:36PM UTC'
p94
sg6
S'FIFA to investigate report of World Cup vote-selling'
p95
sa(dp96
g2
S'http://www.reuters.com/article/2010/10/16/idUS66591+16-Oct-2010+PRN20101016'
p97
sg4
S'20101016\xc2\xa07:30PM UTC'
p98
sg6
S'Following Is a Test Release'
p99
sa(dp100
g2
S'http://www.reuters.com/article/2010/10/16/idUS66276+16-Oct-2010+BW20101016'
p101
sg4
S'20101016\xc2\xa07:24PM UTC'
p102
sg6
S"Des donn\xc3\xa9es soutenant l'essai clinique sur les anticorps anti-JCV ont \xc3\xa9t\xc3\xa9 pr\xc3\xa9sent\xc3\xa9es lors du 26e Congr\xc3\xa8s du Comit\xc3\xa9 europ\xc3\xa9en pour le traitement et la recherche sur la scl\xc3\xa9rose en plaques"
p103
sa(dp104
g2
S'http://www.reuters.com/article/2010/10/16/us-boxing-heavyweight-idUSTRE69F1I620101016'
p105
sg4
S'20101016\xc2\xa07:16PM UTC'
p106
sg6
S'Vitali Klitschko retains WBC heavyweight crown'
p107
sa(dp108
g2
S'http://www.reuters.com/article/2010/10/16/idUS65040+16-Oct-2010+PRN20101016'
p109
sg4
S'20101016\xc2\xa07:00PM UTC'
p110
sg6
S'Following Is a Test Release'
p111
sa(dp112
g2
S'http://www.reuters.com/article/2010/10/16/us-nfl-favre-idUSTRE69F1HW20101016'
p113
sg4
S'20101016\xc2\xa06:48PM UTC'
p114
sg6
S'Favre to meet league official next week, says Goodell'
p115
sa(dp116
g2
S'http://www.reuters.com/article/2010/10/16/idUS63970+16-Oct-2010+BW20101016'
p117
sg4
S'20101016\xc2\xa06:39PM UTC'
p118
sg6
S'Paul Campaign Condemns Jack Conway`s Shameful Tactics'
p119
sa(dp120
g2
S'http://www.reuters.com/article/2010/10/16/us-ecuador-miners-idUSTRE69F0ZQ20101016'
p121
sg4
S'20101016\xc2\xa06:38PM UTC'
p122
sg6
S'Two of four trapped Ecuadorean miners found dead'
p123
sa(dp124
g2
S'http://www.reuters.com/article/2010/10/16/us-usa-stocks-weekahead-idUSTRE69E5SY20101016'
p125
sg4
S'20101016\xc2\xa06:35PM UTC'
p126
sg6
S"Foreclosure debacle to test stocks' rally"
p127
sa(dp128
g2
S'http://www.reuters.com/article/2010/10/16/idUS63509+16-Oct-2010+PRN20101016'
p129
sg4
S'20101016\xc2\xa06:30PM UTC'
p130
sg6
S'Following Is a Test Release'
p131
sa(dp132
g2
S'http://www.reuters.com/article/2010/10/16/us-palestinians-israel-idUSTRE69F1FS20101016'
p133
sg4
S'20101016\xc2\xa06:25PM UTC'
p134
sg6
S'New date sought for Paris peace summit: Israel'
p135
sa(dp136
g2
S'http://www.reuters.com/article/2010/10/16/us-france-pensions-idUSTRE69E43320101016'
p137
sg4
S'20101016\xc2\xa06:05PM UTC'
p138
sg6
S'French protesters rally over pension reform'
p139
sa(dp140
g2
S'http://www.reuters.com/article/2010/10/16/idUS62214+16-Oct-2010+PRN20101016'
p141
sg4
S'20101016\xc2\xa06:00PM UTC'
p142
sg6
S'Following Is a Test Release'
p143
sa(dp144
g2
S'http://www.reuters.com/article/2010/10/16/us-gm-uaw-idUSTRE69F1EU20101016'
p145
sg4
S'20101016\xc2\xa05:57PM UTC'
p146
sg6
S'GM workers protest low-wage small-car plant'
p147
sa(dp148
g2
S'http://www.reuters.com/article/2010/10/16/gm-uaw-idUSN1624421420101016'
p149
sg4
S'20101016\xc2\xa05:55PM UTC'
p150
sg6
S'GM workers protest low-wage U.S. small-car plant'
p151
sa(dp152
g2
S'http://www.reuters.com/article/2010/10/16/us-sandoval-idUSTRE69F1E920101016'
p153
sg4
S'20101016\xc2\xa05:38PM UTC'
p154
sg6
S'Jazz trumpeter Sandoval realizes dream of "Love"'
p155
sa(dp156
g2
S'http://www.reuters.com/article/2010/10/16/us-jars-idUSTRE69F1DV20101016'
p157
sg4
S'20101016\xc2\xa05:37PM UTC'
p158
sg6
S'Christian band takes "Shelter" in community'
p159
sa(dp160
g2
S'http://www.reuters.com/article/2010/10/16/us-stage-flashdance-idUSTRE69F1DK20101016'
p161
sg4
S'20101016\xc2\xa05:36PM UTC'
p162
sg6
S'"Flashdance" has right moves as stage musical'
p163
sa(dp164
g2
S'http://www.reuters.com/article/2010/10/16/czech-election-idUSLDE69F08620101016'
p165
sg4
S'20101016\xc2\xa05:36PM UTC'
p166
sg6
S"Czech PM's party loses Prague vote, coalition sound"
p167
sa(dp168
g2
S'http://www.reuters.com/article/2010/10/16/idUS61706+16-Oct-2010+PRN20101016'
p169
sg4
S'20101016\xc2\xa05:30PM UTC'
p170
sg6
S'Following Is a Test Release'
p171
sa(dp172
g2
S'http://www.reuters.com/article/2010/10/16/bombardier-idUSN1624295120101016'
p173
sg4
S'20101016\xc2\xa05:27PM UTC'
p174
sg6
S'Bombardier to launch two new business jets'
p175
sa(dp176
g2
S'http://www.reuters.com/article/2010/10/16/us-obese-people-idUSTRE69F1AN20101016'
p177
sg4
S'20101016\xc2\xa05:26PM UTC'
p178
sg6
S'Many obese people see no need to lose weight'
p179
sa(dp180
g2
S'http://www.reuters.com/article/2010/10/16/us-usa-elections-massachusetts-idUSTRE69F1C720101016'
p181
sg4
S'20101016\xc2\xa05:11PM UTC'
p182
sg6
S'Obama backs governor where key Senate seat fell'
p183
sa(dp184
g2
S'http://www.reuters.com/article/2010/10/16/idUS61127+16-Oct-2010+PRN20101016'
p185
sg4
S'20101016\xc2\xa05:00PM UTC'
p186
sg6
S'Following Is a Test Release'
p187
sa(dp188
g2
S'http://www.reuters.com/article/2010/10/16/idUS60915+16-Oct-2010+HUG20101016'
p189
sg4
S'20101016\xc2\xa04:46PM UTC'
p190
sg6
S'Novartis International AG: Long-term data show Novartis once-yearly Aclasta preserves bone mass and provides fracture protection in postmenopausal osteoporosis'
p191
sa(dp192
g2
S'http://www.reuters.com/article/2010/10/16/idUS60867+16-Oct-2010+PRN20101016'
p193
sg4
S'20101016\xc2\xa04:45PM UTC'
p194
sg6
S'Long-Term Data Show Novartis Once-Yearly Reclast Preserves Bone Mass and Provides Fracture Protection in Postmenopausal Osteoporosis'
p195
sa(dp196
g2
S'http://www.reuters.com/article/2010/10/16/idUS60519+16-Oct-2010+PRN20101016'
p197
sg4
S'20101016\xc2\xa04:30PM UTC'
p198
sg6
S'Following Is a Test Release'
p199
sa(dp200
g2
S'http://www.reuters.com/article/2010/10/16/us-nhl-sharks-thornton-idUSTRE69F19G20101016'
p201
sg4
S'20101016\xc2\xa04:11PM UTC'
p202
sg6
S'Sharks captain Thornton signs contract extension'
p203
sa(dp204
g2
S'http://www.reuters.com/article/2010/10/16/idUS60024+16-Oct-2010+PRN20101016'
p205
sg4
S'20101016\xc2\xa04:00PM UTC'
p206
sg6
S'Following Is a Test Release'
p207
sa(dp208
g2
S'http://www.reuters.com/article/2010/10/16/us-iran-release-idUSTRE69F18W20101016'
p209
sg4
S'20101016\xc2\xa03:55PM UTC'
p210
sg6
S'Iran frees U.S. businessman held for 30 months: report'
p211
sa(dp212
g2
S'http://www.reuters.com/article/2010/10/16/us-chile-miners-idUSN0925972620101016'
p213
sg4
S'20101016\xc2\xa03:40PM UTC'
p214
sg6
S"Chile's rescued miners tight-lipped about ordeal"
p215
sa(dp216
g2
S'http://www.reuters.com/article/2010/10/16/idUS59614+16-Oct-2010+PRN20101016'
p217
sg4
S'20101016\xc2\xa03:30PM UTC'
p218
sg6
S'Following Is a Test Release'
p219
sa(dp220
g2
S'http://www.reuters.com/article/2010/10/16/us-afghanistan-blast-idUSTRE69F0WF20101016'
p221
sg4
S'20101016\xc2\xa03:20PM UTC'
p222
sg6
S'Blasts hit southern Afghan city, at least one dead'
p223
sa(dp224
g2
S'http://www.reuters.com/article/2010/10/16/us-venezuela-belarus-oil-idUSTRE69F16V20101016'
p225
sg4
S'20101016\xc2\xa03:16PM UTC'
p226
sg6
S'Venezuela inks oil deal with Belarus'
p227
sa(dp228
g2
S'http://www.reuters.com/article/2010/10/16/venezuela-belarus-oil-idUSLDE69F0CK20101016'
p229
sg4
S'20101016\xc2\xa03:14PM UTC'
p230
sg6
S'UPDATE 2-Venezuela inks oil deal with Belarus--Chavez'
p231
sa(dp232
g2
S'http://www.reuters.com/article/2010/10/16/idUS59094+16-Oct-2010+PRN20101016'
p233
sg4
S'20101016\xc2\xa03:00PM UTC'
p234
sg6
S'Following Is a Test Release'
p235
sa(dp236
g2
S'http://www.reuters.com/article/2010/10/16/idUS59087+16-Oct-2010+BW20101016'
p237
sg4
S'20101016\xc2\xa03:00PM UTC'
p238
sg6
S'Digimarc Schedules Third Quarter Conference Call for October 20, 2010 at 8:30 a.m. Eastern time'
p239
sa(dp240
g2
S'http://www.reuters.com/article/2010/10/16/idUS59084+16-Oct-2010+PRN20101016'
p241
sg4
S'20101016\xc2\xa02:59PM UTC'
p242
sg6
S'Prison Drug Treatment Would Reduce Overcrowding, Crime, Budgets Say Robert Weiner, Ex-White House Drug Spokesman & Chicago Expert Daphne Baille;'
p243
sa(dp244
g2
S'http://www.reuters.com/article/2010/10/16/generalgrowth-idUSN1624570320101016'
p245
sg4
S'20101016\xc2\xa02:46PM UTC'
p246
sg6
S'RPT-UPDATE 1-General Growth eyes Nov 8 bankruptcy exit'
p247
sa(dp248
g2
S'http://www.reuters.com/article/2010/10/16/edf-constellation-idUSN1624454020101016'
p249
sg4
S'20101016\xc2\xa02:30PM UTC'
p250
sg6
S'UPDATE 2-EDF wants meeting over Constellation disputes-sources'
p251
sa(dp252
g2
S'http://www.reuters.com/article/2010/10/16/usa-fed-rosengren-idUSN1624451120101016'
p253
sg4
S'20101016\xc2\xa02:30PM UTC'
p254
sg6
S'RPT-Rosengren-Fed should actively battle deflation risk'
p255
sa(dp256
g2
S'http://www.reuters.com/article/2010/10/16/idUS58574+16-Oct-2010+PRN20101016'
p257
sg4
S'20101016\xc2\xa02:30PM UTC'
p258
sg6
S'Following Is a Test Release'
p259
sa(dp260
g2
S'http://www.reuters.com/article/2010/10/16/idUS58568+16-Oct-2010+BW20101016'
p261
sg4
S'20101016\xc2\xa02:30PM UTC'
p262
sg6
S'Sunoco to Supply NASCAR with Ethanol-Blended Race Fuel'
p263
sa(dp264
g2
S'http://www.reuters.com/article/2010/10/16/idUS58364+16-Oct-2010+PRN20101016'
p265
sg4
S'20101016\xc2\xa02:18PM UTC'
p266
sg6
S"Cablevision, Rejecting Verizon's Request, Refuses to Provide FiOS TV Subscribers - and Millions of Other Viewers - Access to New York Gubernatorial Debate"
p267
sa(dp268
g2
S'http://www.reuters.com/article/2010/10/16/us-iran-sanctions-total-interview-idUSTRE69F0Z620101016'
p269
sg4
S'20101016\xc2\xa02:13PM UTC'
p270
sg6
S'Total says has halted oil products trade with Iran'
p271
sa(dp272
g2
S'http://www.reuters.com/article/2010/10/16/iran-sanctions-total-idUSLDE69F0CQ20101016'
p273
sg4
S'20101016\xc2\xa02:10PM UTC'
p274
sg6
S'UPDATE 1-Total says has halted oil products trade with Iran'
p275
sa(dp276
g2
S'http://www.reuters.com/article/2010/10/16/iran-sanctions-total-idUSLDE69F0B720101016'
p277
sg4
S'20101016\xc2\xa02:09PM UTC'
p278
sg6
S'UPDATE 1-Total says has halted oil products trade with Iran'
p279
sa(dp280
g2
S'http://www.reuters.com/article/2010/10/16/idUS57755+16-Oct-2010+PRN20101016'
p281
sg4
S'20101016\xc2\xa02:00PM UTC'
p282
sg6
S'Following Is a Test Release'
p283
sa(dp284
g2
S'http://www.reuters.com/article/2010/10/16/us-citi-terrafirma-idUSTRE69F15620101016'
p285
sg4
S'20101016\xc2\xa01:53PM UTC'
p286
sg6
S'Citi, Terra Firma held settlement talks: report'
p287
sa(dp288
g2
S'http://www.reuters.com/article/2010/10/16/us-iraq-violence-arrests-idUSTRE69F13P20101016'
p289
sg4
S'20101016\xc2\xa01:49PM UTC'
p290
sg6
S'Seven Iraqis arrested in September army base attack'
p291
sa(dp292
g2
S'http://www.reuters.com/article/2010/10/16/us-usa-fed-evans-idUSTRE69F11D20101016'
p293
sg4
S'20101016\xc2\xa01:49PM UTC'
p294
sg6
S'Fed official says U.S. needs "much more" accommodation'
p295
sa(dp296
g2
S'http://www.reuters.com/article/2010/10/16/us-usa-fed-wrapup-idUSTRE69F12Y20101016'
p297
sg4
S'20101016\xc2\xa01:46PM UTC'
p298
sg6
S'Two Fed officials favor aggressive easing options'
p299
sa(dp300
g2
S'http://www.reuters.com/article/2010/10/16/france-pensions-idUSLDE69F04M20101016'
p301
sg4
S'20101016\xc2\xa01:44PM UTC'
p302
sg6
S'UPDATE 3-French protesters rally over pension reform'
p303
sa(dp304
g2
S'http://www.reuters.com/article/2010/10/16/brazil-forex-measures-idUSN1622225020101016'
p305
sg4
S'20101016\xc2\xa01:38PM UTC'
p306
sg6
S'RPT-Brazil to seek bourse help in currency plan-report'
p307
sa(dp308
g2
S'http://www.reuters.com/article/2010/10/16/citi-terrafirma-idUSN1624158420101016'
p309
sg4
S'20101016\xc2\xa01:36PM UTC'
p310
sg6
S'Citi, Terra Firma held settlement talks - WSJ'
p311
sa(dp312
g2
S'http://www.reuters.com/article/2010/10/16/usa-fed-wrapup-idUSN1620844520101016'
p313
sg4
S'20101016\xc2\xa01:35PM UTC'
p314
sg6
S'WRAPUP 1-Two Fed officials favor aggressive easing options'
p315
sa(dp316
g2
S'http://www.reuters.com/article/2010/10/16/us-cablevision-newscorp-idUSTRE69F10P20101016'
p317
sg4
S'20101016\xc2\xa01:31PM UTC'
p318
sg6
S'Cablevision customers lose Fox channels in fee dispute'
p319
sa(dp320
g2
S'http://www.reuters.com/article/2010/10/16/usa-fed-evans-idUSNLAGLE62P20101016'
p321
sg4
S'20101016\xc2\xa01:30PM UTC'
p322
sg6
S"Fed's Evans says US needs 'much more' accommodation"
p323
sa(dp324
g2
S'http://www.reuters.com/article/2010/10/16/idUS56750+16-Oct-2010+PRN20101016'
p325
sg4
S'20101016\xc2\xa01:30PM UTC'
p326
sg6
S'Following Is a Test Release'
p327
sa(dp328
g2
S'http://www.reuters.com/article/2010/10/16/cablevision-newscorp-idUSN1624228720101016'
p329
sg4
S'20101016\xc2\xa01:29PM UTC'
p330
sg6
S'Cablevision customers lose Fox channels in fee dispute'
p331
sa(dp332
g2
S'http://www.reuters.com/article/2010/10/16/vale-idUSN165271420101016'
p333
sg4
S'20101016\xc2\xa01:22PM UTC'
p334
sg6
S"Brazil's ruling party denies Vale jobs remark-report"
p335
sa(dp336
g2
S'http://www.reuters.com/article/2010/10/16/germany-switzerland-taxes-idUSLDE69F0BP20101016'
p337
sg4
S'20101016\xc2\xa01:20PM UTC'
p338
sg6
S'Germany, Switzerland reject report of tax deal'
p339
sa(dp340
g2
S'http://www.reuters.com/article/2010/10/16/us-kosovo-government-coalition-idUSTRE69F0QK20101016'
p341
sg4
S'20101016\xc2\xa01:19PM UTC'
p342
sg6
S'Junior partner quits Kosovo coalition, vote looms'
p343
sa(dp344
g2
S'http://www.reuters.com/article/2010/10/16/venezuela-belarus-oil-idUSLDE69F0C520101016'
p345
sg4
S'20101016\xc2\xa01:18PM UTC'
p346
sg6
S'Venezuela inks oil deal with Belarus-Chavez'
p347
sa(dp348
g2
S'http://www.reuters.com/article/2010/10/16/edf-constellation-idUSWEN127820101016'
p349
sg4
S'20101016\xc2\xa01:14PM UTC'
p350
sg6
S'EDF wants meeting over Constellation disputes-sources'
p351
sa(dp352
g2
S'http://www.reuters.com/article/2010/10/16/idUS55524+16-Oct-2010+PRN20101016'
p353
sg4
S'20101016\xc2\xa01:13PM UTC'
p354
sg6
S'Generex Provides Additional Reverse Stock Split Information for the Consideration of Stockholders'
p355
sa(dp356
g2
S'http://www.reuters.com/article/2010/10/16/idUS54288+16-Oct-2010+PRN20101016'
p357
sg4
S'20101016\xc2\xa01:00PM UTC'
p358
sg6
S'Following Is a Test Release'
p359
sa(dp360
g2
S'http://www.reuters.com/article/2010/10/16/idUS54017+16-Oct-2010+HUG20101016'
p361
sg4
S'20101016\xc2\xa012:56PM UTC'
p362
sg6
S'Bombardier Aerospace: Bombardier Grows Its Flagship Global Family With Two New Jets: the Global 7000 and Global 8000 Aircraft'
p363
sa(dp364
g2
S'http://www.reuters.com/article/2010/10/16/france-pensions-govt-idUSLDE69F0BM20101016'
p365
sg4
S'20101016\xc2\xa012:44PM UTC'
p366
sg6
S'French govt says 825,000 people join pension march'
p367
sa(dp368
g2
S'http://www.reuters.com/article/2010/10/16/us-japan-china-protests-idUSTRE69F0PH20101016'
p369
sg4
S'20101016\xc2\xa012:42PM UTC'
p370
sg6
S'Japan rallies against China over disputed islands'
p371
sa(dp372
g2
S'http://www.reuters.com/article/2010/10/16/idUS52052+16-Oct-2010+BW20101016'
p373
sg4
S'20101016\xc2\xa012:35PM UTC'
p374
sg6
S'Petroplus Comments on Operations of the Reichstett and Cressier Refineries'
p375
sa(dp376
g2
S'http://www.reuters.com/article/2010/10/16/idUS51633+16-Oct-2010+PRN20101016'
p377
sg4
S'20101016\xc2\xa012:30PM UTC'
p378
sg6
S'Following Is a Test Release'
p379
sa(dp380
g2
S'http://www.reuters.com/article/2010/10/16/france-pensions-turnout-idUSLDE69F0B620101016'
p381
sg4
S'20101016\xc2\xa012:17PM UTC'
p382
sg6
S'French unions says up to 3 mln join pension march'
p383
sa(dp384
g2
S'http://www.reuters.com/article/2010/10/16/us-ecb-trichet-reforms-idUSTRE69F0T920101016'
p385
sg4
S'20101016\xc2\xa012:15PM UTC'
p386
sg6
S"ECB's Trichet: Euro zone needs stricter fiscal reforms"
p387
sa(dp388
g2
S'http://www.reuters.com/article/2010/10/16/idUS50342+16-Oct-2010+PRN20101016'
p389
sg4
S'20101016\xc2\xa012:15PM UTC'
p390
sg6
S'ISTA Pharmaceuticals Receives FDA Approval for BROMDAY\xe2\x84\xa2'
p391
sa(dp392
g2
S'http://www.reuters.com/article/2010/10/16/idUS49320+16-Oct-2010+PRN20101016'
p393
sg4
S'20101016\xc2\xa012:04PM UTC'
p394
sg6
S'Concierge Auctions Sells Six Luxury Hawaiian Properties at Live, On-site Auction in Kauai, Hawaii'
p395
sa(dp396
g2
S'http://www.reuters.com/article/2010/10/16/idUS48981+16-Oct-2010+GNW20101016'
p397
sg4
S'20101016\xc2\xa012:00PM UTC'
p398
sg6
S"NASDAQ OMX's GlobeNewswire Launches Do-It-Yourself (DIY) Platform"
p399
sa(dp400
g2
S'http://www.reuters.com/article/2010/10/16/idUS48977+16-Oct-2010+MW20101016'
p401
sg4
S'20101016\xc2\xa012:00PM UTC'
p402
sg6
S' Government of Canada Takes Further Action on Bisphenol A'
p403
sa(dp404
g2
S'http://www.reuters.com/article/2010/10/16/idUS48897+16-Oct-2010+PRN20101016'
p405
sg4
S'20101016\xc2\xa012:00PM UTC'
p406
sg6
S'Following Is a Test Release'
p407
sa(dp408
g2
S'http://www.reuters.com/article/2010/10/16/idUS48875+16-Oct-2010+BW20101016'
p409
sg4
S'20101016\xc2\xa012:00PM UTC'
p410
sg6
S'American Society of Anesthesiology Annual Meeting Chosen for World Debut of Abreu btt System for Continuous Temperature Monitoring'
p411
sa(dp412
g2
S'http://www.reuters.com/article/2010/10/16/idUS48872+16-Oct-2010+BW20101016'
p413
sg4
S'20101016\xc2\xa012:00PM UTC'
p414
sg6
S'Machinists Union Pays Tribute at MLK Historic Site in Atlanta'
p415
sa(dp416
g2
S'http://www.reuters.com/article/2010/10/16/us-usa-florida-celery-idUSTRE69F0VC20101016'
p417
sg4
S'20101016\xc2\xa011:59AM UTC'
p418
sg6
S'Florida company unveils red celery'
p419
sa(dp420
g2
S'http://www.reuters.com/article/2010/10/16/us-jaw-forteo-idUSTRE69F0V520101016'
p421
sg4
S'20101016\xc2\xa011:58AM UTC'
p422
sg6
S'Lilly osteoporosis drug regrows jaw bone: study'
p423
sa(dp424
g2
S'http://www.reuters.com/article/2010/10/16/jaw-forteo-idUSN1620499220101016'
p425
sg4
S'20101016\xc2\xa011:51AM UTC'
p426
sg6
S'Lilly osteoporosis drug regrows jaw bone - studies'
p427
sa(dp428
g2
S'http://www.reuters.com/article/2010/10/16/cycling-lombardy-winner-idUSLDE69F09R20101016'
p429
sg4
S'20101016\xc2\xa011:42AM UTC'
p430
sg6
S'Cycling-Gilbert wins Tour of Lombardy again'
p431
sa(dp432
g2
S'http://www.reuters.com/article/2010/10/16/jcdecaux-saudi-idUSLDE69F0AA20101016'
p433
sg4
S'20101016\xc2\xa011:41AM UTC'
p434
sg6
S'French JCDecaux wins Saudi airports advert deal'
p435
sa(dp436
g2
S'http://www.reuters.com/article/2010/10/16/us-tennis-china-saturday-idUSTRE69F0RA20101016'
p437
sg4
S'20101016\xc2\xa011:41AM UTC'
p438
sg6
S'Federer to face Murray in Shanghai final'
p439
sa(dp440
g2
S'http://www.reuters.com/article/2010/10/16/idUS46921+16-Oct-2010+BW20101016'
p441
sg4
S'20101016\xc2\xa011:40AM UTC'
p442
sg6
S'Alden Houston Introduces New Meeting Space'
p443
sa(dp444
g2
S'http://www.reuters.com/article/2010/10/16/idUS45934+16-Oct-2010+PRN20101016'
p445
sg4
S'20101016\xc2\xa011:30AM UTC'
p446
sg6
S'Following Is a Test Release'
p447
sa(dp448
g2
S'http://www.reuters.com/article/2010/10/16/idUS45322+16-Oct-2010+BW20101016'
p449
sg4
S'20101016\xc2\xa011:24AM UTC'
p450
sg6
S'CHEP Donates Pallets and CHEP Employees Provide Support for the St. James Cathedral School First Annual Pumpkin Patch'
p451
sa(dp452
g2
S'http://www.reuters.com/article/2010/10/16/idUS45055+16-Oct-2010+PRN20101016'
p453
sg4
S'20101016\xc2\xa011:21AM UTC'
p454
sg6
S"Brett Favre's Potential Record-Ending Injury Sheds Light on Common Medical Condition for Many in the Population"
p455
sa(dp456
g2
S'http://www.reuters.com/article/2010/10/16/intesa-idUSLDE69F07V20101016'
p457
sg4
S'20101016\xc2\xa011:14AM UTC'
p458
sg6
S'INTESA 1-Intesa SP looking at eastern Europe - CEO'
p459
sa(dp460
g2
S'http://www.reuters.com/article/2010/10/16/idUS44075+16-Oct-2010+MW20101016'
p461
sg4
S'20101016\xc2\xa011:11AM UTC'
p462
sg6
S' Bombardier Grows Its Flagship Global Family With Two New Jets: the Global 7000 and Global 8000 Aircraft'
p463
sa(dp464
g2
S'http://www.reuters.com/article/2010/10/16/idUS43989+16-Oct-2010+MW20101016'
p465
sg4
S'20101016\xc2\xa011:10AM UTC'
p466
sg6
S' Bombardier Grows Its Flagship Global Family With Two New Jets: the Global 7000 and Global 8000 Aircraft'
p467
sa(dp468
g2
S'http://www.reuters.com/article/2010/10/16/idUS43651+16-Oct-2010+PRN20101016'
p469
sg4
S'20101016\xc2\xa011:07AM UTC'
p470
sg6
S'Medical Device Conference Opens October 18, 2010 With Free Executive Workshops; Full Conference Highlights Latest Industry Trends, Technology Innovations and Keynote Speeches by the U.S. FDA Commissioner, U.S. CMS Administra'
p471
sa(dp472
g2
S'http://www.reuters.com/article/2010/10/16/ecb-trichet-reforms-idUSLDE69F09220101016'
p473
sg4
S'20101016\xc2\xa011:06AM UTC'
p474
sg6
S"UPDATE 1-ECB's Trichet: euro zone needs stricter fiscal reforms"
p475
sa(dp476
g2
S'http://www.reuters.com/article/2010/10/16/us-horse-racing-newmarket-idUSTRE69F0SA20101016'
p477
sg4
S'20101016\xc2\xa011:02AM UTC'
p478
sg6
S'Frankel enhances lofty reputation with another win'
p479
sa(dp480
g2
S'http://www.reuters.com/article/2010/10/16/idUS42895+16-Oct-2010+MW20101016'
p481
sg4
S'20101016\xc2\xa011:01AM UTC'
p482
sg6
S" Canada's Economic Action Plan at Work at La Mauricie National Park of Canada"
p483
sa(dp484
g2
S'http://www.reuters.com/article/2010/10/16/idUS42821+16-Oct-2010+MW20101016'
p485
sg4
S'20101016\xc2\xa011:00AM UTC'
p486
sg6
S" Canada's Economic Action Plan at Work at La Mauricie National Park of Canada"
p487
sa(dp488
g2
S'http://www.reuters.com/article/2010/10/16/idUS42750+16-Oct-2010+PRN20101016'
p489
sg4
S'20101016\xc2\xa011:00AM UTC'
p490
sg6
S'Following Is a Test Release'
p491
sa(dp492
g2
S'http://www.reuters.com/article/2010/10/16/samsung-linde-saudi-idUSLDE69F09Z20101016'
p493
sg4
S'20101016\xc2\xa010:54AM UTC'
p494
sg6
S'RPT-Linde, Samsung consortium wins Saudi acrylic deal'
p495
sa(dp496
g2
S'http://www.reuters.com/article/2010/10/16/us-russia-floods-idUSTRE69F0QB20101016'
p497
sg4
S'20101016\xc2\xa010:44AM UTC'
p498
sg6
S'Floods in Russia kill 11'
p499
sa(dp500
g2
S'http://www.reuters.com/article/2010/10/16/idUS40740+16-Oct-2010+MW20101016'
p501
sg4
S'20101016\xc2\xa010:39AM UTC'
p502
sg6
S' Bombardier Grows Its Flagship Global Family With Two New Jets: the Global 7000 and Global 8000 Aircraft'
p503
sa(dp504
g2
S'http://www.reuters.com/article/2010/10/16/idUS39859+16-Oct-2010+PRN20101016'
p505
sg4
S'20101016\xc2\xa010:30AM UTC'
p506
sg6
S'Following Is a Test Release'
p507
sa(dp508
g2
S'http://www.reuters.com/article/2010/10/16/idUS37195+16-Oct-2010+PRN20101016'
p509
sg4
S'20101016\xc2\xa010:00AM UTC'
p510
sg6
S'Following Is a Test Release'
p511
sa(dp512
g2
S'http://www.reuters.com/article/2010/10/16/ecb-trichet-reforms-idUSLDE69F07020101016'
p513
sg4
S'20101016\xc2\xa09:30AM UTC'
p514
sg6
S'Euro zone needs more ambitious reforms -Trichet'
p515
sa(dp516
g2
S'http://www.reuters.com/article/2010/10/16/idUS34131+16-Oct-2010+PRN20101016'
p517
sg4
S'20101016\xc2\xa09:30AM UTC'
p518
sg6
S'Following Is a Test Release'
p519
sa(dp520
g2
S'http://www.reuters.com/article/2010/10/16/stada-idUSLDE69F06420101016'
p521
sg4
S'20101016\xc2\xa09:09AM UTC'
p522
sg6
S'Stada seeks independence from bank loans - CFO'
p523
sa(dp524
g2
S'http://www.reuters.com/article/2010/10/16/idUS31783+16-Oct-2010+MW20101016'
p525
sg4
S'20101016\xc2\xa09:01AM UTC'
p526
sg6
S" Carl Zeiss Meditec Introduces New Innovations: 'Creating What's to Come' at AAO 2010"
p527
sa(dp528
g2
S'http://www.reuters.com/article/2010/10/16/idUS31746+16-Oct-2010+PRN20101016'
p529
sg4
S'20101016\xc2\xa09:00AM UTC'
p530
sg6
S'Following Is a Test Release'
p531
sa(dp532
g2
S'http://www.reuters.com/article/2010/10/16/idUS31743+16-Oct-2010+PRN20101016'
p533
sg4
S'20101016\xc2\xa09:00AM UTC'
p534
sg6
S'Iridescent and the U.S. Office of Naval Research Launch Innovative Science Center for Los Angeles Students and Their Parents'
p535
sa(dp536
g2
S'http://www.reuters.com/article/2010/10/16/idUS31738+16-Oct-2010+MW20101016'
p537
sg4
S'20101016\xc2\xa09:00AM UTC'
p538
sg6
S" Carl Zeiss Meditec Introduces New Innovations: 'Creating What's to Come' at AAO 2010"
p539
sa(dp540
g2
S'http://www.reuters.com/article/2010/10/16/britain-refinery-protest-idUSLDE69F05P20101016'
p541
sg4
S'20101016\xc2\xa08:42AM UTC'
p542
sg6
S'Climate protest closes road to UK oil refinery'
p543
sa(dp544
g2
S'http://www.reuters.com/article/2010/10/16/idUS30991+16-Oct-2010+PRN20101016'
p545
sg4
S'20101016\xc2\xa08:30AM UTC'
p546
sg6
S'Following Is a Test Release'
p547
sa(dp548
g2
S'http://www.reuters.com/article/2010/10/16/anzag-idUSLDE69F04U20101016'
p549
sg4
S'20101016\xc2\xa08:18AM UTC'
p550
sg6
S"KKR secures majority in Germany's Anzag - paper"
p551
sa(dp552
g2
S'http://www.reuters.com/article/2010/10/16/usa-fed-rosengren-idUSNLAGLE62O20101016'
p553
sg4
S'20101016\xc2\xa08:15AM UTC'
p554
sg6
S'Rosengren-Fed should actively battle deflation risk'
p555
sa(dp556
g2
S'http://www.reuters.com/article/2010/10/16/us-china-miners-idUSTRE69F0EG20101016'
p557
sg4
S'20101016\xc2\xa08:04AM UTC'
p558
sg6
S'China mine blast kills 20, others trapped: report'
p559
sa(dp560
g2
S'http://www.reuters.com/article/2010/10/16/idUS30111+16-Oct-2010+GNW20101016'
p561
sg4
S'20101016\xc2\xa08:00AM UTC'
p562
sg6
S'Notice From the Securities Arbitration Law Firm of Klayman & Toskes to All Securities...'
p563
sa(dp564
g2
S'http://www.reuters.com/article/2010/10/16/idUS30109+16-Oct-2010+GNW20101016'
p565
sg4
S'20101016\xc2\xa08:00AM UTC'
p566
sg6
S'The Securities Law Firm of Klayman & Toskes Encourages All Provident and Shale Royalties...'
p567
sa(dp568
g2
S'http://www.reuters.com/article/2010/10/16/idUS30107+16-Oct-2010+GNW20101016'
p569
sg4
S'20101016\xc2\xa08:00AM UTC'
p570
sg6
S'Notice to All Stone & Youngberg Municipal Advantage Fund Investors From the Securities...'
p571
sa(dp572
g2
S'http://www.reuters.com/article/2010/10/16/idUS30105+16-Oct-2010+GNW20101016'
p573
sg4
S'20101016\xc2\xa08:00AM UTC'
p574
sg6
S'Notice to All Leveraged Municipal Bond Arbitrage Hedge Fund Investors From the Securities...'
p575
sa(dp576
g2
S'http://www.reuters.com/article/2010/10/16/idUS30104+16-Oct-2010+GNW20101016'
p577
sg4
S'20101016\xc2\xa08:00AM UTC'
p578
sg6
S'Notice From the Securities Arbitration Law Firm of Klayman & Toskes to All UBS Customers...'
p579
sa(dp580
g2
S'http://www.reuters.com/article/2010/10/16/idUS30102+16-Oct-2010+HUG20101016'
p581
sg4
S'20101016\xc2\xa08:00AM UTC'
p582
sg6
S'REG-: Banco Comercial Portugues S.A. (EX+UK): Disposal'
p583
sa(dp584
g2
S'http://www.reuters.com/article/2010/10/16/idUS30026+16-Oct-2010+PRN20101016'
p585
sg4
S'20101016\xc2\xa08:00AM UTC'
p586
sg6
S'Following Is a Test Release'
p587
sa(dp588
g2
S'http://www.reuters.com/article/2010/10/16/idUS30008+16-Oct-2010+BW20101016'
p589
sg4
S'20101016\xc2\xa08:00AM UTC'
p590
sg6
S'Saturday Morning Float Test Run to Offer Early Risers a Sneak Peek of the 2011 Rose Parade Floats'
p591
sa(dp592
g2
S'http://www.reuters.com/article/2010/10/16/idUS30006+16-Oct-2010+BW20101016'
p593
sg4
S'20101016\xc2\xa08:00AM UTC'
p594
sg6
S'Toys"R"Us Stores Nationwide to Host Chuggington Play Date on Saturday, October 16'
p595
sa(dp596
g2
S'http://www.reuters.com/article/2010/10/16/us-apple-preview-idUSTRE69E49220101016'
p597
sg4
S'20101016\xc2\xa07:42AM UTC'
p598
sg6
S"Apple's earnings to showcase one-two punch"
p599
sa(dp600
g2
S'http://www.reuters.com/article/2010/10/16/sgs-intertek-idUSLDE69F04420101016'
p601
sg4
S'20101016\xc2\xa07:31AM UTC'
p602
sg6
S'SGS head says Intertek buy not on our radar-paper'
p603
sa(dp604
g2
S'http://www.reuters.com/article/2010/10/16/idUS29510+16-Oct-2010+PRN20101016'
p605
sg4
S'20101016\xc2\xa07:30AM UTC'
p606
sg6
S'Following Is a Test Release'
p607
sa(dp608
g2
S'http://www.reuters.com/article/2010/10/16/us-mideast-summit-idUSTRE69F0MG20101016'
p609
sg4
S'20101016\xc2\xa07:28AM UTC'
p610
sg6
S'Confidence returns to Middle East investment'
p611
sa(dp612
g2
S'http://www.reuters.com/article/2010/10/16/us-usa-elections-clinton-idUSTRE69F0AT20101016'
p613
sg4
S'20101016\xc2\xa07:23AM UTC'
p614
sg6
S'Bill Clinton stumps for ex-foe Brown in California'
p615
sa(dp616
g2
S'http://www.reuters.com/article/2010/10/16/samsung-linde-saudi-idUSLDE69F01N20101016'
p617
sg4
S'20101016\xc2\xa07:20AM UTC'
p618
sg6
S'Linde, Samsung consortium wins Saudi acrylic deal'
p619
sa(dp620
g2
S'http://www.reuters.com/article/2010/10/16/us-mideast-summit-idUSTRE69F0LP20101016'
p621
sg4
S'20101016\xc2\xa07:03AM UTC'
p622
sg6
S'Confidence returns to Middle East investment'
p623
sa(dp624
g2
S'http://www.reuters.com/article/2010/10/16/idUS28537+16-Oct-2010+GNW20101016'
p625
sg4
S'20101016\xc2\xa07:00AM UTC'
p626
sg6
S'Tree Top Industries, Inc. Plans Trip to Singapore to Attend the Global Sources Hardware...'
p627
sa(dp628
g2
S'http://www.reuters.com/article/2010/10/16/idUS28507+16-Oct-2010+PRN20101016'
p629
sg4
S'20101016\xc2\xa07:00AM UTC'
p630
sg6
S"Ricardo's Mexican Restaurant and ROSANGEL\xe2\x84\xa2 Tequila Break Guinness World Record\xc2\xae for the 'World's Largest Pink Margarita'"
p631
sa(dp632
g2
S'http://www.reuters.com/article/2010/10/16/idUS28512+16-Oct-2010+PRN20101016'
p633
sg4
S'20101016\xc2\xa07:00AM UTC'
p634
sg6
S'Rentrak to Speak During Digital Hollywood Fall'
p635
sa(dp636
g2
S'http://www.reuters.com/article/2010/10/16/idUS28510+16-Oct-2010+PRN20101016'
p637
sg4
S'20101016\xc2\xa07:00AM UTC'
p638
sg6
S'Following Is a Test Release'
p639
sa(dp640
g2
S'http://www.reuters.com/article/2010/10/16/us-hungary-spill-idUSTRE69415O20101016'
p641
sg4
S'20101016\xc2\xa06:41AM UTC'
p642
sg6
S'Hungary spill plant restarts, some villagers return'
p643
sa(dp644
g2
S'http://www.reuters.com/article/2010/10/16/us-ecuador-miners-idUSTRE69E4VM20101016'
p645
sg4
S'20101016\xc2\xa06:41AM UTC'
p646
sg6
S'Ecuador cave-in traps four miners'
p647
sa(dp648
g2
S'http://www.reuters.com/article/2010/10/16/idUS28034+16-Oct-2010+PRN20101016'
p649
sg4
S'20101016\xc2\xa06:30AM UTC'
p650
sg6
S'Following Is a Test Release'
p651
sa(dp652
g2
S'http://www.reuters.com/article/2010/10/16/idUS28030+16-Oct-2010+BW20101016'
p653
sg4
S'20101016\xc2\xa06:30AM UTC'
p654
sg6
S'Two Thousand Dollars in Prizes for Racers in 2nd Annual Acumen Solutions Race for a Cause 8K Race October 17th'
p655
sa(dp656
g2
S'http://www.reuters.com/article/2010/10/16/us-usa-foreclosures-sec-idUSTRE69E5Z120101016'
p657
sg4
S'20101016\xc2\xa06:25AM UTC'
p658
sg6
S'SEC looking at foreclosure practices: source'
p659
sa(dp660
g2
S'http://www.reuters.com/article/2010/10/16/idUS27563+16-Oct-2010+BW20101016'
p661
sg4
S'20101016\xc2\xa06:02AM UTC'
p662
sg6
S'Tiger Balm Sponsors 2010 Susan G. Komen San Francisco Race for the Cure'
p663
sa(dp664
g2
S'http://www.reuters.com/article/2010/10/16/idUS27516+16-Oct-2010+PRN20101016'
p665
sg4
S'20101016\xc2\xa06:00AM UTC'
p666
sg6
S'Following Is a Test Release'
p667
sa(dp668
g2
S'http://www.reuters.com/article/2010/10/16/idUS27491+16-Oct-2010+PRN20101016'
p669
sg4
S'20101016\xc2\xa05:59AM UTC'
p670
sg6
S'GOOD MORNING -- October 16, 2010'
p671
sa(dp672
g2
S'http://www.reuters.com/article/2010/10/16/us-weather-philippines-idUSTRE69F0KC20101016'
p673
sg4
S'20101016\xc2\xa05:35AM UTC'
p674
sg6
S'Typhoon Megi gains strength as it nears Philippines'
p675
sa(dp676
g2
S'http://www.reuters.com/article/2010/10/16/us-sudan-south-idUSTRE69F0GJ20101016'
p677
sg4
S'20101016\xc2\xa05:30AM UTC'
p678
sg6
S'Sudan rebukes U.N. over border buffer zone plan'
p679
sa(dp680
g2
S'http://www.reuters.com/article/2010/10/16/idUS26940+16-Oct-2010+PRN20101016'
p681
sg4
S'20101016\xc2\xa05:30AM UTC'
p682
sg6
S'Following Is a Test Release'
p683
sa(dp684
g2
S'http://www.reuters.com/article/2010/10/16/idUS26177+16-Oct-2010+PRN20101016'
p685
sg4
S'20101016\xc2\xa05:00AM UTC'
p686
sg6
S'Following Is a Test Release'
p687
sa(dp688
g2
S'http://www.reuters.com/article/2010/10/16/retire-us-autos-china-idUSTRE69F0J820101016'
p689
sg4
S'20101016\xc2\xa04:44AM UTC'
p690
sg6
S'China electric vehicles to hit 1 million by 2020: report'
p691
sa(dp692
g2
S'http://www.reuters.com/article/2010/10/16/reddy-approval-idUSSGE69F01N20101016'
p693
sg4
S'20101016\xc2\xa04:44AM UTC'
p694
sg6
S"India's Dr Reddy's gets USFDA nod for lansoprazole"
p695
sa(dp696
g2
S'http://www.reuters.com/article/2010/10/16/gmac-bond-idUSTOE69E05Q20101016'
p697
sg4
S'20101016\xc2\xa04:42AM UTC'
p698
sg6
S'GMAC-SAIC Auto Finance issues $226 mln 3-yr bond'
p699
sa(dp700
g2
S'http://www.reuters.com/article/2010/10/16/idUS25484+16-Oct-2010+PRN20101016'
p701
sg4
S'20101016\xc2\xa04:30AM UTC'
p702
sg6
S'Following Is a Test Release'
p703
sa(dp704
g2
S'http://www.reuters.com/article/2010/10/16/us-china-usa-cleanenergy-idUSTRE69F0IC20101016'
p705
sg4
S'20101016\xc2\xa04:26AM UTC'
p706
sg6
S'China says U.S. clean energy probe sends wrong signal'
p707
sa(dp708
g2
S'http://www.reuters.com/article/2010/10/16/idUS25383+16-Oct-2010+BW20101016'
p709
sg4
S'20101016\xc2\xa04:24AM UTC'
p710
sg6
S'Dr. Reddy`s announces the approval of Lansoprazole delayed-release capsules'
p711
sa(dp712
g2
S'http://www.reuters.com/article/2010/10/16/egypt-diary-idUSLDE69203F20101016'
p713
sg4
S'20101016\xc2\xa04:20AM UTC'
p714
sg6
S'DIARY - Egypt - October 16'
p715
sa(dp716
g2
S'http://www.reuters.com/article/2010/10/16/idUS24876+16-Oct-2010+PRN20101016'
p717
sg4
S'20101016\xc2\xa04:00AM UTC'
p718
sg6
S'Following Is a Test Release'
p719
sa(dp720
g2
S'http://www.reuters.com/article/2010/10/16/eu-rehn-currencies-idUSSGE69F01620101016'
p721
sg4
S'20101016\xc2\xa03:39AM UTC'
p722
sg6
S"EU's Rehn: essential China lets yuan strengthen"
p723
sa(dp724
g2
S'http://www.reuters.com/article/2010/10/16/idUS24444+16-Oct-2010+PRN20101016'
p725
sg4
S'20101016\xc2\xa03:30AM UTC'
p726
sg6
S'Following Is a Test Release'
p727
sa(dp728
g2
S'http://www.reuters.com/article/2010/10/16/us-usa-china-analysis-idUSTRE69E4LM20101016'
p729
sg4
S'20101016\xc2\xa03:18AM UTC'
p730
sg6
S'Analysis: U.S. gives currency diplomacy another chance'
p731
sa(dp732
g2
S'http://www.reuters.com/article/2010/10/16/us-usa-soldiers-crimes-idUSTRE69E5DJ20101016'
p733
sg4
S'20101016\xc2\xa03:11AM UTC'
p734
sg6
S'U.S. soldier to face court-martial in Afghan slayings'
p735
sa(dp736
g2
S'http://www.reuters.com/article/2010/10/16/idUS23997+16-Oct-2010+BW20101016'
p737
sg4
S'20101016\xc2\xa03:06AM UTC'
p738
sg6
S'Data Further Supporting Anti-JC Virus Antibody Assay Presented at the 26 th  Congress of the European Committee for Treatment and Research in Multiple Sclerosis'
p739
sa(dp740
g2
S'http://www.reuters.com/article/2010/10/16/idUS23999+16-Oct-2010+BW20101016'
p741
sg4
S'20101016\xc2\xa03:06AM UTC'
p742
sg6
S'Early Initiation of Treatment with Copaxone \xc2\xae  Provides Greater Effects in Delaying Conversion to Clinically Definite MS'
p743
sa(dp744
g2
S'http://www.reuters.com/article/2010/10/16/mcdonalds-china-wedding-idUSTOE69F00F20101016'
p745
sg4
S'20101016\xc2\xa03:02AM UTC'
p746
sg6
S'McDonald\'s to host "McWeddings" in Hong Kong-media'
p747
sa(dp748
g2
S'http://www.reuters.com/article/2010/10/16/china-miners-idUSTOE69F00D20101016'
p749
sg4
S'20101016\xc2\xa03:01AM UTC'
p750
sg6
S'China mine blast kills 20, others trapped - Xinhua'
p751
sa(dp752
g2
S'http://www.reuters.com/article/2010/10/16/idUS23923+16-Oct-2010+PRN20101016'
p753
sg4
S'20101016\xc2\xa03:00AM UTC'
p754
sg6
S'Following Is a Test Release'
p755
sa(dp756
g2
S'http://www.reuters.com/article/2010/10/16/us-usa-china-idUSTRE69E0OB20101016'
p757
sg4
S'20101016\xc2\xa02:57AM UTC'
p758
sg6
S'U.S. backs off in currency dispute with China'
p759
sa(dp760
g2
S'http://www.reuters.com/article/2010/10/16/us-mcdonalds-china-wedding-idUSTRE69F0FH20101016'
p761
sg4
S'20101016\xc2\xa02:35AM UTC'
p762
sg6
S'McDonald\'s to host "McWeddings" in Hong Kong: report'
p763
sa(dp764
g2
S'http://www.reuters.com/article/2010/10/16/ford-mazda-idUSTOE69F00H20101016'
p765
sg4
S'20101016\xc2\xa02:32AM UTC'
p766
sg6
S'Ford to sell down Mazda stake to a few pct-source'
p767
sa(dp768
g2
S'http://www.reuters.com/article/2010/10/16/idUS23532+16-Oct-2010+PRN20101016'
p769
sg4
S'20101016\xc2\xa02:30AM UTC'
p770
sg6
S'Following Is a Test Release'
p771
sa(dp772
g2
S'http://www.reuters.com/article/2010/10/16/us-baseball-playoffs-texas-idUSTRE69F08920101016'
p773
sg4
S'20101016\xc2\xa02:23AM UTC'
p774
sg6
S'Yankees battle back to stun Rangers in opener'
p775
sa(dp776
g2
S'http://www.reuters.com/article/2010/10/16/idUS366621095520101016'
p777
sg4
S'20101016\xc2\xa02:00AM UTC'
p778
sg6
S'Eco-Saturday: Meat-Eaters Go from Red to Green'
p779
sa(dp780
g2
S'http://www.reuters.com/article/2010/10/16/idUS22678+16-Oct-2010+PRN20101016'
p781
sg4
S'20101016\xc2\xa02:00AM UTC'
p782
sg6
S'Following Is a Test Release'
p783
sa(dp784
g2
S'http://www.reuters.com/article/2010/10/16/idUS362923015920101016'
p785
sg4
S'20101016\xc2\xa01:51AM UTC'
p786
sg6
S'Driving a Vehicle on the Opposite Side of the Road'
p787
sa(dp788
g2
S'http://www.reuters.com/article/2010/10/16/us-ford-mazda-stake-idUSTRE69F0CZ20101016'
p789
sg4
S'20101016\xc2\xa01:49AM UTC'
p790
sg6
S'Ford to sell down stake in Mazda to few percent: source'
p791
sa(dp792
g2
S'http://www.reuters.com/article/2010/10/16/idUS22293+16-Oct-2010+PRN20101016'
p793
sg4
S'20101016\xc2\xa01:30AM UTC'
p794
sg6
S'Following Is a Test Release'
p795
sa(dp796
g2
S'http://www.reuters.com/article/2010/10/16/us-soccer-liverpool-friday-idUSTRE69F0DB20101016'
p797
sg4
S'20101016\xc2\xa01:23AM UTC'
p798
sg6
S'Liverpool change hands after "penalty shootout"'
p799
sa(dp800
g2
S'http://www.reuters.com/article/2010/10/16/uk-soccer-liverpool-qa-idUSTRE69E45Z20101016'
p801
sg4
S'20101016\xc2\xa01:23AM UTC'
p802
sg6
S'Q&A; - All eyes on Henry as Liverpool enter new era'
p803
sa(dp804
g2
S'http://www.reuters.com/article/2010/10/16/uk-soccer-liverpool-hodgson-idUSTRE69E30520101016'
p805
sg4
S'20101016\xc2\xa01:23AM UTC'
p806
sg6
S'Takeover lifts cloud from Liverpool'
p807
sa(dp808
g2
S'http://www.reuters.com/article/2010/10/16/uk-soccer-liverpool-hicks-idUSTRE69E5N620101016'
p809
sg4
S'20101016\xc2\xa01:23AM UTC'
p810
sg6
S'Hicks calls Liverpool sale an "organised conspiracy"'
p811
sa(dp812
g2
S'http://www.reuters.com/article/2010/10/16/uk-soccer-england-liverpool-overhaul-idUSTRE69E5IV20101016'
p813
sg4
S'20101016\xc2\xa01:23AM UTC'
p814
sg6
S'Hodgson hints at major overhaul to come'
p815
sa(dp816
g2
S'http://www.reuters.com/article/2010/10/16/uk-soccer-liverpool-legal-idUSTRE69E57120101016'
p817
sg4
S'20101016\xc2\xa01:23AM UTC'
p818
sg6
S'Liverpool had better prepare for long legal battle'
p819
sa(dp820
g2
S'http://www.reuters.com/article/2010/10/16/uk-soccer-england-liverpool-henry-newsma-idUSTRE69E50P20101016'
p821
sg4
S'20101016\xc2\xa01:23AM UTC'
p822
sg6
S'Shy Henry has record to please Liverpool fans'
p823
sa(dp824
g2
S'http://www.reuters.com/article/2010/10/16/uk-soccer-liverpool-court-idUSTRE69E4QJ20101016'
p825
sg4
S'20101016\xc2\xa01:23AM UTC'
p826
sg6
S'Ousted Liverpool co-owners plan to return to High Court'
p827
sa(dp828
g2
S'http://www.reuters.com/article/2010/10/16/uk-soccer-liverpool-fans-idUSTRE69E4N720101016'
p829
sg4
S'20101016\xc2\xa01:23AM UTC'
p830
sg6
S'Happy Liverpool fans raise a glass to a brighter future'
p831
sa(dp832
g2
S'http://www.reuters.com/article/2010/10/16/idUS353559469920101016'
p833
sg4
S'20101016\xc2\xa01:08AM UTC'
p834
sg6
S'UberCab raises $1.25M to end your futile search for taxis'
p835
sa(dp836
g2
S'http://www.reuters.com/article/2010/10/16/us-chile-miners-anguish-idUSTRE69E4VF20101016'
p837
sg4
S'20101016\xc2\xa01:08AM UTC'
p838
sg6
S'Traumatized Chile miners face more "anguish"-doctor'
p839
sa(dp840
g2
S'http://www.reuters.com/article/2010/10/16/us-chile-miners-capsule-idUSTRE69E44S20101016'
p841
sg4
S'20101016\xc2\xa01:08AM UTC'
p842
sg6
S'Chile escape capsule "Phoenix" ready for world tour'
p843
sa(dp844
g2
S'http://www.reuters.com/article/2010/10/16/us-chile-miners-depths-idUSTRE69E3ZO20101016'
p845
sg4
S'20101016\xc2\xa01:08AM UTC'
p846
sg6
S'Grim details surface of rescued Chile miners ordeal'
p847
sa(dp848
g2
S'http://www.reuters.com/article/2010/10/16/idUS297956192720101016'
p849
sg4
S'20101016\xc2\xa01:06AM UTC'
p850
sg6
S'enLighted gets $1.4M to reduce energy use in commercial buildings'
p851
sa(dp852
g2
S'http://www.reuters.com/article/2010/10/16/ford-mazda-stake-idUSTOE69F00B20101016'
p853
sg4
S'20101016\xc2\xa01:05AM UTC'
p854
sg6
S'Ford to sell down stake in Mazda to few pct - source'
p855
sa(dp856
g2
S'http://www.reuters.com/article/2010/10/16/idUS21546+16-Oct-2010+PRN20101016'
p857
sg4
S'20101016\xc2\xa01:00AM UTC'
p858
sg6
S'Following Is a Test Release'
p859
sa(dp860
g2
S'http://www.reuters.com/article/2010/10/16/idUS21536+16-Oct-2010+BW20101016'
p861
sg4
S'20101016\xc2\xa01:00AM UTC'
p862
sg6
S'Haven on Cracking Form for the Long Easter Break with Haven Holidays for 2011'
p863
sa(dp864
g2
S'http://www.reuters.com/article/2010/10/16/us-usa-economy-deficit-idUSTRE69E54M20101016'
p865
sg4
S'20101016\xc2\xa012:59AM UTC'
p866
sg6
S'Fiscal 2010 deficit thins to $1.29 trillion'
p867
sa(dp868
g2
S'http://www.reuters.com/article/2010/10/16/usa-elections-clinton-idUSN1621952120101016'
p869
sg4
S'20101016\xc2\xa012:51AM UTC'
p870
sg6
S'Bill Clinton stumps for ex-foe Brown in California'
p871
sa(dp872
g2
S'http://www.reuters.com/article/2010/10/16/us-brown-idUSTRE69F0AN20101016'
p873
sg4
S'20101016\xc2\xa012:50AM UTC'
p874
sg6
S'Michael Jackson\'s nephew on "Target" with first album'
p875
sa(dp876
g2
S'http://www.reuters.com/article/2010/10/16/idUS21350+16-Oct-2010+PRN20101016'
p877
sg4
S'20101016\xc2\xa012:46AM UTC'
p878
sg6
S'News Corp. Pulls the Plug on Fox 5 and My9 for Cablevision Customers'
p879
sa(dp880
g2
S'http://www.reuters.com/article/2010/10/16/us-usa-marijuana-california-idUSTRE69F03V20101016'
p881
sg4
S'20101016\xc2\xa012:45AM UTC'
p882
sg6
S'Attorney General Holder opposes California marijuana bill'
p883
sa(dp884
g2
S'http://www.reuters.com/article/2010/10/16/us-media-tribune-idUSTRE69F0A020101016'
p885
sg4
S'20101016\xc2\xa012:43AM UTC'
p886
sg6
S'Tribune Co. executive resigns after e-mail flap'
p887
sa(dp888
g2
S'http://www.reuters.com/article/2010/10/16/us-challenge-idUSTRE69F09M20101016'
p889
sg4
S'20101016\xc2\xa012:40AM UTC'
p890
sg6
S'Alisa Apps insists Lady Gaga challenge not a stunt'
p891
sa(dp892
g2
S'http://www.reuters.com/article/2010/10/16/us-thirdday-idUSTRE69F09E20101016'
p893
sg4
S'20101016\xc2\xa012:38AM UTC'
p894
sg6
S'Third Day goes back in time with "Move"'
p895
sa(dp896
g2
S'http://www.reuters.com/article/2010/10/16/us-nhl-rangers-idUSTRE69F07F20101016'
p897
sg4
S'20101016\xc2\xa012:32AM UTC'
p898
sg6
S'Maple Leafs remain perfect with overtime win over Rangers'
p899
sa(dp900
g2
S'http://www.reuters.com/article/2010/10/16/idUS21032+16-Oct-2010+PRN20101016'
p901
sg4
S'20101016\xc2\xa012:30AM UTC'
p902
sg6
S'Following Is a Test Release'
p903
sa(dp904
g2
S'http://www.reuters.com/article/2010/10/16/us-usa-security-mumbai-idUSTRE69F07Q20101016'
p905
sg4
S'20101016\xc2\xa012:28AM UTC'
p906
sg6
S'FBI got tip about American in Mumbai attacks: report'
p907
sa(dp908
g2
S'http://www.reuters.com/article/2010/10/16/televisa-nextel-idUSN1523626520101016'
p909
sg4
S'20101016\xc2\xa012:18AM UTC'
p910
sg6
S'Televisa chief says still striving for Nextel deal'
p911
sa(dp912
g2
S'http://www.reuters.com/article/2010/10/16/us-grupocarso-idUSTRE69F07Z20101016'
p913
sg4
S'20101016\xc2\xa012:16AM UTC'
p914
sg6
S'Tycoon Slim hedges some new gold, copper output'
p915
sa(dp916
g2
S'http://www.reuters.com/article/2010/10/16/idUS20148+16-Oct-2010+BW20101016'
p917
sg4
S'20101016\xc2\xa012:03AM UTC'
p918
sg6
S'Cablevision Drops Fox'
p919
sa(dp920
g2
S'http://www.reuters.com/article/2010/10/16/idUS20062+16-Oct-2010+PRN20101016'
p921
sg4
S'20101016\xc2\xa012:01AM UTC'
p922
sg6
S'U.S. Census Bureau Daily Feature for October 16'
p923
sa(dp924
g2
S'http://www.reuters.com/article/2010/10/16/idUS20054+16-Oct-2010+PRN20101016'
p925
sg4
S'20101016\xc2\xa012:00AM UTC'
p926
sg6
S'IDRI Develops Novel Tuberculosis Vaccine, New Study in Science Reports'
p927
sa(dp928
g2
S'http://www.reuters.com/article/2010/10/16/idUS20047+16-Oct-2010+PRN20101016'
p929
sg4
S'20101016\xc2\xa012:00AM UTC'
p930
sg6
S'Following Is a Test Release'
p931
sa(dp932
g2
S'http://www.reuters.com/article/2010/10/16/grupocarso-idUSN1529002420101016'
p933
sg4
S'20101016\xc2\xa012:00AM UTC'
p934
sg6
S'UPDATE 2-Tycoon Slim hedges some new gold, copper output'
p935
sa(dp936
g2
S'http://www.reuters.com/news/video/videoStory?storyID=RCDOVE69G5FD1'
p937
sg4
S'20101016\xc2\xa011:11PM UTC'
p938
sg6
S"Pinera's Chilean mine rock gift"
p939
sa(dp940
g2
S'http://www.reuters.com/news/video/videoStory?storyID=RCDOVE69G5DX1'
p941
sg4
S'20101016\xc2\xa010:46PM UTC'
p942
sg6
S'Miner returns to mine'
p943
sa(dp944
g2
S'http://www.reuters.com/news/video/videoStory?storyID=RCDOVE69G5CX1'
p945
sg4
S'20101016\xc2\xa010:16PM UTC'
p946
sg6
S'Deadly floods hit southern Russia'
p947
sa(dp948
g2
S'http://www.reuters.com/news/video/videoStory?storyID=WAO1278450147447'
p949
sg4
S'20101016\xc2\xa08:01PM UTC'
p950
sg6
S"Sudhir Mishra on 'Yeh Saali Zindagi'"
p951
sa(dp952
g2
S'http://www.reuters.com/news/video/videoStory?storyID=RCDOVE69G5AH1'
p953
sg4
S'20101016\xc2\xa07:46PM UTC'
p954
sg6
S'Obama on economic frustration'
p955
sa(dp956
g2
S'http://www.reuters.com/news/video/videoStory?storyID=RCDOVE69F52D2'
p957
sg4
S'20101016\xc2\xa06:41PM UTC'
p958
sg6
S'Obama on economic frustration'
p959
sa(dp960
g2
S'http://www.reuters.com/news/video/videoStory?storyID=WAO1278450147427'
p961
sg4
S'20101016\xc2\xa03:01PM UTC'
p962
sg6
S'Anger over French pension reform'
p963
sa(dp964
g2
S'http://www.reuters.com/news/video/videoStory?storyID=RCDOVE69F52L1'
p965
sg4
S'20101016\xc2\xa03:01PM UTC'
p966
sg6
S'Anger over pension reform'
p967
sa(dp968
g2
S'http://www.reuters.com/news/video/videoStory?storyID=RCDOVE69F4XP1'
p969
sg4
S'20101016\xc2\xa012:46PM UTC'
p970
sg6
S'France weathers petrol shortage'
p971
sa(dp972
g2
S'http://www.reuters.com/news/video/videoStory?storyID=RCDOVE69F4TL1'
p973
sg4
S'20101016\xc2\xa010:56AM UTC'
p974
sg6
S"Brazil's Amazon hit by drought"
p975
sa(dp976
g2
S'http://www.reuters.com/news/video/videoStory?storyID=RCDOVE69F4SP1'
p977
sg4
S'20101016\xc2\xa010:41AM UTC'
p978
sg6
S'Anti-China protest in Japan'
p979
sa(dp980
g2
S'http://www.reuters.com/news/video/videoStory?storyID=RCDOVE69F4RT1'
p981
sg4
S'20101016\xc2\xa010:16AM UTC'
p982
sg6
S'Pres. campaign starts in Ivory Coast'
p983
sa(dp984
g2
S'http://www.reuters.com/news/video/videoStory?storyID=RCDOVE69F4QL1'
p985
sg4
S'20101016\xc2\xa09:41AM UTC'
p986
sg6
S'Extreme weather batters Australia'
p987
sa(dp988
g2
S'http://www.reuters.com/news/video/videoStory?storyID=RCDOVE69F4H51'
p989
sg4
S'20101016\xc2\xa05:46AM UTC'
p990
sg6
S'China mine explosion kills 20'
p991
sa(dp992
g2
S'http://www.reuters.com/news/video/videoStory?storyID=RCDOVE69F4GD1'
p993
sg4
S'20101016\xc2\xa05:21AM UTC'
p994
sg6
S'Escaped inmate in high-speed chase'
p995
sa(dp996
g2
S'http://www.reuters.com/news/video/videoStory?storyID=RCDOVE69F4BT1'
p997
sg4
S'20101016\xc2\xa03:31AM UTC'
p998
sg6
S'Men missing in Ecuador mine cave-in'
p999
sa(dp1000
g2
S'http://www.reuters.com/news/video/videoStory?storyID=RCDOVE69F49H1'
p1001
sg4
S'20101016\xc2\xa02:01AM UTC'
p1002
sg6
S'Hungary spill plant reopens'
p1003
sa(dp1004
g2
S'http://www.reuters.com/news/video/videoStory?storyID=RCDOVE69F47L1'
p1005
sg4
S'20101016\xc2\xa012:21AM UTC'
p1006
sg6
S'New look for Afghan attack woman'
p1007
sa.