(lp0
(dp1
S'href'
p2
S'http://www.reuters.com/article/2011/02/06/idUS21556+06-Feb-2011+PRN20110206'
p3
sS'ts'
p4
S'20110205\xc2\xa011:57PM UTC'
p5
sS'title'
p6
S"Time Warner Cable Celebrates the Caribbean World Series With 'A Night of Caribbean Baseball' Featuring Guests Bernie Williams, Juan Marichal and JI Starr"
p7
sa(dp8
g2
S'http://www.reuters.com/article/2011/02/06/idUS20799+06-Feb-2011+PRN20110206'
p9
sg4
S'20110205\xc2\xa011:30PM UTC'
p10
sg6
S'Following Is a Test Release'
p11
sa(dp12
g2
S'http://www.reuters.com/article/2011/02/06/us-nba-lakers-idUSTRE7150C020110206'
p13
sg4
S'20110205\xc2\xa011:12PM UTC'
p14
sg6
S'Lakers storm back in final quarter to sting Hornets'
p15
sa(dp16
g2
S'http://www.reuters.com/article/2011/02/06/idUS19855+06-Feb-2011+PRN20110206'
p17
sg4
S'20110205\xc2\xa011:00PM UTC'
p18
sg6
S'Following Is a Test Release'
p19
sa(dp20
g2
S'http://www.reuters.com/article/2011/02/06/idUS19853+06-Feb-2011+PRN20110206'
p21
sg4
S'20110205\xc2\xa011:00PM UTC'
p22
sg6
S'Elka Nir Joins VisionCare Board of Directors'
p23
sa(dp24
g2
S'http://www.reuters.com/article/2011/02/06/us-writersguild-idUSTRE7150BG20110206'
p25
sg4
S'20110205\xc2\xa010:59PM UTC'
p26
sg6
S'Writers Guild honors "Social Network," "Inception"'
p27
sa(dp28
g2
S'http://www.reuters.com/article/2011/02/06/idUS18848+06-Feb-2011+PRN20110206'
p29
sg4
S'20110205\xc2\xa010:30PM UTC'
p30
sg6
S'Following Is a Test Release'
p31
sa(dp32
g2
S'http://www.reuters.com/article/2011/02/06/idUS18292+06-Feb-2011+PRN20110206'
p33
sg4
S'20110205\xc2\xa010:12PM UTC'
p34
sg6
S'Sutor Technology Schedules Second Fiscal Quarter 2011 Earnings Release and Conference Call'
p35
sa(dp36
g2
S'http://www.reuters.com/article/2011/02/06/us-egypt-elbaradei-idUSTRE7142SR20110206'
p37
sg4
S'20110205\xc2\xa010:07PM UTC'
p38
sg6
S'ElBaradei: Egypt protests could get "more vicious"'
p39
sa(dp40
g2
S'http://www.reuters.com/article/2011/02/06/idUS17915+06-Feb-2011+PRN20110206'
p41
sg4
S'20110205\xc2\xa010:00PM UTC'
p42
sg6
S'Following Is a Test Release'
p43
sa(dp44
g2
S'http://www.reuters.com/article/2011/02/06/idUS17665+06-Feb-2011+PRN20110206'
p45
sg4
S'20110205\xc2\xa09:53PM UTC'
p46
sg6
S"Quicken Loans Says 'Thanks a Million' and Pays Off Client's Mortgage during a Cleveland Cavaliers Basketball Game"
p47
sa(dp48
g2
S'http://www.reuters.com/article/2011/02/06/genzyme-sanofi-idUSN0512013320110206'
p49
sg4
S'20110205\xc2\xa09:45PM UTC'
p50
sg6
S'UPDATE 1-Genzyme, Sanofi boards to meet on Sunday -sources'
p51
sa(dp52
g2
S'http://www.reuters.com/article/2011/02/06/idUS17111+06-Feb-2011+PRN20110206'
p53
sg4
S'20110205\xc2\xa09:30PM UTC'
p54
sg6
S'Following Is a Test Release'
p55
sa(dp56
g2
S'http://www.reuters.com/article/2011/02/06/us-athletics-boston-idUSTRE71508V20110206'
p57
sg4
S'20110205\xc2\xa09:07PM UTC'
p58
sg6
S'Gebremeskel loses shoe but wins 3000 meters in upset'
p59
sa(dp60
g2
S'http://www.reuters.com/article/2011/02/06/idUS16026+06-Feb-2011+PRN20110206'
p61
sg4
S'20110205\xc2\xa09:00PM UTC'
p62
sg6
S'Following Is a Test Release'
p63
sa(dp64
g2
S'http://www.reuters.com/article/2011/02/06/genzyme-sanofi-idUSWEN712620110206'
p65
sg4
S'20110205\xc2\xa08:44PM UTC'
p66
sg6
S'Genzyme, Sanofi boards to meet on Sunday -sources'
p67
sa(dp68
g2
S'http://www.reuters.com/article/2011/02/06/us-nfl-fame-idUSTRE71507S20110206'
p69
sg4
S'20110205\xc2\xa08:39PM UTC'
p70
sg6
S'Deion Sanders and Marshall Faulk voted into Hall of Fame'
p71
sa(dp72
g2
S'http://www.reuters.com/article/2011/02/06/idUS14821+06-Feb-2011+PRN20110206'
p73
sg4
S'20110205\xc2\xa08:30PM UTC'
p74
sg6
S'Following Is a Test Release'
p75
sa(dp76
g2
S'http://www.reuters.com/article/2011/02/06/us-nfl-superbowl-brees-politics-idUSTRE71506020110206'
p77
sg4
S'20110205\xc2\xa08:17PM UTC'
p78
sg6
S'Super Bowl winner Drew Brees would consider political career'
p79
sa(dp80
g2
S'http://www.reuters.com/article/2011/02/06/us-nfl-superbowl-brees-interview-idUSTRE71506520110206'
p81
sg4
S'20110205\xc2\xa08:06PM UTC'
p82
sg6
S'Brees expects great Super Bowl duel'
p83
sa(dp84
g2
S'http://www.reuters.com/article/2011/02/06/us-lindsaylohan-idUSTRE71505G20110206'
p85
sg4
S'20110205\xc2\xa08:03PM UTC'
p86
sg6
S'Lindsay Lohan denies jewelry theft, her lawyer says'
p87
sa(dp88
g2
S'http://www.reuters.com/article/2011/02/06/idUS13612+06-Feb-2011+PRN20110206'
p89
sg4
S'20110205\xc2\xa08:00PM UTC'
p90
sg6
S'Following Is a Test Release'
p91
sa(dp92
g2
S'http://www.reuters.com/article/2011/02/06/idUS246004137520110206'
p93
sg4
S'20110205\xc2\xa07:54PM UTC'
p94
sg6
S'Is the Answers.com sale in trouble?'
p95
sa(dp96
g2
S'http://www.reuters.com/article/2011/02/06/idUS12541+06-Feb-2011+PRN20110206'
p97
sg4
S'20110205\xc2\xa07:41PM UTC'
p98
sg6
S"NADA Chairman: Auto Dealers 'On the Way Back'"
p99
sa(dp100
g2
S'http://www.reuters.com/article/2011/02/06/us-nba-nuggets-smith-idUSTRE71503R20110206'
p101
sg4
S'20110205\xc2\xa07:39PM UTC'
p102
sg6
S"League fines Nuggets' Smith $25,000 for flagrant foul"
p103
sa(dp104
g2
S'http://www.reuters.com/article/2011/02/06/us-tunisia-unrest-idUSTRE7142Q620110206'
p105
sg4
S'20110205\xc2\xa07:33PM UTC'
p106
sg6
S'Two dead as Tunisian police fires on protesters'
p107
sa(dp108
g2
S'http://www.reuters.com/article/2011/02/06/us-britain-olympics-foreign-idUSTRE71503620110206'
p109
sg4
S'20110205\xc2\xa07:32PM UTC'
p110
sg6
S'UK weighs special unit to combat Olympics bad news'
p111
sa(dp112
g2
S'http://www.reuters.com/article/2011/02/06/us-golf-pga-idUSTRE7140HC20110206'
p113
sg4
S'20110205\xc2\xa07:31PM UTC'
p114
sg6
S'Gainey leads after two rounds at weather-hit Phoenix Open'
p115
sa(dp116
g2
S'http://www.reuters.com/article/2011/02/06/idUS11838+06-Feb-2011+PRN20110206'
p117
sg4
S'20110205\xc2\xa07:30PM UTC'
p118
sg6
S'Following Is a Test Release'
p119
sa(dp120
g2
S'http://www.reuters.com/article/2011/02/06/us-nhl-penguins-malkin-idUSTRE71500G20110206'
p121
sg4
S'20110205\xc2\xa07:06PM UTC'
p122
sg6
S'Penguins center Malkin ruled out with torn knee ligaments'
p123
sa(dp124
g2
S'http://www.reuters.com/article/2011/02/06/idUS10054+06-Feb-2011+PRN20110206'
p125
sg4
S'20110205\xc2\xa07:00PM UTC'
p126
sg6
S'Following Is a Test Release'
p127
sa(dp128
g2
S'http://www.reuters.com/article/2011/02/06/idUS10010+06-Feb-2011+BW20110206'
p129
sg4
S'20110205\xc2\xa07:00PM UTC'
p130
sg6
S'Research and Markets: China Agriculture and Subsidiary Foodstuff Processing Industry, 2011'
p131
sa(dp132
g2
S'http://www.reuters.com/article/2011/02/06/idUS10005+06-Feb-2011+BW20110206'
p133
sg4
S'20110205\xc2\xa07:00PM UTC'
p134
sg6
S'Research and Markets: China Coal Mining and Washing Industry, 2011'
p135
sa(dp136
g2
S'http://www.reuters.com/article/2011/02/05/us-egypt-options-idUSTRE7141JC20110205'
p137
sg4
S'20110205\xc2\xa06:39PM UTC'
p138
sg6
S"Opposition divided over Egypt's power shift plan"
p139
sa(dp140
g2
S'http://www.reuters.com/article/2011/02/05/idUS56526+05-Feb-2011+PRN20110205'
p141
sg4
S'20110205\xc2\xa06:33PM UTC'
p142
sg6
S'Qualitest Pharmaceuticals Issues Voluntary, Nationwide Recall of Hydrocodone Bitartrate and Acetaminophen Tablets, USP 10 mg / 500 mg, NDC 0603-3888-20, 60 Count, Lot Numbers T150G10B, T120J10E and T023M10A and Phenobarbital'
p143
sa(dp144
g2
S'http://www.reuters.com/article/2011/02/05/idUS56329+05-Feb-2011+PRN20110205'
p145
sg4
S'20110205\xc2\xa06:30PM UTC'
p146
sg6
S'Following Is a Test Release'
p147
sa(dp148
g2
S'http://www.reuters.com/article/2011/02/05/idUS56224+05-Feb-2011+BW20110205'
p149
sg4
S'20110205\xc2\xa06:28PM UTC'
p150
sg6
S'NADA 2011 San Francisco eLEAD CRM Announces the Release of eCarSocial Automotive Software'
p151
sa(dp152
g2
S'http://www.reuters.com/article/2011/02/05/us-egypt-usa-idUSTRE71175920110205'
p153
sg4
S'20110205\xc2\xa06:25PM UTC'
p154
sg6
S'Clinton puts U.S. focus on Egypt transition'
p155
sa(dp156
g2
S'http://www.reuters.com/article/2011/02/05/us-egypt-elbaradei-idUSTRE7142SR20110205'
p157
sg4
S'20110205\xc2\xa06:22PM UTC'
p158
sg6
S'ElBaradei criticizes U.S. approach to Egypt'
p159
sa(dp160
g2
S'http://www.reuters.com/article/2011/02/05/soccer-spain-record-idUSLDE7140I320110205'
p161
sg4
S'20110205\xc2\xa06:19PM UTC'
p162
sg6
S'Soccer-Messi treble helps Barca set new wins record'
p163
sa(dp164
g2
S'http://www.reuters.com/article/2011/02/05/us-golf-open-exemptions-idUSTRE7142S820110205'
p165
sg4
S'20110205\xc2\xa06:15PM UTC'
p166
sg6
S'World rankings to play bigger role for U.S. Open exemptions'
p167
sa(dp168
g2
S'http://www.reuters.com/article/2011/02/05/us-egypt-idUSTRE70O3UW20110205'
p169
sg4
S'20110205\xc2\xa06:14PM UTC'
p170
sg6
S'U.S. backs transition, warns of attempts to derail'
p171
sa(dp172
g2
S'http://www.reuters.com/article/2011/02/05/idUS55235+05-Feb-2011+PRN20110205'
p173
sg4
S'20110205\xc2\xa06:00PM UTC'
p174
sg6
S'Following Is a Test Release'
p175
sa(dp176
g2
S'http://www.reuters.com/article/2011/02/05/us-egypt-brotherhood-idUSTRE7142QZ20110205'
p177
sg4
S'20110205\xc2\xa05:55PM UTC'
p178
sg6
S'Muslim Brotherhood accepts to talk to state'
p179
sa(dp180
g2
S'http://www.reuters.com/article/2011/02/05/us-tunisia-unrest-idUSTRE7142Q620110205'
p181
sg4
S'20110205\xc2\xa05:53PM UTC'
p182
sg6
S'Two dead as Tunisian police fires on protesters'
p183
sa(dp184
g2
S'http://www.reuters.com/article/2011/02/05/egypt-elbaradei-idUSN0515679120110205'
p185
sg4
S'20110205\xc2\xa05:48PM UTC'
p186
sg6
S'ElBaradei: US support for Suleiman would be setback'
p187
sa(dp188
g2
S'http://www.reuters.com/article/2011/02/05/idUS54545+05-Feb-2011+PRN20110205'
p189
sg4
S'20110205\xc2\xa05:30PM UTC'
p190
sg6
S'Following Is a Test Release'
p191
sa(dp192
g2
S'http://www.reuters.com/article/2011/02/05/us-egypt-centralbank-idUSTRE7142OV20110205'
p193
sg4
S'20110205\xc2\xa05:22PM UTC'
p194
sg6
S'Egypt can deal with crisis, growth hit: Central Bank'
p195
sa(dp196
g2
S'http://www.reuters.com/article/2011/02/05/egypt-centralbank-idUSLDE7140HL20110205'
p197
sg4
S'20110205\xc2\xa05:19PM UTC'
p198
sg6
S'UPDATE 1-Egypt can deal with crisis, growth hit-C.Bank'
p199
sa(dp200
g2
S'http://www.reuters.com/article/2011/02/05/us-palin-trademark-idUSTRE7135WI20110205'
p201
sg4
S'20110205\xc2\xa05:08PM UTC'
p202
sg6
S'Palin trademark application refused -- for now'
p203
sa(dp204
g2
S'http://www.reuters.com/article/2011/02/05/us-egypt-obama-idUSTRE7142NS20110205'
p205
sg4
S'20110205\xc2\xa05:06PM UTC'
p206
sg6
S'Obama stresses Egypt transition in calls to leaders'
p207
sa(dp208
g2
S'http://www.reuters.com/article/2011/02/05/idUS53765+05-Feb-2011+MW20110205'
p209
sg4
S'20110205\xc2\xa05:04PM UTC'
p210
sg6
S' NFL Wives Compete for Supper Bowl Title; Team NFC Cooks up Win in Fierce Kitchen Battle'
p211
sa(dp212
g2
S'http://www.reuters.com/article/2011/02/05/us-gm-dealers-idUSTRE7142NA20110205'
p213
sg4
S'20110205\xc2\xa05:04PM UTC'
p214
sg6
S'GM to reshape dealer network, may add in California'
p215
sa(dp216
g2
S'http://www.reuters.com/article/2011/02/05/gm-dealers-idUSN0515660020110205'
p217
sg4
S'20110205\xc2\xa05:02PM UTC'
p218
sg6
S'GM to reshape dealer network, may add in California'
p219
sa(dp220
g2
S'http://www.reuters.com/article/2011/02/05/idUS53621+05-Feb-2011+PRN20110205'
p221
sg4
S'20110205\xc2\xa05:00PM UTC'
p222
sg6
S'Following Is a Test Release'
p223
sa(dp224
g2
S'http://www.reuters.com/article/2011/02/05/us-northeast-winter-idUSTRE7142ME20110205'
p225
sg4
S'20110205\xc2\xa04:42PM UTC'
p226
sg6
S'Snow-battered Northeast challenged by winter hazards'
p227
sa(dp228
g2
S'http://www.reuters.com/article/2011/02/05/us-egypt-gas-idUSTRE7141V020110205'
p229
sg4
S'20110205\xc2\xa04:40PM UTC'
p230
sg6
S'Egypt gas pipeline attacked, Israel, Jordan flow hit'
p231
sa(dp232
g2
S'http://www.reuters.com/article/2011/02/05/us-cuba-usa-cyberwar-idUSTRE7142L920110205'
p233
sg4
S'20110205\xc2\xa04:39PM UTC'
p234
sg6
S'Video shows Cuban fears of Internet, social media'
p235
sa(dp236
g2
S'http://www.reuters.com/article/2011/02/05/idUS52688+05-Feb-2011+PRN20110205'
p237
sg4
S'20110205\xc2\xa04:30PM UTC'
p238
sg6
S'Following Is a Test Release'
p239
sa(dp240
g2
S'http://www.reuters.com/article/2011/02/05/idUS52524+05-Feb-2011+PRN20110205'
p241
sg4
S'20110205\xc2\xa04:23PM UTC'
p242
sg6
S'Dilawar Syed of the White House Initiative on Asian Americans and Pacific Islanders Briefs Central Texas Innovators and Entrepreneurs February 5'
p243
sa(dp244
g2
S'http://www.reuters.com/article/2011/02/05/us-iran-usa-americans-interview-idUSTRE7141SQ20110205'
p245
sg4
S'20110205\xc2\xa04:17PM UTC'
p246
sg6
S'Americans to stand trial after 18 months in Iran jail'
p247
sa(dp248
g2
S'http://www.reuters.com/article/2011/02/05/idUS52327+05-Feb-2011+BW20110205'
p249
sg4
S'20110205\xc2\xa04:15PM UTC'
p250
sg6
S'Gov. Bill Richardson Addresses 1,000 Kaplan University Graduates During Live Commencement in Miami'
p251
sa(dp252
g2
S'http://www.reuters.com/article/2011/02/05/us-nasdaq-hackers-idUSTRE7140KK20110205'
p253
sg4
S'20110205\xc2\xa04:13PM UTC'
p254
sg6
S"Hackers breach Nasdaq's computers"
p255
sa(dp256
g2
S'http://www.reuters.com/article/2011/02/05/nasdaq-hackers-idUSN0514862120110205'
p257
sg4
S'20110205\xc2\xa04:13PM UTC'
p258
sg6
S"UPDATE 2-Hackers breach Nasdaq's computers"
p259
sa(dp260
g2
S'http://www.reuters.com/article/2011/02/05/us-egypt-culture-protests-idUSTRE7142ET20110205'
p261
sg4
S'20110205\xc2\xa04:10PM UTC'
p262
sg6
S"Famous faces lend voice to Egypt's protests"
p263
sa(dp264
g2
S'http://www.reuters.com/article/2011/02/05/us-syria-amiralay-idUSTRE7142IF20110205'
p265
sg4
S'20110205\xc2\xa04:08PM UTC'
p266
sg6
S'Influential Syrian film-maker Amiralay dies'
p267
sa(dp268
g2
S'http://www.reuters.com/article/2011/02/05/us-tunisia-unrest-shooting-idUSTRE7142E620110205'
p269
sg4
S'20110205\xc2\xa04:07PM UTC'
p270
sg6
S'Two dead after Tunisian police fire at protesters'
p271
sa(dp272
g2
S'http://www.reuters.com/article/2011/02/05/idUS51770+05-Feb-2011+PRN20110205'
p273
sg4
S'20110205\xc2\xa04:00PM UTC'
p274
sg6
S'Following Is a Test Release'
p275
sa(dp276
g2
S'http://www.reuters.com/article/2011/02/05/egypt-centralbank-idUSWEB701420110205'
p277
sg4
S'20110205\xc2\xa03:53PM UTC'
p278
sg6
S'Egypt can deal with crisis, growth to be hit-C.Bank'
p279
sa(dp280
g2
S'http://www.reuters.com/article/2011/02/05/us-banks-bonuses-idUSTRE7141QW20110205'
p281
sg4
S'20110205\xc2\xa03:44PM UTC'
p282
sg6
S'U.S. to force Wall Street to defer half of bonuses'
p283
sa(dp284
g2
S'http://www.reuters.com/article/2011/02/05/us-chrysler-apology-idUSTRE7142FN20110205'
p285
sg4
S'20110205\xc2\xa03:40PM UTC'
p286
sg6
S'Chrysler chief apologizes for using term "shyster"'
p287
sa(dp288
g2
S'http://www.reuters.com/article/2011/02/05/banks-bonuses-idUSN0515059820110205'
p289
sg4
S'20110205\xc2\xa03:40PM UTC'
p290
sg6
S'UPDATE 1-U.S. to force Wall Street to defer half of bonuses'
p291
sa(dp292
g2
S'http://www.reuters.com/article/2011/02/05/chrysler-apology-idUSN0515325320110205'
p293
sg4
S'20110205\xc2\xa03:35PM UTC'
p294
sg6
S"Chrysler chief apologizes for using term 'shyster'"
p295
sa(dp296
g2
S'http://www.reuters.com/article/2011/02/05/idUS50983+05-Feb-2011+PRN20110205'
p297
sg4
S'20110205\xc2\xa03:30PM UTC'
p298
sg6
S'Following Is a Test Release'
p299
sa(dp300
g2
S'http://www.reuters.com/article/2011/02/05/colombia-cerrejon-idUSN0528732120110205'
p301
sg4
S'20110205\xc2\xa03:28PM UTC'
p302
sg6
S'Colombia coal union, Cerrejon near deal - officials'
p303
sa(dp304
g2
S'http://www.reuters.com/article/2011/02/05/idUS50665+05-Feb-2011+PRN20110205'
p305
sg4
S'20110205\xc2\xa03:20PM UTC'
p306
sg6
S'FordDirect and Ford Motor Company Names Ford, Lincoln Internet Dealers of the Year'
p307
sa(dp308
g2
S'http://www.reuters.com/article/2011/02/05/ireland-politics-poll-idUSLDE7140GB20110205'
p309
sg4
S'20110205\xc2\xa03:19PM UTC'
p310
sg6
S"Ireland's main opposition party extends lead-poll"
p311
sa(dp312
g2
S'http://www.reuters.com/article/2011/02/05/us-mideast-quartet-statement-idUSTRE7141EY20110205'
p313
sg4
S'20110205\xc2\xa03:16PM UTC'
p314
sg6
S'Quartet urges Israel, Arabs to heed Egypt risk'
p315
sa(dp316
g2
S'http://www.reuters.com/article/2011/02/05/mideast-quartet-statement-idUSLDE71409F20110205'
p317
sg4
S'20110205\xc2\xa03:15PM UTC'
p318
sg6
S'UPDATE 3-Quartet urges Israel, Arabs to heed Egypt risk'
p319
sa(dp320
g2
S'http://www.reuters.com/article/2011/02/05/us-egypt-protests-idUSTRE7141S820110205'
p321
sg4
S'20110205\xc2\xa03:08PM UTC'
p322
sg6
S'Egypt army seeks to free Tahrir Square for traffic'
p323
sa(dp324
g2
S'http://www.reuters.com/article/2011/02/05/us-crime-superbowl-idUSTRE7142CO20110205'
p325
sg4
S'20110205\xc2\xa03:07PM UTC'
p326
sg6
S'Arizona man held over Super Bowl porn broadcast'
p327
sa(dp328
g2
S'http://www.reuters.com/article/2011/02/05/us-yellowstone-bison-idUSTRE7142CH20110205'
p329
sg4
S'20110205\xc2\xa03:07PM UTC'
p330
sg6
S'Plan to slaughter stray Yellowstone bison ignites furor'
p331
sa(dp332
g2
S'http://www.reuters.com/article/2011/02/05/idUS50099+05-Feb-2011+PRN20110205'
p333
sg4
S'20110205\xc2\xa03:04PM UTC'
p334
sg6
S'Diversified Environmental Catalysts, Inc. Completes the Acquisition of Lori Products, Inc.'
p335
sa(dp336
g2
S'http://www.reuters.com/article/2011/02/05/idUS129788178020110205'
p337
sg4
S'20110205\xc2\xa03:03PM UTC'
p338
sg6
S'Week in review: Apple\xe2\x80\x99s Wozniak speaks on white iPhone'
p339
sa(dp340
g2
S'http://www.reuters.com/article/2011/02/05/idUS50014+05-Feb-2011+GNW20110205'
p341
sg4
S'20110205\xc2\xa03:01PM UTC'
p342
sg6
S'Fair Grounds Announces Second Purse Increase'
p343
sa(dp344
g2
S'http://www.reuters.com/article/2011/02/05/idUS49950+05-Feb-2011+PRN20110205'
p345
sg4
S'20110205\xc2\xa03:00PM UTC'
p346
sg6
S'Following Is a Test Release'
p347
sa(dp348
g2
S'http://www.reuters.com/article/2011/02/05/us-egypt-protests-balance-factbox-idUSTRE7142B820110205'
p349
sg4
S'20110205\xc2\xa02:57PM UTC'
p350
sg6
S'Factbox: Balance of power between Mubarak and opponents'
p351
sa(dp352
g2
S'http://www.reuters.com/article/2011/02/05/idUS48780+05-Feb-2011+PRN20110205'
p353
sg4
S'20110205\xc2\xa02:30PM UTC'
p354
sg6
S'Following Is a Test Release'
p355
sa(dp356
g2
S'http://www.reuters.com/article/2011/02/05/albania-protest-deaths-idUSLDE7140BC20110205'
p357
sg4
S'20110205\xc2\xa02:26PM UTC'
p358
sg6
S'Death toll of Albanian protest rises to four'
p359
sa(dp360
g2
S'http://www.reuters.com/article/2011/02/05/soccer-england-united-idUSLDE7140EY20110205'
p361
sg4
S'20110205\xc2\xa02:23PM UTC'
p362
sg6
S'Soccer-Man United suffer first league defeat of season at Wolves'
p363
sa(dp364
g2
S'http://www.reuters.com/article/2011/02/05/us-egypt-party-idUSTRE71420320110205'
p365
sg4
S'20110205\xc2\xa02:23PM UTC'
p366
sg6
S'Top leadership quits Egypt ruling party'
p367
sa(dp368
g2
S'http://www.reuters.com/article/2011/02/05/us-iraq-crash-idUSTRE7141K520110205'
p369
sg4
S'20110205\xc2\xa02:22PM UTC'
p370
sg6
S'Business executives killed in Iraq plane crash'
p371
sa(dp372
g2
S'http://www.reuters.com/article/2011/02/05/us-usa-stocks-weekahead-idUSTRE7137C020110205'
p373
sg4
S'20110205\xc2\xa02:19PM UTC'
p374
sg6
S'Market could rally on earnings and technicals'
p375
sa(dp376
g2
S'http://www.reuters.com/article/2011/02/05/us-yarn-bombers-idUSTRE71427O20110205'
p377
sg4
S'20110205\xc2\xa02:13PM UTC'
p378
sg6
S'Oregon "yarn bombers" knit graffiti for lamp posts, trees'
p379
sa(dp380
g2
S'http://www.reuters.com/article/2011/02/05/idUS47765+05-Feb-2011+PRN20110205'
p381
sg4
S'20110205\xc2\xa02:00PM UTC'
p382
sg6
S'Following Is a Test Release'
p383
sa(dp384
g2
S'http://www.reuters.com/article/2011/02/05/nasdaq-hackers-idUSWEN712420110205'
p385
sg4
S'20110205\xc2\xa01:48PM UTC'
p386
sg6
S"Nasdaq finds 'suspicious files' in hacker probe"
p387
sa(dp388
g2
S'http://www.reuters.com/article/2011/02/05/idUS47265+05-Feb-2011+MW20110205'
p389
sg4
S'20110205\xc2\xa01:45PM UTC'
p390
sg6
S' IAMGOLD: Fatal Accident at Rosebel'
p391
sa(dp392
g2
S'http://www.reuters.com/article/2011/02/05/us-superbowl-prison-idUSTRE71425X20110205'
p393
sg4
S'20110205\xc2\xa01:42PM UTC'
p394
sg6
S'Kansas prisoners plan Super Bowl pizza party'
p395
sa(dp396
g2
S'http://www.reuters.com/article/2011/02/05/us-indiana-stabbing-idUSTRE71425R20110205'
p397
sg4
S'20110205\xc2\xa01:41PM UTC'
p398
sg6
S'Man repeatedly stabs himself in neck before arrest'
p399
sa(dp400
g2
S'http://www.reuters.com/article/2011/02/05/idUS308923864520110205'
p401
sg4
S'20110205\xc2\xa01:38PM UTC'
p402
sg6
S'CONTEST: Win a Trip to New Zealand with Air New Zealand'
p403
sa(dp404
g2
S'http://www.reuters.com/article/2011/02/05/idUS46837+05-Feb-2011+PRN20110205'
p405
sg4
S'20110205\xc2\xa01:30PM UTC'
p406
sg6
S'Following Is a Test Release'
p407
sa(dp408
g2
S'http://www.reuters.com/article/2011/02/05/idUS46828+05-Feb-2011+PRN20110205'
p409
sg4
S'20110205\xc2\xa01:30PM UTC'
p410
sg6
S'NASA Deputy Administrator Visits Colorado Innovation Sites'
p411
sa(dp412
g2
S'http://www.reuters.com/article/2011/02/05/us-bankofamerica-overdraft-settlement-idUSTRE71423420110205'
p413
sg4
S'20110205\xc2\xa01:25PM UTC'
p414
sg6
S'B of A to pay $410 million to settle overdraft lawsuit'
p415
sa(dp416
g2
S'http://www.reuters.com/article/2011/02/05/bankofamerica-overdraft-settlement-idUSN0514318620110205'
p417
sg4
S'20110205\xc2\xa01:23PM UTC'
p418
sg6
S'B of A to pay $410 mln to settle overdraft lawsuit'
p419
sa(dp420
g2
S'http://www.reuters.com/article/2011/02/05/us-nfl-superbowl-polamalu-idUSTRE71422U20110205'
p421
sg4
S'20110205\xc2\xa01:22PM UTC'
p422
sg6
S'Popular Polamalu is a man of contrasts'
p423
sa(dp424
g2
S'http://www.reuters.com/article/2011/02/05/us-egypt-usa-steps-idUSTRE71422N20110205'
p425
sg4
S'20110205\xc2\xa01:02PM UTC'
p426
sg6
S'Gamal Mubarak resignation "positive step": official'
p427
sa(dp428
g2
S'http://www.reuters.com/article/2011/02/05/us-jobs-veterans-idUSTRE71374A20110205'
p429
sg4
S'20110205\xc2\xa01:00PM UTC'
p430
sg6
S'Jobless rate among veterans highest in five years'
p431
sa(dp432
g2
S'http://www.reuters.com/article/2011/02/05/idUS45957+05-Feb-2011+PRN20110205'
p433
sg4
S'20110205\xc2\xa01:00PM UTC'
p434
sg6
S'Following Is a Test Release'
p435
sa(dp436
g2
S'http://www.reuters.com/article/2011/02/05/idUS45949+05-Feb-2011+PRN20110205'
p437
sg4
S'20110205\xc2\xa01:00PM UTC'
p438
sg6
S'Chrome Systems Announces Online Vehicle Payment Calculation Service Linked to Current Rates and Residuals'
p439
sa(dp440
g2
S'http://www.reuters.com/article/2011/02/05/idUS45945+05-Feb-2011+PRN20110205'
p441
sg4
S'20110205\xc2\xa01:00PM UTC'
p442
sg6
S'Reynolds and DealerTrack Announce New Certified Data Interfaces Between Reynolds and DealerTrack Solutions'
p443
sa(dp444
g2
S'http://www.reuters.com/article/2011/02/05/idUS45940+05-Feb-2011+PRN20110205'
p445
sg4
S'20110205\xc2\xa01:00PM UTC'
p446
sg6
S'DealerTrack Unveils New Enhancement Enabling Pre-Qualification of Consumer Auto Financing Through Dealer Websites'
p447
sa(dp448
g2
S'http://www.reuters.com/article/2011/02/05/us-italy-berlusconi-protests-idUSTRE71421120110205'
p449
sg4
S'20110205\xc2\xa012:56PM UTC'
p450
sg6
S'Intellectuals lead Milan rally against Berlusconi'
p451
sa(dp452
g2
S'http://www.reuters.com/article/2011/02/05/idUS45740+05-Feb-2011+PRN20110205'
p453
sg4
S'20110205\xc2\xa012:55PM UTC'
p454
sg6
S'United Nations Welcomes World Youth Peace Summit at a Reception at the United Nations on Feb 9th 2011'
p455
sa(dp456
g2
S'http://www.reuters.com/article/2011/02/05/us-egypt-economy-idUSTRE7141G120110205'
p457
sg4
S'20110205\xc2\xa012:55PM UTC'
p458
sg6
S"Analysis: Reopening Egypt's banks is leap into unknown"
p459
sa(dp460
g2
S'http://www.reuters.com/article/2011/02/05/idUS45670+05-Feb-2011+BW20110205'
p461
sg4
S'20110205\xc2\xa012:53PM UTC'
p462
sg6
S'Kynetx, Top Tech Influencers to Help Shape the "Live Web" at Impact 2011'
p463
sa(dp464
g2
S'http://www.reuters.com/article/2011/02/05/us-airbus-us-interview-idUSTRE7141O320110205'
p465
sg4
S'20110205\xc2\xa012:52PM UTC'
p466
sg6
S'EADS will not improve U.S. tanker'
p467
sa(dp468
g2
S'http://www.reuters.com/article/2011/02/05/egypt-us-wisner-idUSLDE7140DQ20110205'
p469
sg4
S'20110205\xc2\xa012:49PM UTC'
p470
sg6
S'Mubarak must stay to steer changes -- Obama envoy'
p471
sa(dp472
g2
S'http://www.reuters.com/article/2011/02/05/egypt-usa-steps-idUSN0520412520110205'
p473
sg4
S'20110205\xc2\xa012:40PM UTC'
p474
sg6
S'US official: Gamal Mubarak resigning positive step'
p475
sa(dp476
g2
S'http://www.reuters.com/article/2011/02/05/iraq-crash-idUSN0514529420110205'
p477
sg4
S'20110205\xc2\xa012:39PM UTC'
p478
sg6
S'UPDATE 1-Business executives killed in Iraq plane crash'
p479
sa(dp480
g2
S'http://www.reuters.com/article/2011/02/05/egypt-us-envoy-idUSLDE7140D520110205'
p481
sg4
S'20110205\xc2\xa012:32PM UTC'
p482
sg6
S"Obama's Egypt envoy: still risks but path opening"
p483
sa(dp484
g2
S'http://www.reuters.com/article/2011/02/05/us-sudan-bashir-idUSTRE7141XJ20110205'
p485
sg4
S'20110205\xc2\xa012:32PM UTC'
p486
sg6
S"Sudan's Bashir vows freedoms and open government"
p487
sa(dp488
g2
S'http://www.reuters.com/article/2011/02/05/idUS45046+05-Feb-2011+MW20110205'
p489
sg4
S'20110205\xc2\xa012:31PM UTC'
p490
sg6
S' Government of Canada Supports Seniors in Hagersville'
p491
sa(dp492
g2
S'http://www.reuters.com/article/2011/02/05/idUS45022+05-Feb-2011+MW20110205'
p493
sg4
S'20110205\xc2\xa012:30PM UTC'
p494
sg6
S' Government of Canada Supports Seniors in Hagersville'
p495
sa(dp496
g2
S'http://www.reuters.com/article/2011/02/05/idUS45009+05-Feb-2011+PRN20110205'
p497
sg4
S'20110205\xc2\xa012:30PM UTC'
p498
sg6
S'Following Is a Test Release'
p499
sa(dp500
g2
S'http://www.reuters.com/article/2011/02/05/us-ivorycoast-protest-idUSTRE7141X820110205'
p501
sg4
S'20110205\xc2\xa012:28PM UTC'
p502
sg6
S'Ivory Coast Gbagbo backers protest against African Union'
p503
sa(dp504
g2
S'http://www.reuters.com/article/2011/02/05/egypt-party-mubarak-idUSWEB701320110205'
p505
sg4
S'20110205\xc2\xa012:23PM UTC'
p506
sg6
S'Arabiya retracts report Mubarak quits as party head'
p507
sa(dp508
g2
S'http://www.reuters.com/article/2011/02/05/us-egypt-europe-idUSTRE7141VX20110205'
p509
sg4
S'20110205\xc2\xa012:16PM UTC'
p510
sg6
S"Europe to Egypt: After Mubarak, don't rush election"
p511
sa(dp512
g2
S'http://www.reuters.com/article/2011/02/05/egypt-europe-idUSLDE7140CE20110205'
p513
sg4
S'20110205\xc2\xa012:15PM UTC'
p514
sg6
S"UPDATE 1-Europe to Egypt: After Mubarak, don't rush election"
p515
sa(dp516
g2
S'http://www.reuters.com/article/2011/02/05/us-sec-atkins-idUSTRE7141UE20110205'
p517
sg4
S'20110205\xc2\xa012:07PM UTC'
p518
sg6
S'Former regulator pans hedge fund reporting plan'
p519
sa(dp520
g2
S'http://www.reuters.com/article/2011/02/05/sec-atkins-idUSN0514319320110205'
p521
sg4
S'20110205\xc2\xa012:01PM UTC'
p522
sg6
S'Former US regulator pans hedge fund reporting plan'
p523
sa(dp524
g2
S'http://www.reuters.com/article/2011/02/05/idUS43896+05-Feb-2011+PRN20110205'
p525
sg4
S'20110205\xc2\xa012:00PM UTC'
p526
sg6
S'Following Is a Test Release'
p527
sa(dp528
g2
S'http://www.reuters.com/article/2011/02/05/idUS43874+05-Feb-2011+BW20110205'
p529
sg4
S'20110205\xc2\xa012:00PM UTC'
p530
sg6
S'Ronald Reagan Presidential Foundation and GE Open "Foundations of a Great Communicator" Gallery'
p531
sa(dp532
g2
S'http://www.reuters.com/article/2011/02/05/banks-bonuses-idUSN0513638520110205'
p533
sg4
S'20110205\xc2\xa011:49AM UTC'
p534
sg6
S'US to force Wall Street to defer half bonuses -WSJ'
p535
sa(dp536
g2
S'http://www.reuters.com/article/2011/02/05/us-bush-torture-idUSTRE7141CU20110205'
p537
sg4
S'20110205\xc2\xa011:49AM UTC'
p538
sg6
S"Bush's Swiss visit off after complaints on torture"
p539
sa(dp540
g2
S'http://www.reuters.com/article/2011/02/05/egypt-tbills-idUSLDE7140CG20110205'
p541
sg4
S'20110205\xc2\xa011:48AM UTC'
p542
sg6
S'UPDATE 1-Egypt to auction T-bills Monday for Tues settlement'
p543
sa(dp544
g2
S'http://www.reuters.com/article/2011/02/05/us-dogs-wildlife-idUSTRE7141QB20110205'
p545
sg4
S'20110205\xc2\xa011:41AM UTC'
p546
sg6
S"Wildlife now dogged by man's best friend?"
p547
sa(dp548
g2
S'http://www.reuters.com/article/2011/02/05/egypt-tbills-idUSWEB701120110205'
p549
sg4
S'20110205\xc2\xa011:33AM UTC'
p550
sg6
S'Egypt to auction T-bills Monday for Tues settlement'
p551
sa(dp552
g2
S'http://www.reuters.com/article/2011/02/05/us-egypt-party-idUSTRE7141PQ20110205'
p553
sg4
S'20110205\xc2\xa011:32AM UTC'
p554
sg6
S'Top leadership quits Egypt ruling party'
p555
sa(dp556
g2
S'http://www.reuters.com/article/2011/02/05/us-egypt-army-control-interview-idUSTRE7141PE20110205'
p557
sg4
S'20110205\xc2\xa011:31AM UTC'
p558
sg6
S'Egypt army to dump Mubarak, retain role: expert'
p559
sa(dp560
g2
S'http://www.reuters.com/article/2011/02/05/idUS42884+05-Feb-2011+PRN20110205'
p561
sg4
S'20110205\xc2\xa011:30AM UTC'
p562
sg6
S'Following Is a Test Release'
p563
sa(dp564
g2
S'http://www.reuters.com/article/2011/02/05/quake-chile-idUSN0514043220110205'
p565
sg4
S'20110205\xc2\xa011:28AM UTC'
p566
sg6
S'Central Chile hit by 5.8 magnitude quake - USGS'
p567
sa(dp568
g2
S'http://www.reuters.com/article/2011/02/05/us-iraq-politics-salary-idUSTRE7141IH20110205'
p569
sg4
S'20110205\xc2\xa011:14AM UTC'
p570
sg6
S'Iraqi premier says will give up half his salary'
p571
sa(dp572
g2
S'http://www.reuters.com/article/2011/02/05/egypt-party-mubarak-idUSWEB701020110205'
p573
sg4
S'20110205\xc2\xa011:05AM UTC'
p574
sg6
S'Mubarak resigns as head of Egypt ruling party-TV'
p575
sa(dp576
g2
S'http://www.reuters.com/article/2011/02/05/us-egypt-brotherhood-mubarak-idUSTRE7141NO20110205'
p577
sg4
S'20110205\xc2\xa011:03AM UTC'
p578
sg6
S'Mubarak sees Brotherhood plotting behind protests'
p579
sa(dp580
g2
S'http://www.reuters.com/article/2011/02/05/egypt-brotherhood-mubarak-idUSLDE71029E20110205'
p581
sg4
S'20110205\xc2\xa011:01AM UTC'
p582
sg6
S'Mubarak sees Brotherhood plotting behind protests'
p583
sa(dp584
g2
S'http://www.reuters.com/article/2011/02/05/idUS41974+05-Feb-2011+PRN20110205'
p585
sg4
S'20110205\xc2\xa011:00AM UTC'
p586
sg6
S'Following Is a Test Release'
p587
sa(dp588
g2
S'http://www.reuters.com/article/2011/02/05/idUS41963+05-Feb-2011+PRN20110205'
p589
sg4
S'20110205\xc2\xa011:00AM UTC'
p590
sg6
S'DrivingSales University Launches to Build Dealership Profits: 24/7'
p591
sa(dp592
g2
S'http://www.reuters.com/article/2011/02/05/us-fund-greek-idUSTRE7141MC20110205'
p593
sg4
S'20110205\xc2\xa010:47AM UTC'
p594
sg6
S'PIMCO says Europe should relieve Greece of debt'
p595
sa(dp596
g2
S'http://www.reuters.com/article/2011/02/05/idUS41642+05-Feb-2011+GNW20110205'
p597
sg4
S'20110205\xc2\xa010:47AM UTC'
p598
sg6
S"Dealer.com Launches Highly Anticipated 'Social Relationship Manager'"
p599
sa(dp600
g2
S'http://www.reuters.com/article/2011/02/05/uk-timhortons-idUSLNE71401220110205'
p601
sg4
S'20110205\xc2\xa010:45AM UTC'
p602
sg6
S'Tim Hortons to expand in UAE, other Gulf countries'
p603
sa(dp604
g2
S'http://www.reuters.com/article/2011/02/05/egypt-party-idUSLDE7140AW20110205'
p605
sg4
S'20110205\xc2\xa010:37AM UTC'
p606
sg6
S"RPT-Top leadership of Egypt's ruling party resigns"
p607
sa(dp608
g2
S'http://www.reuters.com/article/2011/02/05/uk-virgin-baa-idUSLNE71400V20110205'
p609
sg4
S'20110205\xc2\xa010:31AM UTC'
p610
sg6
S'Virgin Atlantic to pay overdue airport fees to BAA'
p611
sa(dp612
g2
S'http://www.reuters.com/article/2011/02/05/idUS41125+05-Feb-2011+GNW20110205'
p613
sg4
S'20110205\xc2\xa010:31AM UTC'
p614
sg6
S'Dealer.com Introduces All-New Website Platform for Dealers, Manufacturers and Media...'
p615
sa(dp616
g2
S'http://www.reuters.com/article/2011/02/05/idUS41094+05-Feb-2011+PRN20110205'
p617
sg4
S'20110205\xc2\xa010:30AM UTC'
p618
sg6
S'Following Is a Test Release'
p619
sa(dp620
g2
S'http://www.reuters.com/article/2011/02/05/us-russia-caucasus-idUSTRE7141L520110205'
p621
sg4
S'20110205\xc2\xa010:29AM UTC'
p622
sg6
S'Chechen rebel threatens Russia with more attacks'
p623
sa(dp624
g2
S'http://www.reuters.com/article/2011/02/05/uk-iag-idUSLNE71400O20110205'
p625
sg4
S'20110205\xc2\xa010:28AM UTC'
p626
sg6
S'IAG to raise fuel surcharge on BA longhaul flights'
p627
sa(dp628
g2
S'http://www.reuters.com/article/2011/02/05/us-egypt-iran-idUSTRE7141KR20110205'
p629
sg4
S'20110205\xc2\xa010:25AM UTC'
p630
sg6
S'Iran\'s unrest comments "cross all red lines": Egypt'
p631
sa(dp632
g2
S'http://www.reuters.com/article/2011/02/05/iraq-crash-idUSLDE71409520110205'
p633
sg4
S'20110205\xc2\xa010:19AM UTC'
p634
sg6
S'Business executives killed in Iraq plane crash'
p635
sa(dp636
g2
S'http://www.reuters.com/article/2011/02/05/us-egypt-trade-idUSTRE7141JO20110205'
p637
sg4
S'20110205\xc2\xa010:18AM UTC'
p638
sg6
S'Egypt exports down 6 percent: trade minister'
p639
sa(dp640
g2
S'http://www.reuters.com/article/2011/02/05/uk-egypt-touroperators-idUSLNE71400H20110205'
p641
sg4
S'20110205\xc2\xa010:16AM UTC'
p642
sg6
S'Spain, tour operators hope for Egypt silver lining'
p643
sa(dp644
g2
S'http://www.reuters.com/article/2011/02/05/cricket-corruption-verdict-idUSLDE71407B20110205'
p645
sg4
S'20110205\xc2\xa010:15AM UTC'
p646
sg6
S'Cricket-ICC suspends Pakistan trio for minimum five years'
p647
sa(dp648
g2
S'http://www.reuters.com/article/2011/02/05/idUS40386+05-Feb-2011+PRN20110205'
p649
sg4
S'20110205\xc2\xa010:11AM UTC'
p650
sg6
S'Deadline for 2011 Golden Quill Awards Quickly Approaching'
p651
sa(dp652
g2
S'http://www.reuters.com/article/2011/02/05/idUS40301+05-Feb-2011+PRN20110205'
p653
sg4
S'20110205\xc2\xa010:08AM UTC'
p654
sg6
S'Leading Automotive CRM Provider DealerSocket to Unveil DealerSocket 2011 at NADA Convention in San Francisco'
p655
sa(dp656
g2
S'http://www.reuters.com/article/2011/02/05/uk-congress-airlines-idUSLNE71400A20110205'
p657
sg4
S'20110205\xc2\xa010:08AM UTC'
p658
sg6
S'US Senate mulls higher fuel tax for private planes'
p659
sa(dp660
g2
S'http://www.reuters.com/article/2011/02/05/egypt-protests-address-idUSLDE71409M20110205'
p661
sg4
S'20110205\xc2\xa010:01AM UTC'
p662
sg6
S'Egypt army commander addresses crowd in Tahrir'
p663
sa(dp664
g2
S'http://www.reuters.com/article/2011/02/05/idUS40018+05-Feb-2011+MW20110205'
p665
sg4
S'20110205\xc2\xa010:00AM UTC'
p666
sg6
S' Government of Canada Supports Seniors in Port Dover'
p667
sa(dp668
g2
S'http://www.reuters.com/article/2011/02/05/idUS39976+05-Feb-2011+PRN20110205'
p669
sg4
S'20110205\xc2\xa010:00AM UTC'
p670
sg6
S'Following Is a Test Release'
p671
sa(dp672
g2
S'http://www.reuters.com/article/2011/02/05/idUS39969+05-Feb-2011+PRN20110205'
p673
sg4
S'20110205\xc2\xa010:00AM UTC'
p674
sg6
S'eCarList Wins DrivingSales Dealer Satisfaction Award'
p675
sa(dp676
g2
S'http://www.reuters.com/article/2011/02/05/idUS39965+05-Feb-2011+PRN20110205'
p677
sg4
S'20110205\xc2\xa010:00AM UTC'
p678
sg6
S'Dealership Accessory Sales Re-Emerged in 2010, According to New AOA Accessories Trend Report'
p679
sa(dp680
g2
S'http://www.reuters.com/article/2011/02/05/idUS39353+05-Feb-2011+PRN20110205'
p681
sg4
S'20110205\xc2\xa09:44AM UTC'
p682
sg6
S'Recent Snowstorms Lure Vehicle Thieves...But LoJack Stops Them Cold'
p683
sa(dp684
g2
S'http://www.reuters.com/article/2011/02/05/us-egypt-rafah-explosion-idUSTRE7141HE20110205'
p685
sg4
S'20110205\xc2\xa09:41AM UTC'
p686
sg6
S'Blast in Egypt church near Gaza border:  witnesses'
p687
sa(dp688
g2
S'http://www.reuters.com/article/2011/02/05/idUS38593+05-Feb-2011+PRN20110205'
p689
sg4
S'20110205\xc2\xa09:30AM UTC'
p690
sg6
S'Following Is a Test Release'
p691
sa(dp692
g2
S'http://www.reuters.com/article/2011/02/05/us-russia-usa-start-idUSTRE7141ED20110205'
p693
sg4
S'20110205\xc2\xa09:28AM UTC'
p694
sg6
S'U.S. and Russia cap "reset" in ties with START treaty'
p695
sa(dp696
g2
S'http://www.reuters.com/article/2011/02/05/us-usa-russia-start-idUSTRE7141FK20110205'
p697
sg4
S'20110205\xc2\xa09:28AM UTC'
p698
sg6
S'Factbox: START treaty opens way to nuclear inspections'
p699
sa(dp700
g2
S'http://www.reuters.com/article/2011/02/05/idUS38351+05-Feb-2011+PRN20110205'
p701
sg4
S'20110205\xc2\xa09:23AM UTC'
p702
sg6
S'Super Bowl Beer Ads Penalized for Unnecessary Roughness, Offsides and Pushing Youth Dangerously Out of Bounds'
p703
sa(dp704
g2
S'http://www.reuters.com/article/2011/02/05/idUS38169+05-Feb-2011+BW20110205'
p705
sg4
S'20110205\xc2\xa09:18AM UTC'
p706
sg6
S'eXteresAUTOWins "Highest Rated" DrivingSales Dealer Satisfaction Award'
p707
sa(dp708
g2
S'http://www.reuters.com/article/2011/02/05/uk-travel-apps-idUSLNE71300B20110205'
p709
sg4
S'20110205\xc2\xa09:14AM UTC'
p710
sg6
S'Have app, will travel'
p711
sa(dp712
g2
S'http://www.reuters.com/article/2011/02/05/us-security-britain-afghanistan-egypt-in-idUSTRE7141DX20110205'
p713
sg4
S'20110205\xc2\xa09:04AM UTC'
p714
sg6
S"Egypt worries won't hit Afghan commitment: UK"
p715
sa(dp716
g2
S'http://www.reuters.com/article/2011/02/05/mideast-quartet-statement-idUSLDE71408O20110205'
p717
sg4
S'20110205\xc2\xa09:03AM UTC'
p718
sg6
S'RPT-Quartet make Egypt impact priority in MidEast talks'
p719
sa(dp720
g2
S'http://www.reuters.com/article/2011/02/05/vale-infrastructure-idUSN0512624220110205'
p721
sg4
S'20110205\xc2\xa09:02AM UTC'
p722
sg6
S'Brazil Vale buys area in Para for new port -report'
p723
sa(dp724
g2
S'http://www.reuters.com/article/2011/02/05/mideast-quartet-statement-idUSLDE71408V20110205'
p725
sg4
S'20110205\xc2\xa09:00AM UTC'
p726
sg6
S'Quartet make Egypt impact priority in MidEast talks'
p727
sa(dp728
g2
S'http://www.reuters.com/article/2011/02/05/idUS37493+05-Feb-2011+PRN20110205'
p729
sg4
S'20110205\xc2\xa09:00AM UTC'
p730
sg6
S'Following Is a Test Release'
p731
sa(dp732
g2
S'http://www.reuters.com/article/2011/02/05/idUS37368+05-Feb-2011+MW20110205'
p733
sg4
S'20110205\xc2\xa08:56AM UTC'
p734
sg6
S' Galen Hall Wins $2.3 Million at the PokerStars Caribbean Adventure'
p735
sa(dp736
g2
S'http://www.reuters.com/article/2011/02/05/canadianpacific-idUSN0525517920110205'
p737
sg4
S'20110205\xc2\xa08:51AM UTC'
p738
sg6
S'Canadian Pacific, union reach tentative labor deal'
p739
sa(dp740
g2
S'http://www.reuters.com/article/2011/02/05/us-iran-ahmadinejad-minister-idUSTRE7141C820110205'
p741
sg4
S'20110205\xc2\xa08:30AM UTC'
p742
sg6
S'Ahmadinejad chides parliament for sacking minister'
p743
sa(dp744
g2
S'http://www.reuters.com/article/2011/02/05/idUS36418+05-Feb-2011+PRN20110205'
p745
sg4
S'20110205\xc2\xa08:30AM UTC'
p746
sg6
S'Following Is a Test Release'
p747
sa(dp748
g2
S'http://www.reuters.com/article/2011/02/05/us-egypt-jordan-gas-idUSTRE7141B220110205'
p749
sg4
S'20110205\xc2\xa08:21AM UTC'
p750
sg6
S'Jordan gas supplies to be halted a week after blast'
p751
sa(dp752
g2
S'http://www.reuters.com/article/2011/02/05/us-egypt-banks-cbank-idUSTRE7141B120110205'
p753
sg4
S'20110205\xc2\xa08:21AM UTC'
p754
sg6
S'Egypt banks to reopen Sunday at 10 a.m. : central bank'
p755
sa(dp756
g2
S'http://www.reuters.com/article/2011/02/05/us-alpine-skiing-men-idUSTRE71417B20110205'
p757
sg4
S'20110205\xc2\xa08:15AM UTC'
p758
sg6
S'Austrian Reichelt ends long victory wait'
p759
sa(dp760
g2
S'http://www.reuters.com/article/2011/02/05/egypt-banks-cbank-idUSWEB700720110205'
p761
sg4
S'20110205\xc2\xa08:15AM UTC'
p762
sg6
S'Egypt banks to reopen Sunday at 10 a.m. -cbank'
p763
sa(dp764
g2
S'http://www.reuters.com/article/2011/02/05/us-nokia-management-idUSTRE71419S20110205'
p765
sg4
S'20110205\xc2\xa08:01AM UTC'
p766
sg6
S'Nokia likely to sack several executives: report'
p767
sa(dp768
g2
S'http://www.reuters.com/article/2011/02/05/idUS35592+05-Feb-2011+PRN20110205'
p769
sg4
S'20110205\xc2\xa08:00AM UTC'
p770
sg6
S'Following Is a Test Release'
p771
sa(dp772
g2
S'http://www.reuters.com/article/2011/02/05/idUS35587+05-Feb-2011+PRN20110205'
p773
sg4
S'20110205\xc2\xa08:00AM UTC'
p774
sg6
S'Reynolds and Reynolds and Polk Expand Collaborative Relationship'
p775
sa(dp776
g2
S'http://www.reuters.com/article/2011/02/05/idUS121389824120110205'
p777
sg4
S'20110205\xc2\xa08:00AM UTC'
p778
sg6
S'SHORT TAKE: Update on Allegiant\xe2\x80\x99s Boeing 757s'
p779
sa(dp780
g2
S'http://www.reuters.com/article/2011/02/05/idUS35582+05-Feb-2011+PRN20110205'
p781
sg4
S'20110205\xc2\xa08:00AM UTC'
p782
sg6
S'Carfax Expands Marketing Support for Dealers'
p783
sa(dp784
g2
S'http://www.reuters.com/article/2011/02/05/alpine-skiing-men-standings-idUSISS59763320110205'
p785
sg4
S'20110205\xc2\xa07:56AM UTC'
p786
sg6
S"Alpine skiing-Men's World Cup standings"
p787
sa(dp788
g2
S'http://www.reuters.com/article/2011/02/05/us-egypt-banks-idUSTRE71419020110205'
p789
sg4
S'20110205\xc2\xa07:55AM UTC'
p790
sg6
S'Egypt banks to open on Sunday at 8:30 a.m.'
p791
sa(dp792
g2
S'http://www.reuters.com/article/2011/02/05/nokia-management-idUSLDE71407A20110205'
p793
sg4
S'20110205\xc2\xa07:53AM UTC'
p794
sg6
S'Nokia likely to sack several executives - magazine'
p795
sa(dp796
g2
S'http://www.reuters.com/article/2011/02/05/egypt-banks-idUSWEB700620110205'
p797
sg4
S'20110205\xc2\xa07:52AM UTC'
p798
sg6
S'Egypt banks to open on Sunday at 8:30 a.m.'
p799
sa(dp800
g2
S'http://www.reuters.com/article/2011/02/05/alpine-skiing-men-result-idUSISS59669620110205'
p801
sg4
S'20110205\xc2\xa07:50AM UTC'
p802
sg6
S"UPDATE 1-Alpine skiing-Hinterstoder men's super-G result"
p803
sa(dp804
g2
S'http://www.reuters.com/article/2011/02/05/idUS34697+05-Feb-2011+PRN20110205'
p805
sg4
S'20110205\xc2\xa07:30AM UTC'
p806
sg6
S'Following Is a Test Release'
p807
sa(dp808
g2
S'http://www.reuters.com/article/2011/02/05/us-zimbabwe-violence-idUSTRE71418920110205'
p809
sg4
S'20110205\xc2\xa07:25AM UTC'
p810
sg6
S'Zimbabwe parties condemn spate of political violence'
p811
sa(dp812
g2
S'http://www.reuters.com/article/2011/02/05/us-egypt-vicepresident-clinton-idUSTRE71415L20110205'
p813
sg4
S'20110205\xc2\xa07:15AM UTC'
p814
sg6
S'Clinton: reported attack on Egypt VP shows risks'
p815
sa(dp816
g2
S'http://www.reuters.com/article/2011/02/05/idUS33719+05-Feb-2011+BW20110205'
p817
sg4
S'20110205\xc2\xa07:01AM UTC'
p818
sg6
S'Research and Markets: Smart Grid HAN Strategy Report 2011: Technologies, Market Forecast and Leading Players'
p819
sa(dp820
g2
S'http://www.reuters.com/article/2011/02/05/egypt-vicepresident-clinton-idUSLDE71406P20110205'
p821
sg4
S'20110205\xc2\xa07:00AM UTC'
p822
sg6
S'UPDATE 1-Clinton: reported attack on Egypt VP shows risks'
p823
sa(dp824
g2
S'http://www.reuters.com/article/2011/02/05/idUS33678+05-Feb-2011+PRN20110205'
p825
sg4
S'20110205\xc2\xa07:00AM UTC'
p826
sg6
S'Following Is a Test Release'
p827
sa(dp828
g2
S'http://www.reuters.com/article/2011/02/05/us-egypt-europe-idUSTRE71416L20110205'
p829
sg4
S'20110205\xc2\xa06:46AM UTC'
p830
sg6
S"Europe to Egypt: After Mubarak, don't rush election"
p831
sa(dp832
g2
S'http://www.reuters.com/article/2011/02/05/oilindia-result-idUSSGE71401P20110205'
p833
sg4
S'20110205\xc2\xa06:45AM UTC'
p834
sg6
S'TABLE- Oil India Oct-Dec net up 26.5 pct'
p835
sa(dp836
g2
S'http://www.reuters.com/article/2011/02/05/egypt-europe-idUSLDE71405020110205'
p837
sg4
S'20110205\xc2\xa06:44AM UTC'
p838
sg6
S"Europe to Egypt: After Mubarak, don't rush election"
p839
sa(dp840
g2
S'http://www.reuters.com/article/2011/02/05/egypt-trade-idUSWEB700120110205'
p841
sg4
S'20110205\xc2\xa06:44AM UTC'
p842
sg6
S'Egypt exports down 6 percent - trade minister'
p843
sa(dp844
g2
S'http://www.reuters.com/article/2011/02/05/egypt-bourse-idUSWEB700020110205'
p845
sg4
S'20110205\xc2\xa06:35AM UTC'
p846
sg6
S"Egypt's bourse not to open on Monday -official"
p847
sa(dp848
g2
S'http://www.reuters.com/article/2011/02/05/egypt-usa-transition-idUSN0526850320110205'
p849
sg4
S'20110205\xc2\xa06:33AM UTC'
p850
sg6
S'US wants orderly, expeditious Egypt transition-Clinton'
p851
sa(dp852
g2
S'http://www.reuters.com/article/2011/02/05/egypt-suleiman-idUSLDE71406F20110205'
p853
sg4
S'20110205\xc2\xa06:31AM UTC'
p854
sg6
S'Report on Egypt VP assassination attempt wrong -source'
p855
sa(dp856
g2
S'http://www.reuters.com/article/2011/02/05/idUS32889+05-Feb-2011+PRN20110205'
p857
sg4
S'20110205\xc2\xa06:30AM UTC'
p858
sg6
S'Following Is a Test Release'
p859
sa(dp860
g2
S'http://www.reuters.com/article/2011/02/05/egypt-vicepresident-clinton-idUSLDE71406A20110205'
p861
sg4
S'20110205\xc2\xa06:21AM UTC'
p862
sg6
S'Clinton: reported attack on Egypt VP shows risks'
p863
sa(dp864
g2
S'http://www.reuters.com/article/2011/02/05/idUS32615+05-Feb-2011+PRN20110205'
p865
sg4
S'20110205\xc2\xa06:18AM UTC'
p866
sg6
S'The deVere Group Signs New Deal with J.P. Morgan Asset Management'
p867
sa(dp868
g2
S'http://www.reuters.com/article/2011/02/05/us-thailand-cambodia-clash-idUSTRE71409020110205'
p869
sg4
S'20110205\xc2\xa06:04AM UTC'
p870
sg6
S'Thai, Cambodia troops clash again near temple, 1 killed'
p871
sa(dp872
g2
S'http://www.reuters.com/article/2011/02/05/us-obama-business-idUSTRE7136ZN20110205'
p873
sg4
S'20110205\xc2\xa06:03AM UTC'
p874
sg6
S'Obama calls on business to do more to boost U.S.'
p875
sa(dp876
g2
S'http://www.reuters.com/article/2011/02/05/us-usa-economy-jobs-obama-idUSTRE7136UE20110205'
p877
sg4
S'20110205\xc2\xa06:02AM UTC'
p878
sg6
S'Obama pushes on job creation, amid din over Egypt'
p879
sa(dp880
g2
S'http://www.reuters.com/article/2011/02/05/idUS32016+05-Feb-2011+MW20110205'
p881
sg4
S'20110205\xc2\xa06:00AM UTC'
p882
sg6
S' Media Advisory/REMINDER: Human Resources and Skills Development Canada'
p883
sa(dp884
g2
S'http://www.reuters.com/article/2011/02/05/idUS32015+05-Feb-2011+MW20110205'
p885
sg4
S'20110205\xc2\xa06:00AM UTC'
p886
sg6
S' Media Advisory/REMINDER: Human Resources and Skills Development Canada'
p887
sa(dp888
g2
S'http://www.reuters.com/article/2011/02/05/idUS31987+05-Feb-2011+PRN20110205'
p889
sg4
S'20110205\xc2\xa06:00AM UTC'
p890
sg6
S'Following Is a Test Release'
p891
sa(dp892
g2
S'http://www.reuters.com/article/2011/02/05/idUS31961+05-Feb-2011+BW20110205'
p893
sg4
S'20110205\xc2\xa06:00AM UTC'
p894
sg6
S'Heart Patient from Children`s Hospital Los Angeles Is the Boy Behind Darth Vader Mask in Super Bowl Commercial'
p895
sa(dp896
g2
S'http://www.reuters.com/article/2011/02/05/idUS31927+05-Feb-2011+PRN20110205'
p897
sg4
S'20110205\xc2\xa05:59AM UTC'
p898
sg6
S'GOOD MORNING -- February 05, 2011'
p899
sa(dp900
g2
S'http://www.reuters.com/article/2011/02/05/aurobindo-pharma-result-idUSSGE71401B20110205'
p901
sg4
S'20110205\xc2\xa05:56AM UTC'
p902
sg6
S'TABLE-Aurobindo Pharma cons Oct-Dec net up 10 pct'
p903
sa(dp904
g2
S'http://www.reuters.com/article/2011/02/05/egypt-jordan-gas-idUSLDE71405120110205'
p905
sg4
S'20110205\xc2\xa05:50AM UTC'
p906
sg6
S'Jordan gas supplies to be halted a week after blast'
p907
sa(dp908
g2
S'http://www.reuters.com/article/2011/02/05/hungary-pm-idUSBDT00008420110205'
p909
sg4
S'20110205\xc2\xa05:44AM UTC'
p910
sg6
S'Hungary must not raise inflation target - PM'
p911
sa(dp912
g2
S'http://www.reuters.com/article/2011/02/05/hochtief-ceo-idUSLDE71327B20110205'
p913
sg4
S'20110205\xc2\xa05:39AM UTC'
p914
sg6
S'Hochtief CEO says would stay on under ACS-paper'
p915
sa(dp916
g2
S'http://www.reuters.com/article/2011/02/05/egypt-usa-idUSN0510698220110205'
p917
sg4
S'20110205\xc2\xa05:37AM UTC'
p918
sg6
S'Clinton warns of "perfect storm" in Middle East'
p919
sa(dp920
g2
S'http://www.reuters.com/article/2011/02/05/us-kashmir-protest-idUSTRE71411820110205'
p921
sg4
S'20110205\xc2\xa05:32AM UTC'
p922
sg6
S'Protest over killing sparks fear of unrest in Indian Kashmir'
p923
sa(dp924
g2
S'http://www.reuters.com/article/2011/02/05/idUS31215+05-Feb-2011+PRN20110205'
p925
sg4
S'20110205\xc2\xa05:30AM UTC'
p926
sg6
S'Following Is a Test Release'
p927
sa(dp928
g2
S'http://www.reuters.com/article/2011/02/05/us-egypt-saudi-idUSTRE71410L20110205'
p929
sg4
S'20110205\xc2\xa05:27AM UTC'
p930
sg6
S'Saudi top cleric blasts Arab, Egypt protests: report'
p931
sa(dp932
g2
S'http://www.reuters.com/article/2011/02/05/us-yemen-idUSTRE7140ZW20110205'
p933
sg4
S'20110205\xc2\xa05:21AM UTC'
p934
sg6
S'U.S. urges Yemen opposition to avoid "provocation"'
p935
sa(dp936
g2
S'http://www.reuters.com/article/2011/02/05/us-egypt-germany-idUSTRE7140X120110205'
p937
sg4
S'20110205\xc2\xa05:08AM UTC'
p938
sg6
S"UK's Cameron urges rapid leadership change in Egypt"
p939
sa(dp940
g2
S'http://www.reuters.com/article/2011/02/05/egypt-germany-idUSLDE71404K20110205'
p941
sg4
S'20110205\xc2\xa05:08AM UTC'
p942
sg6
S"UK's Cameron urges rapid leadership change in Egypt"
p943
sa(dp944
g2
S'http://www.reuters.com/article/2011/02/05/idUS30567+05-Feb-2011+PRN20110205'
p945
sg4
S'20110205\xc2\xa05:00AM UTC'
p946
sg6
S'Following Is a Test Release'
p947
sa(dp948
g2
S'http://www.reuters.com/article/2011/02/05/idUS30550+05-Feb-2011+PRN20110205'
p949
sg4
S'20110205\xc2\xa05:00AM UTC'
p950
sg6
S"Sex Trafficking Opponents Unite to Declare 'I'm Not Buying It' on Eve of the Big Game"
p951
sa(dp952
g2
S'http://www.reuters.com/article/2011/02/05/us-egypt-germany-merkel-idUSTRE7140YJ20110205'
p953
sg4
S'20110205\xc2\xa04:59AM UTC'
p954
sg6
S'Early Egypt elections probably not good idea-Merkel'
p955
sa(dp956
g2
S'http://www.reuters.com/article/2011/02/05/egypt-germany-merkel-idUSLDE71404D20110205'
p957
sg4
S'20110205\xc2\xa04:57AM UTC'
p958
sg6
S'Early Egypt elections probably not good idea-Merkel'
p959
sa(dp960
g2
S'http://www.reuters.com/article/2011/02/05/eicher-result-idUSSGE71400R20110205'
p961
sg4
S'20110205\xc2\xa04:57AM UTC'
p962
sg6
S'TABLE-Eicher Motors cons Oct-Dec net surges'
p963
sa(dp964
g2
S'http://www.reuters.com/article/2011/02/05/us-egypt-israel-gas-idUSTRE7140Y120110205'
p965
sg4
S'20110205\xc2\xa04:40AM UTC'
p966
sg6
S'Egypt gas pipeline attacked, Israel flow hit'
p967
sa(dp968
g2
S'http://www.reuters.com/article/2011/02/05/idUS30094+05-Feb-2011+PRN20110205'
p969
sg4
S'20110205\xc2\xa04:30AM UTC'
p970
sg6
S'Following Is a Test Release'
p971
sa(dp972
g2
S'http://www.reuters.com/article/2011/02/05/idUS30056+05-Feb-2011+BW20110205'
p973
sg4
S'20110205\xc2\xa04:29AM UTC'
p974
sg6
S'USC Libraries Friend The Social Network'
p975
sa(dp976
g2
S'http://www.reuters.com/article/2011/02/05/us-egypt-un-idUSTRE7140XJ20110205'
p977
sg4
S'20110205\xc2\xa04:17AM UTC'
p978
sg6
S'U.N. chief: Egypt shows risk of deficit of democracy'
p979
sa(dp980
g2
S'http://www.reuters.com/article/2011/02/05/egypt-germany-idUSLDE71402W20110205'
p981
sg4
S'20110205\xc2\xa04:12AM UTC'
p982
sg6
S'RPT-Merkel says Egypt change must be peaceful'
p983
sa(dp984
g2
S'http://www.reuters.com/article/2011/02/05/egypt-germany-idUSNLDE71402W20110205'
p985
sg4
S'20110205\xc2\xa04:10AM UTC'
p986
sg6
S'Merkel says Egypt change must be peaceful'
p987
sa(dp988
g2
S'http://www.reuters.com/article/2011/02/05/us-egypt-israel-gas-precaution-idUSTRE7140WJ20110205'
p989
sg4
S'20110205\xc2\xa04:00AM UTC'
p990
sg6
S'Pipe to Israel not hit by Egypt gas sabotage: report'
p991
sa(dp992
g2
S'http://www.reuters.com/article/2011/02/05/idUS29567+05-Feb-2011+PRN20110205'
p993
sg4
S'20110205\xc2\xa04:00AM UTC'
p994
sg6
S'Following Is a Test Release'
p995
sa(dp996
g2
S'http://www.reuters.com/article/2011/02/05/zambia-konkola-idUSLDE71402R20110205'
p997
sg4
S'20110205\xc2\xa03:57AM UTC'
p998
sg6
S"UPDATE 1-Zambia's KCM restarts Nchanga smelter, no output loss"
p999
sa(dp1000
g2
S'http://www.reuters.com/article/2011/02/05/bhushansteel-result-idUSSGE71400K20110205'
p1001
sg4
S'20110205\xc2\xa03:47AM UTC'
p1002
sg6
S'TABLE-Bhushan Steel Oct-Dec net rises 23.3 pct'
p1003
sa(dp1004
g2
S'http://www.reuters.com/article/2011/02/05/egypt-israel-gas-field-idUSLDE71402920110205'
p1005
sg4
S'20110205\xc2\xa03:37AM UTC'
p1006
sg6
S'Israel steps up gas supply after Egypt stoppage'
p1007
sa(dp1008
g2
S'http://www.reuters.com/article/2011/02/05/zambia-konkola-idUSWEB699920110205'
p1009
sg4
S'20110205\xc2\xa03:36AM UTC'
p1010
sg6
S"Zambia's Konkola restarts Nchanga smelter"
p1011
sa(dp1012
g2
S'http://www.reuters.com/article/2011/02/05/us-bulgaria-carbon-trade-idUSTRE7140VT20110205'
p1013
sg4
S'20110205\xc2\xa03:32AM UTC'
p1014
sg6
S'U.N. returns Bulgaria CO2 trading rights'
p1015
sa(dp1016
g2
S'http://www.reuters.com/article/2011/02/05/idUS28791+05-Feb-2011+PRN20110205'
p1017
sg4
S'20110205\xc2\xa03:30AM UTC'
p1018
sg6
S'Following Is a Test Release'
p1019
sa(dp1020
g2
S'http://www.reuters.com/article/2011/02/05/egypt-mubarak-meeting-idUSLDE71402320110205'
p1021
sg4
S'20110205\xc2\xa03:28AM UTC'
p1022
sg6
S"Egypt's Mubarak meets key economy ministers-agency"
p1023
sa(dp1024
g2
S'http://www.reuters.com/article/2011/02/05/us-egypt-israel-jordan-idUSTRE7140UO20110205'
p1025
sg4
S'20110205\xc2\xa03:24AM UTC'
p1026
sg6
S'Foreigners behind Egypt pipeline blast: source'
p1027
sa(dp1028
g2
S'http://www.reuters.com/article/2011/02/05/egypt-israel-gas-precaution-idUSLDE71401Z20110205'
p1029
sg4
S'20110205\xc2\xa03:23AM UTC'
p1030
sg6
S'Israel gas supply not hit by Egypt pipe blast-radio'
p1031
sa(dp1032
g2
S'http://www.reuters.com/article/2011/02/05/us-thailand-cambodia-temple-qa-idUSTRE7140U820110205'
p1033
sg4
S'20110205\xc2\xa03:19AM UTC'
p1034
sg6
S'Q+A: Preah Vihar temple and Thai-Cambodian tension'
p1035
sa(dp1036
g2
S'http://www.reuters.com/article/2011/02/05/us-sudan-south-clash-idUSTRE7140T220110205'
p1037
sg4
S'20110205\xc2\xa03:03AM UTC'
p1038
sg6
S'Sudan shootout kills 20, army warns of more clashes'
p1039
sa(dp1040
g2
S'http://www.reuters.com/article/2011/02/05/idUS28146+05-Feb-2011+PRN20110205'
p1041
sg4
S'20110205\xc2\xa03:00AM UTC'
p1042
sg6
S'Following Is a Test Release'
p1043
sa(dp1044
g2
S'http://www.reuters.com/article/2011/02/05/us-thailand-cambodia-temple-idUSTRE7140SN20110205'
p1045
sg4
S'20110205\xc2\xa02:58AM UTC'
p1046
sg6
S'Factbox: Preah Vihear temple, a lightening rod for Thai-Cambodia'
p1047
sa(dp1048
g2
S'http://www.reuters.com/article/2011/02/05/us-egypt-israel-gas-idUSTRE7140QL20110205'
p1049
sg4
S'20110205\xc2\xa02:56AM UTC'
p1050
sg6
S'Saboteurs attack Egypt-Israel gas pipeline: report'
p1051
sa(dp1052
g2
S'http://www.reuters.com/article/2011/02/05/idUS27572+05-Feb-2011+PRN20110205'
p1053
sg4
S'20110205\xc2\xa02:30AM UTC'
p1054
sg6
S'Following Is a Test Release'
p1055
sa(dp1056
g2
S'http://www.reuters.com/article/2011/02/05/egypt-israel-gas-idUSLDE71401720110205'
p1057
sg4
S'20110205\xc2\xa02:17AM UTC'
p1058
sg6
S'Saboteurs attack Egypt-Israel gas pipeline-TV'
p1059
sa(dp1060
g2
S'http://www.reuters.com/article/2011/02/05/us-philippines-rebels-idUSTRE7140P720110205'
p1061
sg4
S'20110205\xc2\xa02:15AM UTC'
p1062
sg6
S'Philippine Muslim rebels hope for peace deal in a year'
p1063
sa(dp1064
g2
S'http://www.reuters.com/article/2011/02/05/us-philippines-rebels-factbox-idUSTRE7140PP20110205'
p1065
sg4
S'20110205\xc2\xa02:15AM UTC'
p1066
sg6
S"Factbox: The Philippines' Moro Islamic Liberation Front"
p1067
sa(dp1068
g2
S'http://www.reuters.com/article/2011/02/05/idUST50KW1YIT20110205'
p1069
sg4
S'20110205\xc2\xa02:00AM UTC'
p1070
sg6
S'TABLE-Toami <5973.OS>-9-mth group results'
p1071
sa(dp1072
g2
S'http://www.reuters.com/article/2011/02/05/idUS26954+05-Feb-2011+PRN20110205'
p1073
sg4
S'20110205\xc2\xa02:00AM UTC'
p1074
sg6
S'Following Is a Test Release'
p1075
sa(dp1076
g2
S'http://www.reuters.com/article/2011/02/05/us-usa-palin-idUSTRE7140OV20110205'
p1077
sg4
S'20110205\xc2\xa01:46AM UTC'
p1078
sg6
S"Palin says Obama's policies have U.S. on road to ruin"
p1079
sa(dp1080
g2
S'http://www.reuters.com/article/2011/02/05/usa-palin-idUSN0510429720110205'
p1081
sg4
S'20110205\xc2\xa01:44AM UTC'
p1082
sg6
S"Palin says Obama's policies have US on road to ruin"
p1083
sa(dp1084
g2
S'http://www.reuters.com/article/2011/02/05/idUS26481+05-Feb-2011+PRN20110205'
p1085
sg4
S'20110205\xc2\xa01:30AM UTC'
p1086
sg6
S'Following Is a Test Release'
p1087
sa(dp1088
g2
S'http://www.reuters.com/article/2011/02/05/us-nfl-superbowl-preview-idUSTRE7136O320110205'
p1089
sg4
S'20110205\xc2\xa01:14AM UTC'
p1090
sg6
S'Snowy Texas offers unlikely backdrop for classic Super Bowl'
p1091
sa(dp1092
g2
S'http://www.reuters.com/article/2011/02/05/us-nba-cavaliers-idUSTRE7140LN20110205'
p1093
sg4
S'20110205\xc2\xa01:04AM UTC'
p1094
sg6
S'Cavaliers tie record for consecutive losses'
p1095
sa(dp1096
g2
S'http://www.reuters.com/article/2011/02/05/idUS25746+05-Feb-2011+PRN20110205'
p1097
sg4
S'20110205\xc2\xa01:00AM UTC'
p1098
sg6
S'Following Is a Test Release'
p1099
sa(dp1100
g2
S'http://www.reuters.com/article/2011/02/05/us-nba-celtics-idUSTRE7140K420110205'
p1101
sg4
S'20110205\xc2\xa012:45AM UTC'
p1102
sg6
S'Mavericks clinch comeback win against Celtics'
p1103
sa(dp1104
g2
S'http://www.reuters.com/article/2011/02/05/us-nhl-lightning-idUSTRE7140JV20110205'
p1105
sg4
S'20110205\xc2\xa012:43AM UTC'
p1106
sg6
S"Caps beat Roloson to halt Lightning's win streak"
p1107
sa(dp1108
g2
S'http://www.reuters.com/article/2011/02/05/idUS25174+05-Feb-2011+PRN20110205'
p1109
sg4
S'20110205\xc2\xa012:38AM UTC'
p1110
sg6
S"Sports Authority, Michael Strahan and USA Football Team-Up to 'Pass the Good' with NFL Play 60 at Super Bowl XLV"
p1111
sa(dp1112
g2
S'http://www.reuters.com/article/2011/02/05/idUS24912+05-Feb-2011+PRN20110205'
p1113
sg4
S'20110205\xc2\xa012:30AM UTC'
p1114
sg6
S'Following Is a Test Release'
p1115
sa(dp1116
g2
S'http://www.reuters.com/article/2011/02/05/oracle-fin-result-idUSSGE71400820110205'
p1117
sg4
S'20110205\xc2\xa012:23AM UTC'
p1118
sg6
S'TABLE-Oracle Financial Oct-Dec net rises 24.2 pct'
p1119
sa(dp1120
g2
S'http://www.reuters.com/article/2011/02/05/toyota-incentives-idUSN0410326920110205'
p1121
sg4
S'20110205\xc2\xa012:22AM UTC'
p1122
sg6
S'Toyota exec defends higher incentive levels in US'
p1123
sa(dp1124
g2
S'http://www.reuters.com/article/2011/02/05/idUS23840+05-Feb-2011+PRN20110205'
p1125
sg4
S'20110205\xc2\xa012:01AM UTC'
p1126
sg6
S'U.S. Census Bureau Daily Feature for February 5'
p1127
sa(dp1128
g2
S'http://www.reuters.com/article/2011/02/05/idUS23834+05-Feb-2011+PRN20110205'
p1129
sg4
S'20110205\xc2\xa012:01AM UTC'
p1130
sg6
S'U.S. Census Bureau Black History Month Feature for February 5'
p1131
sa(dp1132
g2
S'http://www.reuters.com/article/2011/02/05/idUS23799+05-Feb-2011+PRN20110205'
p1133
sg4
S'20110205\xc2\xa012:00AM UTC'
p1134
sg6
S'Following Is a Test Release'
p1135
sa(dp1136
g2
S'http://www.reuters.com/news/video/videoStory?storyID=15922014'
p1137
sg4
S'20110205\xc2\xa06:44PM UTC'
p1138
sg6
S'Tunisia tourism suffers'
p1139
sa(dp1140
g2
S'http://www.reuters.com/news/video/videoStory?storyID=15921317'
p1141
sg4
S'20110205\xc2\xa05:56PM UTC'
p1142
sg6
S'Anti-Berlusconi protest in Milan'
p1143
sa(dp1144
g2
S'http://www.reuters.com/news/video/videoStory?storyID=15920394'
p1145
sg4
S'20110205\xc2\xa03:57PM UTC'
p1146
sg6
S'U.S. envoy backs Mubarak'
p1147
sa(dp1148
g2
S'http://www.reuters.com/news/video/videoStory?storyID=15919530'
p1149
sg4
S'20110205\xc2\xa02:52PM UTC'
p1150
sg6
S"Hikers' lawyer denied access"
p1151
sa(dp1152
g2
S'http://www.reuters.com/news/video/videoStory?storyID=15919366'
p1153
sg4
S'20110205\xc2\xa02:45PM UTC'
p1154
sg6
S'Tibetans say China targetting Karmapa Lama'
p1155
sa(dp1156
g2
S'http://www.reuters.com/news/video/videoStory?storyID=15918822'
p1157
sg4
S'20110205\xc2\xa02:09PM UTC'
p1158
sg6
S'Anti-war protest in Munich'
p1159
sa(dp1160
g2
S'http://www.reuters.com/news/video/videoStory?storyID=15918302'
p1161
sg4
S'20110205\xc2\xa01:34PM UTC'
p1162
sg6
S"Egypt's ruling party heads resign"
p1163
sa(dp1164
g2
S'http://www.reuters.com/news/video/videoStory?storyID=15917225'
p1165
sg4
S'20110205\xc2\xa012:14PM UTC'
p1166
sg6
S'Anti-Mubarak protest in Paris'
p1167
sa(dp1168
g2
S'http://www.reuters.com/news/video/videoStory?storyID=15917082'
p1169
sg4
S'20110205\xc2\xa011:49AM UTC'
p1170
sg6
S"Australia's freak weather."
p1171
sa(dp1172
g2
S'http://www.reuters.com/news/video/videoStory?storyID=15916496'
p1173
sg4
S'20110205\xc2\xa011:02AM UTC'
p1174
sg6
S'Clinton pushes swift action'
p1175
sa(dp1176
g2
S'http://www.reuters.com/news/video/videoStory?storyID=15915613'
p1177
sg4
S'20110205\xc2\xa010:24AM UTC'
p1178
sg6
S'Falling ice mars Super Bowl preps'
p1179
sa(dp1180
g2
S'http://www.reuters.com/news/video/videoStory?storyID=15914729'
p1181
sg4
S'20110205\xc2\xa09:04AM UTC'
p1182
sg6
S'Sinai pipeline blows up'
p1183
sa(dp1184
g2
S'http://www.reuters.com/news/video/videoStory?storyID=15911590'
p1185
sg4
S'20110205\xc2\xa05:04AM UTC'
p1186
sg6
S'Cairo demos continue for 12th day'
p1187
sa(dp1188
g2
S'http://www.reuters.com/news/video/videoStory?storyID=15910718'
p1189
sg4
S'20110205\xc2\xa03:08AM UTC'
p1190
sg6
S'Clashes along Thai Cambodian border'
p1191
sa.