(lp0
(dp1
S'href'
p2
S'http://www.reuters.com/article/2011/04/03/us-china-dairy-idUSTRE7320DD20110403'
p3
sS'ts'
p4
S'20110402\xc2\xa011:47PM UTC'
p5
sS'title'
p6
S'China halts nearly half dairy producers in quality crackdown'
p7
sa(dp8
g2
S'http://www.reuters.com/article/2011/04/03/china-dairy-idUSL3E7F300Z20110403'
p9
sg4
S'20110402\xc2\xa011:46PM UTC'
p10
sg6
S'China halts nearly half dairy producers in quality crackdown'
p11
sa(dp12
g2
S'http://www.reuters.com/article/2011/04/03/idUS14548+03-Apr-2011+PRN20110403'
p13
sg4
S'20110402\xc2\xa011:30PM UTC'
p14
sg6
S'Following Is a Test Release'
p15
sa(dp16
g2
S'http://www.reuters.com/article/2011/04/03/us-japan-survivors-idUSTRE7320BZ20110403'
p17
sg4
S'20110402\xc2\xa011:21PM UTC'
p18
sg6
S'Japan tsunami survivor tells her harrowing tale'
p19
sa(dp20
g2
S'http://www.reuters.com/article/2011/04/03/japan-survivors-idUSL3E7F300G20110403'
p21
sg4
S'20110402\xc2\xa011:19PM UTC'
p22
sg6
S'Just inches from death. Japan tsunami survivor tells her harrowing tale'
p23
sa(dp24
g2
S'http://www.reuters.com/article/2011/04/03/us-golf-lpga-idUSTRE73201620110403'
p25
sg4
S'20110402\xc2\xa011:11PM UTC'
p26
sg6
S'Holder Tseng assumes command at Mission Hills'
p27
sa(dp28
g2
S'http://www.reuters.com/article/2011/04/03/us-golf-lpga-creamer-interview-idUSTRE7320BJ20110403'
p29
sg4
S'20110402\xc2\xa011:11PM UTC'
p30
sg6
S'Major targets loom for fit-again Pink Panther'
p31
sa(dp32
g2
S'http://www.reuters.com/article/2011/04/03/idUS13968+03-Apr-2011+PRN20110403'
p33
sg4
S'20110402\xc2\xa011:05PM UTC'
p34
sg6
S"ADL Statement on Richard Goldstone's Retraction of Goldstone Report"
p35
sa(dp36
g2
S'http://www.reuters.com/article/2011/04/03/idUS13831+03-Apr-2011+PRN20110403'
p37
sg4
S'20110402\xc2\xa011:00PM UTC'
p38
sg6
S'Following Is a Test Release'
p39
sa(dp40
g2
S'http://www.reuters.com/article/2011/04/03/idUS13303+03-Apr-2011+PRN20110403'
p41
sg4
S'20110402\xc2\xa010:30PM UTC'
p42
sg6
S'Following Is a Test Release'
p43
sa(dp44
g2
S'http://www.reuters.com/article/2011/04/03/idUS13287+03-Apr-2011+PRN20110403'
p45
sg4
S'20110402\xc2\xa010:29PM UTC'
p46
sg6
S"Johnny Depp, Justin Bieber, Selena Gomez, iCarly, The Black Eyed Peas, Miley Cyrus, Jennette McCurdy, SpongeBob SquarePants, Eddie Murphy, Despicable Me, Shaquille O'Neal and More Win Coveted Orange Blimps at Nickelodeon's 2"
p47
sa(dp48
g2
S'http://www.reuters.com/article/2011/04/03/us-usa-election-obama-idUSTRE7312G620110403'
p49
sg4
S'20110402\xc2\xa010:25PM UTC'
p50
sg6
S'Obama likely to announce re-election bid next week'
p51
sa(dp52
g2
S'http://www.reuters.com/article/2011/04/03/us-finearts-newyork-teddybear-idUSTRE73207P20110403'
p53
sg4
S'20110402\xc2\xa010:17PM UTC'
p54
sg6
S'Giant yellow teddy bear to brighten New York City'
p55
sa(dp56
g2
S'http://www.reuters.com/article/2011/04/03/television-kidschoice-idUSN0218084620110403'
p57
sg4
S'20110402\xc2\xa010:11PM UTC'
p58
sg6
S"Green slime rules Kids' Choice Awards"
p59
sa(dp60
g2
S'http://www.reuters.com/article/2011/04/03/us-japan-chernobyl-jumper-idUSTRE73206D20110403'
p61
sg4
S'20110402\xc2\xa010:10PM UTC'
p62
sg6
S'Six times to hell and back in Chernobyl, says nuclear "jumper"'
p63
sa(dp64
g2
S'http://www.reuters.com/article/2011/04/03/japan-chernobyl-jumper-idUSL3E7F206D20110403'
p65
sg4
S'20110402\xc2\xa010:06PM UTC'
p66
sg6
S'Six times to hell and back in Chernobyl, says nuclear "jumper" '
p67
sa(dp68
g2
S'http://www.reuters.com/article/2011/04/03/idUS12603+03-Apr-2011+PRN20110403'
p69
sg4
S'20110402\xc2\xa010:00PM UTC'
p70
sg6
S'Following Is a Test Release'
p71
sa(dp72
g2
S'http://www.reuters.com/article/2011/04/03/japan-farmers-idUSL3E7F203R20110403'
p73
sg4
S'20110402\xc2\xa09:57PM UTC'
p74
sg6
S"Radiation worries hit Japan's farmers hard"
p75
sa(dp76
g2
S'http://www.reuters.com/article/2011/04/03/us-japan-farmers-idUSTRE73205920110403'
p77
sg4
S'20110402\xc2\xa09:46PM UTC'
p78
sg6
S"Radiation worries hit Japan's farmers hard"
p79
sa(dp80
g2
S'http://www.reuters.com/article/2011/04/03/idUS12216+03-Apr-2011+PRN20110403'
p81
sg4
S'20110402\xc2\xa09:43PM UTC'
p82
sg6
S"NCAA\xc2\xae Coaches Face Off at LG Coaches' Cook-Off\xe2\x84\xa2 During Final Four\xc2\xae Weekend"
p83
sa(dp84
g2
S'http://www.reuters.com/article/2011/04/03/idUS382131670220110403'
p85
sg4
S'20110402\xc2\xa09:39PM UTC'
p86
sg6
S'Top Gear producer says Tesla\xe2\x80\x99s libel suit is bogus'
p87
sa(dp88
g2
S'http://www.reuters.com/article/2011/04/03/idUS11884+03-Apr-2011+PRN20110403'
p89
sg4
S'20110402\xc2\xa09:30PM UTC'
p90
sg6
S'Following Is a Test Release'
p91
sa(dp92
g2
S'http://www.reuters.com/article/2011/04/03/libya-misrata-shelling-idUSLDE73200320110403'
p93
sg4
S'20110402\xc2\xa09:11PM UTC'
p94
sg6
S'At least one killed in Misrata shelling - resident'
p95
sa(dp96
g2
S'http://www.reuters.com/article/2011/04/03/idUS11235+03-Apr-2011+PRN20110403'
p97
sg4
S'20110402\xc2\xa09:00PM UTC'
p98
sg6
S'Following Is a Test Release'
p99
sa(dp100
g2
S'http://www.reuters.com/article/2011/04/03/us-afghanistan-violence-un-obama-idUSTRE7312MI20110403'
p101
sg4
S'20110402\xc2\xa08:57PM UTC'
p102
sg6
S'Obama calls killings in Afghanistan outrageous'
p103
sa(dp104
g2
S'http://www.reuters.com/article/2011/04/03/idUS360806503720110403'
p105
sg4
S'20110402\xc2\xa08:54PM UTC'
p106
sg6
S'Did political contributors snag stimulus funds for cleantech companies?'
p107
sa(dp108
g2
S'http://www.reuters.com/article/2011/04/03/us-penelopecruz-idUSTRE7307ZQ20110403'
p109
sg4
S'20110402\xc2\xa08:43PM UTC'
p110
sg6
S'Penelope Cruz gets star on Hollywood Blvd'
p111
sa(dp112
g2
S'http://www.reuters.com/article/2011/04/03/us-afghanistan-violence-kabul-idUSTRE7310FK20110403'
p113
sg4
S'20110402\xc2\xa08:40PM UTC'
p114
sg6
S'Ten dead on second day of Afghan Koran burning protests'
p115
sa(dp116
g2
S'http://www.reuters.com/article/2011/04/03/idUS10612+03-Apr-2011+PRN20110403'
p117
sg4
S'20110402\xc2\xa08:32PM UTC'
p118
sg6
S'Volcano Announces Its Presence at American College of Cardiology 2011 (ACC.11)'
p119
sa(dp120
g2
S'http://www.reuters.com/article/2011/04/03/idUS10572+03-Apr-2011+PRN20110403'
p121
sg4
S'20110402\xc2\xa08:30PM UTC'
p122
sg6
S'Following Is a Test Release'
p123
sa(dp124
g2
S'http://www.reuters.com/article/2011/04/03/idUS10463+03-Apr-2011+MW20110403'
p125
sg4
S'20110402\xc2\xa08:24PM UTC'
p126
sg6
S" Atwater Cup Woman's International WISPA Pro Squash Tournament Announces Natalie Grinham as Winner"
p127
sa(dp128
g2
S'http://www.reuters.com/article/2011/04/03/us-syria-protests-hamas-idUSTRE73200N20110403'
p129
sg4
S'20110402\xc2\xa08:14PM UTC'
p130
sg6
S'Hamas toes Syrian line on anti-Assad protests'
p131
sa(dp132
g2
S'http://www.reuters.com/article/2011/04/03/idUS10221+03-Apr-2011+MW20110403'
p133
sg4
S'20110402\xc2\xa08:12PM UTC'
p134
sg6
S' Teck Announces Memorandum of Settlement Reached at its Elkview Operation'
p135
sa(dp136
g2
S'http://www.reuters.com/article/2011/04/03/idUS10017+03-Apr-2011+PRN20110403'
p137
sg4
S'20110402\xc2\xa08:00PM UTC'
p138
sg6
S'Following Is a Test Release'
p139
sa(dp140
g2
S'http://www.reuters.com/article/2011/04/02/us-penelopecruz-idUSTRE7307ZQ20110402'
p141
sg4
S'20110402\xc2\xa07:58PM UTC'
p142
sg6
S'Corrected: Penelope Cruz gets star on Hollywood Blvd'
p143
sa(dp144
g2
S'http://www.reuters.com/article/2011/04/02/us-ivorycoast-idUSTRE73014Z20110402'
p145
sg4
S'20110402\xc2\xa07:45PM UTC'
p146
sg6
S'Fighting rages in Ivory Coast, 800 dead in west'
p147
sa(dp148
g2
S'http://www.reuters.com/article/2011/04/02/us-heart-muscle-idUSTRE7312OF20110402'
p149
sg4
S'20110402\xc2\xa07:44PM UTC'
p150
sg6
S'Exercise preserves, builds heart muscle'
p151
sa(dp152
g2
S'http://www.reuters.com/article/2011/04/02/us-afghanistan-violence-un-obama-idUSTRE7312MI20110402'
p153
sg4
S'20110402\xc2\xa07:41PM UTC'
p154
sg6
S'Obama calls killings in Afghanistan outrageous'
p155
sa(dp156
g2
S'http://www.reuters.com/article/2011/04/02/us-usa-election-obama-idUSTRE7312G620110402'
p157
sg4
S'20110402\xc2\xa07:31PM UTC'
p158
sg6
S'Obama likely to announce re-election bid next week'
p159
sa(dp160
g2
S'http://www.reuters.com/article/2011/04/02/idUS57652+02-Apr-2011+PRN20110402'
p161
sg4
S'20110402\xc2\xa07:30PM UTC'
p162
sg6
S'Following Is a Test Release'
p163
sa(dp164
g2
S'http://www.reuters.com/article/2011/04/02/afghanistan-violence-un-obama-idUSN0214798220110402'
p165
sg4
S'20110402\xc2\xa07:20PM UTC'
p166
sg6
S'Obama calls killings in Afghanistan outrageous'
p167
sa(dp168
g2
S'http://www.reuters.com/article/2011/04/02/us-syria-idUSTRE72N2MC20110402'
p169
sg4
S'20110402\xc2\xa07:19PM UTC'
p170
sg6
S'Syrians chant "freedom," receive wounded in suburb'
p171
sa(dp172
g2
S'http://www.reuters.com/article/2011/04/02/us-brazil-qaeda-idUSTRE7312LJ20110402'
p173
sg4
S'20110402\xc2\xa07:16PM UTC'
p174
sg6
S'Al Qaeda members hide in Brazil, raise money: report'
p175
sa(dp176
g2
S'http://www.reuters.com/article/2011/04/02/idUS57030+02-Apr-2011+BW20110402'
p177
sg4
S'20110402\xc2\xa07:04PM UTC'
p178
sg6
S'Walgreens Reports Unauthorized Access of Email Addresses at Third Party Provider'
p179
sa(dp180
g2
S'http://www.reuters.com/article/2011/04/02/idUS56970+02-Apr-2011+BW20110402'
p181
sg4
S'20110402\xc2\xa07:01PM UTC'
p182
sg6
S'Stueve Siegel Hanson Files Lawsuit Against Experian Subsidiary, Consumerinfo.com for Fraudulently Misrepresenting its Credit Scores'
p183
sa(dp184
g2
S'http://www.reuters.com/article/2011/04/02/idUS56926+02-Apr-2011+PRN20110402'
p185
sg4
S'20110402\xc2\xa07:00PM UTC'
p186
sg6
S'Following Is a Test Release'
p187
sa(dp188
g2
S'http://www.reuters.com/article/2011/04/02/us-greece-imf-debt-idUSTRE73119920110402'
p189
sg4
S'20110402\xc2\xa06:59PM UTC'
p190
sg6
S'IMF denies pressing Greece to restructure debt'
p191
sa(dp192
g2
S'http://www.reuters.com/article/2011/04/02/us-japan-quake-idUSTRE72A0SS20110402'
p193
sg4
S'20110402\xc2\xa06:57PM UTC'
p194
sg6
S'Japan nuclear struggle focuses on cracked reactor pit'
p195
sa(dp196
g2
S'http://www.reuters.com/article/2011/04/02/us-cablevision-ipad-idUSTRE7312IR20110402'
p197
sg4
S'20110402\xc2\xa06:52PM UTC'
p198
sg6
S'Cablevision launches iPad app to watch TV at home'
p199
sa(dp200
g2
S'http://www.reuters.com/article/2011/04/02/us-usa-budget-obama-idUSTRE7305A520110402'
p201
sg4
S'20110402\xc2\xa06:49PM UTC'
p202
sg6
S'Obama urges lawmakers to avoid government shutdown'
p203
sa(dp204
g2
S'http://www.reuters.com/article/2011/04/02/cablevision-ipad-idUSN0215767420110402'
p205
sg4
S'20110402\xc2\xa06:48PM UTC'
p206
sg6
S'Cablevision launches iPad app to watch TV at home'
p207
sa(dp208
g2
S'http://www.reuters.com/article/2011/04/02/idUS56506+02-Apr-2011+BW20110402'
p209
sg4
S'20110402\xc2\xa06:45PM UTC'
p210
sg6
S'GRE Prep Book Merges With Dranb to Help Students Prepare for the GRE Test'
p211
sa(dp212
g2
S'http://www.reuters.com/article/2011/04/02/us-irish-bomb-idUSTRE7311X520110402'
p213
sg4
S'20110402\xc2\xa06:44PM UTC'
p214
sg6
S'Car bomb kills policeman in Northern Ireland'
p215
sa(dp216
g2
S'http://www.reuters.com/article/2011/04/02/us-nhl-bluejackets-hejda-idUSTRE7311TB20110402'
p217
sg4
S'20110402\xc2\xa06:43PM UTC'
p218
sg6
S"Blue Jackets' Hejda gets two-game ban for hit to head"
p219
sa(dp220
g2
S'http://www.reuters.com/article/2011/04/02/us-golf-pga-idUSTRE73104E20110402'
p221
sg4
S'20110402\xc2\xa06:41PM UTC'
p222
sg6
S'Charging Mickelson in tie for lead in Houston'
p223
sa(dp224
g2
S'http://www.reuters.com/article/2011/04/02/idUS56350+02-Apr-2011+PRN20110402'
p225
sg4
S'20110402\xc2\xa06:39PM UTC'
p226
sg6
S'AJC Calls on Judge Goldstone to Correct Disgraceful UN Report on Israel'
p227
sa(dp228
g2
S'http://www.reuters.com/article/2011/04/02/airlines-southwest-idUSN0214576520110402'
p229
sg4
S'20110402\xc2\xa06:31PM UTC'
p230
sg6
S'UPDATE 2-Southwest may cancel another 300 flights Sunday'
p231
sa(dp232
g2
S'http://www.reuters.com/article/2011/04/02/idUS56199+02-Apr-2011+PRN20110402'
p233
sg4
S'20110402\xc2\xa06:30PM UTC'
p234
sg6
S'Following Is a Test Release'
p235
sa(dp236
g2
S'http://www.reuters.com/article/2011/04/02/us-heart-antidepressants-idUSTRE7312FR20110402'
p237
sg4
S'20110402\xc2\xa06:19PM UTC'
p238
sg6
S'Antidepressants linked to heart risk: twins study'
p239
sa(dp240
g2
S'http://www.reuters.com/article/2011/04/02/us-afghanistan-violence-un-idUSTRE7311WP20110402'
p241
sg4
S'20110402\xc2\xa06:15PM UTC'
p242
sg6
S'Ten dead on second day of Afghan Koran burning protests'
p243
sa(dp244
g2
S'http://www.reuters.com/article/2011/04/02/heart-antidepressants-idUSN0217004020110402'
p245
sg4
S'20110402\xc2\xa06:10PM UTC'
p246
sg6
S'Antidepressants linked to heart risk -twins study'
p247
sa(dp248
g2
S'http://www.reuters.com/article/2011/04/02/us-airlines-southwest-idUSTRE7311BW20110402'
p249
sg4
S'20110402\xc2\xa06:07PM UTC'
p250
sg6
S'Southwest may cancel another 300 flights Sunday'
p251
sa(dp252
g2
S'http://www.reuters.com/article/2011/04/02/idUS55592+02-Apr-2011+PRN20110402'
p253
sg4
S'20110402\xc2\xa06:00PM UTC'
p254
sg6
S'Following Is a Test Release'
p255
sa(dp256
g2
S'http://www.reuters.com/article/2011/04/02/idUS55377+02-Apr-2011+PRN20110402'
p257
sg4
S'20110402\xc2\xa05:48PM UTC'
p258
sg6
S'Gulfstream Confirms Crash of G650 Flight-Test Aircraft'
p259
sa(dp260
g2
S'http://www.reuters.com/article/2011/04/02/us-cricket-world-idUSTRE7312CU20110402'
p261
sg4
S'20110402\xc2\xa05:39PM UTC'
p262
sg6
S'India cricketers complete epic journey in exultant Mumbai'
p263
sa(dp264
g2
S'http://www.reuters.com/article/2011/04/02/us-kazakhstan-election-idUSTRE7312CK20110402'
p265
sg4
S'20110402\xc2\xa05:35PM UTC'
p266
sg6
S'Kazakh leader to tighten grip in early election'
p267
sa(dp268
g2
S'http://www.reuters.com/article/2011/04/02/idUS54975+02-Apr-2011+PRN20110402'
p269
sg4
S'20110402\xc2\xa05:30PM UTC'
p270
sg6
S'Following Is a Test Release'
p271
sa(dp272
g2
S'http://www.reuters.com/article/2011/04/02/idUS54848+02-Apr-2011+PRN20110402'
p273
sg4
S'20110402\xc2\xa05:24PM UTC'
p274
sg6
S"3 Times in 3 years Southwest Airlines Has Gaping Hole in Fuselage: 3 Strikes and You're Out!"
p275
sa(dp276
g2
S'http://www.reuters.com/article/2011/04/02/us-gabon-oil-idUSTRE7312CE20110402'
p277
sg4
S'20110402\xc2\xa05:22PM UTC'
p278
sg6
S'Strike halts all Gabon crude oil output - union'
p279
sa(dp280
g2
S'http://www.reuters.com/article/2011/04/02/gabon-oil-idUSLDE7310FW20110402'
p281
sg4
S'20110402\xc2\xa05:17PM UTC'
p282
sg6
S'Strike halts all Gabon crude oil output - union'
p283
sa(dp284
g2
S'http://www.reuters.com/article/2011/04/02/usa-budget-obama-idUSN0214831320110402'
p285
sg4
S'20110402\xc2\xa05:05PM UTC'
p286
sg6
S'UPDATE 1-Obama urges lawmakers to avoid government shutdown'
p287
sa(dp288
g2
S'http://www.reuters.com/article/2011/04/02/us-heart-yoga-idUSTRE7312AP20110402'
p289
sg4
S'20110402\xc2\xa05:03PM UTC'
p290
sg6
S'Yoga halves irregular-heartbeat episodes: study'
p291
sa(dp292
g2
S'http://www.reuters.com/article/2011/04/02/us-barbour-idUSTRE7312AL20110402'
p293
sg4
S'20110402\xc2\xa05:02PM UTC'
p294
sg6
S'Haley Barbour\'s wife says White House run "horrifies me"'
p295
sa(dp296
g2
S'http://www.reuters.com/article/2011/04/02/heart-yoga-idUSN0214416020110402'
p297
sg4
S'20110402\xc2\xa05:00PM UTC'
p298
sg6
S'Yoga halves irregular-heartbeat episodes -US study'
p299
sa(dp300
g2
S'http://www.reuters.com/article/2011/04/02/us-iran-kurdistan-attack-idUSTRE7312A120110402'
p301
sg4
S'20110402\xc2\xa05:00PM UTC'
p302
sg6
S'Four Iranian police killed in border attack: report'
p303
sa(dp304
g2
S'http://www.reuters.com/article/2011/04/02/idUS54275+02-Apr-2011+PRN20110402'
p305
sg4
S'20110402\xc2\xa05:00PM UTC'
p306
sg6
S'Following Is a Test Release'
p307
sa(dp308
g2
S'http://www.reuters.com/article/2011/04/02/us-greece-cenbanker-idUSTRE73129R20110402'
p309
sg4
S'20110402\xc2\xa04:59PM UTC'
p310
sg6
S'Greece must boost competitiveness to grow: central banker'
p311
sa(dp312
g2
S'http://www.reuters.com/article/2011/04/02/greece-cenbanker-idUSLDE7310F220110402'
p313
sg4
S'20110402\xc2\xa04:54PM UTC'
p314
sg6
S'Greece must boost competitiveness to grow -cenbanker'
p315
sa(dp316
g2
S'http://www.reuters.com/article/2011/04/02/us-libya-idUSTRE7270JP20110402'
p317
sg4
S'20110402\xc2\xa04:49PM UTC'
p318
sg6
S'Coalition "friendly fire" kills 13 Libyan rebels'
p319
sa(dp320
g2
S'http://www.reuters.com/article/2011/04/02/us-tennis-women-miami-idUSTRE7311WC20110402'
p321
sg4
S'20110402\xc2\xa04:41PM UTC'
p322
sg6
S'Azarenka beats Sharapova to win Miami title'
p323
sa(dp324
g2
S'http://www.reuters.com/article/2011/04/02/us-israel-un-gaza-idUSTRE73126T20110402'
p325
sg4
S'20110402\xc2\xa04:37PM UTC'
p326
sg6
S'Israel urges U.N. to cancel Gaza war crimes report'
p327
sa(dp328
g2
S'http://www.reuters.com/article/2011/04/02/us-libya-misrata-idUSTRE73125Y20110402'
p329
sg4
S'20110402\xc2\xa04:33PM UTC'
p330
sg6
S'Hundreds killed in besieged Libyan city: doctor'
p331
sa(dp332
g2
S'http://www.reuters.com/article/2011/04/02/idUS53471+02-Apr-2011+PRN20110402'
p333
sg4
S'20110402\xc2\xa04:30PM UTC'
p334
sg6
S'Following Is a Test Release'
p335
sa(dp336
g2
S'http://www.reuters.com/article/2011/04/02/us-obama-radio-idUSTRE73123J20110402'
p337
sg4
S'20110402\xc2\xa04:21PM UTC'
p338
sg6
S'Obama pushes for oil use reduction, clean fuel technology'
p339
sa(dp340
g2
S'http://www.reuters.com/article/2011/04/02/libya-idUSLDE73026120110402'
p341
sg4
S'20110402\xc2\xa04:18PM UTC'
p342
sg6
S'WRAPUP 6-Coalition "fiendly fire" kills 13 Libyan rebels'
p343
sa(dp344
g2
S'http://www.reuters.com/article/2011/04/02/usa-budget-obama-idUSN0226320320110402'
p345
sg4
S'20110402\xc2\xa04:05PM UTC'
p346
sg6
S'Obama urges lawmakers to avoid government shutdown'
p347
sa(dp348
g2
S'http://www.reuters.com/article/2011/04/02/idUS52768+02-Apr-2011+PRN20110402'
p349
sg4
S'20110402\xc2\xa04:00PM UTC'
p350
sg6
S'Following Is a Test Release'
p351
sa(dp352
g2
S'http://www.reuters.com/article/2011/04/02/us-emirates-pirates-idUSTRE7311M820110402'
p353
sg4
S'20110402\xc2\xa03:39PM UTC'
p354
sg6
S'UAE forces storm hijacked ship, detain pirates'
p355
sa(dp356
g2
S'http://www.reuters.com/article/2011/04/02/us-usa-fed-paul-idUSTRE73120B20110402'
p357
sg4
S'20110402\xc2\xa03:37PM UTC'
p358
sg6
S'Rep. Paul planning hearing on Fed foreign lending'
p359
sa(dp360
g2
S'http://www.reuters.com/article/2011/04/02/usa-fed-paul-idUSN0215973020110402'
p361
sg4
S'20110402\xc2\xa03:36PM UTC'
p362
sg6
S'UPDATE 1-Rep. Paul planning hearing on Fed foreign lending'
p363
sa(dp364
g2
S'http://www.reuters.com/article/2011/04/02/idUS51755+02-Apr-2011+PRN20110402'
p365
sg4
S'20110402\xc2\xa03:30PM UTC'
p366
sg6
S'Following Is a Test Release'
p367
sa(dp368
g2
S'http://www.reuters.com/article/2011/04/02/us-yemen-idUSTRE7310ON20110402'
p369
sg4
S'20110402\xc2\xa03:30PM UTC'
p370
sg6
S'Yemen opposition transition plan awaits Saleh answer'
p371
sa(dp372
g2
S'http://www.reuters.com/article/2011/04/02/agility-results-idUSLDE6B804T20110402'
p373
sg4
S'20110402\xc2\xa03:29PM UTC'
p374
sg6
S"Kuwait's Agility in $88 mln Q4 loss, misses forecast"
p375
sa(dp376
g2
S'http://www.reuters.com/article/2011/04/02/us-libya-commerce-idUSTRE7311ZR20110402'
p377
sg4
S'20110402\xc2\xa03:19PM UTC'
p378
sg6
S'Fear of war still weighs on Benghazi commerce'
p379
sa(dp380
g2
S'http://www.reuters.com/article/2011/04/02/usa-fed-paul-idUSN0214517620110402'
p381
sg4
S'20110402\xc2\xa03:08PM UTC'
p382
sg6
S'Rep. Paul planning hearing on Fed foreign lending'
p383
sa(dp384
g2
S'http://www.reuters.com/article/2011/04/02/libya-commerce-idUSLDE7310EU20110402'
p385
sg4
S'20110402\xc2\xa03:08PM UTC'
p386
sg6
S'Fear of war still weighs on Benghazi commerce'
p387
sa(dp388
g2
S'http://www.reuters.com/article/2011/04/02/us-libya-rebels-idUSTRE7311Z120110402'
p389
sg4
S'20110402\xc2\xa03:07PM UTC'
p390
sg6
S'Libyan rebels name team to run areas they control'
p391
sa(dp392
g2
S'http://www.reuters.com/article/2011/04/02/us-census-town-idUSTRE7311Y620110402'
p393
sg4
S'20110402\xc2\xa03:00PM UTC'
p394
sg6
S'Nebraska woman is mayor and only resident, of rural town'
p395
sa(dp396
g2
S'http://www.reuters.com/article/2011/04/02/idUS50721+02-Apr-2011+MW20110402'
p397
sg4
S'20110402\xc2\xa03:00PM UTC'
p398
sg6
S' Epsilon Notifies TiVo of an Email Database Breach'
p399
sa(dp400
g2
S'http://www.reuters.com/article/2011/04/02/idUS50712+02-Apr-2011+PRN20110402'
p401
sg4
S'20110402\xc2\xa03:00PM UTC'
p402
sg6
S'Following Is a Test Release'
p403
sa(dp404
g2
S'http://www.reuters.com/article/2011/04/02/libya-rebels-idUSLDE7310EC20110402'
p405
sg4
S'20110402\xc2\xa02:54PM UTC'
p406
sg6
S'Libyan rebels name team to run areas they control'
p407
sa(dp408
g2
S'http://www.reuters.com/article/2011/04/02/us-afghanistan-violence-kabul-idUSTRE7310FK20110402'
p409
sg4
S'20110402\xc2\xa02:47PM UTC'
p410
sg6
S'Ten dead in Afghan Koran burning protests'
p411
sa(dp412
g2
S'http://www.reuters.com/article/2011/04/02/us-nigeria-elections-idUSTRE7310K420110402'
p413
sg4
S'20110402\xc2\xa02:31PM UTC'
p414
sg6
S'Nigerian vote aborted after ballot paper chaos'
p415
sa(dp416
g2
S'http://www.reuters.com/article/2011/04/02/idUS49514+02-Apr-2011+PRN20110402'
p417
sg4
S'20110402\xc2\xa02:30PM UTC'
p418
sg6
S'Foresters, KaBOOM! & Volunteers Encourage Quality Family Time by Building New Playground for West Atlanta Children'
p419
sa(dp420
g2
S'http://www.reuters.com/article/2011/04/02/idUS49492+02-Apr-2011+PRN20110402'
p421
sg4
S'20110402\xc2\xa02:30PM UTC'
p422
sg6
S'Following Is a Test Release'
p423
sa(dp424
g2
S'http://www.reuters.com/article/2011/04/02/us-cocoa-supply-conference-idUSTRE7311RE20110402'
p425
sg4
S'20110402\xc2\xa02:07PM UTC'
p426
sg6
S'Supply woes, high prices changing chocolate treats'
p427
sa(dp428
g2
S'http://www.reuters.com/article/2011/04/02/us-berkshirehathaway-citigroup-idUSTRE7311SN20110402'
p429
sg4
S'20110402\xc2\xa02:05PM UTC'
p430
sg6
S'Citi bankers "shocked" at Sokol Lubrizol shares: report'
p431
sa(dp432
g2
S'http://www.reuters.com/article/2011/04/02/berkshirehathaway-citigroup-idUSN0218231820110402'
p433
sg4
S'20110402\xc2\xa02:00PM UTC'
p434
sg6
S"Citi bankers 'shocked' at Sokol Lubrizol shares -WSJ"
p435
sa(dp436
g2
S'http://www.reuters.com/article/2011/04/02/us-usa-subprime-idUSTRE7311PV20110402'
p437
sg4
S'20110402\xc2\xa02:00PM UTC'
p438
sg6
S'Senate report on subprime mess due soon: report'
p439
sa(dp440
g2
S'http://www.reuters.com/article/2011/04/02/idUS48575+02-Apr-2011+PRN20110402'
p441
sg4
S'20110402\xc2\xa02:00PM UTC'
p442
sg6
S'Following Is a Test Release'
p443
sa(dp444
g2
S'http://www.reuters.com/article/2011/04/02/idUS48572+02-Apr-2011+PRN20110402'
p445
sg4
S'20110402\xc2\xa02:00PM UTC'
p446
sg6
S'Optimer Pharmaceuticals Announces Presentation at SHEA of Data Highlighting the Burden of Clostridium difficile Infection (CDI) in Hospital Patients'
p447
sa(dp448
g2
S'http://www.reuters.com/article/2011/04/02/soccer-spain-mourinho-record-idUSLDE7310DR20110402'
p449
sg4
S'20110402\xc2\xa01:55PM UTC'
p450
sg6
S"Soccer-Mourinho's unbeaten home league record ends as Real lose"
p451
sa(dp452
g2
S'http://www.reuters.com/article/2011/04/02/idUS48359+02-Apr-2011+PRN20110402'
p453
sg4
S'20110402\xc2\xa01:53PM UTC'
p454
sg6
S'NAA Says Autism Awareness Month Points out Need for Better Treatments, Research and Services'
p455
sa(dp456
g2
S'http://www.reuters.com/article/2011/04/02/idUS47846+02-Apr-2011+PRN20110402'
p457
sg4
S'20110402\xc2\xa01:40PM UTC'
p458
sg6
S'Flight Attendant Union Applauds Announcement of New TSA Alternate Screening Program'
p459
sa(dp460
g2
S'http://www.reuters.com/article/2011/04/02/us-markets-stocks-idUSTRE72K1HS20110402'
p461
sg4
S'20110402\xc2\xa01:38PM UTC'
p462
sg6
S'Wall Street gains on job growth; earnings next hurdle'
p463
sa(dp464
g2
S'http://www.reuters.com/article/2011/04/02/idUS47390+02-Apr-2011+PRN20110402'
p465
sg4
S'20110402\xc2\xa01:30PM UTC'
p466
sg6
S'Following Is a Test Release'
p467
sa(dp468
g2
S'http://www.reuters.com/article/2011/04/02/india-corruption-idUSL4E7F201J20110402'
p469
sg4
S'20110402\xc2\xa01:26PM UTC'
p470
sg6
S'UPDATE 3-Ex-minister, firms charged in huge India graft case'
p471
sa(dp472
g2
S'http://www.reuters.com/article/2011/04/02/cocoa-supply-conference-idUSN0216331120110402'
p473
sg4
S'20110402\xc2\xa01:24PM UTC'
p474
sg6
S'Supply woes, high prices changing chocolate treats'
p475
sa(dp476
g2
S'http://www.reuters.com/article/2011/04/02/cricket-world-final-winner-idUSLDE7310B620110402'
p477
sg4
S'20110402\xc2\xa01:19PM UTC'
p478
sg6
S'Cricket-India beat Sri Lanka to win World Cup'
p479
sa(dp480
g2
S'http://www.reuters.com/article/2011/04/02/irish-bomb-idUSLDE7310D520110402'
p481
sg4
S'20110402\xc2\xa01:17PM UTC'
p482
sg6
S'N Irish policeman killed by car bomb-police'
p483
sa(dp484
g2
S'http://www.reuters.com/article/2011/04/02/usa-subprime-idUSN0213117720110402'
p485
sg4
S'20110402\xc2\xa01:06PM UTC'
p486
sg6
S'US Senate report on subprime mess due soon-report'
p487
sa(dp488
g2
S'http://www.reuters.com/article/2011/04/02/us-russia-companies-idUSTRE7311O520110402'
p489
sg4
S'20110402\xc2\xa01:01PM UTC'
p490
sg6
S'Kremlin to Putin: Start state board purge by July 1'
p491
sa(dp492
g2
S'http://www.reuters.com/article/2011/04/02/idUS46265+02-Apr-2011+PRN20110402'
p493
sg4
S'20110402\xc2\xa01:00PM UTC'
p494
sg6
S'Following Is a Test Release'
p495
sa(dp496
g2
S'http://www.reuters.com/article/2011/04/02/idUS46113+02-Apr-2011+PRN20110402'
p497
sg4
S'20110402\xc2\xa012:53PM UTC'
p498
sg6
S'Huntsman Acquires Chemicals Business of Laffans Petrochemicals Ltd.'
p499
sa(dp500
g2
S'http://www.reuters.com/article/2011/04/02/idUS46056+02-Apr-2011+PRN20110402'
p501
sg4
S'20110402\xc2\xa012:52PM UTC'
p502
sg6
S"Cablevision's New Optimum App Delivers the Full Cable Television Experience to an iPad in the Home"
p503
sa(dp504
g2
S'http://www.reuters.com/article/2011/04/02/us-japan-quake-factbox-idUSTRE7300HH20110402'
p505
sg4
S'20110402\xc2\xa012:48PM UTC'
p506
sg6
S"Factbox: Japan's disaster in figures"
p507
sa(dp508
g2
S'http://www.reuters.com/article/2011/04/02/japan-quake-idUSL3E7EQ0820110402'
p509
sg4
S'20110402\xc2\xa012:40PM UTC'
p510
sg6
S"FACTBOX-Japan's disaster in figures"
p511
sa(dp512
g2
S'http://www.reuters.com/article/2011/04/02/japan-idUSSGE73101120110402'
p513
sg4
S'20110402\xc2\xa012:37PM UTC'
p514
sg6
S'WRAPUP 2-Japan nuclear struggle focuses on cracked reactor pit'
p515
sa(dp516
g2
S'http://www.reuters.com/article/2011/04/02/idUS45344+02-Apr-2011+PRN20110402'
p517
sg4
S'20110402\xc2\xa012:30PM UTC'
p518
sg6
S'Holistic Select\xc2\xae Pet Food Wants America to Root for the Underdog'
p519
sa(dp520
g2
S'http://www.reuters.com/article/2011/04/02/idUS45332+02-Apr-2011+PRN20110402'
p521
sg4
S'20110402\xc2\xa012:30PM UTC'
p522
sg6
S'Following Is a Test Release'
p523
sa(dp524
g2
S'http://www.reuters.com/article/2011/04/02/emirates-pirates-idUSLDE7310CK20110402'
p525
sg4
S'20110402\xc2\xa012:29PM UTC'
p526
sg6
S'UAE launches operation to free hijacked ship'
p527
sa(dp528
g2
S'http://www.reuters.com/article/2011/04/02/idUS45240+02-Apr-2011+BW20110402'
p529
sg4
S'20110402\xc2\xa012:27PM UTC'
p530
sg6
S'NYSE Euronext Revisar\xc3\xa1 Proposta N\xc3\xa3o Solicitada da Nasdaq OMX Group, Inc. e IntercontinentalExchange, Inc; Acionistas s\xc3\xa3o Orientados a N\xc3\xa3o Tomar Qualquer Medida Durante o Processo'
p531
sa(dp532
g2
S'http://www.reuters.com/article/2011/04/02/idUS44730+02-Apr-2011+PRN20110402'
p533
sg4
S'20110402\xc2\xa012:11PM UTC'
p534
sg6
S'Southwest Airlines Works to Minimize Customer Delays as it Inspects Aircraft'
p535
sa(dp536
g2
S'http://www.reuters.com/article/2011/04/02/unicredit-idUSLDE7310CH20110402'
p537
sg4
S'20110402\xc2\xa012:06PM UTC'
p538
sg6
S'UPDATE 1-UniCredit CEO says bank has enough capital'
p539
sa(dp540
g2
S'http://www.reuters.com/article/2011/04/02/us-egypt-hamas-idUSTRE7311KV20110402'
p541
sg4
S'20110402\xc2\xa012:01PM UTC'
p542
sg6
S"Egypt's army rulers to meet Palestinian president"
p543
sa(dp544
g2
S'http://www.reuters.com/article/2011/04/02/idUS44254+02-Apr-2011+PRN20110402'
p545
sg4
S'20110402\xc2\xa012:00PM UTC'
p546
sg6
S'Following Is a Test Release'
p547
sa(dp548
g2
S'http://www.reuters.com/article/2011/04/02/idUS44241+02-Apr-2011+BW20110402'
p549
sg4
S'20110402\xc2\xa012:00PM UTC'
p550
sg6
S"UFCW Local 135 Joins Community to Honor Anniversary of Dr. King's Death with Support for Organizing Campaign at Fresh & Easy"
p551
sa(dp552
g2
S'http://www.reuters.com/article/2011/04/02/us-food-massachusetts-idUSTRE73075020110402'
p553
sg4
S'20110402\xc2\xa011:55AM UTC'
p554
sg6
S'Massachusetts finds expired food in school cafeterias'
p555
sa(dp556
g2
S'http://www.reuters.com/article/2011/04/02/idUS43079+02-Apr-2011+BW20110402'
p557
sg4
S'20110402\xc2\xa011:31AM UTC'
p558
sg6
S'Investigational Compound PEG-Interferon Lambda Achieved Higher Response Rates with Fewer Flu-Like and Musculoskeletal Symptoms and Cytopenias Than PEG-Interferon Alfa in Phase IIb Study of 526 Treatment-Naive Hepatitis C Pat'
p559
sa(dp560
g2
S'http://www.reuters.com/article/2011/04/02/idUS43027+02-Apr-2011+PRN20110402'
p561
sg4
S'20110402\xc2\xa011:30AM UTC'
p562
sg6
S'Following Is a Test Release'
p563
sa(dp564
g2
S'http://www.reuters.com/article/2011/04/02/us-saudi-courts-idUSTRE7311HG20110402'
p565
sg4
S'20110402\xc2\xa011:23AM UTC'
p566
sg6
S'Saudi says 5,080 convicted of terrorism crimes'
p567
sa(dp568
g2
S'http://www.reuters.com/article/2011/04/02/us-jpmorgan-sec-idUSTRE7311GD20110402'
p569
sg4
S'20110402\xc2\xa011:19AM UTC'
p570
sg6
S'JPMorgan and SEC in settlement talks on CDO deal: report'
p571
sa(dp572
g2
S'http://www.reuters.com/article/2011/04/02/us-japan-mormons-idUSTRE7311G720110402'
p573
sg4
S'20110402\xc2\xa011:17AM UTC'
p574
sg6
S'Japan crisis spurs survival planning by U.S. Mormons'
p575
sa(dp576
g2
S'http://www.reuters.com/article/2011/04/02/japan-idUSL3E7F204Z20110402'
p577
sg4
S'20110402\xc2\xa011:05AM UTC'
p578
sg6
S'WRAPUP 6-Leak found in reactor pit, Japan PM tours disaster zone'
p579
sa(dp580
g2
S'http://www.reuters.com/article/2011/04/02/jpmorgan-sec-idUSN0217322420110402'
p581
sg4
S'20110402\xc2\xa011:01AM UTC'
p582
sg6
S'JPMorgan, SEC in settlement talks on CDO deal - FT'
p583
sa(dp584
g2
S'http://www.reuters.com/article/2011/04/02/idUS42004+02-Apr-2011+PRN20110402'
p585
sg4
S'20110402\xc2\xa011:00AM UTC'
p586
sg6
S'Following Is a Test Release'
p587
sa(dp588
g2
S'http://www.reuters.com/article/2011/04/02/airlines-southwest-idUSN0219045520110402'
p589
sg4
S'20110402\xc2\xa010:57AM UTC'
p590
sg6
S'REFILE-Southwest Airlines grounds 81 planes after emergency'
p591
sa(dp592
g2
S'http://www.reuters.com/article/2011/04/02/greece-imf-debt-idUSLDE73108H20110402'
p593
sg4
S'20110402\xc2\xa010:50AM UTC'
p594
sg6
S'UPDATE 2-IMF denies pressing Greece to restructure debt'
p595
sa(dp596
g2
S'http://www.reuters.com/article/2011/04/02/idUS41616+02-Apr-2011+MW20110402'
p597
sg4
S'20110402\xc2\xa010:47AM UTC'
p598
sg6
S' New "Food Shock" Report Released by OffTheGridNews.net Reveals Disturbing U.S. Food Supply Trends'
p599
sa(dp600
g2
S'http://www.reuters.com/article/2011/04/02/us-russia-companies-idUSTRE7311BL20110402'
p601
sg4
S'20110402\xc2\xa010:35AM UTC'
p602
sg6
S'Kremlin to Putin: Start state board purge by July 1'
p603
sa(dp604
g2
S'http://www.reuters.com/article/2011/04/02/us-russia-companies-factbox-idUSTRE7311BQ20110402'
p605
sg4
S'20110402\xc2\xa010:35AM UTC'
p606
sg6
S'Factbox: Russian ministers to lose state company board seats'
p607
sa(dp608
g2
S'http://www.reuters.com/article/2011/04/02/idUS41028+02-Apr-2011+PRN20110402'
p609
sg4
S'20110402\xc2\xa010:30AM UTC'
p610
sg6
S'Following Is a Test Release'
p611
sa(dp612
g2
S'http://www.reuters.com/article/2011/04/02/russia-companies-idUSLDE7310AI20110402'
p613
sg4
S'20110402\xc2\xa010:29AM UTC'
p614
sg6
S'FACTBOX-Russian ministers to lose state company board seats'
p615
sa(dp616
g2
S'http://www.reuters.com/article/2011/04/02/us-reuters-syria-idUSTRE7311AW20110402'
p617
sg4
S'20110402\xc2\xa010:22AM UTC'
p618
sg6
S'Reuters concerned for photographer held in Syria'
p619
sa(dp620
g2
S'http://www.reuters.com/article/2011/04/02/us-campus-guns-idUSTRE7311AP20110402'
p621
sg4
S'20110402\xc2\xa010:20AM UTC'
p622
sg6
S'Campus gun debate is personal at University of Texas'
p623
sa(dp624
g2
S'http://www.reuters.com/article/2011/04/02/reuters-syria-idUSLDE7310AM20110402'
p625
sg4
S'20110402\xc2\xa010:17AM UTC'
p626
sg6
S'Reuters concerned for photographer held in Syria'
p627
sa(dp628
g2
S'http://www.reuters.com/article/2011/04/02/us-imf-greece-debt-idUSTRE7311A520110402'
p629
sg4
S'20110402\xc2\xa010:16AM UTC'
p630
sg6
S'IMF denies pressing Greece to restructure debt'
p631
sa(dp632
g2
S'http://www.reuters.com/article/2011/04/02/imf-greece-debt-idUSLDE7310AS20110402'
p633
sg4
S'20110402\xc2\xa010:11AM UTC'
p634
sg6
S'IMF denies pressing Greece to restructure debt'
p635
sa(dp636
g2
S'http://www.reuters.com/article/2011/04/02/us-newyork-teddybear-idUSTRE73119Y20110402'
p637
sg4
S'20110402\xc2\xa010:09AM UTC'
p638
sg6
S'Giant yellow teddy bear to brighten New York City'
p639
sa(dp640
g2
S'http://www.reuters.com/article/2011/04/02/idUS39988+02-Apr-2011+PRN20110402'
p641
sg4
S'20110402\xc2\xa010:00AM UTC'
p642
sg6
S'Following Is a Test Release'
p643
sa(dp644
g2
S'http://www.reuters.com/article/2011/04/02/idUS39982+02-Apr-2011+PRN20110402'
p645
sg4
S'20110402\xc2\xa010:00AM UTC'
p646
sg6
S'Alpha Natural Resources and Massey Energy Company Receive Antitrust Clearance'
p647
sa(dp648
g2
S'http://www.reuters.com/article/2011/04/02/idUS39969+02-Apr-2011+BW20110402'
p649
sg4
S'20110402\xc2\xa010:00AM UTC'
p650
sg6
S'Capital One E-mail Vendor Epsilon Reports That Capital One Customer E-mail Addresses Were Accessed'
p651
sa(dp652
g2
S'http://www.reuters.com/article/2011/04/02/idUS39965+02-Apr-2011+BW20110402'
p653
sg4
S'20110402\xc2\xa010:00AM UTC'
p654
sg6
S'SteelSeries Announces Exclusive Sponsorship of Professional Gamer, Manuel "Grubby" Schenkhuizen'
p655
sa(dp656
g2
S'http://www.reuters.com/article/2011/04/02/spain-zapatero-idUSLDE73103G20110402'
p657
sg4
S'20110402\xc2\xa09:43AM UTC'
p658
sg6
S'UPDATE 3-Spanish PM says will not stand in 2012 elections'
p659
sa(dp660
g2
S'http://www.reuters.com/article/2011/04/02/us-japan-quake-april-idUSTRE73117O20110402'
p661
sg4
S'20110402\xc2\xa09:38AM UTC'
p662
sg6
S'Leak found in reactor pit as Japan PM tours disaster zone'
p663
sa(dp664
g2
S'http://www.reuters.com/article/2011/04/02/greece-debt-idUSLDE73109620110402'
p665
sg4
S'20110402\xc2\xa09:37AM UTC'
p666
sg6
S'Greek FinMin rules out debt restructuring'
p667
sa(dp668
g2
S'http://www.reuters.com/article/2011/04/02/us-eu-greece-debt-idUSTRE73117H20110402'
p669
sg4
S'20110402\xc2\xa09:37AM UTC'
p670
sg6
S'EU exec says no need to restructure Greek debt'
p671
sa(dp672
g2
S'http://www.reuters.com/article/2011/04/02/idUS38551+02-Apr-2011+PRN20110402'
p673
sg4
S'20110402\xc2\xa09:30AM UTC'
p674
sg6
S'Following Is a Test Release'
p675
sa(dp676
g2
S'http://www.reuters.com/article/2011/04/02/eu-greece-debt-idUSLDE73109720110402'
p677
sg4
S'20110402\xc2\xa09:27AM UTC'
p678
sg6
S'EU exec says no need to restructure Greek debt'
p679
sa(dp680
g2
S'http://www.reuters.com/article/2011/04/02/us-azerbaijan-protest-idUSTRE73116220110402'
p681
sg4
S'20110402\xc2\xa09:21AM UTC'
p682
sg6
S'Police break up opposition rally in Azerbaijan'
p683
sa(dp684
g2
S'http://www.reuters.com/article/2011/04/02/libya-centralbank-idUSLDE73108T20110402'
p685
sg4
S'20110402\xc2\xa09:19AM UTC'
p686
sg6
S'Libya names new central bank governor-Jana'
p687
sa(dp688
g2
S'http://www.reuters.com/article/2011/04/02/idUS37840+02-Apr-2011+BW20110402'
p689
sg4
S'20110402\xc2\xa09:05AM UTC'
p690
sg6
S'DualCap Raises the Bar in the Fight Against Catheter Related Bloodstream Infections by Protecting Both IV Administration Sets and Luer Access Valves'
p691
sa(dp692
g2
S'http://www.reuters.com/article/2011/04/02/idUS37673+02-Apr-2011+PRN20110402'
p693
sg4
S'20110402\xc2\xa09:00AM UTC'
p694
sg6
S'Following Is a Test Release'
p695
sa(dp696
g2
S'http://www.reuters.com/article/2011/04/02/idUS37667+02-Apr-2011+PRN20110402'
p697
sg4
S'20110402\xc2\xa09:00AM UTC'
p698
sg6
S'Bush Furniture Introduces New QTA\xe2\x84\xa2 Technology at High Point Market'
p699
sa(dp700
g2
S'http://www.reuters.com/article/2011/04/02/idUS37670+02-Apr-2011+PRN20110402'
p701
sg4
S'20110402\xc2\xa09:00AM UTC'
p702
sg6
S'DVDFab DVD Copy Disables PathPlayer Automatically When It Has a Problem with Certain Old Discs'
p703
sa(dp704
g2
S'http://www.reuters.com/article/2011/04/02/idUS37440+02-Apr-2011+PRN20110402'
p705
sg4
S'20110402\xc2\xa08:50AM UTC'
p706
sg6
S'China Golf Group, Inc. Signed a Letter of Intent with Wonderful Ace International Ltd. for M&A; with China Golf Magazine'
p707
sa(dp708
g2
S'http://www.reuters.com/article/2011/04/02/us-syria-turkey-idUSTRE73115220110402'
p709
sg4
S'20110402\xc2\xa08:43AM UTC'
p710
sg6
S"Turkey's PM says will prod Syria's Assad on reforms"
p711
sa(dp712
g2
S'http://www.reuters.com/article/2011/04/02/idUS36881+02-Apr-2011+PRN20110402'
p713
sg4
S'20110402\xc2\xa08:30AM UTC'
p714
sg6
S'Following Is a Test Release'
p715
sa(dp716
g2
S'http://www.reuters.com/article/2011/04/02/idUS36257+02-Apr-2011+PRN20110402'
p717
sg4
S'20110402\xc2\xa08:15AM UTC'
p718
sg6
S'4th Annual Oil Distribution & Retail 2011 in Beijing June 16th - 17th 2011'
p719
sa(dp720
g2
S'http://www.reuters.com/article/2011/04/02/india-corruption-idUSL3E7F205220110402'
p721
sg4
S'20110402\xc2\xa08:12AM UTC'
p722
sg6
S'UPDATE 2-India ex-minister, Reliance ADA co charged in telecoms graft case'
p723
sa(dp724
g2
S'http://www.reuters.com/article/2011/04/02/businesspro-us-iran-currency-redenomiati-idUSTRE73112P20110402'
p725
sg4
S'20110402\xc2\xa08:09AM UTC'
p726
sg6
S'Iran plans to take three zeros off currency'
p727
sa(dp728
g2
S'http://www.reuters.com/article/2011/04/02/us-europe-fund-idUSTRE73111X20110402'
p729
sg4
S'20110402\xc2\xa08:04AM UTC'
p730
sg6
S'Europe rescue fund says ready to help Portugal - report'
p731
sa(dp732
g2
S'http://www.reuters.com/article/2011/04/02/intesasanpaolo-idUSLDE73107X20110402'
p733
sg4
S'20110402\xc2\xa08:01AM UTC'
p734
sg6
S'UPDATE 1-Intesa cap hike seen at around 5 bln euros-sources'
p735
sa(dp736
g2
S'http://www.reuters.com/article/2011/04/02/idUS35744+02-Apr-2011+PRN20110402'
p737
sg4
S'20110402\xc2\xa08:00AM UTC'
p738
sg6
S'Following Is a Test Release'
p739
sa(dp740
g2
S'http://www.reuters.com/article/2011/04/02/us-china-brics-idUSTRE7310PL20110402'
p741
sg4
S'20110402\xc2\xa07:54AM UTC'
p742
sg6
S'"BRICS" to talk economic coordination, not yuan: China'
p743
sa(dp744
g2
S'http://www.reuters.com/article/2011/04/02/europe-fund-idUSLDE73105720110402'
p745
sg4
S'20110402\xc2\xa07:53AM UTC'
p746
sg6
S'Europe rescue fund says ready to help Portugal - paper'
p747
sa(dp748
g2
S'http://www.reuters.com/article/2011/04/02/us-ireland-regling-idUSTRE7310ZP20110402'
p749
sg4
S'20110402\xc2\xa07:52AM UTC'
p750
sg6
S'Irish and Greek debts sustainable: EU rescue fund chief'
p751
sa(dp752
g2
S'http://www.reuters.com/article/2011/04/02/chile-quake-idUSN0217889620110402'
p753
sg4
S'20110402\xc2\xa07:51AM UTC'
p754
sg6
S'UPDATE 2-Magnitude 5.9 quake hits N. Chile, no damage seen'
p755
sa(dp756
g2
S'http://www.reuters.com/article/2011/04/02/nigeria-elections-postponement-idUSLDE73107320110402'
p757
sg4
S'20110402\xc2\xa07:42AM UTC'
p758
sg6
S'Nigeria postpones parliamentary elections to Monday'
p759
sa(dp760
g2
S'http://www.reuters.com/article/2011/04/02/soccer-japan-power-idUSL3E7F203H20110402'
p761
sg4
S'20110402\xc2\xa07:38AM UTC'
p762
sg6
S'UPDATE 1-Soccer-Japan scraps night games after quake disaster'
p763
sa(dp764
g2
S'http://www.reuters.com/article/2011/04/02/idUS34096+02-Apr-2011+PRN20110402'
p765
sg4
S'20110402\xc2\xa07:30AM UTC'
p766
sg6
S'Following Is a Test Release'
p767
sa(dp768
g2
S'http://www.reuters.com/article/2011/04/02/ireland-regling-idUSLDE73106B20110402'
p769
sg4
S'20110402\xc2\xa07:27AM UTC'
p770
sg6
S'Irish, Greek debts sustainable - EU rescue fund chief'
p771
sa(dp772
g2
S'http://www.reuters.com/article/2011/04/02/chile-quake-idUSN0218520220110402'
p773
sg4
S'20110402\xc2\xa07:23AM UTC'
p774
sg6
S'Magnitude 5.9 quake shakes northern Chile -USGS'
p775
sa(dp776
g2
S'http://www.reuters.com/article/2011/04/02/idUS32748+02-Apr-2011+PRN20110402'
p777
sg4
S'20110402\xc2\xa07:00AM UTC'
p778
sg6
S'Following Is a Test Release'
p779
sa(dp780
g2
S'http://www.reuters.com/article/2011/04/02/us-libya-east-idUSTRE7310ND20110402'
p781
sg4
S'20110402\xc2\xa06:54AM UTC'
p782
sg6
S'Ten Libya rebels killed in coalition air strike: rebels'
p783
sa(dp784
g2
S'http://www.reuters.com/article/2011/04/02/us-libya-nato-idUSTRE7305BU20110402'
p785
sg4
S'20110402\xc2\xa06:54AM UTC'
p786
sg6
S"Factbox: NATO operations against Libya's Gaddafi"
p787
sa(dp788
g2
S'http://www.reuters.com/article/2011/04/02/greece-imf-debt-idUSLDE73104N20110402'
p789
sg4
S'20110402\xc2\xa06:52AM UTC'
p790
sg6
S'IMF wants Greece to restructure debt - Der Spiegel'
p791
sa(dp792
g2
S'http://www.reuters.com/article/2011/04/02/nigeria-elections-postponed-idUSLDE73106L20110402'
p793
sg4
S'20110402\xc2\xa06:48AM UTC'
p794
sg6
S'Nigeria postpones parliamentary vote in capital'
p795
sa(dp796
g2
S'http://www.reuters.com/article/2011/04/02/us-oman-idUSTRE7310TA20110402'
p797
sg4
S'20110402\xc2\xa06:43AM UTC'
p798
sg6
S'Oman detained up to 60 during clashes: witnesses'
p799
sa(dp800
g2
S'http://www.reuters.com/article/2011/04/02/intesasanpaolo-idUSLDE73105920110402'
p801
sg4
S'20110402\xc2\xa06:34AM UTC'
p802
sg6
S'Intesa cap hike seen at around 5 bln euros-sources'
p803
sa(dp804
g2
S'http://www.reuters.com/article/2011/04/02/us-palestinians-israel-violence-idUSTRE7310LU20110402'
p805
sg4
S'20110402\xc2\xa06:31AM UTC'
p806
sg6
S'Israeli air strike kills three militants in Gaza'
p807
sa(dp808
g2
S'http://www.reuters.com/article/2011/04/02/idUS31622+02-Apr-2011+PRN20110402'
p809
sg4
S'20110402\xc2\xa06:30AM UTC'
p810
sg6
S'Following Is a Test Release'
p811
sa(dp812
g2
S'http://www.reuters.com/article/2011/04/02/us-iraq-violence-qaeda-idUSTRE7310R520110402'
p813
sg4
S'20110402\xc2\xa06:28AM UTC'
p814
sg6
S"Al Qaeda claims responsibility for Iraq's Tikrit attack"
p815
sa(dp816
g2
S'http://www.reuters.com/article/2011/04/02/us-zimbabwe-sadc-idUSTRE7310QY20110402'
p817
sg4
S'20110402\xc2\xa06:27AM UTC'
p818
sg6
S'Robert Mugabe hits back at regional criticism'
p819
sa(dp820
g2
S'http://www.reuters.com/article/2011/04/02/ireland-banks-idUSLDE73105I20110402'
p821
sg4
S'20110402\xc2\xa06:16AM UTC'
p822
sg6
S'Bank of Ireland eyes 1 bln eur in debt-equity swap-report'
p823
sa(dp824
g2
S'http://www.reuters.com/article/2011/04/02/liberty-global-ziggo-idUSLDE73103520110402'
p825
sg4
S'20110402\xc2\xa06:14AM UTC'
p826
sg6
S'Liberty Global set to bid for Dutch cable firm Ziggo-report'
p827
sa(dp828
g2
S'http://www.reuters.com/article/2011/04/02/idUS31043+02-Apr-2011+BW20110402'
p829
sg4
S'20110402\xc2\xa06:13AM UTC'
p830
sg6
S"Autism Symposium April 2 at Stanford University, Sponsored by Packard Children's Hospital"
p831
sa(dp832
g2
S'http://www.reuters.com/article/2011/04/02/us-kazakhstan-election-turnout-idUSTRE7310KL20110402'
p833
sg4
S'20110402\xc2\xa06:11AM UTC'
p834
sg6
S'In Kazakh heartland, support for leader unwavering'
p835
sa(dp836
g2
S'http://www.reuters.com/article/2011/04/02/us-kazakhstan-election-pm-idUSTRE7310QA20110402'
p837
sg4
S'20110402\xc2\xa06:11AM UTC'
p838
sg6
S'Kazakh PM says opposition needed in parliament'
p839
sa(dp840
g2
S'http://www.reuters.com/article/2011/04/02/idUSL3E7F11Z520110402'
p841
sg4
S'20110402\xc2\xa06:09AM UTC'
p842
sg6
S"Q+A-What is India's telecoms scandal all about? "
p843
sa(dp844
g2
S'http://www.reuters.com/article/2011/04/02/idUS30611+02-Apr-2011+PRN20110402'
p845
sg4
S'20110402\xc2\xa06:00AM UTC'
p846
sg6
S'Following Is a Test Release'
p847
sa(dp848
g2
S'http://www.reuters.com/article/2011/04/02/idUS30569+02-Apr-2011+PRN20110402'
p849
sg4
S'20110402\xc2\xa05:59AM UTC'
p850
sg6
S'GOOD MORNING -- April 02, 2011'
p851
sa(dp852
g2
S'http://www.reuters.com/article/2011/04/02/us-spain-zapatero-idUSTRE7310P720110402'
p853
sg4
S'20110402\xc2\xa05:55AM UTC'
p854
sg6
S'Spanish PM says will not stand in 2012 elections'
p855
sa(dp856
g2
S'http://www.reuters.com/article/2011/04/02/india-corruption-idUSL3E7F11NY20110402'
p857
sg4
S'20110402\xc2\xa05:50AM UTC'
p858
sg6
S'India ex-minister, Reliance ADA charged in telecoms graft case'
p859
sa(dp860
g2
S'http://www.reuters.com/article/2011/04/02/russia-companies-idUSLDE73104L20110402'
p861
sg4
S'20110402\xc2\xa05:46AM UTC'
p862
sg6
S'Kremlin to Putin - start board cleanup by July 1'
p863
sa(dp864
g2
S'http://www.reuters.com/article/2011/04/02/idUS29667+02-Apr-2011+PRN20110402'
p865
sg4
S'20110402\xc2\xa05:30AM UTC'
p866
sg6
S'Following Is a Test Release'
p867
sa(dp868
g2
S'http://www.reuters.com/article/2011/04/02/us-china-carbon-market-idUSTRE7310M120110402'
p869
sg4
S'20110402\xc2\xa05:24AM UTC'
p870
sg6
S"China's Guangdong to set up CO2 market in 3-5 years: report"
p871
sa(dp872
g2
S'http://www.reuters.com/article/2011/04/02/idUS28454+02-Apr-2011+PRN20110402'
p873
sg4
S'20110402\xc2\xa05:00AM UTC'
p874
sg6
S'Following Is a Test Release'
p875
sa(dp876
g2
S'http://www.reuters.com/article/2011/04/02/libya-east-idUSLDE73102B20110402'
p877
sg4
S'20110402\xc2\xa04:47AM UTC'
p878
sg6
S'Ten Libya rebels killed in coalition air strike-rebels'
p879
sa(dp880
g2
S'http://www.reuters.com/article/2011/04/02/spain-zapatero-idUSLDE73102O20110402'
p881
sg4
S'20110402\xc2\xa04:44AM UTC'
p882
sg6
S'Spanish PM says will not stand in 2012 elections'
p883
sa(dp884
g2
S'http://www.reuters.com/article/2011/04/02/idUS27706+02-Apr-2011+PRN20110402'
p885
sg4
S'20110402\xc2\xa04:30AM UTC'
p886
sg6
S'Following Is a Test Release'
p887
sa(dp888
g2
S'http://www.reuters.com/article/2011/04/02/swiss-snb-idUSLDE73102920110402'
p889
sg4
S'20110402\xc2\xa04:14AM UTC'
p890
sg6
S"Rates too low for housing market-SNB's Danthine"
p891
sa(dp892
g2
S'http://www.reuters.com/article/2011/04/02/afghanistan-violence-kandahar-taliban-idUSL3E7F203P20110402'
p893
sg4
S'20110402\xc2\xa04:09AM UTC'
p894
sg6
S"Kandahar protest planned by the Taliban-governor's spokesman"
p895
sa(dp896
g2
S'http://www.reuters.com/article/2011/04/02/idUS26849+02-Apr-2011+PRN20110402'
p897
sg4
S'20110402\xc2\xa04:00AM UTC'
p898
sg6
S'Following Is a Test Release'
p899
sa(dp900
g2
S'http://www.reuters.com/article/2011/04/02/us-ivorycoast-cross-idUSTRE7310HK20110402'
p901
sg4
S'20110402\xc2\xa04:00AM UTC'
p902
sg6
S'800 dead in western Ivorian town, Red Cross says'
p903
sa(dp904
g2
S'http://www.reuters.com/article/2011/04/02/japan-iaea-experts-idUSLDE73101220110402'
p905
sg4
S'20110402\xc2\xa03:55AM UTC'
p906
sg6
S'U.N. nuclear agency to send reactor experts to Japan'
p907
sa(dp908
g2
S'http://www.reuters.com/article/2011/04/02/afghan-violence-kandahar-idUSL3E7F203G20110402'
p909
sg4
S'20110402\xc2\xa03:37AM UTC'
p910
sg6
S'Four killed during protests in Kandahar - health official'
p911
sa(dp912
g2
S'http://www.reuters.com/article/2011/04/02/nyse-nasdaq-borsedubai-idUSLDE7301LY20110402'
p913
sg4
S'20110402\xc2\xa03:37AM UTC'
p914
sg6
S'Borse Dubai says backs Nasdaq bid for NYSE Euronext'
p915
sa(dp916
g2
S'http://www.reuters.com/article/2011/04/02/idUS26233+02-Apr-2011+PRN20110402'
p917
sg4
S'20110402\xc2\xa03:30AM UTC'
p918
sg6
S'Following Is a Test Release'
p919
sa(dp920
g2
S'http://www.reuters.com/article/2011/04/02/idUS26223+02-Apr-2011+BW20110402'
p921
sg4
S'20110402\xc2\xa03:30AM UTC'
p922
sg6
S'Idera Pharmaceuticals Presents Data from a Phase 1 Clinical Trial of IMO-2125 in Treatment-Na\xc3\xafve Genotype 1 HCV Patients atEASL 2011'
p923
sa(dp924
g2
S'http://www.reuters.com/article/2011/04/02/stc-syria-idUSLDE73101O20110402'
p925
sg4
S'20110402\xc2\xa03:29AM UTC'
p926
sg6
S'UPDATE 1-Saudi Telecom submits Syria mobile licence offer'
p927
sa(dp928
g2
S'http://www.reuters.com/article/2011/04/02/idUS25900+02-Apr-2011+PRN20110402'
p929
sg4
S'20110402\xc2\xa03:23AM UTC'
p930
sg6
S'Southwest Airlines Working With NTSB, FAA, and Boeing to Investigate Cause of Depressurization Event'
p931
sa(dp932
g2
S'http://www.reuters.com/article/2011/04/02/jaiprakash-idUSL3E7F203720110402'
p933
sg4
S'20110402\xc2\xa03:16AM UTC'
p934
sg6
S"India's Jaiprakash March cement shipments up 22 pct y/y"
p935
sa(dp936
g2
S'http://www.reuters.com/article/2011/04/02/us-nba-kings-idUSTRE7310F020110402'
p937
sg4
S'20110402\xc2\xa03:14AM UTC'
p938
sg6
S"NBA's Nuggets stretch win streak with victory over Kings"
p939
sa(dp940
g2
S'http://www.reuters.com/article/2011/04/02/japan-idUSL3E7F11UV20110402'
p941
sg4
S'20110402\xc2\xa03:14AM UTC'
p942
sg6
S'WRAPUP 4-Leak found in reactor pit, Japan PM tours disaster zone'
p943
sa(dp944
g2
S'http://www.reuters.com/article/2011/04/02/us-afghanistan-violence-un-idUSTRE7310GZ20110402'
p945
sg4
S'20110402\xc2\xa03:10AM UTC'
p946
sg6
S'More violence rattles Afghanistan after U.N. killings'
p947
sa(dp948
g2
S'http://www.reuters.com/article/2011/04/02/us-japan-leak-idUSTRE7310GG20110402'
p949
sg4
S'20110402\xc2\xa03:07AM UTC'
p950
sg6
S'Japan finds radioactive water leaking into sea at nuclear plant'
p951
sa(dp952
g2
S'http://www.reuters.com/article/2011/04/02/ivorycoast-cross-idUSLDE73101C20110402'
p953
sg4
S'20110402\xc2\xa03:06AM UTC'
p954
sg6
S'800 dead in western Ivorian town, Red Cross says'
p955
sa(dp956
g2
S'http://www.reuters.com/article/2011/04/02/idUS25394+02-Apr-2011+BW20110402'
p957
sg4
S'20110402\xc2\xa03:05AM UTC'
p958
sg6
S'Boehringer Ingelheim`s lead hepatitis C compound moves into Phase III - the first within the BI HCV portfolio'
p959
sa(dp960
g2
S'http://www.reuters.com/article/2011/04/02/idUS25297+02-Apr-2011+PRN20110402'
p961
sg4
S'20110402\xc2\xa03:00AM UTC'
p962
sg6
S'Following Is a Test Release'
p963
sa(dp964
g2
S'http://www.reuters.com/article/2011/04/02/japan-leak-idUSL3E7F203920110402'
p965
sg4
S'20110402\xc2\xa02:40AM UTC'
p966
sg6
S'UPDATE 1-Japan finds radioactive water leaking into the sea at nuclear plant'
p967
sa(dp968
g2
S'http://www.reuters.com/article/2011/04/02/idUS24802+02-Apr-2011+PRN20110402'
p969
sg4
S'20110402\xc2\xa02:30AM UTC'
p970
sg6
S'Following Is a Test Release'
p971
sa(dp972
g2
S'http://www.reuters.com/article/2011/04/02/japan-leak-idUSL3E7F117D20110402'
p973
sg4
S'20110402\xc2\xa02:16AM UTC'
p974
sg6
S"Japan's TEPCO says radioactive water leaking into the sea at nuclear plant"
p975
sa(dp976
g2
S'http://www.reuters.com/article/2011/04/02/stc-syria-idUSLDE73100P20110402'
p977
sg4
S'20110402\xc2\xa02:12AM UTC'
p978
sg6
S'Saudi Telecom submits offer for Syria mobile licence'
p979
sa(dp980
g2
S'http://www.reuters.com/article/2011/04/02/idUS24126+02-Apr-2011+PRN20110402'
p981
sg4
S'20110402\xc2\xa02:00AM UTC'
p982
sg6
S'Following Is a Test Release'
p983
sa(dp984
g2
S'http://www.reuters.com/article/2011/04/02/idUS24114+02-Apr-2011+PRN20110402'
p985
sg4
S'20110402\xc2\xa02:00AM UTC'
p986
sg6
S"Boehringer Ingelheim's Lead Hepatitis C Compound Moves into Phase 3 - the First Within the BI HCV Portfolio"
p987
sa(dp988
g2
S'http://www.reuters.com/article/2011/04/02/idUSL3E7F113520110402'
p989
sg4
S'20110402\xc2\xa01:41AM UTC'
p990
sg6
S'GM says Q1 China auto sales up 10 pct yr-on-yr'
p991
sa(dp992
g2
S'http://www.reuters.com/article/2011/04/02/idUS23293+02-Apr-2011+PRN20110402'
p993
sg4
S'20110402\xc2\xa01:30AM UTC'
p994
sg6
S'Following Is a Test Release'
p995
sa(dp996
g2
S'http://www.reuters.com/article/2011/04/02/us-nhl-blues-idUSTRE7310C820110402'
p997
sg4
S'20110402\xc2\xa01:26AM UTC'
p998
sg6
S"Iginla's 1,000th point carries Flames to important win"
p999
sa(dp1000
g2
S'http://www.reuters.com/article/2011/04/02/japan-quake-snapshot-idUSL3E7F11IC20110402'
p1001
sg4
S'20110402\xc2\xa01:00AM UTC'
p1002
sg6
S"SNAPSHOT-Japan's nuclear crisis"
p1003
sa(dp1004
g2
S'http://www.reuters.com/article/2011/04/02/idUS23035+02-Apr-2011+PRN20110402'
p1005
sg4
S'20110402\xc2\xa01:00AM UTC'
p1006
sg6
S'Following Is a Test Release'
p1007
sa(dp1008
g2
S'http://www.reuters.com/article/2011/04/02/idUS255072202820110402'
p1009
sg4
S'20110402\xc2\xa01:00AM UTC'
p1010
sg6
S"Feds Invite Startups to Be America's Next Top Energy Innovator"
p1011
sa(dp1012
g2
S'http://www.reuters.com/article/2011/04/02/afghanistan-violence-kabul-idUSL3E7F202720110402'
p1013
sg4
S'20110402\xc2\xa012:54AM UTC'
p1014
sg6
S'Two insurgents attack Kabul base, both killed'
p1015
sa(dp1016
g2
S'http://www.reuters.com/article/2011/04/02/idUS22874+02-Apr-2011+PRN20110402'
p1017
sg4
S'20110402\xc2\xa012:30AM UTC'
p1018
sg6
S'Following Is a Test Release'
p1019
sa(dp1020
g2
S'http://www.reuters.com/article/2011/04/02/idUS22376+02-Apr-2011+BW20110402'
p1021
sg4
S'20110402\xc2\xa012:02AM UTC'
p1022
sg6
S'Epsilon Notifies New York & Company of Email Database Breach'
p1023
sa(dp1024
g2
S'http://www.reuters.com/article/2011/04/02/idUS22330+02-Apr-2011+PRN20110402'
p1025
sg4
S'20110402\xc2\xa012:01AM UTC'
p1026
sg6
S'U.S. Census Bureau Daily Feature for April 2'
p1027
sa(dp1028
g2
S'http://www.reuters.com/article/2011/04/02/idUS22300+02-Apr-2011+PRN20110402'
p1029
sg4
S'20110402\xc2\xa012:00AM UTC'
p1030
sg6
S'Following Is a Test Release'
p1031
sa(dp1032
g2
S'http://www.reuters.com/news/video/videoStory?storyID=18305381'
p1033
sg4
S'20110402\xc2\xa03:37PM UTC'
p1034
sg6
S'Nine killed in separate attacks in Ciudad Juarez, Mexico'
p1035
sa(dp1036
g2
S'http://www.reuters.com/news/video/videoStory?storyID=18304021'
p1037
sg4
S'20110402\xc2\xa02:09PM UTC'
p1038
sg6
S'Northern Ireland policeman killed by booby-trap car bomb'
p1039
sa(dp1040
g2
S'http://www.reuters.com/news/video/videoStory?storyID=18296093'
p1041
sg4
S'20110402\xc2\xa011:34AM UTC'
p1042
sg6
S'Kazakhstan prepares for polls'
p1043
sa(dp1044
g2
S'http://www.reuters.com/news/video/videoStory?storyID=18294906'
p1045
sg4
S'20110402\xc2\xa010:41AM UTC'
p1046
sg6
S'Coalition air strike hits Libya rebels'
p1047
sa(dp1048
g2
S'http://www.reuters.com/news/video/videoStory?storyID=18294689'
p1049
sg4
S'20110402\xc2\xa010:19AM UTC'
p1050
sg6
S'Pro-Gbagbo troops re-take state TV'
p1051
sa.