(lp0
(dp1
S'href'
p2
S'http://www.reuters.com/article/2011/01/30/idUS20599+30-Jan-2011+PRN20110130'
p3
sS'ts'
p4
S'20110129\xc2\xa011:57PM UTC'
p5
sS'title'
p6
S'TRAVEL ALBERTA GETS LOS ANGELES AND ORANGE COUNTY STOKED FOR SNOW'
p7
sa(dp8
g2
S'http://www.reuters.com/article/2011/01/30/us-nba-suspensions-idUSTRE70T0C720110130'
p9
sg4
S'20110129\xc2\xa011:52PM UTC'
p10
sg6
S'League dishes out suspensions for Williams brawl'
p11
sa(dp12
g2
S'http://www.reuters.com/article/2011/01/30/us-boxing-bradley-idUSTRE70T0AG20110130'
p13
sg4
S'20110129\xc2\xa011:42PM UTC'
p14
sg6
S'Timothy Bradley takes WBC belt after accidental head butt'
p15
sa(dp16
g2
S'http://www.reuters.com/article/2011/01/30/idUS19684+30-Jan-2011+PRN20110130'
p17
sg4
S'20110129\xc2\xa011:30PM UTC'
p18
sg6
S'Following Is a Test Release'
p19
sa(dp20
g2
S'http://www.reuters.com/article/2011/01/30/us-nhl-allstar-skills-idUSTRE70T09720110130'
p21
sg4
S'20110129\xc2\xa011:08PM UTC'
p22
sg6
S'Chara retains hardest shot crown with record blast'
p23
sa(dp24
g2
S'http://www.reuters.com/article/2011/01/30/idUS18763+30-Jan-2011+PRN20110130'
p25
sg4
S'20110129\xc2\xa011:00PM UTC'
p26
sg6
S'Following Is a Test Release'
p27
sa(dp28
g2
S'http://www.reuters.com/article/2011/01/30/us-cdb-westlb-idUSTRE70T08Y20110130'
p29
sg4
S'20110129\xc2\xa010:57PM UTC'
p30
sg6
S'China Development Bank in fray for troubled German bank: report'
p31
sa(dp32
g2
S'http://www.reuters.com/article/2011/01/30/cdb-westlb-idUSTOE70T00B20110130'
p33
sg4
S'20110129\xc2\xa010:54PM UTC'
p34
sg6
S'China Development Bank in fray for troubled German bank - WSJ'
p35
sa(dp36
g2
S'http://www.reuters.com/article/2011/01/30/idUS17826+30-Jan-2011+BW20110130'
p37
sg4
S'20110129\xc2\xa010:34PM UTC'
p38
sg6
S'Gilead Sciences maakt financi\xc3\xable cijfers van het vierde kwartaal van 2010 en heel 2010 bekend'
p39
sa(dp40
g2
S'http://www.reuters.com/article/2011/01/30/idUS17705+30-Jan-2011+PRN20110130'
p41
sg4
S'20110129\xc2\xa010:30PM UTC'
p42
sg6
S'Following Is a Test Release'
p43
sa(dp44
g2
S'http://www.reuters.com/article/2011/01/30/us-crime-mexico-idUSTRE70T03F20110130'
p45
sg4
S'20110129\xc2\xa010:24PM UTC'
p46
sg6
S'Three Mexican murder suspects turn themselves in'
p47
sa(dp48
g2
S'http://www.reuters.com/article/2011/01/30/idUS17363+30-Jan-2011+MW20110130'
p49
sg4
S'20110129\xc2\xa010:20PM UTC'
p50
sg6
S" Giving 'Big' Makes Comeback at Nation's Top Charity Wine Auction"
p51
sa(dp52
g2
S'http://www.reuters.com/article/2011/01/30/daewoo-libya-idUSTOE70T00820110130'
p53
sg4
S'20110129\xc2\xa010:07PM UTC'
p54
sg6
S'S.Korea Daewoo E&C; wins $204 mln order from Libya'
p55
sa(dp56
g2
S'http://www.reuters.com/article/2011/01/30/industry-us-media-radio-law-idUSTRE70T07020110130'
p57
sg4
S'20110129\xc2\xa010:07PM UTC'
p58
sg6
S'New U.S. law could foster community radio boom'
p59
sa(dp60
g2
S'http://www.reuters.com/article/2011/01/30/idUS16603+30-Jan-2011+PRN20110130'
p61
sg4
S'20110129\xc2\xa010:00PM UTC'
p62
sg6
S'Following Is a Test Release'
p63
sa(dp64
g2
S'http://www.reuters.com/article/2011/01/30/idUS16518+30-Jan-2011+PRN20110130'
p65
sg4
S'20110129\xc2\xa09:58PM UTC'
p66
sg6
S'CAIR: Attack on Michigan Mosque Thwarted'
p67
sa(dp68
g2
S'http://www.reuters.com/article/2011/01/30/idUS16395+30-Jan-2011+BW20110130'
p69
sg4
S'20110129\xc2\xa09:56PM UTC'
p70
sg6
S'Gilead Sciences comunica i risultati finanziari registrati nel quarto trimestre e durante l`intero esercizio 2010'
p71
sa(dp72
g2
S'http://www.reuters.com/article/2011/01/30/idUS15505+30-Jan-2011+PRN20110130'
p73
sg4
S'20110129\xc2\xa09:30PM UTC'
p74
sg6
S'Following Is a Test Release'
p75
sa(dp76
g2
S'http://www.reuters.com/article/2011/01/30/idUS15360+30-Jan-2011+BW20110130'
p77
sg4
S'20110129\xc2\xa09:25PM UTC'
p78
sg6
S'Gilead Sciences annonce ses r\xc3\xa9sultats financiers pour le quatri\xc3\xa8me trimestre et l`exercice 2010'
p79
sa(dp80
g2
S'http://www.reuters.com/article/2011/01/30/korea-defence-fighter-idUSTOE70T00720110130'
p81
sg4
S'20110129\xc2\xa09:22PM UTC'
p82
sg6
S'S.Korea to speed up combat fighter purchase -Yonhap'
p83
sa(dp84
g2
S'http://www.reuters.com/article/2011/01/30/us-cat-cinderella-idUSTRE70T04A20110130'
p85
sg4
S'20110129\xc2\xa09:08PM UTC'
p86
sg6
S'Four months later, cat-loving man finds his "Cinderella"'
p87
sa(dp88
g2
S'http://www.reuters.com/article/2011/01/30/idUS14495+30-Jan-2011+PRN20110130'
p89
sg4
S'20110129\xc2\xa09:00PM UTC'
p90
sg6
S'Following Is a Test Release'
p91
sa(dp92
g2
S'http://www.reuters.com/article/2011/01/30/us-greece-debt-idUSTRE70T03P20110130'
p93
sg4
S'20110129\xc2\xa09:00PM UTC'
p94
sg6
S'EU working on "Brady plan" for Greece: report'
p95
sa(dp96
g2
S'http://www.reuters.com/article/2011/01/30/us-golf-pga-vegas-idUSTRE70T03320110130'
p97
sg4
S'20110129\xc2\xa08:50PM UTC'
p98
sg6
S'Tiger tamer Vegas stays on his dream PGA Tour ride'
p99
sa(dp100
g2
S'http://www.reuters.com/article/2011/01/30/us-nhl-concussions-idUSTRE70T02K20110130'
p101
sg4
S'20110129\xc2\xa08:47PM UTC'
p102
sg6
S'Concussions on rise says NHL commissioner'
p103
sa(dp104
g2
S'http://www.reuters.com/article/2011/01/30/idUS13560+30-Jan-2011+PRN20110130'
p105
sg4
S'20110129\xc2\xa08:32PM UTC'
p106
sg6
S'Cafesjian Family Foundation Welcomes District Court Ruling in Armenian Genocide Museum Case'
p107
sa(dp108
g2
S'http://www.reuters.com/article/2011/01/30/posco-vale-idUSTOE70S00L20110130'
p109
sg4
S'20110129\xc2\xa08:31PM UTC'
p110
sg6
S'POSCO, Vale seek to develop coal mine in Mozambique'
p111
sa(dp112
g2
S'http://www.reuters.com/article/2011/01/30/idUS13498+30-Jan-2011+PRN20110130'
p113
sg4
S'20110129\xc2\xa08:30PM UTC'
p114
sg6
S'Following Is a Test Release'
p115
sa(dp116
g2
S'http://www.reuters.com/article/2011/01/30/idUS13441+30-Jan-2011+BW20110130'
p117
sg4
S'20110129\xc2\xa08:29PM UTC'
p118
sg6
S'Schlumberger gibt Ergebnisse f\xc3\xbcr das vierte Quartal und das gesamte Gesch\xc3\xa4ftsjahr 2010 bekannt'
p119
sa(dp120
g2
S'http://www.reuters.com/article/2011/01/30/alpha-massey-idUSN2914429220110130'
p121
sg4
S'20110129\xc2\xa08:04PM UTC'
p122
sg6
S'UPDATE 4-Alpha agrees to buy Massey Energy for about $7.1 bln'
p123
sa(dp124
g2
S'http://www.reuters.com/article/2011/01/30/idUS12624+30-Jan-2011+PRN20110130'
p125
sg4
S'20110129\xc2\xa08:00PM UTC'
p126
sg6
S'Following Is a Test Release'
p127
sa(dp128
g2
S'http://www.reuters.com/article/2011/01/30/idUS12177+30-Jan-2011+PRN20110130'
p129
sg4
S'20110129\xc2\xa07:44PM UTC'
p130
sg6
S'Dan Cathy, President and COO of Chick-fil-A, Clarifies Recent News Coverage'
p131
sa(dp132
g2
S'http://www.reuters.com/article/2011/01/30/us-books-condiments-idUSTRE70T00Y20110130'
p133
sg4
S'20110129\xc2\xa07:42PM UTC'
p134
sg6
S'Woman who dumped condiments in book drop pleads guilty'
p135
sa(dp136
g2
S'http://www.reuters.com/article/2011/01/30/media-radio-idUSN2613260420110130'
p137
sg4
S'20110129\xc2\xa07:34PM UTC'
p138
sg6
S'New U.S. law could foster community radio boom'
p139
sa(dp140
g2
S'http://www.reuters.com/article/2011/01/30/idUS11715+30-Jan-2011+PRN20110130'
p141
sg4
S'20110129\xc2\xa07:30PM UTC'
p142
sg6
S'Following Is a Test Release'
p143
sa(dp144
g2
S'http://www.reuters.com/article/2011/01/30/us-soldiers-crimes-idUSTRE70S3SD20110130'
p145
sg4
S'20110129\xc2\xa07:25PM UTC'
p146
sg6
S'Family of soldier disappointed at war crimes charges'
p147
sa(dp148
g2
S'http://www.reuters.com/article/2011/01/30/us-community-radio-idUSTRE70T00F20110130'
p149
sg4
S'20110129\xc2\xa07:20PM UTC'
p150
sg6
S'New law could foster community radio boom'
p151
sa(dp152
g2
S'http://www.reuters.com/article/2011/01/30/us-golf-pga-woods-idUSTRE70R99920110130'
p153
sg4
S'20110129\xc2\xa07:19PM UTC'
p154
sg6
S'Frustrated Woods falls out of contention at Torrey Pines'
p155
sa(dp156
g2
S'http://www.reuters.com/article/2011/01/30/idUS10114+30-Jan-2011+MW20110130'
p157
sg4
S'20110129\xc2\xa07:01PM UTC'
p158
sg6
S' Blinds Specialists, Thomas Sanderson to Appear at 8 Home Exhibitions This Year'
p159
sa(dp160
g2
S'http://www.reuters.com/article/2011/01/30/idUS10021+30-Jan-2011+PRN20110130'
p161
sg4
S'20110129\xc2\xa07:00PM UTC'
p162
sg6
S'Following Is a Test Release'
p163
sa(dp164
g2
S'http://www.reuters.com/article/2011/01/29/us-golf-pga-woods-idUSTRE70R99920110129'
p165
sg4
S'20110129\xc2\xa06:48PM UTC'
p166
sg6
S'Tiger Woods toils to another 69 after early sizzle'
p167
sa(dp168
g2
S'http://www.reuters.com/article/2011/01/29/us-golf-pga-idUSTRE70R9CE20110129'
p169
sg4
S'20110129\xc2\xa06:48PM UTC'
p170
sg6
S'Late bogey puts Haas in tie for lead with Mickelson'
p171
sa(dp172
g2
S'http://www.reuters.com/article/2011/01/29/us-egypt-idUSTRE70O3UW20110129'
p173
sg4
S'20110129\xc2\xa06:47PM UTC'
p174
sg6
S'Mubarak names deputy, protesters defy curfew'
p175
sa(dp176
g2
S'http://www.reuters.com/article/2011/01/29/us-pakistan-shooting-usa-idUSTRE70S2K920110129'
p177
sg4
S'20110129\xc2\xa06:46PM UTC'
p178
sg6
S'Pakistan says law must take its course in U.S. diplomat case'
p179
sa(dp180
g2
S'http://www.reuters.com/article/2011/01/29/us-egypt-vigilante-idUSTRE70S3AQ20110129'
p181
sg4
S'20110129\xc2\xa06:45PM UTC'
p182
sg6
S'Egypt vigilantes defend homes as police disappear'
p183
sa(dp184
g2
S'http://www.reuters.com/article/2011/01/29/us-egypt-dead-idUSTRE70S3ZM20110129'
p185
sg4
S'20110129\xc2\xa06:40PM UTC'
p186
sg6
S"Death toll in Egypt's protests tops 100: sources"
p187
sa(dp188
g2
S'http://www.reuters.com/article/2011/01/29/idUS62236+29-Jan-2011+PRN20110129'
p189
sg4
S'20110129\xc2\xa06:30PM UTC'
p190
sg6
S'Following Is a Test Release'
p191
sa(dp192
g2
S'http://www.reuters.com/article/2011/01/29/us-egypt-markets-risks-idUSTRE70S31L20110129'
p193
sg4
S'20110129\xc2\xa06:28PM UTC'
p194
sg6
S'Analysis: Investors face risks however Egypt plays out'
p195
sa(dp196
g2
S'http://www.reuters.com/article/2011/01/29/us-alpha-massey-idUSTRE70S0PC20110129'
p197
sg4
S'20110129\xc2\xa06:16PM UTC'
p198
sg6
S'Alpha agrees to buy Massey Energy for about $7.1 billion'
p199
sa(dp200
g2
S'http://www.reuters.com/article/2011/01/29/alpha-massey-idUSN2914429220110129'
p201
sg4
S'20110129\xc2\xa06:15PM UTC'
p202
sg6
S'UPDATE 3-Alpha agrees to buy Massey Energy for about $7.1 bln'
p203
sa(dp204
g2
S'http://www.reuters.com/article/2011/01/29/us-egypt-usa-idUSTRE70R6A920110129'
p205
sg4
S'20110129\xc2\xa06:13PM UTC'
p206
sg6
S'Obama keeps pressure on Mubarak as U.S. protests grow'
p207
sa(dp208
g2
S'http://www.reuters.com/article/2011/01/29/idUS61318+29-Jan-2011+PRN20110129'
p209
sg4
S'20110129\xc2\xa06:00PM UTC'
p210
sg6
S'Following Is a Test Release'
p211
sa(dp212
g2
S'http://www.reuters.com/article/2011/01/29/idUS61050+29-Jan-2011+BW20110129'
p213
sg4
S'20110129\xc2\xa05:41PM UTC'
p214
sg6
S'Monster Worldwide legt Ergebnisse f\xc3\xbcr das vierte Quartal und das Bilanzjahr 2010 vor'
p215
sa(dp216
g2
S'http://www.reuters.com/article/2011/01/29/us-egypt-usa-scenarios-idUSTRE70S3UU20110129'
p217
sg4
S'20110129\xc2\xa05:38PM UTC'
p218
sg6
S'Scenarios: U.S. walks tightrope between Mubarak, protesters'
p219
sa(dp220
g2
S'http://www.reuters.com/article/2011/01/29/us-egypt-usa-idUSTRE70S3S020110129'
p221
sg4
S'20110129\xc2\xa05:38PM UTC'
p222
sg6
S'Q+A: Key elements of the U.S.-Egyptian relationship'
p223
sa(dp224
g2
S'http://www.reuters.com/article/2011/01/29/us-egypt-elbaradei-idUSTRE70S3RZ20110129'
p225
sg4
S'20110129\xc2\xa05:38PM UTC'
p226
sg6
S'ElBaradei: Mubarak not listening to people with VP'
p227
sa(dp228
g2
S'http://www.reuters.com/article/2011/01/29/us-northdakota-killings-idUSTRE70S2VT20110129'
p229
sg4
S'20110129\xc2\xa05:34PM UTC'
p230
sg6
S'North Dakota police say killer still at large'
p231
sa(dp232
g2
S'http://www.reuters.com/article/2011/01/29/idUS60705+29-Jan-2011+PRN20110129'
p233
sg4
S'20110129\xc2\xa05:30PM UTC'
p234
sg6
S'Following Is a Test Release'
p235
sa(dp236
g2
S'http://www.reuters.com/article/2011/01/29/us-egypt-benisuef-idUSTRE70S3T420110129'
p237
sg4
S'20110129\xc2\xa05:12PM UTC'
p238
sg6
S'Police shoot dead 17 attacking Egypt police stations'
p239
sa(dp240
g2
S'http://www.reuters.com/article/2011/01/29/figure-skating-men-results-idUSISS43258320110129'
p241
sg4
S'20110129\xc2\xa05:11PM UTC'
p242
sg6
S"Figure skating-European championships men's results"
p243
sa(dp244
g2
S'http://www.reuters.com/article/2011/01/29/figure-skating-men-free-results-idUSISS43258420110129'
p245
sg4
S'20110129\xc2\xa05:11PM UTC'
p246
sg6
S"Figure skating-European championships men's free program results"
p247
sa(dp248
g2
S'http://www.reuters.com/article/2011/01/29/idUS59972+29-Jan-2011+PRN20110129'
p249
sg4
S'20110129\xc2\xa05:00PM UTC'
p250
sg6
S'Following Is a Test Release'
p251
sa(dp252
g2
S'http://www.reuters.com/article/2011/01/29/idUS59724+29-Jan-2011+PRN20110129'
p253
sg4
S'20110129\xc2\xa04:51PM UTC'
p254
sg6
S'Allstate Corrects Misperceptions Zodiac Press Release May Have Created'
p255
sa(dp256
g2
S'http://www.reuters.com/article/2011/01/29/us-soldiers-crimes-idUSTRE70S3SD20110129'
p257
sg4
S'20110129\xc2\xa04:49PM UTC'
p258
sg6
S'Family of soldier disappointed at war crimes charges'
p259
sa(dp260
g2
S'http://www.reuters.com/article/2011/01/29/idUS58905+29-Jan-2011+PRN20110129'
p261
sg4
S'20110129\xc2\xa04:30PM UTC'
p262
sg6
S'Following Is a Test Release'
p263
sa(dp264
g2
S'http://www.reuters.com/article/2011/01/29/venezuela-bank-idUSN2914205020110129'
p265
sg4
S'20110129\xc2\xa04:20PM UTC'
p266
sg6
S'Chavez says no plans to takeover Spanish bank unit'
p267
sa(dp268
g2
S'http://www.reuters.com/article/2011/01/29/idUS58440+29-Jan-2011+BW20110129'
p269
sg4
S'20110129\xc2\xa04:18PM UTC'
p270
sg6
S'Alpha Natural Resources and Massey Energy Agree to $8.5 Billion Combination'
p271
sa(dp272
g2
S'http://www.reuters.com/article/2011/01/29/egypt-usa-idUSN2910269620110129'
p273
sg4
S'20110129\xc2\xa04:16PM UTC'
p274
sg6
S'Q+A-Key elements of the U.S.-Egyptian relationship'
p275
sa(dp276
g2
S'http://www.reuters.com/article/2011/01/29/idUS57950+29-Jan-2011+PRN20110129'
p277
sg4
S'20110129\xc2\xa04:00PM UTC'
p278
sg6
S'Following Is a Test Release'
p279
sa(dp280
g2
S'http://www.reuters.com/article/2011/01/29/idUS57920+29-Jan-2011+MW20110129'
p281
sg4
S'20110129\xc2\xa03:58PM UTC'
p282
sg6
S' Montana Medical Growers Association Denounces Interstate Transfer of Marijuana'
p283
sa(dp284
g2
S'http://www.reuters.com/article/2011/01/29/us-davos-protests-idUSTRE70S2BT20110129'
p285
sg4
S'20110129\xc2\xa03:52PM UTC'
p286
sg6
S'Anti-capitalists clash with riot police in Davos'
p287
sa(dp288
g2
S'http://www.reuters.com/article/2011/01/29/us-marijuana-bust-idUSTRE70S3OA20110129'
p289
sg4
S'20110129\xc2\xa03:51PM UTC'
p290
sg6
S'Ohio bust nets 2,800 pounds marijuana and $1 million cash'
p291
sa(dp292
g2
S'http://www.reuters.com/article/2011/01/29/us-obama-address-idUSTRE70S3H120110129'
p293
sg4
S'20110129\xc2\xa03:51PM UTC'
p294
sg6
S'Obama touts clean energy firm as way of future'
p295
sa(dp296
g2
S'http://www.reuters.com/article/2011/01/29/idUS57701+29-Jan-2011+BW20110129'
p297
sg4
S'20110129\xc2\xa03:50PM UTC'
p298
sg6
S'Clear Channel Spectacolor Rolls Out the Red Carpet for TNT and TBS'
p299
sa(dp300
g2
S'http://www.reuters.com/article/2011/01/29/us-egypt-gaza-fuel-idUSTRE70S3CV20110129'
p301
sg4
S'20110129\xc2\xa03:49PM UTC'
p302
sg6
S'Egypt unrest causes fuel shortage in Gaza Strip'
p303
sa(dp304
g2
S'http://www.reuters.com/article/2011/01/29/us-egypt-brotherhood-trib-idUSTRE70S3N420110129'
p305
sg4
S'20110129\xc2\xa03:48PM UTC'
p306
sg6
S'Brotherhood lawyer: Mubarak must quit or reform'
p307
sa(dp308
g2
S'http://www.reuters.com/article/2011/01/29/idUS57597+29-Jan-2011+PRN20110129'
p309
sg4
S'20110129\xc2\xa03:46PM UTC'
p310
sg6
S'Bruce McBarnette Comments on FHA waiver of Anti Flip Rules'
p311
sa(dp312
g2
S'http://www.reuters.com/article/2011/01/29/idUS57148+29-Jan-2011+PRN20110129'
p313
sg4
S'20110129\xc2\xa03:30PM UTC'
p314
sg6
S'Following Is a Test Release'
p315
sa(dp316
g2
S'http://www.reuters.com/article/2011/01/29/egypt-europe-leaders-idUSLDE70S0KH20110129'
p317
sg4
S'20110129\xc2\xa03:27PM UTC'
p318
sg6
S'Europe leaders urge Mubarak to avoid violence'
p319
sa(dp320
g2
S'http://www.reuters.com/article/2011/01/29/us-egypt-museum-idUSTRE70R7K820110129'
p321
sg4
S'20110129\xc2\xa03:26PM UTC'
p322
sg6
S'Looters smash treasures and mummies in Egyptian Museum'
p323
sa(dp324
g2
S'http://www.reuters.com/article/2011/01/29/idUS324201369220110129'
p325
sg4
S'20110129\xc2\xa03:24PM UTC'
p326
sg6
S'Week in review: Microsoft\xe2\x80\x99s game business is growing fast'
p327
sa(dp328
g2
S'http://www.reuters.com/article/2011/01/29/egypt-taxauthority-idUSLDE70S0KA20110129'
p329
sg4
S'20110129\xc2\xa03:18PM UTC'
p330
sg6
S"Protesters set Egypt's tax authority alight"
p331
sa(dp332
g2
S'http://www.reuters.com/article/2011/01/29/egypt-usa-meeting-idUSN2913811320110129'
p333
sg4
S'20110129\xc2\xa03:16PM UTC'
p334
sg6
S'Obama meets with national security team on Egypt'
p335
sa(dp336
g2
S'http://www.reuters.com/article/2011/01/29/idUS55895+29-Jan-2011+PRN20110129'
p337
sg4
S'20110129\xc2\xa03:00PM UTC'
p338
sg6
S'Following Is a Test Release'
p339
sa(dp340
g2
S'http://www.reuters.com/article/2011/01/29/us-belarus-release-idUSTRE70S3IC20110129'
p341
sg4
S'20110129\xc2\xa02:54PM UTC'
p342
sg6
S'Belarus releases detainees as EU readies sanctions'
p343
sa(dp344
g2
S'http://www.reuters.com/article/2011/01/29/davos-protests-idUSLDE70S09220110129'
p345
sg4
S'20110129\xc2\xa02:50PM UTC'
p346
sg6
S'DAVOS-Anti-capitalists clash with riot police in Davos'
p347
sa(dp348
g2
S'http://www.reuters.com/article/2011/01/29/idUS55588+29-Jan-2011+PRN20110129'
p349
sg4
S'20110129\xc2\xa02:50PM UTC'
p350
sg6
S'Up-and-Coming Singer/Songwriter, Joanna Mosca, Opening for Acclaimed Folk Singer Martin Sexton at Mitchell Auditorium, Duluth, MN'
p351
sa(dp352
g2
S'http://www.reuters.com/article/2011/01/29/idUS55584+29-Jan-2011+PRN20110129'
p353
sg4
S'20110129\xc2\xa02:50PM UTC'
p354
sg6
S'San Diego Students to Learn About Cyber Safety Thanks to $50,000 Verizon Grant to San Diego Police Foundation (SDPF)'
p355
sa(dp356
g2
S'http://www.reuters.com/article/2011/01/29/idUS55124+29-Jan-2011+PRN20110129'
p357
sg4
S'20110129\xc2\xa02:32PM UTC'
p358
sg6
S'National School Choice Week Captivates Nation; Advocates Say Push for Educational Options Will Accelerate in Coming Weeks, Months'
p359
sa(dp360
g2
S'http://www.reuters.com/article/2011/01/29/idUS55090+29-Jan-2011+PRN20110129'
p361
sg4
S'20110129\xc2\xa02:30PM UTC'
p362
sg6
S'Following Is a Test Release'
p363
sa(dp364
g2
S'http://www.reuters.com/article/2011/01/29/us-jordan-protest-idUSTRE70S3GG20110129'
p365
sg4
S'20110129\xc2\xa02:16PM UTC'
p366
sg6
S'Jordanians rally against corruption and poverty'
p367
sa(dp368
g2
S'http://www.reuters.com/article/2011/01/29/us-egypt-mobiles-idUSTRE70S3G120110129'
p369
sg4
S'20110129\xc2\xa02:12PM UTC'
p370
sg6
S'Egypt mobile phone network resumes in capital'
p371
sa(dp372
g2
S'http://www.reuters.com/article/2011/01/29/egypt-mobiles-idUSLDE70S0JC20110129'
p373
sg4
S'20110129\xc2\xa02:10PM UTC'
p374
sg6
S'UPDATE 1-Egypt mobile phone network resumes in capital'
p375
sa(dp376
g2
S'http://www.reuters.com/article/2011/01/29/us-iran-dutch-execution-idUSTRE70S3EG20110129'
p377
sg4
S'20110129\xc2\xa02:03PM UTC'
p378
sg6
S'Iran hangs Iranian-Dutch woman for drug smuggling'
p379
sa(dp380
g2
S'http://www.reuters.com/article/2011/01/29/us-egypt-vigilante-trib-idUSTRE70S3AZ20110129'
p381
sg4
S'20110129\xc2\xa02:00PM UTC'
p382
sg6
S'Egypt vigilantes defend homes as police disappear'
p383
sa(dp384
g2
S'http://www.reuters.com/article/2011/01/29/idUS53676+29-Jan-2011+PRN20110129'
p385
sg4
S'20110129\xc2\xa02:00PM UTC'
p386
sg6
S'Following Is a Test Release'
p387
sa(dp388
g2
S'http://www.reuters.com/article/2011/01/29/us-britain-egypt-protest-idUSTRE70S3DM20110129'
p389
sg4
S'20110129\xc2\xa01:57PM UTC'
p390
sg6
S'London Egypt protest shows Islamist/secular split'
p391
sa(dp392
g2
S'http://www.reuters.com/article/2011/01/29/egypt-protests-tourism-idUSLDE70S0EG20110129'
p393
sg4
S'20110129\xc2\xa01:56PM UTC'
p394
sg6
S'Egypt tourism faces blow, may only be short-term'
p395
sa(dp396
g2
S'http://www.reuters.com/article/2011/01/29/us-egypt-vice-president-iv-idUSTRE70S2KP20110129'
p397
sg4
S'20110129\xc2\xa01:40PM UTC'
p398
sg6
S"Instant View: Egypt's Mubarak picks PM; has VP for first time"
p399
sa(dp400
g2
S'http://www.reuters.com/article/2011/01/29/idUS52989+29-Jan-2011+PRN20110129'
p401
sg4
S'20110129\xc2\xa01:39PM UTC'
p402
sg6
S'Town and Country Financial Corporation Reports Stronger 2010 Net Income and Declares Quarterly Dividend'
p403
sa(dp404
g2
S'http://www.reuters.com/article/2011/01/29/us-egypt-protests-tourism-idUSTRE70S3AR20110129'
p405
sg4
S'20110129\xc2\xa01:35PM UTC'
p406
sg6
S'Egypt tourism faces blow, may only be short-term'
p407
sa(dp408
g2
S'http://www.reuters.com/article/2011/01/29/idUS52645+29-Jan-2011+PRN20110129'
p409
sg4
S'20110129\xc2\xa01:30PM UTC'
p410
sg6
S'Following Is a Test Release'
p411
sa(dp412
g2
S'http://www.reuters.com/article/2011/01/29/us-refinery-leak-idUSTRE70S39420110129'
p413
sg4
S'20110129\xc2\xa01:26PM UTC'
p414
sg6
S'Gas leak at Texas oil refinery prompts evacuation'
p415
sa(dp416
g2
S'http://www.reuters.com/article/2011/01/29/us-tampa-murders-idUSTRE70S2M920110129'
p417
sg4
S'20110129\xc2\xa01:26PM UTC'
p418
sg6
S'Mother who murdered teenaged kids taken to hospital'
p419
sa(dp420
g2
S'http://www.reuters.com/article/2011/01/29/us-refinery-operations-marathon-texascit-idUSTRE70S38L20110129'
p421
sg4
S'20110129\xc2\xa01:25PM UTC'
p422
sg6
S'No injuries in Marathon Texas City refinery leak'
p423
sa(dp424
g2
S'http://www.reuters.com/article/2011/01/29/refinery-operations-marathon-texascity-idUSN2913008420110129'
p425
sg4
S'20110129\xc2\xa01:25PM UTC'
p426
sg6
S'No injuries in Marathon Texas City refinery leak'
p427
sa(dp428
g2
S'http://www.reuters.com/article/2011/01/29/us-haiti-election-idUSTRE70S36V20110129'
p429
sg4
S'20110129\xc2\xa01:07PM UTC'
p430
sg6
S'Haiti to release election results'
p431
sa(dp432
g2
S'http://www.reuters.com/article/2011/01/29/us-tunisia-idUSTRE70J0IG20110129'
p433
sg4
S'20110129\xc2\xa01:04PM UTC'
p434
sg6
S'Tunis shopkeepers turn against protesters'
p435
sa(dp436
g2
S'http://www.reuters.com/article/2011/01/29/us-tunisia-protests-islamist-interview-idUSTRE70S2YI20110129'
p437
sg4
S'20110129\xc2\xa01:04PM UTC'
p438
sg6
S'Leading Tunisian Islamist wants democracy'
p439
sa(dp440
g2
S'http://www.reuters.com/article/2011/01/29/haiti-election-idUSN2912394220110129'
p441
sg4
S'20110129\xc2\xa01:02PM UTC'
p442
sg6
S'Haiti to release election results, sets runoff date'
p443
sa(dp444
g2
S'http://www.reuters.com/article/2011/01/29/idUS51559+29-Jan-2011+BW20110129'
p445
sg4
S'20110129\xc2\xa01:01PM UTC'
p446
sg6
S'NCKU Hosted Ju Ming`s Taichi Series Press Conference'
p447
sa(dp448
g2
S'http://www.reuters.com/article/2011/01/29/us-ireland-politcis-idUSTRE70S35G20110129'
p449
sg4
S'20110129\xc2\xa01:00PM UTC'
p450
sg6
S'Irish main opposition Fine Gael has big poll lead'
p451
sa(dp452
g2
S'http://www.reuters.com/article/2011/01/29/idUS51506+29-Jan-2011+PRN20110129'
p453
sg4
S'20110129\xc2\xa01:00PM UTC'
p454
sg6
S'Following Is a Test Release'
p455
sa(dp456
g2
S'http://www.reuters.com/article/2011/01/29/weekahead-emea-idUSLDE70S0IL20110129'
p457
sg4
S'20110129\xc2\xa012:58PM UTC'
p458
sg6
S'WEEKAHEAD-The view from Reuters EMEA news editors'
p459
sa(dp460
g2
S'http://www.reuters.com/article/2011/01/29/ireland-politcis-idUSWLA403120110129'
p461
sg4
S'20110129\xc2\xa012:53PM UTC'
p462
sg6
S'Irish main opposition Fine Gael has big poll lead'
p463
sa(dp464
g2
S'http://www.reuters.com/article/2011/01/29/us-egypt-usa-whitehouse-idUSTRE70S33R20110129'
p465
sg4
S'20110129\xc2\xa012:52PM UTC'
p466
sg6
S'Top U.S. officials held 2-hour meeting on Egypt: White House'
p467
sa(dp468
g2
S'http://www.reuters.com/article/2011/01/29/idUS50980+29-Jan-2011+PRN20110129'
p469
sg4
S'20110129\xc2\xa012:46PM UTC'
p470
sg6
S'Blind Man Drives Car Independently'
p471
sa(dp472
g2
S'http://www.reuters.com/article/2011/01/29/egypt-usa-whitehouse-idUSN2923201820110129'
p473
sg4
S'20110129\xc2\xa012:46PM UTC'
p474
sg6
S'Top US officials held 2-hour meeting on Egypt-WHouse'
p475
sa(dp476
g2
S'http://www.reuters.com/article/2011/01/29/us-davos-trade-doha-idUSTRE70S2ZF20110129'
p477
sg4
S'20110129\xc2\xa012:45PM UTC'
p478
sg6
S'Trade ministers order Doha push'
p479
sa(dp480
g2
S'http://www.reuters.com/article/2011/01/29/us-cuba-dissent-idUSTRE70S2YY20110129'
p481
sg4
S'20110129\xc2\xa012:40PM UTC'
p482
sg6
S'Cuban dissident home after arrest'
p483
sa(dp484
g2
S'http://www.reuters.com/article/2011/01/29/idUS50368+29-Jan-2011+PRN20110129'
p485
sg4
S'20110129\xc2\xa012:30PM UTC'
p486
sg6
S'Following Is a Test Release'
p487
sa(dp488
g2
S'http://www.reuters.com/article/2011/01/29/idUS50358+29-Jan-2011+BW20110129'
p489
sg4
S'20110129\xc2\xa012:30PM UTC'
p490
sg6
S'Research and Markets: Carpets (Wall-to-Wall) - Global Strategic Business Report 2010 Edition Provides Annual Estimates and Forecasts from 2007 up to 2015'
p491
sa(dp492
g2
S'http://www.reuters.com/article/2011/01/29/soccer-asian-final-idUSL3E7CT04320110129'
p493
sg4
S'20110129\xc2\xa012:29PM UTC'
p494
sg6
S'Soccer-Japan beat Australia to win record fourth Asian Cup title'
p495
sa(dp496
g2
S'http://www.reuters.com/article/2011/01/29/idUS49380+29-Jan-2011+PRN20110129'
p497
sg4
S'20110129\xc2\xa012:00PM UTC'
p498
sg6
S'Following Is a Test Release'
p499
sa(dp500
g2
S'http://www.reuters.com/article/2011/01/29/idUS49374+29-Jan-2011+BW20110129'
p501
sg4
S'20110129\xc2\xa012:00PM UTC'
p502
sg6
S'Research and Markets: Performance Apparel Markets: Product Developments and Innovations, 4th Quarter 2010 Edition Highlights a Number of Developments'
p503
sa(dp504
g2
S'http://www.reuters.com/article/2011/01/29/egypt-protests-army-idUSLDE70S0HR20110129'
p505
sg4
S'20110129\xc2\xa011:59AM UTC'
p506
sg6
S'Army calls Egyptians to abide by curfew'
p507
sa(dp508
g2
S'http://www.reuters.com/article/2011/01/29/davos-look-idUSLDE70S02H20110129'
p509
sg4
S'20110129\xc2\xa011:57AM UTC'
p510
sg6
S'TAKE A LOOK-World Economic Forum in Davos'
p511
sa(dp512
g2
S'http://www.reuters.com/article/2011/01/29/davos-trade-doha-idUSLDE70S0G420110129'
p513
sg4
S'20110129\xc2\xa011:56AM UTC'
p514
sg6
S'DAVOS-UPDATE 1-Trade ministers order Doha push, compromises'
p515
sa(dp516
g2
S'http://www.reuters.com/article/2011/01/29/davos-tunisia-idUSN2912820620110129'
p517
sg4
S'20110129\xc2\xa011:55AM UTC'
p518
sg6
S'DAVOS-Stay in our economy and out of our politics-Tunisia'
p519
sa(dp520
g2
S'http://www.reuters.com/article/2011/01/29/us-comcast-nbc-idUSTRE70S2WZ20110129'
p521
sg4
S'20110129\xc2\xa011:50AM UTC'
p522
sg6
S'Comcast completes NBC Universal merger'
p523
sa(dp524
g2
S'http://www.reuters.com/article/2011/01/29/egypt-speaker-election-idUSLDE70S0H620110129'
p525
sg4
S'20110129\xc2\xa011:47AM UTC'
p526
sg6
S'No plan for early Egypt election-parliament speaker'
p527
sa(dp528
g2
S'http://www.reuters.com/article/2011/01/29/comcast-nbc-idUSN2912549620110129'
p529
sg4
S'20110129\xc2\xa011:46AM UTC'
p530
sg6
S'Comcast completes NBC Universal merger'
p531
sa(dp532
g2
S'http://www.reuters.com/article/2011/01/29/ubs-image-idUSLDE70R1E220110129'
p533
sg4
S'20110129\xc2\xa011:44AM UTC'
p534
sg6
S'UBS woos back Swiss clients with branch revamps'
p535
sa(dp536
g2
S'http://www.reuters.com/article/2011/01/29/us-egypt-prison-idUSTRE70S2VI20110129'
p537
sg4
S'20110129\xc2\xa011:42AM UTC'
p538
sg6
S'Prisoners and police clash at Cairo prison, 8 dead'
p539
sa(dp540
g2
S'http://www.reuters.com/article/2011/01/29/us-egypt-shafiq-idUSTRE70S2TC20110129'
p541
sg4
S'20110129\xc2\xa011:35AM UTC'
p542
sg6
S"Factbox: Afhed Shafiq appointed Egypt's prime minister"
p543
sa(dp544
g2
S'http://www.reuters.com/article/2011/01/29/idUS48060+29-Jan-2011+PRN20110129'
p545
sg4
S'20110129\xc2\xa011:30AM UTC'
p546
sg6
S'Following Is a Test Release'
p547
sa(dp548
g2
S'http://www.reuters.com/article/2011/01/29/idUS48053+29-Jan-2011+BW20110129'
p549
sg4
S'20110129\xc2\xa011:30AM UTC'
p550
sg6
S'Research and Markets: Pneumococcal and Meningococcal Vaccines: Market Forecast: The Launch of Pfizers Prevnar 13 for Adults Is Anticipated In 2011'
p551
sa(dp552
g2
S'http://www.reuters.com/article/2011/01/29/figure-skating-women-standings-idUSISS39963220110129'
p553
sg4
S'20110129\xc2\xa011:29AM UTC'
p554
sg6
S"Figure Skating-European championships women's results"
p555
sa(dp556
g2
S'http://www.reuters.com/article/2011/01/29/us-davos-indonesia-idUSTRE70S2R620110129'
p557
sg4
S'20110129\xc2\xa011:27AM UTC'
p558
sg6
S'Indonesia hopes for investment grade rating 2011'
p559
sa(dp560
g2
S'http://www.reuters.com/article/2011/01/29/davos-indonesia-idUSWLA402920110129'
p561
sg4
S'20110129\xc2\xa011:26AM UTC'
p562
sg6
S'DAVOS-Indonesia hopes for investment grade rating 2011'
p563
sa(dp564
g2
S'http://www.reuters.com/article/2011/01/29/figure-skating-women-free-results-idUSISS39912120110129'
p565
sg4
S'20110129\xc2\xa011:24AM UTC'
p566
sg6
S"Figure Skating-European championships women's results"
p567
sa(dp568
g2
S'http://www.reuters.com/article/2011/01/29/us-porsche-lawsuit-idUSTRE70S2QQ20110129'
p569
sg4
S'20110129\xc2\xa011:23AM UTC'
p570
sg6
S'Hedge funds appeal dismissed $2 billion suit vs Porsche'
p571
sa(dp572
g2
S'http://www.reuters.com/article/2011/01/29/us-egypt-government-trib-idUSTRE70S2P620110129'
p573
sg4
S'20110129\xc2\xa011:22AM UTC'
p574
sg6
S'Egypt appoints former air force commander as PM'
p575
sa(dp576
g2
S'http://www.reuters.com/article/2011/01/29/porsche-lawsuit-idUSN2912316420110129'
p577
sg4
S'20110129\xc2\xa011:22AM UTC'
p578
sg6
S'Hedge funds appeal dismissed $2 bln suit vs Porsche'
p579
sa(dp580
g2
S'http://www.reuters.com/article/2011/01/29/idUS47634+29-Jan-2011+PRN20110129'
p581
sg4
S'20110129\xc2\xa011:21AM UTC'
p582
sg6
S'Regal Beloit Declares Dividend'
p583
sa(dp584
g2
S'http://www.reuters.com/article/2011/01/29/us-egypt-government-idUSTRE70S2PS20110129'
p585
sg4
S'20110129\xc2\xa011:20AM UTC'
p586
sg6
S'Egypt appoints former air force commander as PM'
p587
sa(dp588
g2
S'http://www.reuters.com/article/2011/01/29/us-davos-tunisia-idUSTRE70S2PD20110129'
p589
sg4
S'20110129\xc2\xa011:19AM UTC'
p590
sg6
S'Stay in our economy and out of our politics: Tunisia'
p591
sa(dp592
g2
S'http://www.reuters.com/article/2011/01/29/davos-kirk-idUSN2912575020110129'
p593
sg4
S'20110129\xc2\xa011:17AM UTC'
p594
sg6
S'DAVOS-UPDATE 1-U.S. hails new Doha negotiating dynamic'
p595
sa(dp596
g2
S'http://www.reuters.com/article/2011/01/29/us-egypt-security-idUSTRE70S2OH20110129'
p597
sg4
S'20110129\xc2\xa011:17AM UTC'
p598
sg6
S'Egypt residents panic over public security'
p599
sa(dp600
g2
S'http://www.reuters.com/article/2011/01/29/davos-tunisia-idUSLDE70S0ES20110129'
p601
sg4
S'20110129\xc2\xa011:16AM UTC'
p602
sg6
S'DAVOS-Stay in our economy and out of our politics-Tunisia'
p603
sa(dp604
g2
S'http://www.reuters.com/article/2011/01/29/egypt-government-idUSLDE70S0GI20110129'
p605
sg4
S'20110129\xc2\xa011:16AM UTC'
p606
sg6
S'Egypt appoints former air force commander as PM'
p607
sa(dp608
g2
S'http://www.reuters.com/article/2011/01/29/egypt-security-idUSLDE70S0GO20110129'
p609
sg4
S'20110129\xc2\xa011:16AM UTC'
p610
sg6
S'Egypt residents panic over public security'
p611
sa(dp612
g2
S'http://www.reuters.com/article/2011/01/29/egypt-israel-idUSLDE70S0GK20110129'
p613
sg4
S'20110129\xc2\xa011:16AM UTC'
p614
sg6
S'Families of Israeli diplomats evacuated from Egypt'
p615
sa(dp616
g2
S'http://www.reuters.com/article/2011/01/29/us-davos-iea-idUSTRE70S2NQ20110129'
p617
sg4
S'20110129\xc2\xa011:15AM UTC'
p618
sg6
S'IEA calls on OPEC to be flexible, watch Egypt'
p619
sa(dp620
g2
S'http://www.reuters.com/article/2011/01/29/davos-iea-idUSN2912523820110129'
p621
sg4
S'20110129\xc2\xa011:14AM UTC'
p622
sg6
S'DAVOS-IEA calls on OPEC to be flexible, watch Egypt'
p623
sa(dp624
g2
S'http://www.reuters.com/article/2011/01/29/davos-protests-idUSN2910483820110129'
p625
sg4
S'20110129\xc2\xa011:09AM UTC'
p626
sg6
S'DAVOS-Anti-capitalist protesters fight police in town'
p627
sa(dp628
g2
S'http://www.reuters.com/article/2011/01/29/us-davos-economy-osborne-idUSTRE70S2LZ20110129'
p629
sg4
S'20110129\xc2\xa011:08AM UTC'
p630
sg6
S'UK\'s Osborne says will only do "good" deal with banks'
p631
sa(dp632
g2
S'http://www.reuters.com/article/2011/01/29/us-yemen-idUSTRE70S2LL20110129'
p633
sg4
S'20110129\xc2\xa011:07AM UTC'
p634
sg6
S'Ruling party urges talks in Yemen to halt protests'
p635
sa(dp636
g2
S'http://www.reuters.com/article/2011/01/29/davos-kirk-idUSN2917950220110129'
p637
sg4
S'20110129\xc2\xa011:07AM UTC'
p638
sg6
S'DAVOS-US yet to see substantive progress in Doha talks'
p639
sa(dp640
g2
S'http://www.reuters.com/article/2011/01/29/davos-mood-idUSN2912475020110129'
p641
sg4
S'20110129\xc2\xa011:06AM UTC'
p642
sg6
S'DAVOS-Lobster in the mountains, riots on the Nile'
p643
sa(dp644
g2
S'http://www.reuters.com/article/2011/01/29/davos-financial-regulation-idUSN2912399820110129'
p645
sg4
S'20110129\xc2\xa011:01AM UTC'
p646
sg6
S'DAVOS-Bankers play contrite, offer olive branch at Forum'
p647
sa(dp648
g2
S'http://www.reuters.com/article/2011/01/29/idUS46737+29-Jan-2011+PRN20110129'
p649
sg4
S'20110129\xc2\xa011:00AM UTC'
p650
sg6
S'Following Is a Test Release'
p651
sa(dp652
g2
S'http://www.reuters.com/article/2011/01/29/idUS46720+29-Jan-2011+BW20110129'
p653
sg4
S'20110129\xc2\xa011:00AM UTC'
p654
sg6
S'Research and Markets: Orthopedics Market: Market Growing by 5-7% Annually'
p655
sa(dp656
g2
S'http://www.reuters.com/article/2011/01/29/idUS46717+29-Jan-2011+BW20110129'
p657
sg4
S'20110129\xc2\xa011:00AM UTC'
p658
sg6
S'Research and Markets: Project Management Essentials - (PMBOK Guide - Fourth Edition-aligned)'
p659
sa(dp660
g2
S'http://www.reuters.com/article/2011/01/29/idUS46714+29-Jan-2011+BW20110129'
p661
sg4
S'20110129\xc2\xa011:00AM UTC'
p662
sg6
S'Research and Markets: Cheese Manufacturing Industry in the US and its International Trade [2010 Year-End Edition]'
p663
sa(dp664
g2
S'http://www.reuters.com/article/2011/01/29/idUS46727+29-Jan-2011+BW20110129'
p665
sg4
S'20110129\xc2\xa011:00AM UTC'
p666
sg6
S'COMCAST Y GE CIERRAN LA TRANSACCI\xc3\x93N PARA CREAR NBCUNIVERSAL, LLC'
p667
sa(dp668
g2
S'http://www.reuters.com/article/2011/01/29/idUS46724+29-Jan-2011+BW20110129'
p669
sg4
S'20110129\xc2\xa011:00AM UTC'
p670
sg6
S'Comcast and GE Complete Transaction to Form NBCUniversal, LLC'
p671
sa(dp672
g2
S'http://www.reuters.com/article/2011/01/29/davos-policymakers-idUSN2910704720110129'
p673
sg4
S'20110129\xc2\xa010:59AM UTC'
p674
sg6
S'DAVOS FOCUS-Despite the party, global policymakers poles apart'
p675
sa(dp676
g2
S'http://www.reuters.com/article/2011/01/29/davos-egypt-japan-idUSN299619820110129'
p677
sg4
S'20110129\xc2\xa010:57AM UTC'
p678
sg6
S'DAVOS-UPDATE 1-Japan PM urges Mubarak dialogue with Egyptians'
p679
sa(dp680
g2
S'http://www.reuters.com/article/2011/01/29/davos-opec-idUSN2915693820110129'
p681
sg4
S'20110129\xc2\xa010:56AM UTC'
p682
sg6
S'DAVOS-No call for emergency OPEC meeting -Iran OPEC gov'
p683
sa(dp684
g2
S'http://www.reuters.com/article/2011/01/29/davos-economy-osborne-idUSN2912317420110129'
p685
sg4
S'20110129\xc2\xa010:54AM UTC'
p686
sg6
S'DAVOS-UK\'s Osborne says will only do "good" deal with banks'
p687
sa(dp688
g2
S'http://www.reuters.com/article/2011/01/29/davos-eurozone-idUSN2911266420110129'
p689
sg4
S'20110129\xc2\xa010:53AM UTC'
p690
sg6
S'DAVOS-WRAPUP 1-Euro zone crisis seen turning corner'
p691
sa(dp692
g2
S'http://www.reuters.com/article/2011/01/29/us-davos-kirk-idUSTRE70S29220110129'
p693
sg4
S'20110129\xc2\xa010:47AM UTC'
p694
sg6
S'U.S. hails new Doha negotiating dynamic'
p695
sa(dp696
g2
S'http://www.reuters.com/article/2011/01/29/us-egypt-suleiman-trib-idUSTRE70S2J920110129'
p697
sg4
S'20110129\xc2\xa010:44AM UTC'
p698
sg6
S'Factbox: Omar Suleiman, new Egyptian vice-president'
p699
sa(dp700
g2
S'http://www.reuters.com/article/2011/01/29/davos-kirk-idUSLDE70S0E720110129'
p701
sg4
S'20110129\xc2\xa010:44AM UTC'
p702
sg6
S'DAVOS-UPDATE 1-U.S. hails new Doha negotiating dynamic'
p703
sa(dp704
g2
S'http://www.reuters.com/article/2011/01/29/us-egypt-suleiman-idUSTRE70S2J120110129'
p705
sg4
S'20110129\xc2\xa010:44AM UTC'
p706
sg6
S'Factbox: Omar Suleiman, new Egyptian vice-president'
p707
sa(dp708
g2
S'http://www.reuters.com/article/2011/01/29/davos-egypt-japan-idUSN2912192920110129'
p709
sg4
S'20110129\xc2\xa010:43AM UTC'
p710
sg6
S'DAVOS-Japan PM urges Mubarak to talk to people'
p711
sa(dp712
g2
S'http://www.reuters.com/article/2011/01/29/egypt-suleiman-idUSLDE62G0TJ20110129'
p713
sg4
S'20110129\xc2\xa010:43AM UTC'
p714
sg6
S'FACTBOX-Omar Suleiman, new Egyptian vice-president'
p715
sa(dp716
g2
S'http://www.reuters.com/article/2011/01/29/us-egypt-ministry-idUSTRE70S1VA20110129'
p717
sg4
S'20110129\xc2\xa010:42AM UTC'
p718
sg6
S'Five protesters wounded at Egyptian ministry: source'
p719
sa(dp720
g2
S'http://www.reuters.com/article/2011/01/29/davos-trade-doha-idUSN2912137320110129'
p721
sg4
S'20110129\xc2\xa010:41AM UTC'
p722
sg6
S'DAVOS-Trade ministers review Doha deal push'
p723
sa(dp724
g2
S'http://www.reuters.com/article/2011/01/29/us-egypt-usa-crowley-idUSTRE70S2IC20110129'
p725
sg4
S'20110129\xc2\xa010:41AM UTC'
p726
sg6
S'Egypt cannot "shuffle the deck" and "stand pat": U.S.'
p727
sa(dp728
g2
S'http://www.reuters.com/article/2011/01/29/us-egypt-vice-president-idUSTRE70S2E620110129'
p729
sg4
S'20110129\xc2\xa010:38AM UTC'
p730
sg6
S"Egypt's Mubarak picks vice-president for first time"
p731
sa(dp732
g2
S'http://www.reuters.com/article/2011/01/29/us-egypt-vice-president-trib-idUSTRE70S2EO20110129'
p733
sg4
S'20110129\xc2\xa010:38AM UTC'
p734
sg6
S"Egypt's Mubarak picks vice-president for first time"
p735
sa(dp736
g2
S'http://www.reuters.com/article/2011/01/29/egypt-usa-crowley-idUSN2911552420110129'
p737
sg4
S'20110129\xc2\xa010:38AM UTC'
p738
sg6
S"Egypt cannot 'shuffle the deck' and 'stand pat'-US"
p739
sa(dp740
g2
S'http://www.reuters.com/article/2011/01/29/davos-economy-osborne-idUSN2912028120110129'
p741
sg4
S'20110129\xc2\xa010:37AM UTC'
p742
sg6
S'DAVOS-Osborne says UK corps should spend spare cash'
p743
sa(dp744
g2
S'http://www.reuters.com/article/2011/01/29/egypt-vice-president-idUSLDE70S0FL20110129'
p745
sg4
S'20110129\xc2\xa010:34AM UTC'
p746
sg6
S'UPDATE 1-Egypt Mubarak picks vice-president for first time'
p747
sa(dp748
g2
S'http://www.reuters.com/article/2011/01/29/davos-iea-idUSLDE70S0FK20110129'
p749
sg4
S'20110129\xc2\xa010:34AM UTC'
p750
sg6
S'DAVOS-IEA calls on OPEC to be flexible, watch Egypt'
p751
sa(dp752
g2
S'http://www.reuters.com/article/2011/01/29/davos-iea-idUSLDE70S0DR20110129'
p753
sg4
S'20110129\xc2\xa010:34AM UTC'
p754
sg6
S'DAVOS-IEA calls on OPEC to be flexible, watch Egypt'
p755
sa(dp756
g2
S'http://www.reuters.com/article/2011/01/29/britain-egypt-flight-idUSLDE70S0F220110129'
p757
sg4
S'20110129\xc2\xa010:33AM UTC'
p758
sg6
S'UPDATE 1-British airlines alter flights due to Egypt unrest'
p759
sa(dp760
g2
S'http://www.reuters.com/article/2011/01/29/us-davos-trade-russia-idUSTRE70S2FL20110129'
p761
sg4
S'20110129\xc2\xa010:32AM UTC'
p762
sg6
S'Lamy says Russia could enter WTO in 2011'
p763
sa(dp764
g2
S'http://www.reuters.com/article/2011/01/29/egypt-omar-sworn-idUSLDE70S0FA20110129'
p765
sg4
S'20110129\xc2\xa010:32AM UTC'
p766
sg6
S"Omar Suleiman sworn in as Egypt's vice president"
p767
sa(dp768
g2
S'http://www.reuters.com/article/2011/01/29/davos-trade-russia-idUSLDE70S0EH20110129'
p769
sg4
S'20110129\xc2\xa010:31AM UTC'
p770
sg6
S'DAVOS-Lamy says Russia could enter WTO in 2011'
p771
sa(dp772
g2
S'http://www.reuters.com/article/2011/01/29/idUS45429+29-Jan-2011+MW20110129'
p773
sg4
S'20110129\xc2\xa010:30AM UTC'
p774
sg6
S' OFL: Thousands Gather in Hamilton for Largest Anti-Harper Protest Ever'
p775
sa(dp776
g2
S'http://www.reuters.com/article/2011/01/29/idUS45423+29-Jan-2011+PRN20110129'
p777
sg4
S'20110129\xc2\xa010:30AM UTC'
p778
sg6
S'Following Is a Test Release'
p779
sa(dp780
g2
S'http://www.reuters.com/article/2011/01/29/egypt-vice-president-idUSLDE70S0F120110129'
p781
sg4
S'20110129\xc2\xa010:21AM UTC'
p782
sg6
S"Egypt's Mubarak picks vice-president for first time"
p783
sa(dp784
g2
S'http://www.reuters.com/article/2011/01/29/us-iran-arrest-moderate-idUSTRE70S21Q20110129'
p785
sg4
S'20110129\xc2\xa010:21AM UTC'
p786
sg6
S'Iran briefly detains son of opposition leader: report'
p787
sa(dp788
g2
S'http://www.reuters.com/article/2011/01/29/us-panamericano-idUSTRE70S2DE20110129'
p789
sg4
S'20110129\xc2\xa010:20AM UTC'
p790
sg6
S"Exclusive: Pactual to take over Brazil's PanAmericano: source"
p791
sa(dp792
g2
S'http://www.reuters.com/article/2011/01/29/us-egypt-analysts-idUSTRE70S2CZ20110129'
p793
sg4
S'20110129\xc2\xa010:16AM UTC'
p794
sg6
S"Factbox: Analysts' reaction to Egyptian protests"
p795
sa(dp796
g2
S'http://www.reuters.com/article/2011/01/29/us-egypt-brotherhood-helbawy-interview-idUSTRE70S2CB20110129'
p797
sg4
S'20110129\xc2\xa010:13AM UTC'
p798
sg6
S"Egypt's Brotherhood is no threat to West: Islamist"
p799
sa(dp800
g2
S'http://www.reuters.com/article/2011/01/29/retire-us-daimler-idUSTRE70S2C320110129'
p801
sg4
S'20110129\xc2\xa010:11AM UTC'
p802
sg6
S'Daimler upbeat about January Mercedes-Benz sales'
p803
sa(dp804
g2
S'http://www.reuters.com/article/2011/01/29/daimler-idUSLDE70S0CE20110129'
p805
sg4
S'20110129\xc2\xa010:10AM UTC'
p806
sg6
S'UPDATE 1-Daimler upbeat about January Mercedes-Benz sales'
p807
sa(dp808
g2
S'http://www.reuters.com/article/2011/01/29/davos-protests-idUSLDE70S0EF20110129'
p809
sg4
S'20110129\xc2\xa010:05AM UTC'
p810
sg6
S'DAVOS-Anti-capitalist protesters fight police in town'
p811
sa(dp812
g2
S'http://www.reuters.com/article/2011/01/29/us-egypt-world-idUSTRE70S2B920110129'
p813
sg4
S'20110129\xc2\xa010:05AM UTC'
p814
sg6
S'Factbox: International reaction to Egyptian protests'
p815
sa(dp816
g2
S'http://www.reuters.com/article/2011/01/29/us-egypt-world-fb-idUSTRE70S2B120110129'
p817
sg4
S'20110129\xc2\xa010:04AM UTC'
p818
sg6
S'Factbox: International reaction to Egyptian protests'
p819
sa(dp820
g2
S'http://www.reuters.com/article/2011/01/29/idUS44207+29-Jan-2011+BW20110129'
p821
sg4
S'20110129\xc2\xa010:01AM UTC'
p822
sg6
S'Bull & Lifshitz, LLP Announces Investigation of the Acquisition of Genoptix, Inc.'
p823
sa(dp824
g2
S'http://www.reuters.com/article/2011/01/29/idUS44204+29-Jan-2011+BW20110129'
p825
sg4
S'20110129\xc2\xa010:01AM UTC'
p826
sg6
S'Bull & Lifshitz, LLP Announces Investigation of the Acquisition of Smurfit-Stone Container Corporation'
p827
sa(dp828
g2
S'http://www.reuters.com/article/2011/01/29/idUS44186+29-Jan-2011+PRN20110129'
p829
sg4
S'20110129\xc2\xa010:00AM UTC'
p830
sg6
S'Following Is a Test Release'
p831
sa(dp832
g2
S'http://www.reuters.com/article/2011/01/29/davos-japan-budget-idUSLDE70S0E620110129'
p833
sg4
S'20110129\xc2\xa09:56AM UTC'
p834
sg6
S'DAVOS-Japan must correct revenue/debt gap: trade minister'
p835
sa(dp836
g2
S'http://www.reuters.com/article/2011/01/29/idUS43854+29-Jan-2011+PRN20110129'
p837
sg4
S'20110129\xc2\xa09:51AM UTC'
p838
sg6
S'Employers Must Engage Workforce at the Human Level to Gain Competitive Advantage in War for Talents'
p839
sa(dp840
g2
S'http://www.reuters.com/article/2011/01/29/us-egypt-protest-bank-idUSTRE70S2AA20110129'
p841
sg4
S'20110129\xc2\xa09:50AM UTC'
p842
sg6
S'Army repel protesters at Egypt central bank related building'
p843
sa(dp844
g2
S'http://www.reuters.com/article/2011/01/29/us-palestinians-israel-violence-idUSTRE70S29B20110129'
p845
sg4
S'20110129\xc2\xa09:47AM UTC'
p846
sg6
S'Mourners, Israel troops clash after West Bank funeral'
p847
sa(dp848
g2
S'http://www.reuters.com/article/2011/01/29/egypt-protest-bank-idUSLDE70S0DM20110129'
p849
sg4
S'20110129\xc2\xa09:47AM UTC'
p850
sg6
S'Army repel protesters at Egypt c.bank related building'
p851
sa(dp852
g2
S'http://www.reuters.com/article/2011/01/29/britain-egypt-flight-idUSLDE70S0DP20110129'
p853
sg4
S'20110129\xc2\xa09:46AM UTC'
p854
sg6
S'British flight to Cairo turns back because of unrest'
p855
sa(dp856
g2
S'http://www.reuters.com/article/2011/01/29/us-rwanda-explosion-idUSTRE70S28I20110129'
p857
sg4
S'20110129\xc2\xa09:44AM UTC'
p858
sg6
S'Rwanda grenade attack kills two people, wounds 28'
p859
sa(dp860
g2
S'http://www.reuters.com/article/2011/01/29/davos-kirk-idUSLDE70S0CQ20110129'
p861
sg4
S'20110129\xc2\xa09:44AM UTC'
p862
sg6
S'DAVOS-US yet to see substantive progress in Doha talks'
p863
sa(dp864
g2
S'http://www.reuters.com/article/2011/01/29/us-davos-mood-idUSTRE70S27D20110129'
p865
sg4
S'20110129\xc2\xa09:40AM UTC'
p866
sg6
S'Lobster in the mountains, riots on the Nile'
p867
sa(dp868
g2
S'http://www.reuters.com/article/2011/01/29/davos-mood-idUSLDE70S07720110129'
p869
sg4
S'20110129\xc2\xa09:38AM UTC'
p870
sg6
S'DAVOS-Lobster in the mountains, riots on the Nile'
p871
sa(dp872
g2
S'http://www.reuters.com/article/2011/01/29/egypt-ministry-jazeera-idUSLDE70S0D120110129'
p873
sg4
S'20110129\xc2\xa09:34AM UTC'
p874
sg6
S'Police kill at least 3 protesters at Egypt ministry-TV'
p875
sa(dp876
g2
S'http://www.reuters.com/article/2011/01/29/us-egypt-politician-trib-idUSTRE70S20Z20110129'
p877
sg4
S'20110129\xc2\xa09:31AM UTC'
p878
sg6
S'Egypt magnate-cum-politician quits Mubarak party: report'
p879
sa(dp880
g2
S'http://www.reuters.com/article/2011/01/29/idUS42665+29-Jan-2011+PRN20110129'
p881
sg4
S'20110129\xc2\xa09:30AM UTC'
p882
sg6
S'Following Is a Test Release'
p883
sa(dp884
g2
S'http://www.reuters.com/article/2011/01/29/alpine-skiing-men-standings-idUSISS39295520110129'
p885
sg4
S'20110129\xc2\xa09:25AM UTC'
p886
sg6
S"Alpine Skiing-Men's World Cup standings"
p887
sa(dp888
g2
S'http://www.reuters.com/article/2011/01/29/us-tennis-open-women-idUSTRE70S1AM20110129'
p889
sg4
S'20110129\xc2\xa09:23AM UTC'
p890
sg6
S'"Aussie Kim" shatters Chinese dream'
p891
sa(dp892
g2
S'http://www.reuters.com/article/2011/01/29/us-tennis-open-clijsters-quotes-idUSTRE70S25920110129'
p893
sg4
S'20110129\xc2\xa09:23AM UTC'
p894
sg6
S'I\'m "Aussie Kim" now, says champion Clijsters'
p895
sa(dp896
g2
S'http://www.reuters.com/article/2011/01/29/us-egypt-curfew-passed-idUSTRE70S24020110129'
p897
sg4
S'20110129\xc2\xa09:18AM UTC'
p898
sg6
S'Protesters defy Egypt curfew and stay on streets'
p899
sa(dp900
g2
S'http://www.reuters.com/article/2011/01/29/us-centralafrican-election-idUSTRE70S22Z20110129'
p901
sg4
S'20110129\xc2\xa09:16AM UTC'
p902
sg6
S'Central African Republic candidates say poll rigged'
p903
sa(dp904
g2
S'http://www.reuters.com/article/2011/01/29/egypt-curfew-passed-idUSLDE70S0CI20110129'
p905
sg4
S'20110129\xc2\xa09:14AM UTC'
p906
sg6
S'Protesters defy Egypt curfew and stay on streets'
p907
sa(dp908
g2
S'http://www.reuters.com/article/2011/01/29/us-tennis-open-li-idUSTRE70S22C20110129'
p909
sg4
S'20110129\xc2\xa09:13AM UTC'
p910
sg6
S"Don't teach me how to play tennis, Li tells Chinese fans"
p911
sa(dp912
g2
S'http://www.reuters.com/article/2011/01/29/iran-arrest-moderate-idUSHAF95085420110129'
p913
sg4
S'20110129\xc2\xa09:11AM UTC'
p914
sg6
S'Iran arrests son of opposition leader - report'
p915
sa(dp916
g2
S'http://www.reuters.com/article/2011/01/29/alpine-skiing-men-result-idUSISS39055620110129'
p917
sg4
S'20110129\xc2\xa09:10AM UTC'
p918
sg6
S"Alpine Skiing-Men's World Cup Chamonix downhill result"
p919
sa(dp920
g2
S'http://www.reuters.com/article/2011/01/29/us-egypt-politician-idUSTRE70S21820110129'
p921
sg4
S'20110129\xc2\xa09:09AM UTC'
p922
sg6
S'Egypt magnate-cum-politician quits Mubarak party: report'
p923
sa(dp924
g2
S'http://www.reuters.com/article/2011/01/29/omega-idUSLDE70S0CC20110129'
p925
sg4
S'20110129\xc2\xa09:08AM UTC'
p926
sg6
S"Belgium's Omega planning acquisitions -paper"
p927
sa(dp928
g2
S'http://www.reuters.com/article/2011/01/29/us-davos-china-idUSTRE70S20720110129'
p929
sg4
S'20110129\xc2\xa09:01AM UTC'
p930
sg6
S'China GDP to grow at least 9.5 percent: central bank adviser'
p931
sa(dp932
g2
S'http://www.reuters.com/article/2011/01/29/egypt-politician-idUSLDE70S0C720110129'
p933
sg4
S'20110129\xc2\xa09:01AM UTC'
p934
sg6
S'Egypt magnate-cum-politician quits Mubarak party-TV'
p935
sa(dp936
g2
S'http://www.reuters.com/article/2011/01/29/davos-china-idUSLDE70S0C520110129'
p937
sg4
S'20110129\xc2\xa09:00AM UTC'
p938
sg6
S'DAVOS-China GDP to grow at least 9.5 pct-c.bnk adviser'
p939
sa(dp940
g2
S'http://www.reuters.com/article/2011/01/29/idUS41488+29-Jan-2011+PRN20110129'
p941
sg4
S'20110129\xc2\xa09:00AM UTC'
p942
sg6
S'Following Is a Test Release'
p943
sa(dp944
g2
S'http://www.reuters.com/article/2011/01/29/fielmann-idUSLDE70S0AQ20110129'
p945
sg4
S'20110129\xc2\xa08:59AM UTC'
p946
sg6
S'Fielmann CEO says may expand Japanese JV - paper'
p947
sa(dp948
g2
S'http://www.reuters.com/article/2011/01/29/us-egypt-museum-idUSTRE70S1YU20110129'
p949
sg4
S'20110129\xc2\xa08:57AM UTC'
p950
sg6
S'Looters destroy mummies in Egyptian Museum: official'
p951
sa(dp952
g2
S'http://www.reuters.com/article/2011/01/29/us-russia-airport-idUSTRE70S1LU20110129'
p953
sg4
S'20110129\xc2\xa08:56AM UTC'
p954
sg6
S'Russia says Moscow airport bomber from North Caucasus'
p955
sa(dp956
g2
S'http://www.reuters.com/article/2011/01/29/egypt-cleric-idUSLDE70S0BA20110129'
p957
sg4
S'20110129\xc2\xa08:55AM UTC'
p958
sg6
S'Cleric tells Egypt protesters bloodshed banned'
p959
sa(dp960
g2
S'http://www.reuters.com/article/2011/01/29/us-egypt-cleric-idUSTRE70S1XS20110129'
p961
sg4
S'20110129\xc2\xa08:54AM UTC'
p962
sg6
S'Cleric tells Egypt protesters bloodshed banned'
p963
sa(dp964
g2
S'http://www.reuters.com/article/2011/01/29/egypt-cleric-idUSLDE70S0C120110129'
p965
sg4
S'20110129\xc2\xa08:53AM UTC'
p966
sg6
S'Cleric tells Egypt protesters bloodshed banned'
p967
sa(dp968
g2
S'http://www.reuters.com/article/2011/01/29/us-davos-financial-regulation-idUSTRE70S1WM20110129'
p969
sg4
S'20110129\xc2\xa08:50AM UTC'
p970
sg6
S'Bankers play contrite, offer olive branch at Forum'
p971
sa(dp972
g2
S'http://www.reuters.com/article/2011/01/29/davos-financial-regulation-idUSLDE70S06R20110129'
p973
sg4
S'20110129\xc2\xa08:47AM UTC'
p974
sg6
S'DAVOS-Bankers play contrite, offer olive branch at Forum'
p975
sa(dp976
g2
S'http://www.reuters.com/article/2011/01/29/egypt-ministry-idUSLDE70S0BK20110129'
p977
sg4
S'20110129\xc2\xa08:37AM UTC'
p978
sg6
S'Egypt police open fire on protesters at ministry - TV'
p979
sa(dp980
g2
S'http://www.reuters.com/article/2011/01/29/us-egypt-central-bank-idUSTRE70S1OO20110129'
p981
sg4
S'20110129\xc2\xa08:36AM UTC'
p982
sg6
S'Egypt banks will not open on Sunday: central bank'
p983
sa(dp984
g2
S'http://www.reuters.com/article/2011/01/29/egypt-central-bank-idUSLDE70S0AO20110129'
p985
sg4
S'20110129\xc2\xa08:36AM UTC'
p986
sg6
S'UPDATE 1-Egypt banks will not open on Sunday-central bank'
p987
sa(dp988
g2
S'http://www.reuters.com/article/2011/01/29/idUS40342+29-Jan-2011+PRN20110129'
p989
sg4
S'20110129\xc2\xa08:35AM UTC'
p990
sg6
S'DinoDirect.com Offers Gadgets at Unbeatable Prices - Under $4.99'
p991
sa(dp992
g2
S'http://www.reuters.com/article/2011/01/29/idUS40190+29-Jan-2011+PRN20110129'
p993
sg4
S'20110129\xc2\xa08:30AM UTC'
p994
sg6
S'Following Is a Test Release'
p995
sa(dp996
g2
S'http://www.reuters.com/article/2011/01/29/lan-tam-idUSN2911704520110129'
p997
sg4
S'20110129\xc2\xa08:26AM UTC'
p998
sg6
S'Chile competition tribunal probes LAN, TAM merger'
p999
sa(dp1000
g2
S'http://www.reuters.com/article/2011/01/29/us-egypt-elbaradei-newsmaker-idUSTRE70S1TD20110129'
p1001
sg4
S'20110129\xc2\xa08:23AM UTC'
p1002
sg6
S'ElBaradei: from U.N. atom chief to Egypt activist'
p1003
sa(dp1004
g2
S'http://www.reuters.com/article/2011/01/29/us-afghanistan-kandahar-idUSTRE70S0W920110129'
p1005
sg4
S'20110129\xc2\xa08:20AM UTC'
p1006
sg6
S'Suicide bomber kills Kandahar deputy governor'
p1007
sa(dp1008
g2
S'http://www.reuters.com/article/2011/01/29/us-afghanistan-blast-family-idUSTRE70S1SR20110129'
p1009
sg4
S'20110129\xc2\xa08:20AM UTC'
p1010
sg6
S'Kabul suicide attack slays prominent Afghan family'
p1011
sa(dp1012
g2
S'http://www.reuters.com/article/2011/01/29/us-davos-policymakers-idUSTRE70S1S220110129'
p1013
sg4
S'20110129\xc2\xa08:17AM UTC'
p1014
sg6
S'Analysis: Despite the party, global policymakers poles apart'
p1015
sa(dp1016
g2
S'http://www.reuters.com/article/2011/01/29/davos-policymakers-idUSLDE70S0B420110129'
p1017
sg4
S'20110129\xc2\xa08:15AM UTC'
p1018
sg6
S'DAVOS FOCUS-Despite the party, global policymakers poles apart'
p1019
sa(dp1020
g2
S'http://www.reuters.com/article/2011/01/29/davos-policymakers-idUSLDE70R2EN20110129'
p1021
sg4
S'20110129\xc2\xa08:15AM UTC'
p1022
sg6
S'DAVOS FOCUS-Despite the party, global policymakers poles apart'
p1023
sa(dp1024
g2
S'http://www.reuters.com/article/2011/01/29/us-egypt-dead-idUSTRE70S1BV20110129'
p1025
sg4
S'20110129\xc2\xa08:14AM UTC'
p1026
sg6
S"Death toll in Egypt's protests reaches 74: sources"
p1027
sa(dp1028
g2
S'http://www.reuters.com/article/2011/01/29/us-egypt-protests-warning-idUSTRE70S1RK20110129'
p1029
sg4
S'20110129\xc2\xa08:14AM UTC'
p1030
sg6
S"Anyone violating Egypt's curfew will be in danger: state TV"
p1031
sa(dp1032
g2
S'http://www.reuters.com/article/2011/01/29/egypt-protests-warning-idUSLDE70S0AV20110129'
p1033
sg4
S'20110129\xc2\xa08:13AM UTC'
p1034
sg6
S"Anyone violating Egypt's curfew will be in danger - state tv"
p1035
sa(dp1036
g2
S'http://www.reuters.com/article/2011/01/29/us-davos-eurozone-idUSTRE70S1GK20110129'
p1037
sg4
S'20110129\xc2\xa08:11AM UTC'
p1038
sg6
S'Euro zone crisis seen turning corner'
p1039
sa(dp1040
g2
S'http://www.reuters.com/article/2011/01/29/idUS36402569920110129'
p1041
sg4
S'20110129\xc2\xa08:00AM UTC'
p1042
sg6
S'Airline Livery of the Week: Edelweiss Air'
p1043
sa(dp1044
g2
S'http://www.reuters.com/article/2011/01/29/idUS39105+29-Jan-2011+PRN20110129'
p1045
sg4
S'20110129\xc2\xa08:00AM UTC'
p1046
sg6
S'Following Is a Test Release'
p1047
sa(dp1048
g2
S'http://www.reuters.com/article/2011/01/29/idUS39101+29-Jan-2011+PRN20110129'
p1049
sg4
S'20110129\xc2\xa08:00AM UTC'
p1050
sg6
S"Women On The Move 'Feel Love, Show Love, Honor Love' Honoree Celebration Night on Feb. 12"
p1051
sa(dp1052
g2
S'http://www.reuters.com/article/2011/01/29/idUS39084+29-Jan-2011+GNW20110129'
p1053
sg4
S'20110129\xc2\xa07:59AM UTC'
p1054
sg6
S'The Securities Arbitration Law Firm of Klayman & Toskes Files $750,000 Claim Against...'
p1055
sa(dp1056
g2
S'http://www.reuters.com/article/2011/01/29/us-davos-egypt-japan-idUSTRE70S1PT20110129'
p1057
sg4
S'20110129\xc2\xa07:59AM UTC'
p1058
sg6
S'Japan PM urges Mubarak to dialogue with Egyptians'
p1059
sa(dp1060
g2
S'http://www.reuters.com/article/2011/01/29/idUS39020+29-Jan-2011+GNW20110129'
p1061
sg4
S'20110129\xc2\xa07:57AM UTC'
p1062
sg6
S'Notice From the Securities Arbitration Law Firm of Klayman & Toskes to all UBS Customers...'
p1063
sa(dp1064
g2
S'http://www.reuters.com/article/2011/01/29/us-davos-egypt-japan-idUSTRE70S1P720110129'
p1065
sg4
S'20110129\xc2\xa07:53AM UTC'
p1066
sg6
S'Japan PM urges Mubarak dialogue with Egyptians'
p1067
sa(dp1068
g2
S'http://www.reuters.com/article/2011/01/29/davos-egypt-japan-idUSLDE70S09Y20110129'
p1069
sg4
S'20110129\xc2\xa07:52AM UTC'
p1070
sg6
S'DAVOS-UPDATE 1-Japan PM urges Mubarak dialogue with Egyptians'
p1071
sa(dp1072
g2
S'http://www.reuters.com/article/2011/01/29/us-tennis-open-china-idUSTRE70S1O120110129'
p1073
sg4
S'20110129\xc2\xa07:33AM UTC'
p1074
sg6
S'Chinese sad but still proud as Li Na fails to bloom'
p1075
sa(dp1076
g2
S'http://www.reuters.com/article/2011/01/29/egypt-central-bank-idUSLDE70S09O20110129'
p1077
sg4
S'20110129\xc2\xa07:30AM UTC'
p1078
sg6
S"Egypt's reserves strong, banks liquid - c.bank"
p1079
sa(dp1080
g2
S'http://www.reuters.com/article/2011/01/29/idUS38200+29-Jan-2011+PRN20110129'
p1081
sg4
S'20110129\xc2\xa07:30AM UTC'
p1082
sg6
S'Following Is a Test Release'
p1083
sa(dp1084
g2
S'http://www.reuters.com/article/2011/01/29/us-davos-opec-idUSTRE70S1NL20110129'
p1085
sg4
S'20110129\xc2\xa07:29AM UTC'
p1086
sg6
S'No call for emergency OPEC meeting: Iran OPEC governor'
p1087
sa(dp1088
g2
S'http://www.reuters.com/article/2011/01/29/us-egypt-elbaradei-mubarak-idUSTRE70S1MI20110129'
p1089
sg4
S'20110129\xc2\xa07:26AM UTC'
p1090
sg6
S'ElBaradei calls on Mubarak to resign: Al Jazeera'
p1091
sa(dp1092
g2
S'http://www.reuters.com/article/2011/01/29/davos-opec-idUSLDE70S08620110129'
p1093
sg4
S'20110129\xc2\xa07:25AM UTC'
p1094
sg6
S'DAVOS-No call for emergency OPEC meeting -Iran OPEC gov'
p1095
sa(dp1096
g2
S'http://www.reuters.com/article/2011/01/29/russia-airport-idUSLDE70S09A20110129'
p1097
sg4
S'20110129\xc2\xa07:19AM UTC'
p1098
sg6
S'Russia says Moscow airport bomber from N. Caucasus'
p1099
sa(dp1100
g2
S'http://www.reuters.com/article/2011/01/29/us-davos-trade-doha-idUSTRE70R7EU20110129'
p1101
sg4
S'20110129\xc2\xa07:15AM UTC'
p1102
sg6
S'Trade ministers review Doha deal push'
p1103
sa(dp1104
g2
S'http://www.reuters.com/article/2011/01/29/davos-economy-osborne-idUSLDE70S07K20110129'
p1105
sg4
S'20110129\xc2\xa07:13AM UTC'
p1106
sg6
S'DAVOS-UK\'s Osborne says will only do "good" deal with banks'
p1107
sa(dp1108
g2
S'http://www.reuters.com/article/2011/01/29/us-egypt-bourse-idUSTRE70S1JH20110129'
p1109
sg4
S'20110129\xc2\xa07:09AM UTC'
p1110
sg6
S"Egypt's stock market closed on Sunday: regulator"
p1111
sa(dp1112
g2
S'http://www.reuters.com/article/2011/01/29/us-egypt-next-idUSTRE70S1IB20110129'
p1113
sg4
S'20110129\xc2\xa07:08AM UTC'
p1114
sg6
S"Q+A: What now after Egypt's protests?"
p1115
sa(dp1116
g2
S'http://www.reuters.com/article/2011/01/29/us-egypt-protests-developments-idUSTRE70S16D20110129'
p1117
sg4
S'20110129\xc2\xa07:07AM UTC'
p1118
sg6
S'Factbox: Security developments in Egypt, January 29'
p1119
sa(dp1120
g2
S'http://www.reuters.com/article/2011/01/29/egypt-bourse-idUSLDE70S09D20110129'
p1121
sg4
S'20110129\xc2\xa07:07AM UTC'
p1122
sg6
S"Egypt's stock market closed on Sunday - regulator"
p1123
sa(dp1124
g2
S'http://www.reuters.com/article/2011/01/29/gujarat-narmada-valley-result-idUSSGE70S02E20110129'
p1125
sg4
S'20110129\xc2\xa07:06AM UTC'
p1126
sg6
S'TABLE-Gujarat Narmada  Oct-Dec net up 48 pct'
p1127
sa(dp1128
g2
S'http://www.reuters.com/article/2011/01/29/kalpataru-power-result-idUSSGE70S02F20110129'
p1129
sg4
S'20110129\xc2\xa07:05AM UTC'
p1130
sg6
S'TABLE-Kalpataru Power Oct-Dec net up 16 pct'
p1131
sa(dp1132
g2
S'http://www.reuters.com/article/2011/01/29/pakistan-economy-idUSSGE70S02D20110129'
p1133
sg4
S'20110129\xc2\xa07:03AM UTC'
p1134
sg6
S'UPDATE 1-Pakistan leaves policy rate unchanged at 14 pct'
p1135
sa(dp1136
g2
S'http://www.reuters.com/article/2011/01/29/idUS36946+29-Jan-2011+PRN20110129'
p1137
sg4
S'20110129\xc2\xa07:00AM UTC'
p1138
sg6
S'Following Is a Test Release'
p1139
sa(dp1140
g2
S'http://www.reuters.com/article/2011/01/29/idUS36942+29-Jan-2011+PRN20110129'
p1141
sg4
S'20110129\xc2\xa07:00AM UTC'
p1142
sg6
S'Doctors Concerned With Health Care System Gather in Scottsdale for National Conference'
p1143
sa(dp1144
g2
S'http://www.reuters.com/article/2011/01/29/idUS36931+29-Jan-2011+BW20110129'
p1145
sg4
S'20110129\xc2\xa07:00AM UTC'
p1146
sg6
S"Madison Square Garden Finals - 37th Annual Colgate Women's Games"
p1147
sa(dp1148
g2
S'http://www.reuters.com/article/2011/01/29/davos-eurozone-idUSLDE70S09720110129'
p1149
sg4
S'20110129\xc2\xa06:59AM UTC'
p1150
sg6
S'DAVOS-WRAPUP 1-Euro zone crisis seen turning corner'
p1151
sa(dp1152
g2
S'http://www.reuters.com/article/2011/01/29/davos-eurozone-idUSLDE70S05D20110129'
p1153
sg4
S'20110129\xc2\xa06:59AM UTC'
p1154
sg6
S'DAVOS-WRAPUP 1-Euro zone crisis seen turning corner'
p1155
sa(dp1156
g2
S'http://www.reuters.com/article/2011/01/29/egypt-eu-idUSWEA450520110129'
p1157
sg4
S'20110129\xc2\xa06:48AM UTC'
p1158
sg6
S"EU's van Rompuy calls for end to violence in Egypt"
p1159
sa(dp1160
g2
S'http://www.reuters.com/article/2011/01/29/us-egypt-next-idUSTRE70S0QY20110129'
p1161
sg4
S'20110129\xc2\xa06:39AM UTC'
p1162
sg6
S"Q+A: What now after Egypt's protests?"
p1163
sa(dp1164
g2
S'http://www.reuters.com/article/2011/01/29/us-egypt-reaction-idUSTRE70S1F320110129'
p1165
sg4
S'20110129\xc2\xa06:35AM UTC'
p1166
sg6
S'Factbox: Egyptians react to Mubarak speech'
p1167
sa(dp1168
g2
S'http://www.reuters.com/article/2011/01/29/maruti-suzuki-results-idUSSGE70S02220110129'
p1169
sg4
S'20110129\xc2\xa06:33AM UTC'
p1170
sg6
S"UPDATE 1-Maruti Q3 net lags f'cast, sees pressure on margins"
p1171
sa(dp1172
g2
S'http://www.reuters.com/article/2011/01/29/pakistan-economy-idUSSGE70S01320110129'
p1173
sg4
S'20110129\xc2\xa06:32AM UTC'
p1174
sg6
S'Pakistan leaves policy rate unchanged at 14 pct'
p1175
sa(dp1176
g2
S'http://www.reuters.com/article/2011/01/29/idUS35891+29-Jan-2011+PRN20110129'
p1177
sg4
S'20110129\xc2\xa06:30AM UTC'
p1178
sg6
S'Following Is a Test Release'
p1179
sa(dp1180
g2
S'http://www.reuters.com/article/2011/01/29/egypt-curfew-idUSLDE70S08920110129'
p1181
sg4
S'20110129\xc2\xa06:29AM UTC'
p1182
sg6
S'Curfew hours extended in Cairo, Suez, Alexandria'
p1183
sa(dp1184
g2
S'http://www.reuters.com/article/2011/01/29/idUS35173+29-Jan-2011+PRN20110129'
p1185
sg4
S'20110129\xc2\xa06:18AM UTC'
p1186
sg6
S'PurposeCashAdvance.com Announces Its Online Cash Advance Loans Service'
p1187
sa(dp1188
g2
S'http://www.reuters.com/article/2011/01/29/swiss-snb-hildebrand-idUSLDE70S06020110129'
p1189
sg4
S'20110129\xc2\xa06:17AM UTC'
p1190
sg6
S'Swiss economy minister backs central bank leaders -paper'
p1191
sa(dp1192
g2
S'http://www.reuters.com/article/2011/01/29/us-egypt-usa-aid-idUSTRE70S0IN20110129'
p1193
sg4
S'20110129\xc2\xa06:16AM UTC'
p1194
sg6
S'Factbox: Most U.S. aid to Egypt goes to military'
p1195
sa(dp1196
g2
S'http://www.reuters.com/article/2011/01/29/davos-egypt-japan-idUSWLA402520110129'
p1197
sg4
S'20110129\xc2\xa06:14AM UTC'
p1198
sg6
S'DAVOS-Japan PM urges Mubarak to talk to people'
p1199
sa(dp1200
g2
S'http://www.reuters.com/article/2011/01/29/us-davos-eurozone-lagarde-idUSTRE70S1A220110129'
p1201
sg4
S'20110129\xc2\xa06:09AM UTC'
p1202
sg6
S'France\'s Lagarde: "let\'s not short the eurozone"'
p1203
sa(dp1204
g2
S'http://www.reuters.com/article/2011/01/29/egypt-elbaradei-mubarak-idUSWEA450420110129'
p1205
sg4
S'20110129\xc2\xa06:08AM UTC'
p1206
sg6
S'ELBaradei calls on Mubarak to resign - Al Jazeera'
p1207
sa(dp1208
g2
S'http://www.reuters.com/article/2011/01/29/davos-trade-doha-idUSLDE70S05320110129'
p1209
sg4
S'20110129\xc2\xa06:03AM UTC'
p1210
sg6
S'DAVOS-Trade ministers review Doha deal push'
p1211
sa(dp1212
g2
S'http://www.reuters.com/article/2011/01/29/india-telecoms-idUSSGE70S00S20110129'
p1213
sg4
S'20110129\xc2\xa06:03AM UTC'
p1214
sg6
S'UPDATE 2-India to make 2G mobile spectrum price market-linked'
p1215
sa(dp1216
g2
S'http://www.reuters.com/article/2011/01/29/idUS34065+29-Jan-2011+PRN20110129'
p1217
sg4
S'20110129\xc2\xa06:00AM UTC'
p1218
sg6
S'Following Is a Test Release'
p1219
sa(dp1220
g2
S'http://www.reuters.com/article/2011/01/29/idUS34012+29-Jan-2011+PRN20110129'
p1221
sg4
S'20110129\xc2\xa05:59AM UTC'
p1222
sg6
S'GOOD MORNING -- January 29, 2011'
p1223
sa(dp1224
g2
S'http://www.reuters.com/article/2011/01/29/us-egypt-alexandria-idUSTRE70S19C20110129'
p1225
sg4
S'20110129\xc2\xa05:49AM UTC'
p1226
sg6
S"Protesters clash with police in Egypt's Alexandria"
p1227
sa(dp1228
g2
S'http://www.reuters.com/article/2011/01/29/egypt-alexandria-idUSLDE70S06S20110129'
p1229
sg4
S'20110129\xc2\xa05:49AM UTC'
p1230
sg6
S"Protesters clash with police in Egypt's Alexandria"
p1231
sa(dp1232
g2
S'http://www.reuters.com/article/2011/01/29/tennis-open-women-idUSL3E7CT02F20110129'
p1233
sg4
S'20110129\xc2\xa05:48AM UTC'
p1234
sg6
S"Tennis-Clijsters beats China's Li to win Australian Open "
p1235
sa(dp1236
g2
S'http://www.reuters.com/article/2011/01/29/idUS32949+29-Jan-2011+PRN20110129'
p1237
sg4
S'20110129\xc2\xa05:30AM UTC'
p1238
sg6
S'Following Is a Test Release'
p1239
sa(dp1240
g2
S'http://www.reuters.com/article/2011/01/29/davos-eurozone-lagarde-idUSLDE70S05H20110129'
p1241
sg4
S'20110129\xc2\xa05:28AM UTC'
p1242
sg6
S'DAVOS-France\'s Lagarde: "let\'s not short the eurozone"'
p1243
sa(dp1244
g2
S'http://www.reuters.com/article/2011/01/29/us-davos-eurozone-schaeuble-idUSTRE70S18R20110129'
p1245
sg4
S'20110129\xc2\xa05:20AM UTC'
p1246
sg6
S'German FinMin sees no further big euro zone shocks'
p1247
sa(dp1248
g2
S'http://www.reuters.com/article/2011/01/29/egypt-hospital-idUSLDE70S05I20110129'
p1249
sg4
S'20110129\xc2\xa05:16AM UTC'
p1250
sg6
S'30 bodies taken to a Cairo hospital - source'
p1251
sa(dp1252
g2
S'http://www.reuters.com/article/2011/01/29/us-egypt-mubarak-speech-idUSTRE70S0SA20110129'
p1253
sg4
S'20110129\xc2\xa05:13AM UTC'
p1254
sg6
S"Highlights: Egyptian President Hosni Mubarak's speech"
p1255
sa(dp1256
g2
S'http://www.reuters.com/article/2011/01/29/us-egypt-usa-idUSTRE70S14R20110129'
p1257
sg4
S'20110129\xc2\xa05:13AM UTC'
p1258
sg6
S'Obama tells Mubarak to deliver promised reforms'
p1259
sa(dp1260
g2
S'http://www.reuters.com/article/2011/01/29/us-egypt-usa-obama-idUSTRE70S09020110129'
p1261
sg4
S'20110129\xc2\xa05:13AM UTC'
p1262
sg6
S"Text: Obama urges Egypt's Mubarak to enact reforms"
p1263
sa(dp1264
g2
S'http://www.reuters.com/article/2011/01/29/us-egypt-demonstrations-idUSTRE70S0ZS20110129'
p1265
sg4
S'20110129\xc2\xa05:13AM UTC'
p1266
sg6
S'Egyptians on street again despite Mubarak pledge'
p1267
sa(dp1268
g2
S'http://www.reuters.com/article/2011/01/29/us-egypt-protest-instant-idUSTRE70R63P20110129'
p1269
sg4
S'20110129\xc2\xa05:13AM UTC'
p1270
sg6
S'Instant view: Widespread protests in Egypt'
p1271
sa(dp1272
g2
S'http://www.reuters.com/article/2011/01/29/egypt-cabinet-meets-idUSLDE70S05Q20110129'
p1273
sg4
S'20110129\xc2\xa05:12AM UTC'
p1274
sg6
S'Egypt cabinet meets to submit resignation'
p1275
sa(dp1276
g2
S'http://www.reuters.com/article/2011/01/29/idUSLDE70S04120110129'
p1277
sg4
S'20110129\xc2\xa05:09AM UTC'
p1278
sg6
S'Etisalat sees Zain due diligence done by end Feb'
p1279
sa(dp1280
g2
S'http://www.reuters.com/article/2011/01/29/us-antibiotics-resistance-idUSTRE70S17B20110129'
p1281
sg4
S'20110129\xc2\xa05:05AM UTC'
p1282
sg6
S'UK health agency warns over antibiotic resistance'
p1283
sa(dp1284
g2
S'http://www.reuters.com/article/2011/01/29/us-davos-economy-osborne-idUSTRE70S16T20110129'
p1285
sg4
S'20110129\xc2\xa05:01AM UTC'
p1286
sg6
S'Osborne says UK corps should spend spare cash'
p1287
sa(dp1288
g2
S'http://www.reuters.com/article/2011/01/29/idUS31755+29-Jan-2011+PRN20110129'
p1289
sg4
S'20110129\xc2\xa05:00AM UTC'
p1290
sg6
S'Following Is a Test Release'
p1291
sa(dp1292
g2
S'http://www.reuters.com/article/2011/01/29/egypt-army-appeal-idUSLDE70S04Z20110129'
p1293
sg4
S'20110129\xc2\xa04:59AM UTC'
p1294
sg6
S'Army asks Egyptians not to congregate - TV'
p1295
sa(dp1296
g2
S'http://www.reuters.com/article/2011/01/29/davos-economy-osborne-idUSLDE70S03Z20110129'
p1297
sg4
S'20110129\xc2\xa04:46AM UTC'
p1298
sg6
S'DAVOS-Osborne says UK corps should spend spare cash'
p1299
sa(dp1300
g2
S'http://www.reuters.com/article/2011/01/29/davos-economy-osborne-idUSNLDE70S03Z20110129'
p1301
sg4
S'20110129\xc2\xa04:44AM UTC'
p1302
sg6
S'DAVOS-Osborne says UK corps should spend spare cash'
p1303
sa(dp1304
g2
S'http://www.reuters.com/article/2011/01/29/idUS30402+29-Jan-2011+PRN20110129'
p1305
sg4
S'20110129\xc2\xa04:30AM UTC'
p1306
sg6
S'Following Is a Test Release'
p1307
sa(dp1308
g2
S'http://www.reuters.com/article/2011/01/29/etisalat-zain-idUSLDE70S03I20110129'
p1309
sg4
S'20110129\xc2\xa04:17AM UTC'
p1310
sg6
S'Etisalat sees Zain due diligence done by end Feb'
p1311
sa(dp1312
g2
S'http://www.reuters.com/article/2011/01/29/idUS29774+29-Jan-2011+PRN20110129'
p1313
sg4
S'20110129\xc2\xa04:00AM UTC'
p1314
sg6
S'Following Is a Test Release'
p1315
sa(dp1316
g2
S'http://www.reuters.com/article/2011/01/29/egypt-cabinet-idUSLDE70S03C20110129'
p1317
sg4
S'20110129\xc2\xa03:50AM UTC'
p1318
sg6
S'Egypt govt to resign shortly, new PM seen soon'
p1319
sa(dp1320
g2
S'http://www.reuters.com/article/2011/01/29/us-tennis-open-men-idUSTRE70S12720110129'
p1321
sg4
S'20110129\xc2\xa03:39AM UTC'
p1322
sg6
S'Murray and Djokovic do battle to fill the vacuum'
p1323
sa(dp1324
g2
S'http://www.reuters.com/article/2011/01/29/idUS29056+29-Jan-2011+PRN20110129'
p1325
sg4
S'20110129\xc2\xa03:30AM UTC'
p1326
sg6
S'Following Is a Test Release'
p1327
sa(dp1328
g2
S'http://www.reuters.com/article/2011/01/29/idUS29046+29-Jan-2011+BW20110129'
p1329
sg4
S'20110129\xc2\xa03:30AM UTC'
p1330
sg6
S'Research and Markets: 2011 Deep Research Report on Global and China CIGS Thin Film Solar Cell Industry - CIGS Module 2009 Average Was about 12% Which Was Higher Than 2008'
p1331
sa(dp1332
g2
S'http://www.reuters.com/article/2011/01/29/egypt-bodies-idUSLDE70S02P20110129'
p1333
sg4
S'20110129\xc2\xa03:27AM UTC'
p1334
sg6
S"Over 20 bodies in Egypt's Alexandria - Jazeera"
p1335
sa(dp1336
g2
S'http://www.reuters.com/article/2011/01/29/us-iran-dutch-execution-idUSTRE70S0WS20110129'
p1337
sg4
S'20110129\xc2\xa03:14AM UTC'
p1338
sg6
S'Iran hangs Iranian-Dutch woman for drug smuggling'
p1339
sa(dp1340
g2
S'http://www.reuters.com/article/2011/01/29/egypt-mobiles-idUSLDE70S02L20110129'
p1341
sg4
S'20110129\xc2\xa03:08AM UTC'
p1342
sg6
S'Egypt mobile phone network resumes in capital'
p1343
sa(dp1344
g2
S'http://www.reuters.com/article/2011/01/29/idUS27827+29-Jan-2011+MW20110129'
p1345
sg4
S'20110129\xc2\xa03:00AM UTC'
p1346
sg6
S' Meilo Announces ML-MRL01 Product Update'
p1347
sa(dp1348
g2
S'http://www.reuters.com/article/2011/01/29/egypt-shots-idUSLDE70S02D20110129'
p1349
sg4
S'20110129\xc2\xa03:00AM UTC'
p1350
sg6
S'Police fire shots near central Cairo square'
p1351
sa(dp1352
g2
S'http://www.reuters.com/article/2011/01/29/idUS27817+29-Jan-2011+PRN20110129'
p1353
sg4
S'20110129\xc2\xa03:00AM UTC'
p1354
sg6
S'Following Is a Test Release'
p1355
sa(dp1356
g2
S'http://www.reuters.com/article/2011/01/29/maruti-suzuki-results-idUSL3E7CT02920110129'
p1357
sg4
S'20110129\xc2\xa02:51AM UTC'
p1358
sg6
S"India's Maruti Q3 net profit falls 18 pct, lags forecast"
p1359
sa(dp1360
g2
S'http://www.reuters.com/article/2011/01/29/china-economy-agriculture-idUSTOE70S00E20110129'
p1361
sg4
S'20110129\xc2\xa02:48AM UTC'
p1362
sg6
S'China warns of pressure on food supply in next 5 yrs -paper'
p1363
sa(dp1364
g2
S'http://www.reuters.com/article/2011/01/29/egypt-demonstrations-idUSLDE70S02A20110129'
p1365
sg4
S'20110129\xc2\xa02:41AM UTC'
p1366
sg6
S'Egyptians on street again despite Mubarak pledge'
p1367
sa(dp1368
g2
S'http://www.reuters.com/article/2011/01/29/us-davos-petrobras-idUSTRE70S0XM20110129'
p1369
sg4
S'20110129\xc2\xa02:34AM UTC'
p1370
sg6
S'Petrobras CEO sees high oil price volatility'
p1371
sa(dp1372
g2
S'http://www.reuters.com/article/2011/01/29/davos-petrobras-idUSLDE70S02020110129'
p1373
sg4
S'20110129\xc2\xa02:34AM UTC'
p1374
sg6
S'DAVOS-UPDATE 1-Petrobras CEO sees high oil price volatility'
p1375
sa(dp1376
g2
S'http://www.reuters.com/article/2011/01/29/idUS27040+29-Jan-2011+PRN20110129'
p1377
sg4
S'20110129\xc2\xa02:30AM UTC'
p1378
sg6
S'Following Is a Test Release'
p1379
sa(dp1380
g2
S'http://www.reuters.com/article/2011/01/29/idUS27036+29-Jan-2011+BW20110129'
p1381
sg4
S'20110129\xc2\xa02:30AM UTC'
p1382
sg6
S'WNS Wins the Golden Peacock National Quality Award - 2011'
p1383
sa(dp1384
g2
S'http://www.reuters.com/article/2011/01/29/india-telecoms-idUSSGE70S00F20110129'
p1385
sg4
S'20110129\xc2\xa02:22AM UTC'
p1386
sg6
S'India says makes radio spectrum pricing market-driven'
p1387
sa(dp1388
g2
S'http://www.reuters.com/article/2011/01/29/columns-us-egypt-protests-west-idUSTRE70S0Y420110129'
p1389
sg4
S'20110129\xc2\xa02:11AM UTC'
p1390
sg6
S'Analysis: Egypt protests leave West in awkward position'
p1391
sa(dp1392
g2
S'http://www.reuters.com/article/2011/01/29/us-morgan-stanley-investment-idUSTRE70S0XX20110129'
p1393
sg4
S'20110129\xc2\xa02:05AM UTC'
p1394
sg6
S'Morgan Stanley fund to invest $200 mln in India infrastructure'
p1395
sa(dp1396
g2
S'http://www.reuters.com/article/2011/01/29/idUS26069+29-Jan-2011+PRN20110129'
p1397
sg4
S'20110129\xc2\xa02:00AM UTC'
p1398
sg6
S'Following Is a Test Release'
p1399
sa(dp1400
g2
S'http://www.reuters.com/article/2011/01/29/morgan-stanley-investment-idUSSGE70S00K20110129'
p1401
sg4
S'20110129\xc2\xa01:51AM UTC'
p1402
sg6
S'Morgan Stanley fund to invest $200 mln in India infrastucture firm'
p1403
sa(dp1404
g2
S'http://www.reuters.com/article/2011/01/29/idUS115620791220110129'
p1405
sg4
S'20110129\xc2\xa01:47AM UTC'
p1406
sg6
S'Marc Bodnick opens up about his move to Quora \xe2\x80\x94 on Quora'
p1407
sa(dp1408
g2
S'http://www.reuters.com/article/2011/01/29/davos-petrobras-idUSWLA402220110129'
p1409
sg4
S'20110129\xc2\xa01:46AM UTC'
p1410
sg6
S'DAVOS-Petrobras CEO sees high oil price volatility in H1'
p1411
sa(dp1412
g2
S'http://www.reuters.com/article/2011/01/29/idUS25618+29-Jan-2011+PRN20110129'
p1413
sg4
S'20110129\xc2\xa01:34AM UTC'
p1414
sg6
S'Lenovo (West China) Operation Center Ground-breaking Ceremony to Lay Foundation in Chengdu Hi-tech Zone'
p1415
sa(dp1416
g2
S'http://www.reuters.com/article/2011/01/29/idUS25573+29-Jan-2011+PRN20110129'
p1417
sg4
S'20110129\xc2\xa01:30AM UTC'
p1418
sg6
S'Following Is a Test Release'
p1419
sa(dp1420
g2
S'http://www.reuters.com/article/2011/01/29/alok-industries-result-idUSSGE70S00D20110129'
p1421
sg4
S'20110129\xc2\xa01:19AM UTC'
p1422
sg6
S'TABLE-Alok Industries Oct-Dec net profit up 56 pct'
p1423
sa(dp1424
g2
S'http://www.reuters.com/article/2011/01/29/iran-dutch-execution-idUSLDE70S01C20110129'
p1425
sg4
S'20110129\xc2\xa01:18AM UTC'
p1426
sg6
S'Iran hangs Dutch woman arrested after protests'
p1427
sa(dp1428
g2
S'http://www.reuters.com/article/2011/01/29/idUS25336+29-Jan-2011+PRN20110129'
p1429
sg4
S'20110129\xc2\xa01:12AM UTC'
p1430
sg6
S'Lenovo (Western) Industrial Base to Lay Foundation in Chengdu Hi-tech Zone'
p1431
sa(dp1432
g2
S'http://www.reuters.com/article/2011/01/29/gvk-power-hancock-bid-idUSSGE70S00C20110129'
p1433
sg4
S'20110129\xc2\xa01:08AM UTC'
p1434
sg6
S"GVK Power submits $2 bln bid for Hancock Coal's mine - report"
p1435
sa(dp1436
g2
S'http://www.reuters.com/article/2011/01/29/idUS25179+29-Jan-2011+PRN20110129'
p1437
sg4
S'20110129\xc2\xa01:00AM UTC'
p1438
sg6
S'Following Is a Test Release'
p1439
sa(dp1440
g2
S'http://www.reuters.com/article/2011/01/29/afghanistan-kandahar-idUSSGE70S00920110129'
p1441
sg4
S'20110129\xc2\xa012:44AM UTC'
p1442
sg6
S'Suicide bomber kills Kandahar deputy governor'
p1443
sa(dp1444
g2
S'http://www.reuters.com/article/2011/01/29/idUS24787+29-Jan-2011+PRN20110129'
p1445
sg4
S'20110129\xc2\xa012:30AM UTC'
p1446
sg6
S'Following Is a Test Release'
p1447
sa(dp1448
g2
S'http://www.reuters.com/article/2011/01/29/us-nhl-allstar-idUSTRE70S0TV20110129'
p1449
sg4
S'20110129\xc2\xa012:15AM UTC'
p1450
sg6
S'Sedin twins separated in All-Star Game draft'
p1451
sa(dp1452
g2
S'http://www.reuters.com/article/2011/01/29/idUS24031+29-Jan-2011+PRN20110129'
p1453
sg4
S'20110129\xc2\xa012:01AM UTC'
p1454
sg6
S'U.S. Census Bureau Daily Feature for January 29'
p1455
sa(dp1456
g2
S'http://www.reuters.com/article/2011/01/29/idUS24007+29-Jan-2011+PRN20110129'
p1457
sg4
S'20110129\xc2\xa012:00AM UTC'
p1458
sg6
S'Following Is a Test Release'
p1459
sa(dp1460
g2
S'http://www.reuters.com/news/video/videoStory?storyID=15657900'
p1461
sg4
S'20110129\xc2\xa010:08PM UTC'
p1462
sg6
S'25-storey block collapses in Brazil'
p1463
sa(dp1464
g2
S'http://www.reuters.com/news/video/videoStory?storyID=15657787'
p1465
sg4
S'20110129\xc2\xa09:49PM UTC'
p1466
sg6
S'Egypt TV shows post-curfew arrests'
p1467
sa(dp1468
g2
S'http://www.reuters.com/news/video/videoStory?storyID=15656872'
p1469
sg4
S'20110129\xc2\xa08:32PM UTC'
p1470
sg6
S'Fierce clashes in Alexandria'
p1471
sa(dp1472
g2
S'http://www.reuters.com/news/video/videoStory?storyID=15664499'
p1473
sg4
S'20110129\xc2\xa07:20PM UTC'
p1474
sg6
S'Tense calm in Cairo'
p1475
sa(dp1476
g2
S'http://www.reuters.com/news/video/videoStory?storyID=15655937'
p1477
sg4
S'20110129\xc2\xa07:16PM UTC'
p1478
sg6
S'Anti-Mubarak rally at the U.N.'
p1479
sa(dp1480
g2
S'http://www.reuters.com/news/video/videoStory?storyID=15655268'
p1481
sg4
S'20110129\xc2\xa06:14PM UTC'
p1482
sg6
S'Flights halted, delayed in Cairo'
p1483
sa(dp1484
g2
S'http://www.reuters.com/news/video/videoStory?storyID=15653361'
p1485
sg4
S'20110129\xc2\xa03:43PM UTC'
p1486
sg6
S'Japan\xe2\x80\x99s PM calls for peace in Egypt'
p1487
sa(dp1488
g2
S'http://www.reuters.com/news/video/videoStory?storyID=15653373'
p1489
sg4
S'20110129\xc2\xa03:42PM UTC'
p1490
sg6
S'Protesters want U.S. diplomat hanged'
p1491
sa(dp1492
g2
S'http://www.reuters.com/news/video/videoStory?storyID=15653138'
p1493
sg4
S'20110129\xc2\xa03:15PM UTC'
p1494
sg6
S'Mubarak appoints a No. 2'
p1495
sa(dp1496
g2
S'http://www.reuters.com/news/video/videoStory?storyID=15652901'
p1497
sg4
S'20110129\xc2\xa03:02PM UTC'
p1498
sg6
S'Protesters want U.S. diplomat hanged'
p1499
sa(dp1500
g2
S'http://www.reuters.com/news/video/videoStory?storyID=15652106'
p1501
sg4
S'20110129\xc2\xa02:08PM UTC'
p1502
sg6
S'Japan\xe2\x80\x99s PM calls for peace in Egypt'
p1503
sa(dp1504
g2
S'http://www.reuters.com/news/video/videoStory?storyID=15650745'
p1505
sg4
S'20110129\xc2\xa012:33PM UTC'
p1506
sg6
S"Google's Nikesh Arora Part 2"
p1507
sa(dp1508
g2
S'http://www.reuters.com/news/video/videoStory?storyID=15650504'
p1509
sg4
S'20110129\xc2\xa012:05PM UTC'
p1510
sg6
S"Google's Nikesh Arora Part 1"
p1511
sa(dp1512
g2
S'http://www.reuters.com/news/video/videoStory?storyID=15649920'
p1513
sg4
S'20110129\xc2\xa011:07AM UTC'
p1514
sg6
S'Egyptian protesters break curfew'
p1515
sa(dp1516
g2
S'http://www.reuters.com/news/video/videoStory?storyID=15650335'
p1517
sg4
S'20110129\xc2\xa06:46AM UTC'
p1518
sg6
S'Davos Today with Chrystia Freeland, Wednesday'
p1519
sa(dp1520
g2
S'http://www.reuters.com/news/video/videoStory?storyID=15646418'
p1521
sg4
S'20110129\xc2\xa06:18AM UTC'
p1522
sg6
S'Egypt wakes up to devastation'
p1523
sa(dp1524
g2
S'http://www.reuters.com/news/video/videoStory?storyID=15644929'
p1525
sg4
S'20110129\xc2\xa05:29AM UTC'
p1526
sg6
S"'We are in another food price crisis'"
p1527
sa(dp1528
g2
S'http://www.reuters.com/news/video/videoStory?storyID=15644793'
p1529
sg4
S'20110129\xc2\xa05:20AM UTC'
p1530
sg6
S'The state of global corruption'
p1531
sa(dp1532
g2
S'http://www.reuters.com/news/video/videoStory?storyID=15644541'
p1533
sg4
S'20110129\xc2\xa05:07AM UTC'
p1534
sg6
S'Comparing notes on the "new norms"'
p1535
sa(dp1536
g2
S'http://www.reuters.com/news/video/videoStory?storyID=15644176'
p1537
sg4
S'20110129\xc2\xa04:47AM UTC'
p1538
sg6
S'Can Davos help make a greener world?'
p1539
sa(dp1540
g2
S'http://www.reuters.com/news/video/videoStory?storyID=15644062'
p1541
sg4
S'20110129\xc2\xa04:35AM UTC'
p1542
sg6
S'Robin Niblett on the situation in Egypt'
p1543
sa(dp1544
g2
S'http://www.reuters.com/news/video/videoStory?storyID=15643999'
p1545
sg4
S'20110129\xc2\xa04:08AM UTC'
p1546
sg6
S'Egypt crisis: Morning'
p1547
sa(dp1548
g2
S'http://www.reuters.com/news/video/videoStory?storyID=15643829'
p1549
sg4
S'20110129\xc2\xa04:07AM UTC'
p1550
sg6
S'Afghan politician dies in blast'
p1551
sa(dp1552
g2
S'http://www.reuters.com/news/video/videoStory?storyID=15642067'
p1553
sg4
S'20110129\xc2\xa012:03AM UTC'
p1554
sg6
S'Egypt crisis: Mubarak stays put'
p1555
sa.