(lp0
(dp1
S'href'
p2
S'http://www.reuters.com/article/2012/01/03/taiwan-jobs-idUSL3E8C326220120103'
p3
sS'ts'
p4
S'20120102\xc2\xa011:59PM UTC'
p5
sS'title'
p6
S'Taiwan workers on unpaid leave quadruples - labour council'
p7
sa(dp8
g2
S'http://www.reuters.com/article/2012/01/03/huanan-china-idUST8E7NF00E20120103'
p9
sg4
S'20120102\xc2\xa011:54PM UTC'
p10
sg6
S'Taiwan Hua Nan seeks 20 pct stake in China bank-source'
p11
sa(dp12
g2
S'http://www.reuters.com/article/2012/01/03/idUS33701+03-Jan-2012+BW20120103'
p13
sg4
S'20120102\xc2\xa011:53PM UTC'
p14
sg6
S'Genesee & Wyoming Update on Edith River Derailment'
p15
sa(dp16
g2
S'http://www.reuters.com/article/2012/01/03/india-infosys-idUSL3E8C326N20120103'
p17
sg4
S'20120102\xc2\xa011:50PM UTC'
p18
sg6
S"CLSA upgrades Infosys to 'outperform' from 'underperform'"
p19
sa(dp20
g2
S'http://www.reuters.com/article/2012/01/03/markets-ratings-eternalheartcare-idUSWNA721620120103'
p21
sg4
S'20120102\xc2\xa011:50PM UTC'
p22
sg6
S'TEXT: Fitch Rates Eternal Heart Care and Research Institute'
p23
sa(dp24
g2
S'http://www.reuters.com/article/2012/01/03/markets-ratings-kalibmhsystems-idUSWNA721720120103'
p25
sg4
S'20120102\xc2\xa011:50PM UTC'
p26
sg6
S"TEXT: Kali BMH Systems Rated at 'Fitch BB-(ind)'; Outlook Stable"
p27
sa(dp28
g2
S'http://www.reuters.com/article/2012/01/03/australia-retailers-idUSL3E8C20SE20120103'
p29
sg4
S'20120102\xc2\xa011:49PM UTC'
p30
sg6
S'Aussie retailers say post-Xmas sales up slightly, still patchy'
p31
sa(dp32
g2
S'http://www.reuters.com/article/2012/01/03/china-economy-services-pmi-idUSL3E8C325P20120103'
p33
sg4
S'20120102\xc2\xa011:38PM UTC'
p34
sg6
S'China Dec services PMI rebounds - CFLP'
p35
sa(dp36
g2
S'http://www.reuters.com/article/2012/01/03/us-japan-politics-idUSTRE80203520120103'
p37
sg4
S'20120102\xc2\xa011:37PM UTC'
p38
sg6
S"Japan PM eyes election if tax bills don't pass: report"
p39
sa(dp40
g2
S'http://www.reuters.com/article/2012/01/03/idUS32321+03-Jan-2012+PRN20120103'
p41
sg4
S'20120102\xc2\xa011:30PM UTC'
p42
sg6
S'Following Is a Test Release'
p43
sa(dp44
g2
S'http://www.reuters.com/article/2012/01/03/vietcombank-outlook-idUSL3E8C325920120103'
p45
sg4
S'20120102\xc2\xa011:26PM UTC'
p46
sg6
S'Vietcombank plans 15 pct profit rise in 2012-report'
p47
sa(dp48
g2
S'http://www.reuters.com/article/2012/01/03/financial-chatter-idUSL3E8C325G20120103'
p49
sg4
S'20120102\xc2\xa011:15PM UTC'
p50
sg6
S'Market Chatter -- Corporate finance press digest'
p51
sa(dp52
g2
S'http://www.reuters.com/article/2012/01/03/charter-hall-idUSL3E8C31VL20120103'
p53
sg4
S'20120102\xc2\xa011:14PM UTC'
p54
sg6
S"UPDATE 1-Australia's Charter Hall sells unit to consortium"
p55
sa(dp56
g2
S'http://www.reuters.com/article/2012/01/03/idUS30348+03-Jan-2012+PRN20120103'
p57
sg4
S'20120102\xc2\xa011:00PM UTC'
p58
sg6
S'Following Is a Test Release'
p59
sa(dp60
g2
S'http://www.reuters.com/article/2012/01/03/us-nba-spurs-ginobili-idUSTRE80202T20120103'
p61
sg4
S'20120102\xc2\xa010:54PM UTC'
p62
sg6
S'Ginobili breaks shooting hand, out long-term'
p63
sa(dp64
g2
S'http://www.reuters.com/article/2012/01/03/idUS28895+03-Jan-2012+PRN20120103'
p65
sg4
S'20120102\xc2\xa010:30PM UTC'
p66
sg6
S'Following Is a Test Release'
p67
sa(dp68
g2
S'http://www.reuters.com/article/2012/01/03/idUS28883+03-Jan-2012+PRN20120103'
p69
sg4
S'20120102\xc2\xa010:30PM UTC'
p70
sg6
S'Howard Stern Beats Ryan Seacrest by a Nose'
p71
sa(dp72
g2
S'http://www.reuters.com/article/2012/01/03/idUS28880+03-Jan-2012+PRN20120103'
p73
sg4
S'20120102\xc2\xa010:30PM UTC'
p74
sg6
S'Tostitos Brand "Parties with a Purpose" During Tostitos Fiesta Bowl, Donating $250,000 to Big Brothers Big Sisters and Unveiling New Party-Themed Marketing Campaign'
p75
sa(dp76
g2
S'http://www.reuters.com/article/2012/01/03/us-usa-campaign-bachmann-idUSTRE8000GT20120103'
p77
sg4
S'20120102\xc2\xa010:25PM UTC'
p78
sg6
S'Bachmann seeks miracle in presidential race'
p79
sa(dp80
g2
S'http://www.reuters.com/article/2012/01/03/us-usa-campaign-gingrich-idUSTRE80103620120103'
p81
sg4
S'20120102\xc2\xa010:23PM UTC'
p82
sg6
S'Gingrich says in race to stay no matter Iowa result'
p83
sa(dp84
g2
S'http://www.reuters.com/article/2012/01/03/temasek-idUSL3E8C31E120120103'
p85
sg4
S'20120102\xc2\xa010:23PM UTC'
p86
sg6
S'Temasek sets up new unit to invest in North Asia'
p87
sa(dp88
g2
S'http://www.reuters.com/article/2012/01/03/markets-forex-idUSL3E8C20SH20120103'
p89
sg4
S'20120102\xc2\xa010:18PM UTC'
p90
sg6
S'FOREX-Euro edges up vs dollar, but seen vulnerable'
p91
sa(dp92
g2
S'http://www.reuters.com/article/2012/01/03/us-mahindra-rating-idUSTRE80202F20120103'
p93
sg4
S'20120102\xc2\xa010:17PM UTC'
p94
sg6
S"BofA cuts India's M&M; to underperform, lowers price"
p95
sa(dp96
g2
S'http://www.reuters.com/article/2012/01/03/us-imf-japan-stresstests-idUSTRE80202920120103'
p97
sg4
S'20120102\xc2\xa010:05PM UTC'
p98
sg6
S'IMF to release Japan bank stress tests in summer: report'
p99
sa(dp100
g2
S'http://www.reuters.com/article/2012/01/03/idUS27457+03-Jan-2012+BW20120103'
p101
sg4
S'20120102\xc2\xa010:03PM UTC'
p102
sg6
S'AHF: Condoms in Porn Advocates Launch Los Angeles County Ballot Measure Drive'
p103
sa(dp104
g2
S'http://www.reuters.com/article/2012/01/03/idUS27227+03-Jan-2012+PRN20120103'
p105
sg4
S'20120102\xc2\xa010:00PM UTC'
p106
sg6
S'Following Is a Test Release'
p107
sa(dp108
g2
S'http://www.reuters.com/article/2012/01/03/markets-india-stocks-idUSL3E8C20O120120103'
p109
sg4
S'20120102\xc2\xa09:59PM UTC'
p110
sg6
S'Indian shares seen up for 2nd day, Bajaj Auto eyed'
p111
sa(dp112
g2
S'http://www.reuters.com/article/2012/01/03/singapore-market-stocks-gentingsingapore-idUSL3E8C31DC20120103'
p113
sg4
S'20120102\xc2\xa09:57PM UTC'
p114
sg6
S"Singapore Hot Stocks-Genting S'pore up as more earnings eyed"
p115
sa(dp116
g2
S'http://www.reuters.com/article/2012/01/03/imf-japan-stresstests-idUSL3E8C30O120120103'
p117
sg4
S'20120102\xc2\xa09:53PM UTC'
p118
sg6
S'IMF to release Japan bank stress tests in summer-Nikkei'
p119
sa(dp120
g2
S'http://www.reuters.com/article/2012/01/03/markets-korea-idUSL3E8C301J20120103'
p121
sg4
S'20120102\xc2\xa09:48PM UTC'
p122
sg6
S'Seoul shares up led by refiners; Samsung Elec hits new record'
p123
sa(dp124
g2
S'http://www.reuters.com/article/2012/01/03/vietnam-press-idUSL3E8C30BQ20120103'
p125
sg4
S'20120102\xc2\xa09:18PM UTC'
p126
sg6
S'PRESS DIGEST - Vietnam newspapers - Jan 3'
p127
sa(dp128
g2
S'http://www.reuters.com/article/2012/01/03/charter-hall-idUSS9E7ND00J20120103'
p129
sg4
S'20120102\xc2\xa09:14PM UTC'
p130
sg6
S"Australia's Charter Hall Retail CEO resigns"
p131
sa(dp132
g2
S'http://www.reuters.com/article/2012/01/03/us-nhl-classic-idUSTRE8010WR20120103'
p133
sg4
S'20120102\xc2\xa08:54PM UTC'
p134
sg6
S'Rupp takes Classic spotlight in Rangers win'
p135
sa(dp136
g2
S'http://www.reuters.com/article/2012/01/03/idUS20771+03-Jan-2012+PRN20120103'
p137
sg4
S'20120102\xc2\xa08:52PM UTC'
p138
sg6
S'Unique Pizza and Subs Announces Tier Change OTC Current Tier'
p139
sa(dp140
g2
S'http://www.reuters.com/article/2012/01/03/us-lovelace-idUSTRE80201V20120103'
p141
sg4
S'20120102\xc2\xa08:49PM UTC'
p142
sg6
S'Demi Moore takes Steinem role in "Lovelace" film'
p143
sa(dp144
g2
S'http://www.reuters.com/article/2012/01/03/us-nfl-coaches-idUSTRE8010L620120103'
p145
sg4
S'20120102\xc2\xa08:42PM UTC'
p146
sg6
S'Rams, Buccaneers fire coaches after losing seasons'
p147
sa(dp148
g2
S'http://www.reuters.com/article/2012/01/03/markets-ratings-daimlerfinancialservices-idUSWNA721420120103'
p149
sg4
S'20120102\xc2\xa08:35PM UTC'
p150
sg6
S"TEXT: Daimler Financial Services India Rated at 'Fitch AAA(ind)'"
p151
sa(dp152
g2
S'http://www.reuters.com/article/2012/01/03/us-vale-china-idUSTRE80201I20120103'
p153
sg4
S'20120102\xc2\xa08:31PM UTC'
p154
sg6
S'Giant Vale ship completes maiden journey to China'
p155
sa(dp156
g2
S'http://www.reuters.com/article/2012/01/03/markets-hongkong-stocks-open-idUSH9E7MT02Q20120103'
p157
sg4
S'20120102\xc2\xa08:29PM UTC'
p158
sg6
S'Hong Kong shares to start 2012 higher, up 1.8 pct'
p159
sa(dp160
g2
S'http://www.reuters.com/article/2012/01/03/us-protests-parade-idUSTRE8010QQ20120103'
p161
sg4
S'20120102\xc2\xa08:25PM UTC'
p162
sg6
S'Anti-Wall Street protesters make a show at Rose Parade'
p163
sa(dp164
g2
S'http://www.reuters.com/article/2012/01/03/vale-china-idUSL3E8C300820120103'
p165
sg4
S'20120102\xc2\xa08:25PM UTC'
p166
sg6
S'Giant Vale ship completes maiden journey to China'
p167
sa(dp168
g2
S'http://www.reuters.com/article/2012/01/03/singapore-market-stocks-mewah-idUSL3E8C302320120103'
p169
sg4
S'20120102\xc2\xa08:24PM UTC'
p170
sg6
S'Singapore Hot Stocks-Mewah up on Indonesia investment'
p171
sa(dp172
g2
S'http://www.reuters.com/article/2012/01/03/idUS354154728820120103'
p173
sg4
S'20120102\xc2\xa08:16PM UTC'
p174
sg6
S'Oscar Songs: Bret McKenzie Discovers the Secret of Muppet Music'
p175
sa(dp176
g2
S'http://www.reuters.com/article/2012/01/03/us-prison-escape-idUSTRE80201C20120103'
p177
sg4
S'20120102\xc2\xa08:15PM UTC'
p178
sg6
S'Prisoner escapes from San Diego area jail in fire truck'
p179
sa(dp180
g2
S'http://www.reuters.com/article/2012/01/03/markets-hongkong-stocks-preopen-idUSL3E8C301C20120103'
p181
sg4
S'20120102\xc2\xa08:14PM UTC'
p182
sg6
S'Hong Kong shares seen starting 2012 higher'
p183
sa(dp184
g2
S'http://www.reuters.com/article/2012/01/03/pressdigest-idUSL3E8C301S20120103'
p185
sg4
S'20120102\xc2\xa08:09PM UTC'
p186
sg6
S'PRESS DIGEST - MALAYSIA - Jan 3'
p187
sa(dp188
g2
S'http://www.reuters.com/article/2012/01/03/us-usa-campaign-huntsman-idUSTRE80201520120103'
p189
sg4
S'20120102\xc2\xa08:02PM UTC'
p190
sg6
S'Huntsman tries to turn up heat on Romney in N. Hampshire'
p191
sa(dp192
g2
S'http://www.reuters.com/article/2012/01/03/idUS100427508520120103'
p193
sg4
S'20120102\xc2\xa07:55PM UTC'
p194
sg6
S'Mitt Romney says Obama breaks vows, just like Kim Kardashian'
p195
sa(dp196
g2
S'http://www.reuters.com/article/2012/01/03/philippines-markets-idUSL3E8C20E120120103'
p197
sg4
S'20120102\xc2\xa07:39PM UTC'
p198
sg6
S'Philippines - Market factors to watch - Jan 3'
p199
sa(dp200
g2
S'http://www.reuters.com/article/2012/01/03/us-nfl-redskins-idUSTRE80200720120103'
p201
sg4
S'20120102\xc2\xa07:22PM UTC'
p202
sg6
S'Shanahan determined to make Redskins relevant again'
p203
sa(dp204
g2
S'http://www.reuters.com/article/2012/01/03/singapore-market-stocks-preopener-idUSL3E8C20ST20120103'
p205
sg4
S'20120102\xc2\xa07:18PM UTC'
p206
sg6
S'Singapore Stocks-May open up; Mewah, CAO in focus'
p207
sa(dp208
g2
S'http://www.reuters.com/article/2012/01/03/us-shooting-pilots-idUSTRE80200D20120103'
p209
sg4
S'20120102\xc2\xa07:17PM UTC'
p210
sg6
S'Two Navy pilots among those killed in murder-suicide'
p211
sa(dp212
g2
S'http://www.reuters.com/article/2012/01/03/idUS266247486020120103'
p213
sg4
S'20120102\xc2\xa07:10PM UTC'
p214
sg6
S"Box Office: 'M:I:4' Passes $100M Domestically, Leads the Weekend"
p215
sa(dp216
g2
S'http://www.reuters.com/article/2012/01/03/markets-korea-idUSL3E8C300520120103'
p217
sg4
S'20120102\xc2\xa07:06PM UTC'
p218
sg6
S'Seoul shares open higher; refiners lead'
p219
sa(dp220
g2
S'http://www.reuters.com/article/2012/01/03/aim-listings-idUSL6E7NU1FA20120103'
p221
sg4
S'20120102\xc2\xa07:01PM UTC'
p222
sg6
S"Euro zone crisis takes toll on Britain's AIM"
p223
sa(dp224
g2
S'http://www.reuters.com/article/2012/01/02/us-syria-idUSTRE7BO0B620120102'
p225
sg4
S'20120102\xc2\xa06:58PM UTC'
p226
sg6
S'Arab League says Syria monitors are helping'
p227
sa(dp228
g2
S'http://www.reuters.com/article/2012/01/02/idUS106157424020120102'
p229
sg4
S'20120102\xc2\xa06:56PM UTC'
p230
sg6
S"Indie Box Office: 'Iron Lady' Opens Strong, 'Descendants' Crosses $40 M"
p231
sa(dp232
g2
S'http://www.reuters.com/article/2012/01/02/us-usa-campaign-idUSTRE7BT14220120102'
p233
sg4
S'20120102\xc2\xa06:52PM UTC'
p234
sg6
S'Santorum sends Iowa caucus rivals scrambling'
p235
sa(dp236
g2
S'http://www.reuters.com/article/2012/01/02/idUS204039441320120102'
p237
sg4
S'20120102\xc2\xa06:46PM UTC'
p238
sg6
S'Audiophilic startup SoundCloud raises a reported $50M'
p239
sa(dp240
g2
S'http://www.reuters.com/article/2012/01/02/us-weather-idUSTRE8000BO20120102'
p241
sg4
S'20120102\xc2\xa06:45PM UTC'
p242
sg6
S"Winter's first Great Lakes effect snowstorm hits"
p243
sa(dp244
g2
S'http://www.reuters.com/article/2012/01/02/us-crime-abortion-maryland-idUSTRE8010WX20120102'
p245
sg4
S'20120102\xc2\xa06:44PM UTC'
p246
sg6
S'Murder charges against doctors test Maryland abortion law'
p247
sa(dp248
g2
S'http://www.reuters.com/article/2012/01/02/us-usa-campaign-southcarolina-haley-idUSTRE8010PE20120102'
p249
sg4
S'20120102\xc2\xa06:42PM UTC'
p250
sg6
S'After endorsing Romney, S.C. governor feels heat'
p251
sa(dp252
g2
S'http://www.reuters.com/article/2012/01/02/us-nhl-classic-idUSTRE8010WR20120102'
p253
sg4
S'20120102\xc2\xa06:42PM UTC'
p254
sg6
S'Rupp takes Classic spotlight as Rangers edge Flyers'
p255
sa(dp256
g2
S'http://www.reuters.com/article/2012/01/02/entertainment-idUSRTR2VTRY'
p257
sg4
S'20120102\xc2\xa06:40PM UTC'
p258
sg6
S'Aretha Franklin engaged'
p259
sa(dp260
g2
S'http://www.reuters.com/article/2012/01/02/idUS88744+02-Jan-2012+PRN20120102'
p261
sg4
S'20120102\xc2\xa06:34PM UTC'
p262
sg6
S'Grupo Salinas Companies Post Outstanding Performance in 2011'
p263
sa(dp264
g2
S'http://www.reuters.com/article/2012/01/02/idUS88335+02-Jan-2012+PRN20120102'
p265
sg4
S'20120102\xc2\xa06:31PM UTC'
p266
sg6
S'SuiteSweat\xc2\xae Wellness Franchise Announces Major Market Expansion Agreements'
p267
sa(dp268
g2
S'http://www.reuters.com/article/2012/01/02/us-markets-forex-idUSTRE7AC15W20120102'
p269
sg4
S'20120102\xc2\xa06:31PM UTC'
p270
sg6
S'Forex-Euro wobbly ahead of event-packed U.S. week'
p271
sa(dp272
g2
S'http://www.reuters.com/article/2012/01/02/markets-forex-idUSL3E8C20RF20120102'
p273
sg4
S'20120102\xc2\xa06:29PM UTC'
p274
sg6
S'FOREX-Euro wobbly ahead of event-packed U.S. week'
p275
sa(dp276
g2
S'http://www.reuters.com/article/2012/01/02/us-blackbirds-idUSTRE8010WI20120102'
p277
sg4
S'20120102\xc2\xa06:27PM UTC'
p278
sg6
S'Blackbird killings in Arkansas believed intentional'
p279
sa(dp280
g2
S'http://www.reuters.com/article/2012/01/02/us-death-ranger-idUSTRE8000I920120102'
p281
sg4
S'20120102\xc2\xa06:26PM UTC'
p282
sg6
S'Body at Mount Rainier confirmed as suspected gunman'
p283
sa(dp284
g2
S'http://www.reuters.com/article/2012/01/02/markets-korea-idUSL3E7NG21N20120102'
p285
sg4
S'20120102\xc2\xa06:25PM UTC'
p286
sg6
S'Seoul shares seen modestly higher; refiners eyed'
p287
sa(dp288
g2
S'http://www.reuters.com/article/2012/01/02/us-palestinians-israel-idUSTRE8010WA20120102'
p289
sg4
S'20120102\xc2\xa06:24PM UTC'
p290
sg6
S'Israelis, Palestinians to meet but prospects bleak'
p291
sa(dp292
g2
S'http://www.reuters.com/article/2012/01/02/us-usa-campaign-romney-idUSTRE80003B20120102'
p293
sg4
S'20120102\xc2\xa06:20PM UTC'
p294
sg6
S'Romney runs strong, but can he connect with voters?'
p295
sa(dp296
g2
S'http://www.reuters.com/article/2012/01/02/us-egypt-election-idUSTRE8010W020120102'
p297
sg4
S'20120102\xc2\xa06:17PM UTC'
p298
sg6
S'Egyptians head to polls again in parliament vote'
p299
sa(dp300
g2
S'http://www.reuters.com/article/2012/01/02/korea-marketfactors-idUSL3E8C20RJ20120102'
p301
sg4
S'20120102\xc2\xa06:16PM UTC'
p302
sg6
S'S.Korea-Market Factors to watch Jan 3'
p303
sa(dp304
g2
S'http://www.reuters.com/article/2012/01/02/us-arethafranklin-idUSTRE8010VS20120102'
p305
sg4
S'20120102\xc2\xa06:13PM UTC'
p306
sg6
S'Aretha Franklin joins list of stars getting engaged'
p307
sa(dp308
g2
S'http://www.reuters.com/article/2012/01/02/us-vatican-anglicans-idUSTRE8010VO20120102'
p309
sg4
S'20120102\xc2\xa06:11PM UTC'
p310
sg6
S"Leader of U.S. ex-Anglicans says won't forget roots"
p311
sa(dp312
g2
S'http://www.reuters.com/article/2012/01/02/us-iran-usa-sanctions-idUSTRE8010Q220120102'
p313
sg4
S'20120102\xc2\xa06:01PM UTC'
p314
sg6
S'U.S. hopes new Iran sanctions more scalpel than axe'
p315
sa(dp316
g2
S'http://www.reuters.com/article/2012/01/02/idUS86456+02-Jan-2012+BW20120102'
p317
sg4
S'20120102\xc2\xa06:01PM UTC'
p318
sg6
S'DOLE Float Takes Rose Parade Sweepstakes Trophy Second Year in a Row'
p319
sa(dp320
g2
S'http://www.reuters.com/article/2012/01/02/idUS86326+02-Jan-2012+PRN20120102'
p321
sg4
S'20120102\xc2\xa06:00PM UTC'
p322
sg6
S'Olympus Puts Dough in Pizza Hut'
p323
sa(dp324
g2
S'http://www.reuters.com/article/2012/01/02/us-usa-campaign-gingrich-idUSTRE80103620120102'
p325
sg4
S'20120102\xc2\xa05:44PM UTC'
p326
sg6
S'Gingrich says in race to stay no matter Iowa result'
p327
sa(dp328
g2
S'http://www.reuters.com/article/2012/01/02/idUS85057+02-Jan-2012+BW20120102'
p329
sg4
S'20120102\xc2\xa05:41PM UTC'
p330
sg6
S'Striking Video Testimony Filed by Blumenthal, Nordrehaug & Bhowmik in Lawsuit Alleging MGM Defrauded Investors into Purchasing Units in the MGM Signature Suites'
p331
sa(dp332
g2
S'http://www.reuters.com/article/2012/01/02/us-crime-explosives-airplane-idUSTRE8010TL20120102'
p333
sg4
S'20120102\xc2\xa05:36PM UTC'
p334
sg6
S'Man arrested with explosives at airport was Army expert'
p335
sa(dp336
g2
S'http://www.reuters.com/article/2012/01/02/us-lufthansa-emissions-idUSTRE8010B220120102'
p337
sg4
S'20120102\xc2\xa05:34PM UTC'
p338
sg6
S'Lufthansa warns EU scheme to raise fares'
p339
sa(dp340
g2
S'http://www.reuters.com/article/2012/01/02/idUS84056+02-Jan-2012+PRN20120102'
p341
sg4
S'20120102\xc2\xa05:19PM UTC'
p342
sg6
S'Regeneron to Host Conference Call on January 3 at 8:30 a.m. Eastern Time to Discuss Ongoing Patent Litigation'
p343
sa(dp344
g2
S'http://www.reuters.com/article/2012/01/02/us-birdflu-jump-idUSTRE8010UF20120102'
p345
sg4
S'20120102\xc2\xa05:19PM UTC'
p346
sg6
S"Bird flu virus doesn't jump between humans: China"
p347
sa(dp348
g2
S'http://www.reuters.com/article/2012/01/02/us-crime-coach-pennstate-idUSTRE8010UB20120102'
p349
sg4
S'20120102\xc2\xa05:18PM UTC'
p350
sg6
S'Penn State loses bowl game, capping year of abuse scandal'
p351
sa(dp352
g2
S'http://www.reuters.com/article/2012/01/02/us-protests-parade-idUSTRE8010QQ20120102'
p353
sg4
S'20120102\xc2\xa05:17PM UTC'
p354
sg6
S'Anti-Wall Street protesters make a show at Rose Parade'
p355
sa(dp356
g2
S'http://www.reuters.com/article/2012/01/02/us-usa-campaign-newhampshire-polls-idUSTRE8010U520120102'
p357
sg4
S'20120102\xc2\xa05:14PM UTC'
p358
sg6
S'New polls point to Romney landslide in N.Hampshire'
p359
sa(dp360
g2
S'http://www.reuters.com/article/2012/01/02/idUS242308953620120102'
p361
sg4
S'20120102\xc2\xa05:13PM UTC'
p362
sg6
S'Cruise, \xe2\x80\x98MI4\xe2\x80\xb2 lead box office at end of weak year'
p363
sa(dp364
g2
S'http://www.reuters.com/article/2012/01/02/us-usa-stocks-weekahead-idUSTRE7BT11R20120102'
p365
sg4
S'20120102\xc2\xa05:11PM UTC'
p366
sg6
S'You thought 2011 was tough?'
p367
sa(dp368
g2
S'http://www.reuters.com/article/2012/01/02/us-nfl-idUSTRE8000I320120102'
p369
sg4
S'20120102\xc2\xa05:10PM UTC'
p370
sg6
S'Bengals, Broncos in playoffs; Pats get home field'
p371
sa(dp372
g2
S'http://www.reuters.com/article/2012/01/02/us-nfl-playoffs-profiles-idUSTRE8010TY20120102'
p373
sg4
S'20120102\xc2\xa05:09PM UTC'
p374
sg6
S'Profiles of teams in the NFL playoffs'
p375
sa(dp376
g2
S'http://www.reuters.com/article/2012/01/02/idUS83472+02-Jan-2012+BW20120102'
p377
sg4
S'20120102\xc2\xa05:07PM UTC'
p378
sg6
S'Fiesta Parade Floats And Its Clients Take Home Eight Rose Parade Trophies'
p379
sa(dp380
g2
S'http://www.reuters.com/article/2012/01/02/idUS83312+02-Jan-2012+PRN20120102'
p381
sg4
S'20120102\xc2\xa05:02PM UTC'
p382
sg6
S'Chesapeake Urology Associates Welcomes Dr. Lisa N. Hawes, Female Urology Specialist'
p383
sa(dp384
g2
S'http://www.reuters.com/article/2012/01/02/us-musicalpostcard-app-idUSTRE8010TE20120102'
p385
sg4
S'20120102\xc2\xa05:01PM UTC'
p386
sg6
S'App wishes you were here with a musical postcard'
p387
sa(dp388
g2
S'http://www.reuters.com/article/2012/01/02/idUS83233+02-Jan-2012+PRN20120102'
p389
sg4
S'20120102\xc2\xa05:00PM UTC'
p390
sg6
S'Autoweek Editors Choose 2012 Best Of The Best'
p391
sa(dp392
g2
S'http://www.reuters.com/article/2012/01/02/idUS83196+02-Jan-2012+BW20120102'
p393
sg4
S'20120102\xc2\xa05:00PM UTC'
p394
sg6
S'UANI Applauds President Obama, U.S. Lawmakers for Sanctioning Iran`s Central Bank'
p395
sa(dp396
g2
S'http://www.reuters.com/article/2012/01/02/us-boxoffice-indies-idUSTRE8010T920120102'
p397
sg4
S'20120102\xc2\xa04:57PM UTC'
p398
sg6
S'"Iron Lady" enjoys strong bow in limited release'
p399
sa(dp400
g2
S'http://www.reuters.com/article/2012/01/02/idUS212948367320120102'
p401
sg4
S'20120102\xc2\xa04:57PM UTC'
p402
sg6
S'New ad compares Bachmann to Thatcher'
p403
sa(dp404
g2
S'http://www.reuters.com/article/2012/01/02/us-nigeria-insurgency-idUSTRE8010OT20120102'
p405
sg4
S'20120102\xc2\xa04:54PM UTC'
p406
sg6
S'Ex-warlord warns of south Nigeria backlash at Boko Haram'
p407
sa(dp408
g2
S'http://www.reuters.com/article/2012/01/02/us-losangeles-carfires-idUSTRE80100A20120102'
p409
sg4
S'20120102\xc2\xa04:49PM UTC'
p410
sg6
S'Police arrest man in string of Los Angeles fires'
p411
sa(dp412
g2
S'http://www.reuters.com/article/2012/01/02/us-birdfluchina-idUSTRE80104I20120102'
p413
sg4
S'20120102\xc2\xa04:47PM UTC'
p414
sg6
S"China says latest bird flu virus doesn't jump between humans"
p415
sa(dp416
g2
S'http://www.reuters.com/article/2012/01/02/us-sytycd-lythgoe-idUSTRE8010SS20120102'
p417
sg4
S'20120102\xc2\xa04:42PM UTC'
p418
sg6
S'Lythgoe to revamp "Dance" after Fox cuts results show'
p419
sa(dp420
g2
S'http://www.reuters.com/article/2012/01/02/us-babies-idUSTRE8010F520120102'
p421
sg4
S'20120102\xc2\xa04:42PM UTC'
p422
sg6
S'Babies may be getting bigger, but questions remain'
p423
sa(dp424
g2
S'http://www.reuters.com/article/2012/01/02/us-tvratings-monday-idUSTRE8010SO20120102'
p425
sg4
S'20120102\xc2\xa04:40PM UTC'
p426
sg6
S'Giants-Cowboys game breaks TV records'
p427
sa(dp428
g2
S'http://www.reuters.com/article/2012/01/02/life-idUSRTR2VTPQ'
p429
sg4
S'20120102\xc2\xa04:40PM UTC'
p430
sg6
S"Afghanistan's female fists"
p431
sa(dp432
g2
S'http://www.reuters.com/article/2012/01/02/us-filmcritics-awards-idUSTRE8010SG20120102'
p433
sg4
S'20120102\xc2\xa04:39PM UTC'
p434
sg6
S'"Tree of Life" tops Online Film Critics awards'
p435
sa(dp436
g2
S'http://www.reuters.com/article/2012/01/02/us-videogame-willwright-idUSTRE8010L020120102'
p437
sg4
S'20120102\xc2\xa04:37PM UTC'
p438
sg6
S'"The Sims" designer creating new game for real life'
p439
sa(dp440
g2
S'http://www.reuters.com/article/2012/01/02/us-usa-boxoffice-idUSTRE8010MI20120102'
p441
sg4
S'20120102\xc2\xa04:37PM UTC'
p442
sg6
S'Cruise, "MI4" lead box office at end of weak year'
p443
sa(dp444
g2
S'http://www.reuters.com/article/2012/01/02/us-boxoffice-idUSTRE8010S620120102'
p445
sg4
S'20120102\xc2\xa04:35PM UTC'
p446
sg6
S'Cruise, "MI4" lead box office at end of weak year'
p447
sa(dp448
g2
S'http://www.reuters.com/article/2012/01/02/us-muppets-bretmckenzie-idUSTRE8010RZ20120102'
p449
sg4
S'20120102\xc2\xa04:32PM UTC'
p450
sg6
S'Bret McKenzie discovers the secret of Muppets music'
p451
sa(dp452
g2
S'http://www.reuters.com/article/2012/01/02/idUS81721+02-Jan-2012+GNW20120102'
p453
sg4
S'20120102\xc2\xa04:30PM UTC'
p454
sg6
S'OMA to Make Third Dividend Payment for 2010 Results'
p455
sa(dp456
g2
S'http://www.reuters.com/article/2012/01/02/idUS81715+02-Jan-2012+GNW20120102'
p457
sg4
S'20120102\xc2\xa04:30PM UTC'
p458
sg6
S'OMA to Make Third Dividend Payment for 2010 Results'
p459
sa(dp460
g2
S'http://www.reuters.com/article/2012/01/02/idUS354154728820120102'
p461
sg4
S'20120102\xc2\xa04:29PM UTC'
p462
sg6
S'Oscar Songs: Bret McKenzie Discovers the Secret of Muppet Music'
p463
sa(dp464
g2
S'http://www.reuters.com/article/2012/01/02/gloucester-yancoal-idUSL3E8C20Q420120102'
p465
sg4
S'20120102\xc2\xa04:24PM UTC'
p466
sg6
S"Australia's Gloucester awaits completion of due diligence by Yanzhou-report"
p467
sa(dp468
g2
S'http://www.reuters.com/article/2012/01/02/us-stem-cell-arrest-idUSTRE8010RP20120102'
p469
sg4
S'20120102\xc2\xa04:20PM UTC'
p470
sg6
S'Three arrested for peddling miracle stem cell cure'
p471
sa(dp472
g2
S'http://www.reuters.com/article/2012/01/02/idUS80971+02-Jan-2012+BW20120102'
p473
sg4
S'20120102\xc2\xa04:15PM UTC'
p474
sg6
S'Wright Medical Group, Inc. to Participate in the 30th Annual J.P. Morgan Healthcare Conference'
p475
sa(dp476
g2
S'http://www.reuters.com/article/2012/01/02/idUS327346041920120102'
p477
sg4
S'20120102\xc2\xa04:13PM UTC'
p478
sg6
S"'Mission: Impossible' Still Strong With $38.3M Weekend"
p479
sa(dp480
g2
S'http://www.reuters.com/article/2012/01/02/us-brazil-economy-survey-idUSTRE8010RH20120102'
p481
sg4
S'20120102\xc2\xa04:13PM UTC'
p482
sg6
S'Economists cut Brazil price view for 5th week'
p483
sa(dp484
g2
S'http://www.reuters.com/article/2012/01/02/us-sprint-lightsquared-idUSTRE8010R520120102'
p485
sg4
S'20120102\xc2\xa04:09PM UTC'
p486
sg6
S'Sprint gives LightSquared 30 more days to get FCC nod'
p487
sa(dp488
g2
S'http://www.reuters.com/article/2012/01/02/us-iraq-politics-idUSTRE8010K020120102'
p489
sg4
S'20120102\xc2\xa04:08PM UTC'
p490
sg6
S'Analysis: Blocs pursue short-term fixes for Iraq political crisis'
p491
sa(dp492
g2
S'http://www.reuters.com/article/2012/01/02/us-usa-quakes-wells-idUSTRE8010GW20120102'
p493
sg4
S'20120102\xc2\xa04:07PM UTC'
p494
sg6
S'Ohio suspends well operations after series of quakes'
p495
sa(dp496
g2
S'http://www.reuters.com/article/2012/01/02/sprint-lightsquared-idUSL3E8C20QG20120102'
p497
sg4
S'20120102\xc2\xa04:03PM UTC'
p498
sg6
S'Sprint gives LightSquared 30 more days to get FCC nod'
p499
sa(dp500
g2
S'http://www.reuters.com/article/2012/01/02/us-cancer-cervical-idUSTRE8010QW20120102'
p501
sg4
S'20120102\xc2\xa04:01PM UTC'
p502
sg6
S'Some girls overestimate HPV vaccine protection'
p503
sa(dp504
g2
S'http://www.reuters.com/article/2012/01/02/us-bahrain-verdicts-idUSTRE8010I520120102'
p505
sg4
S'20120102\xc2\xa04:00PM UTC'
p506
sg6
S'Bahrain says to review some verdicts over unrest'
p507
sa(dp508
g2
S'http://www.reuters.com/article/2012/01/02/idUS79656+02-Jan-2012+BW20120102'
p509
sg4
S'20120102\xc2\xa04:00PM UTC'
p510
sg6
S'AVEO Pharmaceuticals, Inc. Announces Webcast and Conference Call'
p511
sa(dp512
g2
S'http://www.reuters.com/article/2012/01/02/us-chile-codelco-option-idUSTRE8010GS20120102'
p513
sg4
S'20120102\xc2\xa03:57PM UTC'
p514
sg6
S'Codelco seeks to lock in Anglo mining stake'
p515
sa(dp516
g2
S'http://www.reuters.com/article/2012/01/02/us-venezuela-exxonmobil-idUSTRE8010MC20120102'
p517
sg4
S'20120102\xc2\xa03:52PM UTC'
p518
sg6
S'Venezuela shrinks nationalization payment to Exxon'
p519
sa(dp520
g2
S'http://www.reuters.com/article/2012/01/02/us-libya-tunisia-baghdadi-idUSTRE8010NF20120102'
p521
sg4
S'20120102\xc2\xa03:51PM UTC'
p522
sg6
S'Tunisia seeks guarantee to extradite Libyan ex-PM'
p523
sa(dp524
g2
S'http://www.reuters.com/article/2012/01/02/us-nigeria-subsidy-idUSTRE8010HB20120102'
p525
sg4
S'20120102\xc2\xa03:49PM UTC'
p526
sg6
S'Nigerian anger heats up as petrol prices rocket'
p527
sa(dp528
g2
S'http://www.reuters.com/article/2012/01/02/us-iraq-turkey-kurds-idUSTRE8010NJ20120102'
p529
sg4
S'20120102\xc2\xa03:49PM UTC'
p530
sg6
S'Deadly Turkish strike felt by Kurdish refugees in Iraq'
p531
sa(dp532
g2
S'http://www.reuters.com/article/2012/01/02/sudan-newspaper-idUSL6E8C21NL20120102'
p533
sg4
S'20120102\xc2\xa03:39PM UTC'
p534
sg6
S'Sudan shuts Islamist paper in media crackdown'
p535
sa(dp536
g2
S'http://www.reuters.com/article/2012/01/02/us-hungary-protest-idUSTRE8010O920120102'
p537
sg4
S'20120102\xc2\xa03:36PM UTC'
p538
sg6
S'Tens of thousands protest against Hungary government'
p539
sa(dp540
g2
S'http://www.reuters.com/article/2012/01/02/idUS78249+02-Jan-2012+BW20120102'
p541
sg4
S'20120102\xc2\xa03:34PM UTC'
p542
sg6
S'Bernard Pettingill, Ph.D., Nils Westerlund, DPT., Commentary: Historical COLA (CPI) Calculations vs. Current Government, Insurance and Societal Health and Wellness Recommendations'
p543
sa(dp544
g2
S'http://www.reuters.com/article/2012/01/02/us-crime-newyork-idUSTRE8010IE20120102'
p545
sg4
S'20120102\xc2\xa03:27PM UTC'
p546
sg6
S'New York firebomb attacks hit mosque, Hindu site'
p547
sa(dp548
g2
S'http://www.reuters.com/article/2012/01/02/idUS77819+02-Jan-2012+PRN20120102'
p549
sg4
S'20120102\xc2\xa03:22PM UTC'
p550
sg6
S'Bayer Advanced\xe2\x84\xa2 Garden of Imagination Rose Parade\xc2\xae Float Features NASA Shuttle Astronaut Rex Walheim and His Brother, Bayer Advanced Rose Care Expert Lance Walheim'
p551
sa(dp552
g2
S'http://www.reuters.com/article/2012/01/02/idUS77737+02-Jan-2012+PRN20120102'
p553
sg4
S'20120102\xc2\xa03:20PM UTC'
p554
sg6
S'Genetics & IVF Institute Suggests Ten Things to Do Now If You Want to Have a Baby in 2012'
p555
sa(dp556
g2
S'http://www.reuters.com/article/2012/01/02/idUS77735+02-Jan-2012+PRN20120102'
p557
sg4
S'20120102\xc2\xa03:20PM UTC'
p558
sg6
S'Windstar Cruises Announces Two-For-One Fares on Caribbean Voyages'
p559
sa(dp560
g2
S'http://www.reuters.com/article/2012/01/02/idUS16227304120120102'
p561
sg4
S'20120102\xc2\xa03:16PM UTC'
p562
sg6
S'Images of December'
p563
sa(dp564
g2
S'http://www.reuters.com/article/2012/01/02/idUS77541+02-Jan-2012+BW20120102'
p565
sg4
S'20120102\xc2\xa03:15PM UTC'
p566
sg6
S'BITS Limited to Exhibit at 2012 International CES, January 10 - 13, 2012, Booth 70315 in the Sustainable Planet Section in The Venetian Ballroom'
p567
sa(dp568
g2
S'http://www.reuters.com/article/2012/01/02/us-italy-kluger-idUSTRE8010P120120102'
p569
sg4
S'20120102\xc2\xa03:08PM UTC'
p570
sg6
S'Jewish friend who influenced Pope John Paul dies'
p571
sa(dp572
g2
S'http://www.reuters.com/article/2012/01/02/digest-australia-business-idUSL3E7NK3X920120102'
p573
sg4
S'20120102\xc2\xa03:02PM UTC'
p574
sg6
S'PRESS DIGEST-Australian Business News - Jan 3'
p575
sa(dp576
g2
S'http://www.reuters.com/article/2012/01/02/idUS375618176020120102'
p577
sg4
S'20120102\xc2\xa02:43PM UTC'
p578
sg6
S'Improbably unwalkable city of the day, Jerusalem edition'
p579
sa(dp580
g2
S'http://www.reuters.com/article/2012/01/02/us-factbox-three-early-voting-states-in-idUSTRE80008C20120102'
p581
sg4
S'20120102\xc2\xa02:41PM UTC'
p582
sg6
S'Factbox: Three early voting states in presidential election'
p583
sa(dp584
g2
S'http://www.reuters.com/article/2012/01/02/hungary-protest-idUSL6E8C213J20120102'
p585
sg4
S'20120102\xc2\xa02:26PM UTC'
p586
sg6
S'Tens of thousands protest vs. Hungary govt, new law'
p587
sa(dp588
g2
S'http://www.reuters.com/article/2012/01/02/idUS75400+02-Jan-2012+PRN20120102'
p589
sg4
S'20120102\xc2\xa02:24PM UTC'
p590
sg6
S'The Fifth Annual 10 Best and Worst Dressed List for 2011 Released by Roger Stone'
p591
sa(dp592
g2
S'http://www.reuters.com/article/2012/01/02/idUS75333+02-Jan-2012+PRN20120102'
p593
sg4
S'20120102\xc2\xa02:22PM UTC'
p594
sg6
S'Aomei\xc2\xae Launches New Partition Software - Partition Assistant 4.0: Free for Commercial Use and Windows Server OS'
p595
sa(dp596
g2
S'http://www.reuters.com/article/2012/01/02/idUS75238+02-Jan-2012+GNW20120102'
p597
sg4
S'20120102\xc2\xa02:19PM UTC'
p598
sg6
S'MEDIA ADVISORY -- Montel Williams to Appear on The Dr. Oz Show 1/3/12'
p599
sa(dp600
g2
S'http://www.reuters.com/article/2012/01/02/idUS75235+02-Jan-2012+GNW20120102'
p601
sg4
S'20120102\xc2\xa02:19PM UTC'
p602
sg6
S'MEDIA ADVISORY -- Montel Williams to Appear on The Dr. Oz Show 1/3/12'
p603
sa(dp604
g2
S'http://www.reuters.com/article/2012/01/02/idUS74957+02-Jan-2012+PRN20120102'
p605
sg4
S'20120102\xc2\xa02:13PM UTC'
p606
sg6
S'2013 Mazda CX-5 Named 2012 Crossover of the Year by Autobytel'
p607
sa(dp608
g2
S'http://www.reuters.com/article/2012/01/02/us-tajikistan-fatherchristmas-idUSTRE8010NR20120102'
p609
sg4
S'20120102\xc2\xa02:08PM UTC'
p610
sg6
S'"Father Christmas" stabbed to death in Tajikistan'
p611
sa(dp612
g2
S'http://www.reuters.com/article/2012/01/02/idUS132910334020120102'
p613
sg4
S'20120102\xc2\xa02:05PM UTC'
p614
sg6
S"'Tree of Life' Tops Online Film Critics Awards"
p615
sa(dp616
g2
S'http://www.reuters.com/article/2012/01/02/idUS74449+02-Jan-2012+BW20120102'
p617
sg4
S'20120102\xc2\xa02:00PM UTC'
p618
sg6
S'Happy New Year From Frontier Airlines: Take Off With Fares as Low as $39 One Way'
p619
sa(dp620
g2
S'http://www.reuters.com/article/2012/01/02/idUS74406+02-Jan-2012+PRN20120102'
p621
sg4
S'20120102\xc2\xa01:58PM UTC'
p622
sg6
S'Spiritual Gardener Brings Kabbalah to Farm State: Weeding Out Hate in the Iowa Caucus'
p623
sa(dp624
g2
S'http://www.reuters.com/article/2012/01/02/pictures-report-idUSRTR2VTJ2'
p625
sg4
S'20120102\xc2\xa01:55PM UTC'
p626
sg6
S'Highs and lows in Iowa'
p627
sa(dp628
g2
S'http://www.reuters.com/article/2012/01/02/us-usa-boxoffice-chart-idUSTRE8010MY20120102'
p629
sg4
S'20120102\xc2\xa01:47PM UTC'
p630
sg6
S'Top films at the North American box office'
p631
sa(dp632
g2
S'http://www.reuters.com/article/2012/01/02/idUS243080978120120102'
p633
sg4
S'20120102\xc2\xa01:28PM UTC'
p634
sg6
S'Santorum momentum doesn\xe2\x80\x99t transfer to New Hampshire'
p635
sa(dp636
g2
S'http://www.reuters.com/article/2012/01/02/spain-companies-idUSL6E8C21LI20120102'
p637
sg4
S'20120102\xc2\xa01:18PM UTC'
p638
sg6
S'DIARY- Spain corporate events'
p639
sa(dp640
g2
S'http://www.reuters.com/article/2012/01/02/idUS72592+02-Jan-2012+PRN20120102'
p641
sg4
S'20120102\xc2\xa01:17PM UTC'
p642
sg6
S'Paramount Pictures Tops All Studios With the Biggest Box Office Gross in 2011, Earning $5.17 Billion Worldwide'
p643
sa(dp644
g2
S'http://www.reuters.com/article/2012/01/02/idUS72473+02-Jan-2012+BW20120102'
p645
sg4
S'20120102\xc2\xa01:15PM UTC'
p646
sg6
S'SFL: Half-Yearly Report on the Liquidity Contract'
p647
sa(dp648
g2
S'http://www.reuters.com/article/2012/01/02/idUS407655210420120102'
p649
sg4
S'20120102\xc2\xa01:07PM UTC'
p650
sg6
S"Ratings: 'Sunday Night Football' Giants-Cowboys Game Breaks Record"
p651
sa(dp652
g2
S'http://www.reuters.com/article/2012/01/02/us-peru-newmont-idUSTRE8010M820120102'
p653
sg4
S'20120102\xc2\xa01:05PM UTC'
p654
sg6
S'Protests over Newmont mine resume in Peru'
p655
sa(dp656
g2
S'http://www.reuters.com/article/2012/01/02/idUS71833+02-Jan-2012+PRN20120102'
p657
sg4
S'20120102\xc2\xa01:00PM UTC'
p658
sg6
S"Socialbakers' Study and Infographic Reveals the Most Engaging and Influential U.S. Presidential Candidates on Facebook"
p659
sa(dp660
g2
S'http://www.reuters.com/article/2012/01/02/idUS71820+02-Jan-2012+BW20120102'
p661
sg4
S'20120102\xc2\xa01:00PM UTC'
p662
sg6
S'Faiveley Transport Wins Its Third Major Contract to Supply the ICX Trains in Germany with Air Conditioning Systems'
p663
sa(dp664
g2
S'http://www.reuters.com/article/2012/01/02/italy-car-sales-fiat-idUSI6E7L701L20120102'
p665
sg4
S'20120102\xc2\xa012:56PM UTC'
p666
sg6
S'Fiat-Chrysler Italy new car sales down 19.8 pct in Dec'
p667
sa(dp668
g2
S'http://www.reuters.com/article/2012/01/02/france-refinery-strike-idUSL6E8C21J520120102'
p669
sg4
S'20120102\xc2\xa012:48PM UTC'
p670
sg6
S'French refinery unions mull action on Petroplus closure'
p671
sa(dp672
g2
S'http://www.reuters.com/article/2012/01/02/us-crime-stemcells-idUSTRE8010LS20120102'
p673
sg4
S'20120102\xc2\xa012:48PM UTC'
p674
sg6
S'Three arrested for peddling miracle cure from stem cells'
p675
sa(dp676
g2
S'http://www.reuters.com/article/2012/01/02/idUS427027293320120102'
p677
sg4
S'20120102\xc2\xa012:47PM UTC'
p678
sg6
S'Sir Jony: Apple design guru Jonathan Ive gets knighted'
p679
sa(dp680
g2
S'http://www.reuters.com/article/2012/01/02/markets-europe-stocks-idUSL6E8C21L220120102'
p681
sg4
S'20120102\xc2\xa012:40PM UTC'
p682
sg6
S'Europe shares hit 2-month high in anaemic volumes'
p683
sa(dp684
g2
S'http://www.reuters.com/article/2012/01/02/idUS70454+02-Jan-2012+PRN20120102'
p685
sg4
S'20120102\xc2\xa012:35PM UTC'
p686
sg6
S'AJC Condemns Attempted Firebombings in Queens'
p687
sa(dp688
g2
S'http://www.reuters.com/article/2012/01/02/us-samsungelectronics-japan-idUSTRE8010LE20120102'
p689
sg4
S'20120102\xc2\xa012:34PM UTC'
p690
sg6
S'Samsung seeks to re-enter Japan TV market: report'
p691
sa(dp692
g2
S'http://www.reuters.com/article/2012/01/02/samsungelectronics-japan-idUSL3E8C20PR20120102'
p693
sg4
S'20120102\xc2\xa012:33PM UTC'
p694
sg6
S'UPDATE 1-Samsung seeks to re-enter Japan TV mkt-Nikkei'
p695
sa(dp696
g2
S'http://www.reuters.com/article/2012/01/02/idUS70227+02-Jan-2012+HUG20120102'
p697
sg4
S'20120102\xc2\xa012:30PM UTC'
p698
sg6
S'Metro International announces senior management share purchase '
p699
sa(dp700
g2
S'http://www.reuters.com/article/2012/01/02/us-nfl-coaches-idUSTRE8010L620120102'
p701
sg4
S'20120102\xc2\xa012:29PM UTC'
p702
sg6
S'Rams, Buccaneers fire coaches after losing seasons'
p703
sa(dp704
g2
S'http://www.reuters.com/article/2012/01/02/idUS369534519820120102'
p705
sg4
S'20120102\xc2\xa012:29PM UTC'
p706
sg6
S'Electric-car maker Fisker recalling Karmas due to battery issue'
p707
sa(dp708
g2
S'http://www.reuters.com/article/2012/01/02/italy-car-sales-idUSI6E7L701I20120102'
p709
sg4
S'20120102\xc2\xa012:21PM UTC'
p710
sg6
S'Italian new car sales down 15.3 pct in Dec-Federauto'
p711
sa(dp712
g2
S'http://www.reuters.com/article/2012/01/02/idUS69656+02-Jan-2012+HUG20120102'
p713
sg4
S'20120102\xc2\xa012:20PM UTC'
p714
sg6
S'Copeinca: NOTIFICATION OF TRADE'
p715
sa(dp716
g2
S'http://www.reuters.com/article/2012/01/02/idUS69445+02-Jan-2012+PRN20120102'
p717
sg4
S'20120102\xc2\xa012:16PM UTC'
p718
sg6
S'Public Boat Auction Planned During Indian River Nautical Flea Market and Seafood Festival'
p719
sa(dp720
g2
S'http://www.reuters.com/article/2012/01/02/us-usa-retail-returns-idUSTRE8010KM20120102'
p721
sg4
S'20120102\xc2\xa012:15PM UTC'
p722
sg6
S'Returns of online holiday gifts to hit record'
p723
sa(dp724
g2
S'http://www.reuters.com/article/2012/01/02/idUS170803742920120102'
p725
sg4
S'20120102\xc2\xa012:12PM UTC'
p726
sg6
S'Wikipedia fundraiser ends with $20M in the bank'
p727
sa(dp728
g2
S'http://www.reuters.com/article/2012/01/02/kpn-idUSL6E8C21J120120102'
p729
sg4
S'20120102\xc2\xa012:04PM UTC'
p730
sg6
S'KPN exec urges investment in fibre optics'
p731
sa(dp732
g2
S'http://www.reuters.com/article/2012/01/02/idUSL6E8C21K220120102'
p733
sg4
S'20120102\xc2\xa012:03PM UTC'
p734
sg6
S'AC\xc3\x87\xc3\x95ES PORTUGAL-PSI20 fecha em alta, energia e BCP suportam'
p735
sa(dp736
g2
S'http://www.reuters.com/article/2012/01/02/idUS142527736920120102'
p737
sg4
S'20120102\xc2\xa012:00PM UTC'
p738
sg6
S'Michigan\xe2\x80\x99s unemployment insurance bonds'
p739
sa(dp740
g2
S'http://www.reuters.com/article/2012/01/02/idUS68555+02-Jan-2012+HUG20120102'
p741
sg4
S'20120102\xc2\xa012:00PM UTC'
p742
sg6
S'Metro International increases stake in Metro St Petersburg '
p743
sa(dp744
g2
S'http://www.reuters.com/article/2012/01/02/idUS68484+02-Jan-2012+PRN20120102'
p745
sg4
S'20120102\xc2\xa012:00PM UTC'
p746
sg6
S'Leading Analyst Firm Recognizes eMeter as a Visionary in the "Magic Quadrant for Meter Data Management Products"'
p747
sa(dp748
g2
S'http://www.reuters.com/article/2012/01/02/idUS68442+02-Jan-2012+BW20120102'
p749
sg4
S'20120102\xc2\xa012:00PM UTC'
p750
sg6
S'A&B; Properties Acquires Retail Center and Prime Development Site in Central Oahu'
p751
sa(dp752
g2
S'http://www.reuters.com/article/2012/01/02/germany-brenntag-pip-idUSL6E8C21C720120102'
p753
sg4
S'20120102\xc2\xa011:56AM UTC'
p754
sg6
S'RPT-Brenntag said it provided industrial silicone to PIP'
p755
sa(dp756
g2
S'http://www.reuters.com/article/2012/01/02/idUS67753+02-Jan-2012+HUG20120102'
p757
sg4
S'20120102\xc2\xa011:45AM UTC'
p758
sg6
S'Regulated information - Ageas reports on the progress of share buy-back programme'
p759
sa(dp760
g2
S'http://www.reuters.com/article/2012/01/02/auto-sales-belgium-idUSB5E7K102820120102'
p761
sg4
S'20120102\xc2\xa011:40AM UTC'
p762
sg6
S'TABLE-Belgian Dec new car registrations up 66.75 pct'
p763
sa(dp764
g2
S'http://www.reuters.com/article/2012/01/02/us-markets-europe-stocks-idUSTRE7BQ0EM20120102'
p765
sg4
S'20120102\xc2\xa011:39AM UTC'
p766
sg6
S'European shares end higher in thin holiday trade'
p767
sa(dp768
g2
S'http://www.reuters.com/article/2012/01/02/idUS67315+02-Jan-2012+PRN20120102'
p769
sg4
S'20120102\xc2\xa011:37AM UTC'
p770
sg6
S'Global Semiconductor Sales Experience Near Term Challenges, Long Term Growth'
p771
sa(dp772
g2
S'http://www.reuters.com/article/2012/01/02/idUS67220+02-Jan-2012+HUG20120102'
p773
sg4
S'20120102\xc2\xa011:36AM UTC'
p774
sg6
S'Solteq Plc: SHARE REPURCHASE 2.1.2012'
p775
sa(dp776
g2
S'http://www.reuters.com/article/2012/01/02/markets-europe-stocks-close-idUSP6E7NR00Q20120102'
p777
sg4
S'20120102\xc2\xa011:34AM UTC'
p778
sg6
S'European shares end higher in thin holiday trade'
p779
sa(dp780
g2
S'http://www.reuters.com/article/2012/01/02/idUS67051+02-Jan-2012+BW20120102'
p781
sg4
S'20120102\xc2\xa011:33AM UTC'
p782
sg6
S'Carlisle Completes the Sale of PDT`s Rubber Components Unit'
p783
sa(dp784
g2
S'http://www.reuters.com/article/2012/01/02/us-italy-fireworks-idUSTRE80008Y20120102'
p785
sg4
S'20120102\xc2\xa011:32AM UTC'
p786
sg6
S'Two die, 561 hurt in Italian New Year celebrations'
p787
sa(dp788
g2
S'http://www.reuters.com/article/2012/01/02/sanofi-idUSL6E8C21D820120102'
p789
sg4
S'20120102\xc2\xa011:24AM UTC'
p790
sg6
S'Sanofi repurchased 1.074 bln eur of shares in 2011'
p791
sa(dp792
g2
S'http://www.reuters.com/article/2012/01/02/greece-nbg-idUSL6E8C21FT20120102'
p793
sg4
S'20120102\xc2\xa011:20AM UTC'
p794
sg6
S"Greece's NBG places 1 bln eurs of shares with govt"
p795
sa(dp796
g2
S'http://www.reuters.com/article/2012/01/02/idUS66231+02-Jan-2012+BW20120102'
p797
sg4
S'20120102\xc2\xa011:18AM UTC'
p798
sg6
S'Priority Health Celebrates Its 25th Anniversary with 25 Charitable Donations'
p799
sa(dp800
g2
S'http://www.reuters.com/article/2012/01/02/us-sarkozy-merkel-idUSTRE8010EB20120102'
p801
sg4
S'20120102\xc2\xa011:17AM UTC'
p802
sg6
S'Sarkozy, Merkel to meet as Europe seeks crisis exit'
p803
sa(dp804
g2
S'http://www.reuters.com/article/2012/01/02/sarkozy-merkel-idUSL6E8C21BM20120102'
p805
sg4
S'20120102\xc2\xa011:14AM UTC'
p806
sg6
S'UPDATE 1-Sarkozy, Merkel to meet as Europe seeks crisis exit'
p807
sa(dp808
g2
S'http://www.reuters.com/article/2012/01/02/idUS65739+02-Jan-2012+BW20120102'
p809
sg4
S'20120102\xc2\xa011:10AM UTC'
p810
sg6
S'Autobytel Announces 2012 Car and Truck of the Year Awards'
p811
sa(dp812
g2
S'http://www.reuters.com/article/2012/01/02/us-southsudan-fighting-idUSTRE8010D120120102'
p813
sg4
S'20120102\xc2\xa011:08AM UTC'
p814
sg6
S'Up to 50,000 flee South Sudan violence: U.N.'
p815
sa(dp816
g2
S'http://www.reuters.com/article/2012/01/02/idUS65607+02-Jan-2012+PRN20120102'
p817
sg4
S'20120102\xc2\xa011:07AM UTC'
p818
sg6
S'G. Willi-Food Announces Closing of Sale of Holdings in Shamir Salads'
p819
sa(dp820
g2
S'http://www.reuters.com/article/2012/01/02/us-iran-missile-idUSTRE80007E20120102'
p821
sg4
S'20120102\xc2\xa011:04AM UTC'
p822
sg6
S'Iran test-fires missiles in Gulf exercise'
p823
sa(dp824
g2
S'http://www.reuters.com/article/2012/01/02/us-iran-usa-spy-idUSTRE8010IN20120102'
p825
sg4
S'20120102\xc2\xa011:00AM UTC'
p826
sg6
S'American awaits verdict after Iran spy trial: report'
p827
sa(dp828
g2
S'http://www.reuters.com/article/2012/01/02/idUS65071+02-Jan-2012+PRN20120102'
p829
sg4
S'20120102\xc2\xa011:00AM UTC'
p830
sg6
S'Sunday Prime Rib Dinner at Fleming\'s & "Big Game" Offerings'
p831
sa(dp832
g2
S'http://www.reuters.com/article/2012/01/02/idUS65030+02-Jan-2012+BW20120102'
p833
sg4
S'20120102\xc2\xa011:00AM UTC'
p834
sg6
S'Facebook is Good, but Personal Face Time is Better, Say MIT Sloan MBAs'
p835
sa(dp836
g2
S'http://www.reuters.com/article/2012/01/02/us-lloyds-shareholders-idUSTRE8010IH20120102'
p837
sg4
S'20120102\xc2\xa010:59AM UTC'
p838
sg6
S'U.S. investors sue Lloyds chiefs over HBOS deal'
p839
sa(dp840
g2
S'http://www.reuters.com/article/2012/01/02/us-crime-newyork-idUSTRE8010IB20120102'
p841
sg4
S'20120102\xc2\xa010:56AM UTC'
p842
sg6
S'New York firebomb attacks hit mosque, Hindu site'
p843
sa(dp844
g2
S'http://www.reuters.com/article/2012/01/02/us-tennis-qatar-nadal-idUSTRE8010I020120102'
p845
sg4
S'20120102\xc2\xa010:54AM UTC'
p846
sg6
S'Under-prepared Nadal adjusting to heavier racket'
p847
sa(dp848
g2
S'http://www.reuters.com/article/2012/01/02/us-libya-election-law-idUSTRE8010HF20120102'
p849
sg4
S'20120102\xc2\xa010:54AM UTC'
p850
sg6
S"Libyans linked to Gaddafi can't run in election: draft"
p851
sa(dp852
g2
S'http://www.reuters.com/article/2012/01/02/poland-kghm-idUSL6E8C215220120102'
p853
sg4
S'20120102\xc2\xa010:53AM UTC'
p854
sg6
S'UPDATE 2-Polish Treasury calls for lower mining tax on KGHM'
p855
sa(dp856
g2
S'http://www.reuters.com/article/2012/01/02/idUS64514+02-Jan-2012+PRN20120102'
p857
sg4
S'20120102\xc2\xa010:51AM UTC'
p858
sg6
S'Better Oral Hygiene Could Reduce Risk of Pneumonia According to Research From Yale University'
p859
sa(dp860
g2
S'http://www.reuters.com/article/2012/01/02/idUS64496+02-Jan-2012+HUG20120102'
p861
sg4
S'20120102\xc2\xa010:51AM UTC'
p862
sg6
S'TOUAX : half-year statement on liquidity contract'
p863
sa(dp864
g2
S'http://www.reuters.com/article/2012/01/02/turkey-teb-bonds-idUSL6E8C21FE20120102'
p865
sg4
S'20120102\xc2\xa010:50AM UTC'
p866
sg6
S"Turkey's TEB applies to issue 350 mln lira in bank bonds"
p867
sa(dp868
g2
S'http://www.reuters.com/article/2012/01/02/us-ironlady-review-idUSTRE7BS13A20120102'
p869
sg4
S'20120102\xc2\xa010:50AM UTC'
p870
sg6
S'Meryl Streep is "brilliant" in "Iron Lady"'
p871
sa(dp872
g2
S'http://www.reuters.com/article/2012/01/02/lloyds-shareholders-idUSL6E8C21FH20120102'
p873
sg4
S'20120102\xc2\xa010:50AM UTC'
p874
sg6
S'U.S. investors sue Lloyds chiefs over HBOS deal'
p875
sa(dp876
g2
S'http://www.reuters.com/article/2012/01/02/idUS63678+02-Jan-2012+PRN20120102'
p877
sg4
S'20120102\xc2\xa010:40AM UTC'
p878
sg6
S'Ecopetrol S.A. Announces Issuance of a Guarantee of the International Financing Operation for the Expansion and Modernization Project of the Cartagena Refinery'
p879
sa(dp880
g2
S'http://www.reuters.com/article/2012/01/02/us-tennis-qatar-federer-idUSTRE8010H320120102'
p881
sg4
S'20120102\xc2\xa010:37AM UTC'
p882
sg6
S'Federer says busy start will be a physical test'
p883
sa(dp884
g2
S'http://www.reuters.com/article/2012/01/02/idUS63462+02-Jan-2012+PRN20120102'
p885
sg4
S'20120102\xc2\xa010:37AM UTC'
p886
sg6
S'Meritor Announces Sale of St. Priest, France, Manufacturing Operation to Renault Trucks'
p887
sa(dp888
g2
S'http://www.reuters.com/article/2012/01/02/greece-fraud-idUSL6E8C219Q20120102'
p889
sg4
S'20120102\xc2\xa010:30AM UTC'
p890
sg6
S'Greek finance ministry official charged in tax case'
p891
sa(dp892
g2
S'http://www.reuters.com/article/2012/01/02/idUS62872+02-Jan-2012+BW20120102'
p893
sg4
S'20120102\xc2\xa010:30AM UTC'
p894
sg6
S'Samsung`s Latest DualView Offering - the DV300F - Brings Further Innovation to Highly Popular Category'
p895
sa(dp896
g2
S'http://www.reuters.com/article/2012/01/02/idUS62865+02-Jan-2012+BW20120102'
p897
sg4
S'20120102\xc2\xa010:30AM UTC'
p898
sg6
S'CSG International to Hold Fourth Quarter and Year End 2011 Earnings Conference Call'
p899
sa(dp900
g2
S'http://www.reuters.com/article/2012/01/02/teva-ceo-idUSL6E8C215V20120102'
p901
sg4
S'20120102\xc2\xa010:28AM UTC'
p902
sg6
S'REFILE-UPDATE 1-Teva names Bristol-Myers VP Levin as CEO'
p903
sa(dp904
g2
S'http://www.reuters.com/article/2012/01/02/idUS297123455420120102'
p905
sg4
S'20120102\xc2\xa010:27AM UTC'
p906
sg6
S'Why Ecuador isn\xe2\x80\x99t drilling in Yasuni'
p907
sa(dp908
g2
S'http://www.reuters.com/article/2012/01/02/idUS62526+02-Jan-2012+HUG20120102'
p909
sg4
S'20120102\xc2\xa010:24AM UTC'
p910
sg6
S'EXEL INDUSTRIES : Dates of upcoming releases for fiscal year 2011-2012'
p911
sa(dp912
g2
S'http://www.reuters.com/article/2012/01/02/us-lean-beef-idUSTRE8010GK20120102'
p913
sg4
S'20120102\xc2\xa010:24AM UTC'
p914
sg6
S'Lean beef OK for certain diets: study'
p915
sa(dp916
g2
S'http://www.reuters.com/article/2012/01/02/us-saudi-shiites-warrants-idUSTRE8010D820120102'
p917
sg4
S'20120102\xc2\xa010:23AM UTC'
p918
sg6
S"Saudi Arabia seeks arrest of 23 Shi'ites for unrest"
p919
sa(dp920
g2
S'http://www.reuters.com/article/2012/01/02/us-britain-cameron-idUSTRE8010G920120102'
p921
sg4
S'20120102\xc2\xa010:16AM UTC'
p922
sg6
S'UK\'s Cameron to tackle "excess" City pay'
p923
sa(dp924
g2
S'http://www.reuters.com/article/2012/01/02/idUS157013614120120102'
p925
sg4
S'20120102\xc2\xa010:15AM UTC'
p926
sg6
S"'So You Think You Can Dance' Revamp Planned After Fox Cancels Results Show"
p927
sa(dp928
g2
S'http://www.reuters.com/article/2012/01/02/us-usa-campaign-bachmann-idUSTRE8000GT20120102'
p929
sg4
S'20120102\xc2\xa010:12AM UTC'
p930
sg6
S'Bachmann seeks miracle in presidential race'
p931
sa(dp932
g2
S'http://www.reuters.com/article/2012/01/02/us-syria-rebels-idUSTRE8010FY20120102'
p933
sg4
S'20120102\xc2\xa010:11AM UTC'
p934
sg6
S'Syrian rebels capture troops in north: activists'
p935
sa(dp936
g2
S'http://www.reuters.com/article/2012/01/02/idUS284022423520120102'
p937
sg4
S'20120102\xc2\xa010:09AM UTC'
p938
sg6
S'Nigeria\xe2\x80\x99s Jonathan declares state of emergency against Islamist insurgency'
p939
sa(dp940
g2
S'http://www.reuters.com/article/2012/01/02/idUS60695+02-Jan-2012+PRN20120102'
p941
sg4
S'20120102\xc2\xa010:00AM UTC'
p942
sg6
S'MAKE UP FOR EVER Hosts First Open Casting Call to Find New Face of Next Unretouched Ad Campaign'
p943
sa(dp944
g2
S'http://www.reuters.com/article/2012/01/02/idUS60678+02-Jan-2012+PRN20120102'
p945
sg4
S'20120102\xc2\xa010:00AM UTC'
p946
sg6
S'Allstate Asserts Confidence in People and Processes with Innovative Product'
p947
sa(dp948
g2
S'http://www.reuters.com/article/2012/01/02/idUS60673+02-Jan-2012+PRN20120102'
p949
sg4
S'20120102\xc2\xa010:00AM UTC'
p950
sg6
S'KONE Strengthens Environmental Leadership in Mexico with FIDE Certification'
p951
sa(dp952
g2
S'http://www.reuters.com/article/2012/01/02/mideast-markets-wrap-idUSL6E8C21AW20120102'
p953
sg4
S'20120102\xc2\xa09:59AM UTC'
p954
sg6
S'MIDEAST STOCKS-Egypt up on 2012 optimism; Gulf mixed'
p955
sa(dp956
g2
S'http://www.reuters.com/article/2012/01/02/us-britain-brown-hacking-idUSTRE80109N20120102'
p957
sg4
S'20120102\xc2\xa09:59AM UTC'
p958
sg6
S"Hackers target emails of UK's Gordon Brown: report"
p959
sa(dp960
g2
S'http://www.reuters.com/article/2012/01/02/us-twin-embryos-idUSTRE8010FC20120102'
p961
sg4
S'20120102\xc2\xa09:58AM UTC'
p962
sg6
S'Do twin embryos help each other survive in IVF?'
p963
sa(dp964
g2
S'http://www.reuters.com/article/2012/01/02/us-iraq-violence-toll-idUSTRE80109X20120102'
p965
sg4
S'20120102\xc2\xa09:56AM UTC'
p966
sg6
S'Iraqi civilian deaths climb in 2011: study'
p967
sa(dp968
g2
S'http://www.reuters.com/article/2012/01/02/uk-usa-weather-idUSLNE80100F20120102'
p969
sg4
S'20120102\xc2\xa09:56AM UTC'
p970
sg6
S'In new year, nation sees winter weather at last'
p971
sa(dp972
g2
S'http://www.reuters.com/article/2012/01/02/us-egypt-mubarak-idUSTRE8010B620120102'
p973
sg4
S'20120102\xc2\xa09:53AM UTC'
p974
sg6
S'Prosecutors to take stage Tuesday in Mubarak trial'
p975
sa(dp976
g2
S'http://www.reuters.com/article/2012/01/02/us-korea-north-lee-idUSTRE8010DW20120102'
p977
sg4
S'20120102\xc2\xa09:50AM UTC'
p978
sg6
S"South Korea's Lee calls on North to end nuclear activities"
p979
sa(dp980
g2
S'http://www.reuters.com/article/2012/01/02/idUS400296578920120102'
p981
sg4
S'20120102\xc2\xa09:49AM UTC'
p982
sg6
S'Maldives luxury resorts face ban on spas after Muslim protest'
p983
sa(dp984
g2
S'http://www.reuters.com/article/2012/01/02/us-eurozone-idUSTRE8000BY20120102'
p985
sg4
S'20120102\xc2\xa09:46AM UTC'
p986
sg6
S'Crisis talk, austerity calls mark euro anniversary'
p987
sa(dp988
g2
S'http://www.reuters.com/article/2012/01/02/us-france-sarkozy-idUSTRE8010ER20120102'
p989
sg4
S'20120102\xc2\xa09:46AM UTC'
p990
sg6
S'Left rages as Sarkozy finds best friend in crisis'
p991
sa(dp992
g2
S'http://www.reuters.com/article/2012/01/02/idUS59633+02-Jan-2012+PRN20120102'
p993
sg4
S'20120102\xc2\xa09:44AM UTC'
p994
sg6
S"Vivisimo Receives Customer Interaction Solutions\xc2\xae Magazine's 2011 Product of the Year Award"
p995
sa(dp996
g2
S'http://www.reuters.com/article/2012/01/02/us-spain-economy-idUSTRE80105Y20120102'
p997
sg4
S'20120102\xc2\xa09:43AM UTC'
p998
sg6
S'Spain public deficit may top 8 percent: minister'
p999
sa(dp1000
g2
S'http://www.reuters.com/article/2012/01/02/france-sarkozy-idUSL6E8C213D20120102'
p1001
sg4
S'20120102\xc2\xa09:42AM UTC'
p1002
sg6
S'Left rages as Sarkozy finds best friend in crisis'
p1003
sa(dp1004
g2
S'http://www.reuters.com/article/2012/01/02/uk-lufthansa-emissions-idUSLNE80100Z20120102'
p1005
sg4
S'20120102\xc2\xa09:41AM UTC'
p1006
sg6
S'Lufthansa to pass carbon scheme costs to passengers'
p1007
sa(dp1008
g2
S'http://www.reuters.com/article/2012/01/02/idUS59305+02-Jan-2012+PRN20120102'
p1009
sg4
S'20120102\xc2\xa09:38AM UTC'
p1010
sg6
S'Qorvis Study Shows Ron Paul, Rick Santorum Surge on Twitter on Eve of Iowa Caucus'
p1011
sa(dp1012
g2
S'http://www.reuters.com/article/2012/01/02/schuldenkrise-deutschland-frankreich-tre-idUSP6E7N202L20120102'
p1013
sg4
S'20120102\xc2\xa09:37AM UTC'
p1014
sg6
S'Merkel und Sarkozy beraten am 9. Januar in Berlin \xc3\xbcber EU-Themen'
p1015
sa(dp1016
g2
S'http://www.reuters.com/article/2012/01/02/us-global-economy-idUSTRE8010AL20120102'
p1017
sg4
S'20120102\xc2\xa09:34AM UTC'
p1018
sg6
S'Factory output subdued going into 2012'
p1019
sa(dp1020
g2
S'http://www.reuters.com/article/2012/01/02/uk-usa-sept11-museum-idUSLNE80100U20120102'
p1021
sg4
S'20120102\xc2\xa09:28AM UTC'
p1022
sg6
S'Financial dispute delays 9/11 museum opening'
p1023
sa(dp1024
g2
S'http://www.reuters.com/article/2012/01/02/idUS57779+02-Jan-2012+PRN20120102'
p1025
sg4
S'20120102\xc2\xa09:18AM UTC'
p1026
sg6
S'Allied Van Lines Announces 44th Annual Magnet States Report'
p1027
sa(dp1028
g2
S'http://www.reuters.com/article/2012/01/02/idUS203493800520120102'
p1029
sg4
S'20120102\xc2\xa09:18AM UTC'
p1030
sg6
S'Holocaust garb on ultra-Orthodox protesters causes outrage in Israel'
p1031
sa(dp1032
g2
S'http://www.reuters.com/article/2012/01/02/idUS57625+02-Jan-2012+PRN20120102'
p1033
sg4
S'20120102\xc2\xa09:15AM UTC'
p1034
sg6
S'Michael A. Marletta Takes Office as New President of Scripps Research Institute'
p1035
sa(dp1036
g2
S'http://www.reuters.com/article/2012/01/02/idUS57546+02-Jan-2012+PRN20120102'
p1037
sg4
S'20120102\xc2\xa09:15AM UTC'
p1038
sg6
S'Aiseesoft Brings Customers the New Year Gift - a Brand-new iPad Converter Suite Ultimate'
p1039
sa(dp1040
g2
S'http://www.reuters.com/article/2012/01/02/us-asia-economy-currency-idUSTRE8010DQ20120102'
p1041
sg4
S'20120102\xc2\xa09:15AM UTC'
p1042
sg6
S"Analysis: Asia's double-edged currency sword"
p1043
sa(dp1044
g2
S'http://www.reuters.com/article/2012/01/02/idUS57446+02-Jan-2012+PRN20120102'
p1045
sg4
S'20120102\xc2\xa09:13AM UTC'
p1046
sg6
S'CAIR: National Civil Rights Coalition to Hold Iowa News Conference on New Detention Law'
p1047
sa(dp1048
g2
S'http://www.reuters.com/article/2012/01/02/idUS57258+02-Jan-2012+BW20120102'
p1049
sg4
S'20120102\xc2\xa09:10AM UTC'
p1050
sg6
S'Ron Paul Maintains Lead in Latest PPP Iowa Poll'
p1051
sa(dp1052
g2
S'http://www.reuters.com/article/2012/01/02/idUS215616122620120102'
p1053
sg4
S'20120102\xc2\xa09:08AM UTC'
p1054
sg6
S'New Islamist democracies will be open for business'
p1055
sa(dp1056
g2
S'http://www.reuters.com/article/2012/01/02/idUS57169+02-Jan-2012+PRN20120102'
p1057
sg4
S'20120102\xc2\xa09:08AM UTC'
p1058
sg6
S'A FREEBIRDS Resolution: Ditch the Tortilla'
p1059
sa(dp1060
g2
S'http://www.reuters.com/article/2012/01/02/idUS57098+02-Jan-2012+BW20120102'
p1061
sg4
S'20120102\xc2\xa09:07AM UTC'
p1062
sg6
S'Ron Paul Campaign Airs Final New Hampshire TV Ad `Believe`'
p1063
sa(dp1064
g2
S'http://www.reuters.com/article/2012/01/02/idUS56982+02-Jan-2012+HUG20120102'
p1065
sg4
S'20120102\xc2\xa09:04AM UTC'
p1066
sg6
S'Basware delivers solutions to a global services organization in North America'
p1067
sa(dp1068
g2
S'http://www.reuters.com/article/2012/01/02/idUS56848+02-Jan-2012+PRN20120102'
p1069
sg4
S'20120102\xc2\xa09:02AM UTC'
p1070
sg6
S'China Yida Appoints Interim Chief Financial Officer'
p1071
sa(dp1072
g2
S'http://www.reuters.com/article/2012/01/02/idUS56762+02-Jan-2012+BW20120102'
p1073
sg4
S'20120102\xc2\xa09:01AM UTC'
p1074
sg6
S'Presage ST2 Assay Enters Routine Use for Heart Failure Patient Care'
p1075
sa(dp1076
g2
S'http://www.reuters.com/article/2012/01/02/us-iran-sanctions-idUSTRE8010DH20120102'
p1077
sg4
S'20120102\xc2\xa09:00AM UTC'
p1078
sg6
S'Factbox: Sanctions imposed on Iran'
p1079
sa(dp1080
g2
S'http://www.reuters.com/article/2012/01/02/idUS56716+02-Jan-2012+PRN20120102'
p1081
sg4
S'20120102\xc2\xa09:00AM UTC'
p1082
sg6
S'VDA Press Conference in Detroit on January 9, 2012'
p1083
sa(dp1084
g2
S'http://www.reuters.com/article/2012/01/02/idUS56708+02-Jan-2012+PRN20120102'
p1085
sg4
S'20120102\xc2\xa09:00AM UTC'
p1086
sg6
S'The Special K\xc2\xae Brand Marks January 2 National Weigh-in Day'
p1087
sa(dp1088
g2
S'http://www.reuters.com/article/2012/01/02/idUS56710+02-Jan-2012+GNW20120102'
p1089
sg4
S'20120102\xc2\xa09:00AM UTC'
p1090
sg6
S'New England Patriots Recognized as Top Nfl Team for Designated Driver Program for Second Consecutive Season'
p1091
sa(dp1092
g2
S'http://www.reuters.com/article/2012/01/02/idUS56706+02-Jan-2012+PRN20120102'
p1093
sg4
S'20120102\xc2\xa09:00AM UTC'
p1094
sg6
S'GMAC Mortgage Donates Mortgage-Free Home to Army Veteran'
p1095
sa(dp1096
g2
S'http://www.reuters.com/article/2012/01/02/idUS56703+02-Jan-2012+PRN20120102'
p1097
sg4
S'20120102\xc2\xa09:00AM UTC'
p1098
sg6
S'Mopar\xc2\xae Introduces Dodge Charger Redline Infused With New High Output 426 HEMI\xc2\xae Aluminum Crate Engine and More Aggressive Style'
p1099
sa(dp1100
g2
S'http://www.reuters.com/article/2012/01/02/idUS56701+02-Jan-2012+PRN20120102'
p1101
sg4
S'20120102\xc2\xa09:00AM UTC'
p1102
sg6
S'Anytime Fitness Opens 1st Middle Eastern Club in Qatar'
p1103
sa(dp1104
g2
S'http://www.reuters.com/article/2012/01/02/idUS56698+02-Jan-2012+PRN20120102'
p1105
sg4
S'20120102\xc2\xa09:00AM UTC'
p1106
sg6
S'Chrysler Group LLC Introduces Chrysler 200 Super S by Mopar'
p1107
sa(dp1108
g2
S'http://www.reuters.com/article/2012/01/02/idUS56678+02-Jan-2012+GNW20120102'
p1109
sg4
S'20120102\xc2\xa09:00AM UTC'
p1110
sg6
S'New England Patriots Recognized as Top Nfl Team for Designated Driver Program for Second Consecutive Season'
p1111
sa(dp1112
g2
S'http://www.reuters.com/article/2012/01/02/idUS56675+02-Jan-2012+PRN20120102'
p1113
sg4
S'20120102\xc2\xa09:00AM UTC'
p1114
sg6
S'Homes for Our Troops to Host Three-Day Build Brigade to Start New Tomball Home for Severely Injured Veteran'
p1115
sa(dp1116
g2
S'http://www.reuters.com/article/2012/01/02/idUS56649+02-Jan-2012+BW20120102'
p1117
sg4
S'20120102\xc2\xa09:00AM UTC'
p1118
sg6
S'Maya-Systems to Exhibit at 2012 International CES, booth 35320, Jan 10 - 13, 2012, in Las Vegas NV, US'
p1119
sa(dp1120
g2
S'http://www.reuters.com/article/2012/01/02/idUS56643+02-Jan-2012+BW20120102'
p1121
sg4
S'20120102\xc2\xa09:00AM UTC'
p1122
sg6
S'Hospitals, Healthcare Providers to Benefit from New Premier Agreements For MRI Compatible Equipment'
p1123
sa(dp1124
g2
S'http://www.reuters.com/article/2012/01/02/uk-maldives-tourism-ban-idUSLNE80100Q20120102'
p1125
sg4
S'20120102\xc2\xa08:58AM UTC'
p1126
sg6
S'Maldives luxury resorts face government ban on spas'
p1127
sa(dp1128
g2
S'http://www.reuters.com/article/2012/01/02/idUS161595438820120102'
p1129
sg4
S'20120102\xc2\xa08:57AM UTC'
p1130
sg6
S'Dark holiday season for Detroit Catholic Church as archdiocese downsizes'
p1131
sa(dp1132
g2
S'http://www.reuters.com/article/2012/01/02/idUS56360+02-Jan-2012+PRN20120102'
p1133
sg4
S'20120102\xc2\xa08:54AM UTC'
p1134
sg6
S'CAIR Condemns Firebombing of NY Mosque'
p1135
sa(dp1136
g2
S'http://www.reuters.com/article/2012/01/02/idUS56176+02-Jan-2012+PRN20120102'
p1137
sg4
S'20120102\xc2\xa08:51AM UTC'
p1138
sg6
S'Spendology Washington, DC Launch: Helping People Achieve Their Financial Goals in the New Year'
p1139
sa(dp1140
g2
S'http://www.reuters.com/article/2012/01/02/us-markets-forex-euro-idUSTRE7BS00K20120102'
p1141
sg4
S'20120102\xc2\xa08:51AM UTC'
p1142
sg6
S'Euro hits 1-year low against the dollar at $1.2887'
p1143
sa(dp1144
g2
S'http://www.reuters.com/article/2012/01/02/idUS55950+02-Jan-2012+PRN20120102'
p1145
sg4
S'20120102\xc2\xa08:48AM UTC'
p1146
sg6
S'Consolidate Your Home Gym with ThunderBell\xc2\xae'
p1147
sa(dp1148
g2
S'http://www.reuters.com/article/2012/01/02/idUS55757+02-Jan-2012+HUG20120102'
p1149
sg4
S'20120102\xc2\xa08:45AM UTC'
p1150
sg6
S'Update: EDB ErgoGroup ASA- Financial calendar 2012'
p1151
sa(dp1152
g2
S'http://www.reuters.com/article/2012/01/02/idUSWLA087620120102'
p1153
sg4
S'20120102\xc2\xa08:38AM UTC'
p1154
sg6
S"TEXT-S&P; assigns 'BBB-/A-3' ratings to IDFC"
p1155
sa(dp1156
g2
S'http://www.reuters.com/article/2012/01/02/uk-commercialproperty-survey-idUSLNE80100M20120102'
p1157
sg4
S'20120102\xc2\xa08:31AM UTC'
p1158
sg6
S'U.S. is top 2012 property investment pick'
p1159
sa(dp1160
g2
S'http://www.reuters.com/article/2012/01/02/idUS54673+02-Jan-2012+HUG20120102'
p1161
sg4
S'20120102\xc2\xa08:27AM UTC'
p1162
sg6
S'Novo Nordisk A/S - Share repurchase programme'
p1163
sa(dp1164
g2
S'http://www.reuters.com/article/2012/01/02/idUS54291+02-Jan-2012+HUG20120102'
p1165
sg4
S'20120102\xc2\xa08:20AM UTC'
p1166
sg6
S"Novo Nordisk A/S : Status regarding Novo Nordisk's holding of its own shares  (31 December 2011)"
p1167
sa(dp1168
g2
S'http://www.reuters.com/article/2012/01/02/markets-forex-idUSL6E8C214Q20120102'
p1169
sg4
S'20120102\xc2\xa08:18AM UTC'
p1170
sg6
S'FOREX-Euro hits decade low vs yen, more falls likely'
p1171
sa(dp1172
g2
S'http://www.reuters.com/article/2012/01/02/lufthansa-emissions-idUSL6E8C217120120102'
p1173
sg4
S'20120102\xc2\xa08:18AM UTC'
p1174
sg6
S'RPT-Lufthansa to pass carbon scheme costs to passengers'
p1175
sa(dp1176
g2
S'http://www.reuters.com/article/2012/01/02/idUS53952+02-Jan-2012+PRN20120102'
p1177
sg4
S'20120102\xc2\xa08:15AM UTC'
p1178
sg6
S'AppAggie.com Reveals Top 10 Free Android and iOS App Downloads of Q4 2011'
p1179
sa(dp1180
g2
S'http://www.reuters.com/article/2012/01/02/us-india-china-idUSTRE80107H20120102'
p1181
sg4
S'20120102\xc2\xa08:13AM UTC'
p1182
sg6
S'India complains to Beijing over treatment of diplomat'
p1183
sa(dp1184
g2
S'http://www.reuters.com/article/2012/01/02/religare-investment-idUSL3E8C20LZ20120102'
p1185
sg4
S'20120102\xc2\xa08:10AM UTC'
p1186
sg6
S"UPDATE 1-Jacob Ballas to invest $38 mln in India's Religare unit"
p1187
sa(dp1188
g2
S'http://www.reuters.com/article/2012/01/02/idUS53672+02-Jan-2012+PRN20120102'
p1189
sg4
S'20120102\xc2\xa08:10AM UTC'
p1190
sg6
S'Teleplexus Announces Anniversary of AddisonsDisease.Net'
p1191
sa(dp1192
g2
S'http://www.reuters.com/article/2012/01/02/markets-srilanka-idUSL3E8C20KZ20120102'
p1193
sg4
S'20120102\xc2\xa08:09AM UTC'
p1194
sg6
S'Sri Lanka stocks steady in 21-month low volume'
p1195
sa(dp1196
g2
S'http://www.reuters.com/article/2012/01/02/diary-mexico-idUSN2726138820120102'
p1197
sg4
S'20120102\xc2\xa08:04AM UTC'
p1198
sg6
S'DIARY - Mexico and Central America - to Jan 20'
p1199
sa(dp1200
g2
S'http://www.reuters.com/article/2012/01/02/idUS53331+02-Jan-2012+PRN20120102'
p1201
sg4
S'20120102\xc2\xa08:03AM UTC'
p1202
sg6
S'K-Swiss Launches "The Party\'s Over" Ad Campaign Starring Jillian Michaels'
p1203
sa(dp1204
g2
S'http://www.reuters.com/article/2012/01/02/idUSL6E8C215K20120102'
p1205
sg4
S'20120102\xc2\xa08:00AM UTC'
p1206
sg6
S'AC\xc3\x87\xc3\x95ES PORTUGAL-PSI20 em alta com Europa, BCP sobe 3 pct'
p1207
sa(dp1208
g2
S'http://www.reuters.com/article/2012/01/02/idUS53145+02-Jan-2012+PRN20120102'
p1209
sg4
S'20120102\xc2\xa08:00AM UTC'
p1210
sg6
S'Aspect Imaging\'s M2\xe2\x84\xa2 Compact High-Performance MRI Imaging System Selected as a "Top 10 Innovation" in Life Science by The Scientist'
p1211
sa(dp1212
g2
S'http://www.reuters.com/article/2012/01/02/idUS53033+02-Jan-2012+PRN20120102'
p1213
sg4
S'20120102\xc2\xa08:00AM UTC'
p1214
sg6
S'California Water Facilities Reduce Operating Costs with SunPower Solar Power Systems'
p1215
sa(dp1216
g2
S'http://www.reuters.com/article/2012/01/02/idUS53013+02-Jan-2012+BW20120102'
p1217
sg4
S'20120102\xc2\xa08:00AM UTC'
p1218
sg6
S'Graceland Launches 35th Anniversary Celebration of the Life and Legacy of Elvis Presley in 2012'
p1219
sa(dp1220
g2
S'http://www.reuters.com/article/2012/01/02/iran-missile-idUSL6E8C201Q20120102'
p1221
sg4
S'20120102\xc2\xa07:58AM UTC'
p1222
sg6
S'UPDATE 4-Iran test-fires missiles in Gulf exercise'
p1223
sa(dp1224
g2
S'http://www.reuters.com/article/2012/01/02/idUS52735+02-Jan-2012+HUG20120102'
p1225
sg4
S'20120102\xc2\xa07:56AM UTC'
p1226
sg6
S'Storebrand: Proposal of amendment to the Tax Legislation'
p1227
sa(dp1228
g2
S'http://www.reuters.com/article/2012/01/02/idUS52352+02-Jan-2012+PRN20120102'
p1229
sg4
S'20120102\xc2\xa07:50AM UTC'
p1230
sg6
S'A New iPhone, iPod touch & iPad JFK Long Term Airport Parking App Is Launched'
p1231
sa(dp1232
g2
S'http://www.reuters.com/article/2012/01/02/idUS52345+02-Jan-2012+PRN20120102'
p1233
sg4
S'20120102\xc2\xa07:50AM UTC'
p1234
sg6
S'Be Fireworks Smart Before, During and After Your Consumer Fireworks Display'
p1235
sa(dp1236
g2
S'http://www.reuters.com/article/2012/01/02/us-spain-nuclear-idUSTRE8010BF20120102'
p1237
sg4
S'20120102\xc2\xa07:49AM UTC'
p1238
sg6
S'Spain ageing nuclear plant may stay open: report'
p1239
sa(dp1240
g2
S'http://www.reuters.com/article/2012/01/02/spain-nuclear-idUSL6E8C214720120102'
p1241
sg4
S'20120102\xc2\xa07:49AM UTC'
p1242
sg6
S'Spain ageing nuclear plant may stay open -report'
p1243
sa(dp1244
g2
S'http://www.reuters.com/article/2012/01/02/idUS52080+02-Jan-2012+PRN20120102'
p1245
sg4
S'20120102\xc2\xa07:45AM UTC'
p1246
sg6
S'Light Bulb Ban Signals Dynamic Changes in Electric Lighting'
p1247
sa(dp1248
g2
S'http://www.reuters.com/article/2012/01/02/idUS51766+02-Jan-2012+HUG20120102'
p1249
sg4
S'20120102\xc2\xa07:40AM UTC'
p1250
sg6
S'Cryptzone receives a large contract for eCollaboration encryption in Microsoft SharePoint\xc2\xae'
p1251
sa(dp1252
g2
S'http://www.reuters.com/article/2012/01/02/idUS51736+02-Jan-2012+PRN20120102'
p1253
sg4
S'20120102\xc2\xa07:40AM UTC'
p1254
sg6
S'Teeter Is Making History at HSN'
p1255
sa(dp1256
g2
S'http://www.reuters.com/article/2012/01/02/lufthansa-emissions-idUSL6E8C212U20120102'
p1257
sg4
S'20120102\xc2\xa07:39AM UTC'
p1258
sg6
S'Lufthansa to pass carbon scheme costs to passengers'
p1259
sa(dp1260
g2
S'http://www.reuters.com/article/2012/01/02/markets-bonds-euro-idUSL6E8C20VN20120102'
p1261
sg4
S'20120102\xc2\xa07:38AM UTC'
p1262
sg6
S'EURO GOVT-Bunds slip; debt crisis to remain supportive in 2012'
p1263
sa(dp1264
g2
S'http://www.reuters.com/article/2012/01/02/uk-kenya-boat-idUSLNE80100B20120102'
p1265
sg4
S'20120102\xc2\xa07:36AM UTC'
p1266
sg6
S'More than 20 feared dead in Kenyan boat crash'
p1267
sa(dp1268
g2
S'http://www.reuters.com/article/2012/01/02/markets-europe-stocks-idUSL6E8C20OB20120102'
p1269
sg4
S'20120102\xc2\xa07:35AM UTC'
p1270
sg6
S'European shares start year on firm footing'
p1271
sa(dp1272
g2
S'http://www.reuters.com/article/2012/01/02/poland-kghm-idUSW8E7NK00E20120102'
p1273
sg4
S'20120102\xc2\xa07:35AM UTC'
p1274
sg6
S'Polish treasury min calls for review of mining tax'
p1275
sa(dp1276
g2
S'http://www.reuters.com/article/2012/01/02/idUS50781+02-Jan-2012+PRN20120102'
p1277
sg4
S'20120102\xc2\xa07:21AM UTC'
p1278
sg6
S'Pioneering Spirit in the Swiss Alps / Light Artist Gerry Hofstetter Illuminates the Jungfrau'
p1279
sa(dp1280
g2
S'http://www.reuters.com/article/2012/01/02/global-economy-idUSL3E8C20KS20120102'
p1281
sg4
S'20120102\xc2\xa07:20AM UTC'
p1282
sg6
S'GLOBAL ECONOMY-Factory output subdued going into 2012'
p1283
sa(dp1284
g2
S'http://www.reuters.com/article/2012/01/02/uk-alaska-volcano-idUSLNE7BT00O20120102'
p1285
sg4
S'20120102\xc2\xa07:19AM UTC'
p1286
sg6
S'Scientists monitor Alaska volcano after ash plume'
p1287
sa(dp1288
g2
S'http://www.reuters.com/article/2012/01/02/spain-economy-idUSL6E8C20B920120102'
p1289
sg4
S'20120102\xc2\xa07:16AM UTC'
p1290
sg6
S'UPDATE 3-Spain 2011 public deficit may even top 8 pct-econ min'
p1291
sa(dp1292
g2
S'http://www.reuters.com/article/2012/01/02/idUS50437+02-Jan-2012+HUG20120102'
p1293
sg4
S'20120102\xc2\xa07:15AM UTC'
p1294
sg6
S'Share subscription price with Sanoma stock options 2011 and the market value of Stock Option Scheme 2011'
p1295
sa(dp1296
g2
S'http://www.reuters.com/article/2012/01/02/uk-volcano-alaska-idUSLNE80100720120102'
p1297
sg4
S'20120102\xc2\xa07:15AM UTC'
p1298
sg6
S'Scientists monitor Alaska volcano after ash plume'
p1299
sa(dp1300
g2
S'http://www.reuters.com/article/2012/01/02/idUS50272+02-Jan-2012+PRN20120102'
p1301
sg4
S'20120102\xc2\xa07:13AM UTC'
p1302
sg6
S'GigaMedia: Strengthened China Operations to Begin Game Testing in March'
p1303
sa(dp1304
g2
S'http://www.reuters.com/article/2012/01/02/idUS50148+02-Jan-2012+PRN20120102'
p1305
sg4
S'20120102\xc2\xa07:11AM UTC'
p1306
sg6
S'Whataburger Adds Sweet, Spice (and Everything Nice)'
p1307
sa(dp1308
g2
S'http://www.reuters.com/article/2012/01/02/cez-dukovany-outages-idUSL6E8C211A20120102'
p1309
sg4
S'20120102\xc2\xa07:04AM UTC'
p1310
sg6
S'CEZ sets 2012 dates for Dukovany planned shutdowns'
p1311
sa(dp1312
g2
S'http://www.reuters.com/article/2012/01/02/idUS49292+02-Jan-2012+PRN20120102'
p1313
sg4
S'20120102\xc2\xa07:00AM UTC'
p1314
sg6
S"It's A Sweet Celebration: Krispy Kreme\xc2\xae Portsmouth, VA Shop Opening"
p1315
sa(dp1316
g2
S'http://www.reuters.com/article/2012/01/02/idUS49287+02-Jan-2012+PRN20120102'
p1317
sg4
S'20120102\xc2\xa07:00AM UTC'
p1318
sg6
S'MADD Colorado Announces Return of Bachus & Schanker as 2012 Statewide Sponsor'
p1319
sa(dp1320
g2
S'http://www.reuters.com/article/2012/01/02/uk-app-music-sharing-idUSLNE80100220120102'
p1321
sg4
S'20120102\xc2\xa06:54AM UTC'
p1322
sg6
S'App wishes you were here with a musical postcard'
p1323
sa(dp1324
g2
S'http://www.reuters.com/article/2012/01/02/goldman-sukuk-controversy-idUSL6E7NV08O20120102'
p1325
sg4
S'20120102\xc2\xa06:52AM UTC'
p1326
sg6
S'Goldman advisor defends $2 bln Islamic bond scheme'
p1327
sa(dp1328
g2
S'http://www.reuters.com/article/2012/01/02/idUS48770+02-Jan-2012+PRN20120102'
p1329
sg4
S'20120102\xc2\xa06:51AM UTC'
p1330
sg6
S'Leumi President and CEO, Galia Maor, Announces her Resignation'
p1331
sa(dp1332
g2
S'http://www.reuters.com/article/2012/01/02/britain-brown-hacking-idUSL6E8C20ZA20120102'
p1333
sg4
S'20120102\xc2\xa06:50AM UTC'
p1334
sg6
S"Hackers target emails of UK's Gordon Brown-report"
p1335
sa(dp1336
g2
S'http://www.reuters.com/article/2012/01/02/india-hero-sales-idUSWNAS554720120102'
p1337
sg4
S'20120102\xc2\xa06:46AM UTC'
p1338
sg6
S"India's Hero says Dec sales up 7.8 pct y/y"
p1339
sa(dp1340
g2
S'http://www.reuters.com/article/2012/01/02/financial-pakistan-idUSL3E8C20L420120102'
p1341
sg4
S'20120102\xc2\xa06:46AM UTC'
p1342
sg6
S'Pakistan stocks fall, led by heavyweight energy stock'
p1343
sa(dp1344
g2
S'http://www.reuters.com/article/2012/01/02/borsa-milano-idUSL6E8C210920120102'
p1345
sg4
S'20120102\xc2\xa06:40AM UTC'
p1346
sg6
S'Borsa Milano in rialzo con scambi sottili, bene Terna'
p1347
sa(dp1348
g2
S'http://www.reuters.com/article/2012/01/02/us-angola-succession-idUSTRE80108120120102'
p1349
sg4
S'20120102\xc2\xa06:39AM UTC'
p1350
sg6
S"Angola's Dos Santos keeps succession open"
p1351
sa(dp1352
g2
S'http://www.reuters.com/article/2012/01/02/us-africa-leaders-idUSTRE80109H20120102'
p1353
sg4
S'20120102\xc2\xa06:39AM UTC'
p1354
sg6
S"Factbox: Dos Santos one of Africa's longest-ruling leaders"
p1355
sa(dp1356
g2
S'http://www.reuters.com/article/2012/01/02/us-global-economy-asia-idUSTRE80109B20120102'
p1357
sg4
S'20120102\xc2\xa06:38AM UTC'
p1358
sg6
S'Asia factory output weak; India defies with rise'
p1359
sa(dp1360
g2
S'http://www.reuters.com/article/2012/01/02/efg-idUSL6E8C20ZR20120102'
p1361
sg4
S'20120102\xc2\xa06:38AM UTC'
p1362
sg6
S'EFG sells Danish unit to SEB Wealth Management'
p1363
sa(dp1364
g2
S'http://www.reuters.com/article/2012/01/02/idUS151952590020120102'
p1365
sg4
S'20120102\xc2\xa06:30AM UTC'
p1366
sg6
S'Editor\xe2\x80\x99s choice'
p1367
sa(dp1368
g2
S'http://www.reuters.com/article/2012/01/02/idUS46820+02-Jan-2012+PRN20120102'
p1369
sg4
S'20120102\xc2\xa06:18AM UTC'
p1370
sg6
S'Robot Day Trading at Home...a Reality?'
p1371
sa(dp1372
g2
S'http://www.reuters.com/article/2012/01/02/cez-temelin-outage-idUSL6E8C20ZF20120102'
p1373
sg4
S'20120102\xc2\xa06:17AM UTC'
p1374
sg6
S'UPDATE 1-CEZ sets dates for Temelin planned shutdowns in 2012'
p1375
sa(dp1376
g2
S'http://www.reuters.com/article/2012/01/02/markets-forex-idUSL6E8C20YS20120102'
p1377
sg4
S'20120102\xc2\xa06:12AM UTC'
p1378
sg6
S'FOREX-Euro vulnerable, hits decade low vs yen'
p1379
sa(dp1380
g2
S'http://www.reuters.com/article/2012/01/02/us-kenya-boat-idUSTRE80108F20120102'
p1381
sg4
S'20120102\xc2\xa06:12AM UTC'
p1382
sg6
S'More than 20 feared dead in Kenyan boat crash'
p1383
sa(dp1384
g2
S'http://www.reuters.com/article/2012/01/02/idUS45777+02-Jan-2012+HUG20120102'
p1385
sg4
S'20120102\xc2\xa06:00AM UTC'
p1386
sg6
S"Alma Media's acquisition in Czech Republic completed"
p1387
sa(dp1388
g2
S'http://www.reuters.com/article/2012/01/02/idUS45693+02-Jan-2012+PRN20120102'
p1389
sg4
S'20120102\xc2\xa06:00AM UTC'
p1390
sg6
S'LeBron James Proposes to Savanna Brinson on NYE at Vesper American Brasserie in the Shelborne South Beach'
p1391
sa(dp1392
g2
S'http://www.reuters.com/article/2012/01/02/idUS45682+02-Jan-2012+PRN20120102'
p1393
sg4
S'20120102\xc2\xa06:00AM UTC'
p1394
sg6
S'PTI Purchased NEXX Systems Stratus Plating Tool for Cutting-Edge Semiconductor Packaging Production'
p1395
sa(dp1396
g2
S'http://www.reuters.com/article/2012/01/02/idUS45679+02-Jan-2012+GNW20120102'
p1397
sg4
S'20120102\xc2\xa06:00AM UTC'
p1398
sg6
S'Capital Online Revenue Outlines E-Commerce Best Practices, Influences M-Commerce Development'
p1399
sa(dp1400
g2
S'http://www.reuters.com/article/2012/01/02/idUS45671+02-Jan-2012+PRN20120102'
p1401
sg4
S'20120102\xc2\xa06:00AM UTC'
p1402
sg6
S"LivePerson Ranks on International Business Times' First Annual IBT 1000 Fastest Growing Companies List"
p1403
sa(dp1404
g2
S'http://www.reuters.com/article/2012/01/02/idUS45660+02-Jan-2012+GNW20120102'
p1405
sg4
S'20120102\xc2\xa06:00AM UTC'
p1406
sg6
S'Capital Online Revenue Outlines E-Commerce Best Practices, Influences M-Commerce Development'
p1407
sa(dp1408
g2
S'http://www.reuters.com/article/2012/01/02/idUS45619+02-Jan-2012+PRN20120102'
p1409
sg4
S'20120102\xc2\xa05:59AM UTC'
p1410
sg6
S'GOOD MORNING'
p1411
sa(dp1412
g2
S'http://www.reuters.com/article/2012/01/02/markets-india-stocks-idUSL3E8C20FH20120102'
p1413
sg4
S'20120102\xc2\xa05:53AM UTC'
p1414
sg6
S'Indian shares rise 0.4 pct; Coal India, carmakers gain'
p1415
sa(dp1416
g2
S'http://www.reuters.com/article/2012/01/02/us-tennis-brisbane-idUSTRE80107P20120102'
p1417
sg4
S'20120102\xc2\xa05:52AM UTC'
p1418
sg6
S'Reluctant athlete Serena Williams enjoys Australia return'
p1419
sa(dp1420
g2
S'http://www.reuters.com/article/2012/01/02/idUS45098+02-Jan-2012+BW20120102'
p1421
sg4
S'20120102\xc2\xa05:50AM UTC'
p1422
sg6
S'Alstom Wins HVDC Contract Worth Around \xe2\x82\xac240 Million in Sweden'
p1423
sa(dp1424
g2
S'http://www.reuters.com/article/2012/01/02/idUS45050+02-Jan-2012+HUG20120102'
p1425
sg4
S'20120102\xc2\xa05:49AM UTC'
p1426
sg6
S'Vizrt Ltd. : Vizrt Employees Exercise Options'
p1427
sa(dp1428
g2
S'http://www.reuters.com/article/2012/01/02/cez-temelin-outage-idUSL6E8C20XP20120102'
p1429
sg4
S'20120102\xc2\xa05:48AM UTC'
p1430
sg6
S'CEZ sets dates for Temelin planned shutdowns in 2012'
p1431
sa(dp1432
g2
S'http://www.reuters.com/article/2012/01/02/france-autos-idUSL6E8C20BI20120102'
p1433
sg4
S'20120102\xc2\xa05:46AM UTC'
p1434
sg6
S'UPDATE 2-French automakers lose share of shrinking market'
p1435
sa(dp1436
g2
S'http://www.reuters.com/article/2012/01/02/astaldi-idUSI6E7L701H20120102'
p1437
sg4
S'20120102\xc2\xa05:38AM UTC'
p1438
sg6
S'Astaldi jv wins 791 mln euro Italy road contract'
p1439
sa(dp1440
g2
S'http://www.reuters.com/article/2012/01/02/markets-euribor-idUSEAP50P20020120102'
p1441
sg4
S'20120102\xc2\xa05:33AM UTC'
p1442
sg6
S'Euribor rates start year with sharp drop'
p1443
sa(dp1444
g2
S'http://www.reuters.com/article/2012/01/02/idUS43993+02-Jan-2012+PRN20120102'
p1445
sg4
S'20120102\xc2\xa05:30AM UTC'
p1446
sg6
S'Following Is a Test Release'
p1447
sa(dp1448
g2
S'http://www.reuters.com/article/2012/01/02/teva-ceo-chairman-idUSL6E8C20OC20120102'
p1449
sg4
S'20120102\xc2\xa05:23AM UTC'
p1450
sg6
S'BRIEF-Teva Pharm chairman on transition to new CEO'
p1451
sa(dp1452
g2
S'http://www.reuters.com/article/2012/01/02/idUS43520+02-Jan-2012+PRN20120102'
p1453
sg4
S'20120102\xc2\xa05:20AM UTC'
p1454
sg6
S'TransMedia Group Hired to Heat Up Publicity for Launch of Powerful Fruit and Vegetable Vitality Drink Bikram Balance\xc2\xae in Partnership With Bikram Yoga'
p1455
sa(dp1456
g2
S'http://www.reuters.com/article/2012/01/02/market-nordic-idUSL3E8C20IO20120102'
p1457
sg4
S'20120102\xc2\xa05:19AM UTC'
p1458
sg6
S'Nordic power-Futures tumble due to mild weather'
p1459
sa(dp1460
g2
S'http://www.reuters.com/article/2012/01/02/idUSL6E8C20WJ20120102'
p1461
sg4
S'20120102\xc2\xa05:17AM UTC'
p1462
sg6
S'AC\xc3\x87\xc3\x95ES PORTUGAL-PSI20 arranca 2012 em leve alta com Europa'
p1463
sa(dp1464
g2
S'http://www.reuters.com/article/2012/01/02/afren-ebok-idUSL6E8C20W220120102'
p1465
sg4
S'20120102\xc2\xa05:16AM UTC'
p1466
sg6
S'Afren oil explorer says output ahead of target'
p1467
sa(dp1468
g2
S'http://www.reuters.com/article/2012/01/02/us-egypt-election-idUSTRE8000DA20120102'
p1469
sg4
S'20120102\xc2\xa05:15AM UTC'
p1470
sg6
S"Egypt's army hastens end of parliamentary election"
p1471
sa(dp1472
g2
S'http://www.reuters.com/article/2012/01/02/idUS43255+02-Jan-2012+BW20120102'
p1473
sg4
S'20120102\xc2\xa05:15AM UTC'
p1474
sg6
S'INDEX MULTIMEDIA: Declaration of Shares and Voting Shares'
p1475
sa(dp1476
g2
S'http://www.reuters.com/article/2012/01/02/norway-prices-idUSO9E7LR02I20120102'
p1477
sg4
S'20120102\xc2\xa05:05AM UTC'
p1478
sg6
S"Norway's Dec s/a housing prices rise 0.5 pct m/m"
p1479
sa(dp1480
g2
S'http://www.reuters.com/article/2012/01/02/india-stocks-close-idUSI8E7N507D20120102'
p1481
sg4
S'20120102\xc2\xa05:04AM UTC'
p1482
sg6
S'Indian shares provisionally close 0.5 pct higher'
p1483
sa(dp1484
g2
S'http://www.reuters.com/article/2012/01/02/us-fitness-college-idUSTRE80107220120102'
p1485
sg4
S'20120102\xc2\xa05:04AM UTC'
p1486
sg6
S'Fitness often not a priority for college students'
p1487
sa(dp1488
g2
S'http://www.reuters.com/article/2012/01/02/us-app-music-sharing-idUSTRE80106W20120102'
p1489
sg4
S'20120102\xc2\xa05:02AM UTC'
p1490
sg6
S'App wishes you were here with a musical postcard'
p1491
sa(dp1492
g2
S'http://www.reuters.com/article/2012/01/02/us-usa-economy-paynet-idUSTRE80106S20120102'
p1493
sg4
S'20120102\xc2\xa05:01AM UTC'
p1494
sg6
S'Small business borrowing at near 4-year high in November'
p1495
sa(dp1496
g2
S'http://www.reuters.com/article/2012/01/02/idUS42348+02-Jan-2012+PRN20120102'
p1497
sg4
S'20120102\xc2\xa05:00AM UTC'
p1498
sg6
S'Following Is a Test Release'
p1499
sa(dp1500
g2
S'http://www.reuters.com/article/2012/01/02/idUS42315+02-Jan-2012+BW20120102'
p1501
sg4
S'20120102\xc2\xa05:00AM UTC'
p1502
sg6
S'FilmOn.com Brings Network Television to PCs, Smart Phones and Tablets, Legally!'
p1503
sa(dp1504
g2
S'http://www.reuters.com/article/2012/01/02/us-tennis-hopman-idUSTRE80106L20120102'
p1505
sg4
S'20120102\xc2\xa04:57AM UTC'
p1506
sg6
S'Kvitova shuns ranking talk to focus on titles'
p1507
sa(dp1508
g2
S'http://www.reuters.com/article/2012/01/02/markets-turkey-idUSL6E8C20BR20120102'
p1509
sg4
S'20120102\xc2\xa04:52AM UTC'
p1510
sg6
S'Turkish lira firms after c.bank action, inflation eyed'
p1511
sa(dp1512
g2
S'http://www.reuters.com/article/2012/01/02/idUS41226+02-Jan-2012+HUG20120102'
p1513
sg4
S'20120102\xc2\xa04:41AM UTC'
p1514
sg6
S'Nordic American Tankers Limited (NYSE:NAT) - Financial Calendar - Dividend Payment'
p1515
sa(dp1516
g2
S'http://www.reuters.com/article/2012/01/02/markets-europe-stocks-idUSL6E8C207A20120102'
p1517
sg4
S'20120102\xc2\xa04:34AM UTC'
p1518
sg6
S'European shares inch higher, gains seen limited'
p1519
sa(dp1520
g2
S'http://www.reuters.com/article/2012/01/02/idUS40421+02-Jan-2012+PRN20120102'
p1521
sg4
S'20120102\xc2\xa04:30AM UTC'
p1522
sg6
S'Following Is a Test Release'
p1523
sa(dp1524
g2
S'http://www.reuters.com/article/2012/01/02/markets-forex-idUSL6E8C20M420120102'
p1525
sg4
S'20120102\xc2\xa04:26AM UTC'
p1526
sg6
S'FOREX-Euro hits decade low vs yen, remains vulnerable'
p1527
sa(dp1528
g2
S'http://www.reuters.com/article/2012/01/02/frontline-idUSL6E8C20BF20120102'
p1529
sg4
S'20120102\xc2\xa04:25AM UTC'
p1530
sg6
S'UPDATE 1-Frontline completes restructuring'
p1531
sa(dp1532
g2
S'http://www.reuters.com/article/2012/01/02/idUS39360+02-Jan-2012+BW20120102'
p1533
sg4
S'20120102\xc2\xa04:15AM UTC'
p1534
sg6
S"Peter Bollinger joins iTAC Software AG's Management Board"
p1535
sa(dp1536
g2
S'http://www.reuters.com/article/2012/01/02/russia-oil-idUSL6E8C20AA20120102'
p1537
sg4
S'20120102\xc2\xa04:05AM UTC'
p1538
sg6
S'UPDATE 1-Russia 2011 oil output at new post-Soviet record high'
p1539
sa(dp1540
g2
S'http://www.reuters.com/article/2012/01/02/us-economy-europe-idUSTRE80106220120102'
p1541
sg4
S'20120102\xc2\xa04:00AM UTC'
p1542
sg6
S'Euro zone manufacturing downturn extends to 5th month: PMI'
p1543
sa(dp1544
g2
S'http://www.reuters.com/article/2012/01/02/idUS38236+02-Jan-2012+PRN20120102'
p1545
sg4
S'20120102\xc2\xa04:00AM UTC'
p1546
sg6
S'Following Is a Test Release'
p1547
sa(dp1548
g2
S'http://www.reuters.com/article/2012/01/02/markets-bonds-euro-idUSL6E8C207S20120102'
p1549
sg4
S'20120102\xc2\xa04:00AM UTC'
p1550
sg6
S'EURO GOVT-Bunds slip after stellar year but still supported'
p1551
sa(dp1552
g2
S'http://www.reuters.com/article/2012/01/02/4energyinvest-brief-idUSL6E8C208B20120102'
p1553
sg4
S'20120102\xc2\xa03:38AM UTC'
p1554
sg6
S'UPDATE 1-Belgian 4Energy agrees new debt repayment schedule'
p1555
sa(dp1556
g2
S'http://www.reuters.com/article/2012/01/02/spain-economy-idUSE8E7MA02520120102'
p1557
sg4
S'20120102\xc2\xa03:33AM UTC'
p1558
sg6
S"Spain's public deficit could top 8 pct-econ min"
p1559
sa(dp1560
g2
S'http://www.reuters.com/article/2012/01/02/energia-autorita-tariffe-idUSL6E8C209E20120102'
p1561
sg4
S'20120102\xc2\xa03:31AM UTC'
p1562
sg6
S'Energia, Autorit\xc3\xa0 alza remunerazione trasporto a 7,4% fino fine 2011'
p1563
sa(dp1564
g2
S'http://www.reuters.com/article/2012/01/02/idUS35437+02-Jan-2012+PRN20120102'
p1565
sg4
S'20120102\xc2\xa03:30AM UTC'
p1566
sg6
S'Following Is a Test Release'
p1567
sa(dp1568
g2
S'http://www.reuters.com/article/2012/01/02/frontline-idUSWEA692620120102'
p1569
sg4
S'20120102\xc2\xa03:25AM UTC'
p1570
sg6
S"Norway's Frontline completes restructuring"
p1571
sa(dp1572
g2
S'http://www.reuters.com/article/2012/01/02/us-korea-north-idUSTRE80002220120102'
p1573
sg4
S'20120102\xc2\xa03:19AM UTC'
p1574
sg6
S'North Korea calls for "human shields" to protect new leader'
p1575
sa(dp1576
g2
S'http://www.reuters.com/article/2012/01/02/markets-europe-stocks-open-idUSP6E7NR00K20120102'
p1577
sg4
S'20120102\xc2\xa03:12AM UTC'
p1578
sg6
S'European shares inch higher after dismal year'
p1579
sa(dp1580
g2
S'http://www.reuters.com/article/2012/01/02/france-autos-idUSP6E7K905S20120102'
p1581
sg4
S'20120102\xc2\xa03:08AM UTC'
p1582
sg6
S'French automakers lose share of shrinking market'
p1583
sa(dp1584
g2
S'http://www.reuters.com/article/2012/01/02/czech-factors-idUSCZECH20120102'
p1585
sg4
S'20120102\xc2\xa03:04AM UTC'
p1586
sg6
S'Czech Republic - Factors To Watch on Jan 2'
p1587
sa(dp1588
g2
S'http://www.reuters.com/article/2012/01/02/idUS32839+02-Jan-2012+PRN20120102'
p1589
sg4
S'20120102\xc2\xa03:00AM UTC'
p1590
sg6
S'Following Is a Test Release'
p1591
sa(dp1592
g2
S'http://www.reuters.com/article/2012/01/02/idUS32724+02-Jan-2012+BW20120102'
p1593
sg4
S'20120102\xc2\xa03:00AM UTC'
p1594
sg6
S'Arthur D. Little announces the successful completion of its Management Buy-Out'
p1595
sa(dp1596
g2
S'http://www.reuters.com/article/2012/01/02/idUS32602+02-Jan-2012+HUG20120102'
p1597
sg4
S'20120102\xc2\xa02:57AM UTC'
p1598
sg6
S'FRO - Frontline Ltd. Successfully Completes Restructuring'
p1599
sa(dp1600
g2
S'http://www.reuters.com/article/2012/01/02/idUS32200+02-Jan-2012+HUG20120102'
p1601
sg4
S'20120102\xc2\xa02:50AM UTC'
p1602
sg6
S'KBC Bank and ING Belgium waive the non respected credit covenants by Renogen and 4HamCogen over 2011'
p1603
sa(dp1604
g2
S'http://www.reuters.com/article/2012/01/02/markets-nordics-factors-idUSL6E8C205620120102'
p1605
sg4
S'20120102\xc2\xa02:48AM UTC'
p1606
sg6
S'UPDATE 1-NORDIC STOCKS - Factors to watch on Jan 2'
p1607
sa(dp1608
g2
S'http://www.reuters.com/article/2012/01/02/russia-oil-idUSL6E8C206S20120102'
p1609
sg4
S'20120102\xc2\xa02:45AM UTC'
p1610
sg6
S'Russia 2011 oil output at new post-Soviet record high'
p1611
sa(dp1612
g2
S'http://www.reuters.com/article/2012/01/02/idUS31500+02-Jan-2012+HUG20120102'
p1613
sg4
S'20120102\xc2\xa02:38AM UTC'
p1614
sg6
S'Mandatory Notification of Trade'
p1615
sa(dp1616
g2
S'http://www.reuters.com/article/2012/01/02/us-alcatellucent-idUSTRE80105D20120102'
p1617
sg4
S'20120102\xc2\xa02:37AM UTC'
p1618
sg6
S'Alcatel-Lucent CEO rules out deep job cuts: report'
p1619
sa(dp1620
g2
S'http://www.reuters.com/article/2012/01/02/alcatellucent-idUSL6E8C203M20120102'
p1621
sg4
S'20120102\xc2\xa02:35AM UTC'
p1622
sg6
S'Alcatel-Lucent CEO rules out deep job cuts -report'
p1623
sa(dp1624
g2
S'http://www.reuters.com/article/2012/01/02/idUS31117+02-Jan-2012+HUG20120102'
p1625
sg4
S'20120102\xc2\xa02:31AM UTC'
p1626
sg6
S'Ahold share buyback update'
p1627
sa(dp1628
g2
S'http://www.reuters.com/article/2012/01/02/teva-ceo-idUSL6E8C206320120102'
p1629
sg4
S'20120102\xc2\xa02:31AM UTC'
p1630
sg6
S'Teva Pharm names Bristol-Myers exec Levin as new CEO'
p1631
sa(dp1632
g2
S'http://www.reuters.com/article/2012/01/02/markets-korea-idUSL3E8C20AA20120102'
p1633
sg4
S'20120102\xc2\xa02:30AM UTC'
p1634
sg6
S'RPT-Seoul shares steady; new year optimism subdued on euro caution'
p1635
sa(dp1636
g2
S'http://www.reuters.com/article/2012/01/02/idUS30988+02-Jan-2012+PRN20120102'
p1637
sg4
S'20120102\xc2\xa02:30AM UTC'
p1638
sg6
S'Following Is a Test Release'
p1639
sa(dp1640
g2
S'http://www.reuters.com/article/2012/01/02/markets-korea-stocks-foreign-idUSL3E8C20AU20120102'
p1641
sg4
S'20120102\xc2\xa02:29AM UTC'
p1642
sg6
S'TABLE-Foreign trading in South Korean stocks'
p1643
sa(dp1644
g2
S'http://www.reuters.com/article/2012/01/02/idUSL6E7NV05820120102'
p1645
sg4
S'20120102\xc2\xa02:27AM UTC'
p1646
sg6
S'Italian stocks - Factors to watch on Jan 2'
p1647
sa(dp1648
g2
S'http://www.reuters.com/article/2012/01/02/idUSL6E8C206C20120102'
p1649
sg4
S'20120102\xc2\xa02:27AM UTC'
p1650
sg6
S'Spanish stocks - Factors to watch on Monday'
p1651
sa(dp1652
g2
S'http://www.reuters.com/article/2012/01/02/markets-europe-factors-idUSL6E7NT2QI20120102'
p1653
sg4
S'20120102\xc2\xa02:25AM UTC'
p1654
sg6
S'Europe Factors-Shares seen lower as growth worries weigh'
p1655
sa(dp1656
g2
S'http://www.reuters.com/article/2012/01/02/idUS30404+02-Jan-2012+HUG20120102'
p1657
sg4
S'20120102\xc2\xa02:19AM UTC'
p1658
sg6
S'(SRBANK)        First day of listing - new share capital registered'
p1659
sa(dp1660
g2
S'http://www.reuters.com/article/2012/01/02/markets-bonds-euro-idUSL6E8C204C20120102'
p1661
sg4
S'20120102\xc2\xa02:16AM UTC'
p1662
sg6
S'EURO GOVT-Bunds steady at start of new year'
p1663
sa(dp1664
g2
S'http://www.reuters.com/article/2012/01/02/germany-markets-stocks-idUSL6E7NU04Y20120102'
p1665
sg4
S'20120102\xc2\xa02:16AM UTC'
p1666
sg6
S'German stocks - Factors to watch on January 2'
p1667
sa(dp1668
g2
S'http://www.reuters.com/article/2012/01/02/idUSL6E7NU21T20120102'
p1669
sg4
S'20120102\xc2\xa02:14AM UTC'
p1670
sg6
S'Poland - Factors to Watch on Jan 2'
p1671
sa(dp1672
g2
S'http://www.reuters.com/article/2012/01/02/france-benelux-stocks-idUSL6E7NU23720120102'
p1673
sg4
S'20120102\xc2\xa02:13AM UTC'
p1674
sg6
S'French and Benelux stocks-Factors to watch on Jan 2'
p1675
sa(dp1676
g2
S'http://www.reuters.com/article/2012/01/02/us-nba-heat-idUSTRE80101H20120102'
p1677
sg4
S'20120102\xc2\xa02:10AM UTC'
p1678
sg6
S'Heat scorches Bobcats to go 5-0'
p1679
sa(dp1680
g2
S'http://www.reuters.com/article/2012/01/02/us-coalindia-pricing-idUSTRE80104O20120102'
p1681
sg4
S'20120102\xc2\xa02:01AM UTC'
p1682
sg6
S'Coal India expects higher revenue to offset wage hikes'
p1683
sa(dp1684
g2
S'http://www.reuters.com/article/2012/01/02/idUS29276+02-Jan-2012+PRN20120102'
p1685
sg4
S'20120102\xc2\xa02:00AM UTC'
p1686
sg6
S'Following Is a Test Release'
p1687
sa(dp1688
g2
S'http://www.reuters.com/article/2012/01/02/us-afghanistan-boxing-idUSTRE80104320120102'
p1689
sg4
S'20120102\xc2\xa02:00AM UTC'
p1690
sg6
S'Afghan girls throw punches, aim for Olympic gold'
p1691
sa(dp1692
g2
S'http://www.reuters.com/article/2012/01/02/us-nfl-giants-idUSTRE80103220120102'
p1693
sg4
S'20120102\xc2\xa01:58AM UTC'
p1694
sg6
S'Giants beat Cowboys to capture NFC East title'
p1695
sa(dp1696
g2
S'http://www.reuters.com/article/2012/01/02/travix-ipo-idUSL6E8C203G20120102'
p1697
sg4
S'20120102\xc2\xa01:54AM UTC'
p1698
sg6
S'Dutch online co Travix mulls IPO in 2-5 yrs -report'
p1699
sa(dp1700
g2
S'http://www.reuters.com/article/2012/01/02/birdflu-china-idUSL3E8C207D20120102'
p1701
sg4
S'20120102\xc2\xa01:41AM UTC'
p1702
sg6
S"China says latest bird flu virus doesn't jump between humans"
p1703
sa(dp1704
g2
S'http://www.reuters.com/article/2012/01/02/us-nfl-bengals-idUSTRE80100G20120102'
p1705
sg4
S'20120102\xc2\xa01:34AM UTC'
p1706
sg6
S'Losing Bengals earn final AFC wild card berth'
p1707
sa(dp1708
g2
S'http://www.reuters.com/article/2012/01/02/turkey-factors-idUSL6E8C202Z20120102'
p1709
sg4
S'20120102\xc2\xa01:34AM UTC'
p1710
sg6
S'Turkey - Factors to Watch on Jan 2'
p1711
sa(dp1712
g2
S'http://www.reuters.com/article/2012/01/02/idUS27295+02-Jan-2012+PRN20120102'
p1713
sg4
S'20120102\xc2\xa01:30AM UTC'
p1714
sg6
S'Following Is a Test Release'
p1715
sa(dp1716
g2
S'http://www.reuters.com/article/2012/01/02/diary-france-to-january-idUSL6E7NT3LQ20120102'
p1717
sg4
S'20120102\xc2\xa01:30AM UTC'
p1718
sg6
S'DIARY - France to January 31'
p1719
sa(dp1720
g2
S'http://www.reuters.com/article/2012/01/02/archer-guidance-idUSL6E8C202H20120102'
p1721
sg4
S'20120102\xc2\xa01:21AM UTC'
p1722
sg6
S"Norway's Archer lowers guidance, replaces CEO"
p1723
sa(dp1724
g2
S'http://www.reuters.com/article/2012/01/02/us-nba-kings-cousins-idUSTRE80104020120102'
p1725
sg4
S'20120102\xc2\xa01:06AM UTC'
p1726
sg6
S'Kings banish forward Cousins after trade demand'
p1727
sa(dp1728
g2
S'http://www.reuters.com/article/2012/01/02/markets-korea-idUSL3E8C208M20120102'
p1729
sg4
S'20120102\xc2\xa01:06AM UTC'
p1730
sg6
S'Seoul shares end flat on mixed new year sentiment'
p1731
sa(dp1732
g2
S'http://www.reuters.com/article/2012/01/02/india-maruti-sales-idUSWNAS553720120102'
p1733
sg4
S'20120102\xc2\xa01:02AM UTC'
p1734
sg6
S"India's Maruti Dec car sales down 7 pct y/y"
p1735
sa(dp1736
g2
S'http://www.reuters.com/article/2012/01/02/idUS25527+02-Jan-2012+HUG20120102'
p1737
sg4
S'20120102\xc2\xa01:01AM UTC'
p1738
sg6
S'East Capital Explorer AB - Report of repurchase of own shares in East Capital Explorer'
p1739
sa(dp1740
g2
S'http://www.reuters.com/article/2012/01/02/idUS25403+02-Jan-2012+PRN20120102'
p1741
sg4
S'20120102\xc2\xa01:00AM UTC'
p1742
sg6
S'Following Is a Test Release'
p1743
sa(dp1744
g2
S'http://www.reuters.com/article/2012/01/02/maruti-sales-idUSWNAS553620120102'
p1745
sg4
S'20120102\xc2\xa012:59AM UTC'
p1746
sg6
S"India's Maruti Dec car sales down 7 pct y/y-TV"
p1747
sa(dp1748
g2
S'http://www.reuters.com/article/2012/01/02/iran-missile-idUSL6E8C201I20120102'
p1749
sg4
S'20120102\xc2\xa012:56AM UTC'
p1750
sg6
S'Iran to test-fire long range missiles Monday-navy official'
p1751
sa(dp1752
g2
S'http://www.reuters.com/article/2012/01/02/us-hyundai-kia-idUSTRE8000IM20120102'
p1753
sg4
S'20120102\xc2\xa012:55AM UTC'
p1754
sg6
S'Hyundai, Kia see slower sales growth in 2012'
p1755
sa(dp1756
g2
S'http://www.reuters.com/article/2012/01/02/hyundai-kia-idUSL3E7NT31Y20120102'
p1757
sg4
S'20120102\xc2\xa012:51AM UTC'
p1758
sg6
S'UPDATE 4-Hyundai, Kia see slower sales growth in 2012'
p1759
sa(dp1760
g2
S'http://www.reuters.com/article/2012/01/02/us-tennis-brisbane-idUSTRE80103L20120102'
p1761
sg4
S'20120102\xc2\xa012:41AM UTC'
p1762
sg6
S'Williams makes winning return to Australia'
p1763
sa(dp1764
g2
S'http://www.reuters.com/article/2012/01/02/hyundai-sales-idUSS6E7KS00620120102'
p1765
sg4
S'20120102\xc2\xa012:32AM UTC'
p1766
sg6
S"TABLE-S.Korea's Hyundai Motor December sales up 21.6 pct"
p1767
sa(dp1768
g2
S'http://www.reuters.com/article/2012/01/02/idUS24024+02-Jan-2012+PRN20120102'
p1769
sg4
S'20120102\xc2\xa012:30AM UTC'
p1770
sg6
S'Following Is a Test Release'
p1771
sa(dp1772
g2
S'http://www.reuters.com/article/2012/01/02/india-stocks-idUSL3E8C204U20120102'
p1773
sg4
S'20120102\xc2\xa012:28AM UTC'
p1774
sg6
S'Indian shares slip; Coal India, autos gain'
p1775
sa(dp1776
g2
S'http://www.reuters.com/article/2012/01/02/idUS22831+02-Jan-2012+PRN20120102'
p1777
sg4
S'20120102\xc2\xa012:01AM UTC'
p1778
sg6
S'LG Electronics Takes Historic Step Forward With Ultra-Thin 55-inch Class OLED HDTV'
p1779
sa(dp1780
g2
S'http://www.reuters.com/article/2012/01/02/idUS22818+02-Jan-2012+BW20120102'
p1781
sg4
S'20120102\xc2\xa012:01AM UTC'
p1782
sg6
S'Ron Paul Tops Social Media Scorecard in First Ever `Social Primary`, Says Sociagility'
p1783
sa(dp1784
g2
S'http://www.reuters.com/article/2012/01/02/idUS22739+02-Jan-2012+PRN20120102'
p1785
sg4
S'20120102\xc2\xa012:00AM UTC'
p1786
sg6
S'Following Is a Test Release'
p1787
sa(dp1788
g2
S'http://www.reuters.com/news/video/videoStory?storyID=30759692'
p1789
sg4
S'20120102\xc2\xa011:33PM UTC'
p1790
sg6
S'Man in court over Indian student murder'
p1791
sa(dp1792
g2
S'http://www.reuters.com/news/video/videoStory?storyID=30758956'
p1793
sg4
S'20120102\xc2\xa010:39PM UTC'
p1794
sg6
S'The case against austerity'
p1795
sa(dp1796
g2
S'http://www.reuters.com/news/video/videoStory?storyID=30758132'
p1797
sg4
S'20120102\xc2\xa08:48PM UTC'
p1798
sg6
S'Firefighters battle LA arson fires'
p1799
sa(dp1800
g2
S'http://www.reuters.com/news/video/videoStory?storyID=30772414'
p1801
sg4
S'20120102\xc2\xa07:42PM UTC'
p1802
sg6
S'Girl recovers after kangaroo attack'
p1803
sa(dp1804
g2
S'http://www.reuters.com/news/video/videoStory?storyID=30770544'
p1805
sg4
S'20120102\xc2\xa07:00PM UTC'
p1806
sg6
S"Iran risk accounts for up to $15 of oil price: Reuters' Kemp"
p1807
sa(dp1808
g2
S'http://www.reuters.com/news/video/videoStory?storyID=30761840'
p1809
sg4
S'20120102\xc2\xa06:50PM UTC'
p1810
sg6
S'China walks policy tightrope in 2012'
p1811
sa(dp1812
g2
S'http://www.reuters.com/news/video/videoStory?storyID=30761690'
p1813
sg4
S'20120102\xc2\xa06:40PM UTC'
p1814
sg6
S'S Korea allocates 44 percent of budget to Q1'
p1815
sa(dp1816
g2
S'http://www.reuters.com/news/video/videoStory?storyID=30756238'
p1817
sg4
S'20120102\xc2\xa05:46PM UTC'
p1818
sg6
S'Down to the wire in Iowa'
p1819
sa(dp1820
g2
S'http://www.reuters.com/news/video/videoStory?storyID=30754796'
p1821
sg4
S'20120102\xc2\xa04:16PM UTC'
p1822
sg6
S"Nigeria's Ghost Town"
p1823
sa(dp1824
g2
S'http://www.reuters.com/news/video/videoStory?storyID=30752883'
p1825
sg4
S'20120102\xc2\xa02:19PM UTC'
p1826
sg6
S'Syrians beseech observers amid gunfire'
p1827
sa(dp1828
g2
S'http://www.reuters.com/news/video/videoStory?storyID=30750490'
p1829
sg4
S'20120102\xc2\xa012:24PM UTC'
p1830
sg6
S'Fires rage in Chile'
p1831
sa(dp1832
g2
S'http://www.reuters.com/news/video/videoStory?storyID=30750299'
p1833
sg4
S'20120102\xc2\xa012:18PM UTC'
p1834
sg6
S'Gaza leader visits flotilla ship in Turkey'
p1835
sa(dp1836
g2
S'http://www.reuters.com/news/video/videoStory?storyID=30749812'
p1837
sg4
S'20120102\xc2\xa012:05PM UTC'
p1838
sg6
S'Monitors amid the devastation in Syria'
p1839
sa(dp1840
g2
S'http://www.reuters.com/news/video/videoStory?storyID=30749092'
p1841
sg4
S'20120102\xc2\xa011:40AM UTC'
p1842
sg6
S'Italians fear tough 2012'
p1843
sa(dp1844
g2
S'http://www.reuters.com/news/video/videoStory?storyID=30747312'
p1845
sg4
S'20120102\xc2\xa010:37AM UTC'
p1846
sg6
S'Developers hail "breakthrough" insulation spray'
p1847
sa(dp1848
g2
S'http://www.reuters.com/news/video/videoStory?storyID=30747080'
p1849
sg4
S'20120102\xc2\xa010:30AM UTC'
p1850
sg6
S"Iran's military muscle on display"
p1851
sa(dp1852
g2
S'http://www.reuters.com/news/video/videoStory?storyID=30746747'
p1853
sg4
S'20120102\xc2\xa010:20AM UTC'
p1854
sg6
S'Pollution protests in Nigeria'
p1855
sa(dp1856
g2
S'http://www.reuters.com/news/video/videoStory?storyID=30746236'
p1857
sg4
S'20120102\xc2\xa010:05AM UTC'
p1858
sg6
S'Newt Opens Up'
p1859
sa(dp1860
g2
S'http://www.reuters.com/news/video/videoStory?storyID=30744811'
p1861
sg4
S'20120102\xc2\xa08:54AM UTC'
p1862
sg6
S'Mubarak back in court'
p1863
sa(dp1864
g2
S'http://www.reuters.com/news/video/videoStory?storyID=30744059'
p1865
sg4
S'20120102\xc2\xa08:18AM UTC'
p1866
sg6
S'Afghan female boxers aim for gold'
p1867
sa(dp1868
g2
S'http://www.reuters.com/news/video/videoStory?storyID=30741220'
p1869
sg4
S'20120102\xc2\xa06:06AM UTC'
p1870
sg6
S'Seoul calls for dialogue with North'
p1871
sa(dp1872
g2
S'http://www.reuters.com/news/video/videoStory?storyID=30740348'
p1873
sg4
S'20120102\xc2\xa05:38AM UTC'
p1874
sg6
S'Iran fires two long-range missiles'
p1875
sa(dp1876
g2
S'http://www.reuters.com/news/video/videoStory?storyID=30738480'
p1877
sg4
S'20120102\xc2\xa03:39AM UTC'
p1878
sg6
S'Fiji to lift emergency laws'
p1879
sa(dp1880
g2
S'http://www.reuters.com/news/video/videoStory?storyID=30738475'
p1881
sg4
S'20120102\xc2\xa03:39AM UTC'
p1882
sg6
S'Mubarak trial resumes after long delay'
p1883
sa(dp1884
g2
S'http://www.reuters.com/news/video/videoStory?storyID=30736605'
p1885
sg4
S'20120102\xc2\xa012:51AM UTC'
p1886
sg6
S"N.Korea's Kim tours tank division"
p1887
sa.