(lp0
(dp1
S'href'
p2
S'http://www.reuters.com/article/2012/08/05/idUS12741+05-Aug-2012+GNW20120805'
p3
sS'ts'
p4
S'20120804\xc2\xa011:54PM UTC'
p5
sS'title'
p6
S"New CEO Appointed to Steer Todays Alternative Energy's Growth Strategy"
p7
sa(dp8
g2
S'http://www.reuters.com/article/2012/08/05/idUS12739+05-Aug-2012+GNW20120805'
p9
sg4
S'20120804\xc2\xa011:54PM UTC'
p10
sg6
S"New CEO Appointed to Steer Todays Alternative Energy's Growth Strategy"
p11
sa(dp12
g2
S'http://www.reuters.com/article/2012/08/05/storm-ernesto-idUSL2E8J424Q20120805'
p13
sg4
S'20120804\xc2\xa011:50PM UTC'
p14
sg6
S'UPDATE 3-Ernesto at sea in Caribbean; new storm forms in Atlantic'
p15
sa(dp16
g2
S'http://www.reuters.com/article/2012/08/05/idUS12681+05-Aug-2012+PRN20120805'
p17
sg4
S'20120804\xc2\xa011:50PM UTC'
p18
sg6
S'AT&T;, Communications Workers Of America Agree To Extend Core Wireline Contract In Southeast Region; Negotiations Continuing'
p19
sa(dp20
g2
S'http://www.reuters.com/article/2012/08/05/oly-timetable-day-idUSL4E8J500H20120805'
p21
sg4
S'20120804\xc2\xa011:49PM UTC'
p22
sg6
S"Olympics-Timetable for Sunday's finals"
p23
sa(dp24
g2
S'http://www.reuters.com/article/2012/08/05/us-china-drugs-idUSBRE87401D20120805'
p25
sg4
S'20120804\xc2\xa011:32PM UTC'
p26
sg6
S'China detains almost 2,000 in fake drug sweep'
p27
sa(dp28
g2
S'http://www.reuters.com/article/2012/08/05/idUS12526+05-Aug-2012+PRN20120805'
p29
sg4
S'20120804\xc2\xa011:30PM UTC'
p30
sg6
S'Following Is a Test Release'
p31
sa(dp32
g2
S'http://www.reuters.com/article/2012/08/05/us-oly-badm-yao-day-idUSBRE87401H20120805'
p33
sg4
S'20120804\xc2\xa011:23PM UTC'
p34
sg6
S"China's Yao Ming calls punished badminton players victims"
p35
sa(dp36
g2
S'http://www.reuters.com/article/2012/08/05/oly-badm-yao-day-idUSL4E8J500E20120805'
p37
sg4
S'20120804\xc2\xa011:16PM UTC'
p38
sg6
S"REFILE-Olympics-China's Yao Ming calls punished badminton players victims"
p39
sa(dp40
g2
S'http://www.reuters.com/article/2012/08/05/china-drugs-idUSL4E8J500C20120805'
p41
sg4
S'20120804\xc2\xa011:01PM UTC'
p42
sg6
S'China detains almost 2,000 in fake drug sweep'
p43
sa(dp44
g2
S'http://www.reuters.com/article/2012/08/05/idUS12276+05-Aug-2012+PRN20120805'
p45
sg4
S'20120804\xc2\xa011:00PM UTC'
p46
sg6
S'Following Is a Test Release'
p47
sa(dp48
g2
S'http://www.reuters.com/article/2012/08/05/idUS12081+05-Aug-2012+PRN20120805'
p49
sg4
S'20120804\xc2\xa010:30PM UTC'
p50
sg6
S'Following Is a Test Release'
p51
sa(dp52
g2
S'http://www.reuters.com/article/2012/08/05/idUS11713+05-Aug-2012+PRN20120805'
p53
sg4
S'20120804\xc2\xa010:00PM UTC'
p54
sg6
S'Following Is a Test Release'
p55
sa(dp56
g2
S'http://www.reuters.com/article/2012/08/05/us-golf-pga-reno-idUSBRE87401420120805'
p57
sg4
S'20120804\xc2\xa09:46PM UTC'
p58
sg6
S'Golf: Henry moves clear at Reno-Tahoe Open'
p59
sa(dp60
g2
S'http://www.reuters.com/article/2012/08/05/idUS11112+05-Aug-2012+PRN20120805'
p61
sg4
S'20120804\xc2\xa09:30PM UTC'
p62
sg6
S'Following Is a Test Release'
p63
sa(dp64
g2
S'http://www.reuters.com/article/2012/08/05/china-usa-southchinasea-idUSL4E8J500620120805'
p65
sg4
S'20120804\xc2\xa09:25PM UTC'
p66
sg6
S'China calls in U.S. diplomat over South China Sea'
p67
sa(dp68
g2
S'http://www.reuters.com/article/2012/08/05/us-china-politics-trial-idUSBRE8730LZ20120805'
p69
sg4
S'20120804\xc2\xa09:19PM UTC'
p70
sg6
S'China to hold Gu Kailai murder trial on Aug 9: sources'
p71
sa(dp72
g2
S'http://www.reuters.com/article/2012/08/05/idUS10974+05-Aug-2012+PRN20120805'
p73
sg4
S'20120804\xc2\xa09:18PM UTC'
p74
sg6
S'Kia Racing Scores Top Five Finish in Round Ten of The Pirelli World Challenge at Mid-Ohio Sports Car Course'
p75
sa(dp76
g2
S'http://www.reuters.com/article/2012/08/05/us-korea-north-school-idUSBRE87400S20120805'
p77
sg4
S'20120804\xc2\xa09:18PM UTC'
p78
sg6
S'University brings capitalism to reclusive North Korea'
p79
sa(dp80
g2
S'http://www.reuters.com/article/2012/08/05/us-china-politics-trial-britain-idUSBRE87400R20120805'
p81
sg4
S'20120804\xc2\xa09:14PM UTC'
p82
sg6
S'British diplomats to attend Chinese murder trial'
p83
sa(dp84
g2
S'http://www.reuters.com/article/2012/08/05/us-oly-yach-preview-day-idUSBRE87400N20120805'
p85
sg4
S'20120804\xc2\xa09:09PM UTC'
p86
sg6
S'Sailing: Ainslie needs perfect finish for record'
p87
sa(dp88
g2
S'http://www.reuters.com/article/2012/08/05/us-oly-voll-vomvbl-heats-day-idUSBRE87400J20120805'
p89
sg4
S'20120804\xc2\xa09:07PM UTC'
p90
sg6
S'Volleyball: Upset defeats for U.S. and Bulgaria'
p91
sa(dp92
g2
S'http://www.reuters.com/article/2012/08/05/us-oly-athl-day-idUSBRE87400D20120805'
p93
sg4
S'20120804\xc2\xa09:03PM UTC'
p94
sg6
S'Day of reckoning arrives for Bolt and Blake'
p95
sa(dp96
g2
S'http://www.reuters.com/article/2012/08/05/idUS10751+05-Aug-2012+PRN20120805'
p97
sg4
S'20120804\xc2\xa09:00PM UTC'
p98
sg6
S'Following Is a Test Release'
p99
sa(dp100
g2
S'http://www.reuters.com/article/2012/08/05/oly-voll-vomvbl-heats-day-idUSL6E8J44EO20120805'
p101
sg4
S'20120804\xc2\xa09:00PM UTC'
p102
sg6
S'UPDATE 2-Olympics-Volleyball-Upset defeats for U.S. and Bulgaria'
p103
sa(dp104
g2
S'http://www.reuters.com/article/2012/08/05/oly-yach-preview-day-idUSL6E8J45VK20120805'
p105
sg4
S'20120804\xc2\xa09:00PM UTC'
p106
sg6
S'PREVIEW-Olympics-Sailing-Ainslie needs perfect finish for record'
p107
sa(dp108
g2
S'http://www.reuters.com/article/2012/08/05/oly-athl-day-idUSL4E8J405K20120805'
p109
sg4
S'20120804\xc2\xa09:00PM UTC'
p110
sg6
S'Olympics-Athletics-Day of reckoning arrives for Bolt and Blake'
p111
sa(dp112
g2
S'http://www.reuters.com/article/2012/08/05/idUS10479+05-Aug-2012+PRN20120805'
p113
sg4
S'20120804\xc2\xa08:30PM UTC'
p114
sg6
S'Following Is a Test Release'
p115
sa(dp116
g2
S'http://www.reuters.com/article/2012/08/05/us-newzealand-afghanistan-idUSBRE87400520120805'
p117
sg4
S'20120804\xc2\xa08:20PM UTC'
p118
sg6
S'Two New Zealand soldiers killed in Afghanistan, six wounded'
p119
sa(dp120
g2
S'http://www.reuters.com/article/2012/08/05/us-oly-boxi-bxm64k-idUSBRE8730Q020120805'
p121
sg4
S'20120804\xc2\xa08:09PM UTC'
p122
sg6
S'India cry cheats as British captain goes through'
p123
sa(dp124
g2
S'http://www.reuters.com/article/2012/08/05/us-oly-boxi-women-day-idUSBRE87400320120805'
p125
sg4
S'20120804\xc2\xa08:09PM UTC'
p126
sg6
S"Women boxing's day finally comes"
p127
sa(dp128
g2
S'http://www.reuters.com/article/2012/08/05/oly-boxi-women-day-idUSL6E8J3QOC20120805'
p129
sg4
S'20120804\xc2\xa08:01PM UTC'
p130
sg6
S"Olympics-Boxing-Women boxing's day finally comes"
p131
sa(dp132
g2
S'http://www.reuters.com/article/2012/08/05/idUS10011+05-Aug-2012+PRN20120805'
p133
sg4
S'20120804\xc2\xa08:00PM UTC'
p134
sg6
S'Following Is a Test Release'
p135
sa(dp136
g2
S'http://www.reuters.com/article/2012/08/04/us-oly-athl-wrap-day-idUSBRE8730OU20120804'
p137
sg4
S'20120804\xc2\xa07:53PM UTC'
p138
sg6
S'Athletics: Glorious triple-gold night for Britain'
p139
sa(dp140
g2
S'http://www.reuters.com/article/2012/08/04/us-oly-athl-atm10k-farah-idUSBRE8730QN20120804'
p141
sg4
S'20120804\xc2\xa07:53PM UTC'
p142
sg6
S'Athletics: Farah hails fans after golden run'
p143
sa(dp144
g2
S'http://www.reuters.com/article/2012/08/04/us-yemen-attack-idUSBRE8730O220120804'
p145
sg4
S'20120804\xc2\xa07:48PM UTC'
p146
sg6
S'Suicide bomber kills 25 in southern Yemen village'
p147
sa(dp148
g2
S'http://www.reuters.com/article/2012/08/04/us-oly-athl-atwhep-ennis-day-idUSBRE8730QK20120804'
p149
sg4
S'20120804\xc2\xa07:45PM UTC'
p150
sg6
S'Cool Ennis lives up to poster girl status'
p151
sa(dp152
g2
S'http://www.reuters.com/article/2012/08/04/oly-athl-atm10k-farah-idUSL6E8J46FX20120804'
p153
sg4
S'20120804\xc2\xa07:42PM UTC'
p154
sg6
S'Olympics-Athletics-Farah hails fans after golden run'
p155
sa(dp156
g2
S'http://www.reuters.com/article/2012/08/04/us-golf-pga-idUSBRE8730QE20120804'
p157
sg4
S'20120804\xc2\xa07:41PM UTC'
p158
sg6
S'Furyk holds slim lead at Firestone'
p159
sa(dp160
g2
S'http://www.reuters.com/article/2012/08/04/us-oly-athl-atw100-fraser-idUSBRE8730QD20120804'
p161
sg4
S'20120804\xc2\xa07:40PM UTC'
p162
sg6
S'Limelight? All I hear is Bolt, says Fraser-Pryce'
p163
sa(dp164
g2
S'http://www.reuters.com/article/2012/08/04/us-baseball-yankees-idUSBRE8730Q920120804'
p165
sg4
S'20120804\xc2\xa07:38PM UTC'
p166
sg6
S'Scorching Hernandez shut outs Yankees'
p167
sa(dp168
g2
S'http://www.reuters.com/article/2012/08/04/us-oly-wrap-day-idUSBRE87307320120804'
p169
sg4
S'20120804\xc2\xa07:34PM UTC'
p170
sg6
S'Golden day for hosts; Jamaican Fraser wins 100'
p171
sa(dp172
g2
S'http://www.reuters.com/article/2012/08/04/oly-athl-atwhep-ennis-day-idUSL4E8J406I20120804'
p173
sg4
S'20120804\xc2\xa07:34PM UTC'
p174
sg6
S'Olympics-Athletics-Cool Ennis lives up to poster girl status'
p175
sa(dp176
g2
S'http://www.reuters.com/article/2012/08/04/us-oly-swim-finals-wrap-day-idUSBRE8730MD20120804'
p177
sg4
S'20120804\xc2\xa07:32PM UTC'
p178
sg6
S'Swimming: Phelps ends career with 18th gold medal'
p179
sa(dp180
g2
S'http://www.reuters.com/article/2012/08/04/us-oly-swim-swm4xm-phelps-idUSBRE8730Q720120804'
p181
sg4
S'20120804\xc2\xa07:32PM UTC'
p182
sg6
S'Phelps quits the pool with unchallenged record'
p183
sa(dp184
g2
S'http://www.reuters.com/article/2012/08/04/us-oly-swim-sww4xm-franklin-idUSBRE8730Q420120804'
p185
sg4
S'20120804\xc2\xa07:30PM UTC'
p186
sg6
S'Swimming: Franklin caps golden Games with fourth title'
p187
sa(dp188
g2
S'http://www.reuters.com/article/2012/08/04/idUS67220+04-Aug-2012+PRN20120804'
p189
sg4
S'20120804\xc2\xa07:30PM UTC'
p190
sg6
S'Following Is a Test Release'
p191
sa(dp192
g2
S'http://www.reuters.com/article/2012/08/04/us-oly-boxi-bxm64k-idUSBRE8730Q020120804'
p193
sg4
S'20120804\xc2\xa07:27PM UTC'
p194
sg6
S'India cry cheats as British captain goes through'
p195
sa(dp196
g2
S'http://www.reuters.com/article/2012/08/04/oly-swim-sww4xm-franklin-idUSL2E8J434820120804'
p197
sg4
S'20120804\xc2\xa07:26PM UTC'
p198
sg6
S'Olympics-Swimming-Franklin caps golden Games with fourth title'
p199
sa(dp200
g2
S'http://www.reuters.com/article/2012/08/04/oly-wrap-eod-day-idUSL6E8J45Y720120804'
p201
sg4
S'20120804\xc2\xa07:23PM UTC'
p202
sg6
S'WRAPUP 7-Olympics-Golden day for hosts; Jamaican Fraser wins 100'
p203
sa(dp204
g2
S'http://www.reuters.com/article/2012/08/04/oly-bask-bkmbbl-idUSL6E8J46HQ20120804'
p205
sg4
S'20120804\xc2\xa07:18PM UTC'
p206
sg6
S"Olympics-Argentina beat Nigeria in men's basketball Group A - results"
p207
sa(dp208
g2
S'http://www.reuters.com/article/2012/08/04/oly-swim-swm4xm-phelps-idUSL4E8J406320120804'
p209
sg4
S'20120804\xc2\xa07:13PM UTC'
p210
sg6
S'Olympics-Swimming-Phelps quits the pool with unchallenged record'
p211
sa(dp212
g2
S'http://www.reuters.com/article/2012/08/04/oly-boxi-bxm81k-idUSL6E8J46HF20120804'
p213
sg4
S'20120804\xc2\xa07:11PM UTC'
p214
sg6
S"Olympics-Men's boxing light heavyweight last 16 - results"
p215
sa(dp216
g2
S'http://www.reuters.com/article/2012/08/04/oly-athl-atw100-fraser-idUSL4E8J406P20120804'
p217
sg4
S'20120804\xc2\xa07:08PM UTC'
p218
sg6
S'Olympics-Athletics-Limelight? All I hear is Bolt, says Fraser-Pryce'
p219
sa(dp220
g2
S'http://www.reuters.com/article/2012/08/04/us-golf-pga-mcilroy-idUSBRE8730PR20120804'
p221
sg4
S'20120804\xc2\xa07:07PM UTC'
p222
sg6
S'Golf: Timely return to form at Firestone for McIlroy'
p223
sa(dp224
g2
S'http://www.reuters.com/article/2012/08/04/us-oly-swim-swm4xm-phelps-quotes-idUSBRE8730PQ20120804'
p225
sg4
S'20120804\xc2\xa07:05PM UTC'
p226
sg6
S'I did everything I wanted to do, says Phelps'
p227
sa(dp228
g2
S'http://www.reuters.com/article/2012/08/04/us-oly-swim-swm4xm-phelps-award-idUSBRE8730PP20120804'
p229
sg4
S'20120804\xc2\xa07:05PM UTC'
p230
sg6
S'Phelps hails coach after "greatest" accolade'
p231
sa(dp232
g2
S'http://www.reuters.com/article/2012/08/04/oly-athl-wrap-day-idUSL4E8J406N20120804'
p233
sg4
S'20120804\xc2\xa07:04PM UTC'
p234
sg6
S'WRAPUP 2-Olympics-Athletics-Glorious triple-gold night for Britain'
p235
sa(dp236
g2
S'http://www.reuters.com/article/2012/08/04/oly-boxi-bxm64k-idUSL6E8J46G120120804'
p237
sg4
S'20120804\xc2\xa07:01PM UTC'
p238
sg6
S'Olympics-Boxing-India cry cheats as British captain goes through'
p239
sa(dp240
g2
S'http://www.reuters.com/article/2012/08/04/idUS66584+04-Aug-2012+PRN20120804'
p241
sg4
S'20120804\xc2\xa07:00PM UTC'
p242
sg6
S'Following Is a Test Release'
p243
sa(dp244
g2
S'http://www.reuters.com/article/2012/08/04/us-usa-mars-science-idUSBRE8730LP20120804'
p245
sg4
S'20120804\xc2\xa06:58PM UTC'
p246
sg6
S'Rover to probe whether Mars was life-friendly in the past'
p247
sa(dp248
g2
S'http://www.reuters.com/article/2012/08/04/us-usa-mars-idUSBRE8730PE20120804'
p249
sg4
S'20120804\xc2\xa06:58PM UTC'
p250
sg6
S'Mars rover Curiosity on target for "eye of the needle" landing'
p251
sa(dp252
g2
S'http://www.reuters.com/article/2012/08/04/us-oly-voll-bvvol-wrap-day-idUSBRE8730P920120804'
p253
sg4
S'20120804\xc2\xa06:56PM UTC'
p254
sg6
S'Beach volleyball: U.S. back to winning ways'
p255
sa(dp256
g2
S'http://www.reuters.com/article/2012/08/04/idUS66425+04-Aug-2012+PRN20120804'
p257
sg4
S'20120804\xc2\xa06:55PM UTC'
p258
sg6
S'Young Stars of "Space Warriors" to be a part of history as they observe NASA Curiosity land on Mars'
p259
sa(dp260
g2
S'http://www.reuters.com/article/2012/08/04/us-oly-swim-sync-preview-day-idUSBRE8730P720120804'
p261
sg4
S'20120804\xc2\xa06:55PM UTC'
p262
sg6
S'Synchronised Swimming: Russia to defend title'
p263
sa(dp264
g2
S'http://www.reuters.com/article/2012/08/04/oly-swim-swm4xm-phelps-quotes-idUSL6E8J46CX20120804'
p265
sg4
S'20120804\xc2\xa06:54PM UTC'
p266
sg6
S'Olympics-Swimming-I did everything I wanted to do, says Phelps'
p267
sa(dp268
g2
S'http://www.reuters.com/article/2012/08/04/us-golf-pga-idUSBRE8730P220120804'
p269
sg4
S'20120804\xc2\xa06:52PM UTC'
p270
sg6
S'Furyk holds slim lead after third round at Firestone'
p271
sa(dp272
g2
S'http://www.reuters.com/article/2012/08/04/us-oly-bask-bkmbbl-idUSBRE8730OZ20120804'
p273
sg4
S'20120804\xc2\xa06:51PM UTC'
p274
sg6
S"Basketball: Australia beat Britain to dash hosts' hopes"
p275
sa(dp276
g2
S'http://www.reuters.com/article/2012/08/04/oly-swim-swm4xm-phelps-award-idUSL4E8J406620120804'
p277
sg4
S'20120804\xc2\xa06:50PM UTC'
p278
sg6
S"Olympics-Swimming-Phelps hails coach after 'greatest' accolade"
p279
sa(dp280
g2
S'http://www.reuters.com/article/2012/08/04/oly-boxi-bxm81k-idUSL6E8J46EF20120804'
p281
sg4
S'20120804\xc2\xa06:46PM UTC'
p282
sg6
S"Olympics-Men's boxing light heavyweight last 16 - results"
p283
sa(dp284
g2
S'http://www.reuters.com/article/2012/08/04/us-oly-swim-usa-day-idUSBRE8730OT20120804'
p285
sg4
S'20120804\xc2\xa06:44PM UTC'
p286
sg6
S'U.S. ready for life without Phelps'
p287
sa(dp288
g2
S'http://www.reuters.com/article/2012/08/04/us-oly-socc-wrap-day-idUSBRE8730ON20120804'
p289
sg4
S'20120804\xc2\xa06:38PM UTC'
p290
sg6
S'Soccer: Brazil survive scare, Britain lose on penalties'
p291
sa(dp292
g2
S'http://www.reuters.com/article/2012/08/04/oly-swim-usa-day-idUSL6E8J467620120804'
p293
sg4
S'20120804\xc2\xa06:38PM UTC'
p294
sg6
S'Olympics-Swimming-U.S. ready for life without Phelps'
p295
sa(dp296
g2
S'http://www.reuters.com/article/2012/08/04/oly-bask-bkmbbl-idUSL6E8J466T20120804'
p297
sg4
S'20120804\xc2\xa06:36PM UTC'
p298
sg6
S"Olympics-Basketball-Australia beat Britain to dash hosts' hopes"
p299
sa(dp300
g2
S'http://www.reuters.com/article/2012/08/04/us-oly-weig-wlm94k-idUSBRE8730OH20120804'
p301
sg4
S'20120804\xc2\xa06:33PM UTC'
p302
sg6
S'Weightlifting: Ilyin wins gold with record lift'
p303
sa(dp304
g2
S'http://www.reuters.com/article/2012/08/04/oly-boxi-bxm81k-idUSL6E8J46CP20120804'
p305
sg4
S'20120804\xc2\xa06:32PM UTC'
p306
sg6
S"Olympics-Men's boxing light heavyweight last 16 - results"
p307
sa(dp308
g2
S'http://www.reuters.com/article/2012/08/04/usa-mars-idUSL2E8J42W320120804'
p309
sg4
S'20120804\xc2\xa06:31PM UTC'
p310
sg6
S"Mars rover Curiosity on target for 'eye of the needle' landing"
p311
sa(dp312
g2
S'http://www.reuters.com/article/2012/08/04/us-oly-athl-atm10k-idUSBRE8730MF20120804'
p313
sg4
S'20120804\xc2\xa06:31PM UTC'
p314
sg6
S'Sublime Farah delivers distance gold for Britain'
p315
sa(dp316
g2
S'http://www.reuters.com/article/2012/08/04/idUS65761+04-Aug-2012+PRN20120804'
p317
sg4
S'20120804\xc2\xa06:30PM UTC'
p318
sg6
S'Following Is a Test Release'
p319
sa(dp320
g2
S'http://www.reuters.com/article/2012/08/04/oly-swim-sync-preview-day-idUSL6E8J457E20120804'
p321
sg4
S'20120804\xc2\xa06:30PM UTC'
p322
sg6
S'PREVIEW-Olympics-Synchronised Swimming-Russia to defend title'
p323
sa(dp324
g2
S'http://www.reuters.com/article/2012/08/04/us-oly-athl-atw-idUSBRE8730N620120804'
p325
sg4
S'20120804\xc2\xa06:29PM UTC'
p326
sg6
S'Fraser-Pryce is sprint queen once again'
p327
sa(dp328
g2
S'http://www.reuters.com/article/2012/08/04/us-syria-crisis-idUSBRE8610SH20120804'
p329
sg4
S'20120804\xc2\xa06:27PM UTC'
p330
sg6
S"Syrian leader Assad's planes pound vital prize of Aleppo"
p331
sa(dp332
g2
S'http://www.reuters.com/article/2012/08/04/us-syria-crisis-israel-golan-idUSBRE8730HN20120804'
p333
sg4
S'20120804\xc2\xa06:27PM UTC'
p334
sg6
S'Israeli troops wound man near Syrian Golan fence'
p335
sa(dp336
g2
S'http://www.reuters.com/article/2012/08/04/us-syria-crisis-iran-kidnapping-idUSBRE87309D20120804'
p337
sg4
S'20120804\xc2\xa06:27PM UTC'
p338
sg6
S'Forty-eight Iranians kidnapped in Damascus: IRNA'
p339
sa(dp340
g2
S'http://www.reuters.com/article/2012/08/04/oly-voll-bvvol-wrap-day-idUSL6E8J450Y20120804'
p341
sg4
S'20120804\xc2\xa06:26PM UTC'
p342
sg6
S'UPDATE 2-Olympics-Beach volleyball-U.S. back to winning ways'
p343
sa(dp344
g2
S'http://www.reuters.com/article/2012/08/04/oly-fenc-fewtep-finals-day-idUSL6E8J45VC20120804'
p345
sg4
S'20120804\xc2\xa06:25PM UTC'
p346
sg6
S'UPDATE 1-Olympics-Fencing-China halt South Korean charge to win gold'
p347
sa(dp348
g2
S'http://www.reuters.com/article/2012/08/04/oly-swim-finals-wrap-day-idUSL6E8J45XE20120804'
p349
sg4
S'20120804\xc2\xa06:25PM UTC'
p350
sg6
S'WRAPUP 2-Olympics-Swimming-Phelps ends career with 18th gold medal'
p351
sa(dp352
g2
S'http://www.reuters.com/article/2012/08/04/oly-medals-idUSL2E8J43MI20120804'
p353
sg4
S'20120804\xc2\xa06:23PM UTC'
p354
sg6
S'Olympics-Complete medals table at end of Day Eight'
p355
sa(dp356
g2
S'http://www.reuters.com/article/2012/08/04/oly-socc-fbmsoc-idUSL6E8J463X20120804'
p357
sg4
S'20120804\xc2\xa06:20PM UTC'
p358
sg6
S"Olympics-South Korea beat Britain in men's soccer quarter-finals - results"
p359
sa(dp360
g2
S'http://www.reuters.com/article/2012/08/04/oly-athl-atmljp-idUSL6E8J45XK20120804'
p361
sg4
S'20120804\xc2\xa06:19PM UTC'
p362
sg6
S'UPDATE 2-Olympics-Athletics-Rutherford leaps to join British gold rush'
p363
sa(dp364
g2
S'http://www.reuters.com/article/2012/08/04/us-germany-eurozone-idUSBRE8730IB20120804'
p365
sg4
S'20120804\xc2\xa06:18PM UTC'
p366
sg6
S'German politicians concerned about bigger role for ESM'
p367
sa(dp368
g2
S'http://www.reuters.com/article/2012/08/04/us-usa-weather-lollapalooza-idUSBRE8730O420120804'
p369
sg4
S'20120804\xc2\xa06:17PM UTC'
p370
sg6
S'Tens of thousands evacuated as high winds threaten music fest'
p371
sa(dp372
g2
S'http://www.reuters.com/article/2012/08/04/oly-boxi-bxm81k-idUSL6E8J46C620120804'
p373
sg4
S'20120804\xc2\xa06:16PM UTC'
p374
sg6
S"Olympics-Men's boxing light heavyweight last 16 - results"
p375
sa(dp376
g2
S'http://www.reuters.com/article/2012/08/04/oly-socc-wrap-day-idUSL6E8J455H20120804'
p377
sg4
S'20120804\xc2\xa06:15PM UTC'
p378
sg6
S'UPDATE 2-Olympics-Brazil survive scare, Britain lose on penalties'
p379
sa(dp380
g2
S'http://www.reuters.com/article/2012/08/04/syria-crisis-idUSL6E8J46C920120804'
p381
sg4
S'20120804\xc2\xa06:12PM UTC'
p382
sg6
S"Syrian leader Assad's planes pound vital prize of Aleppo"
p383
sa(dp384
g2
S'http://www.reuters.com/article/2012/08/04/oly-weig-wlm94k-idUSL6E8J45VR20120804'
p385
sg4
S'20120804\xc2\xa06:11PM UTC'
p386
sg6
S'UPDATE 1-Olympics-Weightlifting-Ilyin wins gold with record lift'
p387
sa(dp388
g2
S'http://www.reuters.com/article/2012/08/04/oly-athl-atm10k-idUSL6E8J45YC20120804'
p389
sg4
S'20120804\xc2\xa06:10PM UTC'
p390
sg6
S'UPDATE 2-Olympics-Athletics-Sublime Farah delivers distance gold for Britain'
p391
sa(dp392
g2
S'http://www.reuters.com/article/2012/08/04/us-oly-hock-howhky-rounds-day-idUSBRE8730NS20120804'
p393
sg4
S'20120804\xc2\xa06:10PM UTC'
p394
sg6
S'Hockey: British, German medal hopes suffer blow'
p395
sa(dp396
g2
S'http://www.reuters.com/article/2012/08/04/oly-athl-atwhep-idUSL2E8J42YN20120804'
p397
sg4
S'20120804\xc2\xa06:09PM UTC'
p398
sg6
S"CORRECTED-Olympics-Britain's Jessica Ennis won the women's athletics heptathlon 800m"
p399
sa(dp400
g2
S'http://www.reuters.com/article/2012/08/04/oly-hock-howhky-rounds-day-idUSL6E8J45QT20120804'
p401
sg4
S'20120804\xc2\xa06:04PM UTC'
p402
sg6
S'UPDATE 1-Olympics-Hockey-British, German medal hopes suffer blow'
p403
sa(dp404
g2
S'http://www.reuters.com/article/2012/08/04/oly-voll-bvmvol-idUSL6E8J466W20120804'
p405
sg4
S'20120804\xc2\xa06:03PM UTC'
p406
sg6
S"Olympics-The U.S. beat Russia in men's beach volleyball last 16 - results"
p407
sa(dp408
g2
S'http://www.reuters.com/article/2012/08/04/idUS64612+04-Aug-2012+PRN20120804'
p409
sg4
S'20120804\xc2\xa06:00PM UTC'
p410
sg6
S'Following Is a Test Release'
p411
sa(dp412
g2
S'http://www.reuters.com/article/2012/08/04/us-oly-swim-swwm15f-sun-idUSBRE8730NN20120804'
p413
sg4
S'20120804\xc2\xa05:54PM UTC'
p414
sg6
S"Hard work pays off but I'm no Phelps says Sun"
p415
sa(dp416
g2
S'http://www.reuters.com/article/2012/08/04/oly-boxi-bxm64k-idUSL6E8J466Q20120804'
p417
sg4
S'20120804\xc2\xa05:54PM UTC'
p418
sg6
S"Olympics-Men's boxing light welterweight last 16 - results"
p419
sa(dp420
g2
S'http://www.reuters.com/article/2012/08/04/oly-hock-howhky-idUSL6E8J466J20120804'
p421
sg4
S'20120804\xc2\xa05:53PM UTC'
p422
sg6
S"Olympics-Argentina beat Germany in the women's hockey Pool B - results"
p423
sa(dp424
g2
S'http://www.reuters.com/article/2012/08/04/us-usa-wildfires-oklahoma-idUSBRE87302N20120804'
p425
sg4
S'20120804\xc2\xa05:51PM UTC'
p426
sg6
S'Oklahoma crews battle expanding wildfires in torrid conditions'
p427
sa(dp428
g2
S'http://www.reuters.com/article/2012/08/04/oly-swim-swwm15f-sun-idUSL6E8J464W20120804'
p429
sg4
S'20120804\xc2\xa05:49PM UTC'
p430
sg6
S"Olympics-Swimming-Hard work pays of but I'm no Phelps says Sun"
p431
sa(dp432
g2
S'http://www.reuters.com/article/2012/08/04/oly-voll-vomvbl-idUSL6E8J464T20120804'
p433
sg4
S'20120804\xc2\xa05:43PM UTC'
p434
sg6
S"Olympics-Argentina beat Bulgaria in men's volleyball Group A - results"
p435
sa(dp436
g2
S'http://www.reuters.com/article/2012/08/04/syria-crisis-idUSL6E8J42KO20120804'
p437
sg4
S'20120804\xc2\xa05:43PM UTC'
p438
sg6
S'WRAPUP 4-Syrian artillery, aircraft pound rebels in Aleppo'
p439
sa(dp440
g2
S'http://www.reuters.com/article/2012/08/04/oly-boxi-bxm64k-idUSL6E8J464020120804'
p441
sg4
S'20120804\xc2\xa05:39PM UTC'
p442
sg6
S"Olympics-Men's boxing light welterweight last 16 - results"
p443
sa(dp444
g2
S'http://www.reuters.com/article/2012/08/04/idUS63493+04-Aug-2012+PRN20120804'
p445
sg4
S'20120804\xc2\xa05:35PM UTC'
p446
sg6
S'World Vision Prepares Disaster Response to Oklahoma Wildfires'
p447
sa(dp448
g2
S'http://www.reuters.com/article/2012/08/04/us-oly-athl-atwhep-wrap-day-idUSBRE8730M720120804'
p449
sg4
S'20120804\xc2\xa05:33PM UTC'
p450
sg6
S'Athletics: Tearful Ennis wins heptathlon gold'
p451
sa(dp452
g2
S'http://www.reuters.com/article/2012/08/04/idUS63172+04-Aug-2012+PRN20120804'
p453
sg4
S'20120804\xc2\xa05:30PM UTC'
p454
sg6
S'Following Is a Test Release'
p455
sa(dp456
g2
S'http://www.reuters.com/article/2012/08/04/oly-athl-atwhep-wrap-day-idUSL6E8J449Y20120804'
p457
sg4
S'20120804\xc2\xa05:29PM UTC'
p458
sg6
S'UPDATE 3-Olympics-Athletics-Tearful Ennis wins heptathlon gold'
p459
sa(dp460
g2
S'http://www.reuters.com/article/2012/08/04/idUS63006+04-Aug-2012+PRN20120804'
p461
sg4
S'20120804\xc2\xa05:27PM UTC'
p462
sg6
S'"Construction" Is Complete.  The Grand Opening Of A New Online Stadium For New York Sports Fans'
p463
sa(dp464
g2
S'http://www.reuters.com/article/2012/08/04/oly-boxi-bxm64k-idUSL6E8J45ZK20120804'
p465
sg4
S'20120804\xc2\xa05:26PM UTC'
p466
sg6
S"Olympics-Men's boxing light welterweight last 16 - results"
p467
sa(dp468
g2
S'http://www.reuters.com/article/2012/08/04/us-oly-athl-atmljp-idUSBRE8730M920120804'
p469
sg4
S'20120804\xc2\xa05:26PM UTC'
p470
sg6
S'Athletics: Rutherford joins British gold rush'
p471
sa(dp472
g2
S'http://www.reuters.com/article/2012/08/04/us-oly-cycl-ctwtpu-americans-day-idUSBRE8730NA20120804'
p473
sg4
S'20120804\xc2\xa05:25PM UTC'
p474
sg6
S'Cycling: Underdog spirit drives Americans to silver'
p475
sa(dp476
g2
S'http://www.reuters.com/article/2012/08/04/oly-athl-atw-idUSL6E8J45ZG20120804'
p477
sg4
S'20120804\xc2\xa05:23PM UTC'
p478
sg6
S"Olympics-Women's 100m medal results"
p479
sa(dp480
g2
S'http://www.reuters.com/article/2012/08/04/oly-athl-atm10k-idUSL6E8J45Z820120804'
p481
sg4
S'20120804\xc2\xa05:21PM UTC'
p482
sg6
S"Olympics-Men's 10,000m run medal results"
p483
sa(dp484
g2
S'http://www.reuters.com/article/2012/08/04/us-oly-swim-sww50f-kromowidjojo-idUSBRE8730N420120804'
p485
sg4
S'20120804\xc2\xa05:18PM UTC'
p486
sg6
S'Flying Dutchwoman takes sprint double'
p487
sa(dp488
g2
S'http://www.reuters.com/article/2012/08/04/oly-cycl-ctwtpu-americans-day-idUSL6E8J45XS20120804'
p489
sg4
S'20120804\xc2\xa05:18PM UTC'
p490
sg6
S'Olympics-Cycling-Underdog spirit drives Americans to silver'
p491
sa(dp492
g2
S'http://www.reuters.com/article/2012/08/04/oly-swim-sww50f-kromowidjojo-idUSL6E8J44UN20120804'
p493
sg4
S'20120804\xc2\xa05:15PM UTC'
p494
sg6
S'Olympics-Swimming-Flying Dutchwoman takes sprint double'
p495
sa(dp496
g2
S'http://www.reuters.com/article/2012/08/04/entertainment-us-cubagooding-idUSBRE8730MY20120804'
p497
sg4
S'20120804\xc2\xa05:14PM UTC'
p498
sg6
S'New Orleans bar case dropped against actor Cuba Gooding Jr'
p499
sa(dp500
g2
S'http://www.reuters.com/article/2012/08/04/oly-bask-bkmbbl-idUSL6E8J45YX20120804'
p501
sg4
S'20120804\xc2\xa05:14PM UTC'
p502
sg6
S"Olympics-Australia beat Britain in men's basketball Group B - results"
p503
sa(dp504
g2
S'http://www.reuters.com/article/2012/08/04/oly-boxi-bxm49k-idUSL6E8J45YF20120804'
p505
sg4
S'20120804\xc2\xa05:12PM UTC'
p506
sg6
S"Olympics-Men's boxing light flyweight last 16 results"
p507
sa(dp508
g2
S'http://www.reuters.com/article/2012/08/04/oly-boxi-bxm64k-idUSL2E8J42ZA20120804'
p509
sg4
S'20120804\xc2\xa05:11PM UTC'
p510
sg6
S"Olympics-Men's boxing light welterweight last 16 match 5 - results"
p511
sa(dp512
g2
S'http://www.reuters.com/article/2012/08/04/us-oly-tenn-wrap-day-idUSBRE8730MQ20120804'
p513
sg4
S'20120804\xc2\xa05:09PM UTC'
p514
sg6
S'Tennis: U.S. has golden day as Serena, Bryans win'
p515
sa(dp516
g2
S'http://www.reuters.com/article/2012/08/04/oly-voll-bvwvol-idUSL6E8J45YA20120804'
p517
sg4
S'20120804\xc2\xa05:06PM UTC'
p518
sg6
S"Olympics-Women's beach volleyball last 16 results"
p519
sa(dp520
g2
S'http://www.reuters.com/article/2012/08/04/us-oly-swim-usa-phelps-day-idUSBRE8730MN20120804'
p521
sg4
S'20120804\xc2\xa05:03PM UTC'
p522
sg6
S'Factbox: Michael Phelps medal tally'
p523
sa(dp524
g2
S'http://www.reuters.com/article/2012/08/04/idUS61277+04-Aug-2012+PRN20120804'
p525
sg4
S'20120804\xc2\xa05:00PM UTC'
p526
sg6
S'Following Is a Test Release'
p527
sa(dp528
g2
S'http://www.reuters.com/article/2012/08/04/oly-swim-usa-phelps-day-idUSL4E8J405Q20120804'
p529
sg4
S'20120804\xc2\xa04:56PM UTC'
p530
sg6
S'FACTBOX-Olympics-Swimming-Michael Phelps medal tally'
p531
sa(dp532
g2
S'http://www.reuters.com/article/2012/08/04/oly-tenn-wrap-day-idUSL6E8J42LP20120804'
p533
sg4
S'20120804\xc2\xa04:55PM UTC'
p534
sg6
S'WRAPUP 1-Olympics-Tennis-US has golden day as Serena, Bryans win'
p535
sa(dp536
g2
S'http://www.reuters.com/article/2012/08/04/oly-athl-atm10k-idUSL6E8J45V620120804'
p537
sg4
S'20120804\xc2\xa04:52PM UTC'
p538
sg6
S"Olympics-Athletics-Britain's Farah wins men's 10,000m gold"
p539
sa(dp540
g2
S'http://www.reuters.com/article/2012/08/04/us-usa-obama-birthday-idUSBRE8730F820120804'
p541
sg4
S'20120804\xc2\xa04:52PM UTC'
p542
sg6
S'Obama spends his 51st birthday on the golf course'
p543
sa(dp544
g2
S'http://www.reuters.com/article/2012/08/04/oly-athl-atmljp-idUSL6E8J45Y120120804'
p545
sg4
S'20120804\xc2\xa04:52PM UTC'
p546
sg6
S"Olympics-Men's long jump medal results"
p547
sa(dp548
g2
S'http://www.reuters.com/article/2012/08/04/us-oly-legacy-day-idUSBRE8730MB20120804'
p549
sg4
S'20120804\xc2\xa04:45PM UTC'
p550
sg6
S'London legacy shows Olympics is not just for rich: Coe'
p551
sa(dp552
g2
S'http://www.reuters.com/article/2012/08/04/oly-wrap-day-idUSL6E8J457Y20120804'
p553
sg4
S'20120804\xc2\xa04:45PM UTC'
p554
sg6
S'WRAPUP 6-Olympics-Phelps bows out with gold as Bolt struts in'
p555
sa(dp556
g2
S'http://www.reuters.com/article/2012/08/04/oly-tabt-ttwtem-idUSL6E8J45XW20120804'
p557
sg4
S'20120804\xc2\xa04:43PM UTC'
p558
sg6
S"Olympics-Women's table tennis team quarter-finals - results"
p559
sa(dp560
g2
S'http://www.reuters.com/article/2012/08/04/us-oly-cycl-wrap-day-idUSBRE8730LT20120804'
p561
sg4
S'20120804\xc2\xa04:42PM UTC'
p562
sg6
S'Cycling: British riders make records with a Beatle'
p563
sa(dp564
g2
S'http://www.reuters.com/article/2012/08/04/oly-cycl-wrap-day-idUSL6E8J45XG20120804'
p565
sg4
S'20120804\xc2\xa04:41PM UTC'
p566
sg6
S'WRAPUP 2-Olympics-Cycling-British riders make records with a Beatle'
p567
sa(dp568
g2
S'http://www.reuters.com/article/2012/08/04/us-oly-athl-atm20w-barrondo-idUSBRE8730M520120804'
p569
sg4
S'20120804\xc2\xa04:37PM UTC'
p570
sg6
S'Athletics: Choose trainers not guns, says Barrondo'
p571
sa(dp572
g2
S'http://www.reuters.com/article/2012/08/04/oly-voll-vomvbl-heats-day-idUSL6E8J44EO20120804'
p573
sg4
S'20120804\xc2\xa04:37PM UTC'
p574
sg6
S'UPDATE 1-Olympics-Volleyball-Russia save match point, upset U.S.'
p575
sa(dp576
g2
S'http://www.reuters.com/article/2012/08/04/oly-legacy-day-idUSL6E8J45LS20120804'
p577
sg4
S'20120804\xc2\xa04:32PM UTC'
p578
sg6
S'Olympics-London legacy shows Olympics is not just for rich -Coe'
p579
sa(dp580
g2
S'http://www.reuters.com/article/2012/08/04/us-china-politics-trial-idUSBRE8730LZ20120804'
p581
sg4
S'20120804\xc2\xa04:31PM UTC'
p582
sg6
S'China to hold Gu Kailai murder trial on Aug 9-sources'
p583
sa(dp584
g2
S'http://www.reuters.com/article/2012/08/04/oly-athl-atmljp-idUSL4E8J406D20120804'
p585
sg4
S'20120804\xc2\xa04:31PM UTC'
p586
sg6
S'Olympics-Athletics-Rutherford joins British gold rush in long jump'
p587
sa(dp588
g2
S'http://www.reuters.com/article/2012/08/04/idUS59548+04-Aug-2012+PRN20120804'
p589
sg4
S'20120804\xc2\xa04:30PM UTC'
p590
sg6
S'Following Is a Test Release'
p591
sa(dp592
g2
S'http://www.reuters.com/article/2012/08/04/idUS59553+04-Aug-2012+PRN20120804'
p593
sg4
S'20120804\xc2\xa04:30PM UTC'
p594
sg6
S'Palin endorses Steelman and her Contract with Missouri'
p595
sa(dp596
g2
S'http://www.reuters.com/article/2012/08/04/us-oly-swim-swm15f-heats-day-idUSBRE8730LV20120804'
p597
sg4
S'20120804\xc2\xa04:28PM UTC'
p598
sg6
S'Swimming: Sun qualifies fastest for 1500m final'
p599
sa(dp600
g2
S'http://www.reuters.com/article/2012/08/04/oly-athl-atm20w-barrondo-idUSL6E8J45QL20120804'
p601
sg4
S'20120804\xc2\xa04:28PM UTC'
p602
sg6
S'Olympics-Athletics-Choose trainers not guns, says Barrondo'
p603
sa(dp604
g2
S'http://www.reuters.com/article/2012/08/04/oly-cycl-wrap-day-idUSL6E8J45O120120804'
p605
sg4
S'20120804\xc2\xa04:23PM UTC'
p606
sg6
S'WRAPUP 1-Olympics-Cycling-British riders make records with a Beatle'
p607
sa(dp608
g2
S'http://www.reuters.com/article/2012/08/04/oly-boxi-bxmi81k-jo-prince-refi-idUSL6E8J451H20120804'
p609
sg4
S'20120804\xc2\xa04:22PM UTC'
p610
sg6
S"REFILE-INTERVIEW-Olympics-Jordan's Prince eyes inspiring medal"
p611
sa(dp612
g2
S'http://www.reuters.com/article/2012/08/04/oly-hand-hbmhbl-idUSL6E8J45V320120804'
p613
sg4
S'20120804\xc2\xa04:20PM UTC'
p614
sg6
S"Olympics-Iceland beat France in men's handball Group A - results"
p615
sa(dp616
g2
S'http://www.reuters.com/article/2012/08/04/oly-boxi-bxm49k-idUSL6E8J45UW20120804'
p617
sg4
S'20120804\xc2\xa04:17PM UTC'
p618
sg6
S"Olympics-Men's boxing light flyweight last 16 results"
p619
sa(dp620
g2
S'http://www.reuters.com/article/2012/08/04/usa-mars-science-idUSL2E8J40AS20120804'
p621
sg4
S'20120804\xc2\xa04:15PM UTC'
p622
sg6
S'Rover to probe whether Mars was life-friendly in the past'
p623
sa(dp624
g2
S'http://www.reuters.com/article/2012/08/04/us-oly-boxi-bxmi81k-jo-prince-idUSBRE8730LL20120804'
p625
sg4
S'20120804\xc2\xa04:15PM UTC'
p626
sg6
S'Jordan Prince eyes inspiration first medal'
p627
sa(dp628
g2
S'http://www.reuters.com/article/2012/08/04/us-markets-korea-stocks-idUSBRE8730LI20120804'
p629
sg4
S'20120804\xc2\xa04:10PM UTC'
p630
sg6
S'Seoul shares fall after ECB holds back immediate action'
p631
sa(dp632
g2
S'http://www.reuters.com/article/2012/08/04/us-oly-fenc-fewtep-finals-day-idUSBRE8730LF20120804'
p633
sg4
S'20120804\xc2\xa04:08PM UTC'
p634
sg6
S'Fencing: China halt South Korean charge to win gold'
p635
sa(dp636
g2
S'http://www.reuters.com/article/2012/08/04/oly-watp-wpmpol-idUSL6E8J45RP20120804'
p637
sg4
S'20120804\xc2\xa04:07PM UTC'
p638
sg6
S"Olympics-Serbia beat U.S. in men's water polo Group B - results"
p639
sa(dp640
g2
S'http://www.reuters.com/article/2012/08/04/us-oly-weig-wlm94k-idUSBRE8730LD20120804'
p641
sg4
S'20120804\xc2\xa04:06PM UTC'
p642
sg6
S'Ilyin wins gold with world record lift'
p643
sa(dp644
g2
S'http://www.reuters.com/article/2012/08/04/us-golf-pga-woods-idUSBRE8730LB20120804'
p645
sg4
S'20120804\xc2\xa04:05PM UTC'
p646
sg6
S'Smiles for Tiger after being amazed by Grace'
p647
sa(dp648
g2
S'http://www.reuters.com/article/2012/08/04/us-oly-swim-swm4xm-idUSBRE8730L720120804'
p649
sg4
S'20120804\xc2\xa04:04PM UTC'
p650
sg6
S'Phelps goes out a winner as U.S. wins relay'
p651
sa(dp652
g2
S'http://www.reuters.com/article/2012/08/04/oly-swim-swm4xm-idUSL6E8J45RA20120804'
p653
sg4
S'20120804\xc2\xa04:03PM UTC'
p654
sg6
S"Olympics-Men's swimming 4 x 100m medley relay medal results"
p655
sa(dp656
g2
S'http://www.reuters.com/article/2012/08/04/idUS57598+04-Aug-2012+PRN20120804'
p657
sg4
S'20120804\xc2\xa04:00PM UTC'
p658
sg6
S'Following Is a Test Release'
p659
sa(dp660
g2
S'http://www.reuters.com/article/2012/08/04/idUS57582+04-Aug-2012+BW20120804'
p661
sg4
S'20120804\xc2\xa04:00PM UTC'
p662
sg6
S'PSLA Back-to-School Event Benefits Hundreds of Children in Watts Community'
p663
sa(dp664
g2
S'http://www.reuters.com/article/2012/08/04/us-storm-ernesto-idUSBRE8730B820120804'
p665
sg4
S'20120804\xc2\xa03:58PM UTC'
p666
sg6
S'Ernesto at sea in Caribbean; new storm forms in Atlantic'
p667
sa(dp668
g2
S'http://www.reuters.com/article/2012/08/04/oly-weig-wlm94k-idUSL6E8J45QO20120804'
p669
sg4
S'20120804\xc2\xa03:57PM UTC'
p670
sg6
S'Olympics-Weightlifting-Ilyin wins gold with world record lift'
p671
sa(dp672
g2
S'http://www.reuters.com/article/2012/08/04/oly-athl-atwdis-idUSL6E8J45R120120804'
p673
sg4
S'20120804\xc2\xa03:57PM UTC'
p674
sg6
S"Olympics-Women's discus throw medal results"
p675
sa(dp676
g2
S'http://www.reuters.com/article/2012/08/04/oly-tabt-ttwtem-idUSL6E8J45RF20120804'
p677
sg4
S'20120804\xc2\xa03:57PM UTC'
p678
sg6
S"Olympics-Women's table tennis team quarter-finals results"
p679
sa(dp680
g2
S'http://www.reuters.com/article/2012/08/04/oly-weig-wlm94k-idUSL6E8J45QY20120804'
p681
sg4
S'20120804\xc2\xa03:56PM UTC'
p682
sg6
S"Olympics-Men's weightlifting 94kg middle-heavyweight medal results"
p683
sa(dp684
g2
S'http://www.reuters.com/article/2012/08/04/oly-boxi-bxm49k-idUSL6E8J45R220120804'
p685
sg4
S'20120804\xc2\xa03:55PM UTC'
p686
sg6
S"Olympics-Men's boxing light flyweight last 16 results"
p687
sa(dp688
g2
S'http://www.reuters.com/article/2012/08/04/us-greece-funding-idUSBRE8730JU20120804'
p689
sg4
S'20120804\xc2\xa03:54PM UTC'
p690
sg6
S'Greece eyes T-bills to cover funding squeeze: minister'
p691
sa(dp692
g2
S'http://www.reuters.com/article/2012/08/04/oly-hock-howhky-idUSL6E8J45R020120804'
p693
sg4
S'20120804\xc2\xa03:52PM UTC'
p694
sg6
S"Olympics-New Zealand beat U.S. in women's hockey Pool B - results"
p695
sa(dp696
g2
S'http://www.reuters.com/article/2012/08/04/storm-ernesto-idUSL2E8J424Q20120804'
p697
sg4
S'20120804\xc2\xa03:52PM UTC'
p698
sg6
S'UPDATE 1-Ernesto at sea in Caribbean; new storm forms in Atlantic'
p699
sa(dp700
g2
S'http://www.reuters.com/article/2012/08/04/us-soccer-manchesterunited-jerseys-idUSBRE8730KV20120804'
p701
sg4
S'20120804\xc2\xa03:52PM UTC'
p702
sg6
S'Manchester United to get $559 million in GM shirt sponsor deal'
p703
sa(dp704
g2
S'http://www.reuters.com/article/2012/08/04/oly-swim-swm4xm-idUSL2E8J423S20120804'
p705
sg4
S'20120804\xc2\xa03:51PM UTC'
p706
sg6
S'UPDATE 1-Olympics-Swimming-Phelps goes out a winner as U.S. wins relay'
p707
sa(dp708
g2
S'http://www.reuters.com/article/2012/08/04/oly-athl-atwdis-idUSL4E8J405S20120804'
p709
sg4
S'20120804\xc2\xa03:48PM UTC'
p710
sg6
S"Olympics-Athletics-Croatia's Perkovic wins discus gold"
p711
sa(dp712
g2
S'http://www.reuters.com/article/2012/08/04/oly-cycl-ctwtpu-wrap-day-idUSL6E8J451S20120804'
p713
sg4
S'20120804\xc2\xa03:47PM UTC'
p714
sg6
S'UPDATE 4-Olympic-Cycling-British women romp to team pursuit gold'
p715
sa(dp716
g2
S'http://www.reuters.com/article/2012/08/04/soccer-manchesterunited-jerseys-idUSL2E8J42PP20120804'
p717
sg4
S'20120804\xc2\xa03:46PM UTC'
p718
sg6
S'Manchester United to get $559 mln in GM shirt sponsor deal'
p719
sa(dp720
g2
S'http://www.reuters.com/article/2012/08/04/oly-swim-swm4xm-idUSL6E8J44N320120804'
p721
sg4
S'20120804\xc2\xa03:43PM UTC'
p722
sg6
S"Olympics-Swimming-U.S. win men's 4x100m medley relay gold"
p723
sa(dp724
g2
S'http://www.reuters.com/article/2012/08/04/us-oly-hock-howhky-rounds-day-idUSBRE8730KQ20120804'
p725
sg4
S'20120804\xc2\xa03:43PM UTC'
p726
sg6
S'Hockey: Walsh back but British medal hopes suffer blow'
p727
sa(dp728
g2
S'http://www.reuters.com/article/2012/08/04/oly-fenc-fewtep-finals-day-idUSL2E8J40J620120804'
p729
sg4
S'20120804\xc2\xa03:41PM UTC'
p730
sg6
S'Olympics-fencing-China halt South Korean charge to win gold'
p731
sa(dp732
g2
S'http://www.reuters.com/article/2012/08/04/oly-athl-atw-idUSL6E8J45QC20120804'
p733
sg4
S'20120804\xc2\xa03:41PM UTC'
p734
sg6
S"Olympics-Women's athletics 400m semi-finals results"
p735
sa(dp736
g2
S'http://www.reuters.com/article/2012/08/04/oly-tenn-texdob-idUSL6E8J45QF20120804'
p737
sg4
S'20120804\xc2\xa03:39PM UTC'
p738
sg6
S'Olympics-Tennis mixed doubles semi-finals results'
p739
sa(dp740
g2
S'http://www.reuters.com/article/2012/08/04/oly-swim-sww4xm-idUSL6E8J45Q820120804'
p741
sg4
S'20120804\xc2\xa03:37PM UTC'
p742
sg6
S"Olympics-Women's swimming 4 x 100m medley relay medal results"
p743
sa(dp744
g2
S'http://www.reuters.com/article/2012/08/04/oly-hock-howhky-rounds-day-idUSL6E8J455C20120804'
p745
sg4
S'20120804\xc2\xa03:36PM UTC'
p746
sg6
S'Olympics-Hockey-Walsh back but British medal hopes suffer blow'
p747
sa(dp748
g2
S'http://www.reuters.com/article/2012/08/04/us-kvpharmaceutical-bankruptcy-idUSBRE8730KM20120804'
p749
sg4
S'20120804\xc2\xa03:33PM UTC'
p750
sg6
S'K-V Pharmaceutical files for bankruptcy protection'
p751
sa(dp752
g2
S'http://www.reuters.com/article/2012/08/04/us-oly-cycl-ctwtpu-day8-reed-idUSBRE8730KG20120804'
p753
sg4
S'20120804\xc2\xa03:32PM UTC'
p754
sg6
S'Cycling: Reed wins silver but barred from podium'
p755
sa(dp756
g2
S'http://www.reuters.com/article/2012/08/04/oly-fenc-fewtep-idUSL6E8J45M220120804'
p757
sg4
S'20120804\xc2\xa03:31PM UTC'
p758
sg6
S"Olympics-Women's fencing team epee gold medal match results"
p759
sa(dp760
g2
S'http://www.reuters.com/article/2012/08/04/kvpharmaceutical-bankruptcy-idUSL2E8J42DW20120804'
p761
sg4
S'20120804\xc2\xa03:30PM UTC'
p762
sg6
S'K-V Pharmaceutical files for bankruptcy protection'
p763
sa(dp764
g2
S'http://www.reuters.com/article/2012/08/04/idUS56020+04-Aug-2012+PRN20120804'
p765
sg4
S'20120804\xc2\xa03:30PM UTC'
p766
sg6
S'Following Is a Test Release'
p767
sa(dp768
g2
S'http://www.reuters.com/article/2012/08/04/oly-tenn-tewdob-idUSL6E8J45O020120804'
p769
sg4
S'20120804\xc2\xa03:28PM UTC'
p770
sg6
S"Olympics-Women's tennis doubles semi-finals results"
p771
sa(dp772
g2
S'http://www.reuters.com/article/2012/08/04/us-oly-swim-sww4xm-idUSBRE8730KC20120804'
p773
sg4
S'20120804\xc2\xa03:27PM UTC'
p774
sg6
S"Swimming: U.S. women's medley relay gold"
p775
sa(dp776
g2
S'http://www.reuters.com/article/2012/08/04/oly-cycl-ctwtpu-day8-reed-idUSL6E8J45GU20120804'
p777
sg4
S'20120804\xc2\xa03:26PM UTC'
p778
sg6
S'Olympics-Cycling-Reed wins silver but barred from podium'
p779
sa(dp780
g2
S'http://www.reuters.com/article/2012/08/04/oly-athl-atw-idUSL6E8J45GR20120804'
p781
sg4
S'20120804\xc2\xa03:26PM UTC'
p782
sg6
S"Olympics-Women's athletics 100m semi-finals results"
p783
sa(dp784
g2
S'http://www.reuters.com/article/2012/08/04/oly-swim-sww4xm-idUSL2E8J423R20120804'
p785
sg4
S'20120804\xc2\xa03:25PM UTC'
p786
sg6
S"UPDATE 1-Olympics-Swimming-U.S. women's medley relay gold"
p787
sa(dp788
g2
S'http://www.reuters.com/article/2012/08/04/entertainment-us-edinburgh-fringe-idUSBRE8730K820120804'
p789
sg4
S'20120804\xc2\xa03:24PM UTC'
p790
sg6
S'Anarchic Edinburgh Fringe swings into high gear'
p791
sa(dp792
g2
S'http://www.reuters.com/article/2012/08/04/us-oly-judo-juw79k-idUSBRE8730K320120804'
p793
sg4
S'20120804\xc2\xa03:23PM UTC'
p794
sg6
S"Judo: Cuba's Ortiz wins women's heavyweight category"
p795
sa(dp796
g2
S'http://www.reuters.com/article/2012/08/04/oly-swim-sww4xm-idUSL6E8J44J420120804'
p797
sg4
S'20120804\xc2\xa03:22PM UTC'
p798
sg6
S"Olympics-Swimming-U.S. wins women's 4x100m medley relay gold medal"
p799
sa(dp800
g2
S'http://www.reuters.com/article/2012/08/04/oly-athl-atm20w-idUSL6E8J457920120804'
p801
sg4
S'20120804\xc2\xa03:21PM UTC'
p802
sg6
S"UPDATE 1-Olympics-Athletics-China's Chen powers to 20km walk gold"
p803
sa(dp804
g2
S'http://www.reuters.com/article/2012/08/04/arts-edinburgh-fringe-idUSL4E8J406520120804'
p805
sg4
S'20120804\xc2\xa03:21PM UTC'
p806
sg6
S'Anarchic Edinburgh Fringe swings into high gear'
p807
sa(dp808
g2
S'http://www.reuters.com/article/2012/08/04/us-oly-tenn-temdob-idUSBRE8730JZ20120804'
p809
sg4
S'20120804\xc2\xa03:14PM UTC'
p810
sg6
S'Tennis: Bryan brothers reach summit with gold'
p811
sa(dp812
g2
S'http://www.reuters.com/article/2012/08/04/oly-tenn-temdob-idUSL6E8J457I20120804'
p813
sg4
S'20120804\xc2\xa03:13PM UTC'
p814
sg6
S'UPDATE 1-Olympics-Tennis-Bryan brothers reach summit with gold'
p815
sa(dp816
g2
S'http://www.reuters.com/article/2012/08/04/us-oly-swim-swm15f-idUSBRE8730JS20120804'
p817
sg4
S'20120804\xc2\xa03:09PM UTC'
p818
sg6
S'Swimming: Sun wins 1500m final'
p819
sa(dp820
g2
S'http://www.reuters.com/article/2012/08/04/oly-swim-swm15f-idUSL2E8J424V20120804'
p821
sg4
S'20120804\xc2\xa03:08PM UTC'
p822
sg6
S'UPDATE 1-Olympics-Swimming-Sun wins 1500m final'
p823
sa(dp824
g2
S'http://www.reuters.com/article/2012/08/04/oly-swim-swm15f-idUSL6E8J45GK20120804'
p825
sg4
S'20120804\xc2\xa03:07PM UTC'
p826
sg6
S"Olympics-Men's swimming 1500m freestyle medal results"
p827
sa(dp828
g2
S'http://www.reuters.com/article/2012/08/04/oly-cycl-ctmomn-idUSL6E8J45G220120804'
p829
sg4
S'20120804\xc2\xa03:01PM UTC'
p830
sg6
S"Olympics-Men's track cycling omnium elimination results"
p831
sa(dp832
g2
S'http://www.reuters.com/article/2012/08/04/idUS54525+04-Aug-2012+PRN20120804'
p833
sg4
S'20120804\xc2\xa03:00PM UTC'
p834
sg6
S'Following Is a Test Release'
p835
sa(dp836
g2
S'http://www.reuters.com/article/2012/08/04/us-mexico-mine-idUSBRE8730JQ20120804'
p837
sg4
S'20120804\xc2\xa02:59PM UTC'
p838
sg6
S'One rescued in Mexico mine explosion, others still missing'
p839
sa(dp840
g2
S'http://www.reuters.com/article/2012/08/04/oly-swim-swm15f-idUSL6E8J44EL20120804'
p841
sg4
S'20120804\xc2\xa02:58PM UTC'
p842
sg6
S"Olympics-Swimming-China's Sun wins men's 1500 freestyle gold"
p843
sa(dp844
g2
S'http://www.reuters.com/article/2012/08/04/us-oly-badm-wrap-day8-sportsmanship-idUSBRE8730JO20120804'
p845
sg4
S'20120804\xc2\xa02:55PM UTC'
p846
sg6
S"Badminton: No medals for sportsmanship in women's singles"
p847
sa(dp848
g2
S'http://www.reuters.com/article/2012/08/04/oly-voll-vomvbl-idUSL6E8J45FZ20120804'
p849
sg4
S'20120804\xc2\xa02:54PM UTC'
p850
sg6
S"Olympics-Men's volleyball Group B results"
p851
sa(dp852
g2
S'http://www.reuters.com/article/2012/08/04/us-oly-badm-wrap-day-idUSBRE8730J420120804'
p853
sg4
S'20120804\xc2\xa02:50PM UTC'
p854
sg6
S'Badminton: China shrug off scandal, win two golds'
p855
sa(dp856
g2
S'http://www.reuters.com/article/2012/08/04/oly-athl-atmh-idUSL6E8J45FW20120804'
p857
sg4
S'20120804\xc2\xa02:50PM UTC'
p858
sg6
S"Olympics-Men's athletics 400m hurdles semi-finals results"
p859
sa(dp860
g2
S'http://www.reuters.com/article/2012/08/04/us-oly-swim-sww50f-idUSBRE8730J820120804'
p861
sg4
S'20120804\xc2\xa02:50PM UTC'
p862
sg6
S'Swimming: Kromowidjojo wins 50m freestyle gold'
p863
sa(dp864
g2
S'http://www.reuters.com/article/2012/08/04/us-oly-hand-hbmhbl-rounds-day8-cro-idUSBRE8730JC20120804'
p865
sg4
S'20120804\xc2\xa02:48PM UTC'
p866
sg6
S'Handball: Croatian "nightmare" for Euro winners Denmark'
p867
sa(dp868
g2
S'http://www.reuters.com/article/2012/08/04/oly-swim-sww50f-idUSL6E8J45FY20120804'
p869
sg4
S'20120804\xc2\xa02:48PM UTC'
p870
sg6
S"Olympics-Women's swimming 50m freestyle medal results"
p871
sa(dp872
g2
S'http://www.reuters.com/article/2012/08/04/oly-watp-wpmpol-idUSL6E8J45FT20120804'
p873
sg4
S'20120804\xc2\xa02:45PM UTC'
p874
sg6
S"Olympics-Hungary beat Britain in men's water polo Group B - results"
p875
sa(dp876
g2
S'http://www.reuters.com/article/2012/08/04/oly-badm-wrap-day8-sportsmanship-idUSL4E8J405T20120804'
p877
sg4
S'20120804\xc2\xa02:43PM UTC'
p878
sg6
S"Olympics-Badminton-No medals for sportsmanship in women's singles"
p879
sa(dp880
g2
S'http://www.reuters.com/article/2012/08/04/oly-swim-sww50f-idUSL2E8J420B20120804'
p881
sg4
S'20120804\xc2\xa02:40PM UTC'
p882
sg6
S'UPDATE 1-Olympics-Swimming-Kromowidjojo wins 50m freestyle gold'
p883
sa(dp884
g2
S'http://www.reuters.com/article/2012/08/04/oly-hand-hbmhbl-rounds-day8-cro-idUSL4E8J405C20120804'
p885
sg4
S'20120804\xc2\xa02:39PM UTC'
p886
sg6
S'Olympics-Handball-Croatian "nightmare" for Euro winners Denmark'
p887
sa(dp888
g2
S'http://www.reuters.com/article/2012/08/04/oly-badm-wrap-day-idUSL6E8J44A420120804'
p889
sg4
S'20120804\xc2\xa02:38PM UTC'
p890
sg6
S'WRAPUP 1-Olympics-Badminton-China shrug off scandal, win two golds'
p891
sa(dp892
g2
S'http://www.reuters.com/article/2012/08/04/oly-swim-sww50f-idUSL6E8J3N2P20120804'
p893
sg4
S'20120804\xc2\xa02:37PM UTC'
p894
sg6
S"Olympics-Swimming-Kromowidjojo wins women's 50m freestyle gold"
p895
sa(dp896
g2
S'http://www.reuters.com/article/2012/08/04/us-oly-cycl-ctmomn-wrap-day-idUSBRE8730IX20120804'
p897
sg4
S'20120804\xc2\xa02:34PM UTC'
p898
sg6
S'Coquard grabs halftime omnium lead'
p899
sa(dp900
g2
S'http://www.reuters.com/article/2012/08/04/us-oly-voll-bvvol-wrap-day-idUSBRE8730IS20120804'
p901
sg4
S'20120804\xc2\xa02:30PM UTC'
p902
sg6
S'Beach volleyball: Lion King fails to roar'
p903
sa(dp904
g2
S'http://www.reuters.com/article/2012/08/04/idUS53128+04-Aug-2012+PRN20120804'
p905
sg4
S'20120804\xc2\xa02:30PM UTC'
p906
sg6
S'Foresters, KaBOOM! & Volunteers Revitalize Bensenville  Community with New Playground'
p907
sa(dp908
g2
S'http://www.reuters.com/article/2012/08/04/idUS53120+04-Aug-2012+PRN20120804'
p909
sg4
S'20120804\xc2\xa02:30PM UTC'
p910
sg6
S'Following Is a Test Release'
p911
sa(dp912
g2
S'http://www.reuters.com/article/2012/08/04/us-oly-dope-day-idUSBRE8730IO20120804'
p913
sg4
S'20120804\xc2\xa02:27PM UTC'
p914
sg6
S'Doping back in spotlight with new cases, past offenders'
p915
sa(dp916
g2
S'http://www.reuters.com/article/2012/08/04/oly-cycl-ctmomn-wrap-day-idUSL6E8J457Q20120804'
p917
sg4
S'20120804\xc2\xa02:26PM UTC'
p918
sg6
S'UPDATE 1-Olympics-Cycling-Coquard grabs halftime omnium lead'
p919
sa(dp920
g2
S'http://www.reuters.com/article/2012/08/04/us-oly-tenn-tewsin-idUSBRE87309J20120804'
p921
sg4
S'20120804\xc2\xa02:26PM UTC'
p922
sg6
S'Tennis: Serena Williams storms to golden slam'
p923
sa(dp924
g2
S'http://www.reuters.com/article/2012/08/04/us-oly-bask-bkmbbl-idUSBRE8730EP20120804'
p925
sg4
S'20120804\xc2\xa02:24PM UTC'
p926
sg6
S'Basketball: U.S. battle to beat Lithuania'
p927
sa(dp928
g2
S'http://www.reuters.com/article/2012/08/04/oly-dope-day-idUSL6E8J450R20120804'
p929
sg4
S'20120804\xc2\xa02:24PM UTC'
p930
sg6
S'UPDATE 4-Olympics-Doping back in spotlight with new cases, past offenders'
p931
sa(dp932
g2
S'http://www.reuters.com/article/2012/08/04/oly-bask-bkmbbl-idUSL6E8J450M20120804'
p933
sg4
S'20120804\xc2\xa02:22PM UTC'
p934
sg6
S'UPDATE 1-Olympics-Basketball-U.S. battle to beat Lithuania'
p935
sa(dp936
g2
S'http://www.reuters.com/article/2012/08/04/oly-voll-bvwvol-idUSL6E8J458520120804'
p937
sg4
S'20120804\xc2\xa02:21PM UTC'
p938
sg6
S"Olympics-Women's beach volleyball last 16 results"
p939
sa(dp940
g2
S'http://www.reuters.com/article/2012/08/04/oly-fenc-fewtep-idUSL6E8J458820120804'
p941
sg4
S'20120804\xc2\xa02:17PM UTC'
p942
sg6
S"Olympics-Women's fencing team epee bronze medal match results"
p943
sa(dp944
g2
S'http://www.reuters.com/article/2012/08/04/oly-boxi-bxm49k-last16-day-idUSL6E8J44U720120804'
p945
sg4
S'20120804\xc2\xa02:16PM UTC'
p946
sg6
S"REFILE-Olympics-Boxing-China's Zou negotiates tricky opener"
p947
sa(dp948
g2
S'http://www.reuters.com/article/2012/08/04/oly-boxi-bxm64k-last16-day-idUSL6E8J44H220120804'
p949
sg4
S'20120804\xc2\xa02:16PM UTC'
p950
sg6
S'REFILE-Olympics-Boxing-Brazil loses gold medal hope Lopes'
p951
sa(dp952
g2
S'http://www.reuters.com/article/2012/08/04/oly-tenn-tewsin-idUSL6E8J451920120804'
p953
sg4
S'20120804\xc2\xa02:14PM UTC'
p954
sg6
S'UPDATE 1-Olympics-Tennis-Serena Williams storms to golden slam'
p955
sa(dp956
g2
S'http://www.reuters.com/article/2012/08/04/us-sweden-farright-idUSBRE8730IF20120804'
p957
sg4
S'20120804\xc2\xa02:13PM UTC'
p958
sg6
S'Sweden "counter-jihad" rally outnumbered by anti-racists'
p959
sa(dp960
g2
S'http://www.reuters.com/article/2012/08/04/oly-socc-fbmsoc-idUSL6E8J457J20120804'
p961
sg4
S'20120804\xc2\xa02:09PM UTC'
p962
sg6
S"Olympics-Brazil beat Honduras in men's soccer quarter-finals - results"
p963
sa(dp964
g2
S'http://www.reuters.com/article/2012/08/04/us-oly-cycl-ctwtpu-wrap-day-idUSBRE8730GV20120804'
p965
sg4
S'20120804\xc2\xa02:08PM UTC'
p966
sg6
S'Cycling: British women romp to team pursuit gold'
p967
sa(dp968
g2
S'http://www.reuters.com/article/2012/08/04/us-oly-gymn-gtwtrp-terminology-idUSBRE8730I420120804'
p969
sg4
S'20120804\xc2\xa02:06PM UTC'
p970
sg6
S'Getting "randy" on the trampoline'
p971
sa(dp972
g2
S'http://www.reuters.com/article/2012/08/04/oly-athl-atm20w-idUSL6E8J457C20120804'
p973
sg4
S'20120804\xc2\xa02:04PM UTC'
p974
sg6
S"Olympics-Men's 20km walk medal results"
p975
sa(dp976
g2
S'http://www.reuters.com/article/2012/08/04/us-oly-tria-trwtri-day8-britons-idUSBRE8730I120120804'
p977
sg4
S'20120804\xc2\xa02:04PM UTC'
p978
sg6
S"Triathlon: Jenkins can't deliver as British plans fail"
p979
sa(dp980
g2
S'http://www.reuters.com/article/2012/08/04/oly-gymn-gtwtrp-terminology-idUSL6E8J3Q0B20120804'
p981
sg4
S'20120804\xc2\xa02:03PM UTC'
p982
sg6
S'Olympics-Getting "randy" on the trampoline'
p983
sa(dp984
g2
S'http://www.reuters.com/article/2012/08/04/oly-tria-trwtri-day8-britons-idUSL6E8J457320120804'
p985
sg4
S'20120804\xc2\xa02:01PM UTC'
p986
sg6
S"Olympics-Triathlon-Jenkins can't deliver as British plans fail"
p987
sa(dp988
g2
S'http://www.reuters.com/article/2012/08/04/idUS51758+04-Aug-2012+PRN20120804'
p989
sg4
S'20120804\xc2\xa02:00PM UTC'
p990
sg6
S'Following Is a Test Release'
p991
sa(dp992
g2
S'http://www.reuters.com/article/2012/08/04/us-oly-legacy-f1-day-idUSBRE8730HU20120804'
p993
sg4
S'20120804\xc2\xa01:53PM UTC'
p994
sg6
S'Ecclestone says Olympic Park F1 would draw big crowds'
p995
sa(dp996
g2
S'http://www.reuters.com/article/2012/08/04/oly-legacy-f1-day-idUSL6E8J450V20120804'
p997
sg4
S'20120804\xc2\xa01:50PM UTC'
p998
sg6
S'Olympics-Ecclestone says Olympic Park F1 would draw big crowds'
p999
sa(dp1000
g2
S'http://www.reuters.com/article/2012/08/04/us-oly-eque-eqxijp-wrap-day-idUSBRE8730HQ20120804'
p1001
sg4
S'20120804\xc2\xa01:50PM UTC'
p1002
sg6
S'Equestrian: First jumping qualifier variable as UK weather'
p1003
sa(dp1004
g2
S'http://www.reuters.com/article/2012/08/04/idUS51353+04-Aug-2012+BW20120804'
p1005
sg4
S'20120804\xc2\xa01:47PM UTC'
p1006
sg6
S'Jack Canfield Addresses Kaplan University Online Graduates at Live Commencement in Chicago'
p1007
sa(dp1008
g2
S'http://www.reuters.com/article/2012/08/04/oly-eque-eqxijp-wrap-day-idUSL6E8J44NJ20120804'
p1009
sg4
S'20120804\xc2\xa01:45PM UTC'
p1010
sg6
S'Olympics-Equestrian-First jumping qualifier variable as UK weather'
p1011
sa(dp1012
g2
S'http://www.reuters.com/article/2012/08/04/us-oly-business-day-idUSBRE8730HJ20120804'
p1013
sg4
S'20120804\xc2\xa01:43PM UTC'
p1014
sg6
S'Unhappy London firms need "long-term view"'
p1015
sa(dp1016
g2
S'http://www.reuters.com/article/2012/08/04/us-oly-tabt-ttwtem-jap-day-idUSBRE8730HB20120804'
p1017
sg4
S'20120804\xc2\xa01:40PM UTC'
p1018
sg6
S'Table tennis: Japan riding high for first ever medal'
p1019
sa(dp1020
g2
S'http://www.reuters.com/article/2012/08/04/oly-bask-bkmbbl-idUSL6E8J455E20120804'
p1021
sg4
S'20120804\xc2\xa01:39PM UTC'
p1022
sg6
S"Olympics-Brazil beat China in men's basketball Group B - results"
p1023
sa(dp1024
g2
S'http://www.reuters.com/article/2012/08/04/oly-business-day-idUSL6E8J44Q820120804'
p1025
sg4
S'20120804\xc2\xa01:38PM UTC'
p1026
sg6
S'INTERVIEW-Olympics-Unhappy London firms need "long-term view"'
p1027
sa(dp1028
g2
S'http://www.reuters.com/article/2012/08/04/us-oly-athl-atm20w-idUSBRE8730H920120804'
p1029
sg4
S'20120804\xc2\xa01:37PM UTC'
p1030
sg6
S"Athletics: China's Chen wins men's 20km race walk"
p1031
sa(dp1032
g2
S'http://www.reuters.com/article/2012/08/04/us-serbia-cbank-idUSBRE8730F020120804'
p1033
sg4
S'20120804\xc2\xa01:36PM UTC'
p1034
sg6
S'Serb government tightens grip on central bank despite EU, IMF warning'
p1035
sa(dp1036
g2
S'http://www.reuters.com/article/2012/08/04/oly-tabt-ttwtem-jap-day-idUSL6E8J44YX20120804'
p1037
sg4
S'20120804\xc2\xa01:35PM UTC'
p1038
sg6
S'Olympics-Table tennis-Japan riding high for first ever medal'
p1039
sa(dp1040
g2
S'http://www.reuters.com/article/2012/08/04/us-oly-yach-wrap-day-idUSBRE8730H320120804'
p1041
sg4
S'20120804\xc2\xa01:34PM UTC'
p1042
sg6
S'Sailing: Laser sailor guarantees Cyprus first medal'
p1043
sa(dp1044
g2
S'http://www.reuters.com/article/2012/08/04/oly-athl-atm20w-idUSL6E8J42HS20120804'
p1045
sg4
S'20120804\xc2\xa01:32PM UTC'
p1046
sg6
S"Olympics-Athletics-China's Chen wins men's 20km race walk"
p1047
sa(dp1048
g2
S'http://www.reuters.com/article/2012/08/04/idUS50609+04-Aug-2012+PRN20120804'
p1049
sg4
S'20120804\xc2\xa01:30PM UTC'
p1050
sg6
S'Following Is a Test Release'
p1051
sa(dp1052
g2
S'http://www.reuters.com/article/2012/08/04/oly-cycl-ctwtpu-idUSL6E8J453J20120804'
p1053
sg4
S'20120804\xc2\xa01:29PM UTC'
p1054
sg6
S"Olympics-Women's track cycling team pursuit gold medal race results"
p1055
sa(dp1056
g2
S'http://www.reuters.com/article/2012/08/04/us-usa-sands-probe-idUSBRE8730GZ20120804'
p1057
sg4
S'20120804\xc2\xa01:28PM UTC'
p1058
sg6
S'Las Vegas Sands target of U.S. money-laundering probe, WSJ says'
p1059
sa(dp1060
g2
S'http://www.reuters.com/article/2012/08/04/oly-yach-wrap-day-idUSL6E8J44S820120804'
p1061
sg4
S'20120804\xc2\xa01:27PM UTC'
p1062
sg6
S'WRAPUP 1-Olympics-Sailing-Laser sailor guarantees Cyprus first medal'
p1063
sa(dp1064
g2
S'http://www.reuters.com/article/2012/08/04/oly-cycl-ctwtpu-idUSL6E8J451K20120804'
p1065
sg4
S'20120804\xc2\xa01:27PM UTC'
p1066
sg6
S"Olympics-Women's track cycling team pursuit bronze medal race results"
p1067
sa(dp1068
g2
S'http://www.reuters.com/article/2012/08/04/usa-sands-probe-idUSL2E8J40N820120804'
p1069
sg4
S'20120804\xc2\xa01:25PM UTC'
p1070
sg6
S'Las Vegas Sands target of U.S. money-laundering probe, WSJ says'
p1071
sa(dp1072
g2
S'http://www.reuters.com/article/2012/08/04/oly-cycl-ctmomn-idUSL6E8J450N20120804'
p1073
sg4
S'20120804\xc2\xa01:23PM UTC'
p1074
sg6
S"Olympics-Men's track cycling omnium points race results"
p1075
sa(dp1076
g2
S'http://www.reuters.com/article/2012/08/04/us-oly-gymn-gtwtrp-idUSBRE8730G020120804'
p1077
sg4
S'20120804\xc2\xa01:15PM UTC'
p1078
sg6
S"MacLennan wins Canada's first gold in trampoline"
p1079
sa(dp1080
g2
S'http://www.reuters.com/article/2012/08/04/oly-cycl-ctwtpu-wrap-day-idUSL6E8J451G20120804'
p1081
sg4
S'20120804\xc2\xa01:15PM UTC'
p1082
sg6
S'UPDATE 1-Olympic-Cycling-British women win gold in team pursuit'
p1083
sa(dp1084
g2
S'http://www.reuters.com/article/2012/08/04/oly-gymn-gtwtrp-idUSL6E8J44SB20120804'
p1085
sg4
S'20120804\xc2\xa01:14PM UTC'
p1086
sg6
S"UPDATE 4-Olympics-Trampoline-MacLennan wins Canada's first gold"
p1087
sa(dp1088
g2
S'http://www.reuters.com/article/2012/08/04/oly-cycl-ctwtpu-idUSL6E8J451F20120804'
p1089
sg4
S'20120804\xc2\xa01:13PM UTC'
p1090
sg6
S"Olympics-Women's track cycling team pursuit results"
p1091
sa(dp1092
g2
S'http://www.reuters.com/article/2012/08/04/oly-cycl-ctwtpu-wrap-day-idUSL6E8J44H520120804'
p1093
sg4
S'20120804\xc2\xa01:11PM UTC'
p1094
sg6
S"Olympics-Cycling-Britain win women's team pursuit in record time"
p1095
sa(dp1096
g2
S'http://www.reuters.com/article/2012/08/04/us-oly-cycl-ctmspr-wrap-day-idUSBRE8730GS20120804'
p1097
sg4
S'20120804\xc2\xa01:10PM UTC'
p1098
sg6
S'Cycling: Bauge and Kenny finally get in action'
p1099
sa(dp1100
g2
S'http://www.reuters.com/article/2012/08/04/oly-cycl-ctwtpu-idUSL6E8J450T20120804'
p1101
sg4
S'20120804\xc2\xa01:10PM UTC'
p1102
sg6
S"Olympics-Women's track cycling team pursuit results"
p1103
sa(dp1104
g2
S'http://www.reuters.com/article/2012/08/04/oly-cycl-ctmspr-rprnd2-day-idUSL6E8J451020120804'
p1105
sg4
S'20120804\xc2\xa01:09PM UTC'
p1106
sg6
S"Olympics-Men's track cycling sprint repechage second round results"
p1107
sa(dp1108
g2
S'http://www.reuters.com/article/2012/08/04/us-oly-coe-bolt-day-idUSBRE8730GO20120804'
p1109
sg4
S'20120804\xc2\xa01:08PM UTC'
p1110
sg6
S'Athletics: Bolt favorite to retain 100-meter crown - Coe'
p1111
sa(dp1112
g2
S'http://www.reuters.com/article/2012/08/04/us-oly-rowi-day8-britain-idUSBRE8730GK20120804'
p1113
sg4
S'20120804\xc2\xa01:06PM UTC'
p1114
sg6
S'British rowing shines on home regatta'
p1115
sa(dp1116
g2
S'http://www.reuters.com/article/2012/08/04/oly-hand-hbmhbl-idUSL6E8J44Z120120804'
p1117
sg4
S'20120804\xc2\xa01:04PM UTC'
p1118
sg6
S"Olympics-Croatia beat Denmark in men's handball Group B - results"
p1119
sa(dp1120
g2
S'http://www.reuters.com/article/2012/08/04/oly-voll-bvmvol-idUSL6E8J44YZ20120804'
p1121
sg4
S'20120804\xc2\xa01:04PM UTC'
p1122
sg6
S"Olympics-Men's beach volleyball last 16 results"
p1123
sa(dp1124
g2
S'http://www.reuters.com/article/2012/08/04/oly-cycl-ctmspr-wrap-day-idUSL6E8J41YI20120804'
p1125
sg4
S'20120804\xc2\xa01:03PM UTC'
p1126
sg6
S'UPDATE 2-Olympics-Cycling-Bauge and Kenny finally get in action'
p1127
sa(dp1128
g2
S'http://www.reuters.com/article/2012/08/04/oly-coe-bolt-day-idUSL6E8J44UF20120804'
p1129
sg4
S'20120804\xc2\xa01:03PM UTC'
p1130
sg6
S'Olympics-Athletics-Bolt favourite to retain 100m crown - Coe'
p1131
sa(dp1132
g2
S'http://www.reuters.com/article/2012/08/04/us-oly-tenn-temdob-idUSBRE8730G920120804'
p1133
sg4
S'20120804\xc2\xa01:01PM UTC'
p1134
sg6
S"America's Bryan brothers win men's doubles gold"
p1135
sa(dp1136
g2
S'http://www.reuters.com/article/2012/08/04/oly-rowi-day8-britain-idUSL6E8J449V20120804'
p1137
sg4
S'20120804\xc2\xa01:01PM UTC'
p1138
sg6
S'Olympics-Rowing-British rowing shines on home regatta'
p1139
sa(dp1140
g2
S'http://www.reuters.com/article/2012/08/04/idUS49545+04-Aug-2012+PRN20120804'
p1141
sg4
S'20120804\xc2\xa01:00PM UTC'
p1142
sg6
S'Following Is a Test Release'
p1143
sa(dp1144
g2
S'http://www.reuters.com/article/2012/08/04/us-oly-boxi-bxm49k-last16-day-idUSBRE8730GB20120804'
p1145
sg4
S'20120804\xc2\xa012:50PM UTC'
p1146
sg6
S"China's Zoo negotiates tricky opening to defense"
p1147
sa(dp1148
g2
S'http://www.reuters.com/article/2012/08/04/oly-tenn-temdob-idUSL6E8J44WK20120804'
p1149
sg4
S'20120804\xc2\xa012:48PM UTC'
p1150
sg6
S"Olympics-Men's doubles tennis gold medal match results"
p1151
sa(dp1152
g2
S'http://www.reuters.com/article/2012/08/04/us-kenya-clinton-idUSBRE87308620120804'
p1153
sg4
S'20120804\xc2\xa012:47PM UTC'
p1154
sg6
S'Clinton warns Kenya on cost of election unrest'
p1155
sa(dp1156
g2
S'http://www.reuters.com/article/2012/08/04/oly-yach-saw-idUSL6E8J44W320120804'
p1157
sg4
S'20120804\xc2\xa012:45PM UTC'
p1158
sg6
S"Olympics-Women's sailing 470 opening series Race 4 results"
p1159
sa(dp1160
g2
S'http://www.reuters.com/article/2012/08/04/kenya-clinton-idUSL6E8J44JB20120804'
p1161
sg4
S'20120804\xc2\xa012:43PM UTC'
p1162
sg6
S'UPDATE 1-Clinton warns Kenya on cost of election unrest'
p1163
sa(dp1164
g2
S'http://www.reuters.com/article/2012/08/04/oly-tenn-temdob-idUSL6E8J44W920120804'
p1165
sg4
S'20120804\xc2\xa012:42PM UTC'
p1166
sg6
S"Olympics-Tennis-America's Bryan brothers win men's doubles gold"
p1167
sa(dp1168
g2
S'http://www.reuters.com/article/2012/08/04/oly-tenn-texdob-idUSL6E8J44WE20120804'
p1169
sg4
S'20120804\xc2\xa012:41PM UTC'
p1170
sg6
S'Olympics-Tennis mixed doubles semi-finals results'
p1171
sa(dp1172
g2
S'http://www.reuters.com/article/2012/08/04/us-oly-tenn-day8-flag-idUSBRE8730G420120804'
p1173
sg4
S'20120804\xc2\xa012:39PM UTC'
p1174
sg6
S'Wind whisks away U.S. flag during ceremony'
p1175
sa(dp1176
g2
S'http://www.reuters.com/article/2012/08/04/oly-yach-sam-idUSL6E8J44UQ20120804'
p1177
sg4
S'20120804\xc2\xa012:39PM UTC'
p1178
sg6
S"Olympics-Men's sailing 470 opening series Race 6 results"
p1179
sa(dp1180
g2
S'http://www.reuters.com/article/2012/08/04/oly-hock-howhky-idUSL6E8J44W620120804'
p1181
sg4
S'20120804\xc2\xa012:39PM UTC'
p1182
sg6
S"Olympics-China beat Britain in women's hockey Pool A - results"
p1183
sa(dp1184
g2
S'http://www.reuters.com/article/2012/08/04/oly-cycl-ctmspr-last16-day-idUSL6E8J44UG20120804'
p1185
sg4
S'20120804\xc2\xa012:39PM UTC'
p1186
sg6
S"Olympics-Men's track cycling sprint last 16 results"
p1187
sa(dp1188
g2
S'http://www.reuters.com/article/2012/08/04/oly-wrap-day-idUSL6E8J3PA720120804'
p1189
sg4
S'20120804\xc2\xa012:34PM UTC'
p1190
sg6
S'WRAPUP 5-Olympics-Bolt struts into Games on "gold rush" day'
p1191
sa(dp1192
g2
S'http://www.reuters.com/article/2012/08/04/oly-tenn-day8-flag-idUSL6E8J44MM20120804'
p1193
sg4
S'20120804\xc2\xa012:34PM UTC'
p1194
sg6
S'Olympics-Tennis-Wind whisks away U.S. flag during ceremony'
p1195
sa(dp1196
g2
S'http://www.reuters.com/article/2012/08/04/us-oly-shoo-shwtra-idUSBRE8730FW20120804'
p1197
sg4
S'20120804\xc2\xa012:31PM UTC'
p1198
sg6
S'Shooting: Italian policewoman pockets trap gold'
p1199
sa(dp1200
g2
S'http://www.reuters.com/article/2012/08/04/oly-yach-sawel-idUSL6E8J44U620120804'
p1201
sg4
S'20120804\xc2\xa012:31PM UTC'
p1202
sg6
S"Olympics-Women's sailing Elliott 6m round robin results"
p1203
sa(dp1204
g2
S'http://www.reuters.com/article/2012/08/04/idUS47451+04-Aug-2012+PRN20120804'
p1205
sg4
S'20120804\xc2\xa012:30PM UTC'
p1206
sg6
S'Following Is a Test Release'
p1207
sa(dp1208
g2
S'http://www.reuters.com/article/2012/08/04/oly-badm-bdwdob-idUSL6E8J44UK20120804'
p1209
sg4
S'20120804\xc2\xa012:30PM UTC'
p1210
sg6
S"Olympics-Women's badminton doubles gold medal match results"
p1211
sa(dp1212
g2
S'http://www.reuters.com/article/2012/08/04/idUS47438+04-Aug-2012+PRN20120804'
p1213
sg4
S'20120804\xc2\xa012:30PM UTC'
p1214
sg6
S'Law Office of Brodsky & Smith, LLC Announces Investigation of Blackwater Midstream Corporation'
p1215
sa(dp1216
g2
S'http://www.reuters.com/article/2012/08/04/oly-yach-sam-idUSL6E8J44UI20120804'
p1217
sg4
S'20120804\xc2\xa012:28PM UTC'
p1218
sg6
S"Olympics-Men's sailing 470 opening series Race 6 results"
p1219
sa(dp1220
g2
S'http://www.reuters.com/article/2012/08/04/oly-shoo-shwtra-idUSL6E8J44H120120804'
p1221
sg4
S'20120804\xc2\xa012:28PM UTC'
p1222
sg6
S'UPDATE 2-Olympics-Shooting-Italian policewoman pockets trap gold'
p1223
sa(dp1224
g2
S'http://www.reuters.com/article/2012/08/04/us-sudan-southsudan-idUSBRE87300520120804'
p1225
sg4
S'20120804\xc2\xa012:27PM UTC'
p1226
sg6
S'Sudan, South Sudan reach oil deal, will hold border talks'
p1227
sa(dp1228
g2
S'http://www.reuters.com/article/2012/08/04/sudan-southsudan-idUSL6E8J44JC20120804'
p1229
sg4
S'20120804\xc2\xa012:26PM UTC'
p1230
sg6
S'UPDATE 5-Sudan, S.Sudan reach oil deal, will hold border talks'
p1231
sa(dp1232
g2
S'http://www.reuters.com/article/2012/08/04/oly-tenn-texdob-idUSL6E8J44U220120804'
p1233
sg4
S'20120804\xc2\xa012:25PM UTC'
p1234
sg6
S'Olympics-Tennis mixed doubles quarter-finals results'
p1235
sa(dp1236
g2
S'http://www.reuters.com/article/2012/08/04/us-oly-socc-wrap-day-idUSBRE8730FU20120804'
p1237
sg4
S'20120804\xc2\xa012:24PM UTC'
p1238
sg6
S'Soccer: Mexico win thriller to set up Japan semi-final'
p1239
sa(dp1240
g2
S'http://www.reuters.com/article/2012/08/04/oly-socc-wrap-day-idUSL4E8J404X20120804'
p1241
sg4
S'20120804\xc2\xa012:21PM UTC'
p1242
sg6
S'Olympics-Soccer-Mexico win thriller to set up Japan semi-final'
p1243
sa(dp1244
g2
S'http://www.reuters.com/article/2012/08/04/us-oly-dope-day-idUSBRE8730FL20120804'
p1245
sg4
S'20120804\xc2\xa012:20PM UTC'
p1246
sg6
S'Doping back in spotlight with new cases, past offenders'
p1247
sa(dp1248
g2
S'http://www.reuters.com/article/2012/08/04/oly-socc-fbmsoc-idUSL6E8J44UA20120804'
p1249
sg4
S'20120804\xc2\xa012:19PM UTC'
p1250
sg6
S"Olympics-Mexico beat Senegal in men's soccer quarter-finals - results"
p1251
sa(dp1252
g2
S'http://www.reuters.com/article/2012/08/04/oly-watp-wpmpol-idUSL6E8J44TE20120804'
p1253
sg4
S'20120804\xc2\xa012:17PM UTC'
p1254
sg6
S"Olympics-Italy beat Kazakhstan in men's water polo Group A - results"
p1255
sa(dp1256
g2
S'http://www.reuters.com/article/2012/08/04/oly-dope-day-idUSL6E8J42GM20120804'
p1257
sg4
S'20120804\xc2\xa012:16PM UTC'
p1258
sg6
S'UPDATE 3-Olympics-Doping back in spotlight with new cases, past offenders'
p1259
sa(dp1260
g2
S'http://www.reuters.com/article/2012/08/04/oly-boxi-bxm81k-idUSL6E8J44TI20120804'
p1261
sg4
S'20120804\xc2\xa012:15PM UTC'
p1262
sg6
S"Olympics-Men's boxing light heavyweight last 16 results"
p1263
sa(dp1264
g2
S'http://www.reuters.com/article/2012/08/04/oly-cycl-ctwtpu-rnd1-day-idUSL6E8J44SW20120804'
p1265
sg4
S'20120804\xc2\xa012:13PM UTC'
p1266
sg6
S"Olympics-Women's track cycling team pursuit first round results"
p1267
sa(dp1268
g2
S'http://www.reuters.com/article/2012/08/04/oly-voll-vomvbl-idUSL6E8J44TP20120804'
p1269
sg4
S'20120804\xc2\xa012:12PM UTC'
p1270
sg6
S"Olympics-Italy beat Australia in men's volleyball Group A - results"
p1271
sa(dp1272
g2
S'http://www.reuters.com/article/2012/08/04/idUS46578+04-Aug-2012+MW20120804'
p1273
sg4
S'20120804\xc2\xa012:12PM UTC'
p1274
sg6
S' Holiday Systems International CEO Craig Morganson Speaks Regarding U.S./Mexico Travel and Tourism'
p1275
sa(dp1276
g2
S'http://www.reuters.com/article/2012/08/04/us-oly-badm-bdwdob-idUSBRE8730FF20120804'
p1277
sg4
S'20120804\xc2\xa012:12PM UTC'
p1278
sg6
S"Badminton: China beat Japan to win women's doubles gold"
p1279
sa(dp1280
g2
S'http://www.reuters.com/article/2012/08/04/us-oly-eque-syria-day-idUSBRE8730FC20120804'
p1281
sg4
S'20120804\xc2\xa012:10PM UTC'
p1282
sg6
S'Equestrian: Syrian rider says Olympic effort for "all Syrians"'
p1283
sa(dp1284
g2
S'http://www.reuters.com/article/2012/08/04/oly-yach-sawrsx-idUSL6E8J432F20120804'
p1285
sg4
S'20120804\xc2\xa012:10PM UTC'
p1286
sg6
S"UPDATE 1-Olympics-Women's sailing RS-X Race 8 results"
p1287
sa(dp1288
g2
S'http://www.reuters.com/article/2012/08/04/oly-badm-bdwdob-idUSL4E8J405820120804'
p1289
sg4
S'20120804\xc2\xa012:09PM UTC'
p1290
sg6
S"Olympics-Badminton-China beat Japan to win women's doubles gold"
p1291
sa(dp1292
g2
S'http://www.reuters.com/article/2012/08/04/oly-eque-syria-day-idUSL6E8J44SM20120804'
p1293
sg4
S'20120804\xc2\xa012:08PM UTC'
p1294
sg6
S'UPDATE 1-Olympics-Equestrian-Syrian rider says Olympic effort for "all Syrians"'
p1295
sa(dp1296
g2
S'http://www.reuters.com/article/2012/08/04/us-oly-badm-bdwsin-idUSBRE8730F520120804'
p1297
sg4
S'20120804\xc2\xa012:00PM UTC'
p1298
sg6
S'Badminton: Li wins all-China battle for gold'
p1299
sa(dp1300
g2
S'http://www.reuters.com/article/2012/08/04/idUS45969+04-Aug-2012+PRN20120804'
p1301
sg4
S'20120804\xc2\xa012:00PM UTC'
p1302
sg6
S'Following Is a Test Release'
p1303
sa(dp1304
g2
S'http://www.reuters.com/article/2012/08/04/idUS45921+04-Aug-2012+MW20120804'
p1305
sg4
S'20120804\xc2\xa011:59AM UTC'
p1306
sg6
S' Tar Sands Healing Walk: More Than 250 First Nations and Allies From Across North America Gather in Alberta to Raise Awareness'
p1307
sa(dp1308
g2
S'http://www.reuters.com/article/2012/08/04/oly-badm-bdwsin-idUSL6E8J44H920120804'
p1309
sg4
S'20120804\xc2\xa011:58AM UTC'
p1310
sg6
S'UPDATE 1-Olympics-Badminton-Li wins all-China battle for gold'
p1311
sa(dp1312
g2
S'http://www.reuters.com/article/2012/08/04/us-oly-rowi-rom4-ginn-idUSBRE8730F220120804'
p1313
sg4
S'20120804\xc2\xa011:58AM UTC'
p1314
sg6
S'Rowing: Ginn considers future as regatta ends in tears'
p1315
sa(dp1316
g2
S'http://www.reuters.com/article/2012/08/04/oly-yach-samrsx-idUSL6E8J44QD20120804'
p1317
sg4
S'20120804\xc2\xa011:53AM UTC'
p1318
sg6
S"Olympics-Men's sailing RS-X Race 8 results"
p1319
sa(dp1320
g2
S'http://www.reuters.com/article/2012/08/04/us-oly-cycl-ctwtpu-wrap-day-idUSBRE8730EY20120804'
p1321
sg4
S'20120804\xc2\xa011:53AM UTC'
p1322
sg6
S'Cycling: British women smash record as Australia crack'
p1323
sa(dp1324
g2
S'http://www.reuters.com/article/2012/08/04/us-nigeria-pirates-idUSBRE8730BL20120804'
p1325
sg4
S'20120804\xc2\xa011:50AM UTC'
p1326
sg6
S'Pirates attack ship off Nigeria, kidnap four foreigners'
p1327
sa(dp1328
g2
S'http://www.reuters.com/article/2012/08/04/oly-rowi-rom4-ginn-idUSL6E8J44MO20120804'
p1329
sg4
S'20120804\xc2\xa011:50AM UTC'
p1330
sg6
S'Olympics-Rowing-Ginn considers future as regatta ends in tears'
p1331
sa(dp1332
g2
S'http://www.reuters.com/article/2012/08/04/syria-crisis-iran-kidnapping-idUSL6E8J438A20120804'
p1333
sg4
S'20120804\xc2\xa011:47AM UTC'
p1334
sg6
S'UPDATE 2-Forty-eight Iranians kidnapped in Damascus - IRNA'
p1335
sa(dp1336
g2
S'http://www.reuters.com/article/2012/08/04/us-egypt-imf-idUSBRE8730EN20120804'
p1337
sg4
S'20120804\xc2\xa011:46AM UTC'
p1338
sg6
S'Egypt invites IMF officials to resume loan talks'
p1339
sa(dp1340
g2
S'http://www.reuters.com/article/2012/08/04/us-egypt-government-copts-idUSBRE87309F20120804'
p1341
sg4
S'20120804\xc2\xa011:45AM UTC'
p1342
sg6
S'Egypt\'s Christian leader slams "unfair" new cabinet'
p1343
sa(dp1344
g2
S'http://www.reuters.com/article/2012/08/04/us-oly-cycl-ctwtpu-day8-record-idUSBRE8730EE20120804'
p1345
sg4
S'20120804\xc2\xa011:45AM UTC'
p1346
sg6
S"Cycling: Britain set women's team pursuit world record"
p1347
sa(dp1348
g2
S'http://www.reuters.com/article/2012/08/04/oly-cycl-ctwtpu-wrap-day-idUSL6E8J44RW20120804'
p1349
sg4
S'20120804\xc2\xa011:40AM UTC'
p1350
sg6
S'Olympics-Cycling-British women smash record as Australia crack'
p1351
sa(dp1352
g2
S'http://www.reuters.com/article/2012/08/04/nigeria-pirates-idUSL6E8J44F220120804'
p1353
sg4
S'20120804\xc2\xa011:40AM UTC'
p1354
sg6
S'UPDATE 2-Pirates attack ship off Nigeria, kidnap 4 foreigners'
p1355
sa(dp1356
g2
S'http://www.reuters.com/article/2012/08/04/oly-boxi-bxm81k-idUSL6E8J44RX20120804'
p1357
sg4
S'20120804\xc2\xa011:39AM UTC'
p1358
sg6
S"Olympics-Men's boxing light heavyweight last 16 results"
p1359
sa(dp1360
g2
S'http://www.reuters.com/article/2012/08/04/us-oly-cycl-cavendish-day-idUSBRE8730EA20120804'
p1361
sg4
S'20120804\xc2\xa011:38AM UTC'
p1362
sg6
S"Cycling: Britain's Cavendish wants to race track in Rio"
p1363
sa(dp1364
g2
S'http://www.reuters.com/article/2012/08/04/oly-bask-bkmbbl-idUSL2E8J40MK20120804'
p1365
sg4
S'20120804\xc2\xa011:38AM UTC'
p1366
sg6
S'Olympics-Basketball-U.S. battle to close win over Lithuania'
p1367
sa(dp1368
g2
S'http://www.reuters.com/article/2012/08/04/oly-bask-bkmbbl-idUSL6E8J44PI20120804'
p1369
sg4
S'20120804\xc2\xa011:37AM UTC'
p1370
sg6
S"Olympics-U.S. beat Lithuania in men's basketball Group A - results"
p1371
sa(dp1372
g2
S'http://www.reuters.com/article/2012/08/04/us-oly-hock-arg-aymar-day-idUSBRE8730E820120804'
p1373
sg4
S'20120804\xc2\xa011:36AM UTC'
p1374
sg6
S"Hockey: Rosario's other famous export, Aymar eyes gold"
p1375
sa(dp1376
g2
S'http://www.reuters.com/article/2012/08/04/oly-cycl-ctwtpu-day8-record-idUSL6E8J44Q720120804'
p1377
sg4
S'20120804\xc2\xa011:36AM UTC'
p1378
sg6
S"Olympics-Cycling-Britain set women's team pursuit world record"
p1379
sa(dp1380
g2
S'http://www.reuters.com/article/2012/08/04/us-oly-hock-arg-aymar-day-idUSBRE8730E420120804'
p1381
sg4
S'20120804\xc2\xa011:35AM UTC'
p1382
sg6
S"Rosario's other famous export, Aymar eyes gold"
p1383
sa(dp1384
g2
S'http://www.reuters.com/article/2012/08/04/oly-cycl-cavendish-day-idUSL4E8J404920120804'
p1385
sg4
S'20120804\xc2\xa011:33AM UTC'
p1386
sg6
S"Olympics-Cycling-Britain's Cavendish wants to race track in Rio"
p1387
sa(dp1388
g2
S'http://www.reuters.com/article/2012/08/04/us-oly-cycl-fra-gbr-day-idUSBRE8730E120120804'
p1389
sg4
S'20120804\xc2\xa011:33AM UTC'
p1390
sg6
S'Cycling: France complain about British favoritism'
p1391
sa(dp1392
g2
S'http://www.reuters.com/article/2012/08/04/oly-weig-rus-injury-day-idUSL6E8J44PU20120804'
p1393
sg4
S'20120804\xc2\xa011:32AM UTC'
p1394
sg6
S'Olympics-Weightlifting-Top Russian pair withdrawn'
p1395
sa(dp1396
g2
S'http://www.reuters.com/article/2012/08/04/us-egypt-imf-idUSBRE8730BW20120804'
p1397
sg4
S'20120804\xc2\xa011:31AM UTC'
p1398
sg6
S'Egypt invites IMF officials to resume loan talks'
p1399
sa(dp1400
g2
S'http://www.reuters.com/article/2012/08/04/oly-tabt-ttwtem-idUSL6E8J44PO20120804'
p1401
sg4
S'20120804\xc2\xa011:30AM UTC'
p1402
sg6
S"Olympics-Women's table tennis team quarter-finals results"
p1403
sa(dp1404
g2
S'http://www.reuters.com/article/2012/08/04/us-oly-tenn-temdob-idUSBRE8730DT20120804'
p1405
sg4
S'20120804\xc2\xa011:30AM UTC'
p1406
sg6
S"Tennis: France's Benneteau, Gasquet claim doubles bronze"
p1407
sa(dp1408
g2
S'http://www.reuters.com/article/2012/08/04/idUS44300+04-Aug-2012+PRN20120804'
p1409
sg4
S'20120804\xc2\xa011:30AM UTC'
p1410
sg6
S'Following Is a Test Release'
p1411
sa(dp1412
g2
S'http://www.reuters.com/article/2012/08/04/oly-hock-arg-aymar-day-idUSL6E8J44PN20120804'
p1413
sg4
S'20120804\xc2\xa011:29AM UTC'
p1414
sg6
S"REFILE-Olympics-Hockey-Rosario's other famous export, Aymar eyes gold"
p1415
sa(dp1416
g2
S'http://www.reuters.com/article/2012/08/04/egypt-imf-idUSL6E8J44FB20120804'
p1417
sg4
S'20120804\xc2\xa011:28AM UTC'
p1418
sg6
S'UPDATE 1-Egypt invites IMF officials to resume loan talks'
p1419
sa(dp1420
g2
S'http://www.reuters.com/article/2012/08/04/us-oly-gymn-gtwtrp-idUSBRE8730CR20120804'
p1421
sg4
S'20120804\xc2\xa011:28AM UTC'
p1422
sg6
S"Trampoline: Canada's MacLennan wins gold in aerial battle"
p1423
sa(dp1424
g2
S'http://www.reuters.com/article/2012/08/04/oly-hock-arg-aymar-day-idUSL6E8J41YT20120804'
p1425
sg4
S'20120804\xc2\xa011:28AM UTC'
p1426
sg6
S"REFILE-Olympics-Hockey-Rosario's other famous export, Aymar eyes gold"
p1427
sa(dp1428
g2
S'http://www.reuters.com/article/2012/08/04/oly-cycl-fra-gbr-day-idUSL6E8J44F420120804'
p1429
sg4
S'20120804\xc2\xa011:27AM UTC'
p1430
sg6
S'Olympics-Cycling-France complain about British favouritism'
p1431
sa(dp1432
g2
S'http://www.reuters.com/article/2012/08/04/us-myanmar-un-violence-idUSBRE8730DN20120804'
p1433
sg4
S'20120804\xc2\xa011:27AM UTC'
p1434
sg6
S'U.N. calls for credible probe into Myanmar sectarian unrest'
p1435
sa(dp1436
g2
S'http://www.reuters.com/article/2012/08/04/us-oly-gymn-europe-day-idUSBRE8730DJ20120804'
p1437
sg4
S'20120804\xc2\xa011:24AM UTC'
p1438
sg6
S'Gymnastics: Will next European champion please stand up'
p1439
sa(dp1440
g2
S'http://www.reuters.com/article/2012/08/04/oly-cycl-ctmspr-rprnd1-day-idUSL6E8J44P120120804'
p1441
sg4
S'20120804\xc2\xa011:24AM UTC'
p1442
sg6
S"Olympics-Men's cycling-track sprint repechage first round results"
p1443
sa(dp1444
g2
S'http://www.reuters.com/article/2012/08/04/idUS43875+04-Aug-2012+PRN20120804'
p1445
sg4
S'20120804\xc2\xa011:23AM UTC'
p1446
sg6
S"CAIR: U.S. Muslim Groups Declare 'Day of Solidarity with the Syrian People'"
p1447
sa(dp1448
g2
S'http://www.reuters.com/article/2012/08/04/oly-boxi-bxm81k-idUSL6E8J44P420120804'
p1449
sg4
S'20120804\xc2\xa011:23AM UTC'
p1450
sg6
S"Olympics-Men's boxing light heavyweight last 16 results"
p1451
sa(dp1452
g2
S'http://www.reuters.com/article/2012/08/04/oly-tenn-temdob-idUSL6E8J42IC20120804'
p1453
sg4
S'20120804\xc2\xa011:23AM UTC'
p1454
sg6
S"Olympics-Tennis-France's Benneteau, Gasquet claim doubles bronze"
p1455
sa(dp1456
g2
S'http://www.reuters.com/article/2012/08/04/us-somalia-clinton-idUSBRE8730DE20120804'
p1457
sg4
S'20120804\xc2\xa011:22AM UTC'
p1458
sg6
S'U.S. encouraged by Somalia progress: Clinton'
p1459
sa(dp1460
g2
S'http://www.reuters.com/article/2012/08/04/oly-gymn-gtwtrp-idUSL6E8J44MJ20120804'
p1461
sg4
S'20120804\xc2\xa011:22AM UTC'
p1462
sg6
S"UPDATE 2-Olympics-Trampoline-Canada's MacLennan wins gold in aerial battle"
p1463
sa(dp1464
g2
S'http://www.reuters.com/article/2012/08/04/oly-gymn-europe-day-idUSL6E8J44HK20120804'
p1465
sg4
S'20120804\xc2\xa011:20AM UTC'
p1466
sg6
S'Olympics-Gymnastics-Will next European champion please stand up'
p1467
sa(dp1468
g2
S'http://www.reuters.com/article/2012/08/04/us-oly-yach-saw470-day-idUSBRE8730D820120804'
p1469
sg4
S'20120804\xc2\xa011:20AM UTC'
p1470
sg6
S'Sailing: Gold tops "to-do" list for Britain\'s 470 women'
p1471
sa(dp1472
g2
S'http://www.reuters.com/article/2012/08/04/oly-yach-saw470-day-idUSL6E8J42H620120804'
p1473
sg4
S'20120804\xc2\xa011:19AM UTC'
p1474
sg6
S'Olympics-Sailing-Gold tops "to-do" list for Britain\'s 470 women'
p1475
sa(dp1476
g2
S'http://www.reuters.com/article/2012/08/04/us-oly-boxi-bxm49k-last16-day-idUSBRE8730D620120804'
p1477
sg4
S'20120804\xc2\xa011:18AM UTC'
p1478
sg6
S'Brazil loses gold medal hope Lopes'
p1479
sa(dp1480
g2
S'http://www.reuters.com/article/2012/08/04/oly-hand-hbmhbl-idUSL6E8J44NG20120804'
p1481
sg4
S'20120804\xc2\xa011:18AM UTC'
p1482
sg6
S"Olympics-Sweden beat Argentina in men's handball Group A - results"
p1483
sa(dp1484
g2
S'http://www.reuters.com/article/2012/08/04/oly-boxi-bxm81k-idUSL6E8J44MZ20120804'
p1485
sg4
S'20120804\xc2\xa011:14AM UTC'
p1486
sg6
S"Olympics-Men's boxing light heavyweight last 16 results"
p1487
sa(dp1488
g2
S'http://www.reuters.com/article/2012/08/04/oly-yach-sam-idUSL6E8J44JL20120804'
p1489
sg4
S'20120804\xc2\xa011:13AM UTC'
p1490
sg6
S"Olympics-Men's sailing 470 opening series Race 5 results"
p1491
sa(dp1492
g2
S'http://www.reuters.com/article/2012/08/04/oly-dive-dvw3sp-idUSL6E8J44N120120804'
p1493
sg4
S'20120804\xc2\xa011:12AM UTC'
p1494
sg6
S"Olympics-Women's diving 3m springboard semi-finals results"
p1495
sa(dp1496
g2
S'http://www.reuters.com/article/2012/08/04/us-oly-shoo-shwtra-idUSBRE8730CK20120804'
p1497
sg4
S'20120804\xc2\xa011:11AM UTC'
p1498
sg6
S"Shooting: Italian Rossi wins women's trap gold"
p1499
sa(dp1500
g2
S'http://www.reuters.com/article/2012/08/04/us-oly-tria-trwtri-day-idUSBRE8730D020120804'
p1501
sg4
S'20120804\xc2\xa011:10AM UTC'
p1502
sg6
S'Triathlon: Spirig wins gold in photo finish'
p1503
sa(dp1504
g2
S'http://www.reuters.com/article/2012/08/04/oly-shoo-shwtra-idUSL6E8J44ML20120804'
p1505
sg4
S'20120804\xc2\xa011:08AM UTC'
p1506
sg6
S"Olympics-Women's trap shooting medal results"
p1507
sa(dp1508
g2
S'http://www.reuters.com/article/2012/08/04/oly-tria-trwtri-day-idUSL6E8J42I520120804'
p1509
sg4
S'20120804\xc2\xa011:08AM UTC'
p1510
sg6
S'UPDATE 3-Olympics-Triathlon-Spirig wins gold in photo finish'
p1511
sa(dp1512
g2
S'http://www.reuters.com/article/2012/08/04/us-oly-boxi-ind-anger-day-idUSBRE8730CY20120804'
p1513
sg4
S'20120804\xc2\xa011:08AM UTC'
p1514
sg6
S'Boxing: India cannot appeal overturned decision - AIBA'
p1515
sa(dp1516
g2
S'http://www.reuters.com/article/2012/08/04/oly-gymn-gtwtrp-idUSL6E8J44MY20120804'
p1517
sg4
S'20120804\xc2\xa011:07AM UTC'
p1518
sg6
S"Olympics-Women's trampolining individual medal results"
p1519
sa(dp1520
g2
S'http://www.reuters.com/article/2012/08/04/us-oly-tria-trwtri-day8-spirig-idUSBRE8730CV20120804'
p1521
sg4
S'20120804\xc2\xa011:04AM UTC'
p1522
sg6
S'Triathlon: Swiss Spirig leaves Federer in the shade'
p1523
sa(dp1524
g2
S'http://www.reuters.com/article/2012/08/04/us-hongkong-spill-idUSBRE87306J20120804'
p1525
sg4
S'20120804\xc2\xa011:02AM UTC'
p1526
sg6
S'Hong Kong government criticized over plastic spill on beaches'
p1527
sa(dp1528
g2
S'http://www.reuters.com/article/2012/08/04/idUS42662+04-Aug-2012+PRN20120804'
p1529
sg4
S'20120804\xc2\xa011:00AM UTC'
p1530
sg6
S'Following Is a Test Release'
p1531
sa(dp1532
g2
S'http://www.reuters.com/article/2012/08/04/oly-tria-trwtri-day8-spirig-idUSL6E8J44FE20120804'
p1533
sg4
S'20120804\xc2\xa010:58AM UTC'
p1534
sg6
S'Olympics-Triathlon-Swiss Spirig leaves Federer in the shade'
p1535
sa(dp1536
g2
S'http://www.reuters.com/article/2012/08/04/hongkong-spill-idUSL4E8J404G20120804'
p1537
sg4
S'20120804\xc2\xa010:57AM UTC'
p1538
sg6
S'UPDATE 1-Hong Kong govt criticised over plastic spill on beaches'
p1539
sa(dp1540
g2
S'http://www.reuters.com/article/2012/08/04/us-oly-eque-syria-day-idUSBRE8730CM20120804'
p1541
sg4
S'20120804\xc2\xa010:56AM UTC'
p1542
sg6
S'Equestrian: Syrian rider says Olympic effort for "all Syrians"'
p1543
sa(dp1544
g2
S'http://www.reuters.com/article/2012/08/04/oly-yach-saw-idUSL6E8J44JH20120804'
p1545
sg4
S'20120804\xc2\xa010:56AM UTC'
p1546
sg6
S"Olympics-Women's sailing 470 opening series race 3 results"
p1547
sa(dp1548
g2
S'http://www.reuters.com/article/2012/08/04/oly-gymn-gtwtrp-idUSL6E8J41MN20120804'
p1549
sg4
S'20120804\xc2\xa010:55AM UTC'
p1550
sg6
S"Olympics-Trampoline-Canada's MacLennan wins gold in aerial battle"
p1551
sa(dp1552
g2
S'http://www.reuters.com/article/2012/08/04/oly-badm-bdwsin-idUSL6E8J44JE20120804'
p1553
sg4
S'20120804\xc2\xa010:54AM UTC'
p1554
sg6
S"Olympics-Women's badminton singles gold medal match results"
p1555
sa(dp1556
g2
S'http://www.reuters.com/article/2012/08/04/oly-tenn-temdob-idUSL6E8J44J520120804'
p1557
sg4
S'20120804\xc2\xa010:53AM UTC'
p1558
sg6
S"Olympics-Men's tennis doubles bronze medal match results"
p1559
sa(dp1560
g2
S'http://www.reuters.com/article/2012/08/04/oly-boxi-bxm64k-idUSL6E8J44J920120804'
p1561
sg4
S'20120804\xc2\xa010:53AM UTC'
p1562
sg6
S"Olympics-Men's boxing light welterweight last 16 match 4 - results"
p1563
sa(dp1564
g2
S'http://www.reuters.com/article/2012/08/04/oly-yach-samrsx-idUSL6E8J44HA20120804'
p1565
sg4
S'20120804\xc2\xa010:53AM UTC'
p1566
sg6
S"Olympics-Men's sailing RS-X Race 7 results"
p1567
sa(dp1568
g2
S'http://www.reuters.com/article/2012/08/04/us-oly-badm-bdwsin-idUSBRE8730CG20120804'
p1569
sg4
S'20120804\xc2\xa010:52AM UTC'
p1570
sg6
S'Badminton: Li wins all-China battle for singles gold'
p1571
sa(dp1572
g2
S'http://www.reuters.com/article/2012/08/04/us-oly-badm-bdwsin-idUSBRE8730CD20120804'
p1573
sg4
S'20120804\xc2\xa010:51AM UTC'
p1574
sg6
S'Li wins all-China battle for singles gold'
p1575
sa(dp1576
g2
S'http://www.reuters.com/article/2012/08/04/oly-gymn-gtwtrp-idUSL6E8J44FD20120804'
p1577
sg4
S'20120804\xc2\xa010:49AM UTC'
p1578
sg6
S"Olympics-Women's trampolining individual qualification results"
p1579
sa(dp1580
g2
S'http://www.reuters.com/article/2012/08/04/us-oly-shoo-shwr3x-idUSBRE87308420120804'
p1581
sg4
S'20120804\xc2\xa010:49AM UTC'
p1582
sg6
S'Shooting: Gray dreaded golden shot since Beijing'
p1583
sa(dp1584
g2
S'http://www.reuters.com/article/2012/08/04/oly-eque-syria-day-idUSL6E8J42PL20120804'
p1585
sg4
S'20120804\xc2\xa010:49AM UTC'
p1586
sg6
S'Olympics-Equestrian-Syrian rider says Olympic effort for "all Syrians"'
p1587
sa(dp1588
g2
S'http://www.reuters.com/article/2012/08/04/oly-yach-sawlas-idUSL6E8J44H420120804'
p1589
sg4
S'20120804\xc2\xa010:47AM UTC'
p1590
sg6
S"Olympics-Women's sailing Laser Radial Race 10 results"
p1591
sa(dp1592
g2
S'http://www.reuters.com/article/2012/08/04/us-oly-hock-arg-aymar-day-idUSBRE8730CA20120804'
p1593
sg4
S'20120804\xc2\xa010:46AM UTC'
p1594
sg6
S"Hockey: Rosario's other famous export, Rosario eyes gold"
p1595
sa(dp1596
g2
S'http://www.reuters.com/article/2012/08/04/us-oly-bask-bkmbbl-idUSBRE8730C320120804'
p1597
sg4
S'20120804\xc2\xa010:42AM UTC'
p1598
sg6
S'Basketball: Russia beat Spain in battle of unbeatens'
p1599
sa(dp1600
g2
S'http://www.reuters.com/article/2012/08/04/oly-athl-atwhep-idUSL6E8J449R20120804'
p1601
sg4
S'20120804\xc2\xa010:41AM UTC'
p1602
sg6
S"Olympics-Women's athletics heptathlon javelin throw results"
p1603
sa(dp1604
g2
S'http://www.reuters.com/article/2012/08/04/oly-badm-bdwsin-idUSL4E8J404H20120804'
p1605
sg4
S'20120804\xc2\xa010:38AM UTC'
p1606
sg6
S'Olympics-Badminton-Li wins all-China battle for singles gold'
p1607
sa(dp1608
g2
S'http://www.reuters.com/article/2012/08/04/oly-shoo-shwr3x-idUSL6E8J42PQ20120804'
p1609
sg4
S'20120804\xc2\xa010:37AM UTC'
p1610
sg6
S'UPDATE 2-Olympics-Shooting-Gray dreaded golden shot since Beijing'
p1611
sa(dp1612
g2
S'http://www.reuters.com/article/2012/08/04/oly-bask-bkmbbl-idUSL2E8J40LF20120804'
p1613
sg4
S'20120804\xc2\xa010:37AM UTC'
p1614
sg6
S'Olympics-Basketball-Russia beat Spain in battle of unbeatens'
p1615
sa(dp1616
g2
S'http://www.reuters.com/article/2012/08/04/oly-boxi-bxm64k-idUSL6E8J44H020120804'
p1617
sg4
S'20120804\xc2\xa010:37AM UTC'
p1618
sg6
S"Olympics-Men's boxing light welterweight last 16 results"
p1619
sa(dp1620
g2
S'http://www.reuters.com/article/2012/08/04/oly-voll-bvmvol-idUSL6E8J449Z20120804'
p1621
sg4
S'20120804\xc2\xa010:35AM UTC'
p1622
sg6
S"Olympics-Men's beach volleyball last 16 results"
p1623
sa(dp1624
g2
S'http://www.reuters.com/article/2012/08/04/us-syria-crisis-rebels-idUSBRE8730BZ20120804'
p1625
sg4
S'20120804\xc2\xa010:35AM UTC'
p1626
sg6
S'Rebels fill Aleppo power vacuum, some disapprove'
p1627
sa(dp1628
g2
S'http://www.reuters.com/article/2012/08/04/idUS40962+04-Aug-2012+PRN20120804'
p1629
sg4
S'20120804\xc2\xa010:30AM UTC'
p1630
sg6
S'Following Is a Test Release'
p1631
sa(dp1632
g2
S'http://www.reuters.com/article/2012/08/04/oly-watp-wpmpol-idUSL6E8J44EZ20120804'
p1633
sg4
S'20120804\xc2\xa010:30AM UTC'
p1634
sg6
S"Olympics-Spain beat Greece in men's water polo Group A - results"
p1635
sa(dp1636
g2
S'http://www.reuters.com/article/2012/08/04/idUS40953+04-Aug-2012+PRN20120804'
p1637
sg4
S'20120804\xc2\xa010:30AM UTC'
p1638
sg6
S'Denver Mayor, Committed Supporters, Volunteers, Victims and Survivors Join MADD for 5K Walk to Eliminate Drunk Driving'
p1639
sa(dp1640
g2
S'http://www.reuters.com/article/2012/08/04/oly-hock-howhky-idUSL6E8J44EU20120804'
p1641
sg4
S'20120804\xc2\xa010:28AM UTC'
p1642
sg6
S"Olympics-Japan, Belgium draw in women's hockey Pool A - results"
p1643
sa(dp1644
g2
S'http://www.reuters.com/article/2012/08/04/oly-tenn-tewsin-idUSL6E8J44F720120804'
p1645
sg4
S'20120804\xc2\xa010:27AM UTC'
p1646
sg6
S"Olympics-Women's tennis singles gold medal match results"
p1647
sa(dp1648
g2
S'http://www.reuters.com/article/2012/08/04/egypt-imf-idUSL6E8J44C020120804'
p1649
sg4
S'20120804\xc2\xa010:26AM UTC'
p1650
sg6
S'Egypt govt invites IMF officials to resume loan talks'
p1651
sa(dp1652
g2
S'http://www.reuters.com/article/2012/08/04/oly-boxi-bxm64k-idUSL6E8J44EP20120804'
p1653
sg4
S'20120804\xc2\xa010:25AM UTC'
p1654
sg6
S"Olympics-Men's boxing light welterweight last 16 results"
p1655
sa(dp1656
g2
S'http://www.reuters.com/article/2012/08/04/oly-tenn-tewsin-idUSL6E8J44ER20120804'
p1657
sg4
S'20120804\xc2\xa010:25AM UTC'
p1658
sg6
S'Olympics-Tennis-Serena Williams storms to singles gold'
p1659
sa(dp1660
g2
S'http://www.reuters.com/article/2012/08/04/us-oly-africa-day-idUSBRE8730BD20120804'
p1661
sg4
S'20120804\xc2\xa010:25AM UTC'
p1662
sg6
S'African nations should bid for 2024 Games: UK minister'
p1663
sa(dp1664
g2
S'http://www.reuters.com/article/2012/08/04/nigeria-pirates-idUSL6E8J44ET20120804'
p1665
sg4
S'20120804\xc2\xa010:24AM UTC'
p1666
sg6
S'Pirates attack ship off Nigeria, kidnap 4 foreigners'
p1667
sa(dp1668
g2
S'http://www.reuters.com/article/2012/08/04/oly-africa-day-idUSL6E8J43BA20120804'
p1669
sg4
S'20120804\xc2\xa010:21AM UTC'
p1670
sg6
S'Olympics-African nations should bid for 2024 Games-UK minister'
p1671
sa(dp1672
g2
S'http://www.reuters.com/article/2012/08/04/oly-yach-samlas-idUSL6E8J44A520120804'
p1673
sg4
S'20120804\xc2\xa010:17AM UTC'
p1674
sg6
S"Olympics-Men's sailing Laser Race 10 results"
p1675
sa(dp1676
g2
S'http://www.reuters.com/article/2012/08/04/us-oly-athl-atwhep-wrap-day-idUSBRE8730AI20120804'
p1677
sg4
S'20120804\xc2\xa010:09AM UTC'
p1678
sg6
S'Athletics: Ennis targets 7,000 in heptathlon'
p1679
sa(dp1680
g2
S'http://www.reuters.com/article/2012/08/04/storm-ernesto-idUSL2E8J40M520120804'
p1681
sg4
S'20120804\xc2\xa010:08AM UTC'
p1682
sg6
S'Ernesto moves west in Caribbean; new storm forms in Atlantic'
p1683
sa(dp1684
g2
S'http://www.reuters.com/article/2012/08/04/us-iran-missile-idUSBRE87304E20120804'
p1685
sg4
S'20120804\xc2\xa010:08AM UTC'
p1686
sg6
S'Iran tests short-range missile with new guidance system'
p1687
sa(dp1688
g2
S'http://www.reuters.com/article/2012/08/04/us-oly-tria-trwtri-scene-day-idUSBRE8730B620120804'
p1689
sg4
S'20120804\xc2\xa010:05AM UTC'
p1690
sg6
S'Triathlon: Hyde Park witnesses battle royal'
p1691
sa(dp1692
g2
S'http://www.reuters.com/article/2012/08/04/iran-missile-idUSL6E8J41CX20120804'
p1693
sg4
S'20120804\xc2\xa010:04AM UTC'
p1694
sg6
S'UPDATE 2-Iran tests short-range missile with new guidance system'
p1695
sa(dp1696
g2
S'http://www.reuters.com/article/2012/08/04/us-oly-gymn-jpn-day8-uchimura-comaneci-idUSBRE8730B420120804'
p1697
sg4
S'20120804\xc2\xa010:03AM UTC'
p1698
sg6
S'Gymnsatics: Uchimura the GOAT? No says Comaneci'
p1699
sa(dp1700
g2
S'http://www.reuters.com/article/2012/08/04/oly-boxi-bxm64k-idUSL6E8J44A820120804'
p1701
sg4
S'20120804\xc2\xa010:02AM UTC'
p1702
sg6
S"Olympics-Men's boxing light welterweight last 16 results"
p1703
sa(dp1704
g2
S'http://www.reuters.com/article/2012/08/04/olympics-schedule-at-idUSL4E8IV24220120804'
p1705
sg4
S'20120804\xc2\xa010:00AM UTC'
p1706
sg6
S'Reuters Olympics Schedule at 1400 GMT on Saturday, Aug 4'
p1707
sa(dp1708
g2
S'http://www.reuters.com/article/2012/08/04/idUS39513+04-Aug-2012+PRN20120804'
p1709
sg4
S'20120804\xc2\xa010:00AM UTC'
p1710
sg6
S'Following Is a Test Release'
p1711
sa(dp1712
g2
S'http://www.reuters.com/article/2012/08/04/us-china-politics-trial-britain-idUSBRE8730AY20120804'
p1713
sg4
S'20120804\xc2\xa09:57AM UTC'
p1714
sg6
S'British diplomats to attend Chinese murder trial'
p1715
sa(dp1716
g2
S'http://www.reuters.com/article/2012/08/04/oly-tria-trwtri-scene-day-idUSL4E8J404420120804'
p1717
sg4
S'20120804\xc2\xa09:56AM UTC'
p1718
sg6
S'Olympics-Triathlon-Hyde Park witnesses battle royal'
p1719
sa(dp1720
g2
S'http://www.reuters.com/article/2012/08/04/us-oly-voll-bvvol-day8-cook-idUSBRE8730AU20120804'
p1721
sg4
S'20120804\xc2\xa09:55AM UTC'
p1722
sg6
S'Beach volleyball: No ball sports? Cook gets last laugh'
p1723
sa(dp1724
g2
S'http://www.reuters.com/article/2012/08/04/oly-gymn-jpn-day8-uchimura-comaneci-idUSL6E8J432E20120804'
p1725
sg4
S'20120804\xc2\xa09:54AM UTC'
p1726
sg6
S'INTERVIEW-Olympics-Gymnastics-Uchimura the GOAT? No says Comaneci'
p1727
sa(dp1728
g2
S'http://www.reuters.com/article/2012/08/04/us-oly-tabt-ttmtem-rnd1-day8-koreas-idUSBRE8730AM20120804'
p1729
sg4
S'20120804\xc2\xa09:49AM UTC'
p1730
sg6
S'Table tennis: South Korea beat North in tense battle'
p1731
sa(dp1732
g2
S'http://www.reuters.com/article/2012/08/04/us-oly-athl-morning-day-idUSBRE87309620120804'
p1733
sg4
S'20120804\xc2\xa09:44AM UTC'
p1734
sg6
S'Athletics: Bolt cruises after stutter, Pistorius joy'
p1735
sa(dp1736
g2
S'http://www.reuters.com/article/2012/08/04/oly-boxi-bxm49k-idUSL6E8J43JX20120804'
p1737
sg4
S'20120804\xc2\xa09:44AM UTC'
p1738
sg6
S"Olympics-Men's boxing light flyweight last 16 results"
p1739
sa(dp1740
g2
S'http://www.reuters.com/article/2012/08/04/oly-voll-bvvol-day8-cook-idUSL6E8J42YZ20120804'
p1741
sg4
S'20120804\xc2\xa09:43AM UTC'
p1742
sg6
S'Olympics-Beach volleyball-No ball sports? Cook gets last laugh'
p1743
sa(dp1744
g2
S'http://www.reuters.com/article/2012/08/04/us-oly-voll-vomvbl-heats-day-idUSBRE8730AF20120804'
p1745
sg4
S'20120804\xc2\xa09:43AM UTC'
p1746
sg6
S'Volleyball: Poland defeat Britain in "home" teams clash'
p1747
sa(dp1748
g2
S'http://www.reuters.com/article/2012/08/04/oly-tabt-ttmtem-rnd1-day8-koreas-idUSL6E8J42RF20120804'
p1749
sg4
S'20120804\xc2\xa09:42AM UTC'
p1750
sg6
S'Olympics-Table tennis-South Korea beat North in tense battle'
p1751
sa(dp1752
g2
S'http://www.reuters.com/article/2012/08/04/oly-athl-atwhep-wrap-day-idUSL4E8J402U20120804'
p1753
sg4
S'20120804\xc2\xa09:42AM UTC'
p1754
sg6
S'Olympics-Athletics-Poster girl Ennis has gold in sight'
p1755
sa(dp1756
g2
S'http://www.reuters.com/article/2012/08/04/oly-fenc-fewtep-idUSL6E8J43JW20120804'
p1757
sg4
S'20120804\xc2\xa09:40AM UTC'
p1758
sg6
S"Olympics-Women's fencing team epee semi-final results"
p1759
sa(dp1760
g2
S'http://www.reuters.com/article/2012/08/04/us-oly-rowi-wrap-day-idUSBRE87307C20120804'
p1761
sg4
S'20120804\xc2\xa09:39AM UTC'
p1762
sg6
S'Britain take two golds in 20 minutes'
p1763
sa(dp1764
g2
S'http://www.reuters.com/article/2012/08/04/oly-athl-morning-day-idUSL4E8J402Z20120804'
p1765
sg4
S'20120804\xc2\xa09:38AM UTC'
p1766
sg6
S'WRAPUP 2-Olympics-Athletics-Bolt cruises after stutter, Pistorius joy'
p1767
sa(dp1768
g2
S'http://www.reuters.com/article/2012/08/04/us-oly-tria-trwtri-usa-groff-idUSBRE8730A820120804'
p1769
sg4
S'20120804\xc2\xa09:37AM UTC'
p1770
sg6
S'Triathlon: Cooperstown girl strikes out on medal bid'
p1771
sa(dp1772
g2
S'http://www.reuters.com/article/2012/08/04/oly-voll-vomvbl-heats-day-idUSL6E8J42LB20120804'
p1773
sg4
S'20120804\xc2\xa09:36AM UTC'
p1774
sg6
S"Olympics-Volleyball-Poland defeat Britain in 'home' teams clash"
p1775
sa(dp1776
g2
S'http://www.reuters.com/article/2012/08/04/us-palestinians-israel-statehood-idUSBRE8730A420120804'
p1777
sg4
S'20120804\xc2\xa09:35AM UTC'
p1778
sg6
S'Palestinians to renew U.N. statehood drive next month'
p1779
sa(dp1780
g2
S'http://www.reuters.com/article/2012/08/04/us-oly-swim-esp-belmonte-day-idUSBRE87309Y20120804'
p1781
sg4
S'20120804\xc2\xa09:33AM UTC'
p1782
sg6
S'Belmonte, mum on cloud nine with second silver'
p1783
sa(dp1784
g2
S'http://www.reuters.com/article/2012/08/04/idUS37574+04-Aug-2012+PRN20120804'
p1785
sg4
S'20120804\xc2\xa09:30AM UTC'
p1786
sg6
S'Following Is a Test Release'
p1787
sa(dp1788
g2
S'http://www.reuters.com/article/2012/08/04/oly-rowi-wrap-day-idUSL6E8J42J620120804'
p1789
sg4
S'20120804\xc2\xa09:30AM UTC'
p1790
sg6
S'UPDATE 1-Olympics-Rowing-Britain take two golds in 20 minutes'
p1791
sa(dp1792
g2
S'http://www.reuters.com/article/2012/08/04/oly-tria-trwtri-usa-groff-idUSL6E8J432A20120804'
p1793
sg4
S'20120804\xc2\xa09:29AM UTC'
p1794
sg6
S'Olympics-Triathlon-Cooperstown girl strikes out on medal bid'
p1795
sa(dp1796
g2
S'http://www.reuters.com/article/2012/08/04/us-oly-judo-jap-day-idUSBRE87309U20120804'
p1797
sg4
S'20120804\xc2\xa09:28AM UTC'
p1798
sg6
S'Judo: Japanese fear supremacy on the mat is over'
p1799
sa(dp1800
g2
S'http://www.reuters.com/article/2012/08/04/oly-boxi-bxm49k-idUSL6E8J43B020120804'
p1801
sg4
S'20120804\xc2\xa09:26AM UTC'
p1802
sg6
S"Olympics-Men's boxing light flyweight last 16 results"
p1803
sa(dp1804
g2
S'http://www.reuters.com/article/2012/08/04/oly-badm-bdwsin-idUSL6E8J438H20120804'
p1805
sg4
S'20120804\xc2\xa09:26AM UTC'
p1806
sg6
S"Olympics-Women's badminton singles bronze medal match results"
p1807
sa(dp1808
g2
S'http://www.reuters.com/article/2012/08/04/us-bayer-dividend-idUSBRE87309S20120804'
p1809
sg4
S'20120804\xc2\xa09:26AM UTC'
p1810
sg6
S'Bayer eyes higher dividend: CFO in paper'
p1811
sa(dp1812
g2
S'http://www.reuters.com/article/2012/08/04/oly-swim-esp-belmonte-day-idUSL4E8J403C20120804'
p1813
sg4
S'20120804\xc2\xa09:22AM UTC'
p1814
sg6
S'Olympics-Swimming-Belmonte, mum on cloud nine with second silver'
p1815
sa(dp1816
g2
S'http://www.reuters.com/article/2012/08/04/us-oly-badm-bdwsin-idUSBRE87309L20120804'
p1817
sg4
S'20120804\xc2\xa09:19AM UTC'
p1818
sg6
S"Badminton: India's Nehwal wins bronze after Wang injured"
p1819
sa(dp1820
g2
S'http://www.reuters.com/article/2012/08/04/oly-judo-jap-day-idUSL6E8J2HSI20120804'
p1821
sg4
S'20120804\xc2\xa09:19AM UTC'
p1822
sg6
S'Olympics-Judo-Japanese fear supremacy on the mat is over'
p1823
sa(dp1824
g2
S'http://www.reuters.com/article/2012/08/04/oly-voll-bvwvol-idUSL6E8J432820120804'
p1825
sg4
S'20120804\xc2\xa09:16AM UTC'
p1826
sg6
S"Olympics-Women's beach volleyball last 16 results"
p1827
sa(dp1828
g2
S'http://www.reuters.com/article/2012/08/04/oly-boxi-bxm49k-idUSL6E8J436B20120804'
p1829
sg4
S'20120804\xc2\xa09:14AM UTC'
p1830
sg6
S"Olympics-Men's boxing light flyweight last 16 results"
p1831
sa(dp1832
g2
S'http://www.reuters.com/article/2012/08/04/oly-tenn-tewsin-idUSL6E8J432J20120804'
p1833
sg4
S'20120804\xc2\xa09:13AM UTC'
p1834
sg6
S"Olympics-Women's tennis singles bronze medal match results"
p1835
sa(dp1836
g2
S'http://www.reuters.com/article/2012/08/04/us-libor-barclays-reich-idUSBRE8721TH20120804'
p1837
sg4
S'20120804\xc2\xa09:12AM UTC'
p1838
sg6
S'Exclusive: Fired Barclays trader draws scrutiny in Libor probe'
p1839
sa(dp1840
g2
S'http://www.reuters.com/article/2012/08/04/oly-yach-sawlas-idUSL6E8J436420120804'
p1841
sg4
S'20120804\xc2\xa09:12AM UTC'
p1842
sg6
S"Olympics-Women's sailing Laser Radial Race 9 results"
p1843
sa(dp1844
g2
S'http://www.reuters.com/article/2012/08/04/oly-socc-fbmsoc-idUSL6E8J434M20120804'
p1845
sg4
S'20120804\xc2\xa09:11AM UTC'
p1846
sg6
S"Olympics-Japan beat Egypt in men's soccer quarter-finals - results"
p1847
sa(dp1848
g2
S'http://www.reuters.com/article/2012/08/04/us-afghanistan-pakistan-rockets-idUSBRE87305620120804'
p1849
sg4
S'20120804\xc2\xa09:11AM UTC'
p1850
sg6
S'Afghan lawmakers vote to dismiss security ministers'
p1851
sa(dp1852
g2
S'http://www.reuters.com/article/2012/08/04/egypt-government-copts-idUSL6E8J40NA20120804'
p1853
sg4
S'20120804\xc2\xa09:10AM UTC'
p1854
sg6
S'Egypt\'s Christian leader slams "unfair" new cabinet'
p1855
sa(dp1856
g2
S'http://www.reuters.com/article/2012/08/04/us-oly-athl-atm100-rnd1-day-idUSBRE87309920120804'
p1857
sg4
S'20120804\xc2\xa09:08AM UTC'
p1858
sg6
S'Athletics: Stumbling start for Bolt as Americans impress'
p1859
sa(dp1860
g2
S'http://www.reuters.com/article/2012/08/04/syria-crisis-iran-kidnapping-idUSL6E8J432D20120804'
p1861
sg4
S'20120804\xc2\xa09:08AM UTC'
p1862
sg6
S'Forty-eight Iranian pilgrims kidnapped in Damascus - IRNA'
p1863
sa(dp1864
g2
S'http://www.reuters.com/article/2012/08/04/afghanistan-pakistan-rockets-idUSL4E8J403R20120804'
p1865
sg4
S'20120804\xc2\xa09:04AM UTC'
p1866
sg6
S'UPDATE 2-Afghan lawmakers vote to dismiss security ministers'
p1867
sa(dp1868
g2
S'http://www.reuters.com/article/2012/08/04/oly-badm-bdwsin-idUSL4E8J404320120804'
p1869
sg4
S'20120804\xc2\xa09:03AM UTC'
p1870
sg6
S"Olympics-Badminton-India's Nehwal wins bronze after Wang injured"
p1871
sa(dp1872
g2
S'http://www.reuters.com/article/2012/08/04/oly-tenn-tewsin-idUSL6E8J41RG20120804'
p1873
sg4
S'20120804\xc2\xa09:02AM UTC'
p1874
sg6
S"Olympics-Tennis-Azarenka wins women's singles bronze for Belarus"
p1875
sa(dp1876
g2
S'http://www.reuters.com/article/2012/08/04/oly-athl-atm100-rnd1-day-idUSL4E8J403J20120804'
p1877
sg4
S'20120804\xc2\xa09:00AM UTC'
p1878
sg6
S'Olympics-Athletics-Stumbling start for Bolt as Americans impress'
p1879
sa(dp1880
g2
S'http://www.reuters.com/article/2012/08/04/idUS36190+04-Aug-2012+PRN20120804'
p1881
sg4
S'20120804\xc2\xa09:00AM UTC'
p1882
sg6
S'Following Is a Test Release'
p1883
sa(dp1884
g2
S'http://www.reuters.com/article/2012/08/04/idUS36185+04-Aug-2012+PRN20120804'
p1885
sg4
S'20120804\xc2\xa09:00AM UTC'
p1886
sg6
S"SooBest's Recipe: Innovation for B2C E-commerce"
p1887
sa(dp1888
g2
S'http://www.reuters.com/article/2012/08/04/idUS36180+04-Aug-2012+PRN20120804'
p1889
sg4
S'20120804\xc2\xa09:00AM UTC'
p1890
sg6
S'NOCSAE Joins NFL Commissioner in Replacing Youth Football Helmets in Underserved Community'
p1891
sa(dp1892
g2
S'http://www.reuters.com/article/2012/08/04/idUS36170+04-Aug-2012+MW20120804'
p1893
sg4
S'20120804\xc2\xa09:00AM UTC'
p1894
sg6
S' BMO Survey: Canadians Willing to Pay a Significant Premium to Eat Local Food'
p1895
sa(dp1896
g2
S'http://www.reuters.com/article/2012/08/04/bayer-dividend-idUSL6E8J430R20120804'
p1897
sg4
S'20120804\xc2\xa08:57AM UTC'
p1898
sg6
S'Bayer eyes higher dividend -CFO in paper'
p1899
sa(dp1900
g2
S'http://www.reuters.com/article/2012/08/04/oly-athl-atm100-rnd1-day-idUSL6E8J42RT20120804'
p1901
sg4
S'20120804\xc2\xa08:56AM UTC'
p1902
sg6
S"Olympics-Men's athletics 100m first round results"
p1903
sa(dp1904
g2
S'http://www.reuters.com/article/2012/08/04/oly-boxi-bxm49k-idUSL6E8J432320120804'
p1905
sg4
S'20120804\xc2\xa08:56AM UTC'
p1906
sg6
S"Olympics-Men's boxing light flyweight last 16 results"
p1907
sa(dp1908
g2
S'http://www.reuters.com/article/2012/08/04/oly-shoo-shwtra-idUSL6E8J432220120804'
p1909
sg4
S'20120804\xc2\xa08:56AM UTC'
p1910
sg6
S"Olympics-Women's shooting trap qualification results"
p1911
sa(dp1912
g2
S'http://www.reuters.com/article/2012/08/04/us-oly-athl-atm100-prelim-collins-day-idUSBRE87309220120804'
p1913
sg4
S'20120804\xc2\xa08:49AM UTC'
p1914
sg6
S'Athletics: Angry Collins out of 100 meters'
p1915
sa(dp1916
g2
S'http://www.reuters.com/article/2012/08/04/oly-athl-atm100-prelim-collins-day-idUSL6E8J42P420120804'
p1917
sg4
S'20120804\xc2\xa08:46AM UTC'
p1918
sg6
S'UPDATE 1-Olympics-Athletics-Angry Collins out of 100 metres'
p1919
sa(dp1920
g2
S'http://www.reuters.com/article/2012/08/04/oly-tenn-texdob-idUSL6E8J42Z320120804'
p1921
sg4
S'20120804\xc2\xa08:43AM UTC'
p1922
sg6
S'Olympics-Tennis mixed doubles quarter-finals results'
p1923
sa(dp1924
g2
S'http://www.reuters.com/article/2012/08/04/oly-athl-atwpol-idUSL6E8J42PT20120804'
p1925
sg4
S'20120804\xc2\xa08:31AM UTC'
p1926
sg6
S"Olympics-Women's pole vault qualifying round results"
p1927
sa(dp1928
g2
S'http://www.reuters.com/article/2012/08/04/us-oly-dope-day-idUSBRE87306T20120804'
p1929
sg4
S'20120804\xc2\xa08:31AM UTC'
p1930
sg6
S'IOC provisionally bans Colombian, Brazil rower out'
p1931
sa(dp1932
g2
S'http://www.reuters.com/article/2012/08/04/idUS35016+04-Aug-2012+PRN20120804'
p1933
sg4
S'20120804\xc2\xa08:30AM UTC'
p1934
sg6
S'Following Is a Test Release'
p1935
sa(dp1936
g2
S'http://www.reuters.com/article/2012/08/04/us-mexico-mine-idUSBRE87308F20120804'
p1937
sg4
S'20120804\xc2\xa08:28AM UTC'
p1938
sg6
S'One rescued in Mexico mine explosion, others still missing'
p1939
sa(dp1940
g2
S'http://www.reuters.com/article/2012/08/04/oly-yach-samlas-idUSL6E8J42PO20120804'
p1941
sg4
S'20120804\xc2\xa08:27AM UTC'
p1942
sg6
S"Olympics-Men's sailing Laser Race 9 results"
p1943
sa(dp1944
g2
S'http://www.reuters.com/article/2012/08/04/us-telus-results-idUSBRE8720Q720120804'
p1945
sg4
S'20120804\xc2\xa08:25AM UTC'
p1946
sg6
S'Telus profit up on wireless growth, boosts outlook'
p1947
sa(dp1948
g2
S'http://www.reuters.com/article/2012/08/04/us-oly-athl-gbr-idowu-day-idUSBRE87308820120804'
p1949
sg4
S'20120804\xc2\xa08:24AM UTC'
p1950
sg6
S"Athletics: Britain's Idowu uses Twitter to blast critics"
p1951
sa(dp1952
g2
S'http://www.reuters.com/article/2012/08/04/oly-shoo-shwr3x-idUSL6E8J42PK20120804'
p1953
sg4
S'20120804\xc2\xa08:24AM UTC'
p1954
sg6
S"Olympics-Women's shooting 50m rifle 3 x 20 medal results"
p1955
sa(dp1956
g2
S'http://www.reuters.com/article/2012/08/04/oly-athl-gbr-idowu-day-idUSL4E8J403V20120804'
p1957
sg4
S'20120804\xc2\xa08:20AM UTC'
p1958
sg6
S"Olympics-Athletics-Britain's Idowu uses Twitter to blast critics"
p1959
sa(dp1960
g2
S'http://www.reuters.com/article/2012/08/04/kenya-clinton-idUSL6E8J42HK20120804'
p1961
sg4
S'20120804\xc2\xa08:19AM UTC'
p1962
sg6
S'Clinton urges Kenya to hold free, fair elections'
p1963
sa(dp1964
g2
S'http://www.reuters.com/article/2012/08/04/us-oly-tria-trwtri-day-idUSBRE87307R20120804'
p1965
sg4
S'20120804\xc2\xa08:19AM UTC'
p1966
sg6
S'Triathlon: Spirig wins gold in photo finish'
p1967
sa(dp1968
g2
S'http://www.reuters.com/article/2012/08/04/oly-shoo-shwr3x-idUSL4E8J403E20120804'
p1969
sg4
S'20120804\xc2\xa08:16AM UTC'
p1970
sg6
S'Olympics-Shooting-American Gray wins 50m three position rifle'
p1971
sa(dp1972
g2
S'http://www.reuters.com/article/2012/08/04/oly-bask-bkmbbl-idUSL6E8J42OM20120804'
p1973
sg4
S'20120804\xc2\xa08:14AM UTC'
p1974
sg6
S"Olympics-Russia beat Spain in men's basketball Group B"
p1975
sa(dp1976
g2
S'http://www.reuters.com/article/2012/08/04/us-oly-athl-atm100-rnd1-bolt-day-idUSBRE87308220120804'
p1977
sg4
S'20120804\xc2\xa08:13AM UTC'
p1978
sg6
S'Athletics: Bolt strides into 100 meters semi-finals'
p1979
sa(dp1980
g2
S'http://www.reuters.com/article/2012/08/04/us-oly-badm-wrap-day-idUSBRE87308020120804'
p1981
sg4
S'20120804\xc2\xa08:11AM UTC'
p1982
sg6
S'Badminton: Denmark defies Asia, Russia hail bronze'
p1983
sa(dp1984
g2
S'http://www.reuters.com/article/2012/08/04/oly-yach-sawrsx-idUSL6E8J42LO20120804'
p1985
sg4
S'20120804\xc2\xa08:08AM UTC'
p1986
sg6
S"Olympics-Results of women's sailing RS-X Race 7"
p1987
sa(dp1988
g2
S'http://www.reuters.com/article/2012/08/04/oly-rowi-rowss-idUSL6E8J42OC20120804'
p1989
sg4
S'20120804\xc2\xa08:07AM UTC'
p1990
sg6
S"Olympics-Women's rowing single sculls medal results"
p1991
sa(dp1992
g2
S'http://www.reuters.com/article/2012/08/04/oly-voll-vomvbl-idUSL6E8J42OH20120804'
p1993
sg4
S'20120804\xc2\xa08:05AM UTC'
p1994
sg6
S"Olympics-Poland beat Britain in the men's volleyball group a - results"
p1995
sa(dp1996
g2
S'http://www.reuters.com/article/2012/08/04/oly-athl-atm100-rnd1-bolt-day-idUSL4E8J403U20120804'
p1997
sg4
S'20120804\xc2\xa08:03AM UTC'
p1998
sg6
S'Olympics-Athletics-Bolt strides into 100m semi-finals'
p1999
sa(dp2000
g2
S'http://www.reuters.com/article/2012/08/04/oly-badm-wrap-day-idUSL4E8J403G20120804'
p2001
sg4
S'20120804\xc2\xa08:03AM UTC'
p2002
sg6
S'Olympics-Badminton-Denmark defies Asia, Russia hail bronze'
p2003
sa(dp2004
g2
S'http://www.reuters.com/article/2012/08/04/idUS33637+04-Aug-2012+PRN20120804'
p2005
sg4
S'20120804\xc2\xa08:00AM UTC'
p2006
sg6
S'Following Is a Test Release'
p2007
sa(dp2008
g2
S'http://www.reuters.com/article/2012/08/04/idUS33618+04-Aug-2012+GNW20120804'
p2009
sg4
S'20120804\xc2\xa08:00AM UTC'
p2010
sg6
S'Asiana Grill Yoshinoya Opens Second Store'
p2011
sa(dp2012
g2
S'http://www.reuters.com/article/2012/08/04/idUS33616+04-Aug-2012+GNW20120804'
p2013
sg4
S'20120804\xc2\xa08:00AM UTC'
p2014
sg6
S'Asiana Grill Yoshinoya Opens Second Store'
p2015
sa(dp2016
g2
S'http://www.reuters.com/article/2012/08/04/oly-hand-hbmhbl-idUSL6E8J42LF20120804'
p2017
sg4
S'20120804\xc2\xa08:00AM UTC'
p2018
sg6
S"Olympics-Serbia beat South Korea in men's handball Group B"
p2019
sa(dp2020
g2
S'http://www.reuters.com/article/2012/08/04/us-oly-rowi-rowss-idUSBRE87307V20120804'
p2021
sg4
S'20120804\xc2\xa07:59AM UTC'
p2022
sg6
S"Rowing: Czech's Knapkova takes women's single title"
p2023
sa(dp2024
g2
S'http://www.reuters.com/article/2012/08/04/us-sudan-southsudan-oil-idUSBRE87304Q20120804'
p2025
sg4
S'20120804\xc2\xa07:57AM UTC'
p2026
sg6
S'Sudan confirms oil deal, wants security talks first'
p2027
sa(dp2028
g2
S'http://www.reuters.com/article/2012/08/04/idUS384884999020120804'
p2029
sg4
S'20120804\xc2\xa07:56AM UTC'
p2030
sg6
S'A Mafia in FATA: Haqqanis and Drones'
p2031
sa(dp2032
g2
S'http://www.reuters.com/article/2012/08/04/sudan-southsudan-idUSL6E8J401F20120804'
p2033
sg4
S'20120804\xc2\xa07:54AM UTC'
p2034
sg6
S'UPDATE 3-Sudan, S.Sudan reach oil deal, exports await border deal'
p2035
sa(dp2036
g2
S'http://www.reuters.com/article/2012/08/04/oly-rowi-rowss-idUSL6E8J416S20120804'
p2037
sg4
S'20120804\xc2\xa07:52AM UTC'
p2038
sg6
S"Olympics-Rowing-Czech's Knapkova takes women's single title"
p2039
sa(dp2040
g2
S'http://www.reuters.com/article/2012/08/04/us-sap-target-idUSBRE87307N20120804'
p2041
sg4
S'20120804\xc2\xa07:44AM UTC'
p2042
sg6
S'SAP misses internal mark, to rein in costs: report'
p2043
sa(dp2044
g2
S'http://www.reuters.com/article/2012/08/04/oly-tabt-ttmtem-rnd1-day-idUSL6E8J42IB20120804'
p2045
sg4
S'20120804\xc2\xa07:43AM UTC'
p2046
sg6
S"Olympics-Men's table tennis team first round - results"
p2047
sa(dp2048
g2
S'http://www.reuters.com/article/2012/08/04/sap-target-idUSL6E8J42HM20120804'
p2049
sg4
S'20120804\xc2\xa07:42AM UTC'
p2050
sg6
S'SAP misses internal mark, to rein in costs -report'
p2051
sa(dp2052
g2
S'http://www.reuters.com/article/2012/08/04/oly-rowi-romlds-idUSL6E8J42ID20120804'
p2053
sg4
S'20120804\xc2\xa07:42AM UTC'
p2054
sg6
S"Olympics-Men's rowing lightweight double sculls final results"
p2055
sa(dp2056
g2
S'http://www.reuters.com/article/2012/08/04/us-oly-athl-atm400-rnd1-merritt-day-idUSBRE87307L20120804'
p2057
sg4
S'20120804\xc2\xa07:41AM UTC'
p2058
sg6
S'Athletics: Injured Merritt drops out of 400 meters heat'
p2059
sa(dp2060
g2
S'http://www.reuters.com/article/2012/08/04/us-knightcapital-risk-idUSBRE8721MU20120804'
p2061
sg4
S'20120804\xc2\xa07:38AM UTC'
p2062
sg6
S'Knight Capital filings show scant board duty for tech risk'
p2063
sa(dp2064
g2
S'http://www.reuters.com/article/2012/08/04/knightcapital-risk-idUSL2E8J358320120804'
p2065
sg4
S'20120804\xc2\xa07:37AM UTC'
p2066
sg6
S'REFILE-Knight Capital filings show scant board duty for tech risk'
p2067
sa(dp2068
g2
S'http://www.reuters.com/article/2012/08/04/us-oly-rowi-romlds-idUSBRE87307F20120804'
p2069
sg4
S'20120804\xc2\xa07:36AM UTC'
p2070
sg6
S"Rowing: Denmark snatch men's lightweight double gold"
p2071
sa(dp2072
g2
S'http://www.reuters.com/article/2012/08/04/oly-athl-atw3ks-rnd1-day-idUSL6E8J42I720120804'
p2073
sg4
S'20120804\xc2\xa07:36AM UTC'
p2074
sg6
S"Olympics-Women's 3000m steeplechase first round results"
p2075
sa(dp2076
g2
S'http://www.reuters.com/article/2012/08/04/oly-watp-wpmpol-idUSL6E8J42HY20120804'
p2077
sg4
S'20120804\xc2\xa07:34AM UTC'
p2078
sg6
S"Olympics-Croatia beat Australia in men's water polo Group A"
p2079
sa(dp2080
g2
S'http://www.reuters.com/article/2012/08/04/oly-athl-atm400-rnd1-merritt-day-idUSL6E8J42HI20120804'
p2081
sg4
S'20120804\xc2\xa07:33AM UTC'
p2082
sg6
S'UPDATE 1-Olympics-Athletics-Injured Merritt drops out of 400m heat'
p2083
sa(dp2084
g2
S'http://www.reuters.com/article/2012/08/04/oly-rowi-romlds-idUSL6E8J40V120120804'
p2085
sg4
S'20120804\xc2\xa07:33AM UTC'
p2086
sg6
S"Olympics-Rowing-Denmark snatch men's lightweight double gold"
p2087
sa(dp2088
g2
S'http://www.reuters.com/article/2012/08/04/oly-rowi-wrap-day-idUSL6E8J42GV20120804'
p2089
sg4
S'20120804\xc2\xa07:30AM UTC'
p2090
sg6
S'Olympics-Rowing-Britain takes two golds in 20 minutes'
p2091
sa(dp2092
g2
S'http://www.reuters.com/article/2012/08/04/idUS32278+04-Aug-2012+PRN20120804'
p2093
sg4
S'20120804\xc2\xa07:30AM UTC'
p2094
sg6
S'Following Is a Test Release'
p2095
sa(dp2096
g2
S'http://www.reuters.com/article/2012/08/04/us-oly-athl-atm100-prelim-collins-day-idUSBRE87307720120804'
p2097
sg4
S'20120804\xc2\xa07:29AM UTC'
p2098
sg6
S'Athletics: Angry Collins out of 100 meters'
p2099
sa(dp2100
g2
S'http://www.reuters.com/article/2012/08/04/us-turkey-military-idUSBRE87307120120804'
p2101
sg4
S'20120804\xc2\xa07:20AM UTC'
p2102
sg6
S'Turkish army retires generals jailed on coup charges'
p2103
sa(dp2104
g2
S'http://www.reuters.com/article/2012/08/04/oly-hock-howhky-idUSL6E8J42GJ20120804'
p2105
sg4
S'20120804\xc2\xa07:18AM UTC'
p2106
sg6
S"Olympics-Netherlands beat S.Korea in the women's hockey Pool A"
p2107
sa(dp2108
g2
S'http://www.reuters.com/article/2012/08/04/oly-rowi-romlds-seat-idUSL6E8J42GO20120804'
p2109
sg4
S'20120804\xc2\xa07:17AM UTC'
p2110
sg6
S"Olympics-Rowing-Lightweight men's double restarted after broken seat"
p2111
sa(dp2112
g2
S'http://www.reuters.com/article/2012/08/04/oly-shoo-shwr3x-idUSL6E8J42CN20120804'
p2113
sg4
S'20120804\xc2\xa07:14AM UTC'
p2114
sg6
S"Olympics-Women's shooting 50m rifle 3 positions qualification"
p2115
sa(dp2116
g2
S'http://www.reuters.com/article/2012/08/04/oly-dope-day-idUSL6E8J42G120120804'
p2117
sg4
S'20120804\xc2\xa07:14AM UTC'
p2118
sg6
S'Olympics-IOC temporarily bans Colombian, confirms Baranova out'
p2119
sa(dp2120
g2
S'http://www.reuters.com/article/2012/08/04/oly-boxi-ind-anger-day-idUSL6E8J41Z520120804'
p2121
sg4
S'20120804\xc2\xa07:13AM UTC'
p2122
sg6
S'UPDATE 1-Olympics-Boxing-India cannot appeal overturned decision-AIBA'
p2123
sa(dp2124
g2
S'http://www.reuters.com/article/2012/08/04/us-oly-athl-atm400-rnd1-day-idUSBRE87304R20120804'
p2125
sg4
S'20120804\xc2\xa07:11AM UTC'
p2126
sg6
S'Athletics: Double amputee Pistorius makes 400m bow'
p2127
sa(dp2128
g2
S'http://www.reuters.com/article/2012/08/04/oly-badm-bdwdob-idUSL6E8J42D420120804'
p2129
sg4
S'20120804\xc2\xa07:11AM UTC'
p2130
sg6
S"Olympics-Russia win women's badminton doubles bronze medal"
p2131
sa(dp2132
g2
S'http://www.reuters.com/article/2012/08/04/oly-rowi-rowlds-idUSL6E8J42G020120804'
p2133
sg4
S'20120804\xc2\xa07:08AM UTC'
p2134
sg6
S"Olympics-Women's rowing lightweight double sculls final results"
p2135
sa(dp2136
g2
S'http://www.reuters.com/article/2012/08/04/oly-athl-atm400-rnd1-day-idUSL6E8J41YE20120804'
p2137
sg4
S'20120804\xc2\xa07:07AM UTC'
p2138
sg6
S'UPDATE 1-Olympics-Athletics-Double amputee Pistorius makes 400m bow'
p2139
sa(dp2140
g2
S'http://www.reuters.com/article/2012/08/04/oly-athl-atwhep-idUSL6E8J42CJ20120804'
p2141
sg4
S'20120804\xc2\xa07:06AM UTC'
p2142
sg6
S"Olympics-Women's heptathlon results after long jump"
p2143
sa(dp2144
g2
S'http://www.reuters.com/article/2012/08/04/us-syria-crisis-salaheddine-idUSBRE87306C20120804'
p2145
sg4
S'20120804\xc2\xa07:05AM UTC'
p2146
sg6
S'Syrian army makes push into Aleppo battleground district'
p2147
sa(dp2148
g2
S'http://www.reuters.com/article/2012/08/04/us-oly-rowi-rowlds-idUSBRE87306820120804'
p2149
sg4
S'20120804\xc2\xa07:04AM UTC'
p2150
sg6
S'Rowing: Britain takes second rowing gold in 20 minutes'
p2151
sa(dp2152
g2
S'http://www.reuters.com/article/2012/08/04/hongkong-spill-idUSL4E8J403320120804'
p2153
sg4
S'20120804\xc2\xa07:04AM UTC'
p2154
sg6
S'Hong Kong govt criticised over plastic spill on beaches'
p2155
sa(dp2156
g2
S'http://www.reuters.com/article/2012/08/04/us-oly-cycl-ctmspr-wrap-day-idUSBRE87304V20120804'
p2157
sg4
S'20120804\xc2\xa07:02AM UTC'
p2158
sg6
S'Cycling: Kenny beats nobody in sprint match'
p2159
sa(dp2160
g2
S'http://www.reuters.com/article/2012/08/04/idUS30723+04-Aug-2012+PRN20120804'
p2161
sg4
S'20120804\xc2\xa07:00AM UTC'
p2162
sg6
S'Following Is a Test Release'
p2163
sa(dp2164
g2
S'http://www.reuters.com/article/2012/08/04/oly-rowi-rowlds-idUSL6E8J40UY20120804'
p2165
sg4
S'20120804\xc2\xa07:00AM UTC'
p2166
sg6
S'Olympics-Rowing-Britain takes second rowing gold in 20 minutes'
p2167
sa(dp2168
g2
S'http://www.reuters.com/article/2012/08/04/syria-crisis-salaheddine-idUSL6E8J42CD20120804'
p2169
sg4
S'20120804\xc2\xa07:00AM UTC'
p2170
sg6
S'Syrian army makes push into Aleppo battleground district'
p2171
sa(dp2172
g2
S'http://www.reuters.com/article/2012/08/04/idUS30700+04-Aug-2012+MW20120804'
p2173
sg4
S'20120804\xc2\xa07:00AM UTC'
p2174
sg6
S" Orinda Annual Classic Car Show Supports Seniors' Ride Program"
p2175
sa(dp2176
g2
S'http://www.reuters.com/article/2012/08/04/us-oly-rowi-rom-idUSBRE87305P20120804'
p2177
sg4
S'20120804\xc2\xa06:59AM UTC'
p2178
sg6
S"Rowing: Britain storm to gold in men's four"
p2179
sa(dp2180
g2
S'http://www.reuters.com/article/2012/08/04/oly-athl-atm400-rnd1-merritt-day-idUSL6E8J428X20120804'
p2181
sg4
S'20120804\xc2\xa06:57AM UTC'
p2182
sg6
S'Olympics-Athletics-Injured Merritt drops out of 400m heat'
p2183
sa(dp2184
g2
S'http://www.reuters.com/article/2012/08/04/us-oly-athl-atm100-prelim-slowest-day-idUSBRE87305Y20120804'
p2185
sg4
S'20120804\xc2\xa06:57AM UTC'
p2186
sg6
S'Athletics: Punctuality not enough for slowest sprinter'
p2187
sa(dp2188
g2
S'http://www.reuters.com/article/2012/08/04/oly-cycl-ctmspr-last32-day-idUSL6E8J42B320120804'
p2189
sg4
S'20120804\xc2\xa06:56AM UTC'
p2190
sg6
S"Olympics-Men's cycling-track sprint last 32 results"
p2191
sa(dp2192
g2
S'http://www.reuters.com/article/2012/08/04/oly-rowi-rom-idUSL6E8J42AS20120804'
p2193
sg4
S'20120804\xc2\xa06:55AM UTC'
p2194
sg6
S"UPDATE 1-Olympics-Rowing-Britain storm to gold in men's four"
p2195
sa(dp2196
g2
S'http://www.reuters.com/article/2012/08/04/oly-athl-atm100-prelim-slowest-day-idUSL4E8J403B20120804'
p2197
sg4
S'20120804\xc2\xa06:54AM UTC'
p2198
sg6
S'Olympics-Athletics-Punctuality not enough for slowest sprinter'
p2199
sa(dp2200
g2
S'http://www.reuters.com/article/2012/08/04/us-uganda-ebola-idUSBRE8721D020120804'
p2201
sg4
S'20120804\xc2\xa06:51AM UTC'
p2202
sg6
S'Some Ugandan Ebola patients likely to survive: doctors'
p2203
sa(dp2204
g2
S'http://www.reuters.com/article/2012/08/04/us-oly-gbr-fashion-day-idUSBRE8720S020120804'
p2205
sg4
S'20120804\xc2\xa06:50AM UTC'
p2206
sg6
S'"Atrocious" outfits horrify London style tsars'
p2207
sa(dp2208
g2
S'http://www.reuters.com/article/2012/08/04/oly-rowi-rom-idUSL6E8J42B020120804'
p2209
sg4
S'20120804\xc2\xa06:48AM UTC'
p2210
sg6
S"Olympics-Men's rowing four final results"
p2211
sa(dp2212
g2
S'http://www.reuters.com/article/2012/08/04/us-oly-athl-atm4x4-rudisha-day-idUSBRE87305R20120804'
p2213
sg4
S'20120804\xc2\xa06:48AM UTC'
p2214
sg6
S'Athletics: Rudisha to run 4x400 relay'
p2215
sa(dp2216
g2
S'http://www.reuters.com/article/2012/08/04/oly-athl-atm400-rnd1-day-idUSL6E8J42AO20120804'
p2217
sg4
S'20120804\xc2\xa06:46AM UTC'
p2218
sg6
S"Olympics-Men's athletics 400m first round - results"
p2219
sa(dp2220
g2
S'http://www.reuters.com/article/2012/08/04/idUS30008+04-Aug-2012+MW20120804'
p2221
sg4
S'20120804\xc2\xa06:45AM UTC'
p2222
sg6
S" Krishan Agarwal Leads Melrose.com to Become World's 604th Largest Internet Retailer"
p2223
sa(dp2224
g2
S'http://www.reuters.com/article/2012/08/04/oly-athl-atm4x4-rudisha-day-idUSL6E8J41YL20120804'
p2225
sg4
S'20120804\xc2\xa06:42AM UTC'
p2226
sg6
S'UPDATE 1-Olympics-Athletics-Rudisha to run 4x400 relay'
p2227
sa(dp2228
g2
S'http://www.reuters.com/article/2012/08/04/oly-fenc-fewtep-idUSL6E8J429820120804'
p2229
sg4
S'20120804\xc2\xa06:41AM UTC'
p2230
sg6
S"Olympics-Women's fencing team epee quarter-final results"
p2231
sa(dp2232
g2
S'http://www.reuters.com/article/2012/08/04/oly-rowi-rom-idUSL6E8J429U20120804'
p2233
sg4
S'20120804\xc2\xa06:40AM UTC'
p2234
sg6
S"Olympics-Rowing-Britain storm to gold in men's four"
p2235
sa(dp2236
g2
S'http://www.reuters.com/article/2012/08/04/afghanistan-pakistan-rockets-idUSL4E8J402L20120804'
p2237
sg4
S'20120804\xc2\xa06:40AM UTC'
p2238
sg6
S'UPDATE 1-Afghan parlt votes to dismiss defence, interior ministers'
p2239
sa(dp2240
g2
S'http://www.reuters.com/article/2012/08/04/oly-tria-trwtri-idUSL6E8J429120120804'
p2241
sg4
S'20120804\xc2\xa06:36AM UTC'
p2242
sg6
S"Olympics-Gold medal results for the women's triathlon"
p2243
sa(dp2244
g2
S'http://www.reuters.com/article/2012/08/04/idUS29229+04-Aug-2012+PRN20120804'
p2245
sg4
S'20120804\xc2\xa06:30AM UTC'
p2246
sg6
S'Following Is a Test Release'
p2247
sa(dp2248
g2
S'http://www.reuters.com/article/2012/08/04/us-oly-badm-bdmdob-idUSBRE87305D20120804'
p2249
sg4
S'20120804\xc2\xa06:25AM UTC'
p2250
sg6
S"Badminton: Danes, Chinese reach men's doubles final"
p2251
sa(dp2252
g2
S'http://www.reuters.com/article/2012/08/04/oly-badm-bdmdob-idUSL6E8J41Z720120804'
p2253
sg4
S'20120804\xc2\xa06:24AM UTC'
p2254
sg6
S"Olympics-Denmark beat S.Korea in men's badminton doubles semis"
p2255
sa(dp2256
g2
S'http://www.reuters.com/article/2012/08/04/us-oly-cycl-ctmomn-wrap-day-idUSBRE87305B20120804'
p2257
sg4
S'20120804\xc2\xa06:21AM UTC'
p2258
sg6
S"Cycling: Britain's Clancy takes omnium early lead"
p2259
sa(dp2260
g2
S'http://www.reuters.com/article/2012/08/04/oly-badm-bdmdob-idUSL6E8J40VD20120804'
p2261
sg4
S'20120804\xc2\xa06:21AM UTC'
p2262
sg6
S"UPDATE 1-Olympics-Badminton-Danes, Chinese reach men's doubles final"
p2263
sa(dp2264
g2
S'http://www.reuters.com/article/2012/08/04/oly-cycl-ctmspr-idUSL6E8J41YR20120804'
p2265
sg4
S'20120804\xc2\xa06:20AM UTC'
p2266
sg6
S"Olympics-Men's cycling-track sprint qualification results"
p2267
sa(dp2268
g2
S'http://www.reuters.com/article/2012/08/04/oly-watp-wpmpol-idUSL6E8J41YC20120804'
p2269
sg4
S'20120804\xc2\xa06:16AM UTC'
p2270
sg6
S"Olympics-Montenegro beat Romania in men's water polo Group B"
p2271
sa(dp2272
g2
S'http://www.reuters.com/article/2012/08/04/us-oly-voll-bvvol-wrap-day-idUSBRE87305220120804'
p2273
sg4
S'20120804\xc2\xa06:16AM UTC'
p2274
sg6
S'Beach volleyball: Cheerful Chinese get Russian revenge'
p2275
sa(dp2276
g2
S'http://www.reuters.com/article/2012/08/04/oly-cycl-ctmomn-wrap-day-idUSL6E8J41YF20120804'
p2277
sg4
S'20120804\xc2\xa06:16AM UTC'
p2278
sg6
S"Olympics-Cycling-Britain's Clancy takes omnium early lead"
p2279
sa(dp2280
g2
S'http://www.reuters.com/article/2012/08/04/oly-tria-trwtri-idUSL6E8J41YJ20120804'
p2281
sg4
S'20120804\xc2\xa06:15AM UTC'
p2282
sg6
S"Olympics-Gold medal results for women's triathlon"
p2283
sa(dp2284
g2
S'http://www.reuters.com/article/2012/08/04/oly-voll-bvvol-wrap-day-idUSL6E8J416V20120804'
p2285
sg4
S'20120804\xc2\xa06:12AM UTC'
p2286
sg6
S'Olympics-Beach volleyball-Cheerful Chinese get Russian revenge'
p2287
sa(dp2288
g2
S'http://www.reuters.com/article/2012/08/04/oly-athl-atm4x4-rudisha-day-idUSL6E8J41Q020120804'
p2289
sg4
S'20120804\xc2\xa06:12AM UTC'
p2290
sg6
S'Olympics-Athletics-Rudisha to run in 4x400 relay'
p2291
sa(dp2292
g2
S'http://www.reuters.com/article/2012/08/04/oly-hand-hbmhbl-idUSL6E8J41Q120120804'
p2293
sg4
S'20120804\xc2\xa06:09AM UTC'
p2294
sg6
S"Olympics-Tunisia beat Britain in men's handball Group A"
p2295
sa(dp2296
g2
S'http://www.reuters.com/article/2012/08/04/oly-tria-trwtri-day-idUSL6E8J41X420120804'
p2297
sg4
S'20120804\xc2\xa06:08AM UTC'
p2298
sg6
S'Olympics-Triathlon-Spirig wins gold for Switzerland'
p2299
sa(dp2300
g2
S'http://www.reuters.com/article/2012/08/04/us-libya-bombing-military-idUSBRE87303520120804'
p2301
sg4
S'20120804\xc2\xa06:06AM UTC'
p2302
sg6
S"Car bomb explodes in Tripoli, first since Gaddafi's fall"
p2303
sa(dp2304
g2
S'http://www.reuters.com/article/2012/08/04/oly-voll-vomvbl-idUSL6E8J41NO20120804'
p2305
sg4
S'20120804\xc2\xa06:02AM UTC'
p2306
sg6
S"Olympics-Germany beat Tunisia in the men's volleyball Group B"
p2307
sa(dp2308
g2
S'http://www.reuters.com/article/2012/08/04/us-korea-north-aid-idUSBRE87303N20120804'
p2309
sg4
S'20120804\xc2\xa06:01AM UTC'
p2310
sg6
S'U.N. to send food aid to flood-hit North Korea'
p2311
sa(dp2312
g2
S'http://www.reuters.com/article/2012/08/04/idUS27720+04-Aug-2012+PRN20120804'
p2313
sg4
S'20120804\xc2\xa06:00AM UTC'
p2314
sg6
S'Following Is a Test Release'
p2315
sa(dp2316
g2
S'http://www.reuters.com/article/2012/08/04/idUS27670+04-Aug-2012+PRN20120804'
p2317
sg4
S'20120804\xc2\xa05:59AM UTC'
p2318
sg6
S'GOOD MORNING'
p2319
sa(dp2320
g2
S'http://www.reuters.com/article/2012/08/04/oly-athl-atm100-prelim-day-idUSL6E8J41NM20120804'
p2321
sg4
S'20120804\xc2\xa05:58AM UTC'
p2322
sg6
S"Olympics-Men's athletics 100m heats - results"
p2323
sa(dp2324
g2
S'http://www.reuters.com/article/2012/08/04/oly-voll-bvmvol-idUSL6E8J41KJ20120804'
p2325
sg4
S'20120804\xc2\xa05:55AM UTC'
p2326
sg6
S"Olympics-Brazil beat Germany in men's beach volleyball Last 16"
p2327
sa(dp2328
g2
S'http://www.reuters.com/article/2012/08/04/oly-cycl-ctmspr-wrap-day-idUSL6E8J41NK20120804'
p2329
sg4
S'20120804\xc2\xa05:55AM UTC'
p2330
sg6
S'Olympics-Cycling-Kenny lays down marker in sprint qualifying'
p2331
sa(dp2332
g2
S'http://www.reuters.com/article/2012/08/04/oly-bask-bkmbbl-idUSL6E8J41KI20120804'
p2333
sg4
S'20120804\xc2\xa05:50AM UTC'
p2334
sg6
S"Olympics-France beat Tunisia in men's basketball Group A"
p2335
sa(dp2336
g2
S'http://www.reuters.com/article/2012/08/04/oly-athl-atm400-rnd1-day-idUSL6E8J416Q20120804'
p2337
sg4
S'20120804\xc2\xa05:47AM UTC'
p2338
sg6
S'Olympics-Athletics-Double amputee Pistorius makes 400m bow'
p2339
sa(dp2340
g2
S'http://www.reuters.com/article/2012/08/04/soccer-spain-tv-idUSL6E8J40PS20120804'
p2341
sg4
S'20120804\xc2\xa05:46AM UTC'
p2342
sg6
S'Soccer-Atletico CEO issues stark warning over La Liga TV rights'
p2343
sa(dp2344
g2
S'http://www.reuters.com/article/2012/08/04/sudan-southsudan-oil-idUSL6E8J416P20120804'
p2345
sg4
S'20120804\xc2\xa05:46AM UTC'
p2346
sg6
S'Sudan confirms oil deal, wants security talks first'
p2347
sa(dp2348
g2
S'http://www.reuters.com/article/2012/08/04/syria-crisis-idUSL6E8J40PP20120804'
p2349
sg4
S'20120804\xc2\xa05:46AM UTC'
p2350
sg6
S'WRAPUP 1-Syrian army, rebels clash near Aleppo TV station'
p2351
sa(dp2352
g2
S'http://www.reuters.com/article/2012/08/04/iran-missile-idUSL6E8J416N20120804'
p2353
sg4
S'20120804\xc2\xa05:35AM UTC'
p2354
sg6
S'Iran test fires short-range missile - defence minister'
p2355
sa(dp2356
g2
S'http://www.reuters.com/article/2012/08/04/idUS26714+04-Aug-2012+PRN20120804'
p2357
sg4
S'20120804\xc2\xa05:30AM UTC'
p2358
sg6
S'Following Is a Test Release'
p2359
sa(dp2360
g2
S'http://www.reuters.com/article/2012/08/04/us-korea-north-chef-idUSBRE87304B20120804'
p2361
sg4
S'20120804\xc2\xa05:29AM UTC'
p2362
sg6
S"Japanese chef meets North Korea's Kim and wife: reports"
p2363
sa(dp2364
g2
S'http://www.reuters.com/article/2012/08/04/oly-medals-idUSL6E8J413D20120804'
p2365
sg4
S'20120804\xc2\xa05:27AM UTC'
p2366
sg6
S'Olympics-Complete medals table at end of Day Seven'
p2367
sa(dp2368
g2
S'http://www.reuters.com/article/2012/08/04/us-syria-crisis-china-idUSBRE87304720120804'
p2369
sg4
S'20120804\xc2\xa05:27AM UTC'
p2370
sg6
S'China hits back at West after Syria U.N. vote'
p2371
sa(dp2372
g2
S'http://www.reuters.com/article/2012/08/04/korea-north-chef-idUSL4E8J401U20120804'
p2373
sg4
S'20120804\xc2\xa05:25AM UTC'
p2374
sg6
S"Japanese chef meets North Korea's Kim and wife-reports"
p2375
sa(dp2376
g2
S'http://www.reuters.com/article/2012/08/04/us-oly-rowi-aus-booth-day-idUSBRE87303Z20120804'
p2377
sg4
S'20120804\xc2\xa05:16AM UTC'
p2378
sg6
S'Rowing: Booth to be sent home after shop damage'
p2379
sa(dp2380
g2
S'http://www.reuters.com/article/2012/08/04/oly-wrap-day7-repe-idUSL6E8J40V820120804'
p2381
sg4
S'20120804\xc2\xa05:13AM UTC'
p2382
sg6
S'WRAPUP 2-Olympics-Games welcome Bolt, say goodbye to Phelps'
p2383
sa(dp2384
g2
S'http://www.reuters.com/article/2012/08/04/oly-hock-howhky-idUSL6E8J40V420120804'
p2385
sg4
S'20120804\xc2\xa05:11AM UTC'
p2386
sg6
S"Olympics-Australia beat South Africa in women's hockey Pool B"
p2387
sa(dp2388
g2
S'http://www.reuters.com/article/2012/08/04/us-oly-wrap-eod-day-idUSBRE87300W20120804'
p2389
sg4
S'20120804\xc2\xa05:06AM UTC'
p2390
sg6
S'Games welcome Bolt, say goodbye to Phelps'
p2391
sa(dp2392
g2
S'http://www.reuters.com/article/2012/08/04/us-markets-stocks-idUSBRE86M08N20120804'
p2393
sg4
S'20120804\xc2\xa05:00AM UTC'
p2394
sg6
S'Futures rise after four-day slide ahead of payrolls'
p2395
sa(dp2396
g2
S'http://www.reuters.com/article/2012/08/04/idUS25897+04-Aug-2012+PRN20120804'
p2397
sg4
S'20120804\xc2\xa05:00AM UTC'
p2398
sg6
S'Following Is a Test Release'
p2399
sa(dp2400
g2
S'http://www.reuters.com/article/2012/08/04/us-oly-boxi-ind-anger-day-idUSBRE87303V20120804'
p2401
sg4
S'20120804\xc2\xa04:55AM UTC'
p2402
sg6
S'Boxing: India to appeal against overturned decision'
p2403
sa(dp2404
g2
S'http://www.reuters.com/article/2012/08/04/oly-boxi-ind-anger-day-idUSL4E8J402020120804'
p2405
sg4
S'20120804\xc2\xa04:51AM UTC'
p2406
sg6
S'Olympics-Boxing-India to appeal against overturned decision'
p2407
sa(dp2408
g2
S'http://www.reuters.com/article/2012/08/04/oly-badm-bdmdob-idUSL6E8J40UK20120804'
p2409
sg4
S'20120804\xc2\xa04:49AM UTC'
p2410
sg6
S"Olympics-China beat Malaysia in men's badminton doubles semis"
p2411
sa(dp2412
g2
S'http://www.reuters.com/article/2012/08/04/oly-badm-bdmdob-idUSL4E8J402M20120804'
p2413
sg4
S'20120804\xc2\xa04:48AM UTC'
p2414
sg6
S"Olympics-Badminton-China's Cai and Fu reach men's doubles final"
p2415
sa(dp2416
g2
S'http://www.reuters.com/article/2012/08/04/oly-voll-bvwvol-idUSL6E8J40UC20120804'
p2417
sg4
S'20120804\xc2\xa04:45AM UTC'
p2418
sg6
S"Olympics-Women's beach volleyball last 16 results"
p2419
sa(dp2420
g2
S'http://www.reuters.com/article/2012/08/04/us-saudi-shooting-idUSBRE87303J20120804'
p2421
sg4
S'20120804\xc2\xa04:34AM UTC'
p2422
sg6
S"Saudi Arabia says two killed, including a soldier, in Shi'ite area"
p2423
sa(dp2424
g2
S'http://www.reuters.com/article/2012/08/04/saudi-shooting-idUSL6E8J40N520120804'
p2425
sg4
S'20120804\xc2\xa04:33AM UTC'
p2426
sg6
S"UPDATE 1-Saudi Arabia says two killed, including a soldier, in Shi'ite area"
p2427
sa(dp2428
g2
S'http://www.reuters.com/article/2012/08/04/idUS25120+04-Aug-2012+PRN20120804'
p2429
sg4
S'20120804\xc2\xa04:30AM UTC'
p2430
sg6
S'Following Is a Test Release'
p2431
sa(dp2432
g2
S'http://www.reuters.com/article/2012/08/04/pharming-idUSL6E8J408G20120804'
p2433
sg4
S'20120804\xc2\xa04:29AM UTC'
p2434
sg6
S'Pharming CFO to step down at end of August'
p2435
sa(dp2436
g2
S'http://www.reuters.com/article/2012/08/04/us-oly-socc-fbwsoc-japan-idUSBRE87303P20120804'
p2437
sg4
S'20120804\xc2\xa04:26AM UTC'
p2438
sg6
S'Soccer: Japan coach denies rule-bending'
p2439
sa(dp2440
g2
S'http://www.reuters.com/article/2012/08/04/oly-socc-fbwsoc-japan-idUSL6E8J40PQ20120804'
p2441
sg4
S'20120804\xc2\xa04:24AM UTC'
p2442
sg6
S'Olympics-Soccer-Japan coach denies rule-bending'
p2443
sa(dp2444
g2
S'http://www.reuters.com/article/2012/08/04/idUS24512+04-Aug-2012+PRN20120804'
p2445
sg4
S'20120804\xc2\xa04:00AM UTC'
p2446
sg6
S'Following Is a Test Release'
p2447
sa(dp2448
g2
S'http://www.reuters.com/article/2012/08/04/idUS214315509420120804'
p2449
sg4
S'20120804\xc2\xa03:42AM UTC'
p2450
sg6
S'Marissa Mayer and Menlo Ventures invest $13.9M in Getaround'
p2451
sa(dp2452
g2
S'http://www.reuters.com/article/2012/08/04/idUS24107+04-Aug-2012+PRN20120804'
p2453
sg4
S'20120804\xc2\xa03:30AM UTC'
p2454
sg6
S'Following Is a Test Release'
p2455
sa(dp2456
g2
S'http://www.reuters.com/article/2012/08/04/saudi-shooting-idUSL6E8J40K320120804'
p2457
sg4
S'20120804\xc2\xa03:18AM UTC'
p2458
sg6
S"Saudi Arabia says one soldier killed and another wounded in Shi'ite area"
p2459
sa(dp2460
g2
S'http://www.reuters.com/article/2012/08/04/idUS23767+04-Aug-2012+GNW20120804'
p2461
sg4
S'20120804\xc2\xa03:10AM UTC'
p2462
sg6
S'AMX Builds Playhouse to Support Dallas CASA, Dedicated to Finding Safe Homes for Abused Children'
p2463
sa(dp2464
g2
S'http://www.reuters.com/article/2012/08/04/idUS23761+04-Aug-2012+GNW20120804'
p2465
sg4
S'20120804\xc2\xa03:10AM UTC'
p2466
sg6
S'AMX Builds Playhouse to Support Dallas CASA, Dedicated to Finding Safe Homes for Abused Children'
p2467
sa(dp2468
g2
S'http://www.reuters.com/article/2012/08/04/us-oly-boxi-us-day-idUSBRE87302L20120804'
p2469
sg4
S'20120804\xc2\xa03:08AM UTC'
p2470
sg6
S'Boxing: U.S. handed lifeline after defeat overturned'
p2471
sa(dp2472
g2
S'http://www.reuters.com/article/2012/08/04/us-oly-cycl-pine-day-idUSBRE87303E20120804'
p2473
sg4
S'20120804\xc2\xa03:01AM UTC'
p2474
sg6
S'Riders declare Siberian Pine a real good wood'
p2475
sa(dp2476
g2
S'http://www.reuters.com/article/2012/08/04/oly-cycl-pine-day-idUSL6E8J40DY20120804'
p2477
sg4
S'20120804\xc2\xa03:00AM UTC'
p2478
sg6
S'Olympics-Cycling-Riders declare Siberian Pine a real good wood'
p2479
sa(dp2480
g2
S'http://www.reuters.com/article/2012/08/04/idUS23628+04-Aug-2012+PRN20120804'
p2481
sg4
S'20120804\xc2\xa03:00AM UTC'
p2482
sg6
S'Following Is a Test Release'
p2483
sa(dp2484
g2
S'http://www.reuters.com/article/2012/08/04/idUS23578+04-Aug-2012+MW20120804'
p2485
sg4
S'20120804\xc2\xa02:54AM UTC'
p2486
sg6
S' CFIA/Allergy Alert: Undeclared Milk in Various Crispy Just Baked, Crispy, and Sunrize Oven Fresh Brands of Cookies'
p2487
sa(dp2488
g2
S'http://www.reuters.com/article/2012/08/04/us-usa-japan-beef-idUSBRE87303C20120804'
p2489
sg4
S'20120804\xc2\xa02:36AM UTC'
p2490
sg6
S'U.S. to resume beef imports from Japan after two-year ban'
p2491
sa(dp2492
g2
S'http://www.reuters.com/article/2012/08/04/usa-japan-beef-idUSL4E8J401P20120804'
p2493
sg4
S'20120804\xc2\xa02:33AM UTC'
p2494
sg6
S'U.S. to resume beef imports from Japan after two-year ban'
p2495
sa(dp2496
g2
S'http://www.reuters.com/article/2012/08/04/idUS23255+04-Aug-2012+PRN20120804'
p2497
sg4
S'20120804\xc2\xa02:30AM UTC'
p2498
sg6
S'Following Is a Test Release'
p2499
sa(dp2500
g2
S'http://www.reuters.com/article/2012/08/04/idUS22622+04-Aug-2012+MW20120804'
p2501
sg4
S'20120804\xc2\xa02:10AM UTC'
p2502
sg6
S' CFIA/Health Hazard Alert: Spice Kingdom Brand Dried Egyptian Basil May Contain Salmonella Bacteria'
p2503
sa(dp2504
g2
S'http://www.reuters.com/article/2012/08/04/idUS22340+04-Aug-2012+PRN20120804'
p2505
sg4
S'20120804\xc2\xa02:00AM UTC'
p2506
sg6
S'Following Is a Test Release'
p2507
sa(dp2508
g2
S'http://www.reuters.com/article/2012/08/04/idUS22060+04-Aug-2012+PRN20120804'
p2509
sg4
S'20120804\xc2\xa01:30AM UTC'
p2510
sg6
S'Following Is a Test Release'
p2511
sa(dp2512
g2
S'http://www.reuters.com/article/2012/08/04/us-india-blackout-idUSBRE87303320120804'
p2513
sg4
S'20120804\xc2\xa01:14AM UTC'
p2514
sg6
S'India needs strict controls to avoid blackouts: power firm'
p2515
sa(dp2516
g2
S'http://www.reuters.com/article/2012/08/04/idUS21724+04-Aug-2012+PRN20120804'
p2517
sg4
S'20120804\xc2\xa01:08AM UTC'
p2518
sg6
S'24 Asset Management Corporation and National Association of Real Estate Brokers (NAREB\xc2\xae) Progress to Phase II in "Boots on the Ground" Effort to Preserve Homeownership through NAREB\'s\xc2\xae Homeowner\'s Assurance Program (HAP)'
p2519
sa(dp2520
g2
S'http://www.reuters.com/article/2012/08/04/idUS21639+04-Aug-2012+PRN20120804'
p2521
sg4
S'20120804\xc2\xa01:00AM UTC'
p2522
sg6
S'Following Is a Test Release'
p2523
sa(dp2524
g2
S'http://www.reuters.com/article/2012/08/04/idUS21610+04-Aug-2012+PRN20120804'
p2525
sg4
S'20120804\xc2\xa012:56AM UTC'
p2526
sg6
S'K-V Pharmaceutical Company Files Voluntary Petitions for Reorganization to Restructure Financial Obligations'
p2527
sa(dp2528
g2
S'http://www.reuters.com/article/2012/08/04/us-mexico-mine-idUSBRE87219C20120804'
p2529
sg4
S'20120804\xc2\xa012:41AM UTC'
p2530
sg6
S'Six killed in Mexico coal mine explosion'
p2531
sa(dp2532
g2
S'http://www.reuters.com/article/2012/08/04/idUS21381+04-Aug-2012+PRN20120804'
p2533
sg4
S'20120804\xc2\xa012:30AM UTC'
p2534
sg6
S'Following Is a Test Release'
p2535
sa(dp2536
g2
S'http://www.reuters.com/article/2012/08/04/idUS20404+04-Aug-2012+PRN20120804'
p2537
sg4
S'20120804\xc2\xa012:01AM UTC'
p2538
sg6
S'U.S. Census Bureau Daily Feature for August 4'
p2539
sa(dp2540
g2
S'http://www.reuters.com/article/2012/08/04/idUS20328+04-Aug-2012+PRN20120804'
p2541
sg4
S'20120804\xc2\xa012:00AM UTC'
p2542
sg6
S'Following Is a Test Release'
p2543
sa(dp2544
g2
S'http://www.reuters.com/news/video/videoStory?storyID=44737629'
p2545
sg4
S'20120804\xc2\xa08:20PM UTC'
p2546
sg6
S'Helicopters rescue typhoon stranded'
p2547
sa(dp2548
g2
S'http://www.reuters.com/news/video/videoStory?storyID=44720807'
p2549
sg4
S'20120804\xc2\xa05:55PM UTC'
p2550
sg6
S'A royal surprise as Australian athletes meet Prince William and Kate'
p2551
sa(dp2552
g2
S'http://www.reuters.com/news/video/videoStory?storyID=44720861'
p2553
sg4
S'20120804\xc2\xa05:53PM UTC'
p2554
sg6
S"Bhutan's Olympics team tour Olympic park"
p2555
sa(dp2556
g2
S'http://www.reuters.com/news/video/videoStory?storyID=44719700'
p2557
sg4
S'20120804\xc2\xa04:40PM UTC'
p2558
sg6
S'Funeral for rebels.'
p2559
sa(dp2560
g2
S'http://www.reuters.com/news/video/videoStory?storyID=44718563'
p2561
sg4
S'20120804\xc2\xa03:53PM UTC'
p2562
sg6
S'Battlefield Aleppo.'
p2563
sa(dp2564
g2
S'http://www.reuters.com/news/video/videoStory?storyID=44717426'
p2565
sg4
S'20120804\xc2\xa02:26PM UTC'
p2566
sg6
S"The dogs of Bolivia's drug wars."
p2567
sa(dp2568
g2
S'http://www.reuters.com/news/video/videoStory?storyID=44714005'
p2569
sg4
S'20120804\xc2\xa012:16PM UTC'
p2570
sg6
S'Clinton urges Kenya to hold free, fair elections'
p2571
sa(dp2572
g2
S'http://www.reuters.com/news/video/videoStory?storyID=44712376'
p2573
sg4
S'20120804\xc2\xa011:06AM UTC'
p2574
sg6
S'In search of signs of life on Mars'
p2575
sa(dp2576
g2
S'http://www.reuters.com/news/video/videoStory?storyID=44710666'
p2577
sg4
S'20120804\xc2\xa010:03AM UTC'
p2578
sg6
S'Iran test fires short-range missile'
p2579
sa(dp2580
g2
S'http://www.reuters.com/news/video/videoStory?storyID=44708656'
p2581
sg4
S'20120804\xc2\xa09:14AM UTC'
p2582
sg6
S'Sudan and South Sudan close to resolving oil dispute'
p2583
sa(dp2584
g2
S'http://www.reuters.com/news/video/videoStory?storyID=44705145'
p2585
sg4
S'20120804\xc2\xa07:18AM UTC'
p2586
sg6
S'Controversial aircraft tops US-Japan defence talks agenda'
p2587
sa(dp2588
g2
S'http://www.reuters.com/news/video/videoStory?storyID=44704987'
p2589
sg4
S'20120804\xc2\xa07:15AM UTC'
p2590
sg6
S'Hillary Clinton arrives in Kenya'
p2591
sa(dp2592
g2
S'http://www.reuters.com/news/video/videoStory?storyID=44704156'
p2593
sg4
S'20120804\xc2\xa06:36AM UTC'
p2594
sg6
S'Indian thunderstorms trigger flash floods and landslides'
p2595
sa(dp2596
g2
S'http://www.reuters.com/news/video/videoStory?storyID=44704058'
p2597
sg4
S'20120804\xc2\xa06:32AM UTC'
p2598
sg6
S'Olympics "Super Saturday" gets under way'
p2599
sa(dp2600
g2
S'http://www.reuters.com/news/video/videoStory?storyID=44702013'
p2601
sg4
S'20120804\xc2\xa04:58AM UTC'
p2602
sg6
S'Peru burns 50-tonnes of marijuana'
p2603
sa(dp2604
g2
S'http://www.reuters.com/news/video/videoStory?storyID=44700845'
p2605
sg4
S'20120804\xc2\xa02:46AM UTC'
p2606
sg6
S'Typhoons leave destruction in China'
p2607
sa(dp2608
g2
S'http://www.reuters.com/news/video/videoStory?storyID=44699653'
p2609
sg4
S'20120804\xc2\xa02:02AM UTC'
p2610
sg6
S'Chick-fil-A faces "kiss-in" protest in gay marriage flap'
p2611
sa.