(lp0
(dp1
S'href'
p2
S'http://www.reuters.com/article/2012/05/21/us-brokerage-mint-idUSBRE84K04P20120521'
p3
sS'ts'
p4
S'20120520\xc2\xa011:58PM UTC'
p5
sS'title'
p6
S'Brokerage Mint Partners to start Singapore operations: sources'
p7
sa(dp8
g2
S'http://www.reuters.com/article/2012/05/21/markets-oil-idUSL4E8GL1AZ20120521'
p9
sg4
S'20120520\xc2\xa011:58PM UTC'
p10
sg6
S'Brent recovers towards $108 on possible China growth stimulus'
p11
sa(dp12
g2
S'http://www.reuters.com/article/2012/05/21/brokerage-mint-idUSL4E8GG98320120521'
p13
sg4
S'20120520\xc2\xa011:57PM UTC'
p14
sg6
S'Brokerage Mint Partners to start Singapore operations -sources'
p15
sa(dp16
g2
S'http://www.reuters.com/article/2012/05/21/idUS31725+21-May-2012+PRN20120521'
p17
sg4
S'20120520\xc2\xa011:55PM UTC'
p18
sg6
S'Summit ESP launches new business'
p19
sa(dp20
g2
S'http://www.reuters.com/article/2012/05/21/us-usa-campaign-money-wealthy-idUSBRE84K04K20120521'
p21
sg4
S'20120520\xc2\xa011:53PM UTC'
p22
sg6
S'Factbox: The wealthy behind presidential race'
p23
sa(dp24
g2
S'http://www.reuters.com/article/2012/05/21/malaysia-tin-idUSL4E8GL1C620120521'
p25
sg4
S'20120520\xc2\xa011:52PM UTC'
p26
sg6
S"Malaysia's closing tin prices for May 21"
p27
sa(dp28
g2
S'http://www.reuters.com/article/2012/05/21/idUS31088+21-May-2012+PRN20120521'
p29
sg4
S'20120520\xc2\xa011:45PM UTC'
p30
sg6
S'TCL Multimedia Surged to Top Five Global LCD TV Market Share, and Expected to Further Benefit from the Latest Energy-saving Home Appliance Subsidy Program'
p31
sa(dp32
g2
S'http://www.reuters.com/article/2012/05/21/markets-forex-idUSL4E8GL19920120521'
p33
sg4
S'20120520\xc2\xa011:43PM UTC'
p34
sg6
S'FOREX-Euro bounces off 4-month low, but remains under pressure'
p35
sa(dp36
g2
S'http://www.reuters.com/article/2012/05/21/us-serbia-election-nikolic-idUSBRE84J0AF20120521'
p37
sg4
S'20120520\xc2\xa011:43PM UTC'
p38
sg6
S'Serb rightist wins presidency, backs EU path'
p39
sa(dp40
g2
S'http://www.reuters.com/article/2012/05/21/markets-india-stocks-idUSL4E8GL1BC20120521'
p41
sg4
S'20120520\xc2\xa011:34PM UTC'
p42
sg6
S'Indian stocks to watch-May 21'
p43
sa(dp44
g2
S'http://www.reuters.com/article/2012/05/21/stocksnews-singapore-reits-idUSL4E8GL1AQ20120521'
p45
sg4
S'20120520\xc2\xa011:34PM UTC'
p46
sg6
S'STOCKS NEWS SINGAPORE-Goldman says REITs defensive'
p47
sa(dp48
g2
S'http://www.reuters.com/article/2012/05/21/us-qantas-idUSBRE84K04520120521'
p49
sg4
S'20120520\xc2\xa011:33PM UTC'
p50
sg6
S'Qantas to cut another 500 maintenance jobs'
p51
sa(dp52
g2
S'http://www.reuters.com/article/2012/05/21/qantas-idUSL4E8GL0RY20120521'
p53
sg4
S'20120520\xc2\xa011:31PM UTC'
p54
sg6
S'UPDATE 1-Qantas to cut another 500 maintenance jobs'
p55
sa(dp56
g2
S'http://www.reuters.com/article/2012/05/21/idUS29894+21-May-2012+PRN20120521'
p57
sg4
S'20120520\xc2\xa011:30PM UTC'
p58
sg6
S'Following Is a Test Release'
p59
sa(dp60
g2
S'http://www.reuters.com/article/2012/05/21/idUS400495900820120521'
p61
sg4
S'20120520\xc2\xa011:29PM UTC'
p62
sg6
S'Gaming social network Xfire gets funding'
p63
sa(dp64
g2
S'http://www.reuters.com/article/2012/05/21/us-usa-campaign-money-idUSBRE84K04320120521'
p65
sg4
S'20120520\xc2\xa011:29PM UTC'
p66
sg6
S'Factbox: Spending, fundraising in presidential race'
p67
sa(dp68
g2
S'http://www.reuters.com/article/2012/05/21/idUS29390+21-May-2012+MW20120521'
p69
sg4
S'20120520\xc2\xa011:23PM UTC'
p70
sg6
S' Affinion Group Wins Another Award From the National Association of Advancing Business Organization'
p71
sa(dp72
g2
S'http://www.reuters.com/article/2012/05/21/entertainment-us-lisamariepresley-idUSBRE84J0A020120521'
p73
sg4
S'20120520\xc2\xa011:18PM UTC'
p74
sg6
S'After storm, Lisa Marie Presley finds grace in new album'
p75
sa(dp76
g2
S'http://www.reuters.com/article/2012/05/21/china-bond-default-idUSL4E8GE74820120521'
p77
sg4
S'20120520\xc2\xa011:15PM UTC'
p78
sg6
S'REFILE-INSIGHT-China pays high price to spare state firm from bankruptcy'
p79
sa(dp80
g2
S'http://www.reuters.com/article/2012/05/21/us-usa-chen-newyork-idUSBRE84K01F20120521'
p81
sg4
S'20120520\xc2\xa011:13PM UTC'
p82
sg6
S'Blind Chinese activist Chen rests in NYC'
p83
sa(dp84
g2
S'http://www.reuters.com/article/2012/05/21/idUS28442+21-May-2012+PRN20120521'
p85
sg4
S'20120520\xc2\xa011:12PM UTC'
p86
sg6
S'Club Assist Puts the "Green" in Electric Vehicle Roadside Assistance with WORLD FIRST "Lithium" Mobile EV Charger'
p87
sa(dp88
g2
S'http://www.reuters.com/article/2012/05/21/markets-japan-jgb-idUSL4E8GL12B20120521'
p89
sg4
S'20120520\xc2\xa011:10PM UTC'
p90
sg6
S'JGB prices slip as investors take profits; Europe eyed'
p91
sa(dp92
g2
S'http://www.reuters.com/article/2012/05/21/nato-summit-idUSL1E8GK1YO20120521'
p93
sg4
S'20120520\xc2\xa011:09PM UTC'
p94
sg6
S'WRAPUP 7-NATO to hand combat role to Afghans as it seeks way out of war'
p95
sa(dp96
g2
S'http://www.reuters.com/article/2012/05/21/pakistan-products-import-idUSL4E8GL15A20120521'
p97
sg4
S'20120520\xc2\xa011:07PM UTC'
p98
sg6
S'Pakistan State Oil seeks 320,000 T gasoil, gasoline'
p99
sa(dp100
g2
S'http://www.reuters.com/article/2012/05/21/idUS27319+21-May-2012+PRN20120521'
p101
sg4
S'20120520\xc2\xa011:00PM UTC'
p102
sg6
S'Following Is a Test Release'
p103
sa(dp104
g2
S'http://www.reuters.com/article/2012/05/21/markets-korea-idUSL4E8GL11P20120521'
p105
sg4
S'20120520\xc2\xa010:57PM UTC'
p106
sg6
S'Seoul shares recover on large-cap rally'
p107
sa(dp108
g2
S'http://www.reuters.com/article/2012/05/21/markets-india-fx-debt-idUSL4E8GL11820120521'
p109
sg4
S'20120520\xc2\xa010:56PM UTC'
p110
sg6
S'Indian FX/debt factors to watch-May 21'
p111
sa(dp112
g2
S'http://www.reuters.com/article/2012/05/21/amcentertainment-idUSL4E8GL0S520120521'
p113
sg4
S'20120520\xc2\xa010:55PM UTC'
p114
sg6
S'UPDATE 1-Wanda to buy AMC Entertainment for $2.6 billion'
p115
sa(dp116
g2
S'http://www.reuters.com/article/2012/05/21/us-dinosaur-auction-idUSBRE84K03E20120521'
p117
sg4
S'20120520\xc2\xa010:53PM UTC'
p118
sg6
S'Dinosaur skeleton fetches $1.05 million at disputed U.S. auction'
p119
sa(dp120
g2
S'http://www.reuters.com/article/2012/05/21/markets-japan-stocks-idUSL4E8GL11M20120521'
p121
sg4
S'20120520\xc2\xa010:48PM UTC'
p122
sg6
S"Nikkei stabilises after Friday's slide, G8 helps"
p123
sa(dp124
g2
S'http://www.reuters.com/article/2012/05/21/press-digest-financial-times-may-idUSL5E8GK6LM20120521'
p125
sg4
S'20120520\xc2\xa010:48PM UTC'
p126
sg6
S'PRESS DIGEST - Financial Times - May 21'
p127
sa(dp128
g2
S'http://www.reuters.com/article/2012/05/21/china-oil-stocks-idUSL4E8GL11N20120521'
p129
sg4
S'20120520\xc2\xa010:47PM UTC'
p130
sg6
S'China end-April crude stocks up 4.36 pct m/m - Xinhua'
p131
sa(dp132
g2
S'http://www.reuters.com/article/2012/05/21/us-nasdaq-facebook-idUSBRE84K03720120521'
p133
sg4
S'20120520\xc2\xa010:46PM UTC'
p134
sg6
S'Nasdaq to revamp system after tech problems on Facebook IPO: WSJ'
p135
sa(dp136
g2
S'http://www.reuters.com/article/2012/05/21/nasdaq-facebook-idUSL4E8GL0I520120521'
p137
sg4
S'20120520\xc2\xa010:44PM UTC'
p138
sg6
S'Nasdaq to revamp system after tech problems on Facebook IPO -WSJ'
p139
sa(dp140
g2
S'http://www.reuters.com/article/2012/05/21/facebook-prenup-idUSL1E8GK5T420120521'
p141
sg4
S'20120520\xc2\xa010:44PM UTC'
p142
sg6
S"REFILE-Zuckerberg's post-IPO wedding is smart legal move"
p143
sa(dp144
g2
S'http://www.reuters.com/article/2012/05/21/vietnam-press-idUSL4E8GL0IW20120521'
p145
sg4
S'20120520\xc2\xa010:44PM UTC'
p146
sg6
S'PRESS DIGEST - Vietnam newspapers - May 21'
p147
sa(dp148
g2
S'http://www.reuters.com/article/2012/05/21/us-china-politics-idUSBRE84K03320120521'
p149
sg4
S'20120520\xc2\xa010:43PM UTC'
p150
sg6
S"Top cop in China's Bo drama to be tried for treason: report"
p151
sa(dp152
g2
S'http://www.reuters.com/article/2012/05/21/markets-asia-foreign-idUSL4E8GL0S220120521'
p153
sg4
S'20120520\xc2\xa010:42PM UTC'
p154
sg6
S'TABLE-Foreigners buy India shares in latest week-Nomura'
p155
sa(dp156
g2
S'http://www.reuters.com/article/2012/05/21/markets-ratings-synergy-idUSL4E8GL11O20120521'
p157
sg4
S'20120520\xc2\xa010:40PM UTC'
p158
sg6
S"TEXT-S&P; affirms, then withdraws 'A+/Stable' rating on Synergy"
p159
sa(dp160
g2
S'http://www.reuters.com/article/2012/05/21/us-libya-megrahi-usa-idUSBRE84K03120120521'
p161
sg4
S'20120520\xc2\xa010:39PM UTC'
p162
sg6
S"U.S. seeks Lockerbie justice, after convicted bomber's death"
p163
sa(dp164
g2
S'http://www.reuters.com/article/2012/05/21/us-nhl-playoffs-rangers-idUSBRE84K02V20120521'
p165
sg4
S'20120520\xc2\xa010:39PM UTC'
p166
sg6
S"New York's Prust suspended for one game"
p167
sa(dp168
g2
S'http://www.reuters.com/article/2012/05/21/india-press-hyundai-idUSL4E8GL11G20120521'
p169
sg4
S'20120520\xc2\xa010:38PM UTC'
p170
sg6
S'INDIA PRESS-Euro crisis may pare Hyundai India exports-Business Line'
p171
sa(dp172
g2
S'http://www.reuters.com/article/2012/05/21/india-press-ranbaxy-idUSL4E8GL11A20120521'
p173
sg4
S'20120520\xc2\xa010:34PM UTC'
p174
sg6
S'INDIA PRESS-Ranbaxy plans to relaunch skincare brand in U.S. -Economic Times'
p175
sa(dp176
g2
S'http://www.reuters.com/article/2012/05/21/markets-thailand-stocks-idUSL4E8GL0SB20120521'
p177
sg4
S'20120520\xc2\xa010:32PM UTC'
p178
sg6
S'Thailand - Market factors to watch - May 21'
p179
sa(dp180
g2
S'http://www.reuters.com/article/2012/05/21/idUS24748+21-May-2012+PRN20120521'
p181
sg4
S'20120520\xc2\xa010:30PM UTC'
p182
sg6
S'Following Is a Test Release'
p183
sa(dp184
g2
S'http://www.reuters.com/article/2012/05/21/india-press-honda-idUSL4E8GL0SQ20120521'
p185
sg4
S'20120520\xc2\xa010:29PM UTC'
p186
sg6
S'INDIA PRESS-Honda Motorcycles to expand India network-Mint'
p187
sa(dp188
g2
S'http://www.reuters.com/article/2012/05/21/us-facebook-prenup-idUSBRE84K02H20120521'
p189
sg4
S'20120520\xc2\xa010:28PM UTC'
p190
sg6
S"Zuckerberg's post-IPO wedding is smart legal move"
p191
sa(dp192
g2
S'http://www.reuters.com/article/2012/05/21/us-nato-summit-firstladies-idUSBRE84K02820120521'
p193
sg4
S'20120520\xc2\xa010:26PM UTC'
p194
sg6
S'Michelle Obama shows South Side of Chicago to first ladies'
p195
sa(dp196
g2
S'http://www.reuters.com/article/2012/05/21/us-usa-southcarolina-infection-idUSBRE84J0CH20120521'
p197
sg4
S'20120520\xc2\xa010:25PM UTC'
p198
sg6
S'Mom with flesh-eating disease had seven operations: brother'
p199
sa(dp200
g2
S'http://www.reuters.com/article/2012/05/21/india-press-coal-india-idUSL4E8GL0RS20120521'
p201
sg4
S'20120520\xc2\xa010:24PM UTC'
p202
sg6
S'INDIA PRESS-GSPC consortium in talks to buy BG stake in Gujarat Gas-Business Standard'
p203
sa(dp204
g2
S'http://www.reuters.com/article/2012/05/21/us-g8-markets-idUSBRE84J0CW20120521'
p205
sg4
S'20120520\xc2\xa010:20PM UTC'
p206
sg6
S'G8 growth talk leaves wary markets awaiting action'
p207
sa(dp208
g2
S'http://www.reuters.com/article/2012/05/21/us-nba-playoffs-pacers-idUSBRE84K02220120521'
p209
sg4
S'20120520\xc2\xa010:20PM UTC'
p210
sg6
S'Heat overpower Pacers to tie playoff series'
p211
sa(dp212
g2
S'http://www.reuters.com/article/2012/05/21/stocksnews-singapore-maybank-bargains-idUSL4E8GL0J620120521'
p213
sg4
S'20120520\xc2\xa010:19PM UTC'
p214
sg6
S'STOCKS NEWS SINGAPORE-Maybank eyes 8 stocks for bargain'
p215
sa(dp216
g2
S'http://www.reuters.com/article/2012/05/21/china-qfii-idUSL4E8GL03S20120521'
p217
sg4
S'20120520\xc2\xa010:15PM UTC'
p218
sg6
S'China ponders new investment channel for foreign pension funds-paper'
p219
sa(dp220
g2
S'http://www.reuters.com/article/2012/05/21/toroenergy-idUSM0E7G502K20120521'
p221
sg4
S'20120520\xc2\xa010:15PM UTC'
p222
sg6
S'Toro wins state agency backing for Australia uranium mine'
p223
sa(dp224
g2
S'http://www.reuters.com/article/2012/05/21/amcentertainment-brief-idUSH9E7MI00M20120521'
p225
sg4
S'20120520\xc2\xa010:14PM UTC'
p226
sg6
S'RPT-BRIEF-Wanda Group says to buy AMC Entertainment Holdings'
p227
sa(dp228
g2
S'http://www.reuters.com/article/2012/05/21/us-robingibb-beegees-idUSBRE84K00Q20120521'
p229
sg4
S'20120520\xc2\xa010:14PM UTC'
p230
sg6
S'Factbox: Bee Gees founder Robin Gibb dies'
p231
sa(dp232
g2
S'http://www.reuters.com/article/2012/05/21/india-press-coal-india-idUSL4E8GL0JE20120521'
p233
sg4
S'20120520\xc2\xa010:13PM UTC'
p234
sg6
S'INDIA PRESS-Coal India to exit International Coal Ventures-Economic Times'
p235
sa(dp236
g2
S'http://www.reuters.com/article/2012/05/21/us-indonesia-bakrie-idUSBRE84J0BP20120521'
p237
sg4
S'20120520\xc2\xa010:13PM UTC'
p238
sg6
S'Insight: Indonesia tycoon Bakrie gears up for presidential bid'
p239
sa(dp240
g2
S'http://www.reuters.com/article/2012/05/21/qantas-idUSWNAS903320120521'
p241
sg4
S'20120520\xc2\xa010:12PM UTC'
p242
sg6
S"RPT-Australia's Qantas to cut 500 heavy maintenance roles"
p243
sa(dp244
g2
S'http://www.reuters.com/article/2012/05/21/qantas-idUSL4E8GL0IJ20120521'
p245
sg4
S'20120520\xc2\xa010:11PM UTC'
p246
sg6
S"Australia's Qantas to cut 500 heavy maintenance roles"
p247
sa(dp248
g2
S'http://www.reuters.com/article/2012/05/21/us-blackeyedpeas-georgeclinton-idUSBRE84I00W20120521'
p249
sg4
S'20120520\xc2\xa010:11PM UTC'
p250
sg6
S'George Clinton, Black Eyed Peas end song lawsuit'
p251
sa(dp252
g2
S'http://www.reuters.com/article/2012/05/21/india-press-reliance-idUSL4E8GL0IB20120521'
p253
sg4
S'20120520\xc2\xa010:08PM UTC'
p254
sg6
S'INDIA PRESS-Reliance Industries, HFCL tie-up for 4G -Economic Times'
p255
sa(dp256
g2
S'http://www.reuters.com/article/2012/05/21/indonesia-factors-idUSL4E8GL0GE20120521'
p257
sg4
S'20120520\xc2\xa010:01PM UTC'
p258
sg6
S'Indonesia - Market Factors to watch - May 21'
p259
sa(dp260
g2
S'http://www.reuters.com/article/2012/05/21/idUS22266+21-May-2012+PRN20120521'
p261
sg4
S'20120520\xc2\xa010:00PM UTC'
p262
sg6
S'Following Is a Test Release'
p263
sa(dp264
g2
S'http://www.reuters.com/article/2012/05/21/idUS22254+21-May-2012+PRN20120521'
p265
sg4
S'20120520\xc2\xa010:00PM UTC'
p266
sg6
S'Wanda Group to Acquire AMC Entertainment Holdings, Inc.'
p267
sa(dp268
g2
S'http://www.reuters.com/article/2012/05/21/markets-korea-idUSL4E8GL02S20120521'
p269
sg4
S'20120520\xc2\xa09:56PM UTC'
p270
sg6
S'RPT-Blue chips lift Seoul shares back above key chart level'
p271
sa(dp272
g2
S'http://www.reuters.com/article/2012/05/21/poland-europe-idUSL5E8GL02I20120521'
p273
sg4
S'20120520\xc2\xa09:56PM UTC'
p274
sg6
S'Polish finmin says catastrophe looms without EU firewall-FT'
p275
sa(dp276
g2
S'http://www.reuters.com/article/2012/05/21/us-baberuth-jersey-auction-idUSBRE84K01520120521'
p277
sg4
S'20120520\xc2\xa09:51PM UTC'
p278
sg6
S'Babe Ruth jersey sells for record $4.4 million'
p279
sa(dp280
g2
S'http://www.reuters.com/article/2012/05/21/idUS21414+21-May-2012+PRN20120521'
p281
sg4
S'20120520\xc2\xa09:49PM UTC'
p282
sg6
S'NATO at Chicago Summit Signs Contract with Northrop Grumman to Lead Trans-Atlantic Team Delivering New ISR Capability to Alliance Forces'
p283
sa(dp284
g2
S'http://www.reuters.com/article/2012/05/21/markets-metals-idUSL4E8GL0G620120521'
p285
sg4
S'20120520\xc2\xa09:48PM UTC'
p286
sg6
S'METALS-Copper extends gains; euro zone weighs'
p287
sa(dp288
g2
S'http://www.reuters.com/article/2012/05/21/britain-submarines-idUSL5E8GL00120120521'
p289
sg4
S'20120520\xc2\xa09:41PM UTC'
p290
sg6
S'UK to award contracts for work on nuclear subs'
p291
sa(dp292
g2
S'http://www.reuters.com/article/2012/05/21/stocksnews-singapore-tigerairways-idUSL4E8GL0GN20120521'
p293
sg4
S'20120520\xc2\xa09:39PM UTC'
p294
sg6
S'STOCKS NEWS SINGAPORE-Tiger Airways down after Q4 loss'
p295
sa(dp296
g2
S'http://www.reuters.com/article/2012/05/21/hongkongpress-idUSL4E8GL0GU20120521'
p297
sg4
S'20120520\xc2\xa09:38PM UTC'
p298
sg6
S'PRESS DIGEST - Hong Kong - May 21'
p299
sa(dp300
g2
S'http://www.reuters.com/article/2012/05/21/malaysia-press-idUSL4E8GL0GM20120521'
p301
sg4
S'20120520\xc2\xa09:37PM UTC'
p302
sg6
S"MALAYSIA PRESS-Malaysia's Lembaga Tabung Haji close to inking $958 mil plantation deal-The Star"
p303
sa(dp304
g2
S'http://www.reuters.com/article/2012/05/21/idUS20621+21-May-2012+BW20120521'
p305
sg4
S'20120520\xc2\xa09:37PM UTC'
p306
sg6
S'Yahoo! and Alibaba Reach Agreement on Comprehensive Plan for Alibaba Stake'
p307
sa(dp308
g2
S'http://www.reuters.com/article/2012/05/21/pve-weekly-idUSL4E8GE0S920120521'
p309
sg4
S'20120520\xc2\xa09:33PM UTC'
p310
sg6
S'Asia Private Equity Weekly News, May 21, 2012'
p311
sa(dp312
g2
S'http://www.reuters.com/article/2012/05/21/idUS19903+21-May-2012+PRN20120521'
p313
sg4
S'20120520\xc2\xa09:30PM UTC'
p314
sg6
S'Following Is a Test Release'
p315
sa(dp316
g2
S'http://www.reuters.com/article/2012/05/21/markets-hongkong-stocks-open-idUSH9E8G700H20120521'
p317
sg4
S'20120520\xc2\xa09:28PM UTC'
p318
sg6
S'Hong Kong shares to open down 0.3 pct, Tencent drags'
p319
sa(dp320
g2
S'http://www.reuters.com/article/2012/05/21/thailand-press-idUSL4E8GL0G520120521'
p321
sg4
S'20120520\xc2\xa09:28PM UTC'
p322
sg6
S'THAILAND PRESS-Bangkok Bank banks on growth in upcountry mortgages-The Nation'
p323
sa(dp324
g2
S'http://www.reuters.com/article/2012/05/21/markets-japan-stocks-idUSL4E8GL04R20120521'
p325
sg4
S'20120520\xc2\xa09:28PM UTC'
p326
sg6
S"Nikkei recovers from Friday's slide, G8 pledge helps"
p327
sa(dp328
g2
S'http://www.reuters.com/article/2012/05/21/japan-politics-support-idUSL4E8GK08S20120521'
p329
sg4
S'20120520\xc2\xa09:28PM UTC'
p330
sg6
S'TABLE-Support for Japan PM remains low over nuclear safety'
p331
sa(dp332
g2
S'http://www.reuters.com/article/2012/05/21/ing-asialife-idUSL4E8GL02G20120521'
p333
sg4
S'20120520\xc2\xa09:26PM UTC'
p334
sg6
S'RPT-UPDATE 2-Manulife, Metlife submit bids for ING Asia sale -sources'
p335
sa(dp336
g2
S'http://www.reuters.com/article/2012/05/21/markets-asia-nymex-idUSL4E8GL0DZ20120521'
p337
sg4
S'20120520\xc2\xa09:25PM UTC'
p338
sg6
S'NYMEX-US crude flat above $91, economy weighs'
p339
sa(dp340
g2
S'http://www.reuters.com/article/2012/05/21/boe-cohrs-idUSL5E8GL02320120521'
p341
sg4
S'20120520\xc2\xa09:24PM UTC'
p342
sg6
S"BoE's Cohrs says UK banks are ready for Greek contagion-report"
p343
sa(dp344
g2
S'http://www.reuters.com/article/2012/05/21/blackrock-australia-idUSL4E8GL03120120521'
p345
sg4
S'20120520\xc2\xa09:19PM UTC'
p346
sg6
S'BlackRock names Justin Arter as head of Australian operations'
p347
sa(dp348
g2
S'http://www.reuters.com/article/2012/05/21/japan-copper-wire-idUSL4E8GL0DB20120521'
p349
sg4
S'20120520\xc2\xa09:17PM UTC'
p350
sg6
S'Japan April copper cable shipments up 0.4 pct y/y'
p351
sa(dp352
g2
S'http://www.reuters.com/article/2012/05/21/malaysia-press-idUSL4E8GL0D920120521'
p353
sg4
S'20120520\xc2\xa09:16PM UTC'
p354
sg6
S'MALAYSIA PRESS-Gas Malaysia to spend up to $44.69 mil to boost supply network-The Malaysian Reserve'
p355
sa(dp356
g2
S'http://www.reuters.com/article/2012/05/21/markets-hongkong-stocks-preopen-idUSL4E8GK02Y20120521'
p357
sg4
S'20120520\xc2\xa09:14PM UTC'
p358
sg6
S'Hong Kong shares seen higher, but turnover likely weak'
p359
sa(dp360
g2
S'http://www.reuters.com/article/2012/05/21/markets-taiwan-stocks-idUST8E8FR00S20120521'
p361
sg4
S'20120520\xc2\xa09:09PM UTC'
p362
sg6
S'Taiwan stocks rise; HTC, banks up'
p363
sa(dp364
g2
S'http://www.reuters.com/article/2012/05/21/chinamobile-idUSH9E8FR01120120521'
p365
sg4
S'20120520\xc2\xa09:08PM UTC'
p366
sg6
S'China Mobile says total subscribers rose to 672.48 mln in April'
p367
sa(dp368
g2
S'http://www.reuters.com/article/2012/05/21/philippines-press-idUSL4E8GI4F720120521'
p369
sg4
S'20120520\xc2\xa09:05PM UTC'
p370
sg6
S'PHILIPPINES PRESS-Philippine unit of PTT in $35 mln expansion - Star'
p371
sa(dp372
g2
S'http://www.reuters.com/article/2012/05/21/idUS16682+21-May-2012+GNW20120521'
p373
sg4
S'20120520\xc2\xa09:00PM UTC'
p374
sg6
S'Precision Castparts Corp. Expands Forged Products Capabilities With Acquisition of Dickson Testing and Aerocraft Heat Treating'
p375
sa(dp376
g2
S'http://www.reuters.com/article/2012/05/21/idUS16679+21-May-2012+GNW20120521'
p377
sg4
S'20120520\xc2\xa09:00PM UTC'
p378
sg6
S'Precision Castparts Corp. Expands Forged Products Capabilities With Acquisition of Dickson Testing and Aerocraft Heat Treating'
p379
sa(dp380
g2
S'http://www.reuters.com/article/2012/05/21/idUS16599+21-May-2012+PRN20120521'
p381
sg4
S'20120520\xc2\xa09:00PM UTC'
p382
sg6
S'Following Is a Test Release'
p383
sa(dp384
g2
S'http://www.reuters.com/article/2012/05/21/markets-precious-idUSL4E8GL03420120521'
p385
sg4
S'20120520\xc2\xa08:57PM UTC'
p386
sg6
S'PRECIOUS-Gold inches up on steady euro; concerns linger'
p387
sa(dp388
g2
S'http://www.reuters.com/article/2012/05/21/idUS16074+21-May-2012+BW20120521'
p389
sg4
S'20120520\xc2\xa08:56PM UTC'
p390
sg6
S'Document Control Essentials Has Become the First Provider to Offer a Recognised Qualification in Document Control'
p391
sa(dp392
g2
S'http://www.reuters.com/article/2012/05/21/malaysia-press-idUSL4E8GL03F20120521'
p393
sg4
S'20120520\xc2\xa08:53PM UTC'
p394
sg6
S'MALAYSIA PRESS-Malaysian electrified rail project hits snag over cost overrun-Business Times'
p395
sa(dp396
g2
S'http://www.reuters.com/article/2012/05/21/us-australia-malaysia-fta-idUSBRE84K00R20120521'
p397
sg4
S'20120520\xc2\xa08:53PM UTC'
p398
sg6
S'Australia to seal trade deal with Malaysia'
p399
sa(dp400
g2
S'http://www.reuters.com/article/2012/05/21/australia-malaysia-fta-idUSL4E8GK08420120521'
p401
sg4
S'20120520\xc2\xa08:51PM UTC'
p402
sg6
S'Australia to seal trade deal with Malaysia'
p403
sa(dp404
g2
S'http://www.reuters.com/article/2012/05/21/press-digest-british-business-may-idUSL5E8GK6LK20120521'
p405
sg4
S'20120520\xc2\xa08:48PM UTC'
p406
sg6
S'PRESS DIGEST - British business - May 21'
p407
sa(dp408
g2
S'http://www.reuters.com/article/2012/05/21/wantwant-idUSB9E8EN01620120521'
p409
sg4
S'20120520\xc2\xa08:46PM UTC'
p410
sg6
S"China's Want Want to spend $400 mln on capex in China in 2012-CFO"
p411
sa(dp412
g2
S'http://www.reuters.com/article/2012/05/21/philippines-press-idUSL4E8GI4EU20120521'
p413
sg4
S'20120520\xc2\xa08:45PM UTC'
p414
sg6
S"PHILIPPINES PRESS-New investors eye Wendy's in Philippines - Inquirer"
p415
sa(dp416
g2
S'http://www.reuters.com/article/2012/05/21/stocksnews-singapore-futures-idUSL4E8GL02X20120521'
p417
sg4
S'20120520\xc2\xa08:41PM UTC'
p418
sg6
S'STOCKS NEWS SINGAPORE-Index futures rise 0.3 pct'
p419
sa(dp420
g2
S'http://www.reuters.com/article/2012/05/21/markets-forex-idUSL4E8GL00B20120521'
p421
sg4
S'20120520\xc2\xa08:37PM UTC'
p422
sg6
S'FOREX-G8 fails to inspire euro, risk currencies'
p423
sa(dp424
g2
S'http://www.reuters.com/article/2012/05/21/idUS13179+21-May-2012+PRN20120521'
p425
sg4
S'20120520\xc2\xa08:30PM UTC'
p426
sg6
S'Following Is a Test Release'
p427
sa(dp428
g2
S'http://www.reuters.com/article/2012/05/21/idUS13146+21-May-2012+BW20120521'
p429
sg4
S'20120520\xc2\xa08:30PM UTC'
p430
sg6
S'DTCC`s Global Trade Repository to Open Data Centre in Singapore to Promote OTC Derivatives Reporting'
p431
sa(dp432
g2
S'http://www.reuters.com/article/2012/05/21/egypt-election-brotherhood-idUSL5E8GK73820120521'
p433
sg4
S'20120520\xc2\xa08:21PM UTC'
p434
sg6
S"UPDATE 1-Egypt's Brotherhood flexes muscles in push for presidency"
p435
sa(dp436
g2
S'http://www.reuters.com/article/2012/05/21/robingibb-death-idUSL6E8FIEQ720120521'
p437
sg4
S'20120520\xc2\xa08:20PM UTC'
p438
sg6
S'Singer Robin Gibb, Bee Gees co-founder, dies at 62'
p439
sa(dp440
g2
S'http://www.reuters.com/article/2012/05/21/singapore-market-stocks-preopener-idUSL4E8GL00A20120521'
p441
sg4
S'20120520\xc2\xa08:20PM UTC'
p442
sg6
S'Singapore Stocks-May open up; Tiger Airways in focus'
p443
sa(dp444
g2
S'http://www.reuters.com/article/2012/05/21/malaysia-factors-idUSL4E8GL00C20120521'
p445
sg4
S'20120520\xc2\xa08:19PM UTC'
p446
sg6
S'Malaysia-Market factors to watch May 21'
p447
sa(dp448
g2
S'http://www.reuters.com/article/2012/05/21/yahoo-alibaba-idUSL1E8GL00020120521'
p449
sg4
S'20120520\xc2\xa08:17PM UTC'
p450
sg6
S'Yahoo near selling partial Alibaba stake for $7.1 bln -source'
p451
sa(dp452
g2
S'http://www.reuters.com/article/2012/05/21/china-coal-iron-idUSL5E8GL00020120521'
p453
sg4
S'20120520\xc2\xa08:17PM UTC'
p454
sg6
S'China buyers defer volumes of raw materials-FT'
p455
sa(dp456
g2
S'http://www.reuters.com/article/2012/05/21/markets-japan-stocks-idUSL4E8GL00920120521'
p457
sg4
S'20120520\xc2\xa08:13PM UTC'
p458
sg6
S'Nikkei recovers, G8 pledge helps'
p459
sa(dp460
g2
S'http://www.reuters.com/article/2012/05/21/idUS11090+21-May-2012+BW20120521'
p461
sg4
S'20120520\xc2\xa08:08PM UTC'
p462
sg6
S'Fluor Completes Polysilicon Plant in China for LDK Solar'
p463
sa(dp464
g2
S'http://www.reuters.com/article/2012/05/21/malaysia-corporate-earnings-idUSL4E8GL00620120521'
p465
sg4
S'20120520\xc2\xa08:05PM UTC'
p466
sg6
S'DIARY-Malaysia 2012 corporate earnings'
p467
sa(dp468
g2
S'http://www.reuters.com/article/2012/05/21/economy-malaysia-indicators-idUSL4E8GL00420120521'
p469
sg4
S'20120520\xc2\xa08:04PM UTC'
p470
sg6
S'TABLE-Malaysia economic indicators - May 21'
p471
sa(dp472
g2
S'http://www.reuters.com/article/2012/05/21/idUS10052+21-May-2012+PRN20120521'
p473
sg4
S'20120520\xc2\xa08:00PM UTC'
p474
sg6
S'Following Is a Test Release'
p475
sa(dp476
g2
S'http://www.reuters.com/article/2012/05/21/idUS10014+21-May-2012+BW20120521'
p477
sg4
S'20120520\xc2\xa08:00PM UTC'
p478
sg6
S'United Company RUSAL Plc: Update on Aluminium Sales Contracts'
p479
sa(dp480
g2
S'http://www.reuters.com/article/2012/05/20/us-g8-russia-iran-idUSBRE84J0AD20120520'
p481
sg4
S'20120520\xc2\xa07:59PM UTC'
p482
sg6
S'Russia says West still considering military action on Iran'
p483
sa(dp484
g2
S'http://www.reuters.com/article/2012/05/20/us-facebook-struggle-idUSBRE84J0D620120520'
p485
sg4
S'20120520\xc2\xa07:58PM UTC'
p486
sg6
S'Facebook stock seen facing crucial week after modest debut'
p487
sa(dp488
g2
S'http://www.reuters.com/article/2012/05/20/metlifecare-merger-idUSL4E8GK08U20120520'
p489
sg4
S'20120520\xc2\xa07:57PM UTC'
p490
sg6
S"NZ's Metlifecare cuts offer price for rivals"
p491
sa(dp492
g2
S'http://www.reuters.com/article/2012/05/20/markets-ratings-suncorp-metway-idUSWNA768120120520'
p493
sg4
S'20120520\xc2\xa07:57PM UTC'
p494
sg6
S"BRIEF-Moody's assigns provisional Aaa to Suncorp-Metway Bank's first covered bonds"
p495
sa(dp496
g2
S'http://www.reuters.com/article/2012/05/20/us-markets-global-idUSBRE83R03020120520'
p497
sg4
S'20120520\xc2\xa07:55PM UTC'
p498
sg6
S'Global markets on edge over Greece despite G8 pledge'
p499
sa(dp500
g2
S'http://www.reuters.com/article/2012/05/20/us-nato-summit-protests-idUSBRE84I09X20120520'
p501
sg4
S'20120520\xc2\xa07:53PM UTC'
p502
sg6
S'Thousands protest in Chicago as NATO summit opens'
p503
sa(dp504
g2
S'http://www.reuters.com/article/2012/05/20/us-nato-summit-veterans-idUSBRE84J0D520120520'
p505
sg4
S'20120520\xc2\xa07:53PM UTC'
p506
sg6
S'Veterans symbolically discard service medals at anti-NATO rally'
p507
sa(dp508
g2
S'http://www.reuters.com/article/2012/05/20/jameshardie-idUSL5E8GHHKK20120520'
p509
sg4
S'20120520\xc2\xa07:53PM UTC'
p510
sg6
S"UPDATE 1-Australia's James Hardie Q4 profits fall, outlook cautious"
p511
sa(dp512
g2
S'http://www.reuters.com/article/2012/05/20/us-usa-campaign-money-idUSBRE84H0MN20120520'
p513
sg4
S'20120520\xc2\xa07:51PM UTC'
p514
sg6
S'Pro-Romney Super PAC sees fundraising dip in April'
p515
sa(dp516
g2
S'http://www.reuters.com/article/2012/05/20/markets-global-idUSL4E8GK08O20120520'
p517
sg4
S'20120520\xc2\xa07:50PM UTC'
p518
sg6
S'GLOBAL MARKETS-Markets on edge over Greece despite G8 pledge'
p519
sa(dp520
g2
S'http://www.reuters.com/article/2012/05/20/independent-liquor-asahi-idUSL4E8GK08J20120520'
p521
sg4
S'20120520\xc2\xa07:50PM UTC'
p522
sg6
S'Asahi unhappy with $1.3 bln NZ liquor deal-report'
p523
sa(dp524
g2
S'http://www.reuters.com/article/2012/05/20/us-g8-markets-idUSBRE84J0CW20120520'
p525
sg4
S'20120520\xc2\xa07:48PM UTC'
p526
sg6
S'G8 growth talk leaves wary markets awaiting action'
p527
sa(dp528
g2
S'http://www.reuters.com/article/2012/05/20/bankofengland-bundesbank-idUSL5E8GK76T20120520'
p529
sg4
S'20120520\xc2\xa07:43PM UTC'
p530
sg6
S'EU central bankers call for flexible policy-FT'
p531
sa(dp532
g2
S'http://www.reuters.com/article/2012/05/20/markets-korea-idUSL4E8GK08L20120520'
p533
sg4
S'20120520\xc2\xa07:34PM UTC'
p534
sg6
S'Seoul shares seen lower on nagging euro zone jitters'
p535
sa(dp536
g2
S'http://www.reuters.com/article/2012/05/20/sailing-volvo-idUSL4E8GK08R20120520'
p537
sg4
S'20120520\xc2\xa07:34PM UTC'
p538
sg6
S'Sailing-Storm threatens bumpy ride for Volvo fleet'
p539
sa(dp540
g2
S'http://www.reuters.com/article/2012/05/20/us-nato-summit-idUSBRE84J02C20120520'
p541
sg4
S'20120520\xc2\xa07:31PM UTC'
p542
sg6
S'NATO seeks unity on Afghan war despite French exit plan'
p543
sa(dp544
g2
S'http://www.reuters.com/article/2012/05/20/us-nato-summit-troops-idUSBRE84J0C720120520'
p545
sg4
S'20120520\xc2\xa07:31PM UTC'
p546
sg6
S'NATO to embrace pivot to Afghanistan support role in 2013'
p547
sa(dp548
g2
S'http://www.reuters.com/article/2012/05/20/idUS55691+20-May-2012+PRN20120520'
p549
sg4
S'20120520\xc2\xa07:30PM UTC'
p550
sg6
S'Following Is a Test Release'
p551
sa(dp552
g2
S'http://www.reuters.com/article/2012/05/20/g8-markets-idUSL1E8GK46A20120520'
p553
sg4
S'20120520\xc2\xa07:22PM UTC'
p554
sg6
S'G8 growth talk leaves wary markets awaiting action'
p555
sa(dp556
g2
S'http://www.reuters.com/article/2012/05/20/korea-marketfactors-idUSL4E8GK08G20120520'
p557
sg4
S'20120520\xc2\xa07:20PM UTC'
p558
sg6
S'S.Korea-Market Factors to watch May 21'
p559
sa(dp560
g2
S'http://www.reuters.com/article/2012/05/20/storm-alberto-idUSL1E8GK2MC20120520'
p561
sg4
S'20120520\xc2\xa07:18PM UTC'
p562
sg6
S'UPDATE 2-Tropical Storm Alberto loses strength, forecasters say'
p563
sa(dp564
g2
S'http://www.reuters.com/article/2012/05/20/entertainment-us-robingibb-death-idUSBRE84J0CN20120520'
p565
sg4
S'20120520\xc2\xa07:17PM UTC'
p566
sg6
S'Bee Gees singer Robin Gibb dies aged 62'
p567
sa(dp568
g2
S'http://www.reuters.com/article/2012/05/20/robingibb-death-idUSL4E8GK08720120520'
p569
sg4
S'20120520\xc2\xa07:16PM UTC'
p570
sg6
S'UPDATE 1-Bee Gees singer Robin Gibb dies aged 62'
p571
sa(dp572
g2
S'http://www.reuters.com/article/2012/05/20/markets-japan-stocks-orders-idUSL4E8GK08H20120520'
p573
sg4
S'20120520\xc2\xa07:15PM UTC'
p574
sg6
S'TABLE-Foreign brokers set to sell Japanese stocks'
p575
sa(dp576
g2
S'http://www.reuters.com/article/2012/05/20/markets-japan-stocks-idUSL4E8GK08820120520'
p577
sg4
S'20120520\xc2\xa07:14PM UTC'
p578
sg6
S"Japan's Nikkei set to fall, to test 8,500"
p579
sa(dp580
g2
S'http://www.reuters.com/article/2012/05/20/idUS54179+20-May-2012+PRN20120520'
p581
sg4
S'20120520\xc2\xa07:13PM UTC'
p582
sg6
S'Martin Leads Wire-to-Wire, Wins Walmart FLW Tour on Potomac River Presented by National Guard'
p583
sa(dp584
g2
S'http://www.reuters.com/article/2012/05/20/idUS53463+20-May-2012+MW20120520'
p585
sg4
S'20120520\xc2\xa07:01PM UTC'
p586
sg6
S' Deck Helmet Ratings: Introduces an Environmentally Friendly Method of Resurfacing Decks'
p587
sa(dp588
g2
S'http://www.reuters.com/article/2012/05/20/environment-uk-idUSL5E8GICGA20120520'
p589
sg4
S'20120520\xc2\xa07:01PM UTC'
p590
sg6
S'UK green plan too reliant on voluntary action-MPs'
p591
sa(dp592
g2
S'http://www.reuters.com/article/2012/05/20/investmentbank-pay-london-idUSL5E8GIACH20120520'
p593
sg4
S'20120520\xc2\xa07:01PM UTC'
p594
sg6
S'Pay freeze in 92 pct of London finance jobs-study'
p595
sa(dp596
g2
S'http://www.reuters.com/article/2012/05/20/idUS53371+20-May-2012+PRN20120520'
p597
sg4
S'20120520\xc2\xa07:00PM UTC'
p598
sg6
S'Following Is a Test Release'
p599
sa(dp600
g2
S'http://www.reuters.com/article/2012/05/20/robingibb-death-idUSL6E8FIEM620120520'
p601
sg4
S'20120520\xc2\xa06:57PM UTC'
p602
sg6
S'Bee Gees singer Robin Gibb dies aged 62'
p603
sa(dp604
g2
S'http://www.reuters.com/article/2012/05/20/euro-summit-idUSL5E8GK73C20120520'
p605
sg4
S'20120520\xc2\xa06:56PM UTC'
p606
sg6
S'Euro area bonds to be discussed at informal EU summit-officials'
p607
sa(dp608
g2
S'http://www.reuters.com/article/2012/05/20/us-usa-southcarolina-infection-idUSBRE84J0CH20120520'
p609
sg4
S'20120520\xc2\xa06:55PM UTC'
p610
sg6
S'Mom with flesh-eating disease had seven operations: brother'
p611
sa(dp612
g2
S'http://www.reuters.com/article/2012/05/20/idUS52891+20-May-2012+PRN20120520'
p613
sg4
S'20120520\xc2\xa06:50PM UTC'
p614
sg6
S'Rentrak Announces Worldwide Box Office Results For Weekend Of May 18, 2012'
p615
sa(dp616
g2
S'http://www.reuters.com/article/2012/05/20/jameshardie-earnings-idUSS9E8EJ00N20120520'
p617
sg4
S'20120520\xc2\xa06:45PM UTC'
p618
sg6
S"Australia's James Hardie Q4 profit down 4 pct"
p619
sa(dp620
g2
S'http://www.reuters.com/article/2012/05/20/nato-summit-idUSL1E8GK1YO20120520'
p621
sg4
S'20120520\xc2\xa06:42PM UTC'
p622
sg6
S'WRAPUP 5-NATO seeks unity on Afghan war despite French exit plan'
p623
sa(dp624
g2
S'http://www.reuters.com/article/2012/05/20/us-facebook-wedding-idUSBRE84J0CB20120520'
p625
sg4
S'20120520\xc2\xa06:41PM UTC'
p626
sg6
S'Zuckerberg weds longtime girlfriend, no word on prenup'
p627
sa(dp628
g2
S'http://www.reuters.com/article/2012/05/20/idUS52403+20-May-2012+BW20120520'
p629
sg4
S'20120520\xc2\xa06:40PM UTC'
p630
sg6
S'eGroup Delivers Cloud Computing'
p631
sa(dp632
g2
S'http://www.reuters.com/article/2012/05/20/facebook-wedding-idUSL1E8GK4Z620120520'
p633
sg4
S'20120520\xc2\xa06:36PM UTC'
p634
sg6
S"UPDATE 1-Facebook's Zuckerberg weds longtime girlfriend, no word on prenup"
p635
sa(dp636
g2
S'http://www.reuters.com/article/2012/05/20/idUS51973+20-May-2012+PRN20120520'
p637
sg4
S'20120520\xc2\xa06:30PM UTC'
p638
sg6
S'Following Is a Test Release'
p639
sa(dp640
g2
S'http://www.reuters.com/article/2012/05/20/chrysler-recall-idUSL1E8GK5LP20120520'
p641
sg4
S'20120520\xc2\xa06:29PM UTC'
p642
sg6
S'Chrysler recalls 67,872 Jeep Wrangler SUVs'
p643
sa(dp644
g2
S'http://www.reuters.com/article/2012/05/20/us-serbia-election-nikolic-idUSBRE84J0AF20120520'
p645
sg4
S'20120520\xc2\xa06:25PM UTC'
p646
sg6
S'Serb rightist wins presidency, backs EU path'
p647
sa(dp648
g2
S'http://www.reuters.com/article/2012/05/20/idUS51634+20-May-2012+BW20120520'
p649
sg4
S'20120520\xc2\xa06:24PM UTC'
p650
sg6
S'Student Teams from 39 Southland High Schools Capture Top Honors at Metropolitan`s 2012 Solar Cup'
p651
sa(dp652
g2
S'http://www.reuters.com/article/2012/05/20/us-nato-summit-pakistan-idUSBRE84J0CA20120520'
p653
sg4
S'20120520\xc2\xa06:22PM UTC'
p654
sg6
S"Pakistan urges a 'permanent solution' on U.S. drone strikes"
p655
sa(dp656
g2
S'http://www.reuters.com/article/2012/05/20/us-yemen-usa-instructors-idUSBRE84J06P20120520'
p657
sg4
S'20120520\xc2\xa06:15PM UTC'
p658
sg6
S'U.S. trainer shot in Yemen, army advances on militants'
p659
sa(dp660
g2
S'http://www.reuters.com/article/2012/05/20/northropgrumman-nato-idUSN9E7G301320120520'
p661
sg4
S'20120520\xc2\xa06:04PM UTC'
p662
sg6
S'Northrop wins $1.7 bln NATO order for 5 drones'
p663
sa(dp664
g2
S'http://www.reuters.com/article/2012/05/20/idUS50290+20-May-2012+PRN20120520'
p665
sg4
S'20120520\xc2\xa06:01PM UTC'
p666
sg6
S'Jekyll Island Convention Center Officially Opens'
p667
sa(dp668
g2
S'http://www.reuters.com/article/2012/05/20/japan-diary-idUSL4E8GI6FW20120520'
p669
sg4
S'20120520\xc2\xa06:00PM UTC'
p670
sg6
S'DIARY-Japan - May 21'
p671
sa(dp672
g2
S'http://www.reuters.com/article/2012/05/20/idUS50206+20-May-2012+GNW20120520'
p673
sg4
S'20120520\xc2\xa06:00PM UTC'
p674
sg6
S'Universal Music to Rock Boston at EuraMedia 2012 With Newest, Hottest Russian Artists, US Stars in Universal Catalogue'
p675
sa(dp676
g2
S'http://www.reuters.com/article/2012/05/20/idUS50197+20-May-2012+GNW20120520'
p677
sg4
S'20120520\xc2\xa06:00PM UTC'
p678
sg6
S'Universal Music to Rock Boston at EuraMedia 2012 With Newest, Hottest Russian Artists, US Stars in Universal Catalogue'
p679
sa(dp680
g2
S'http://www.reuters.com/article/2012/05/20/idUS50182+20-May-2012+PRN20120520'
p681
sg4
S'20120520\xc2\xa06:00PM UTC'
p682
sg6
S'Following Is a Test Release'
p683
sa(dp684
g2
S'http://www.reuters.com/article/2012/05/20/japan-diary-idUSL3E8FR65L20120520'
p685
sg4
S'20120520\xc2\xa06:00PM UTC'
p686
sg6
S'DIARY-Japan - May 21'
p687
sa(dp688
g2
S'http://www.reuters.com/article/2012/05/20/entertainment-us-pageant-transgender-idUSBRE84J0BZ20120520'
p689
sg4
S'20120520\xc2\xa05:59PM UTC'
p690
sg6
S'Canadian transgender beauty contestant wins Miss Congeniality'
p691
sa(dp692
g2
S'http://www.reuters.com/article/2012/05/20/us-quake-italy-idUSBRE84J01K20120520'
p693
sg4
S'20120520\xc2\xa05:55PM UTC'
p694
sg6
S'Italy quake kills at least six, damages historic buildings'
p695
sa(dp696
g2
S'http://www.reuters.com/article/2012/05/20/us-apple-samsung-court-idUSBRE84J06X20120520'
p697
sg4
S'20120520\xc2\xa05:53PM UTC'
p698
sg6
S'Apple, Samsung CEOs set for court talks'
p699
sa(dp700
g2
S'http://www.reuters.com/article/2012/05/20/idUS49715+20-May-2012+PRN20120520'
p701
sg4
S'20120520\xc2\xa05:42PM UTC'
p702
sg6
S'The Right Honourable Stephen Harper, Prime Minister of Canada, meets with Canadian American Business Council leaders at a roundtable in Chicago on the morning of Sunday, May 20, in advance of the NATO Summit.'
p703
sa(dp704
g2
S'http://www.reuters.com/article/2012/05/20/idUS49613+20-May-2012+MW20120520'
p705
sg4
S'20120520\xc2\xa05:39PM UTC'
p706
sg6
S' Minister Raitt Receives Strike Notices from the Teamsters Canada Rail Conference'
p707
sa(dp708
g2
S'http://www.reuters.com/article/2012/05/20/idUS49572+20-May-2012+GNW20120520'
p709
sg4
S'20120520\xc2\xa05:38PM UTC'
p710
sg6
S'Rain TV Becomes Official Digital and Broadcast Network Television Sponsor of EuraMedia Summit 2012 in Boston'
p711
sa(dp712
g2
S'http://www.reuters.com/article/2012/05/20/idUS49570+20-May-2012+GNW20120520'
p713
sg4
S'20120520\xc2\xa05:38PM UTC'
p714
sg6
S'Rain TV Becomes Official Digital and Broadcast Network Television Sponsor of EuraMedia Summit 2012 in Boston'
p715
sa(dp716
g2
S'http://www.reuters.com/article/2012/05/20/nato-summit-protests-idUSL1E8GK3QS20120520'
p717
sg4
S'20120520\xc2\xa05:35PM UTC'
p718
sg6
S'UPDATE 3-Thousands protest in Chicago as NATO summit opens'
p719
sa(dp720
g2
S'http://www.reuters.com/article/2012/05/20/idUS49342+20-May-2012+PRN20120520'
p721
sg4
S'20120520\xc2\xa05:30PM UTC'
p722
sg6
S'Following Is a Test Release'
p723
sa(dp724
g2
S'http://www.reuters.com/article/2012/05/20/us-nato-summit-arrests-idUSBRE84J07I20120520'
p725
sg4
S'20120520\xc2\xa05:18PM UTC'
p726
sg6
S'Two more men charged as NATO protests get underway'
p727
sa(dp728
g2
S'http://www.reuters.com/article/2012/05/20/us-g8-summit-hollande-idUSBRE84J0BS20120520'
p729
sg4
S'20120520\xc2\xa05:13PM UTC'
p730
sg6
S'France\'s "Mr. Normal" stands out in diplomatic debut'
p731
sa(dp732
g2
S'http://www.reuters.com/article/2012/05/20/nato-summit-arrests-idUSL1E8GK4VL20120520'
p733
sg4
S'20120520\xc2\xa05:12PM UTC'
p734
sg6
S'UPDATE 2-Two more men charged as NATO protests get underway'
p735
sa(dp736
g2
S'http://www.reuters.com/article/2012/05/20/us-libya-megrahi-idUSBRE84J05H20120520'
p737
sg4
S'20120520\xc2\xa05:11PM UTC'
p738
sg6
S'Lockerbie bomber Megrahi dies in Libya leaving unanswered questions'
p739
sa(dp740
g2
S'http://www.reuters.com/article/2012/05/20/us-indonesia-bakrie-idUSBRE84J0BP20120520'
p741
sg4
S'20120520\xc2\xa05:05PM UTC'
p742
sg6
S'Insight: Indonesia tycoon Bakrie gears up for presidential bid'
p743
sa(dp744
g2
S'http://www.reuters.com/article/2012/05/20/g8-summit-hollande-idUSL5E8GJ2HX20120520'
p745
sg4
S'20120520\xc2\xa05:03PM UTC'
p746
sg6
S'France\'s "Mr. Normal" stands out in diplomatic debut'
p747
sa(dp748
g2
S'http://www.reuters.com/article/2012/05/20/idUS48040+20-May-2012+PRN20120520'
p749
sg4
S'20120520\xc2\xa05:00PM UTC'
p750
sg6
S'Following Is a Test Release'
p751
sa(dp752
g2
S'http://www.reuters.com/article/2012/05/20/indonesia-bakrie-idUSL4E8GH4YR20120520'
p753
sg4
S'20120520\xc2\xa04:59PM UTC'
p754
sg6
S'INSIGHT-Indonesia tycoon Bakrie gears up for presidential bid'
p755
sa(dp756
g2
S'http://www.reuters.com/article/2012/05/20/nato-summit-arrests-idUSL1E8GK29R20120520'
p757
sg4
S'20120520\xc2\xa04:53PM UTC'
p758
sg6
S'CORRECTED-UPDATE 1-Two more men charged in probe of NATO attack plots'
p759
sa(dp760
g2
S'http://www.reuters.com/article/2012/05/20/idUS47672+20-May-2012+GNW20120520'
p761
sg4
S'20120520\xc2\xa04:51PM UTC'
p762
sg6
S"ITAR TASS, Russia's Oldest and Most Prestigious News Provider, Becomes Official Information Newswire Sponsor for Landmark EuraMedia Summit in Boston Focusing on Russia Media and Tech Industry"
p763
sa(dp764
g2
S'http://www.reuters.com/article/2012/05/20/idUS47669+20-May-2012+GNW20120520'
p765
sg4
S'20120520\xc2\xa04:51PM UTC'
p766
sg6
S"ITAR TASS, Russia's Oldest and Most Prestigious News Provider, Becomes Official Information Newswire Sponsor for Landmark EuraMedia Summit in Boston Focusing on Russia Media and Tech Industry"
p767
sa(dp768
g2
S'http://www.reuters.com/article/2012/05/20/idUS47460+20-May-2012+GNW20120520'
p769
sg4
S'20120520\xc2\xa04:47PM UTC'
p770
sg6
S"Russia's Largest Telephone Operator, Rostelecom, Owned by Svyazinvest, and Partner/Daughter Companies to Hold Seminar on Investment in Russia Communications Sector, Showcase New Investments at Landmark EuraMedia Summit, Dedi"
p771
sa(dp772
g2
S'http://www.reuters.com/article/2012/05/20/idUS47457+20-May-2012+GNW20120520'
p773
sg4
S'20120520\xc2\xa04:47PM UTC'
p774
sg6
S"Russia's Largest Telephone Operator, Rostelecom, Owned by Svyazinvest, and Partner/Daughter Companies to Hold Seminar on Investment in Russia Communications Sector, Showcase New Investments at Landmark EuraMedia Summit, Dedi"
p775
sa(dp776
g2
S'http://www.reuters.com/article/2012/05/20/nba-boozer-idUSL1E8GK4HE20120520'
p777
sg4
S'20120520\xc2\xa04:46PM UTC'
p778
sg6
S'NBA-Former Olympian Boozer dies at 75'
p779
sa(dp780
g2
S'http://www.reuters.com/article/2012/05/20/us-google-schmidt-disconnect-idUSBRE84J0BG20120520'
p781
sg4
S'20120520\xc2\xa04:45PM UTC'
p782
sg6
S"Google's Schmidt challenges: no screen time for 1 hour a day"
p783
sa(dp784
g2
S'http://www.reuters.com/article/2012/05/20/us-russia-government-idUSBRE84J0BC20120520'
p785
sg4
S'20120520\xc2\xa04:40PM UTC'
p786
sg6
S'Putin to dominate new Russian government'
p787
sa(dp788
g2
S'http://www.reuters.com/article/2012/05/20/facebook-wedding-idUSL1E8GK4G920120520'
p789
sg4
S'20120520\xc2\xa04:39PM UTC'
p790
sg6
S"Facebook's Zuckerberg weds longtime girlfriend"
p791
sa(dp792
g2
S'http://www.reuters.com/article/2012/05/20/russia-government-idUSL5E8GJ1CE20120520'
p793
sg4
S'20120520\xc2\xa04:34PM UTC'
p794
sg6
S'Putin to dominate new Russian government'
p795
sa(dp796
g2
S'http://www.reuters.com/article/2012/05/20/idUS46700+20-May-2012+PRN20120520'
p797
sg4
S'20120520\xc2\xa04:31PM UTC'
p798
sg6
S'British Prime Minister David Cameron Tours Chicago\'s Digital Entrepreneur Hub "1871" Prior To NATO Summit'
p799
sa(dp800
g2
S'http://www.reuters.com/article/2012/05/20/idUS46653+20-May-2012+PRN20120520'
p801
sg4
S'20120520\xc2\xa04:30PM UTC'
p802
sg6
S'Following Is a Test Release'
p803
sa(dp804
g2
S'http://www.reuters.com/article/2012/05/20/idUS46374+20-May-2012+PRN20120520'
p805
sg4
S'20120520\xc2\xa04:21PM UTC'
p806
sg6
S'Iran Military Chief Vows to Annihilate Israel'
p807
sa(dp808
g2
S'http://www.reuters.com/article/2012/05/20/google-schmidt-disconnect-idUSL1E8GK3TU20120520'
p809
sg4
S'20120520\xc2\xa04:18PM UTC'
p810
sg6
S"Google's Schmidt challenges: no screen time for 1 hour a day"
p811
sa(dp812
g2
S'http://www.reuters.com/article/2012/05/20/us-mexico-drugs-arrest-idUSBRE84J0B720120520'
p813
sg4
S'20120520\xc2\xa04:17PM UTC'
p814
sg6
S'Alleged perpetrator of mass beheadings in Mexico arrested'
p815
sa(dp816
g2
S'http://www.reuters.com/article/2012/05/20/entertainment-us-nickstahl-idUSBRE84J0B920120520'
p817
sg4
S'20120520\xc2\xa04:16PM UTC'
p818
sg6
S'Missing actor Nick Stahl enters rehab: reports'
p819
sa(dp820
g2
S'http://www.reuters.com/article/2012/05/20/airfrance-jobs-idUSL5E8GK6PK20120520'
p821
sg4
S'20120520\xc2\xa04:13PM UTC'
p822
sg6
S'UPDATE 1-Air France-KLM denies report on planned job cuts'
p823
sa(dp824
g2
S'http://www.reuters.com/article/2012/05/20/idUS45966+20-May-2012+GNW20120520'
p825
sg4
S'20120520\xc2\xa04:09PM UTC'
p826
sg6
S"Local Boston Designers to Take Part in Landmark EuraMedia 2012 Summit's e-fashion Show"
p827
sa(dp828
g2
S'http://www.reuters.com/article/2012/05/20/idUS45964+20-May-2012+GNW20120520'
p829
sg4
S'20120520\xc2\xa04:09PM UTC'
p830
sg6
S"Local Boston Designers to Take Part in Landmark EuraMedia 2012 Summit's e-fashion Show"
p831
sa(dp832
g2
S'http://www.reuters.com/article/2012/05/20/idUS45705+20-May-2012+PRN20120520'
p833
sg4
S'20120520\xc2\xa04:00PM UTC'
p834
sg6
S'Following Is a Test Release'
p835
sa(dp836
g2
S'http://www.reuters.com/article/2012/05/20/us-france-election-lepen-idUSBRE84J06E20120520'
p837
sg4
S'20120520\xc2\xa03:48PM UTC'
p838
sg6
S'Le Pen to lose to leftist in French assembly vote: poll'
p839
sa(dp840
g2
S'http://www.reuters.com/article/2012/05/20/nigeria-telecoms-idUSL5E8GK6O720120520'
p841
sg4
S'20120520\xc2\xa03:34PM UTC'
p842
sg6
S'Nigeria fines MTN, others $7.38 mln for bad service'
p843
sa(dp844
g2
S'http://www.reuters.com/article/2012/05/20/airfrance-jobs-idUSL5E8GK6OV20120520'
p845
sg4
S'20120520\xc2\xa03:32PM UTC'
p846
sg6
S'Air France plans 5,000 voluntary redundancies-paper'
p847
sa(dp848
g2
S'http://www.reuters.com/article/2012/05/20/us-italy-bomb-idUSBRE84J0B420120520'
p849
sg4
S'20120520\xc2\xa03:31PM UTC'
p850
sg6
S'Lone bomber, not mafia, sought for Italy school attack'
p851
sa(dp852
g2
S'http://www.reuters.com/article/2012/05/20/idUS44769+20-May-2012+PRN20120520'
p853
sg4
S'20120520\xc2\xa03:30PM UTC'
p854
sg6
S'Following Is a Test Release'
p855
sa(dp856
g2
S'http://www.reuters.com/article/2012/05/20/us-syria-bomb-idUSBRE84J05Q20120520'
p857
sg4
S'20120520\xc2\xa03:25PM UTC'
p858
sg6
S"Explosion near U.N. ceasefire monitor chief's convoy: Reuters witness"
p859
sa(dp860
g2
S'http://www.reuters.com/article/2012/05/20/us-syria-shelling-hama-idUSBRE84J0B120120520'
p861
sg4
S'20120520\xc2\xa03:25PM UTC'
p862
sg6
S'Syrian army shelling, gunfire kills 34 in Hama: group'
p863
sa(dp864
g2
S'http://www.reuters.com/article/2012/05/20/us-tornado-joplin-anniversary-idUSBRE84J0AW20120520'
p865
sg4
S'20120520\xc2\xa03:24PM UTC'
p866
sg6
S'In tornado-weary Joplin, graduates eager to move on despite Obama visit'
p867
sa(dp868
g2
S'http://www.reuters.com/article/2012/05/20/athletics-britain-ennis-idUSL4E8GK05820120520'
p869
sg4
S'20120520\xc2\xa03:23PM UTC'
p870
sg6
S'Athletics-Ennis denied win over Olympic champion Harper after error'
p871
sa(dp872
g2
S'http://www.reuters.com/article/2012/05/20/entertainment-us-battleship-idUSBRE84J0AS20120520'
p873
sg4
S'20120520\xc2\xa03:16PM UTC'
p874
sg6
S'"Battleship" bomb may hit studio\'s profits: analysts'
p875
sa(dp876
g2
S'http://www.reuters.com/article/2012/05/20/battleship-idUSL1E8GK3CF20120520'
p877
sg4
S'20120520\xc2\xa03:10PM UTC'
p878
sg6
S'"Battleship" bomb may hit studio\'s profits - analysts'
p879
sa(dp880
g2
S'http://www.reuters.com/article/2012/05/20/idUS44085+20-May-2012+MW20120520'
p881
sg4
S'20120520\xc2\xa03:09PM UTC'
p882
sg6
S' Gear International, Inc. Updates Financial Statements, Shows Increased Value and Progress of Business Model'
p883
sa(dp884
g2
S'http://www.reuters.com/article/2012/05/20/idUS43790+20-May-2012+GNW20120520'
p885
sg4
S'20120520\xc2\xa03:01PM UTC'
p886
sg6
S'EuraMedia to Focus on Content Sales Between Russia and U.S. Across New Mediums, Showcase New Broadcast and Ad Technologies'
p887
sa(dp888
g2
S'http://www.reuters.com/article/2012/05/20/idUS43787+20-May-2012+GNW20120520'
p889
sg4
S'20120520\xc2\xa03:01PM UTC'
p890
sg6
S'EuraMedia to Focus on Content Sales Between Russia and U.S. Across New Mediums, Showcase New Broadcast and Ad Technologies'
p891
sa(dp892
g2
S'http://www.reuters.com/article/2012/05/20/us-libya-megrahi-whitehouse-idUSBRE84J0AQ20120520'
p893
sg4
S'20120520\xc2\xa03:01PM UTC'
p894
sg6
S'Megrahi death does not end quest for Lockerbie justice: White House'
p895
sa(dp896
g2
S'http://www.reuters.com/article/2012/05/20/idUS43707+20-May-2012+PRN20120520'
p897
sg4
S'20120520\xc2\xa03:00PM UTC'
p898
sg6
S'Following Is a Test Release'
p899
sa(dp900
g2
S'http://www.reuters.com/article/2012/05/20/us-nuclear-iran-idUSBRE84J06G20120520'
p901
sg4
S'20120520\xc2\xa02:53PM UTC'
p902
sg6
S'U.N. nuclear chief hopeful on Iran deal before Baghdad meet'
p903
sa(dp904
g2
S'http://www.reuters.com/article/2012/05/20/us-quake-italy-arts-idUSBRE84J0AL20120520'
p905
sg4
S'20120520\xc2\xa02:51PM UTC'
p906
sg6
S"Italian town's art heritage devastated by quake"
p907
sa(dp908
g2
S'http://www.reuters.com/article/2012/05/20/quake-italy-arts-idUSL5E8GK6LN20120520'
p909
sg4
S'20120520\xc2\xa02:49PM UTC'
p910
sg6
S"Italian town's art heritage devastated by quake"
p911
sa(dp912
g2
S'http://www.reuters.com/article/2012/05/20/idUS43310+20-May-2012+GNW20120520'
p913
sg4
S'20120520\xc2\xa02:48PM UTC'
p914
sg6
S'UK Government Gets Ready for EuraMedia 2012, With Trade Commission UKTI Leading Initiative to Bring US Businesses to Event'
p915
sa(dp916
g2
S'http://www.reuters.com/article/2012/05/20/idUS43312+20-May-2012+GNW20120520'
p917
sg4
S'20120520\xc2\xa02:48PM UTC'
p918
sg6
S'UK Government Gets Ready for EuraMedia 2012, With Trade Commission UKTI Leading Initiative to Bring US Businesses to Event'
p919
sa(dp920
g2
S'http://www.reuters.com/article/2012/05/20/dewey-bankruptcy-idUSL1E8GJ0S620120520'
p921
sg4
S'20120520\xc2\xa02:45PM UTC'
p922
sg6
S'REFILE-Dewey to consider bankruptcy filing - source'
p923
sa(dp924
g2
S'http://www.reuters.com/article/2012/05/20/dewey-bankruptcy-idUSL4E8GJ02N20120520'
p925
sg4
S'20120520\xc2\xa02:40PM UTC'
p926
sg6
S'REFILE-RPT-Dewey to consider bankruptcy filing - source'
p927
sa(dp928
g2
S'http://www.reuters.com/article/2012/05/20/refinery-operations-motiva-portarthur-idUSL1E8GK3QQ20120520'
p929
sg4
S'20120520\xc2\xa02:37PM UTC'
p930
sg6
S'Motiva Port Arthur refinery reports malfunction-filing'
p931
sa(dp932
g2
S'http://www.reuters.com/article/2012/05/20/energy-gasoline-retail-idUSL1E8GK3M820120520'
p933
sg4
S'20120520\xc2\xa02:30PM UTC'
p934
sg6
S'U.S. gasoline prices fall to $3.78 a gallon'
p935
sa(dp936
g2
S'http://www.reuters.com/article/2012/05/20/idUS42821+20-May-2012+PRN20120520'
p937
sg4
S'20120520\xc2\xa02:30PM UTC'
p938
sg6
S'Following Is a Test Release'
p939
sa(dp940
g2
S'http://www.reuters.com/article/2012/05/20/refinery-operations-phillips-rodeo-idUSL1E8GK3M920120520'
p941
sg4
S'20120520\xc2\xa02:26PM UTC'
p942
sg6
S"Phillips' Rodeo, Calif. refinery reports flaring - filing"
p943
sa(dp944
g2
S'http://www.reuters.com/article/2012/05/20/us-usa-wildfires-idUSBRE84J00K20120520'
p945
sg4
S'20120520\xc2\xa02:16PM UTC'
p946
sg6
S'Fed by dry brush, wildfires persist in Southwest'
p947
sa(dp948
g2
S'http://www.reuters.com/article/2012/05/20/idUS42266+20-May-2012+BW20120520'
p949
sg4
S'20120520\xc2\xa02:15PM UTC'
p950
sg6
S'Ron Paul Decisively Wins Minnesota and Carries Delegates in Multiple Other States'
p951
sa(dp952
g2
S'http://www.reuters.com/article/2012/05/20/entertainment-us-boxoffice-idUSBRE84J08120120520'
p953
sg4
S'20120520\xc2\xa02:13PM UTC'
p954
sg6
S"'Avengers' outguns 'Battleship' at box offices"
p955
sa(dp956
g2
S'http://www.reuters.com/article/2012/05/20/us-g8-russia-iran-idUSBRE84J0A620120520'
p957
sg4
S'20120520\xc2\xa02:10PM UTC'
p958
sg6
S'Russia says West still considering military action on Iran'
p959
sa(dp960
g2
S'http://www.reuters.com/article/2012/05/20/idUSL5E8GK6KJ20120520'
p961
sg4
S'20120520\xc2\xa02:08PM UTC'
p962
sg6
S'Kuwait says April crude output averaged 3 mln bpd'
p963
sa(dp964
g2
S'http://www.reuters.com/article/2012/05/20/holdboxoffice-chart-idUSL1E8GIB2B20120520'
p965
sg4
S'20120520\xc2\xa02:06PM UTC'
p966
sg6
S'The top films at the North American box office'
p967
sa(dp968
g2
S'http://www.reuters.com/article/2012/05/20/boxoffice-idUSL1E8GK2M420120520'
p969
sg4
S'20120520\xc2\xa02:05PM UTC'
p970
sg6
S"UPDATE 1-'Avengers' outguns 'Battleship' at box offices"
p971
sa(dp972
g2
S'http://www.reuters.com/article/2012/05/20/idUS41735+20-May-2012+PRN20120520'
p973
sg4
S'20120520\xc2\xa02:00PM UTC'
p974
sg6
S'Following Is a Test Release'
p975
sa(dp976
g2
S'http://www.reuters.com/article/2012/05/20/quake-italy-idUSL5E8GK02W20120520'
p977
sg4
S'20120520\xc2\xa01:59PM UTC'
p978
sg6
S'UPDATE 9-Italy quake kills six, damages historic buildings'
p979
sa(dp980
g2
S'http://www.reuters.com/article/2012/05/20/nato-summit-protests-idUSL1E8GK2M620120520'
p981
sg4
S'20120520\xc2\xa01:59PM UTC'
p982
sg6
S'UPDATE 1-Protesters begin biggest anti-NATO rally in Chicago'
p983
sa(dp984
g2
S'http://www.reuters.com/article/2012/05/20/us-dalechihuly-pix-idUSBRE84J09120120520'
p985
sg4
S'20120520\xc2\xa01:56PM UTC'
p986
sg6
S"Dale Chihuly's 'Glass House' shines in Seattle"
p987
sa(dp988
g2
S'http://www.reuters.com/article/2012/05/20/us-eclipse-idUSBRE84J09U20120520'
p989
sg4
S'20120520\xc2\xa01:49PM UTC'
p990
sg6
S'Rare "ring of fire" solar eclipse to dim skies'
p991
sa(dp992
g2
S'http://www.reuters.com/article/2012/05/20/nato-summit-cyber-attack-idUSL1E8GK2D120120520'
p993
sg4
S'20120520\xc2\xa01:47PM UTC'
p994
sg6
S'"Anonymous" affiliate claims hacked Chicago police site as NATO opens'
p995
sa(dp996
g2
S'http://www.reuters.com/article/2012/05/20/us-nuclear-iran-amano-idUSBRE84J09D20120520'
p997
sg4
S'20120520\xc2\xa01:46PM UTC'
p998
sg6
S'U.N. nuclear head "positive" ahead of Iran visit'
p999
sa(dp1000
g2
S'http://www.reuters.com/article/2012/05/20/us-italy-bomb-idUSBRE84I04K20120520'
p1001
sg4
S'20120520\xc2\xa01:34PM UTC'
p1002
sg6
S'Lone bomber, not mafia, sought for Italy school attack'
p1003
sa(dp1004
g2
S'http://www.reuters.com/article/2012/05/20/g8-russia-iran-idUSL5E8GK68U20120520'
p1005
sg4
S'20120520\xc2\xa01:30PM UTC'
p1006
sg6
S'UPDATE 1-Russia says West still considering military action on Iran'
p1007
sa(dp1008
g2
S'http://www.reuters.com/article/2012/05/20/idUS40684+20-May-2012+PRN20120520'
p1009
sg4
S'20120520\xc2\xa01:30PM UTC'
p1010
sg6
S'Following Is a Test Release'
p1011
sa(dp1012
g2
S'http://www.reuters.com/article/2012/05/20/idUS40679+20-May-2012+MW20120520'
p1013
sg4
S'20120520\xc2\xa01:30PM UTC'
p1014
sg6
S" New Studies Confirm Value of Given Imaging's Advanced Esophageal Diagnostics Products in Diagnosing and Monitoring"
p1015
sa(dp1016
g2
S'http://www.reuters.com/article/2012/05/20/idUS40292+20-May-2012+HUG20120520'
p1017
sg4
S'20120520\xc2\xa01:15PM UTC'
p1018
sg6
S'Press Release from RAK Petroleum PCL'
p1019
sa(dp1020
g2
S'http://www.reuters.com/article/2012/05/20/us-g8-summit-merkel-idUSBRE84J08Z20120520'
p1021
sg4
S'20120520\xc2\xa01:13PM UTC'
p1022
sg6
S'Mighty Merkel may be the odd woman out'
p1023
sa(dp1024
g2
S'http://www.reuters.com/article/2012/05/20/g8-summit-merkel-idUSL1E8GK08H20120520'
p1025
sg4
S'20120520\xc2\xa01:07PM UTC'
p1026
sg6
S'Mighty Merkel may be the odd woman out'
p1027
sa(dp1028
g2
S'http://www.reuters.com/article/2012/05/20/g8-russia-iran-idUSL5E8GK6AX20120520'
p1029
sg4
S'20120520\xc2\xa01:06PM UTC'
p1030
sg6
S'Russia says military action on Iran being considered in West'
p1031
sa(dp1032
g2
S'http://www.reuters.com/article/2012/05/20/economy-greece-cameron-idUSL1E8GK29F20120520'
p1033
sg4
S'20120520\xc2\xa01:05PM UTC'
p1034
sg6
S"Greeks must choose on euro-UK's Cameron"
p1035
sa(dp1036
g2
S'http://www.reuters.com/article/2012/05/20/us-bahrain-activist-idUSBRE84J07020120520'
p1037
sg4
S'20120520\xc2\xa01:04PM UTC'
p1038
sg6
S'Bahraini activist granted bail but not released'
p1039
sa(dp1040
g2
S'http://www.reuters.com/article/2012/05/20/bahrain-activist-idUSL5E8GK67C20120520'
p1041
sg4
S'20120520\xc2\xa01:03PM UTC'
p1042
sg6
S'UPDATE 1-Bahraini activist granted bail but not released'
p1043
sa(dp1044
g2
S'http://www.reuters.com/article/2012/05/20/jcpenney-idUSL1E8GK26120120520'
p1045
sg4
S'20120520\xc2\xa01:02PM UTC'
p1046
sg6
S"J.C. Penney shares a bargain - Barron's"
p1047
sa(dp1048
g2
S'http://www.reuters.com/article/2012/05/20/idUS39903+20-May-2012+PRN20120520'
p1049
sg4
S'20120520\xc2\xa01:00PM UTC'
p1050
sg6
S'Following Is a Test Release'
p1051
sa(dp1052
g2
S'http://www.reuters.com/article/2012/05/20/idUS39890+20-May-2012+PRN20120520'
p1053
sg4
S'20120520\xc2\xa01:00PM UTC'
p1054
sg6
S'7-Eleven Plans to Break Global, Domestic Store-Growth Records Set in 2011'
p1055
sa(dp1056
g2
S'http://www.reuters.com/article/2012/05/20/idUS39879+20-May-2012+BW20120520'
p1057
sg4
S'20120520\xc2\xa01:00PM UTC'
p1058
sg6
S'Nature Neuroscience Study Shows Unique Scientific Support for Potential New Myelin Repair Treatment for Multiple Sclerosis'
p1059
sa(dp1060
g2
S'http://www.reuters.com/article/2012/05/20/us-libya-megrahi-schumer-idUSBRE84J08720120520'
p1061
sg4
S'20120520\xc2\xa012:55PM UTC'
p1062
sg6
S"Senators decry convicted Lockerbie bomber's death in freedom"
p1063
sa(dp1064
g2
S'http://www.reuters.com/article/2012/05/20/entertainment-us-cannes-amour-idUSBRE84J06320120520'
p1065
sg4
S'20120520\xc2\xa012:53PM UTC'
p1066
sg6
S'Cannes director Haneke faces death in moving "Love"'
p1067
sa(dp1068
g2
S'http://www.reuters.com/article/2012/05/20/us-italy-monti-trip-idUSBRE84J08I20120520'
p1069
sg4
S'20120520\xc2\xa012:51PM UTC'
p1070
sg6
S'Italy PM Monti shortens U.S. trip after bomb and quake'
p1071
sa(dp1072
g2
S'http://www.reuters.com/article/2012/05/20/us-italy-monti-trip-idUSBRE84J08E20120520'
p1073
sg4
S'20120520\xc2\xa012:50PM UTC'
p1074
sg6
S'Italy PM Monti shortens U.S. trip after bomb and quake'
p1075
sa(dp1076
g2
S'http://www.reuters.com/article/2012/05/20/us-libya-megrahi-ntc-idUSBRE84J08D20120520'
p1077
sg4
S'20120520\xc2\xa012:48PM UTC'
p1078
sg6
S"Libya's NTC says Megrahi death will not shut Lockerbie file"
p1079
sa(dp1080
g2
S'http://www.reuters.com/article/2012/05/20/oil-iran-idUSL1E8GK26220120520'
p1081
sg4
S'20120520\xc2\xa012:37PM UTC'
p1082
sg6
S'Iran economy minister says EU embargo to push up oil price-CNN'
p1083
sa(dp1084
g2
S'http://www.reuters.com/article/2012/05/20/google-motorola-china-idUSL4E8GK03M20120520'
p1085
sg4
S'20120520\xc2\xa012:35PM UTC'
p1086
sg6
S"China approves Google's Motorola deal"
p1087
sa(dp1088
g2
S'http://www.reuters.com/article/2012/05/20/idUS38980+20-May-2012+PRN20120520'
p1089
sg4
S'20120520\xc2\xa012:30PM UTC'
p1090
sg6
S'Following Is a Test Release'
p1091
sa(dp1092
g2
S'http://www.reuters.com/article/2012/05/20/idUS38752+20-May-2012+BW20120520'
p1093
sg4
S'20120520\xc2\xa012:23PM UTC'
p1094
sg6
S'Affordable Care Act Creates Almost 100K Jobs, Boosts Economic Activity in California by $4.4 Billion'
p1095
sa(dp1096
g2
S'http://www.reuters.com/article/2012/05/20/us-facebook-barrons-idUSBRE84J08920120520'
p1097
sg4
S'20120520\xc2\xa012:19PM UTC'
p1098
sg6
S"Facebook shares could fall below IPO price: Barron's"
p1099
sa(dp1100
g2
S'http://www.reuters.com/article/2012/05/20/facebook-idUSL1E8GK29I20120520'
p1101
sg4
S'20120520\xc2\xa012:18PM UTC'
p1102
sg6
S"Facebook shares could fall below IPO price-Barron's"
p1103
sa(dp1104
g2
S'http://www.reuters.com/article/2012/05/20/us-china-bond-default-idUSBRE84J08320120520'
p1105
sg4
S'20120520\xc2\xa012:17PM UTC'
p1106
sg6
S'Insight: China pays high price to spare state firm from bankruptcy'
p1107
sa(dp1108
g2
S'http://www.reuters.com/article/2012/05/20/idUS38554+20-May-2012+PRN20120520'
p1109
sg4
S'20120520\xc2\xa012:15PM UTC'
p1110
sg6
S"Newsweek Releases 2012 Best High Schools in America Rankings -- Kentucky's Gatton Academy Tops List"
p1111
sa(dp1112
g2
S'http://www.reuters.com/article/2012/05/20/idUS38065+20-May-2012+PRN20120520'
p1113
sg4
S'20120520\xc2\xa012:00PM UTC'
p1114
sg6
S'Following Is a Test Release'
p1115
sa(dp1116
g2
S'http://www.reuters.com/article/2012/05/20/china-bond-default-idUSL4E8GE74820120520'
p1117
sg4
S'20120520\xc2\xa012:00PM UTC'
p1118
sg6
S'INSIGHT-China pays high price to spare state firm from bankruptcy'
p1119
sa(dp1120
g2
S'http://www.reuters.com/article/2012/05/20/us-china-northkorea-idUSBRE84J07X20120520'
p1121
sg4
S'20120520\xc2\xa011:59AM UTC'
p1122
sg6
S'North Korea releases detained Chinese fishermen'
p1123
sa(dp1124
g2
S'http://www.reuters.com/article/2012/05/20/boxoffice-idUSL1E8GI9KM20120520'
p1125
sg4
S'20120520\xc2\xa011:50AM UTC'
p1126
sg6
S"'Avengers' overpowers 'Battleship' at U.S., Canadian box office"
p1127
sa(dp1128
g2
S'http://www.reuters.com/article/2012/05/20/brazil-economy-idUSL1E8GK22W20120520'
p1129
sg4
S'20120520\xc2\xa011:47AM UTC'
p1130
sg6
S'Brazil central banker signals further easing'
p1131
sa(dp1132
g2
S'http://www.reuters.com/article/2012/05/20/china-northkorea-idUSL4E8GK03720120520'
p1133
sg4
S'20120520\xc2\xa011:46AM UTC'
p1134
sg6
S'North Korea releases detained Chinese fishermen'
p1135
sa(dp1136
g2
S'http://www.reuters.com/article/2012/05/20/vodafone-cww-orbis-idUSL5E8GK67820120520'
p1137
sg4
S'20120520\xc2\xa011:42AM UTC'
p1138
sg6
S"CWW result won't change Vodafone bid view - Orbis"
p1139
sa(dp1140
g2
S'http://www.reuters.com/article/2012/05/20/us-libya-megrahi-cameron-idUSBRE84J07W20120520'
p1141
sg4
S'20120520\xc2\xa011:33AM UTC'
p1142
sg6
S"UK's Cameron: Megrahi should have never been freed"
p1143
sa(dp1144
g2
S'http://www.reuters.com/article/2012/05/20/germany-wages-idUSL5E8GK41Z20120520'
p1145
sg4
S'20120520\xc2\xa011:32AM UTC'
p1146
sg6
S'REFILE-Euro zone row gets fat pay rise for German workers'
p1147
sa(dp1148
g2
S'http://www.reuters.com/article/2012/05/20/idUS37278+20-May-2012+PRN20120520'
p1149
sg4
S'20120520\xc2\xa011:30AM UTC'
p1150
sg6
S'Following Is a Test Release'
p1151
sa(dp1152
g2
S'http://www.reuters.com/article/2012/05/20/idUS37274+20-May-2012+PRN20120520'
p1153
sg4
S'20120520\xc2\xa011:30AM UTC'
p1154
sg6
S'First, do no harm: Study finds danger in standard treatment for a serious lung disease'
p1155
sa(dp1156
g2
S'http://www.reuters.com/article/2012/05/20/us-germany-wages-idUSBRE84J07S20120520'
p1157
sg4
S'20120520\xc2\xa011:25AM UTC'
p1158
sg6
S'Euro zone row gets fat pay rise for German workers'
p1159
sa(dp1160
g2
S'http://www.reuters.com/article/2012/05/20/us-usa-boehner-jpmorgan-idUSBRE84J07O20120520'
p1161
sg4
S'20120520\xc2\xa011:23AM UTC'
p1162
sg6
S'U.S. banking laws unable to stop JPMorgan loss: Republican Boehner'
p1163
sa(dp1164
g2
S'http://www.reuters.com/article/2012/05/20/usa-boehner-jpmorgan-idUSL1E8GK20620120520'
p1165
sg4
S'20120520\xc2\xa011:22AM UTC'
p1166
sg6
S'US banking laws unable to stop JPMorgan loss: Republican Boehner'
p1167
sa(dp1168
g2
S'http://www.reuters.com/article/2012/05/20/idUS36880+20-May-2012+BW20120520'
p1169
sg4
S'20120520\xc2\xa011:20AM UTC'
p1170
sg6
S'Sucampo Presents Data for AMITIZA\xc2\xae in the Treatment of Moderate to Very Severe Irritable Bowel Syndrome with Constipation (IBS-C)'
p1171
sa(dp1172
g2
S'http://www.reuters.com/article/2012/05/20/idUS36673+20-May-2012+PRN20120520'
p1173
sg4
S'20120520\xc2\xa011:11AM UTC'
p1174
sg6
S'University Research Revealed By Southwoods Counseling May Prove Freud Right'
p1175
sa(dp1176
g2
S'http://www.reuters.com/article/2012/05/20/us-sudan-foreigners-idUSBRE84J05N20120520'
p1177
sg4
S'20120520\xc2\xa011:08AM UTC'
p1178
sg6
S'Sudan releases four foreigners arrested in border area'
p1179
sa(dp1180
g2
S'http://www.reuters.com/article/2012/05/20/idUS36512+20-May-2012+BW20120520'
p1181
sg4
S'20120520\xc2\xa011:05AM UTC'
p1182
sg6
S'Cobiprostone Preclinical Data from NSAID-Induced Gastric Mucosal Injury Models Reported at Digestive Disease Week 2012'
p1183
sa(dp1184
g2
S'http://www.reuters.com/article/2012/05/20/idUS36460+20-May-2012+GNW20120520'
p1185
sg4
S'20120520\xc2\xa011:00AM UTC'
p1186
sg6
S'Nutritional Counseling for Weight Loss Available at Seminole Chiropractic Wellness Center'
p1187
sa(dp1188
g2
S'http://www.reuters.com/article/2012/05/20/idUS36457+20-May-2012+GNW20120520'
p1189
sg4
S'20120520\xc2\xa011:00AM UTC'
p1190
sg6
S'Nutritional Counseling for Weight Loss Available at Seminole Chiropractic Wellness Center'
p1191
sa(dp1192
g2
S'http://www.reuters.com/article/2012/05/20/idUS36451+20-May-2012+GNW20120520'
p1193
sg4
S'20120520\xc2\xa011:00AM UTC'
p1194
sg6
S'Smyrna Chiropractor Announces New Health Resources for Patients'
p1195
sa(dp1196
g2
S'http://www.reuters.com/article/2012/05/20/idUS36449+20-May-2012+GNW20120520'
p1197
sg4
S'20120520\xc2\xa011:00AM UTC'
p1198
sg6
S'Skocik Chiropractic Invites Patients to Interact via Facebook'
p1199
sa(dp1200
g2
S'http://www.reuters.com/article/2012/05/20/idUS36447+20-May-2012+GNW20120520'
p1201
sg4
S'20120520\xc2\xa011:00AM UTC'
p1202
sg6
S'Skocik Chiropractic Invites Patients to Interact via Facebook'
p1203
sa(dp1204
g2
S'http://www.reuters.com/article/2012/05/20/idUS36445+20-May-2012+GNW20120520'
p1205
sg4
S'20120520\xc2\xa011:00AM UTC'
p1206
sg6
S'Massage Therapy Helps Wilson Patients Heal After Personal Injuries'
p1207
sa(dp1208
g2
S'http://www.reuters.com/article/2012/05/20/idUS36443+20-May-2012+GNW20120520'
p1209
sg4
S'20120520\xc2\xa011:00AM UTC'
p1210
sg6
S'Massage Therapy Helps Wilson Patients Heal After Personal Injuries'
p1211
sa(dp1212
g2
S'http://www.reuters.com/article/2012/05/20/idUS36441+20-May-2012+GNW20120520'
p1213
sg4
S'20120520\xc2\xa011:00AM UTC'
p1214
sg6
S'Pet Grooming and Bathing Play Important Role in Overall Wellness According to Dacula Veterinarian'
p1215
sa(dp1216
g2
S'http://www.reuters.com/article/2012/05/20/idUS36439+20-May-2012+GNW20120520'
p1217
sg4
S'20120520\xc2\xa011:00AM UTC'
p1218
sg6
S'Pet Grooming and Bathing Play Important Role in Overall Wellness According to Dacula Veterinarian'
p1219
sa(dp1220
g2
S'http://www.reuters.com/article/2012/05/20/idUS36453+20-May-2012+GNW20120520'
p1221
sg4
S'20120520\xc2\xa011:00AM UTC'
p1222
sg6
S'Smyrna Chiropractor Announces New Health Resources for Patients'
p1223
sa(dp1224
g2
S'http://www.reuters.com/article/2012/05/20/idUS36424+20-May-2012+GNW20120520'
p1225
sg4
S'20120520\xc2\xa011:00AM UTC'
p1226
sg6
S'Glen Carbon Chiropractor Achieves Certification in Whiplash'
p1227
sa(dp1228
g2
S'http://www.reuters.com/article/2012/05/20/idUS36437+20-May-2012+GNW20120520'
p1229
sg4
S'20120520\xc2\xa011:00AM UTC'
p1230
sg6
S'Animal Emergency Centre Urges Pet Owners to Plan Ahead for Pet Emergencies'
p1231
sa(dp1232
g2
S'http://www.reuters.com/article/2012/05/20/idUS36422+20-May-2012+GNW20120520'
p1233
sg4
S'20120520\xc2\xa011:00AM UTC'
p1234
sg6
S'Glen Carbon Chiropractor Achieves Certification in Whiplash'
p1235
sa(dp1236
g2
S'http://www.reuters.com/article/2012/05/20/idUS36433+20-May-2012+GNW20120520'
p1237
sg4
S'20120520\xc2\xa011:00AM UTC'
p1238
sg6
S'Animal Emergency Centre Urges Pet Owners to Plan Ahead for Pet Emergencies'
p1239
sa(dp1240
g2
S'http://www.reuters.com/article/2012/05/20/idUS36431+20-May-2012+GNW20120520'
p1241
sg4
S'20120520\xc2\xa011:00AM UTC'
p1242
sg6
S'Gresham Veterinarians Warn of Salmonella Outbreak, Diamond Pet Foods Recalled'
p1243
sa(dp1244
g2
S'http://www.reuters.com/article/2012/05/20/idUS36429+20-May-2012+GNW20120520'
p1245
sg4
S'20120520\xc2\xa011:00AM UTC'
p1246
sg6
S'Gresham Veterinarians Warn of Salmonella Outbreak, Diamond Pet Foods Recalled'
p1247
sa(dp1248
g2
S'http://www.reuters.com/article/2012/05/20/idUS36415+20-May-2012+PRN20120520'
p1249
sg4
S'20120520\xc2\xa011:00AM UTC'
p1250
sg6
S'Following Is a Test Release'
p1251
sa(dp1252
g2
S'http://www.reuters.com/article/2012/05/20/grains-weekahead-idUSL1E8GIERA20120520'
p1253
sg4
S'20120520\xc2\xa010:59AM UTC'
p1254
sg6
S'Grains Week Ahead-Dome of heat may trigger risk premiums'
p1255
sa(dp1256
g2
S'http://www.reuters.com/article/2012/05/20/idUS36383+20-May-2012+PRN20120520'
p1257
sg4
S'20120520\xc2\xa010:59AM UTC'
p1258
sg6
S'Companies Cash In With Their Unwanted Computers, Electronics & Inventory'
p1259
sa(dp1260
g2
S'http://www.reuters.com/article/2012/05/20/us-storm-alberto-idUSBRE84I0EP20120520'
p1261
sg4
S'20120520\xc2\xa010:58AM UTC'
p1262
sg6
S'Tropical Storm Alberto not seen to gain strength, forecasters say'
p1263
sa(dp1264
g2
S'http://www.reuters.com/article/2012/05/20/storm-alberto-idUSL1E8GK1YR20120520'
p1265
sg4
S'20120520\xc2\xa010:58AM UTC'
p1266
sg6
S'Tropical Storm Alberto not seen to gain strength, forecasters say'
p1267
sa(dp1268
g2
S'http://www.reuters.com/article/2012/05/20/us-lebanon-syria-shooting-idUSBRE84J07J20120520'
p1269
sg4
S'20120520\xc2\xa010:57AM UTC'
p1270
sg6
S'Lebanese soldiers kill two anti-Assad activists'
p1271
sa(dp1272
g2
S'http://www.reuters.com/article/2012/05/20/entertainment-us-cannes-haiti-idUSBRE84I07M20120520'
p1273
sg4
S'20120520\xc2\xa010:44AM UTC'
p1274
sg6
S'Sean Penn opens wallets for Haiti at Cannes gala'
p1275
sa(dp1276
g2
S'http://www.reuters.com/article/2012/05/20/entertainment-us-cannes-abuse-idUSBRE84J05U20120520'
p1277
sg4
S'20120520\xc2\xa010:42AM UTC'
p1278
sg6
S'Danish child abuse film shocks Cannes crowds'
p1279
sa(dp1280
g2
S'http://www.reuters.com/article/2012/05/20/entertainment-us-cannes-lawless-idUSBRE84I06R20120520'
p1281
sg4
S'20120520\xc2\xa010:41AM UTC'
p1282
sg6
S'Tough times for small U.S. films despite bumper Cannes'
p1283
sa(dp1284
g2
S'http://www.reuters.com/article/2012/05/20/nato-summit-arrests-idUSL1E8GK21K20120520'
p1285
sg4
S'20120520\xc2\xa010:40AM UTC'
p1286
sg6
S'Fourth person arrested for plotting NATO attacks - police'
p1287
sa(dp1288
g2
S'http://www.reuters.com/article/2012/05/20/idUS35722+20-May-2012+BW20120520'
p1289
sg4
S'20120520\xc2\xa010:34AM UTC'
p1290
sg6
S'Dubai Chamber Builds Commercial Ties with Ethiopia to Open Satellite Office in Addis Ababa'
p1291
sa(dp1292
g2
S'http://www.reuters.com/article/2012/05/20/us-egypt-election-sabahy-idUSBRE84J06B20120520'
p1293
sg4
S'20120520\xc2\xa010:33AM UTC'
p1294
sg6
S'Egypt\'s would-be "president of the poor" touts past'
p1295
sa(dp1296
g2
S'http://www.reuters.com/article/2012/05/20/us-egypt-election-brotherhood-idUSBRE84J07C20120520'
p1297
sg4
S'20120520\xc2\xa010:33AM UTC'
p1298
sg6
S"Egypt's Brotherhood goes all out for presidency"
p1299
sa(dp1300
g2
S'http://www.reuters.com/article/2012/05/20/idUS35602+20-May-2012+PRN20120520'
p1301
sg4
S'20120520\xc2\xa010:30AM UTC'
p1302
sg6
S'Following Is a Test Release'
p1303
sa(dp1304
g2
S'http://www.reuters.com/article/2012/05/20/canada-column-markets-idUSL1E8SB8EW20120520'
p1305
sg4
S'20120520\xc2\xa010:29AM UTC'
p1306
sg6
S'BAY STREET-Resilient Canadian banks may go unrewarded'
p1307
sa(dp1308
g2
S'http://www.reuters.com/article/2012/05/20/us-markets-stocks-weekahead-idUSBRE84H18B20120520'
p1309
sg4
S'20120520\xc2\xa010:29AM UTC'
p1310
sg6
S'Wall Street Week Ahead: Market is oversold, but major signs say "sell"'
p1311
sa(dp1312
g2
S'http://www.reuters.com/article/2012/05/20/idUS35514+20-May-2012+MW20120520'
p1313
sg4
S'20120520\xc2\xa010:28AM UTC'
p1314
sg6
S' Media Advisory: Their Excellencies to Welcome Their Royal Highnesses The Prince of Wales and The Duchess of Cornwall to Canada Dur'
p1315
sa(dp1316
g2
S'http://www.reuters.com/article/2012/05/20/usa-stocks-weekahead-idUSL1E8GIJS420120520'
p1317
sg4
S'20120520\xc2\xa010:26AM UTC'
p1318
sg6
S'RPT-Wall St Wk Ahead: Market is oversold, but major signs say "sell"'
p1319
sa(dp1320
g2
S'http://www.reuters.com/article/2012/05/20/us-syria-shelling-hama-idUSBRE84J07820120520'
p1321
sg4
S'20120520\xc2\xa010:22AM UTC'
p1322
sg6
S'Syrian army shelling kills 16 in Hama: rights groups'
p1323
sa(dp1324
g2
S'http://www.reuters.com/article/2012/05/20/bahrain-activist-idUSL5E8GK5E520120520'
p1325
sg4
S'20120520\xc2\xa010:08AM UTC'
p1326
sg6
S'Bahraini activist granted bail but not released'
p1327
sa(dp1328
g2
S'http://www.reuters.com/article/2012/05/20/idUS34731+20-May-2012+PRN20120520'
p1329
sg4
S'20120520\xc2\xa010:00AM UTC'
p1330
sg6
S'Following Is a Test Release'
p1331
sa(dp1332
g2
S'http://www.reuters.com/article/2012/05/20/idUS34722+20-May-2012+GNW20120520'
p1333
sg4
S'20120520\xc2\xa010:00AM UTC'
p1334
sg6
S'St. Louis Chiropractor Helps Patients Manage Back Pain With Natural Techniques'
p1335
sa(dp1336
g2
S'http://www.reuters.com/article/2012/05/20/idUS34718+20-May-2012+GNW20120520'
p1337
sg4
S'20120520\xc2\xa010:00AM UTC'
p1338
sg6
S'St. Louis Chiropractor Helps Patients Manage Back Pain With Natural Techniques'
p1339
sa(dp1340
g2
S'http://www.reuters.com/article/2012/05/20/idUS34729+20-May-2012+GNW20120520'
p1341
sg4
S'20120520\xc2\xa010:00AM UTC'
p1342
sg6
S'Davison Veterinarian Announces New Online Pet Services'
p1343
sa(dp1344
g2
S'http://www.reuters.com/article/2012/05/20/idUS34726+20-May-2012+GNW20120520'
p1345
sg4
S'20120520\xc2\xa010:00AM UTC'
p1346
sg6
S'Davison Veterinarian Announces New Online Pet Services'
p1347
sa(dp1348
g2
S'http://www.reuters.com/article/2012/05/20/idUS34712+20-May-2012+PRN20120520'
p1349
sg4
S'20120520\xc2\xa010:00AM UTC'
p1350
sg6
S'ATAC Mourns Loss of CAPT Thomas "TC" Bennett USN (Ret) 1954-2012'
p1351
sa(dp1352
g2
S'http://www.reuters.com/article/2012/05/20/idUS34708+20-May-2012+PRN20120520'
p1353
sg4
S'20120520\xc2\xa010:00AM UTC'
p1354
sg6
S'FX Energy Selects Two New Exploratory Wells for 2012'
p1355
sa(dp1356
g2
S'http://www.reuters.com/article/2012/05/20/emirate-debt-idUSL5E8GK3MU20120520'
p1357
sg4
S'20120520\xc2\xa09:59AM UTC'
p1358
sg6
S"UPDATE 1-UAE to settle citizens' defaulted loans, up to $1.4 mln"
p1359
sa(dp1360
g2
S'http://www.reuters.com/article/2012/05/20/kuwait-media-ban-idUSL5E8GK12C20120520'
p1361
sg4
S'20120520\xc2\xa09:58AM UTC'
p1362
sg6
S'Kuwait daily cautious after sectarian ban lifted'
p1363
sa(dp1364
g2
S'http://www.reuters.com/article/2012/05/20/us-italy-quake-aftershock-idUSBRE84J06T20120520'
p1365
sg4
S'20120520\xc2\xa09:58AM UTC'
p1366
sg6
S'Strong aftershock hits northern Italy, more collapses'
p1367
sa(dp1368
g2
S'http://www.reuters.com/article/2012/05/20/italy-quake-aftershock-idUSL5E8GK5FL20120520'
p1369
sg4
S'20120520\xc2\xa09:58AM UTC'
p1370
sg6
S'Strong aftershock hits northern Italy, more collapses'
p1371
sa(dp1372
g2
S'http://www.reuters.com/article/2012/05/20/ivorycoast-miracle-events-idUSL5E8GK3EX20120520'
p1373
sg4
S'20120520\xc2\xa09:52AM UTC'
p1374
sg6
S'TIMELINE-Ivory Coast bids to put tumultuous past behind it'
p1375
sa(dp1376
g2
S'http://www.reuters.com/article/2012/05/20/idUS34387+20-May-2012+MW20120520'
p1377
sg4
S'20120520\xc2\xa09:49AM UTC'
p1378
sg6
S' Message from His Excellency the Right Honourable David Johnston, Governor General of Canada, on Victoria Day'
p1379
sa(dp1380
g2
S'http://www.reuters.com/article/2012/05/20/gm-opel-idUSL5E8GK5E820120520'
p1381
sg4
S'20120520\xc2\xa09:46AM UTC'
p1382
sg6
S'Labour rep says Opel prepares plant closure-magazine'
p1383
sa(dp1384
g2
S'http://www.reuters.com/article/2012/05/20/us-libya-megrahi-events-idUSBRE84J06M20120520'
p1385
sg4
S'20120520\xc2\xa09:43AM UTC'
p1386
sg6
S'Factbox: Lockerbie bomber Megrahi dies'
p1387
sa(dp1388
g2
S'http://www.reuters.com/article/2012/05/20/idUS33786+20-May-2012+PRN20120520'
p1389
sg4
S'20120520\xc2\xa09:30AM UTC'
p1390
sg6
S'Following Is a Test Release'
p1391
sa(dp1392
g2
S'http://www.reuters.com/article/2012/05/20/emirate-debt-idUSL5E8GK3JA20120520'
p1393
sg4
S'20120520\xc2\xa09:18AM UTC'
p1394
sg6
S"REFILE-UAE to settle citizens' defaulted loans, up to $1.4 mln"
p1395
sa(dp1396
g2
S'http://www.reuters.com/article/2012/05/20/idUS32856+20-May-2012+PRN20120520'
p1397
sg4
S'20120520\xc2\xa09:00AM UTC'
p1398
sg6
S'Following Is a Test Release'
p1399
sa(dp1400
g2
S'http://www.reuters.com/article/2012/05/20/italy-jewellery-idUSL5E8GK3MC20120520'
p1401
sg4
S'20120520\xc2\xa09:00AM UTC'
p1402
sg6
S"Italy's jewellers fuse innovation and tradition"
p1403
sa(dp1404
g2
S'http://www.reuters.com/article/2012/05/20/imf-emirates-debt-idUSL5E8GK38R20120520'
p1405
sg4
S'20120520\xc2\xa08:48AM UTC'
p1406
sg6
S"UAE government firms' debt refinancing 'a challenge' - IMF"
p1407
sa(dp1408
g2
S'http://www.reuters.com/article/2012/05/20/kuwait-nig-idUSL5E8GK3MF20120520'
p1409
sg4
S'20120520\xc2\xa08:42AM UTC'
p1410
sg6
S"REFILE-Kuwait's NIG to launch $358 mln financing"
p1411
sa(dp1412
g2
S'http://www.reuters.com/article/2012/05/20/saudi-mojil-idUSL5E8GK3K920120520'
p1413
sg4
S'20120520\xc2\xa08:35AM UTC'
p1414
sg6
S'Saudi contractor Mohammad Al Mojil replaces CEO after losses'
p1415
sa(dp1416
g2
S'http://www.reuters.com/article/2012/05/20/iraq-kurdistan-idUSL5E8GK2WS20120520'
p1417
sg4
S'20120520\xc2\xa08:34AM UTC'
p1418
sg6
S'UPDATE 2-Iraqi Kurdistan to push ahead with oil export plan'
p1419
sa(dp1420
g2
S'http://www.reuters.com/article/2012/05/20/idUS31811+20-May-2012+PRN20120520'
p1421
sg4
S'20120520\xc2\xa08:30AM UTC'
p1422
sg6
S'Following Is a Test Release'
p1423
sa(dp1424
g2
S'http://www.reuters.com/article/2012/05/20/idUS31808+20-May-2012+PRN20120520'
p1425
sg4
S'20120520\xc2\xa08:30AM UTC'
p1426
sg6
S"Over A Thousand People Protest Carlos Slim - World's Richest Man - Receiving Honorary Degree from George Washington University"
p1427
sa(dp1428
g2
S'http://www.reuters.com/article/2012/05/20/press-digest-sunday-idUSL5E8GK3JN20120520'
p1429
sg4
S'20120520\xc2\xa08:27AM UTC'
p1430
sg6
S'PRESS DIGEST - Sunday British Business - May 20'
p1431
sa(dp1432
g2
S'http://www.reuters.com/article/2012/05/20/bangladesh-oil-idUSL4E8GK02M20120520'
p1433
sg4
S'20120520\xc2\xa08:21AM UTC'
p1434
sg6
S'Bangladesh finds first oil, in two gas fields'
p1435
sa(dp1436
g2
S'http://www.reuters.com/article/2012/05/20/italy-vote-idUSL5E8GJ2D620120520'
p1437
sg4
S'20120520\xc2\xa08:11AM UTC'
p1438
sg6
S'Italian local vote to gauge rising economic worry'
p1439
sa(dp1440
g2
S'http://www.reuters.com/article/2012/05/20/china-economy-property-idUSL4E8GK02L20120520'
p1441
sg4
S'20120520\xc2\xa08:07AM UTC'
p1442
sg6
S'Chinese premier vows to maintain property controls'
p1443
sa(dp1444
g2
S'http://www.reuters.com/article/2012/05/20/us-eurozone-britain-idUSBRE84J05920120520'
p1445
sg4
S'20120520\xc2\xa08:01AM UTC'
p1446
sg6
S'Weaker euro zone nations need more support from core: UK'
p1447
sa(dp1448
g2
S'http://www.reuters.com/article/2012/05/20/us-lebanon-syria-shooting-idUSBRE84J05120120520'
p1449
sg4
S'20120520\xc2\xa08:00AM UTC'
p1450
sg6
S'Lebanese soldiers kill two anti-Assad group members'
p1451
sa(dp1452
g2
S'http://www.reuters.com/article/2012/05/20/idUS30980+20-May-2012+PRN20120520'
p1453
sg4
S'20120520\xc2\xa08:00AM UTC'
p1454
sg6
S'Following Is a Test Release'
p1455
sa(dp1456
g2
S'http://www.reuters.com/article/2012/05/20/idUS30958+20-May-2012+BW20120520'
p1457
sg4
S'20120520\xc2\xa08:00AM UTC'
p1458
sg6
S'BioMed ISRAEL 2012: 15 Delegations from around the World, More Than 6,000 Visitors (1,000 Are Attendees from Abroad) Come This Week to Israel to Meet with the Hottest BioMed Companies in Israel'
p1459
sa(dp1460
g2
S'http://www.reuters.com/article/2012/05/20/eurozone-britain-idUSL5E8GK18C20120520'
p1461
sg4
S'20120520\xc2\xa07:55AM UTC'
p1462
sg6
S'UPDATE 1-Weaker euro zone nations need more support from core-UK'
p1463
sa(dp1464
g2
S'http://www.reuters.com/article/2012/05/20/net-us-pakistan-twitter-ban-idUSBRE84J05320120520'
p1465
sg4
S'20120520\xc2\xa07:36AM UTC'
p1466
sg6
S'Pakistan blocks Twitter access over "blasphemous content"'
p1467
sa(dp1468
g2
S'http://www.reuters.com/article/2012/05/20/pakistan-twitter-ban-idUSL4E8GK02G20120520'
p1469
sg4
S'20120520\xc2\xa07:33AM UTC'
p1470
sg6
S'Pakistan blocks Twitter access over "blasphemous content"'
p1471
sa(dp1472
g2
S'http://www.reuters.com/article/2012/05/20/gfh-sukuk-idUSL5E8GK3IX20120520'
p1473
sg4
S'20120520\xc2\xa07:31AM UTC'
p1474
sg6
S"Bahrain's GFH agrees $110 mln sukuk restructuring"
p1475
sa(dp1476
g2
S'http://www.reuters.com/article/2012/05/20/idUS30077+20-May-2012+PRN20120520'
p1477
sg4
S'20120520\xc2\xa07:30AM UTC'
p1478
sg6
S'Following Is a Test Release'
p1479
sa(dp1480
g2
S'http://www.reuters.com/article/2012/05/20/us-mali-idUSBRE84J04X20120520'
p1481
sg4
S'20120520\xc2\xa07:21AM UTC'
p1482
sg6
S'Mali coup leader backs transition president'
p1483
sa(dp1484
g2
S'http://www.reuters.com/article/2012/05/20/us-bskyb-competitioncommission-idUSBRE84J04T20120520'
p1485
sg4
S'20120520\xc2\xa07:20AM UTC'
p1486
sg6
S'BSkyB could get reprieve from UK regulator: paper'
p1487
sa(dp1488
g2
S'http://www.reuters.com/article/2012/05/20/bskyb-competitioncommission-idUSL5E8GK0JE20120520'
p1489
sg4
S'20120520\xc2\xa07:18AM UTC'
p1490
sg6
S'BSkyB could get reprieve from UK regulator-paper'
p1491
sa(dp1492
g2
S'http://www.reuters.com/article/2012/05/20/us-nato-summit-allen-idUSBRE84J04P20120520'
p1493
sg4
S'20120520\xc2\xa07:00AM UTC'
p1494
sg6
S'General Allen plays down urgency of Pakistan deal'
p1495
sa(dp1496
g2
S'http://www.reuters.com/article/2012/05/20/idUS29243+20-May-2012+PRN20120520'
p1497
sg4
S'20120520\xc2\xa07:00AM UTC'
p1498
sg6
S'Following Is a Test Release'
p1499
sa(dp1500
g2
S'http://www.reuters.com/article/2012/05/20/idUS29240+20-May-2012+PRN20120520'
p1501
sg4
S'20120520\xc2\xa07:00AM UTC'
p1502
sg6
S"Dickey's Signs Lease in Orange Park"
p1503
sa(dp1504
g2
S'http://www.reuters.com/article/2012/05/20/swiss-syria-moenylaundering-idUSL5E8GK2WJ20120520'
p1505
sg4
S'20120520\xc2\xa06:55AM UTC'
p1506
sg6
S'Swiss investigate Syrians, Libyans over money-laundering'
p1507
sa(dp1508
g2
S'http://www.reuters.com/article/2012/05/20/us-iraq-kurdistan-idUSBRE84J04K20120520'
p1509
sg4
S'20120520\xc2\xa06:53AM UTC'
p1510
sg6
S'Iraqi Kurdistan to push ahead with oil export plan'
p1511
sa(dp1512
g2
S'http://www.reuters.com/article/2012/05/20/idUS28222+20-May-2012+PRN20120520'
p1513
sg4
S'20120520\xc2\xa06:30AM UTC'
p1514
sg6
S'Following Is a Test Release'
p1515
sa(dp1516
g2
S'http://www.reuters.com/article/2012/05/20/us-serbia-election-idUSBRE84J04G20120520'
p1517
sg4
S'20120520\xc2\xa06:28AM UTC'
p1518
sg6
S'Serbians vote for president under threat of protest'
p1519
sa(dp1520
g2
S'http://www.reuters.com/article/2012/05/20/us-china-economy-idUSBRE84J04E20120520'
p1521
sg4
S'20120520\xc2\xa06:22AM UTC'
p1522
sg6
S"China's Wen urges more support for growth"
p1523
sa(dp1524
g2
S'http://www.reuters.com/article/2012/05/20/idUS27620+20-May-2012+BW20120520'
p1525
sg4
S'20120520\xc2\xa06:02AM UTC'
p1526
sg6
S'Polycom to Showcase Avaya-Interoperable Polycom\xc2\xae RealPresence\xc2\xae Video and Voice Solutions at International Avaya Users Group Global Education Conference 2012'
p1527
sa(dp1528
g2
S'http://www.reuters.com/article/2012/05/20/idUS27581+20-May-2012+PRN20120520'
p1529
sg4
S'20120520\xc2\xa06:00AM UTC'
p1530
sg6
S'Following Is a Test Release'
p1531
sa(dp1532
g2
S'http://www.reuters.com/article/2012/05/20/idUS27540+20-May-2012+PRN20120520'
p1533
sg4
S'20120520\xc2\xa05:59AM UTC'
p1534
sg6
S'GOOD MORNING'
p1535
sa(dp1536
g2
S'http://www.reuters.com/article/2012/05/20/us-usa-facebook-marriage-idUSBRE84J01I20120520'
p1537
sg4
S'20120520\xc2\xa05:58AM UTC'
p1538
sg6
S"Status update: Facebook's Mark Zuckerberg gets married"
p1539
sa(dp1540
g2
S'http://www.reuters.com/article/2012/05/20/us-eurozone-germany-schaeuble-idUSBRE84J04B20120520'
p1541
sg4
S'20120520\xc2\xa05:52AM UTC'
p1542
sg6
S"Germany's Schaeuble says Greek euro zone exit preventable"
p1543
sa(dp1544
g2
S'http://www.reuters.com/article/2012/05/20/eurozone-germany-schaeuble-idUSL5E8GK2WM20120520'
p1545
sg4
S'20120520\xc2\xa05:50AM UTC'
p1546
sg6
S"Germany's Schaeuble says Greek euro zone exit preventable"
p1547
sa(dp1548
g2
S'http://www.reuters.com/article/2012/05/20/korea-shipbuilding-sungdong-idUSL4E8GK02220120520'
p1549
sg4
S'20120520\xc2\xa05:49AM UTC'
p1550
sg6
S"S.Korea's Sungdong Shipbuilding wins $556 mln orders"
p1551
sa(dp1552
g2
S'http://www.reuters.com/article/2012/05/20/us-sunday-london-homes-idUSBRE84J04720120520'
p1553
sg4
S'20120520\xc2\xa05:43AM UTC'
p1554
sg6
S'Far East buyers beware in London property rush'
p1555
sa(dp1556
g2
S'http://www.reuters.com/article/2012/05/20/us-russia-dagestan-idUSBRE84J04320120520'
p1557
sg4
S'20120520\xc2\xa05:35AM UTC'
p1558
sg6
S'Russia forces kill two suspected militants in Dagestan raid'
p1559
sa(dp1560
g2
S'http://www.reuters.com/article/2012/05/20/idUS26932+20-May-2012+PRN20120520'
p1561
sg4
S'20120520\xc2\xa05:30AM UTC'
p1562
sg6
S'Following Is a Test Release'
p1563
sa(dp1564
g2
S'http://www.reuters.com/article/2012/05/20/us-china-dissident-supporters-idUSBRE84J02L20120520'
p1565
sg4
S'20120520\xc2\xa05:20AM UTC'
p1566
sg6
S"China keeps up pressure on Chen's family, supporters"
p1567
sa(dp1568
g2
S'http://www.reuters.com/article/2012/05/20/idUS26547+20-May-2012+BW20120520'
p1569
sg4
S'20120520\xc2\xa05:14AM UTC'
p1570
sg6
S'WSIS Forum 2012 Concludes'
p1571
sa(dp1572
g2
S'http://www.reuters.com/article/2012/05/20/idUS26342+20-May-2012+PRN20120520'
p1573
sg4
S'20120520\xc2\xa05:00AM UTC'
p1574
sg6
S'Following Is a Test Release'
p1575
sa(dp1576
g2
S'http://www.reuters.com/article/2012/05/20/us-greece-newdrachma-idUSBRE84J03Q20120520'
p1577
sg4
S'20120520\xc2\xa04:59AM UTC'
p1578
sg6
S'Birth of new Greek drachma would be pained, rushed'
p1579
sa(dp1580
g2
S'http://www.reuters.com/article/2012/05/20/eurozone-britain-idUSL5E8GK0NX20120520'
p1581
sg4
S'20120520\xc2\xa04:58AM UTC'
p1582
sg6
S"Weaker euro zone nations need more support from bloc's core-UK"
p1583
sa(dp1584
g2
S'http://www.reuters.com/article/2012/05/20/greece-newdrachma-idUSL5E8GHHIP20120520'
p1585
sg4
S'20120520\xc2\xa04:56AM UTC'
p1586
sg6
S'Birth of new Greek drachma would be pained, rushed'
p1587
sa(dp1588
g2
S'http://www.reuters.com/article/2012/05/20/sunday-london-homes-idUSL5E8FOEZH20120520'
p1589
sg4
S'20120520\xc2\xa04:35AM UTC'
p1590
sg6
S'Far East buyers beware in London property rush'
p1591
sa(dp1592
g2
S'http://www.reuters.com/article/2012/05/20/idUS24513+20-May-2012+PRN20120520'
p1593
sg4
S'20120520\xc2\xa04:30AM UTC'
p1594
sg6
S'Following Is a Test Release'
p1595
sa(dp1596
g2
S'http://www.reuters.com/article/2012/05/20/us-ivorycoast-miracle-idUSBRE84J03I20120520'
p1597
sg4
S'20120520\xc2\xa04:29AM UTC'
p1598
sg6
S'Analysis: Post-war Ivory Coast nurtures second "miracle"'
p1599
sa(dp1600
g2
S'http://www.reuters.com/article/2012/05/20/us-china-chongqing-idUSBRE84J03E20120520'
p1601
sg4
S'20120520\xc2\xa04:25AM UTC'
p1602
sg6
S'China state-run businesses to invest 350 billion yuan in Chongqing'
p1603
sa(dp1604
g2
S'http://www.reuters.com/article/2012/05/20/china-chongqing-idUSL4E8GK01E20120520'
p1605
sg4
S'20120520\xc2\xa04:22AM UTC'
p1606
sg6
S'China state-run businesses to invest 350 bn yuan in Chongqing'
p1607
sa(dp1608
g2
S'http://www.reuters.com/article/2012/05/20/jordan-budget-austerity-idUSL5E8GK03120120520'
p1609
sg4
S'20120520\xc2\xa04:21AM UTC'
p1610
sg6
S'Jordan approves austerity moves to reduce deficit'
p1611
sa(dp1612
g2
S'http://www.reuters.com/article/2012/05/20/africa-gas-idUSL5E8GGIK620120520'
p1613
sg4
S'20120520\xc2\xa04:18AM UTC'
p1614
sg6
S'East Africa to join world gas giants'
p1615
sa(dp1616
g2
S'http://www.reuters.com/article/2012/05/20/idUS22559+20-May-2012+BW20120520'
p1617
sg4
S'20120520\xc2\xa04:11AM UTC'
p1618
sg6
S'Eltek Ltd. Sets Earnings Release Date and Conference Call for First Quarter 2012 Financial Results'
p1619
sa(dp1620
g2
S'http://www.reuters.com/article/2012/05/20/us-samsung-apple-idUSBRE84J03520120520'
p1621
sg4
S'20120520\xc2\xa04:05AM UTC'
p1622
sg6
S"Samsung's mobile chief says has options to settle war with Apple"
p1623
sa(dp1624
g2
S'http://www.reuters.com/article/2012/05/20/idUS21164+20-May-2012+PRN20120520'
p1625
sg4
S'20120520\xc2\xa04:00AM UTC'
p1626
sg6
S'Following Is a Test Release'
p1627
sa(dp1628
g2
S'http://www.reuters.com/article/2012/05/20/samsung-apple-idUSL4E8GK01I20120520'
p1629
sg4
S'20120520\xc2\xa04:00AM UTC'
p1630
sg6
S"Samsung's mobile chief says has options to settle war with Apple"
p1631
sa(dp1632
g2
S'http://www.reuters.com/article/2012/05/20/idUS21141+20-May-2012+MW20120520'
p1633
sg4
S'20120520\xc2\xa04:00AM UTC'
p1634
sg6
S' Do You Know When to Call an Emergency Plumber?'
p1635
sa(dp1636
g2
S'http://www.reuters.com/article/2012/05/20/us-srilanka-fonseka-idUSBRE84J02Z20120520'
p1637
sg4
S'20120520\xc2\xa03:44AM UTC'
p1638
sg6
S'Sri Lanka president orders release of jailed rival'
p1639
sa(dp1640
g2
S'http://www.reuters.com/article/2012/05/20/us-srilanka-fonseka-factbox-idUSBRE84J03320120520'
p1641
sg4
S'20120520\xc2\xa03:42AM UTC'
p1642
sg6
S"Factbox: Sri Lanka's jailed ex-army chief Sarath Fonseka"
p1643
sa(dp1644
g2
S'http://www.reuters.com/article/2012/05/20/clal-idb-access-idUSL5E8GK0J420120520'
p1645
sg4
S'20120520\xc2\xa03:38AM UTC'
p1646
sg6
S'IDB sells 49.9 pct of Clal Industries to Access Ind'
p1647
sa(dp1648
g2
S'http://www.reuters.com/article/2012/05/20/idUS18686+20-May-2012+PRN20120520'
p1649
sg4
S'20120520\xc2\xa03:34AM UTC'
p1650
sg6
S'IDB Group Agrees to Sell 49.9% Stake in Clal Industries to Access Industries'
p1651
sa(dp1652
g2
S'http://www.reuters.com/article/2012/05/20/idUS18256+20-May-2012+PRN20120520'
p1653
sg4
S'20120520\xc2\xa03:30AM UTC'
p1654
sg6
S'Following Is a Test Release'
p1655
sa(dp1656
g2
S'http://www.reuters.com/article/2012/05/20/dubai-difci-idUSL5E8GK0E420120520'
p1657
sg4
S'20120520\xc2\xa03:14AM UTC'
p1658
sg6
S'RPT-DIFC Investments has not yet sold SmartStream - Shaibani'
p1659
sa(dp1660
g2
S'http://www.reuters.com/article/2012/05/20/us-nba-playoffs-lakers-idUSBRE84J02M20120520'
p1661
sg4
S'20120520\xc2\xa03:11AM UTC'
p1662
sg6
S'Thunder silence Lakers to take 3-1 series lead'
p1663
sa(dp1664
g2
S'http://www.reuters.com/article/2012/05/20/us-serbia-election-idUSBRE84J02X20120520'
p1665
sg4
S'20120520\xc2\xa03:01AM UTC'
p1666
sg6
S'Serbians vote for president under threat of protest'
p1667
sa(dp1668
g2
S'http://www.reuters.com/article/2012/05/20/idUS16830+20-May-2012+PRN20120520'
p1669
sg4
S'20120520\xc2\xa03:00AM UTC'
p1670
sg6
S'Following Is a Test Release'
p1671
sa(dp1672
g2
S'http://www.reuters.com/article/2012/05/20/nato-summit-idUSL1E8GK08T20120520'
p1673
sg4
S'20120520\xc2\xa02:59AM UTC'
p1674
sg6
S'NATO leaders seek common path out of Afghanistan'
p1675
sa(dp1676
g2
S'http://www.reuters.com/article/2012/05/20/idUS16489+20-May-2012+PRN20120520'
p1677
sg4
S'20120520\xc2\xa02:30AM UTC'
p1678
sg6
S'Following Is a Test Release'
p1679
sa(dp1680
g2
S'http://www.reuters.com/article/2012/05/20/us-dominican-election-idUSBRE84J02V20120520'
p1681
sg4
S'20120520\xc2\xa02:03AM UTC'
p1682
sg6
S'Ruling party in Dominican election seeks four more years'
p1683
sa(dp1684
g2
S'http://www.reuters.com/article/2012/05/20/idUS16162+20-May-2012+PRN20120520'
p1685
sg4
S'20120520\xc2\xa02:00AM UTC'
p1686
sg6
S'Following Is a Test Release'
p1687
sa(dp1688
g2
S'http://www.reuters.com/article/2012/05/20/uk-nato-summit-protests-idUSBRE84J02Q20120520'
p1689
sg4
S'20120520\xc2\xa01:53AM UTC'
p1690
sg6
S'Chicago braces for largest anti-NATO protest'
p1691
sa(dp1692
g2
S'http://www.reuters.com/article/2012/05/20/nato-summit-protests-idUSL1E8GJ3E820120520'
p1693
sg4
S'20120520\xc2\xa01:45AM UTC'
p1694
sg6
S'Chicago braces for largest anti-NATO protest'
p1695
sa(dp1696
g2
S'http://www.reuters.com/article/2012/05/20/idUS15896+20-May-2012+PRN20120520'
p1697
sg4
S'20120520\xc2\xa01:30AM UTC'
p1698
sg6
S'Following Is a Test Release'
p1699
sa(dp1700
g2
S'http://www.reuters.com/article/2012/05/20/us-china-dissident-idUSBRE84I04V20120520'
p1701
sg4
S'20120520\xc2\xa01:29AM UTC'
p1702
sg6
S'Blind Chinese activist Chen arrives in New York'
p1703
sa(dp1704
g2
S'http://www.reuters.com/article/2012/05/20/us-homestead-anniversary-idUSBRE84I0H620120520'
p1705
sg4
S'20120520\xc2\xa01:27AM UTC'
p1706
sg6
S'U.S. marks 150th anniversary of Homestead Act offering free land'
p1707
sa(dp1708
g2
S'http://www.reuters.com/article/2012/05/20/idUS15305+20-May-2012+PRN20120520'
p1709
sg4
S'20120520\xc2\xa01:00AM UTC'
p1710
sg6
S'Following Is a Test Release'
p1711
sa(dp1712
g2
S'http://www.reuters.com/article/2012/05/20/usa-facebook-marriage-idUSL1E8GK0H120120520'
p1713
sg4
S'20120520\xc2\xa012:50AM UTC'
p1714
sg6
S"UPDATE 3-Status update: Facebook's Mark Zuckerberg gets married"
p1715
sa(dp1716
g2
S'http://www.reuters.com/article/2012/05/20/nato-summit-protests-idUSL1E8GJ1ZZ20120520'
p1717
sg4
S'20120520\xc2\xa012:41AM UTC'
p1718
sg6
S'UPDATE 4-Chicago protests on eve of NATO summit raucous, peaceful'
p1719
sa(dp1720
g2
S'http://www.reuters.com/article/2012/05/20/idUS14962+20-May-2012+PRN20120520'
p1721
sg4
S'20120520\xc2\xa012:30AM UTC'
p1722
sg6
S'Following Is a Test Release'
p1723
sa(dp1724
g2
S'http://www.reuters.com/article/2012/05/20/us-thailand-redshirts-idUSBRE84J02820120520'
p1725
sg4
S'20120520\xc2\xa012:29AM UTC'
p1726
sg6
S'Impatient Thai red shirts want justice from PM Yingluck'
p1727
sa(dp1728
g2
S'http://www.reuters.com/article/2012/05/20/storm-alberto-idUSL1E8GJ2OY20120520'
p1729
sg4
S'20120520\xc2\xa012:05AM UTC'
p1730
sg6
S"UPDATE 3-Season's 1st Atlantic tropical storm forms off S.Carolina"
p1731
sa(dp1732
g2
S'http://www.reuters.com/article/2012/05/20/us-markets-cbot-hours-idUSBRE84J02620120520'
p1733
sg4
S'20120520\xc2\xa012:01AM UTC'
p1734
sg6
S'CME defends turf with expanded grain trading hours'
p1735
sa(dp1736
g2
S'http://www.reuters.com/article/2012/05/20/idUS14622+20-May-2012+PRN20120520'
p1737
sg4
S'20120520\xc2\xa012:01AM UTC'
p1738
sg6
S'U.S. Census Bureau Daily Feature for May 20'
p1739
sa(dp1740
g2
S'http://www.reuters.com/article/2012/05/20/idUS14611+20-May-2012+PRN20120520'
p1741
sg4
S'20120520\xc2\xa012:00AM UTC'
p1742
sg6
S'Following Is a Test Release'
p1743
sa(dp1744
g2
S'http://www.reuters.com/news/video/videoStory?storyID=39150063'
p1745
sg4
S'20120520\xc2\xa011:51PM UTC'
p1746
sg6
S'\xe9\x99\xb3\xe5\x85\x89\xe8\xaa\xa0\xe6\xb0\x8f\xe3\x81\x8c\xe7\xb1\xb3\xe3\x83\x8b\xe3\x83\xa5\xe3\x83\xbc\xe3\x83\xa8\xe3\x83\xbc\xe3\x82\xaf\xe3\x81\xab\xe5\x88\xb0\xe7\x9d\x80\xe3\x80\x81\xe4\xb8\xad\xe5\x9b\xbd\xe6\x94\xbf\xe5\xba\x9c\xe3\x81\xab\xe6\x84\x9f\xe8\xac\x9d\xe3\x81\xae\xe5\xbc\x81\xe3\x82\x82\xef\xbc\x88\xe5\xad\x97\xe5\xb9\x95\xe3\x83\xbb20\xe6\x97\xa5\xef\xbc\x89'
p1747
sa(dp1748
g2
S'http://www.reuters.com/news/video/videoStory?storyID=39149759'
p1749
sg4
S'20120520\xc2\xa011:26PM UTC'
p1750
sg6
S'"Avengers" sinks "Battleship"'
p1751
sa(dp1752
g2
S'http://www.reuters.com/news/video/videoStory?storyID=39148633'
p1753
sg4
S'20120520\xc2\xa010:40PM UTC'
p1754
sg6
S'World leaders focus on leaving Afghanistan'
p1755
sa(dp1756
g2
S'http://www.reuters.com/news/video/videoStory?storyID=39148199'
p1757
sg4
S'20120520\xc2\xa010:28PM UTC'
p1758
sg6
S'\xe3\x82\xa4\xe3\x82\xbf\xe3\x83\xaa\xe3\x82\xa2\xe5\x8c\x97\xe9\x83\xa8\xe3\x81\xa7\xef\xbc\xad\xef\xbc\x96\xef\xbc\x8e\xef\xbc\x90\xe3\x81\xae\xe5\x9c\xb0\xe9\x9c\x87\xe3\x80\x81\xe6\xad\xb4\xe5\x8f\xb2\xe7\x9a\x84\xe5\xbb\xba\xe9\x80\xa0\xe7\x89\xa9\xe3\x81\xab\xe3\x82\x82\xe8\xa2\xab\xe5\xae\xb3\xef\xbc\x88\xe5\xad\x97\xe5\xb9\x95\xe3\x83\xbb20\xe6\x97\xa5\xef\xbc\x89'
p1759
sa(dp1760
g2
S'http://www.reuters.com/news/video/videoStory?storyID=39148044'
p1761
sg4
S'20120520\xc2\xa010:05PM UTC'
p1762
sg6
S'Bee Gee Robin Gibb dies'
p1763
sa(dp1764
g2
S'http://www.reuters.com/news/video/videoStory?storyID=39189590'
p1765
sg4
S'20120520\xc2\xa08:16PM UTC'
p1766
sg6
S'U.S. Morning Call: Facebook faces second day on Nasdaq'
p1767
sa(dp1768
g2
S'http://www.reuters.com/news/video/videoStory?storyID=39145152'
p1769
sg4
S'20120520\xc2\xa07:27PM UTC'
p1770
sg6
S"Lockerbie victims' relatives react to Megrahi death"
p1771
sa(dp1772
g2
S'http://www.reuters.com/news/video/videoStory?storyID=39423700'
p1773
sg4
S'20120520\xc2\xa04:51PM UTC'
p1774
sg6
S'Should startups worry about the government?'
p1775
sa(dp1776
g2
S'http://www.reuters.com/news/video/videoStory?storyID=39141329'
p1777
sg4
S'20120520\xc2\xa04:19PM UTC'
p1778
sg6
S'Students riot, set fires in Montreal'
p1779
sa(dp1780
g2
S'http://www.reuters.com/news/video/videoStory?storyID=39215104'
p1781
sg4
S'20120520\xc2\xa03:27PM UTC'
p1782
sg6
S'MindSnacks CEO on the importance of empathy'
p1783
sa(dp1784
g2
S'http://www.reuters.com/news/video/videoStory?storyID=39138771'
p1785
sg4
S'20120520\xc2\xa02:02PM UTC'
p1786
sg6
S'Obama: Hard times ahead in Afghanistan but policy on right track'
p1787
sa(dp1788
g2
S'http://www.reuters.com/news/video/videoStory?storyID=39136826'
p1789
sg4
S'20120520\xc2\xa012:45PM UTC'
p1790
sg6
S'Lockerbie bomber dies in Libya'
p1791
sa(dp1792
g2
S'http://www.reuters.com/news/video/videoStory?storyID=39136701'
p1793
sg4
S'20120520\xc2\xa012:43PM UTC'
p1794
sg6
S'Lebanese forces kill two Syrian opposition members'
p1795
sa(dp1796
g2
S'http://www.reuters.com/news/video/videoStory?storyID=39134944'
p1797
sg4
S'20120520\xc2\xa011:47AM UTC'
p1798
sg6
S'Nepal erupts over constitution disputes'
p1799
sa(dp1800
g2
S'http://www.reuters.com/news/video/videoStory?storyID=39134509'
p1801
sg4
S'20120520\xc2\xa011:42AM UTC'
p1802
sg6
S'Deadly quake shakes N. Italy'
p1803
sa(dp1804
g2
S'http://www.reuters.com/news/video/videoStory?storyID=39132494'
p1805
sg4
S'20120520\xc2\xa010:30AM UTC'
p1806
sg6
S'Fans say farewell to Algerian Rose'
p1807
sa(dp1808
g2
S'http://www.reuters.com/news/video/videoStory?storyID=39132324'
p1809
sg4
S'20120520\xc2\xa010:24AM UTC'
p1810
sg6
S'East Timor celebrates independence'
p1811
sa(dp1812
g2
S'http://www.reuters.com/news/video/videoStory?storyID=39129281'
p1813
sg4
S'20120520\xc2\xa09:15AM UTC'
p1814
sg6
S"Facebook stock's first-day roller coaster - Decoder"
p1815
sa(dp1816
g2
S'http://www.reuters.com/news/video/videoStory?storyID=39129472'
p1817
sg4
S'20120520\xc2\xa09:12AM UTC'
p1818
sg6
S'Serbs hope vote will bring better life'
p1819
sa(dp1820
g2
S'http://www.reuters.com/news/video/videoStory?storyID=39129299'
p1821
sg4
S'20120520\xc2\xa09:07AM UTC'
p1822
sg6
S'Sri Lanka to release former hero general'
p1823
sa(dp1824
g2
S'http://www.reuters.com/news/video/videoStory?storyID=39124751'
p1825
sg4
S'20120520\xc2\xa06:29AM UTC'
p1826
sg6
S"Guatemala's famed Fuego volcano erupts"
p1827
sa(dp1828
g2
S'http://www.reuters.com/news/video/videoStory?storyID=39122719'
p1829
sg4
S'20120520\xc2\xa05:21AM UTC'
p1830
sg6
S"Zuckerberg changes status to 'married'"
p1831
sa(dp1832
g2
S'http://www.reuters.com/news/video/videoStory?storyID=39122271'
p1833
sg4
S'20120520\xc2\xa04:59AM UTC'
p1834
sg6
S'Residents mourn bomb victim'
p1835
sa(dp1836
g2
S'http://www.reuters.com/news/video/videoStory?storyID=39120155'
p1837
sg4
S'20120520\xc2\xa03:57AM UTC'
p1838
sg6
S'Three dead in Italian earthquake'
p1839
sa(dp1840
g2
S'http://www.reuters.com/news/video/videoStory?storyID=39119120'
p1841
sg4
S'20120520\xc2\xa02:39AM UTC'
p1842
sg6
S'Chen arrives at NYU'
p1843
sa(dp1844
g2
S'http://www.reuters.com/news/video/videoStory?storyID=39118945'
p1845
sg4
S'20120520\xc2\xa02:15AM UTC'
p1846
sg6
S'NATO set to start on Sunday'
p1847
sa.