(lp0
(dp1
S'href'
p2
S'http://www.reuters.com/article/2012/03/12/japan-aluminium-stocks-idUSL4E8EC11J20120312'
p3
sS'ts'
p4
S'20120311\xc2\xa011:56PM UTC'
p5
sS'title'
p6
S'UPDATE 1-Japan end-Feb aluminium stocks -4.8 pct m/m - Marubeni'
p7
sa(dp8
g2
S'http://www.reuters.com/article/2012/03/12/markets-ratings-idUSWNA219620120312'
p9
sg4
S'20120311\xc2\xa011:52PM UTC'
p10
sg6
S"S&P; Rates Agile's Proposed Senior Unsecured Notes 'BB'"
p11
sa(dp12
g2
S'http://www.reuters.com/article/2012/03/12/us-japan-economy-idUSBRE82B03720120312'
p13
sg4
S'20120311\xc2\xa011:42PM UTC'
p14
sg6
S'Japan machinery orders rise, capex recovery seen'
p15
sa(dp16
g2
S'http://www.reuters.com/article/2012/03/12/us-markets-japan-jgb-idUSBRE82B04J20120312'
p17
sg4
S'20120311\xc2\xa011:42PM UTC'
p18
sg6
S'JGBs inch up but hold ranges as BOJ outcome awaited'
p19
sa(dp20
g2
S'http://www.reuters.com/article/2012/03/12/us-japan-yen-noda-idUSBRE82B02G20120312'
p21
sg4
S'20120311\xc2\xa011:36PM UTC'
p22
sg6
S'Japan PM says yen still overvalued, finance minister repeats warning'
p23
sa(dp24
g2
S'http://www.reuters.com/article/2012/03/12/japan-yen-noda-idUSL4E8EC0WM20120312'
p25
sg4
S'20120311\xc2\xa011:35PM UTC'
p26
sg6
S'UPDATE 1-Japan PM says yen still overvalued, finmin repeats warning'
p27
sa(dp28
g2
S'http://www.reuters.com/article/2012/03/12/markets-forex-idUSL4E8EC0DD20120312'
p29
sg4
S'20120311\xc2\xa011:35PM UTC'
p30
sg6
S'FOREX-Dollar hits 3-week high vs euro after jobs data'
p31
sa(dp32
g2
S'http://www.reuters.com/article/2012/03/12/us-nigeria-violence-idUSBRE82A05A20120312'
p33
sg4
S'20120311\xc2\xa011:32PM UTC'
p34
sg6
S"Reprisals kill 10 after church bombed in Nigeria's Jos"
p35
sa(dp36
g2
S'http://www.reuters.com/article/2012/03/12/idUS38470+12-Mar-2012+PRN20120312'
p37
sg4
S'20120311\xc2\xa011:30PM UTC'
p38
sg6
S'Following Is a Test Release'
p39
sa(dp40
g2
S'http://www.reuters.com/article/2012/03/12/markets-japan-jgb-idUSL4E8EC10Y20120312'
p41
sg4
S'20120311\xc2\xa011:29PM UTC'
p42
sg6
S'JGBs inch up but hold ranges as BOJ outcome awaited'
p43
sa(dp44
g2
S'http://www.reuters.com/article/2012/03/12/markets-india-stocks-idUSL4E8EC01N20120312'
p45
sg4
S'20120311\xc2\xa011:27PM UTC'
p46
sg6
S'Indian stocks to watch'
p47
sa(dp48
g2
S'http://www.reuters.com/article/2012/03/12/markets-oil-idUSL4E8EC10620120312'
p49
sg4
S'20120311\xc2\xa011:24PM UTC'
p50
sg6
S'Brent crude falls towards $125 as China data spur demand worry'
p51
sa(dp52
g2
S'http://www.reuters.com/article/2012/03/12/atlasmining-idUSL4E8E92IY20120312'
p53
sg4
S'20120311\xc2\xa011:22PM UTC'
p54
sg6
S"Philippine miner Atlas' unit raises $300 mln via 5-yr notes"
p55
sa(dp56
g2
S'http://www.reuters.com/article/2012/03/12/us-markets-metals-idUSBRE82B01I20120312'
p57
sg4
S'20120311\xc2\xa011:17PM UTC'
p58
sg6
S'Copper weakens as China demand worry persists'
p59
sa(dp60
g2
S'http://www.reuters.com/article/2012/03/12/us-france-election-europe-idUSBRE82A06R20120312'
p61
sg4
S'20120311\xc2\xa011:17PM UTC'
p62
sg6
S"France's Sarkozy defies Europe with protectionist push"
p63
sa(dp64
g2
S'http://www.reuters.com/article/2012/03/12/hongkong-clearing-idUSL4E8EC0WP20120312'
p65
sg4
S'20120311\xc2\xa011:15PM UTC'
p66
sg6
S'Hong Kong Exchange to overhaul risk management system'
p67
sa(dp68
g2
S'http://www.reuters.com/article/2012/03/12/us-pboc-policy-idUSBRE82B02Q20120312'
p69
sg4
S'20120311\xc2\xa011:13PM UTC'
p70
sg6
S'China to be more creative with FX reserves: central bank'
p71
sa(dp72
g2
S'http://www.reuters.com/article/2012/03/12/us-china-cbank-financials-idUSBRE82B04020120312'
p73
sg4
S'20120311\xc2\xa011:13PM UTC'
p74
sg6
S'China banks face capital shortage in 2012: central bank chief'
p75
sa(dp76
g2
S'http://www.reuters.com/article/2012/03/12/chile-tax-idUSL2E8EC03020120312'
p77
sg4
S'20120311\xc2\xa011:12PM UTC'
p78
sg6
S'Chile to tighten tax rules for foreign companies'
p79
sa(dp80
g2
S'http://www.reuters.com/article/2012/03/12/us-markets-china-yuan-early-idUSBRE82B02120120312'
p81
sg4
S'20120311\xc2\xa011:12PM UTC'
p82
sg6
S'Yuan mid-point sees 2nd biggest single-day fall on record'
p83
sa(dp84
g2
S'http://www.reuters.com/article/2012/03/12/japan-aluminium-stocks-idUSL4E8EC0ZB20120312'
p85
sg4
S'20120311\xc2\xa011:10PM UTC'
p86
sg6
S'Japan end-Feb aluminium stocks -4.8 pct m/m -Marubeni'
p87
sa(dp88
g2
S'http://www.reuters.com/article/2012/03/12/markets-korea-idUSL4E8EC0Y820120312'
p89
sg4
S'20120311\xc2\xa011:04PM UTC'
p90
sg6
S'S.Korea KOSPI edges lower, cyclicals hurt by China slowdown'
p91
sa(dp92
g2
S'http://www.reuters.com/article/2012/03/12/china-cbank-financials-idUSB9E7M901N20120312'
p93
sg4
S'20120311\xc2\xa011:03PM UTC'
p94
sg6
S'China banks face capital shortage in 2012 - c.bank chief'
p95
sa(dp96
g2
S'http://www.reuters.com/article/2012/03/12/idUS34810+12-Mar-2012+PRN20120312'
p97
sg4
S'20120311\xc2\xa011:00PM UTC'
p98
sg6
S'Following Is a Test Release'
p99
sa(dp100
g2
S'http://www.reuters.com/article/2012/03/12/haitong-ipo-idUSL4E8EC0XY20120312'
p101
sg4
S'20120311\xc2\xa010:57PM UTC'
p102
sg6
S'Haitong Securities eyes HK listing in April-paper'
p103
sa(dp104
g2
S'http://www.reuters.com/article/2012/03/12/markets-ratings-idUSWNA219520120312'
p105
sg4
S'20120311\xc2\xa010:56PM UTC'
p106
sg6
S'S&P; Releases Rankings Of Rated Asia-Pacific Property Developer'
p107
sa(dp108
g2
S'http://www.reuters.com/article/2012/03/12/us-venezuela-chavez-return-idUSBRE82B03H20120312'
p109
sg4
S'20120311\xc2\xa010:55PM UTC'
p110
sg6
S"Venezuela's Chavez says to return home on Sunday from Cuba"
p111
sa(dp112
g2
S'http://www.reuters.com/article/2012/03/12/philippines-economy-loans-idUSL4E8EC0NK20120312'
p113
sg4
S'20120311\xc2\xa010:54PM UTC'
p114
sg6
S"Philippines' bad loan ratio edges up to 2.35 pct in Jan"
p115
sa(dp116
g2
S'http://www.reuters.com/article/2012/03/12/us-crystal-cathedral-california-idUSBRE82B03B20120312'
p117
sg4
S'20120311\xc2\xa010:52PM UTC'
p118
sg6
S'Televangelist Robert Schuller leaves church board'
p119
sa(dp120
g2
S'http://www.reuters.com/article/2012/03/12/india-cbank-crr-idUSL4E8EC0YB20120312'
p121
sg4
S'20120311\xc2\xa010:52PM UTC'
p122
sg6
S'RPT-RPT-UPDATE 2-India cuts cash reserve ratio, lifting rate cut hopes'
p123
sa(dp124
g2
S'http://www.reuters.com/article/2012/03/12/us-diabetics-idUSBRE82B03420120312'
p125
sg4
S'20120311\xc2\xa010:49PM UTC'
p126
sg6
S'Diabetics should lift weights before cardio: study'
p127
sa(dp128
g2
S'http://www.reuters.com/article/2012/03/12/malaysia-wages-idUSL4E8EC0WN20120312'
p129
sg4
S'20120311\xc2\xa010:46PM UTC'
p130
sg6
S'Malaysia to set minimum wage for the first time-sources'
p131
sa(dp132
g2
S'http://www.reuters.com/article/2012/03/12/us-jail-death-risk-idUSBRE82B02Y20120312'
p133
sg4
S'20120311\xc2\xa010:44PM UTC'
p134
sg6
S'After jail, former inmates face higher death risk'
p135
sa(dp136
g2
S'http://www.reuters.com/article/2012/03/12/us-tennis-indian-bug-idUSBRE82A0CK20120312'
p137
sg4
S'20120311\xc2\xa010:44PM UTC'
p138
sg6
S'Players succumb to stomach bug at Indian Wells'
p139
sa(dp140
g2
S'http://www.reuters.com/article/2012/03/12/markets-ratings-scb-idUSWNA219320120312'
p141
sg4
S'20120311\xc2\xa010:42PM UTC'
p142
sg6
S"S&P; Rates SCB's Issue Of Sr Unsecd Notes Under MTN 'BBB+'"
p143
sa(dp144
g2
S'http://www.reuters.com/article/2012/03/12/japan-economy-idUSL4E8EC01F20120312'
p145
sg4
S'20120311\xc2\xa010:42PM UTC'
p146
sg6
S'UPDATE 2-Japan machinery orders rise, capex recovery seen'
p147
sa(dp148
g2
S'http://www.reuters.com/article/2012/03/12/china-picc-ipo-idUSL4E8EB0UP20120312'
p149
sg4
S'20120311\xc2\xa010:40PM UTC'
p150
sg6
S"China's PICC aims to list in Shanghai, HK this year -chairman"
p151
sa(dp152
g2
S'http://www.reuters.com/article/2012/03/12/us-florida-drugs-idUSBRE82B02U20120312'
p153
sg4
S'20120311\xc2\xa010:40PM UTC'
p154
sg6
S'Florida passes bill to test state workers for drugs'
p155
sa(dp156
g2
S'http://www.reuters.com/article/2012/03/12/us-china-cban-policy-idUSBRE82B02T20120312'
p157
sg4
S'20120311\xc2\xa010:39PM UTC'
p158
sg6
S'China has ample room to cut reserve ratio: central bank'
p159
sa(dp160
g2
S'http://www.reuters.com/article/2012/03/12/shanghaibank-ipo-idUSL4E8EC0DE20120312'
p161
sg4
S'20120311\xc2\xa010:32PM UTC'
p162
sg6
S'Bank of Shanghai plans to list in Hong Kong - paper'
p163
sa(dp164
g2
S'http://www.reuters.com/article/2012/03/12/markets-thailand-stocks-idUSL4E8EC0WF20120312'
p165
sg4
S'20120311\xc2\xa010:31PM UTC'
p166
sg6
S'Thailand - Market factors to watch - March 12'
p167
sa(dp168
g2
S'http://www.reuters.com/article/2012/03/12/idUS30643+12-Mar-2012+PRN20120312'
p169
sg4
S'20120311\xc2\xa010:30PM UTC'
p170
sg6
S'Following Is a Test Release'
p171
sa(dp172
g2
S'http://www.reuters.com/article/2012/03/12/markets-asia-foreign-idUSL4E8EC0NU20120312'
p173
sg4
S'20120311\xc2\xa010:30PM UTC'
p174
sg6
S'TABLE-Foreigners buy Japan shares in latest week-Nomura'
p175
sa(dp176
g2
S'http://www.reuters.com/article/2012/03/12/us-eisenhower-legacy-idUSBRE82B02C20120312'
p177
sg4
S'20120311\xc2\xa010:29PM UTC'
p178
sg6
S'Forgotten in Republican campaign, Eisenhower rises in stature'
p179
sa(dp180
g2
S'http://www.reuters.com/article/2012/03/12/indonesia-factors-idUSL4E8EC0DO20120312'
p181
sg4
S'20120311\xc2\xa010:27PM UTC'
p182
sg6
S'Indonesia - Market Factors to watch - March 12'
p183
sa(dp184
g2
S'http://www.reuters.com/article/2012/03/12/japan-yen-noda-idUST9E8D902H20120312'
p185
sg4
S'20120311\xc2\xa010:27PM UTC'
p186
sg6
S"Japan's Noda: yen still relatively overvalued"
p187
sa(dp188
g2
S'http://www.reuters.com/article/2012/03/12/us-japan-economy-boj-idUSBRE82B02920120312'
p189
sg4
S'20120311\xc2\xa010:18PM UTC'
p190
sg6
S'BOJ set to refrain from easing, extend loan scheme'
p191
sa(dp192
g2
S'http://www.reuters.com/article/2012/03/12/mountainchinaresortshldg-brief-idUSL4E8EC0N420120312'
p193
sg4
S'20120311\xc2\xa010:15PM UTC'
p194
sg6
S'RPT-BRIEF-Mountain China misses installment repayment deadline for China Construction Bank loan'
p195
sa(dp196
g2
S'http://www.reuters.com/article/2012/03/12/japan-economy-boj-idUSL4E8EC01G20120312'
p197
sg4
S'20120311\xc2\xa010:13PM UTC'
p198
sg6
S'BOJ set to refrain from easing, extend loan scheme'
p199
sa(dp200
g2
S'http://www.reuters.com/article/2012/03/12/australia-cyclone-idUSL4E8EC0EJ20120312'
p201
sg4
S'20120311\xc2\xa010:12PM UTC'
p202
sg6
S"Cyclone brewing off Australia's northern tip"
p203
sa(dp204
g2
S'http://www.reuters.com/article/2012/03/12/us-usa-afghanistan-shooting-factbox-idUSBRE82A0DR20120312'
p205
sg4
S'20120311\xc2\xa010:12PM UTC'
p206
sg6
S'Factbox: Shooting adds to U.S. incidents in Afghan, Iraq wars'
p207
sa(dp208
g2
S'http://www.reuters.com/article/2012/03/12/us-usa-afghanistan-shooting-idUSBRE82A0DK20120312'
p209
sg4
S'20120311\xc2\xa010:12PM UTC'
p210
sg6
S'Shooting raises questions about U.S. course in Afghanistan'
p211
sa(dp212
g2
S'http://www.reuters.com/article/2012/03/12/us-afghanistan-usa-witnesses-idUSBRE82A0A420120312'
p213
sg4
S'20120311\xc2\xa010:12PM UTC'
p214
sg6
S'Father at window shot in face, Afghan witness says'
p215
sa(dp216
g2
S'http://www.reuters.com/article/2012/03/12/idUS27611+12-Mar-2012+MW20120312'
p217
sg4
S'20120311\xc2\xa010:06PM UTC'
p218
sg6
S' Mountain China Missed Deadline on its Installment Repayment for Loan With China Construction Bank'
p219
sa(dp220
g2
S'http://www.reuters.com/article/2012/03/12/idUS27258+12-Mar-2012+GNW20120312'
p221
sg4
S'20120311\xc2\xa010:03PM UTC'
p222
sg6
S'IIJ and China Telecom Announce Strategic Partnership to Jointly Provide Cloud Computing Services in China'
p223
sa(dp224
g2
S'http://www.reuters.com/article/2012/03/12/idUS27253+12-Mar-2012+GNW20120312'
p225
sg4
S'20120311\xc2\xa010:03PM UTC'
p226
sg6
S'IIJ and China Telecom Announce Strategic Partnership to Jointly Provide Cloud Computing Services in China'
p227
sa(dp228
g2
S'http://www.reuters.com/article/2012/03/12/idUS26761+12-Mar-2012+PRN20120312'
p229
sg4
S'20120311\xc2\xa010:00PM UTC'
p230
sg6
S'Following Is a Test Release'
p231
sa(dp232
g2
S'http://www.reuters.com/article/2012/03/12/idUS26706+12-Mar-2012+BW20120312'
p233
sg4
S'20120311\xc2\xa010:00PM UTC'
p234
sg6
S'CEMEX AnnouncesExtension of Early Tender Period and Withdrawal Deadline in Exchange Offers for Its 2014 Eurobonds and Perpetual Securities'
p235
sa(dp236
g2
S'http://www.reuters.com/article/2012/03/12/idUS26699+12-Mar-2012+BW20120312'
p237
sg4
S'20120311\xc2\xa010:00PM UTC'
p238
sg6
S'OKI Builds Virtual Network for 100-km Broadband Optical Access Service Demonstration'
p239
sa(dp240
g2
S'http://www.reuters.com/article/2012/03/12/us-markets-australia-newzealand-forex-idUSBRE82B01X20120312'
p241
sg4
S'20120311\xc2\xa09:58PM UTC'
p242
sg6
S'Aussie, NZ dollars soft on weak Asian stocks, China'
p243
sa(dp244
g2
S'http://www.reuters.com/article/2012/03/12/idUS26362+12-Mar-2012+GNW20120312'
p245
sg4
S'20120311\xc2\xa09:56PM UTC'
p246
sg6
S'Sharewell Capital Group Announced Today That C. K. Cooper & Company has Resumed Equity Research Coverage of the Healthcare Sector'
p247
sa(dp248
g2
S'http://www.reuters.com/article/2012/03/12/idUS26364+12-Mar-2012+GNW20120312'
p249
sg4
S'20120311\xc2\xa09:56PM UTC'
p250
sg6
S'Sharewell Capital Group Announced Today That C. K. Cooper & Company has Resumed Equity Research Coverage of the Healthcare Sector'
p251
sa(dp252
g2
S'http://www.reuters.com/article/2012/03/12/india-cbank-crr-idUSL4E8EC0DI20120312'
p253
sg4
S'20120311\xc2\xa09:54PM UTC'
p254
sg6
S'RPT-UPDATE 2-India cuts cash reserve ratio, lifting rate cut hopes'
p255
sa(dp256
g2
S'http://www.reuters.com/article/2012/03/12/us-argentina-fernandez-poll-idUSBRE82B01U20120312'
p257
sg4
S'20120311\xc2\xa09:54PM UTC'
p258
sg6
S'Fernandez numbers hurt by slowing Argentine economy'
p259
sa(dp260
g2
S'http://www.reuters.com/article/2012/03/12/us-cockatoo-sk-idUSBRE82B01Q20120312'
p261
sg4
S'20120311\xc2\xa09:50PM UTC'
p262
sg6
S'SK Networks to buy Cockatoo Coal stake for $332 mln'
p263
sa(dp264
g2
S'http://www.reuters.com/article/2012/03/12/cockatoo-sk-idUSL4E8EC01L20120312'
p265
sg4
S'20120311\xc2\xa09:48PM UTC'
p266
sg6
S'UPDATE 1-SK Networks to buy Cockatoo Coal stake for $332 mln'
p267
sa(dp268
g2
S'http://www.reuters.com/article/2012/03/12/markets-japan-stocks-idUSL4E8EC0BK20120312'
p269
sg4
S'20120311\xc2\xa09:45PM UTC'
p270
sg6
S'Nikkei breaches 10,000 to fresh 7-month high'
p271
sa(dp272
g2
S'http://www.reuters.com/article/2012/03/12/us-golf-wgc-rose-idUSBRE82B01F20120312'
p273
sg4
S'20120311\xc2\xa09:34PM UTC'
p274
sg6
S'Rose sets sights on a major after WGC triumph'
p275
sa(dp276
g2
S'http://www.reuters.com/article/2012/03/12/hongkongpress-idUSL4E8EC0CC20120312'
p277
sg4
S'20120311\xc2\xa09:34PM UTC'
p278
sg6
S'PRESS DIGEST - Hong Kong - March 12'
p279
sa(dp280
g2
S'http://www.reuters.com/article/2012/03/12/markets-metals-idUSL4E8EC0BG20120312'
p281
sg4
S'20120311\xc2\xa09:33PM UTC'
p282
sg6
S'METALS-London copper edges lower; dollar pressures'
p283
sa(dp284
g2
S'http://www.reuters.com/article/2012/03/12/idUS23385+12-Mar-2012+PRN20120312'
p285
sg4
S'20120311\xc2\xa09:33PM UTC'
p286
sg6
S'About Bikini Care - What Do You Usually Do? GiftForSexy.com Gives You 8 Hints'
p287
sa(dp288
g2
S'http://www.reuters.com/article/2012/03/12/vietnam-press-idUSL4E8EC0CA20120312'
p289
sg4
S'20120311\xc2\xa09:32PM UTC'
p290
sg6
S'PRESS DIGEST - Vietnam newspapers - March 12'
p291
sa(dp292
g2
S'http://www.reuters.com/article/2012/03/12/utilities-operations-exelon-byron-idUSL4E8EC0BH20120312'
p293
sg4
S'20120311\xc2\xa09:32PM UTC'
p294
sg6
S'Exelon Ill. Byron Unit 1 closes for upgrades'
p295
sa(dp296
g2
S'http://www.reuters.com/article/2012/03/12/ezra-idUSL4E8EC0C320120312'
p297
sg4
S'20120311\xc2\xa09:31PM UTC'
p298
sg6
S'OCBC Investment Research downgrades Ezra to hold from buy'
p299
sa(dp300
g2
S'http://www.reuters.com/article/2012/03/12/idUS23007+12-Mar-2012+PRN20120312'
p301
sg4
S'20120311\xc2\xa09:30PM UTC'
p302
sg6
S'Following Is a Test Release'
p303
sa(dp304
g2
S'http://www.reuters.com/article/2012/03/12/markets-hongkong-stocks-open-idUSH9E8DT00B20120312'
p305
sg4
S'20120311\xc2\xa09:25PM UTC'
p306
sg6
S'Hong Kong shares to open down 0.1 pct, financials weak'
p307
sa(dp308
g2
S'http://www.reuters.com/article/2012/03/12/ireland-eu-debt-idUSL5E8EB36720120312'
p309
sg4
S'20120311\xc2\xa09:25PM UTC'
p310
sg6
S'UPDATE 2-Ireland in talks on EU-IMF deal to boost banks -finmin'
p311
sa(dp312
g2
S'http://www.reuters.com/article/2012/03/12/corn-korea-idUSL4E8EC0BD20120312'
p313
sg4
S'20120311\xc2\xa09:22PM UTC'
p314
sg6
S"S.Korea's Nonghyup buys 65,000 T corn - traders"
p315
sa(dp316
g2
S'http://www.reuters.com/article/2012/03/12/us-menopause-therapy-idUSBRE82B01C20120312'
p317
sg4
S'20120311\xc2\xa09:21PM UTC'
p318
sg6
S'Behavioral therapy may help hot flashes:study'
p319
sa(dp320
g2
S'http://www.reuters.com/article/2012/03/12/pve-weekly-idUSL4E8E50D720120312'
p321
sg4
S'20120311\xc2\xa09:18PM UTC'
p322
sg6
S'Asia Private Equity Weekly News, March 12, 2012'
p323
sa(dp324
g2
S'http://www.reuters.com/article/2012/03/12/markets-asean-stocksnews-idUSL4E8EC0AS20120312'
p325
sg4
S'20120311\xc2\xa09:17PM UTC'
p326
sg6
S"Singapore's Ezra shares fall after placement"
p327
sa(dp328
g2
S'http://www.reuters.com/article/2012/03/12/thailand-press-idUSL4E8EC0B920120312'
p329
sg4
S'20120311\xc2\xa09:16PM UTC'
p330
sg6
S'PRESS DIGEST - Thai newspapers - March 12'
p331
sa(dp332
g2
S'http://www.reuters.com/article/2012/03/12/pboc-policy-idUSB9E7MG01R20120312'
p333
sg4
S'20120311\xc2\xa09:16PM UTC'
p334
sg6
S'China c.bank says to "fine-tune" policy this year'
p335
sa(dp336
g2
S'http://www.reuters.com/article/2012/03/12/health-menopause-therapy-idUSL4E8EC01V20120312'
p337
sg4
S'20120311\xc2\xa09:14PM UTC'
p338
sg6
S'Behavioral therapy may help hot flashes:study'
p339
sa(dp340
g2
S'http://www.reuters.com/article/2012/03/12/us-viterra-idUSBRE82B00I20120312'
p341
sg4
S'20120311\xc2\xa09:13PM UTC'
p342
sg6
S'Cargill interested in buying Viterra: WSJ'
p343
sa(dp344
g2
S'http://www.reuters.com/article/2012/03/12/us-aviation-tax-eu-idUSBRE82B01420120312'
p345
sg4
S'20120311\xc2\xa09:12PM UTC'
p346
sg6
S'Aviation calls on EU leaders to fix carbon tax: FT'
p347
sa(dp348
g2
S'http://www.reuters.com/article/2012/03/12/britain-economy-king-idUSL5E8EB36D20120312'
p349
sg4
S'20120311\xc2\xa09:11PM UTC'
p350
sg6
S"Banks in denial over failures, says BoE's King"
p351
sa(dp352
g2
S'http://www.reuters.com/article/2012/03/12/us-aviation-tax-eu-idUSBRE82B01020120312'
p353
sg4
S'20120311\xc2\xa09:10PM UTC'
p354
sg6
S'Aviation calls on EU leaders to fix carbon tax: FT'
p355
sa(dp356
g2
S'http://www.reuters.com/article/2012/03/12/markets-hongkong-stocks-preopen-idUSL4E8E937B20120312'
p357
sg4
S'20120311\xc2\xa09:10PM UTC'
p358
sg6
S'Hong Kong shares seen flat, corporate earnings eyed'
p359
sa(dp360
g2
S'http://www.reuters.com/article/2012/03/12/refinery-operations-jx-idUSL4E8EC01T20120312'
p361
sg4
S'20120311\xc2\xa09:05PM UTC'
p362
sg6
S"Japan's JX restarts Marifu CDU a day later than plan"
p363
sa(dp364
g2
S'http://www.reuters.com/article/2012/03/12/idUS19095+12-Mar-2012+PRN20120312'
p365
sg4
S'20120311\xc2\xa09:00PM UTC'
p366
sg6
S'Following Is a Test Release'
p367
sa(dp368
g2
S'http://www.reuters.com/article/2012/03/12/idUS19039+12-Mar-2012+BW20120312'
p369
sg4
S'20120311\xc2\xa09:00PM UTC'
p370
sg6
S'Inviragen Hand, Foot and Mouth Disease Vaccine Generates Immune Responses in 100% of Study Participants'
p371
sa(dp372
g2
S'http://www.reuters.com/article/2012/03/12/markets-precious-idUSL4E8EC01S20120312'
p373
sg4
S'20120311\xc2\xa08:58PM UTC'
p374
sg6
S'PRECIOUS-Gold extends gains on equities, focus on Fed'
p375
sa(dp376
g2
S'http://www.reuters.com/article/2012/03/12/pressdigest-idUSL4E8EC0AL20120312'
p377
sg4
S'20120311\xc2\xa08:57PM UTC'
p378
sg6
S'PRESS DIGEST - MALAYSIA - March 12'
p379
sa(dp380
g2
S'http://www.reuters.com/article/2012/03/12/usa-religion-schuller-idUSL2E8EC00B20120312'
p381
sg4
S'20120311\xc2\xa08:56PM UTC'
p382
sg6
S'US televangelist Robert Schuller leaves church board'
p383
sa(dp384
g2
S'http://www.reuters.com/article/2012/03/12/markets-philippines-idUSL4E8E929P20120312'
p385
sg4
S'20120311\xc2\xa08:55PM UTC'
p386
sg6
S'Philippines - Market factors to watch - March 12'
p387
sa(dp388
g2
S'http://www.reuters.com/article/2012/03/12/aviation-tax-eu-idUSL5E8EC00420120312'
p389
sg4
S'20120311\xc2\xa08:52PM UTC'
p390
sg6
S'Aviation calls on EU leaders to fix carbon tax-FT'
p391
sa(dp392
g2
S'http://www.reuters.com/article/2012/03/12/viterra-idUSL2E8EC00D20120312'
p393
sg4
S'20120311\xc2\xa08:51PM UTC'
p394
sg6
S'Cargill interested in buying Viterra - WSJ'
p395
sa(dp396
g2
S'http://www.reuters.com/article/2012/03/12/markets-asia-nymex-idUSL4E8EB0TS20120312'
p397
sg4
S'20120311\xc2\xa08:42PM UTC'
p398
sg6
S'NYMEX-Crude falls on strong dollar, pares recent gains'
p399
sa(dp400
g2
S'http://www.reuters.com/article/2012/03/12/us-william-hill-playtech-talks-idUSBRE82B00D20120312'
p401
sg4
S'20120311\xc2\xa08:41PM UTC'
p402
sg6
S'William Hill to open talks with Playtech: FT'
p403
sa(dp404
g2
S'http://www.reuters.com/article/2012/03/12/william-hill-playtech-talks-idUSL5E8EC00220120312'
p405
sg4
S'20120311\xc2\xa08:38PM UTC'
p406
sg6
S'William Hill to open talks with Playtech-FT'
p407
sa(dp408
g2
S'http://www.reuters.com/article/2012/03/12/singapore-market-stocks-preopener-idUSL4E8EC01420120312'
p409
sg4
S'20120311\xc2\xa08:35PM UTC'
p410
sg6
S'Singapore Stocks-May rise on US jobs; Mapletree in focus'
p411
sa(dp412
g2
S'http://www.reuters.com/article/2012/03/12/japan-politics-table-idUSL4E8EC01720120312'
p413
sg4
S'20120311\xc2\xa08:35PM UTC'
p414
sg6
S'TABLE-Japan PM voter support recovers slightly -poll'
p415
sa(dp416
g2
S'http://www.reuters.com/article/2012/03/12/us-drugs-counterfeits-idUSBRE82B00120120312'
p417
sg4
S'20120311\xc2\xa08:32PM UTC'
p418
sg6
S'Fake Avastin shows very little protects drug supply'
p419
sa(dp420
g2
S'http://www.reuters.com/article/2012/03/12/idUS248720935320120312'
p421
sg4
S'20120311\xc2\xa08:31PM UTC'
p422
sg6
S'\xe2\x80\x98Lorax\xe2\x80\x99 beats Disney Mars epic at box office'
p423
sa(dp424
g2
S'http://www.reuters.com/article/2012/03/12/idUS14701+12-Mar-2012+PRN20120312'
p425
sg4
S'20120311\xc2\xa08:30PM UTC'
p426
sg6
S'Following Is a Test Release'
p427
sa(dp428
g2
S'http://www.reuters.com/article/2012/03/12/us-nba-lakers-pix-idUSBRE82A0E820120312'
p429
sg4
S'20120311\xc2\xa08:25PM UTC'
p430
sg6
S"Kobe's late jumper helps Lakers beat Celtics"
p431
sa(dp432
g2
S'http://www.reuters.com/article/2012/03/12/idUS13369+12-Mar-2012+PRN20120312'
p433
sg4
S'20120311\xc2\xa08:19PM UTC'
p434
sg6
S'Ehrler Wins Walmart FLW Tour on Lake Hartwell Presented by Folgers'
p435
sa(dp436
g2
S'http://www.reuters.com/article/2012/03/12/malaysia-factors-idUSL4E8EC00Z20120312'
p437
sg4
S'20120311\xc2\xa08:18PM UTC'
p438
sg6
S'Malaysia-Market factors to watch March 12'
p439
sa(dp440
g2
S'http://www.reuters.com/article/2012/03/12/cockatoo-sk-idUSL4E8EC00C20120312'
p441
sg4
S'20120311\xc2\xa08:16PM UTC'
p442
sg6
S"SKorea's SK Networks to buy Cockatoo Coal stake for $332 mln"
p443
sa(dp444
g2
S'http://www.reuters.com/article/2012/03/12/economy-malaysia-indicators-idUSL4E8EC00U20120312'
p445
sg4
S'20120311\xc2\xa08:15PM UTC'
p446
sg6
S'TABLE-Malaysia economic indicators - March 12'
p447
sa(dp448
g2
S'http://www.reuters.com/article/2012/03/12/markets-korea-idUSL4E8EC00220120312'
p449
sg4
S'20120311\xc2\xa08:14PM UTC'
p450
sg6
S'Seoul shares edge lower as FOMC eyed'
p451
sa(dp452
g2
S'http://www.reuters.com/article/2012/03/12/markets-japan-stocks-idUSL4E8EC00820120312'
p453
sg4
S'20120311\xc2\xa08:13PM UTC'
p454
sg6
S'Nikkei breaks above 10,000 on U.S. jobs, yen'
p455
sa(dp456
g2
S'http://www.reuters.com/article/2012/03/12/idUS11714+12-Mar-2012+BW20120312'
p457
sg4
S'20120311\xc2\xa08:08PM UTC'
p458
sg6
S'Madison National Bank Chief Executive Officer Granted Medical Leave of Absence'
p459
sa(dp460
g2
S'http://www.reuters.com/article/2012/03/12/mapletreelogistics-idUSL4E8EB0UQ20120312'
p461
sg4
S'20120311\xc2\xa08:04PM UTC'
p462
sg6
S"Singapore's Mapletree Logistics buys $213 mln worth of Japan assets"
p463
sa(dp464
g2
S'http://www.reuters.com/article/2012/03/12/idUS10077+12-Mar-2012+PRN20120312'
p465
sg4
S'20120311\xc2\xa08:00PM UTC'
p466
sg6
S'Following Is a Test Release'
p467
sa(dp468
g2
S'http://www.reuters.com/article/2012/03/12/idUS10014+12-Mar-2012+MW20120312'
p469
sg4
S'20120311\xc2\xa08:00PM UTC'
p470
sg6
S" Van Drivers Chose Their 'Vantasy' Celebrity Apprentice"
p471
sa(dp472
g2
S'http://www.reuters.com/article/2012/03/12/idUS10006+12-Mar-2012+MW20120312'
p473
sg4
S'20120311\xc2\xa08:00PM UTC'
p474
sg6
S" Women Overtake Men in the Race to Become Britain's Best Drivers"
p475
sa(dp476
g2
S'http://www.reuters.com/article/2012/03/12/idUS10017+12-Mar-2012+MW20120312'
p477
sg4
S'20120311\xc2\xa08:00PM UTC'
p478
sg6
S' Dealised Signs Six-Country Daily Deals Agreement With Granton Asia'
p479
sa(dp480
g2
S'http://www.reuters.com/article/2012/03/11/idUS10001+12-Mar-2012+MW20120311'
p481
sg4
S'20120311\xc2\xa07:59PM UTC'
p482
sg6
S" Women Overtake Men in the Race to Become Britain's Best Drivers"
p483
sa(dp484
g2
S'http://www.reuters.com/article/2012/03/11/japan-economy-machinery-idUST9E8DK01B20120311'
p485
sg4
S'20120311\xc2\xa07:57PM UTC'
p486
sg6
S'Japan Jan core machinery orders up 3.4 pct mth/mth'
p487
sa(dp488
g2
S'http://www.reuters.com/article/2012/03/11/markets-korea-idUSL4E8EB0TY20120311'
p489
sg4
S'20120311\xc2\xa07:57PM UTC'
p490
sg6
S'Seoul shares seen making cautious gains ahead of FOMC'
p491
sa(dp492
g2
S'http://www.reuters.com/article/2012/03/11/woori-sale-idUSL4E8EB0UM20120311'
p493
sg4
S'20120311\xc2\xa07:56PM UTC'
p494
sg6
S'S.Korea to resume Woori sale in second half - regulator'
p495
sa(dp496
g2
S'http://www.reuters.com/article/2012/03/11/ireland-eu-debt-idUSL5E8EB36720120311'
p497
sg4
S'20120311\xc2\xa07:55PM UTC'
p498
sg6
S'UPDATE 1-Ireland in talks on EU-IMF deal to boost banks-finmin'
p499
sa(dp500
g2
S'http://www.reuters.com/article/2012/03/11/us-golf-wgc-idUSBRE82A0F220120311'
p501
sg4
S'20120311\xc2\xa07:53PM UTC'
p502
sg6
S"England's Rose wins Cadillac Championship"
p503
sa(dp504
g2
S'http://www.reuters.com/article/2012/03/11/idUS106820+11-Mar-2012+BW20120311'
p505
sg4
S'20120311\xc2\xa07:46PM UTC'
p506
sg6
S'FremantleMedia Enterprises Signs Global First Look Deal for Hulu Original Programming'
p507
sa(dp508
g2
S'http://www.reuters.com/article/2012/03/11/us-tennis-indian-men-idUSBRE82A03O20120311'
p509
sg4
S'20120311\xc2\xa07:44PM UTC'
p510
sg6
S'Nadal breezes through at Indian Wells'
p511
sa(dp512
g2
S'http://www.reuters.com/article/2012/03/11/us-tennis-indian-bug-idUSBRE82A0F120120311'
p513
sg4
S'20120311\xc2\xa07:44PM UTC'
p514
sg6
S'Players succumb to stomach bug at Indian Wells'
p515
sa(dp516
g2
S'http://www.reuters.com/article/2012/03/11/us-golf-pga-puerto-rico-idUSBRE82A0EX20120311'
p517
sg4
S'20120311\xc2\xa07:42PM UTC'
p518
sg6
S'McNeill charges past Ishikawa to win in Puerto Rico'
p519
sa(dp520
g2
S'http://www.reuters.com/article/2012/03/11/markets-japan-stocks-orders-idUSL4E8EB0SA20120311'
p521
sg4
S'20120311\xc2\xa07:38PM UTC'
p522
sg6
S'TABLE-Foreign brokers set to sell Japanese stocks'
p523
sa(dp524
g2
S'http://www.reuters.com/article/2012/03/11/us-markets-forex-idUSTRE8261YO20120311'
p525
sg4
S'20120311\xc2\xa07:38PM UTC'
p526
sg6
S'Dollar holds gains post-jobs data; Fed, BOJ eyed'
p527
sa(dp528
g2
S'http://www.reuters.com/article/2012/03/11/markets-japan-stocks-idUSL5E8EB36920120311'
p529
sg4
S'20120311\xc2\xa07:37PM UTC'
p530
sg6
S'Nikkei seen breaking above 10,000 on US jobs, yen'
p531
sa(dp532
g2
S'http://www.reuters.com/article/2012/03/11/us-water-study-idUSBRE82A0EU20120311'
p533
sg4
S'20120311\xc2\xa07:36PM UTC'
p534
sg6
S'Climate, food pressures require rethink on water: U.N'
p535
sa(dp536
g2
S'http://www.reuters.com/article/2012/03/11/markets-forex-idUSL4E8EB0CF20120311'
p537
sg4
S'20120311\xc2\xa07:34PM UTC'
p538
sg6
S'FOREX-Dollar holds gains post-jobs data; Fed, BOJ eyed'
p539
sa(dp540
g2
S'http://www.reuters.com/article/2012/03/11/idUS104767+11-Mar-2012+PRN20120311'
p541
sg4
S'20120311\xc2\xa07:34PM UTC'
p542
sg6
S'Agua Caliente Band of Cahuilla Indians Vice Chairman Jeff L. Grubbe Issues Statement About Passing of Chairman Richard M. Milanovich'
p543
sa(dp544
g2
S'http://www.reuters.com/article/2012/03/11/us-citigroup-tague-idUSBRE82A0ER20120311'
p545
sg4
S'20120311\xc2\xa07:31PM UTC'
p546
sg6
S'Citi names Tague M&A; co-head'
p547
sa(dp548
g2
S'http://www.reuters.com/article/2012/03/11/idUS217839217320120311'
p549
sg4
S'20120311\xc2\xa07:31PM UTC'
p550
sg6
S'IndieGoGo releases new algorithm for promoting crowdfunding projects'
p551
sa(dp552
g2
S'http://www.reuters.com/article/2012/03/11/idUS104214+11-Mar-2012+PRN20120311'
p553
sg4
S'20120311\xc2\xa07:30PM UTC'
p554
sg6
S'Following Is a Test Release'
p555
sa(dp556
g2
S'http://www.reuters.com/article/2012/03/11/us-stanford-thiel-idUSBRE82A0EO20120311'
p557
sg4
S'20120311\xc2\xa07:27PM UTC'
p558
sg6
S'Peter Thiel, university-hater, heads to campus'
p559
sa(dp560
g2
S'http://www.reuters.com/article/2012/03/11/citigroup-tague-idUSL2E8EB2F320120311'
p561
sg4
S'20120311\xc2\xa07:23PM UTC'
p562
sg6
S'Citi names Tague M&A; co-head'
p563
sa(dp564
g2
S'http://www.reuters.com/article/2012/03/11/us-greece-idUSBRE8270FH20120311'
p565
sg4
S'20120311\xc2\xa07:21PM UTC'
p566
sg6
S'Greek debt swap could be short-lived reprieve'
p567
sa(dp568
g2
S'http://www.reuters.com/article/2012/03/11/stanford-thiel-idUSL2E8EB00N20120311'
p569
sg4
S'20120311\xc2\xa07:19PM UTC'
p570
sg6
S'Peter Thiel, university-hater, heads to campus'
p571
sa(dp572
g2
S'http://www.reuters.com/article/2012/03/11/korea-marketfactors-idUSL4E8EB0RM20120311'
p573
sg4
S'20120311\xc2\xa07:10PM UTC'
p574
sg6
S'S.Korea-Market Factors to watch March 12'
p575
sa(dp576
g2
S'http://www.reuters.com/article/2012/03/11/us-syria-idUSBRE8280G820120311'
p577
sg4
S'20120311\xc2\xa07:07PM UTC'
p578
sg6
S'Annan ends Syria visit with no clear progress'
p579
sa(dp580
g2
S'http://www.reuters.com/article/2012/03/11/idUS100921+11-Mar-2012+PRN20120311'
p581
sg4
S'20120311\xc2\xa07:00PM UTC'
p582
sg6
S'Following Is a Test Release'
p583
sa(dp584
g2
S'http://www.reuters.com/article/2012/03/11/idUS411157506820120311'
p585
sg4
S'20120311\xc2\xa07:00PM UTC'
p586
sg6
S"Don't Transfer IRA Distributions to Charity Yet"
p587
sa(dp588
g2
S'http://www.reuters.com/article/2012/03/11/water-study-idUSL5E8E9ANL20120311'
p589
sg4
S'20120311\xc2\xa07:00PM UTC'
p590
sg6
S'Climate, food pressures require rethink on water-UN'
p591
sa(dp592
g2
S'http://www.reuters.com/article/2012/03/11/idUS100884+11-Mar-2012+BW20120311'
p593
sg4
S'20120311\xc2\xa07:00PM UTC'
p594
sg6
S'Molycorp adquire a importante processadora de terras raras, Neo Material Technologies em transa\xc3\xa7\xc3\xa3o de CDN$ 1,3 bilh\xc3\xa3o'
p595
sa(dp596
g2
S'http://www.reuters.com/article/2012/03/11/us-greece-minister-idUSBRE82A09J20120311'
p597
sg4
S'20120311\xc2\xa06:58PM UTC'
p598
sg6
S'Greek finance minister Venizelos set to be Socialist leader'
p599
sa(dp600
g2
S'http://www.reuters.com/article/2012/03/11/idUS100651+11-Mar-2012+BW20120311'
p601
sg4
S'20120311\xc2\xa06:58PM UTC'
p602
sg6
S'Molycorp va racheter Neo Material Technologies, un des leaders de la transformation des terres rares, dans une transaction de 1,3 milliard de dollars canadiens'
p603
sa(dp604
g2
S'http://www.reuters.com/article/2012/03/11/idUS100402+11-Mar-2012+PRN20120311'
p605
sg4
S'20120311\xc2\xa06:55PM UTC'
p606
sg6
S'Girl Scouts Rocked Hoover Dam in Celebration of 100th Anniversary!'
p607
sa(dp608
g2
S'http://www.reuters.com/article/2012/03/11/us-nba-lakers-pix-idUSBRE82A0E820120311'
p609
sg4
S'20120311\xc2\xa06:54PM UTC'
p610
sg6
S"Kobe's late jumper helps Lakers beat Celtics"
p611
sa(dp612
g2
S'http://www.reuters.com/article/2012/03/11/us-palestinians-israel-settlement-idUSBRE82A0E120120311'
p613
sg4
S'20120311\xc2\xa06:48PM UTC'
p614
sg6
S'Jewish settlers agree to evacuate West Bank outpost'
p615
sa(dp616
g2
S'http://www.reuters.com/article/2012/03/11/idUS98111+11-Mar-2012+PRN20120311'
p617
sg4
S'20120311\xc2\xa06:31PM UTC'
p618
sg6
S'Law Rocks! -- Exposition Deposition Wins Inaugural Law Rocks! Los Angeles'
p619
sa(dp620
g2
S'http://www.reuters.com/article/2012/03/11/idUS97951+11-Mar-2012+PRN20120311'
p621
sg4
S'20120311\xc2\xa06:30PM UTC'
p622
sg6
S'Following Is a Test Release'
p623
sa(dp624
g2
S'http://www.reuters.com/article/2012/03/11/idUS97949+11-Mar-2012+PRN20120311'
p625
sg4
S'20120311\xc2\xa06:30PM UTC'
p626
sg6
S'Game On! Northwestern Mutual Teams with Sports Illustrated to Launch a NCAA\xc2\xae March Madness\xc2\xae Bracket Challenge'
p627
sa(dp628
g2
S'http://www.reuters.com/article/2012/03/11/idUS97183+11-Mar-2012+PRN20120311'
p629
sg4
S'20120311\xc2\xa06:20PM UTC'
p630
sg6
S'Dodge Brand Identity Returns in NASCAR with 2013 Dodge Charger'
p631
sa(dp632
g2
S'http://www.reuters.com/article/2012/03/11/us-afghanistan-civilians-idUSBRE82A02V20120311'
p633
sg4
S'20120311\xc2\xa06:19PM UTC'
p634
sg6
S'Sixteen Afghan civilians killed in rogue U.S. attack'
p635
sa(dp636
g2
S'http://www.reuters.com/article/2012/03/11/us-usa-afghanistan-shooting-factbox-idUSBRE82A0DR20120311'
p637
sg4
S'20120311\xc2\xa06:19PM UTC'
p638
sg6
S'Factbox: Shooting adds to U.S. incidents in Afghan, Iraq wars'
p639
sa(dp640
g2
S'http://www.reuters.com/article/2012/03/11/us-usa-afghanistan-shooting-idUSBRE82A0DK20120311'
p641
sg4
S'20120311\xc2\xa06:15PM UTC'
p642
sg6
S'Shooting raises questions about U.S. course in Afghanistan'
p643
sa(dp644
g2
S'http://www.reuters.com/article/2012/03/11/us-yemen-idUSBRE82A0DD20120311'
p645
sg4
S'20120311\xc2\xa06:04PM UTC'
p646
sg6
S'Airstrike kills 3 militants in south Yemen: witnesses'
p647
sa(dp648
g2
S'http://www.reuters.com/article/2012/03/11/idUS95175+11-Mar-2012+PRN20120311'
p649
sg4
S'20120311\xc2\xa06:00PM UTC'
p650
sg6
S'Following Is a Test Release'
p651
sa(dp652
g2
S'http://www.reuters.com/article/2012/03/11/china-economy-trade-idUSL4E8EB03020120311'
p653
sg4
S'20120311\xc2\xa05:59PM UTC'
p654
sg6
S'RPT-UPDATE 2-Import surge sends China trade to decade-deep deficit'
p655
sa(dp656
g2
S'http://www.reuters.com/article/2012/03/11/japan-diary-idUSL3E7ND2VE20120311'
p657
sg4
S'20120311\xc2\xa05:59PM UTC'
p658
sg6
S'DIARY-Japan - March 12'
p659
sa(dp660
g2
S'http://www.reuters.com/article/2012/03/11/us-france-election-europe-idUSBRE82A06R20120311'
p661
sg4
S'20120311\xc2\xa05:56PM UTC'
p662
sg6
S"France's Sarkozy defies Europe with protectionist push"
p663
sa(dp664
g2
S'http://www.reuters.com/article/2012/03/11/us-frances-hollande-idUSBRE82A0DA20120311'
p665
sg4
S'20120311\xc2\xa05:56PM UTC'
p666
sg6
S"France's Hollande wants minimum wage linked to GDP"
p667
sa(dp668
g2
S'http://www.reuters.com/article/2012/03/11/idUS92865+11-Mar-2012+PRN20120311'
p669
sg4
S'20120311\xc2\xa05:31PM UTC'
p670
sg6
S'Sunbelt nears signing distribution agreement'
p671
sa(dp672
g2
S'http://www.reuters.com/article/2012/03/11/idUS92749+11-Mar-2012+PRN20120311'
p673
sg4
S'20120311\xc2\xa05:30PM UTC'
p674
sg6
S'Following Is a Test Release'
p675
sa(dp676
g2
S'http://www.reuters.com/article/2012/03/11/us-golf-wgc-woods-idUSBRE82A0CR20120311'
p677
sg4
S'20120311\xc2\xa05:27PM UTC'
p678
sg6
S'Woods withdraws from WGC with injury'
p679
sa(dp680
g2
S'http://www.reuters.com/article/2012/03/11/us-globeop-hedgefunds-idUSBRE82A0CX20120311'
p681
sg4
S'20120311\xc2\xa05:26PM UTC'
p682
sg6
S'Investors back hedge funds as performance rebounds'
p683
sa(dp684
g2
S'http://www.reuters.com/article/2012/03/11/us-airbus-airfrance-safran-idUSBRE82A0CP20120311'
p685
sg4
S'20120311\xc2\xa05:05PM UTC'
p686
sg6
S'French aerospace firms want help on China: report'
p687
sa(dp688
g2
S'http://www.reuters.com/article/2012/03/11/idUS88926+11-Mar-2012+PRN20120311'
p689
sg4
S'20120311\xc2\xa05:00PM UTC'
p690
sg6
S'Following Is a Test Release'
p691
sa(dp692
g2
S'http://www.reuters.com/article/2012/03/11/globeop-hedgefunds-idUSL5E8E9AXX20120311'
p693
sg4
S'20120311\xc2\xa05:00PM UTC'
p694
sg6
S'Investors back hedge funds as performance rebounds'
p695
sa(dp696
g2
S'http://www.reuters.com/article/2012/03/11/airbus-airfrance-safran-idUSL5E8EB34Q20120311'
p697
sg4
S'20120311\xc2\xa04:55PM UTC'
p698
sg6
S'French aerospace firms want help on China -report'
p699
sa(dp700
g2
S'http://www.reuters.com/article/2012/03/11/us-tennis-indian-bug-idUSBRE82A0CK20120311'
p701
sg4
S'20120311\xc2\xa04:37PM UTC'
p702
sg6
S'Players fall victim to stomach bug at Indian Wells'
p703
sa(dp704
g2
S'http://www.reuters.com/article/2012/03/11/us-sarkozy-tomato-idUSBRE82A0CF20120311'
p705
sg4
S'20120311\xc2\xa04:30PM UTC'
p706
sg6
S'France\'s Sarkozy "sorry" for tomato attack: source'
p707
sa(dp708
g2
S'http://www.reuters.com/article/2012/03/11/idUS86785+11-Mar-2012+PRN20120311'
p709
sg4
S'20120311\xc2\xa04:30PM UTC'
p710
sg6
S'Following Is a Test Release'
p711
sa(dp712
g2
S'http://www.reuters.com/article/2012/03/11/fonterra-idUSL4E8EB0BV20120311'
p713
sg4
S'20120311\xc2\xa04:28PM UTC'
p714
sg6
S"NZ's Fonterra lowers 2012 season payout forecast"
p715
sa(dp716
g2
S'http://www.reuters.com/article/2012/03/11/tav-adp-idUSL5E8EB34920120311'
p717
sg4
S'20120311\xc2\xa04:16PM UTC'
p718
sg6
S'UPDATE 1-ADP wins auction for Turkish airport operator TAV-sources'
p719
sa(dp720
g2
S'http://www.reuters.com/article/2012/03/11/idUS84831+11-Mar-2012+PRN20120311'
p721
sg4
S'20120311\xc2\xa04:05PM UTC'
p722
sg6
S'SB-157 Would Kill Hundreds of Jobs in Colorado in Order to Create a Massive New Government Bureaucracy, According to CenturyLink'
p723
sa(dp724
g2
S'http://www.reuters.com/article/2012/03/11/us-athletics-world-idUSBRE82A0C120120311'
p725
sg4
S'20120311\xc2\xa04:02PM UTC'
p726
sg6
S'Isinbayeva and U.S. shine as indoors end'
p727
sa(dp728
g2
S'http://www.reuters.com/article/2012/03/11/idUS84381+11-Mar-2012+PRN20120311'
p729
sg4
S'20120311\xc2\xa04:00PM UTC'
p730
sg6
S'Following Is a Test Release'
p731
sa(dp732
g2
S'http://www.reuters.com/article/2012/03/11/bis-banks-deleveraging-idUSL5E8E87F120120311'
p733
sg4
S'20120311\xc2\xa04:00PM UTC'
p734
sg6
S'Europe bank pullback absorbed as rivals step in -BIS'
p735
sa(dp736
g2
S'http://www.reuters.com/article/2012/03/11/idUS84347+11-Mar-2012+MW20120311'
p737
sg4
S'20120311\xc2\xa04:00PM UTC'
p738
sg6
S' Geoloqi Extends Platform With Appcelerator, Factual and Locaid Partnerships'
p739
sa(dp740
g2
S'http://www.reuters.com/article/2012/03/11/ireland-eu-debt-idUSL5E8EB33S20120311'
p741
sg4
S'20120311\xc2\xa03:56PM UTC'
p742
sg6
S'Ireland in talks on EU-IMF deal to boost banks-finmin'
p743
sa(dp744
g2
S'http://www.reuters.com/article/2012/03/11/us-usa-campaign-south-idUSBRE82A0BY20120311'
p745
sg4
S'20120311\xc2\xa03:53PM UTC'
p746
sg6
S'Gingrich and Santorum battle for Deep South conservatives'
p747
sa(dp748
g2
S'http://www.reuters.com/article/2012/03/11/us-economy-global-weekahead-idUSBRE82A0BT20120311'
p749
sg4
S'20120311\xc2\xa03:42PM UTC'
p750
sg6
S'U.S. retail therapy needed'
p751
sa(dp752
g2
S'http://www.reuters.com/article/2012/03/11/idUS82860+11-Mar-2012+MW20120311'
p753
sg4
S'20120311\xc2\xa03:39PM UTC'
p754
sg6
S' Prism Skylabs Showcases Integration With Google+, YouTube and Picasa at SXSW'
p755
sa(dp756
g2
S'http://www.reuters.com/article/2012/03/11/safrica-malema-idUSL5E8EB30S20120311'
p757
sg4
S'20120311\xc2\xa03:30PM UTC'
p758
sg6
S"S.Africa's Malema pleads to stay in ANC 'family'"
p759
sa(dp760
g2
S'http://www.reuters.com/article/2012/03/11/idUS82117+11-Mar-2012+PRN20120311'
p761
sg4
S'20120311\xc2\xa03:30PM UTC'
p762
sg6
S'Following Is a Test Release'
p763
sa(dp764
g2
S'http://www.reuters.com/article/2012/03/11/idUS82105+11-Mar-2012+PRN20120311'
p765
sg4
S'20120311\xc2\xa03:30PM UTC'
p766
sg6
S'Broncos Cheerleaders Help MADD Colorado Kick Off Annual 5K Walk With Bowling Event'
p767
sa(dp768
g2
S'http://www.reuters.com/article/2012/03/11/digest-australia-business-idUSL4E8EB0B120120311'
p769
sg4
S'20120311\xc2\xa03:27PM UTC'
p770
sg6
S'PRESS DIGEST-Australian Business News - March 12'
p771
sa(dp772
g2
S'http://www.reuters.com/article/2012/03/11/us-britain-charts-idUSBRE82A0BI20120311'
p773
sg4
S'20120311\xc2\xa03:25PM UTC'
p774
sg6
S'Bruce Springsteen smashes way to UK number one'
p775
sa(dp776
g2
S'http://www.reuters.com/article/2012/03/11/us-boxoffice-idUSBRE82A08I20120311'
p777
sg4
S'20120311\xc2\xa03:22PM UTC'
p778
sg6
S"'Lorax' beats Disney Mars epic at box office"
p779
sa(dp780
g2
S'http://www.reuters.com/article/2012/03/11/us-usa-afghanistan-obama-karzai-idUSBRE82A0BG20120311'
p781
sg4
S'20120311\xc2\xa03:20PM UTC'
p782
sg6
S"Obama calls Afghanistan's Karzai over killings: White House"
p783
sa(dp784
g2
S'http://www.reuters.com/article/2012/03/11/boxoffice-idUSL2E8EB0LT20120311'
p785
sg4
S'20120311\xc2\xa03:17PM UTC'
p786
sg6
S"UPDATE 1-'Lorax' beats Disney Mars epic at box office"
p787
sa(dp788
g2
S'http://www.reuters.com/article/2012/03/11/us-egypt-government-idUSBRE82A0A720120311'
p789
sg4
S'20120311\xc2\xa03:13PM UTC'
p790
sg6
S'Egypt MPs move to withdraw confidence from government'
p791
sa(dp792
g2
S'http://www.reuters.com/article/2012/03/11/us-sudan-aid-idUSBRE82A0B020120311'
p793
sg4
S'20120311\xc2\xa03:13PM UTC'
p794
sg6
S'Sudan investment conference called off as U.S. pulls out'
p795
sa(dp796
g2
S'http://www.reuters.com/article/2012/03/11/us-sudan-kordofan-kapila-idUSBRE82A0B720120311'
p797
sg4
S'20120311\xc2\xa03:13PM UTC'
p798
sg6
S'Ex U.N. envoy accuses Sudan of genocide, Khartoum denies'
p799
sa(dp800
g2
S'http://www.reuters.com/article/2012/03/11/idUS79821+11-Mar-2012+PRN20120311'
p801
sg4
S'20120311\xc2\xa03:00PM UTC'
p802
sg6
S'Following Is a Test Release'
p803
sa(dp804
g2
S'http://www.reuters.com/article/2012/03/11/us-ice-sheet-climate-idUSBRE82A0AT20120311'
p805
sg4
S'20120311\xc2\xa03:00PM UTC'
p806
sg6
S'Greenland ice melt seen at lower temperatures: study'
p807
sa(dp808
g2
S'http://www.reuters.com/article/2012/03/11/energy-retail-gasoline-idUSL2E8EB1GQ20120311'
p809
sg4
S'20120311\xc2\xa02:47PM UTC'
p810
sg6
S'U.S. gasoline hits $3.81 a gallon; may peak soon-survey'
p811
sa(dp812
g2
S'http://www.reuters.com/article/2012/03/11/us-britain-hague-drones-idUSBRE82A0AP20120311'
p813
sg4
S'20120311\xc2\xa02:45PM UTC'
p814
sg6
S"UK's Hague faces suit over Pakistan drone strikes"
p815
sa(dp816
g2
S'http://www.reuters.com/article/2012/03/11/newzealand-press-idUSL4E8EB0AT20120311'
p817
sg4
S'20120311\xc2\xa02:44PM UTC'
p818
sg6
S'PRESS DIGEST-New Zealand newspapers - March 12'
p819
sa(dp820
g2
S'http://www.reuters.com/article/2012/03/11/idUS77673+11-Mar-2012+PRN20120311'
p821
sg4
S'20120311\xc2\xa02:30PM UTC'
p822
sg6
S'Following Is a Test Release'
p823
sa(dp824
g2
S'http://www.reuters.com/article/2012/03/11/us-afghanistan-usa-witnesses-idUSBRE82A0A420120311'
p825
sg4
S'20120311\xc2\xa02:22PM UTC'
p826
sg6
S'Father at window shot in face, Afghan witness says'
p827
sa(dp828
g2
S'http://www.reuters.com/article/2012/03/11/us-afghanistan-obama-idUSBRE82A09Y20120311'
p829
sg4
S'20120311\xc2\xa02:20PM UTC'
p830
sg6
S'Obama says "deeply saddened" by Afghan shooting'
p831
sa(dp832
g2
S'http://www.reuters.com/article/2012/03/11/us-usa-afghanistan-panetta-idUSBRE82A09R20120311'
p833
sg4
S'20120311\xc2\xa02:18PM UTC'
p834
sg6
S'Defense boss speaks to Karzai, condemns shooting of civilians'
p835
sa(dp836
g2
S'http://www.reuters.com/article/2012/03/11/idUS75522+11-Mar-2012+PRN20120311'
p837
sg4
S'20120311\xc2\xa02:00PM UTC'
p838
sg6
S'Following Is a Test Release'
p839
sa(dp840
g2
S'http://www.reuters.com/article/2012/03/11/us-france-election-idUSBRE82811A20120311'
p841
sg4
S'20120311\xc2\xa01:52PM UTC'
p842
sg6
S"France's Sarkozy defies Europe with protectionist push"
p843
sa(dp844
g2
S'http://www.reuters.com/article/2012/03/11/us-nigeria-violence-idUSBRE82A05A20120311'
p845
sg4
S'20120311\xc2\xa01:35PM UTC'
p846
sg6
S"Reprisals kill 10 after church bombed in Nigeria's Jos"
p847
sa(dp848
g2
S'http://www.reuters.com/article/2012/03/11/idUS73339+11-Mar-2012+PRN20120311'
p849
sg4
S'20120311\xc2\xa01:30PM UTC'
p850
sg6
S'Following Is a Test Release'
p851
sa(dp852
g2
S'http://www.reuters.com/article/2012/03/11/us-spain-labour-idUSBRE82A08S20120311'
p853
sg4
S'20120311\xc2\xa01:23PM UTC'
p854
sg6
S'Tens of thousands of Spaniards protest labor reform'
p855
sa(dp856
g2
S'http://www.reuters.com/article/2012/03/11/us-slovakia-election-idUSBRE82A08920120311'
p857
sg4
S'20120311\xc2\xa01:21PM UTC'
p858
sg6
S'Pro-European left sweeps Slovak vote, targets rich'
p859
sa(dp860
g2
S'http://www.reuters.com/article/2012/03/11/us-venezuela-election-chavez-idUSBRE82A07720120311'
p861
sg4
S'20120311\xc2\xa01:19PM UTC'
p862
sg6
S'Down but not out, sick Chavez seeks re-election in Venezuela'
p863
sa(dp864
g2
S'http://www.reuters.com/article/2012/03/11/greece-minister-idUSL5E8EB1Y720120311'
p865
sg4
S'20120311\xc2\xa01:14PM UTC'
p866
sg6
S'Greek finmin Venizelos set to be Socialist leader'
p867
sa(dp868
g2
S'http://www.reuters.com/article/2012/03/11/us-bp-plaintiffs-idUSBRE82A05J20120311'
p869
sg4
S'20120311\xc2\xa01:09PM UTC'
p870
sg6
S'Oil spill aftermath: A tale of three plaintiffs'
p871
sa(dp872
g2
S'http://www.reuters.com/article/2012/03/11/harman-idUSL2E8EB0LN20120311'
p873
sg4
S'20120311\xc2\xa01:07PM UTC'
p874
sg6
S"Harman may benefit on car systems growth-Barron's"
p875
sa(dp876
g2
S'http://www.reuters.com/article/2012/03/11/olympics-swimming-idUSL4E8EB07V20120311'
p877
sg4
S'20120311\xc2\xa01:02PM UTC'
p878
sg6
S'INTERVIEW-Olympics-Records will fall in London pool, says coach'
p879
sa(dp880
g2
S'http://www.reuters.com/article/2012/03/11/idUS70929+11-Mar-2012+PRN20120311'
p881
sg4
S'20120311\xc2\xa01:00PM UTC'
p882
sg6
S'Following Is a Test Release'
p883
sa(dp884
g2
S'http://www.reuters.com/article/2012/03/11/boxoffice-chart-idUSL2E8EA1B820120311'
p885
sg4
S'20120311\xc2\xa012:59PM UTC'
p886
sg6
S'The top films at the North American box office'
p887
sa(dp888
g2
S'http://www.reuters.com/article/2012/03/11/norway-budget-idUSL5E8EB25I20120311'
p889
sg4
S'20120311\xc2\xa012:44PM UTC'
p890
sg6
S'UPDATE 1-Norway to cut oil money spending in 2013'
p891
sa(dp892
g2
S'http://www.reuters.com/article/2012/03/11/us-aldar-sorouh-idUSBRE82A07C20120311'
p893
sg4
S'20120311\xc2\xa012:39PM UTC'
p894
sg6
S'UAE developers Aldar, Sorouh eye state-backed merger'
p895
sa(dp896
g2
S'http://www.reuters.com/article/2012/03/11/us-slovakia-krasnahorka-idUSBRE82A08M20120311'
p897
sg4
S'20120311\xc2\xa012:33PM UTC'
p898
sg6
S'Smoking Slovak children burn down castle'
p899
sa(dp900
g2
S'http://www.reuters.com/article/2012/03/11/idUS68389+11-Mar-2012+PRN20120311'
p901
sg4
S'20120311\xc2\xa012:30PM UTC'
p902
sg6
S'Following Is a Test Release'
p903
sa(dp904
g2
S'http://www.reuters.com/article/2012/03/11/us-egypt-detainee-doctor-idUSBRE82A04R20120311'
p905
sg4
S'20120311\xc2\xa012:27PM UTC'
p906
sg6
S'Egypt army court acquits doctor over virginity test'
p907
sa(dp908
g2
S'http://www.reuters.com/article/2012/03/11/ann-barrons-idUSL2E8EB0GM20120311'
p909
sg4
S'20120311\xc2\xa012:26PM UTC'
p910
sg6
S"Ann Inc shares may climb as margins rise-Barron's"
p911
sa(dp912
g2
S'http://www.reuters.com/article/2012/03/11/us-russia-protests-idUSBRE82A08D20120311'
p913
sg4
S'20120311\xc2\xa012:21PM UTC'
p914
sg6
S'Russian protesters face challenge after Putin win'
p915
sa(dp916
g2
S'http://www.reuters.com/article/2012/03/11/swiss-holidays-idUSL5E8E9AB220120311'
p917
sg4
S'20120311\xc2\xa012:19PM UTC'
p918
sg6
S'Swiss voters say no to longer annual holidays'
p919
sa(dp920
g2
S'http://www.reuters.com/article/2012/03/11/boxoffice-idUSL2E8E9AKB20120311'
p921
sg4
S'20120311\xc2\xa012:16PM UTC'
p922
sg6
S"'Lorax' beats Disney's 'Carter' at box office"
p923
sa(dp924
g2
S'http://www.reuters.com/article/2012/03/11/us-usa-stocks-weekahead-idUSBRE82903620120311'
p925
sg4
S'20120311\xc2\xa012:15PM UTC'
p926
sg6
S'Stocks may avert pullback - again'
p927
sa(dp928
g2
S'http://www.reuters.com/article/2012/03/11/idUS66733+11-Mar-2012+GNW20120311'
p929
sg4
S'20120311\xc2\xa012:11PM UTC'
p930
sg6
S'Mechel Reports Suspension of Smelting Production at Otelu Rosu'
p931
sa(dp932
g2
S'http://www.reuters.com/article/2012/03/11/idUS66737+11-Mar-2012+GNW20120311'
p933
sg4
S'20120311\xc2\xa012:11PM UTC'
p934
sg6
S'Mechel Reports Suspension of Smelting Production at Otelu Rosu'
p935
sa(dp936
g2
S'http://www.reuters.com/article/2012/03/11/aldar-sorouh-idUSL5E8EB22F20120311'
p937
sg4
S'20120311\xc2\xa012:09PM UTC'
p938
sg6
S'UPDATE 3-UAE developers Aldar, Sorouh eye state-backed merger'
p939
sa(dp940
g2
S'http://www.reuters.com/article/2012/03/11/usa-stocks-weekahead-idUSL2E8EA05T20120311'
p941
sg4
S'20120311\xc2\xa012:01PM UTC'
p942
sg6
S'RPT-Wall St Week Ahead: Stocks may avert pullback-again'
p943
sa(dp944
g2
S'http://www.reuters.com/article/2012/03/11/idUS65739+11-Mar-2012+PRN20120311'
p945
sg4
S'20120311\xc2\xa012:00PM UTC'
p946
sg6
S'Following Is a Test Release'
p947
sa(dp948
g2
S'http://www.reuters.com/article/2012/03/11/idUS65713+11-Mar-2012+PRN20120311'
p949
sg4
S'20120311\xc2\xa012:00PM UTC'
p950
sg6
S'Transportation, Labor Secretaries to Address City Officials at NLC Conference'
p951
sa(dp952
g2
S'http://www.reuters.com/article/2012/03/11/us-france-germany-hollande-idUSBRE82A08520120311'
p953
sg4
S'20120311\xc2\xa011:59AM UTC'
p954
sg6
S'Europe must listen to me: French election favorite'
p955
sa(dp956
g2
S'http://www.reuters.com/article/2012/03/11/idUS65526+11-Mar-2012+PRN20120311'
p957
sg4
S'20120311\xc2\xa011:58AM UTC'
p958
sg6
S'Rentrak Announces Official Box Office Numbers for Weekend of March 9, 2012'
p959
sa(dp960
g2
S'http://www.reuters.com/article/2012/03/11/slovakia-election-idUSL5E8EB01B20120311'
p961
sg4
S'20120311\xc2\xa011:53AM UTC'
p962
sg6
S'UPDATE 2-Pro-European left sweeps Slovak vote, targets rich'
p963
sa(dp964
g2
S'http://www.reuters.com/article/2012/03/11/us-iran-ahmadinejad-war-idUSBRE82A07Y20120311'
p965
sg4
S'20120311\xc2\xa011:52AM UTC'
p966
sg6
S"Ahmadinejad: Iran doesn't fear bombs and warships"
p967
sa(dp968
g2
S'http://www.reuters.com/article/2012/03/11/us-congo-republic-funeral-idUSBRE82A07W20120311'
p969
sg4
S'20120311\xc2\xa011:48AM UTC'
p970
sg6
S'Tears, smell of death at Congo mass funeral'
p971
sa(dp972
g2
S'http://www.reuters.com/article/2012/03/11/neomaterial-molycorp-idUSL2E8E9AZW20120311'
p973
sg4
S'20120311\xc2\xa011:46AM UTC'
p974
sg6
S'DEALTALK-Molycorp, Neo Material deal a rare earth game changer'
p975
sa(dp976
g2
S'http://www.reuters.com/article/2012/03/11/mideast-markets-wrap-idUSL5E8EB2BE20120311'
p977
sg4
S'20120311\xc2\xa011:41AM UTC'
p978
sg6
S'MIDEAST STOCKS-Dubai makes a sharp rebound; most Gulf markets rise'
p979
sa(dp980
g2
S'http://www.reuters.com/article/2012/03/11/us-belgium-budget-idUSBRE82A07S20120311'
p981
sg4
S'20120311\xc2\xa011:40AM UTC'
p982
sg6
S'Economic malaise forces Belgium to extend austerity'
p983
sa(dp984
g2
S'http://www.reuters.com/article/2012/03/11/us-usa-afghanistan-shooting-idUSBRE82A07020120311'
p985
sg4
S'20120311\xc2\xa011:38AM UTC'
p986
sg6
S'Only one soldier believed involved in Afghan shooting: U.S.'
p987
sa(dp988
g2
S'http://www.reuters.com/article/2012/03/11/idUS62835+11-Mar-2012+PRN20120311'
p989
sg4
S'20120311\xc2\xa011:30AM UTC'
p990
sg6
S'Following Is a Test Release'
p991
sa(dp992
g2
S'http://www.reuters.com/article/2012/03/11/us-usa-afghanistan-whitehouse-idUSBRE82A07L20120311'
p993
sg4
S'20120311\xc2\xa011:19AM UTC'
p994
sg6
S'White House: deeply concerned by Afghan shooting incident'
p995
sa(dp996
g2
S'http://www.reuters.com/article/2012/03/11/idUS60106+11-Mar-2012+PRN20120311'
p997
sg4
S'20120311\xc2\xa011:00AM UTC'
p998
sg6
S'Following Is a Test Release'
p999
sa(dp1000
g2
S'http://www.reuters.com/article/2012/03/11/idUS60090+11-Mar-2012+MW20120311'
p1001
sg4
S'20120311\xc2\xa011:00AM UTC'
p1002
sg6
S' Quincy Veterinarian Warns South Shore Residents About the Dangers of Ticks and Lyme Disease'
p1003
sa(dp1004
g2
S'http://www.reuters.com/article/2012/03/11/idUS60085+11-Mar-2012+MW20120311'
p1005
sg4
S'20120311\xc2\xa011:00AM UTC'
p1006
sg6
S' Lincoln Physical Therapy Clinic Launches New Website to Inform Patients About Spinal Decompression Therapy'
p1007
sa(dp1008
g2
S'http://www.reuters.com/article/2012/03/11/idUS60080+11-Mar-2012+MW20120311'
p1009
sg4
S'20120311\xc2\xa011:00AM UTC'
p1010
sg6
S' Charlotte Chiropractor Offers Laser Therapy to Patients Suffering Chronic Back Pain'
p1011
sa(dp1012
g2
S'http://www.reuters.com/article/2012/03/11/idUS60077+11-Mar-2012+MW20120311'
p1013
sg4
S'20120311\xc2\xa011:00AM UTC'
p1014
sg6
S' Market America CEO JR Ridinger and Loren Ridinger, SVP and Creator of Motives by Loren Ridinger Cosmetics to Visit London Next Wee'
p1015
sa(dp1016
g2
S'http://www.reuters.com/article/2012/03/11/idUS60075+11-Mar-2012+MW20120311'
p1017
sg4
S'20120311\xc2\xa011:00AM UTC'
p1018
sg6
S' Murfreesboro Chiropractor Announces Successes With Non-Surgical Spinal Decompression Therapy'
p1019
sa(dp1020
g2
S'http://www.reuters.com/article/2012/03/11/idUS60065+11-Mar-2012+BW20120311'
p1021
sg4
S'20120311\xc2\xa011:00AM UTC'
p1022
sg6
S'Former Federal Judge to Deliver Robinson Lecture at UC Irvine School of Law on March 12'
p1023
sa(dp1024
g2
S'http://www.reuters.com/article/2012/03/11/idUS60093+11-Mar-2012+MW20120311'
p1025
sg4
S'20120311\xc2\xa011:00AM UTC'
p1026
sg6
S" Solomons and St. Mary's Vet Clinic Offers Vet Specials"
p1027
sa(dp1028
g2
S'http://www.reuters.com/article/2012/03/11/belgium-budget-idUSL5E8EB24M20120311'
p1029
sg4
S'20120311\xc2\xa010:59AM UTC'
p1030
sg6
S'UPDATE 1-Economic malaise forces Belgium to extend austerity'
p1031
sa(dp1032
g2
S'http://www.reuters.com/article/2012/03/11/pressdigest-sunday-idUSL5E8EB22520120311'
p1033
sg4
S'20120311\xc2\xa010:47AM UTC'
p1034
sg6
S'PRESS DIGEST - Sunday British Press - March 11'
p1035
sa(dp1036
g2
S'http://www.reuters.com/article/2012/03/11/volkswagen-piech-idUSL5E8EB25F20120311'
p1037
sg4
S'20120311\xc2\xa010:41AM UTC'
p1038
sg6
S"Piech's wife set to join VW supervisory board"
p1039
sa(dp1040
g2
S'http://www.reuters.com/article/2012/03/11/us-afghanistan-usa-shooting-idUSBRE82A07220120311'
p1041
sg4
S'20120311\xc2\xa010:31AM UTC'
p1042
sg6
S'U.S. embassy in Kabul warns of anti-American reprisals'
p1043
sa(dp1044
g2
S'http://www.reuters.com/article/2012/03/11/us-afghanistan-usa-karzai-idUSBRE82A07120120311'
p1045
sg4
S'20120311\xc2\xa010:31AM UTC'
p1046
sg6
S'Afghanistan\'s Karzai calls shooting spree "intentional murders"'
p1047
sa(dp1048
g2
S'http://www.reuters.com/article/2012/03/11/idUS57518+11-Mar-2012+PRN20120311'
p1049
sg4
S'20120311\xc2\xa010:30AM UTC'
p1050
sg6
S'Following Is a Test Release'
p1051
sa(dp1052
g2
S'http://www.reuters.com/article/2012/03/11/canada-column-markets-idUSL2E8E9E7C20120311'
p1053
sg4
S'20120311\xc2\xa010:29AM UTC'
p1054
sg6
S'BAY STREET-Investor fear fuels market-linked GIC sales'
p1055
sa(dp1056
g2
S'http://www.reuters.com/article/2012/03/11/czech-tax-idUSL5E8EB24E20120311'
p1057
sg4
S'20120311\xc2\xa010:27AM UTC'
p1058
sg6
S'Czech PM favours small VAT rise'
p1059
sa(dp1060
g2
S'http://www.reuters.com/article/2012/03/11/stanc-saudi-licence-idUSL5E8EB1Y120120311'
p1061
sg4
S'20120311\xc2\xa010:10AM UTC'
p1062
sg6
S'StanChart seeks nod for Saudi licence - sources'
p1063
sa(dp1064
g2
S'http://www.reuters.com/article/2012/03/11/us-douglas-idUSBRE82A06P20120311'
p1065
sg4
S'20120311\xc2\xa010:09AM UTC'
p1066
sg6
S'Douglas revamp in focus at board meeting: source'
p1067
sa(dp1068
g2
S'http://www.reuters.com/article/2012/03/11/us-game-group-idUSBRE82A06J20120311'
p1069
sg4
S'20120311\xc2\xa010:03AM UTC'
p1070
sg6
S'Game seeks buyer to avoid administration: report'
p1071
sa(dp1072
g2
S'http://www.reuters.com/article/2012/03/11/idUS54844+11-Mar-2012+PRN20120311'
p1073
sg4
S'20120311\xc2\xa010:00AM UTC'
p1074
sg6
S'Following Is a Test Release'
p1075
sa(dp1076
g2
S'http://www.reuters.com/article/2012/03/11/idUS54811+11-Mar-2012+MW20120311'
p1077
sg4
S'20120311\xc2\xa010:00AM UTC'
p1078
sg6
S' March Madness and a 529 College Saving Plan -- A Winning Combination'
p1079
sa(dp1080
g2
S'http://www.reuters.com/article/2012/03/11/idUS54808+11-Mar-2012+MW20120311'
p1081
sg4
S'20120311\xc2\xa010:00AM UTC'
p1082
sg6
S" Marysville Chiropractor Announces the Launch of Their New 'Patient Friendly' Website"
p1083
sa(dp1084
g2
S'http://www.reuters.com/article/2012/03/11/idUS54804+11-Mar-2012+MW20120311'
p1085
sg4
S'20120311\xc2\xa010:00AM UTC'
p1086
sg6
S' Hunt Valley Animal Hospital Announces Pet Acupuncture Services for Pain Management'
p1087
sa(dp1088
g2
S'http://www.reuters.com/article/2012/03/11/idUS54802+11-Mar-2012+MW20120311'
p1089
sg4
S'20120311\xc2\xa010:00AM UTC'
p1090
sg6
S' South Valley Animal Clinic Launches New Website for Pet Owners'
p1091
sa(dp1092
g2
S'http://www.reuters.com/article/2012/03/11/douglas-idUSL5E8EB23I20120311'
p1093
sg4
S'20120311\xc2\xa09:59AM UTC'
p1094
sg6
S'Douglas revamp in focus at board meeting -source'
p1095
sa(dp1096
g2
S'http://www.reuters.com/article/2012/03/11/game-group-idUSL5E8EB23S20120311'
p1097
sg4
S'20120311\xc2\xa09:57AM UTC'
p1098
sg6
S'UPDATE 1-Game seeks buyer to avoid administration -report'
p1099
sa(dp1100
g2
S'http://www.reuters.com/article/2012/03/11/idUS73754995820120311'
p1101
sg4
S'20120311\xc2\xa09:44AM UTC'
p1102
sg6
S'South African Muslims come to life in \xe2\x80\x9cMaterial\xe2\x80\x9d film'
p1103
sa(dp1104
g2
S'http://www.reuters.com/article/2012/03/11/badminton-england-women-idUSL5E8EB22K20120311'
p1105
sg4
S'20120311\xc2\xa09:41AM UTC'
p1106
sg6
S'Badminton-Top seed Wang stunned in All England final'
p1107
sa(dp1108
g2
S'http://www.reuters.com/article/2012/03/11/us-syria-annan-idUSBRE82A06620120311'
p1109
sg4
S'20120311\xc2\xa09:37AM UTC'
p1110
sg6
S'Annan says "optimistic" but no Syria deal yet'
p1111
sa(dp1112
g2
S'http://www.reuters.com/article/2012/03/11/idUS352693628120120311'
p1113
sg4
S'20120311\xc2\xa09:32AM UTC'
p1114
sg6
S'Building a socially responsible investment portfolio'
p1115
sa(dp1116
g2
S'http://www.reuters.com/article/2012/03/11/idUS52212+11-Mar-2012+PRN20120311'
p1117
sg4
S'20120311\xc2\xa09:30AM UTC'
p1118
sg6
S'Following Is a Test Release'
p1119
sa(dp1120
g2
S'http://www.reuters.com/article/2012/03/11/saudi-almarai-sukuk-idUSL5E8EB23F20120311'
p1121
sg4
S'20120311\xc2\xa09:27AM UTC'
p1122
sg6
S"Saudi's Almarai raises $267 mln from debut sukuk"
p1123
sa(dp1124
g2
S'http://www.reuters.com/article/2012/03/11/us-japan-tsunami-idUSBRE8290C420120311'
p1125
sg4
S'20120311\xc2\xa09:22AM UTC'
p1126
sg6
S'Japan mourns tsunami dead; grapples with aftermath'
p1127
sa(dp1128
g2
S'http://www.reuters.com/article/2012/03/11/game-group-idUSL5E8EB23D20120311'
p1129
sg4
S'20120311\xc2\xa09:20AM UTC'
p1130
sg6
S'Game seeks buyer to avoid administration -report'
p1131
sa(dp1132
g2
S'http://www.reuters.com/article/2012/03/11/japan-tsunami-idUSL4E8EB00R20120311'
p1133
sg4
S'20120311\xc2\xa09:19AM UTC'
p1134
sg6
S'UPDATE 7-Japan mourns tsunami dead; grapples with aftermath'
p1135
sa(dp1136
g2
S'http://www.reuters.com/article/2012/03/11/israel-banks-loans-idUSL5E8EB20N20120311'
p1137
sg4
S'20120311\xc2\xa09:18AM UTC'
p1138
sg6
S'Israeli banks boost small-business credit supply'
p1139
sa(dp1140
g2
S'http://www.reuters.com/article/2012/03/11/idUS288387852520120311'
p1141
sg4
S'20120311\xc2\xa09:17AM UTC'
p1142
sg6
S'Iraqi Shi\xe2\x80\x99ite militia stone youths to death for Western-style \xe2\x80\x9cemo\xe2\x80\x9d punk clothes'
p1143
sa(dp1144
g2
S'http://www.reuters.com/article/2012/03/11/deutschebank-ricken-idUSL5E8EB22C20120311'
p1145
sg4
S'20120311\xc2\xa09:13AM UTC'
p1146
sg6
S'Ricken to get senior Deutsche Bank post - report'
p1147
sa(dp1148
g2
S'http://www.reuters.com/article/2012/03/11/us-aids-cure-idUSBRE82A05R20120311'
p1149
sg4
S'20120311\xc2\xa09:05AM UTC'
p1150
sg6
S'Progress, no big breakthrough, in hunt for HIV cure'
p1151
sa(dp1152
g2
S'http://www.reuters.com/article/2012/03/11/idUS49463+11-Mar-2012+PRN20120311'
p1153
sg4
S'20120311\xc2\xa09:00AM UTC'
p1154
sg6
S'The Smith Center for The Performing Arts Opens in Las Vegas With Star-Studded Concert'
p1155
sa(dp1156
g2
S'http://www.reuters.com/article/2012/03/11/idUS49436+11-Mar-2012+PRN20120311'
p1157
sg4
S'20120311\xc2\xa09:00AM UTC'
p1158
sg6
S'Following Is a Test Release'
p1159
sa(dp1160
g2
S'http://www.reuters.com/article/2012/03/11/idUS177278375520120311'
p1161
sg4
S'20120311\xc2\xa08:59AM UTC'
p1162
sg6
S'Pope Benedict and Archbishop Rowan Williams pray together but skirt problems'
p1163
sa(dp1164
g2
S'http://www.reuters.com/article/2012/03/11/athletics-world-coe-idUSL4E8EB05320120311'
p1165
sg4
S'20120311\xc2\xa08:55AM UTC'
p1166
sg6
S'Athletics-Chambers should not compete in Olympics, says Coe'
p1167
sa(dp1168
g2
S'http://www.reuters.com/article/2012/03/11/us-israel-palestinians-idUSBRE82A03120120311'
p1169
sg4
S'20120311\xc2\xa08:51AM UTC'
p1170
sg6
S'Israeli strikes kill 3 Palestinians in Gaza'
p1171
sa(dp1172
g2
S'http://www.reuters.com/article/2012/03/11/russia-autos-idUSL5E8EB22B20120311'
p1173
sg4
S'20120311\xc2\xa08:48AM UTC'
p1174
sg6
S'Russian car sales rise 25 pct in February - AEB'
p1175
sa(dp1176
g2
S'http://www.reuters.com/article/2012/03/11/idUS48282+11-Mar-2012+MW20120311'
p1177
sg4
S'20120311\xc2\xa08:45AM UTC'
p1178
sg6
S' TopSecretIPO.com Pick of the Week: Sunpeaks Ventures Inc. (SNPK)'
p1179
sa(dp1180
g2
S'http://www.reuters.com/article/2012/03/11/idUS47101+11-Mar-2012+PRN20120311'
p1181
sg4
S'20120311\xc2\xa08:30AM UTC'
p1182
sg6
S'Following Is a Test Release'
p1183
sa(dp1184
g2
S'http://www.reuters.com/article/2012/03/11/us-yemen-bomb-idUSBRE82A04H20120311'
p1185
sg4
S'20120311\xc2\xa08:20AM UTC'
p1186
sg6
S'Two killed in Yemen bomb plot, Somali militants caught'
p1187
sa(dp1188
g2
S'http://www.reuters.com/article/2012/03/11/aldar-sorouh-idUSL5E8EB20R20120311'
p1189
sg4
S'20120311\xc2\xa08:20AM UTC'
p1190
sg6
S'UAE developers Aldar, Sorouh eye state-backed merger'
p1191
sa(dp1192
g2
S'http://www.reuters.com/article/2012/03/11/austria-finances-greece-idUSL5E8EB20720120311'
p1193
sg4
S'20120311\xc2\xa08:12AM UTC'
p1194
sg6
S'Austrian budget can handle extra Greek hit -Fekter'
p1195
sa(dp1196
g2
S'http://www.reuters.com/article/2012/03/11/idUS44940+11-Mar-2012+PRN20120311'
p1197
sg4
S'20120311\xc2\xa08:00AM UTC'
p1198
sg6
S'Following Is a Test Release'
p1199
sa(dp1200
g2
S'http://www.reuters.com/article/2012/03/11/bp-plaintiffs-idUSL2E8EB02J20120311'
p1201
sg4
S'20120311\xc2\xa07:59AM UTC'
p1202
sg6
S'FEATURE-Oil spill aftermath: A tale of three plaintiffs'
p1203
sa(dp1204
g2
S'http://www.reuters.com/article/2012/03/11/italy-industrminister-idUSL5E8EB1Z420120311'
p1205
sg4
S'20120311\xc2\xa07:39AM UTC'
p1206
sg6
S'Italy slams brakes on car incentives'
p1207
sa(dp1208
g2
S'http://www.reuters.com/article/2012/03/11/idUS42746+11-Mar-2012+PRN20120311'
p1209
sg4
S'20120311\xc2\xa07:30AM UTC'
p1210
sg6
S'Following Is a Test Release'
p1211
sa(dp1212
g2
S'http://www.reuters.com/article/2012/03/11/us-emirates-economy-idUSBRE82A05120120311'
p1213
sg4
S'20120311\xc2\xa07:11AM UTC'
p1214
sg6
S'UAE economy grew 3.3 percent in 2011, below forecasts'
p1215
sa(dp1216
g2
S'http://www.reuters.com/article/2012/03/11/us-skiing-zoricic-death-idUSBRE82A00F20120311'
p1217
sg4
S'20120311\xc2\xa07:07AM UTC'
p1218
sg6
S'Canadian skier killed in World Cup crash'
p1219
sa(dp1220
g2
S'http://www.reuters.com/article/2012/03/11/idUS40635+11-Mar-2012+GNW20120311'
p1221
sg4
S'20120311\xc2\xa07:00AM UTC'
p1222
sg6
S'Photo Release -- Kratos RT Logic Introduces the First Cyber Security Event Manager Designed for Satellite Networks'
p1223
sa(dp1224
g2
S'http://www.reuters.com/article/2012/03/11/idUS40625+11-Mar-2012+GNW20120311'
p1225
sg4
S'20120311\xc2\xa07:00AM UTC'
p1226
sg6
S'Photo Release -- Kratos RT Logic Introduces the First Cyber Security Event Manager Designed for Satellite Networks'
p1227
sa(dp1228
g2
S'http://www.reuters.com/article/2012/03/11/idUS40620+11-Mar-2012+PRN20120311'
p1229
sg4
S'20120311\xc2\xa07:00AM UTC'
p1230
sg6
S'Following Is a Test Release'
p1231
sa(dp1232
g2
S'http://www.reuters.com/article/2012/03/11/us-swatch-idUSBRE82A05520120311'
p1233
sg4
S'20120311\xc2\xa07:00AM UTC'
p1234
sg6
S'Swatch eyes double-digit growth in 2012: paper'
p1235
sa(dp1236
g2
S'http://www.reuters.com/article/2012/03/11/idUS40608+11-Mar-2012+PRN20120311'
p1237
sg4
S'20120311\xc2\xa07:00AM UTC'
p1238
sg6
S'One Year After Japanese Earthquake, Thousands of Animals Still Without Homes, While Others Roam Amid Rubble'
p1239
sa(dp1240
g2
S'http://www.reuters.com/article/2012/03/11/us-swiss-snb-danthine-idUSBRE82A04Z20120311'
p1241
sg4
S'20120311\xc2\xa06:43AM UTC'
p1242
sg6
S"Pressure mounts on SNB's Danthine over forex trade"
p1243
sa(dp1244
g2
S'http://www.reuters.com/article/2012/03/11/swatch-idUSL5E8EB1XX20120311'
p1245
sg4
S'20120311\xc2\xa06:38AM UTC'
p1246
sg6
S'Swatch eyes double-digit growth in 2012 -paper'
p1247
sa(dp1248
g2
S'http://www.reuters.com/article/2012/03/11/emirates-economy-idUSL5E8EB04720120311'
p1249
sg4
S'20120311\xc2\xa06:32AM UTC'
p1250
sg6
S"UPDATE 1-UAE economy grew 3.3 pct in 2011, below f'casts"
p1251
sa(dp1252
g2
S'http://www.reuters.com/article/2012/03/11/idUS38366+11-Mar-2012+PRN20120311'
p1253
sg4
S'20120311\xc2\xa06:30AM UTC'
p1254
sg6
S'Following Is a Test Release'
p1255
sa(dp1256
g2
S'http://www.reuters.com/article/2012/03/11/us-greece-schaeuble-idUSBRE82A04520120311'
p1257
sg4
S'20120311\xc2\xa06:19AM UTC'
p1258
sg6
S"Germany's Schaeuble confident on Greece"
p1259
sa(dp1260
g2
S'http://www.reuters.com/article/2012/03/11/saudi-inflation-idUSL5E8EB06520120311'
p1261
sg4
S'20120311\xc2\xa06:15AM UTC'
p1262
sg6
S'Saudi inflation at 14-mth high on food, housing'
p1263
sa(dp1264
g2
S'http://www.reuters.com/article/2012/03/11/us-bangladesh-import-idUSBRE82A04N20120311'
p1265
sg4
S'20120311\xc2\xa06:13AM UTC'
p1266
sg6
S'Bangladesh imports decline by 13 percent: central bank'
p1267
sa(dp1268
g2
S'http://www.reuters.com/article/2012/03/11/idUS36120+11-Mar-2012+PRN20120311'
p1269
sg4
S'20120311\xc2\xa06:00AM UTC'
p1270
sg6
S'Following Is a Test Release'
p1271
sa(dp1272
g2
S'http://www.reuters.com/article/2012/03/11/idUS36102+11-Mar-2012+PRN20120311'
p1273
sg4
S'20120311\xc2\xa06:00AM UTC'
p1274
sg6
S"Michigan's Largest Furniture Retailer Donates $1 Million to Focus: HOPE"
p1275
sa(dp1276
g2
S'http://www.reuters.com/article/2012/03/11/idUS36079+11-Mar-2012+MW20120311'
p1277
sg4
S'20120311\xc2\xa06:00AM UTC'
p1278
sg6
S' Medify Selected as Finalist for SXSW Accelerator Competition'
p1279
sa(dp1280
g2
S'http://www.reuters.com/article/2012/03/11/idUS36032+11-Mar-2012+PRN20120311'
p1281
sg4
S'20120311\xc2\xa05:59AM UTC'
p1282
sg6
S'GOOD MORNING'
p1283
sa(dp1284
g2
S'http://www.reuters.com/article/2012/03/11/india-jet-idUSL4E8EB03L20120311'
p1285
sg4
S'20120311\xc2\xa05:56AM UTC'
p1286
sg6
S'Jet Airways says to clear tax debt by Monday'
p1287
sa(dp1288
g2
S'http://www.reuters.com/article/2012/03/11/us-home-alone-house-idUSBRE82A04E20120311'
p1289
sg4
S'20120311\xc2\xa05:50AM UTC'
p1290
sg6
S"Chicago-area house featured in 'Home Alone' movies sold"
p1291
sa(dp1292
g2
S'http://www.reuters.com/article/2012/03/11/us-pakistan-blast-idUSBRE82A03S20120311'
p1293
sg4
S'20120311\xc2\xa05:39AM UTC'
p1294
sg6
S'Blast at funeral in Pakistan kills 13'
p1295
sa(dp1296
g2
S'http://www.reuters.com/article/2012/03/11/idUS34121+11-Mar-2012+PRN20120311'
p1297
sg4
S'20120311\xc2\xa05:30AM UTC'
p1298
sg6
S'Following Is a Test Release'
p1299
sa(dp1300
g2
S'http://www.reuters.com/article/2012/03/11/idUS32141+11-Mar-2012+PRN20120311'
p1301
sg4
S'20120311\xc2\xa05:00AM UTC'
p1302
sg6
S'Following Is a Test Release'
p1303
sa(dp1304
g2
S'http://www.reuters.com/article/2012/03/11/idUS32131+11-Mar-2012+PRN20120311'
p1305
sg4
S'20120311\xc2\xa05:00AM UTC'
p1306
sg6
S'Sihuan Pharmaceutical Achieves Important R&D; Breakthrough'
p1307
sa(dp1308
g2
S'http://www.reuters.com/article/2012/03/11/idUS31217+11-Mar-2012+PRN20120311'
p1309
sg4
S'20120311\xc2\xa04:47AM UTC'
p1310
sg6
S'Following Is a Test Release'
p1311
sa(dp1312
g2
S'http://www.reuters.com/article/2012/03/11/us-emirates-economy-idUSBRE82A04020120311'
p1313
sg4
S'20120311\xc2\xa04:42AM UTC'
p1314
sg6
S'UAE economy grew 3.3 pct in 2011 - Econ Min'
p1315
sa(dp1316
g2
S'http://www.reuters.com/article/2012/03/11/us-kenya-blast-idUSBRE82A03W20120311'
p1317
sg4
S'20120311\xc2\xa04:01AM UTC'
p1318
sg6
S'Nairobi bus station blast toll rises to five: Red Cross'
p1319
sa(dp1320
g2
S'http://www.reuters.com/article/2012/03/11/domodedovo-loan-idUSL5E8EB03R20120311'
p1321
sg4
S'20120311\xc2\xa03:58AM UTC'
p1322
sg6
S"Russia's Domodedovo airport secures 165 mln euro loan"
p1323
sa(dp1324
g2
S'http://www.reuters.com/article/2012/03/11/tennis-women-indian-results-idUSISS15722620120311'
p1325
sg4
S'20120311\xc2\xa03:55AM UTC'
p1326
sg6
S"UPDATE 3-Tennis-Indian Wells women's singles round 2 results"
p1327
sa(dp1328
g2
S'http://www.reuters.com/article/2012/03/11/idUS24382+11-Mar-2012+PRN20120311'
p1329
sg4
S'20120311\xc2\xa03:51AM UTC'
p1330
sg6
S'Makhteshim Agan Announces Fourth Quarter and Full Year 2011 Financial Results'
p1331
sa(dp1332
g2
S'http://www.reuters.com/article/2012/03/11/us-tennis-indian-women-idUSBRE82A01Q20120311'
p1333
sg4
S'20120311\xc2\xa03:43AM UTC'
p1334
sg6
S'Wozniacki and Sharapova in cruise control'
p1335
sa(dp1336
g2
S'http://www.reuters.com/article/2012/03/11/us-china-economy-inflation-idUSBRE82A02S20120311'
p1337
sg4
S'20120311\xc2\xa03:31AM UTC'
p1338
sg6
S'China sacrifices growth to satiate inflation dragon'
p1339
sa(dp1340
g2
S'http://www.reuters.com/article/2012/03/11/idUS21574+11-Mar-2012+PRN20120311'
p1341
sg4
S'20120311\xc2\xa03:30AM UTC'
p1342
sg6
S'Following Is a Test Release'
p1343
sa(dp1344
g2
S'http://www.reuters.com/article/2012/03/11/us-tennis-indian-men-murray-idUSBRE82A03A20120311'
p1345
sg4
S'20120311\xc2\xa03:28AM UTC'
p1346
sg6
S'Dejected Murray tumbles out of Indian Wells'
p1347
sa(dp1348
g2
S'http://www.reuters.com/article/2012/03/11/us-emirates-hotels-idUSBRE82A03F20120311'
p1349
sg4
S'20120311\xc2\xa03:24AM UTC'
p1350
sg6
S'Abu Dhabi freezes new hotel licenses: paper'
p1351
sa(dp1352
g2
S'http://www.reuters.com/article/2012/03/11/emirates-economy-idUSD5E7K601K20120311'
p1353
sg4
S'20120311\xc2\xa03:23AM UTC'
p1354
sg6
S'UAE economy grew 3.3 pct in 2011 - Econ Min'
p1355
sa(dp1356
g2
S'http://www.reuters.com/article/2012/03/11/idUS20059+11-Mar-2012+PRN20120311'
p1357
sg4
S'20120311\xc2\xa03:16AM UTC'
p1358
sg6
S'Test for CNW Group Ltd.'
p1359
sa(dp1360
g2
S'http://www.reuters.com/article/2012/03/11/emirates-hotels-idUSL5E8EB03120120311'
p1361
sg4
S'20120311\xc2\xa03:06AM UTC'
p1362
sg6
S'Abu Dhabi freezes new hotel licenses - paper'
p1363
sa(dp1364
g2
S'http://www.reuters.com/article/2012/03/11/press-digest-russia-march-idUSL5E8EB03920120311'
p1365
sg4
S'20120311\xc2\xa03:02AM UTC'
p1366
sg6
S'PRESS DIGEST - Russia - March 11'
p1367
sa(dp1368
g2
S'http://www.reuters.com/article/2012/03/11/idUS18740+11-Mar-2012+PRN20120311'
p1369
sg4
S'20120311\xc2\xa03:00AM UTC'
p1370
sg6
S'Following Is a Test Release'
p1371
sa(dp1372
g2
S'http://www.reuters.com/article/2012/03/11/phoenixtv-boc-idUSL4E8EB02X20120311'
p1373
sg4
S'20120311\xc2\xa01:54AM UTC'
p1374
sg6
S'Bank of China to boost support for Phoenix TV -Xinhua'
p1375
sa(dp1376
g2
S'http://www.reuters.com/article/2012/03/11/us-slovakia-election-idUSBRE82A03820120311'
p1377
sg4
S'20120311\xc2\xa01:37AM UTC'
p1378
sg6
S'Slovak leftist Fico sweeps to election victory'
p1379
sa(dp1380
g2
S'http://www.reuters.com/article/2012/03/11/idUS18088+11-Mar-2012+PRN20120311'
p1381
sg4
S'20120311\xc2\xa01:30AM UTC'
p1382
sg6
S'Following Is a Test Release'
p1383
sa(dp1384
g2
S'http://www.reuters.com/article/2012/03/11/us-india-gandhi-idUSBRE82A03520120311'
p1385
sg4
S'20120311\xc2\xa01:20AM UTC'
p1386
sg6
S"Insight: In India, a dynasty's tryst with decline"
p1387
sa(dp1388
g2
S'http://www.reuters.com/article/2012/03/11/kazakhstan-indicators-idUSL5E8EB03020120311'
p1389
sg4
S'20120311\xc2\xa01:18AM UTC'
p1390
sg6
S'INDICATORS - Kazakhstan - March 11'
p1391
sa(dp1392
g2
S'http://www.reuters.com/article/2012/03/11/kazakhstan-ratings-idUSL5E8EB02Y20120311'
p1393
sg4
S'20120311\xc2\xa01:12AM UTC'
p1394
sg6
S'TABLE-Long-term credit ratings for Kazakhstan banks'
p1395
sa(dp1396
g2
S'http://www.reuters.com/article/2012/03/11/idUS17420+11-Mar-2012+PRN20120311'
p1397
sg4
S'20120311\xc2\xa01:00AM UTC'
p1398
sg6
S'Following Is a Test Release'
p1399
sa(dp1400
g2
S'http://www.reuters.com/article/2012/03/11/idUS17411+11-Mar-2012+PRN20120311'
p1401
sg4
S'20120311\xc2\xa01:00AM UTC'
p1402
sg6
S"Dickey's Barbecue Is Turning Up The Heat In Texas"
p1403
sa(dp1404
g2
S'http://www.reuters.com/article/2012/03/11/us-coastguard-fishing-search-idUSBRE82A02M20120311'
p1405
sg4
S'20120311\xc2\xa012:41AM UTC'
p1406
sg6
S'Coast Guard searches for 4 missing off Washington coast'
p1407
sa(dp1408
g2
S'http://www.reuters.com/article/2012/03/11/us-campaign-congress-inslee-idUSBRE82A02K20120311'
p1409
sg4
S'20120311\xc2\xa012:40AM UTC'
p1410
sg6
S'Congressman Inslee to step down and focus on run for governor'
p1411
sa(dp1412
g2
S'http://www.reuters.com/article/2012/03/11/entertainment-us-michaelmadsen-arrest-idUSBRE82A02E20120311'
p1413
sg4
S'20120311\xc2\xa012:38AM UTC'
p1414
sg6
S'Actor Michael Madsen arrested after alleged fight with son'
p1415
sa(dp1416
g2
S'http://www.reuters.com/article/2012/03/11/idUS16876+11-Mar-2012+PRN20120311'
p1417
sg4
S'20120311\xc2\xa012:30AM UTC'
p1418
sg6
S'Following Is a Test Release'
p1419
sa(dp1420
g2
S'http://www.reuters.com/article/2012/03/11/slovakia-election-count-idUSP7E7ME01620120311'
p1421
sg4
S'20120311\xc2\xa012:28AM UTC'
p1422
sg6
S'Slovak leftist claims victory, pledges fiscal consolidation'
p1423
sa(dp1424
g2
S'http://www.reuters.com/article/2012/03/11/idUS16187+11-Mar-2012+PRN20120311'
p1425
sg4
S'20120311\xc2\xa012:01AM UTC'
p1426
sg6
S'U.S. Census Bureau Daily Feature for March 11'
p1427
sa(dp1428
g2
S'http://www.reuters.com/article/2012/03/11/idUS16154+11-Mar-2012+PRN20120311'
p1429
sg4
S'20120311\xc2\xa012:00AM UTC'
p1430
sg6
S'Following Is a Test Release'
p1431
sa(dp1432
g2
S'http://www.reuters.com/news/video/videoStory?storyID=34812303'
p1433
sg4
S'20120311\xc2\xa011:45PM UTC'
p1434
sg6
S'Faux Bordeaux stirs China wine market'
p1435
sa(dp1436
g2
S'http://www.reuters.com/news/video/videoStory?storyID=34811712'
p1437
sg4
S'20120311\xc2\xa011:28PM UTC'
p1438
sg6
S'South by Southwest: Is CNN buying Mashable? - Felix TV'
p1439
sa(dp1440
g2
S'http://www.reuters.com/news/video/videoStory?storyID=34811646'
p1441
sg4
S'20120311\xc2\xa011:27PM UTC'
p1442
sg6
S'2\xe6\x9c\x88\xe3\x81\xae\xe7\xb1\xb3\xe9\x9b\x87\xe7\x94\xa8\xe7\xb5\xb1\xe8\xa8\x88\xe3\x80\x81\xe5\xb0\xb1\xe6\xa5\xad\xe8\x80\x85\xe6\x95\xb0\xe3\x81\x8c20\xe4\xb8\x87\xe4\xba\xba\xe8\xb6\x85\xe3\x81\x99\xef\xbc\x88\xe5\xad\x97\xe5\xb9\x95\xe3\x83\xbb10\xe6\x97\xa5\xef\xbc\x89'
p1443
sa(dp1444
g2
S'http://www.reuters.com/news/video/videoStory?storyID=34812125'
p1445
sg4
S'20120311\xc2\xa011:27PM UTC'
p1446
sg6
S'Tsunami candlelight commemorations'
p1447
sa(dp1448
g2
S'http://www.reuters.com/news/video/videoStory?storyID=34810562'
p1449
sg4
S'20120311\xc2\xa010:39PM UTC'
p1450
sg6
S'\xe3\x82\xa2\xe3\x83\x95\xe3\x82\xac\xe3\x83\xb3\xe9\xa7\x90\xe7\x95\x99\xe3\x81\xae\xe7\xb1\xb3\xe5\x85\xb5\xe3\x81\x8c\xe6\xb0\x91\xe9\x96\x93\xe4\xba\xba16\xe4\xba\xba\xe3\x82\x92\xe6\xae\xba\xe5\xae\xb3\xef\xbc\x88\xe5\xad\x97\xe5\xb9\x95\xe3\x83\xbb12\xe6\x97\xa5\xef\xbc\x89'
p1451
sa(dp1452
g2
S'http://www.reuters.com/news/video/videoStory?storyID=34809972'
p1453
sg4
S'20120311\xc2\xa010:19PM UTC'
p1454
sg6
S'\xe3\x83\x90\xe3\x83\xb3\xe3\x82\xb3\xe3\x82\xaf\xe3\x81\xa7\xe3\x83\x9b\xe3\x83\x86\xe3\x83\xab\xe7\x81\xab\xe7\x81\xbd\xe3\x80\x81\xe5\xa5\xb3\xe6\x80\xa7\xe5\xae\xbf\xe6\xb3\x8a\xe5\xae\xa21\xe4\xba\xba\xe3\x81\x8c\xe6\xad\xbb\xe4\xba\xa1\xef\xbc\x88\xe5\xad\x97\xe5\xb9\x95\xe3\x83\xbb8\xe6\x97\xa5\xef\xbc\x89'
p1455
sa(dp1456
g2
S'http://www.reuters.com/news/video/videoStory?storyID=34809825'
p1457
sg4
S'20120311\xc2\xa010:13PM UTC'
p1458
sg6
S'South by Southwest buzz: Is Glancee better than Highlight? - Rough Cuts'
p1459
sa(dp1460
g2
S'http://www.reuters.com/news/video/videoStory?storyID=34809793'
p1461
sg4
S'20120311\xc2\xa010:12PM UTC'
p1462
sg6
S'\xe4\xb8\xad\xe5\x9b\xbd\xe4\xbc\x81\xe6\xa5\xad\xe3\x81\x8c\xe3\x82\xab\xe3\x83\xb3\xe3\x83\x9c\xe3\x82\xb8\xe3\x82\xa2\xe3\x81\xa7\xe4\xbd\x8f\xe6\xb0\x91\xe3\x81\xab\xe7\xab\x8b\xe3\x81\xa1\xe9\x80\x80\xe3\x81\x8d\xe3\x82\x92\xe5\xbc\xb7\xe5\x88\xb6\xef\xbc\x88\xe5\xad\x97\xe5\xb9\x95\xe3\x83\xbb7\xe6\x97\xa5\xef\xbc\x89'
p1463
sa(dp1464
g2
S'http://www.reuters.com/news/video/videoStory?storyID=34809881'
p1465
sg4
S'20120311\xc2\xa010:04PM UTC'
p1466
sg6
S'Church bombed in Nigerian town of Jos'
p1467
sa(dp1468
g2
S'http://www.reuters.com/news/video/videoStory?storyID=34809511'
p1469
sg4
S'20120311\xc2\xa010:01PM UTC'
p1470
sg6
S'\xe3\x82\xae\xe3\x83\xaa\xe3\x82\xb7\xe3\x83\xa3\xe5\x82\xb5\xe5\x8b\x99\xe5\x89\x8a\xe6\xb8\x9b\xe3\x81\xa7\xe5\x90\x88\xe6\x84\x8f\xe3\x80\x81\xe3\x81\xb2\xe3\x81\xa8\xe3\x81\xbe\xe3\x81\x9a\xe3\x81\xaf\xe5\x8d\xb1\xe6\xa9\x9f\xe5\x9b\x9e\xe9\x81\xbf\xef\xbc\x88\xe5\xad\x97\xe5\xb9\x95\xe3\x83\xbb10\xe6\x97\xa5\xef\xbc\x89'
p1471
sa(dp1472
g2
S'http://www.reuters.com/news/video/videoStory?storyID=34809364'
p1473
sg4
S'20120311\xc2\xa09:58PM UTC'
p1474
sg6
S'\xe6\x9d\xb1\xe6\x97\xa5\xe6\x9c\xac\xe5\xa4\xa7\xe9\x9c\x87\xe7\x81\xbd\xe3\x81\x8b\xe3\x82\x891\xe5\xb9\xb4\xe3\x80\x81\xe4\xb8\x96\xe7\x95\x8c\xe4\xb8\xad\xe3\x81\xa7\xe7\x8a\xa0\xe7\x89\xb2\xe8\x80\x85\xe3\x82\x92\xe8\xbf\xbd\xe6\x82\xbc\xe3\x81\x99\xe3\x82\x8b\xe5\xbc\x8f\xe5\x85\xb8\xef\xbc\x88\xe5\xad\x97\xe5\xb9\x95\xe3\x83\xbb11\xe6\x97\xa5\xef\xbc\x89'
p1475
sa(dp1476
g2
S'http://www.reuters.com/news/video/videoStory?storyID=34809325'
p1477
sg4
S'20120311\xc2\xa09:51PM UTC'
p1478
sg6
S'Peru fire leaves hundreds homeless'
p1479
sa(dp1480
g2
S'http://www.reuters.com/news/video/videoStory?storyID=34809064'
p1481
sg4
S'20120311\xc2\xa09:51PM UTC'
p1482
sg6
S'South by Southwest: Ask Ziggy takes on iPhone\xe2\x80\x99s Siri - Rough Cuts'
p1483
sa(dp1484
g2
S'http://www.reuters.com/news/video/videoStory?storyID=34808660'
p1485
sg4
S'20120311\xc2\xa09:10PM UTC'
p1486
sg6
S'Obama calls Karzai after Afghanistan attack'
p1487
sa(dp1488
g2
S'http://www.reuters.com/news/video/videoStory?storyID=34832046'
p1489
sg4
S'20120311\xc2\xa08:38PM UTC'
p1490
sg6
S'Witnesses testify at Patek trial'
p1491
sa(dp1492
g2
S'http://www.reuters.com/news/video/videoStory?storyID=34830324'
p1493
sg4
S'20120311\xc2\xa08:18PM UTC'
p1494
sg6
S'Workers killed in Istanbul inferno'
p1495
sa(dp1496
g2
S'http://www.reuters.com/news/video/videoStory?storyID=34829851'
p1497
sg4
S'20120311\xc2\xa08:10PM UTC'
p1498
sg6
S'Marie Colvin memorial in Long Island'
p1499
sa(dp1500
g2
S'http://www.reuters.com/news/video/videoStory?storyID=34827851'
p1501
sg4
S'20120311\xc2\xa08:00PM UTC'
p1502
sg6
S'Market Pulse: Rates outlook buoys Dollar'
p1503
sa(dp1504
g2
S'http://www.reuters.com/news/video/videoStory?storyID=34805680'
p1505
sg4
S'20120311\xc2\xa05:47PM UTC'
p1506
sg6
S'Sixteen civilians killed in southern Afghanistan'
p1507
sa(dp1508
g2
S'http://www.reuters.com/news/video/videoStory?storyID=34804845'
p1509
sg4
S'20120311\xc2\xa04:55PM UTC'
p1510
sg6
S'Dr. Seuss still on the loose at the box office'
p1511
sa(dp1512
g2
S'http://www.reuters.com/news/video/videoStory?storyID=34798947'
p1513
sg4
S'20120311\xc2\xa011:50AM UTC'
p1514
sg6
S'Israel bombs suspected Gaza weapons factory'
p1515
sa(dp1516
g2
S'http://www.reuters.com/news/video/videoStory?storyID=34798957'
p1517
sg4
S'20120311\xc2\xa011:47AM UTC'
p1518
sg6
S'Amateur video shows Homs shelling'
p1519
sa(dp1520
g2
S'http://www.reuters.com/news/video/videoStory?storyID=34798191'
p1521
sg4
S'20120311\xc2\xa011:39AM UTC'
p1522
sg6
S'Violent clashes erupt in Bahrain'
p1523
sa(dp1524
g2
S'http://www.reuters.com/news/video/videoStory?storyID=34798186'
p1525
sg4
S'20120311\xc2\xa011:39AM UTC'
p1526
sg6
S'Exiled Tibetans protest in northern India'
p1527
sa(dp1528
g2
S'http://www.reuters.com/news/video/videoStory?storyID=34796013'
p1529
sg4
S'20120311\xc2\xa010:48AM UTC'
p1530
sg6
S'Reprisals feared after civilians are killed in Afghanistan'
p1531
sa(dp1532
g2
S'http://www.reuters.com/news/video/videoStory?storyID=34795531'
p1533
sg4
S'20120311\xc2\xa010:11AM UTC'
p1534
sg6
S'Jury still out on London street experiment'
p1535
sa(dp1536
g2
S'http://www.reuters.com/news/video/videoStory?storyID=34793943'
p1537
sg4
S'20120311\xc2\xa09:09AM UTC'
p1538
sg6
S"World remembers Japan's double disaster"
p1539
sa(dp1540
g2
S'http://www.reuters.com/news/video/videoStory?storyID=34791963'
p1541
sg4
S'20120311\xc2\xa07:34AM UTC'
p1542
sg6
S'Blast hits Pakistan funeral'
p1543
sa.