(lp0
(dp1
S'href'
p2
S'http://www.reuters.com/article/2013/05/19/entertainment-us-usa-beatles-auction-idUSBRE94I00Y20130519'
p3
sS'ts'
p4
S'20130518\xc2\xa011:33PM UTC'
p5
sS'title'
p6
S"Beatles' guitar auctioned to the tune of $408,000"
p7
sa(dp8
g2
S'http://www.reuters.com/article/2013/05/19/al-flw-haynes-leads-idUSnPNCL16783+1e0+PRN20130519'
p9
sg4
S'20130518\xc2\xa010:02PM UTC'
p10
sg6
S'Haynes Leads Walmart FLW Tour at Lake Eufaula Presented by Straight Talk Wireless'
p11
sa(dp12
g2
S'http://www.reuters.com/article/2013/05/19/us-horseracing-preakness-factbox-idUSBRE94I00T20130519'
p13
sg4
S'20130518\xc2\xa09:30PM UTC'
p14
sg6
S'Factbox: Horseracing-2013 Preakness Stakes winner Oxbow'
p15
sa(dp16
g2
S'http://www.reuters.com/article/2013/05/19/us-usa-train-accident-idUSBRE94G0ZT20130519'
p17
sg4
S'20130518\xc2\xa09:29PM UTC'
p18
sg6
S'Investigators examine fractured rail in Connecticut train crash'
p19
sa(dp20
g2
S'http://www.reuters.com/article/2013/05/19/usa-train-accident-idUSL2N0DZ0BL20130519'
p21
sg4
S'20130518\xc2\xa09:28PM UTC'
p22
sg6
S'UPDATE 2-Investigators examine fractured rail in Connecticut train crash'
p23
sa(dp24
g2
S'http://www.reuters.com/article/2013/05/19/us-horse-racing-preakness-mcgaughey-idUSBRE94I00M20130519'
p25
sg4
S'20130518\xc2\xa09:17PM UTC'
p26
sg6
S"McGaughey says it just wasn't Orb's day"
p27
sa(dp28
g2
S'http://www.reuters.com/article/2013/05/19/us-motor-racing-indy-pole-idUSBRE94I00K20130519'
p29
sg4
S'20130518\xc2\xa09:08PM UTC'
p30
sg6
S'Carpenter slays IndyCar giants to win 500 pole'
p31
sa(dp32
g2
S'http://www.reuters.com/article/2013/05/19/entertainment-us-eurovision-idUSBRE94H0BU20130519'
p33
sg4
S'20130518\xc2\xa09:01PM UTC'
p34
sg6
S"Denmark wins Eurovision on ABBA's turf with folksy ballad"
p35
sa(dp36
g2
S'http://www.reuters.com/article/2013/05/19/us-mexico-malcolmx-idUSBRE94I00C20130519'
p37
sg4
S'20130518\xc2\xa08:58PM UTC'
p38
sg6
S'Two men charged with killing Malcolm X grandson'
p39
sa(dp40
g2
S'http://www.reuters.com/article/2013/05/19/us-usa-election-losangeles-idUSBRE94I00720130519'
p41
sg4
S'20130518\xc2\xa08:38PM UTC'
p42
sg6
S'Los Angeles mayoral race narrows, latest opinion poll shows'
p43
sa(dp44
g2
S'http://www.reuters.com/article/2013/05/19/us-suntech-shi-specialreport-idUSBRE94I00220130519'
p45
sg4
S'20130518\xc2\xa08:35PM UTC'
p46
sg6
S"Special Report: The Rise and Fall of China's Sun King"
p47
sa(dp48
g2
S'http://www.reuters.com/article/2013/05/18/us-eurovision-idUSBRE94H0BU20130518'
p49
sg4
S'20130518\xc2\xa07:59PM UTC'
p50
sg6
S"Denmark's folksy ballad wins Eurovision"
p51
sa(dp52
g2
S'http://www.reuters.com/article/2013/05/18/us-golf-pga-idUSBRE94H0D620130518'
p53
sg4
S'20130518\xc2\xa07:44PM UTC'
p54
sg6
S'Bradley remains in charge despite late bogey'
p55
sa(dp56
g2
S'http://www.reuters.com/article/2013/05/18/us-pakistan-elections-killing-idUSBRE94H0DP20130518'
p57
sg4
S'20130518\xc2\xa07:34PM UTC'
p58
sg6
S'Gunmen kill senior woman member of Pakistani party led by Imran Khan'
p59
sa(dp60
g2
S'http://www.reuters.com/article/2013/05/18/prntest-idUSnPNHSTEST1+1fe+PRN20130518'
p61
sg4
S'20130518\xc2\xa07:30PM UTC'
p62
sg6
S'Following Is a Test Release'
p63
sa(dp64
g2
S'http://www.reuters.com/article/2013/05/18/us-usa-carcrash-virginia-idUSBRE94H0DL20130518'
p65
sg4
S'20130518\xc2\xa07:15PM UTC'
p66
sg6
S'Dozens injured as car plows through parade in Virginia'
p67
sa(dp68
g2
S'http://www.reuters.com/article/2013/05/18/us-horseracing-preakness-idUSBRE94H0DN20130518'
p69
sg4
S'20130518\xc2\xa07:15PM UTC'
p70
sg6
S'Oxbow wins the Preakness Stakes, Orb fourth'
p71
sa(dp72
g2
S'http://www.reuters.com/article/2013/05/18/usa-carcrash-virginia-idUSL2N0DZ0GX20130518'
p73
sg4
S'20130518\xc2\xa07:14PM UTC'
p74
sg6
S'UPDATE 1-Dozens injured as car plows through parade in Virginia'
p75
sa(dp76
g2
S'http://www.reuters.com/article/2013/05/18/entertainment-us-eurovision-results-idUSBRE94H0DJ20130518'
p77
sg4
S'20130518\xc2\xa06:40PM UTC'
p78
sg6
S"Denmark's Emmelie de Forest wins Eurovision Song Contest"
p79
sa(dp80
g2
S'http://www.reuters.com/article/2013/05/18/us-tennis-rome-idUSBRE94G0L120130518'
p81
sg4
S'20130518\xc2\xa06:38PM UTC'
p82
sg6
S'Nadal to meet Federer in Rome final, Serena rolls on'
p83
sa(dp84
g2
S'http://www.reuters.com/article/2013/05/18/us-usa-lottery-idUSBRE94G0ZY20130518'
p85
sg4
S'20130518\xc2\xa06:37PM UTC'
p86
sg6
S'Powerball jackpot could go higher than $600 million'
p87
sa(dp88
g2
S'http://www.reuters.com/article/2013/05/18/usa-lottery-idUSL2N0DZ0CB20130518'
p89
sg4
S'20130518\xc2\xa06:35PM UTC'
p90
sg6
S'UPDATE 2-U.S. Powerball jackpot could go higher than $600 million'
p91
sa(dp92
g2
S'http://www.reuters.com/article/2013/05/18/britain-king-lending-idUSL6N0DZ0NJ20130518'
p93
sg4
S'20130518\xc2\xa06:29PM UTC'
p94
sg6
S'BoE governor King warns of risks in UK mortgage scheme'
p95
sa(dp96
g2
S'http://www.reuters.com/article/2013/05/18/us-nhl-sharks-fine-idUSBRE94H0D820130518'
p97
sg4
S'20130518\xc2\xa06:25PM UTC'
p98
sg6
S'Sharks fined $100,000 for comments on Torres suspension'
p99
sa(dp100
g2
S'http://www.reuters.com/article/2013/05/18/us-centralafrica-rebels-idUSBRE94H0D420130518'
p101
sg4
S'20130518\xc2\xa06:16PM UTC'
p102
sg6
S'Regional force boosts troop numbers in Central African Republic'
p103
sa(dp104
g2
S'http://www.reuters.com/article/2013/05/18/us-syria-assad-idUSBRE94H0D220130518'
p105
sg4
S'20130518\xc2\xa06:13PM UTC'
p106
sg6
S"Syria's Assad: Little chance peace talks would succeed - newspaper"
p107
sa(dp108
g2
S'http://www.reuters.com/article/2013/05/18/us-usa-politics-virginia-idUSBRE94H0CY20130518'
p109
sg4
S'20130518\xc2\xa06:08PM UTC'
p110
sg6
S"Republican cites IRS scandal in close Virginia governor's race"
p111
sa(dp112
g2
S'http://www.reuters.com/article/2013/05/18/ma-bentley-univ-idUSnPNDC16774+1e0+PRN20130518'
p113
sg4
S'20130518\xc2\xa06:03PM UTC'
p114
sg6
S"Life is good Co-founders and CEO of Sovereign Bank Spread Optimism, Hope and Inspiration at Bentley University's Commencement Ceremonies"
p115
sa(dp116
g2
S'http://www.reuters.com/article/2013/05/18/bc-mara-online-launch-idUSnPN172699B+181+PRN20130518'
p117
sg4
S'20130518\xc2\xa06:00PM UTC'
p118
sg6
S'Serial Entrepreneur Ashish J. Thakkar Introduces Mara Online - a Unique set of Social Portals for Connecting Africa Globally'
p119
sa(dp120
g2
S'http://www.reuters.com/article/2013/05/18/usa-politics-virginia-idUSL2N0DZ0EV20130518'
p121
sg4
S'20130518\xc2\xa05:57PM UTC'
p122
sg6
S"Republican cites IRS scandal in close Virginia governor's race"
p123
sa(dp124
g2
S'http://www.reuters.com/article/2013/05/18/us-usa-pakistan-investment-idUSBRE94H0CP20130518'
p125
sg4
S'20130518\xc2\xa05:49PM UTC'
p126
sg6
S'U.S. state cancels subsidy for investment from Pakistani company'
p127
sa(dp128
g2
S'http://www.reuters.com/article/2013/05/18/usa-pakistan-investment-idUSL2N0DZ03O20130518'
p129
sg4
S'20130518\xc2\xa05:48PM UTC'
p130
sg6
S'U.S. state cancels subsidy for investment from Pakistani company'
p131
sa(dp132
g2
S'http://www.reuters.com/article/2013/05/18/us-saudi-coronavirus-idUSBRE94H0CN20130518'
p133
sg4
S'20130518\xc2\xa05:43PM UTC'
p134
sg6
S'Saudi Arabia has another case of new coronavirus: WHO'
p135
sa(dp136
g2
S'http://www.reuters.com/article/2013/05/18/health-saudi-coronavirus-idUSL6N0DZ0M520130518'
p137
sg4
S'20130518\xc2\xa05:34PM UTC'
p138
sg6
S'Saudi Arabia has another case of new coronavirus - WHO'
p139
sa(dp140
g2
S'http://www.reuters.com/article/2013/05/18/us-ice-hockey-world-idUSBRE94H0C720130518'
p141
sg4
S'20130518\xc2\xa05:25PM UTC'
p142
sg6
S'Swiss fairytale continues as they set up Sweden final'
p143
sa(dp144
g2
S'http://www.reuters.com/article/2013/05/18/us-pope-personal-idUSBRE94H0CL20130518'
p145
sg4
S'20130518\xc2\xa05:16PM UTC'
p146
sg6
S'Church must help the poorest, not dissect theology, pope says'
p147
sa(dp148
g2
S'http://www.reuters.com/article/2013/05/18/idUS179607979320130518'
p149
sg4
S'20130518\xc2\xa05:01PM UTC'
p150
sg6
S'How technology redefines norms'
p151
sa(dp152
g2
S'http://www.reuters.com/article/2013/05/18/mn-unitedhealthcare-idUSnBw185025a+100+BSW20130518'
p153
sg4
S'20130518\xc2\xa04:37PM UTC'
p154
sg6
S'UnitedHealthcare IRONKIDS Florida Energizes Youth About Healthy Living Through \xe2\x80\x9cIRONMAN\xe2\x80\x9d Races'
p155
sa(dp156
g2
S'http://www.reuters.com/article/2013/05/18/ca-la-education-arts-idUSnPNDC16726+1e0+PRN20130518'
p157
sg4
S'20130518\xc2\xa04:30PM UTC'
p158
sg6
S'Los Angeles County High School for the Arts Cuts Ribbon on $31 Million Facility'
p159
sa(dp160
g2
S'http://www.reuters.com/article/2013/05/18/us-usa-bp-texas-lawsuit-idUSBRE94H0CE20130518'
p161
sg4
S'20130518\xc2\xa04:27PM UTC'
p162
sg6
S'Texas joins flood of states suing BP over 2010 Gulf spill'
p163
sa(dp164
g2
S'http://www.reuters.com/article/2013/05/18/versace-qatar-idUSL6N0DZ0KD20130518'
p165
sg4
S'20130518\xc2\xa04:24PM UTC'
p166
sg6
S'Qatar Holding, Italy fund eying Versace - paper'
p167
sa(dp168
g2
S'http://www.reuters.com/article/2013/05/18/us-nhl-playoffs-blackhawks-idUSBRE94H0CB20130518'
p169
sg4
S'20130518\xc2\xa04:21PM UTC'
p170
sg6
S'Red Wings rally past Blackhawks to level series'
p171
sa(dp172
g2
S'http://www.reuters.com/article/2013/05/18/usa-bp-texas-lawsuit-idUSL2N0DZ0E720130518'
p173
sg4
S'20130518\xc2\xa04:19PM UTC'
p174
sg6
S'Texas joins flood of states suing BP over 2010 Gulf spill'
p175
sa(dp176
g2
S'http://www.reuters.com/article/2013/05/18/ca-autodesk-idUSnBw185006a+100+BSW20130518'
p177
sg4
S'20130518\xc2\xa04:00PM UTC'
p178
sg6
S'Autodesk to Acquire Tinkercad, Easy-to-Use Web-Based 3D Design Software'
p179
sa(dp180
g2
S'http://www.reuters.com/article/2013/05/18/mixmoov-idUSnBw185023a+100+BSW20130518'
p181
sg4
S'20130518\xc2\xa03:41PM UTC'
p182
sg6
S'Mixmoov technology powers web video application promoting Eurovision'
p183
sa(dp184
g2
S'http://www.reuters.com/article/2013/05/18/us-eurovision-contest-idUSBRE94H0C020130518'
p185
sg4
S'20130518\xc2\xa03:30PM UTC'
p186
sg6
S'Factbox: The 2013 Eurovision Song Contest'
p187
sa(dp188
g2
S'http://www.reuters.com/article/2013/05/18/us-france-crime-idUSBRE94H0BW20130518'
p189
sg4
S'20130518\xc2\xa03:28PM UTC'
p190
sg6
S'France detains suspect in Toulouse killings investigation'
p191
sa(dp192
g2
S'http://www.reuters.com/article/2013/05/18/bc-launch-world-largest-idUSnPN5182716+180+PRN20130518'
p193
sg4
S'20130518\xc2\xa03:12PM UTC'
p194
sg6
S'The Democratic Republic of the Congo Fixes October 2015 as the Date for the Launch of the First Phase of the Largest Hydroelectric Plant in the World'
p195
sa(dp196
g2
S'http://www.reuters.com/article/2013/05/18/us-nfl-chargers-freeney-idUSBRE94H0BS20130518'
p197
sg4
S'20130518\xc2\xa03:07PM UTC'
p198
sg6
S'Pass rusher Freeney agrees two-year deal with Chargers'
p199
sa(dp200
g2
S'http://www.reuters.com/article/2013/05/18/us-usa-transportation-chicago-idUSBRE94H0BQ20130518'
p201
sg4
S'20130518\xc2\xa03:01PM UTC'
p202
sg6
S"Chicago commuter headache as 'L' train line shut for five months"
p203
sa(dp204
g2
S'http://www.reuters.com/article/2013/05/18/us-israel-syria-idUSBRE94H0BO20130518'
p205
sg4
S'20130518\xc2\xa02:58PM UTC'
p206
sg6
S'Israel warns against Russian arms supply to Syria'
p207
sa(dp208
g2
S'http://www.reuters.com/article/2013/05/18/usa-transportation-chicago-idUSL2N0DY22Y20130518'
p209
sg4
S'20130518\xc2\xa02:57PM UTC'
p210
sg6
S"Chicago commuter headache as 'L' train line shut for five months"
p211
sa(dp212
g2
S'http://www.reuters.com/article/2013/05/18/us-yemen-drone-qaeda-idUSBRE94H0BJ20130518'
p213
sg4
S'20130518\xc2\xa02:35PM UTC'
p214
sg6
S'At least four suspected militants killed in Yemen drone strike'
p215
sa(dp216
g2
S'http://www.reuters.com/article/2013/05/18/us-iraq-violence-idUSBRE94H06Z20130518'
p217
sg4
S'20130518\xc2\xa02:29PM UTC'
p218
sg6
S'Thirteen killed, 10 police kidnapped in Iraq violence'
p219
sa(dp220
g2
S'http://www.reuters.com/article/2013/05/18/us-usa-train-accident-idUSBRE94G0ZT20130518'
p221
sg4
S'20130518\xc2\xa02:06PM UTC'
p222
sg6
S'Investigators seek cause of New York commuter train crash'
p223
sa(dp224
g2
S'http://www.reuters.com/article/2013/05/18/usa-train-accident-idUSL2N0DZ0BL20130518'
p225
sg4
S'20130518\xc2\xa02:05PM UTC'
p226
sg6
S'UPDATE 1-Investigators seek cause of New York commuter train crash'
p227
sa(dp228
g2
S'http://www.reuters.com/article/2013/05/18/us-lundbeck-takeda-brintellix-idUSBRE94H0BC20130518'
p229
sg4
S'20130518\xc2\xa02:05PM UTC'
p230
sg6
S'Lundbeck says drug shows improvement in depression symptoms'
p231
sa(dp232
g2
S'http://www.reuters.com/article/2013/05/18/lundbeck-takeda-brintellix-idUSL6N0DZ0GW20130518'
p233
sg4
S'20130518\xc2\xa01:59PM UTC'
p234
sg6
S'Lundbeck says drug shows improvement in depression symptoms'
p235
sa(dp236
g2
S'http://www.reuters.com/article/2013/05/18/us-libya-unrest-idUSBRE94H08M20130518'
p237
sg4
S'20130518\xc2\xa01:55PM UTC'
p238
sg6
S'Armed groups bomb Libyan military posts in Benghazi'
p239
sa(dp240
g2
S'http://www.reuters.com/article/2013/05/18/us-usa-plane-landing-idUSBRE94H0AT20130518'
p241
sg4
S'20130518\xc2\xa01:51PM UTC'
p242
sg6
S'US Airways plane makes unusual belly landing at Newark airport'
p243
sa(dp244
g2
S'http://www.reuters.com/article/2013/05/18/ar-dillards-idUSnBw185021a+100+BSW20130518'
p245
sg4
S'20130518\xc2\xa01:51PM UTC'
p246
sg6
S'Dillard\xe2\x80\x99s, Inc. Holds Annual Meeting of Shareholders'
p247
sa(dp248
g2
S'http://www.reuters.com/article/2013/05/18/us-ivorycoast-arrest-idUSBRE94H0B320130518'
p249
sg4
S'20130518\xc2\xa01:46PM UTC'
p250
sg6
S'Ivory Coast arrests militia chief accused over massacre'
p251
sa(dp252
g2
S'http://www.reuters.com/article/2013/05/18/us-golf-european-idUSBRE94H0B120130518'
p253
sg4
S'20130518\xc2\xa01:34PM UTC'
p254
sg6
S'An inconvenience for Colsaerts as he loses to McDowell'
p255
sa(dp256
g2
S'http://www.reuters.com/article/2013/05/18/us-france-tax-idUSBRE94H0AX20130518'
p257
sg4
S'20130518\xc2\xa01:16PM UTC'
p258
sg6
S'Taxes on some wealthy French top 100 pct of income: paper'
p259
sa(dp260
g2
S'http://www.reuters.com/article/2013/05/18/us-korea-north-missiles-idUSBRE94H04P20130518'
p261
sg4
S'20130518\xc2\xa01:14PM UTC'
p262
sg6
S'North Korea fires three short-range missiles'
p263
sa(dp264
g2
S'http://www.reuters.com/article/2013/05/18/usa-plane-landing-idUSL2N0DZ0BP20130518'
p265
sg4
S'20130518\xc2\xa01:10PM UTC'
p266
sg6
S'US Airways plane makes unusual belly landing at Newark airport'
p267
sa(dp268
g2
S'http://www.reuters.com/article/2013/05/18/ut-boart-longyear-idUSnBw185019a+100+BSW20130518'
p269
sg4
S'20130518\xc2\xa01:06PM UTC'
p270
sg6
S'Boart Longyear Announces Safe Rescue of Drill Rig Employee in Northern Canada'
p271
sa(dp272
g2
S'http://www.reuters.com/article/2013/05/18/us-nigeria-violence-idUSBRE94H09E20130518'
p273
sg4
S'20130518\xc2\xa01:04PM UTC'
p274
sg6
S'Nigeria says 10 rebels killed in northeast, 65 arrested'
p275
sa(dp276
g2
S'http://www.reuters.com/article/2013/05/18/safrica-strikes-lanxess-idUSL6N0DZ0F620130518'
p277
sg4
S'20130518\xc2\xa01:03PM UTC'
p278
sg6
S'UPDATE 1-Workers stage illegal strike at South Africa chrome mine'
p279
sa(dp280
g2
S'http://www.reuters.com/article/2013/05/18/idUS83420107020130518'
p281
sg4
S'20130518\xc2\xa012:59PM UTC'
p282
sg6
S'Tumblr: 108M blogs and 51 billion posts are worth more than $1.1B'
p283
sa(dp284
g2
S'http://www.reuters.com/article/2013/05/18/usa-train-accident-idUSL2N0DZ08Y20130518'
p285
sg4
S'20130518\xc2\xa012:42PM UTC'
p286
sg6
S'Investigators seek cause of New York commuter train crash'
p287
sa(dp288
g2
S'http://www.reuters.com/article/2013/05/18/us-nhl-hurricanes-staal-idUSBRE94H0AF20130518'
p289
sg4
S'20130518\xc2\xa012:39PM UTC'
p290
sg6
S'Staal avoids surgery to repair damaged knee'
p291
sa(dp292
g2
S'http://www.reuters.com/article/2013/05/18/ncri-iran-parliament-idUSnPNDC16676+1e0+PRN20130518'
p293
sg4
S'20130518\xc2\xa012:20PM UTC'
p294
sg6
S"Iran's parliament-in-exile holds Washington briefing on the Iranian regime's upcoming presidential elections"
p295
sa(dp296
g2
S'http://www.reuters.com/article/2013/05/18/usa-lottery-idUSL2N0DZ08N20130518'
p297
sg4
S'20130518\xc2\xa012:16PM UTC'
p298
sg6
S'U.S. Powerball jackpot could go higher than $600 million'
p299
sa(dp300
g2
S'http://www.reuters.com/article/2013/05/18/congo-hydropower-idUSL6N0DY3AW20130518'
p301
sg4
S'20130518\xc2\xa012:13PM UTC'
p302
sg6
S'Bidding nears for $9-14 bln Congo hydropower plant'
p303
sa(dp304
g2
S'http://www.reuters.com/article/2013/05/18/olympics-wrestling-idUSL6N0DZ0C320130518'
p305
sg4
S'20130518\xc2\xa012:12PM UTC'
p306
sg6
S'Olympics-Wrestling makes drastic changes to please IOC'
p307
sa(dp308
g2
S'http://www.reuters.com/article/2013/05/18/ca-takeda-data-result-idUSnPNNY16756+1e0+PRN20130518'
p309
sg4
S'20130518\xc2\xa012:00PM UTC'
p310
sg6
S'Takeda And Lundbeck Present Results From Pivotal Phase 3 Clinical Trials With Vortioxetine, An Investigational Compound For Major Depressive Disorder'
p311
sa(dp312
g2
S'http://www.reuters.com/article/2013/05/18/us-italy-protest-idUSBRE94H06M20130518'
p313
sg4
S'20130518\xc2\xa011:58AM UTC'
p314
sg6
S'Rome protest turns up heat on new PM Letta'
p315
sa(dp316
g2
S'http://www.reuters.com/article/2013/05/18/us-egypt-palestinians-crossing-idUSBRE94H07S20130518'
p317
sg4
S'20130518\xc2\xa011:52AM UTC'
p318
sg6
S'Enraged by kidnapping, Egyptian police block Gaza border'
p319
sa(dp320
g2
S'http://www.reuters.com/article/2013/05/18/us-egypt-civilsociety-idUSBRE94H09U20130518'
p321
sg4
S'20130518\xc2\xa011:52AM UTC'
p322
sg6
S"Egypt's opposition attacks Brotherhood-backed NGO draft law"
p323
sa(dp324
g2
S'http://www.reuters.com/article/2013/05/18/us-swiss-tax-banks-idUSBRE94H09Q20130518'
p325
sg4
S'20130518\xc2\xa011:46AM UTC'
p326
sg6
S'Switzerland close to deal in U.S. tax dispute: finance minister'
p327
sa(dp328
g2
S'http://www.reuters.com/article/2013/05/18/swiss-tax-banks-idUSL6N0DZ0E920130518'
p329
sg4
S'20130518\xc2\xa011:43AM UTC'
p330
sg6
S'Switzerland close to deal in U.S. tax dispute-finance minister'
p331
sa(dp332
g2
S'http://www.reuters.com/article/2013/05/18/us-ukraine-protest-scuffle-idUSBRE94H08K20130518'
p333
sg4
S'20130518\xc2\xa011:28AM UTC'
p334
sg6
S'Supporters and opponents of Ukraine president clash in Kiev'
p335
sa(dp336
g2
S'http://www.reuters.com/article/2013/05/18/us-pope-merkel-idUSBRE94H07820130518'
p337
sg4
S'20130518\xc2\xa011:26AM UTC'
p338
sg6
S"Germany's Merkel visits Pope, urges tougher market controls"
p339
sa(dp340
g2
S'http://www.reuters.com/article/2013/05/18/us-france-usa-drones-idUSBRE94H09C20130518'
p341
sg4
S'20130518\xc2\xa011:22AM UTC'
p342
sg6
S'France gets Pentagon backing to buy U.S.-made drones: paper'
p343
sa(dp344
g2
S'http://www.reuters.com/article/2013/05/18/us-eu-oliveoil-idUSBRE94H09820130518'
p345
sg4
S'20130518\xc2\xa011:20AM UTC'
p346
sg6
S'EU finds time to tell restaurants how to serve olive oil'
p347
sa(dp348
g2
S'http://www.reuters.com/article/2013/05/18/us-cyber-summit-banks-idUSBRE94G0ZP20130518'
p349
sg4
S'20130518\xc2\xa011:18AM UTC'
p350
sg6
S'Cyber attacks against banks more severe than most realize'
p351
sa(dp352
g2
S'http://www.reuters.com/article/2013/05/18/us-microsoft-xbox-idUSBRE94H07Z20130518'
p353
sg4
S'20130518\xc2\xa011:17AM UTC'
p354
sg6
S'New Xbox more than a game console for Microsoft'
p355
sa(dp356
g2
S'http://www.reuters.com/article/2013/05/18/us-google-glass-idUSBRE94H08520130518'
p357
sg4
S'20130518\xc2\xa011:16AM UTC'
p358
sg6
S"Google's wearable Glass gadget: cool or creepy?"
p359
sa(dp360
g2
S'http://www.reuters.com/article/2013/05/18/us-latam-airlines-argentina-idUSBRE94H08Z20130518'
p361
sg4
S'20130518\xc2\xa011:16AM UTC'
p362
sg6
S'LATAM Airlines to resume Argentina flights later Saturday'
p363
sa(dp364
g2
S'http://www.reuters.com/article/2013/05/18/us-usa-fed-bernanke-idUSBRE94H08O20130518'
p365
sg4
S'20130518\xc2\xa011:14AM UTC'
p366
sg6
S'Bernanke upbeat on innovation outlook in commencement address'
p367
sa(dp368
g2
S'http://www.reuters.com/article/2013/05/18/us-cyber-summit-nightmares-idUSBRE94H08S20130518'
p369
sg4
S'20130518\xc2\xa011:13AM UTC'
p370
sg6
S'Cyber experts fear escalation of attacks'
p371
sa(dp372
g2
S'http://www.reuters.com/article/2013/05/18/entertainment-us-opera-didonato-idUSBRE94H08Q20130518'
p373
sg4
S'20130518\xc2\xa011:11AM UTC'
p374
sg6
S'Vocal acrobatics of "La Donna del Lago" an "Olympic" challenge'
p375
sa(dp376
g2
S'http://www.reuters.com/article/2013/05/18/idUSnGNXzDwG4+ea+GNW20130518'
p377
sg4
S'20130518\xc2\xa011:05AM UTC'
p378
sg6
S'New SEO Services Guide by i4 Solutions Helps Business Owners to Weigh Out Low Cost Versus High Quality Search Engine Optimization'
p379
sa(dp380
g2
S'http://www.reuters.com/article/2013/05/18/eu-oliveoil-idUSL6N0DZ09520130518'
p381
sg4
S'20130518\xc2\xa011:03AM UTC'
p382
sg6
S'EU finds time to tell restaurants how to serve olive oil'
p383
sa(dp384
g2
S'http://www.reuters.com/article/2013/05/18/ronald-mcdonald-house-idUSnPNAQ16750+1e0+PRN20130518'
p385
sg4
S'20130518\xc2\xa011:00AM UTC'
p386
sg6
S'Ronald McDonald House Charities\xc2\xae Of Southern California Helps High School Seniors Fund Their Higher Education By Awarding $300,000 In College Scholarships'
p387
sa(dp388
g2
S'http://www.reuters.com/article/2013/05/18/stuttering-kenventuri-idUSnPNDC16765+1e0+PRN20130518'
p389
sg4
S'20130518\xc2\xa010:56AM UTC'
p390
sg6
S'Ken Venturi: A Champion to Those Who Stutter'
p391
sa(dp392
g2
S'http://www.reuters.com/article/2013/05/18/latam-airlines-argentina-idUSL2N0DZ08Z20130518'
p393
sg4
S'20130518\xc2\xa010:50AM UTC'
p394
sg6
S'LATAM Airlines to resume Argentina flights later Saturday'
p395
sa(dp396
g2
S'http://www.reuters.com/article/2013/05/18/entertainment-us-cannes-americans-idUSBRE94H08G20130518'
p397
sg4
S'20130518\xc2\xa010:41AM UTC'
p398
sg6
S'Native American actress proud to walk Cannes red carpet'
p399
sa(dp400
g2
S'http://www.reuters.com/article/2013/05/18/lvmh-hermes-idUSL6N0DZ0BV20130518'
p401
sg4
S'20130518\xc2\xa010:31AM UTC'
p402
sg6
S'French probe finds LVMH built up Hermes stake in secret-paper'
p403
sa(dp404
g2
S'http://www.reuters.com/article/2013/05/18/music-opera-didonato-idUSL6N0DY3S420130518'
p405
sg4
S'20130518\xc2\xa010:22AM UTC'
p406
sg6
S'Vocal acrobatics of "La Donna del Lago" an "Olympic" challenge'
p407
sa(dp408
g2
S'http://www.reuters.com/article/2013/05/18/film-cannes-americans-idUSL6N0DZ08U20130518'
p409
sg4
S'20130518\xc2\xa010:03AM UTC'
p410
sg6
S'Native American actress proud to walk Cannes red carpet'
p411
sa(dp412
g2
S'http://www.reuters.com/article/2013/05/18/entertainment-us-cannes-japan-idUSBRE94H07V20130518'
p413
sg4
S'20130518\xc2\xa010:00AM UTC'
p414
sg6
S'Agonizing family choice in Japanese film at Cannes festival'
p415
sa(dp416
g2
S'http://www.reuters.com/article/2013/05/18/fl-endochoice-study-idUSnPNCL16288+1e0+PRN20130518'
p417
sg4
S'20130518\xc2\xa010:00AM UTC'
p418
sg6
S"New Study Shows Full Spectrum Endoscopy Procedure Reduces The 'Miss Rate' of Adenomas During Colonoscopy"
p419
sa(dp420
g2
S'http://www.reuters.com/article/2013/05/18/google-glass-idUSL2N0DY29L20130518'
p421
sg4
S'20130518\xc2\xa09:59AM UTC'
p422
sg6
S"Google's wearable Glass gadget: cool or creepy?"
p423
sa(dp424
g2
S'http://www.reuters.com/article/2013/05/18/microsoft-xbox-idUSL2N0DY1MO20130518'
p425
sg4
S'20130518\xc2\xa09:59AM UTC'
p426
sg6
S'New Xbox more than a game console for Microsoft'
p427
sa(dp428
g2
S'http://www.reuters.com/article/2013/05/18/poland-rates-idUSL6N0DZ0B320130518'
p429
sg4
S'20130518\xc2\xa09:59AM UTC'
p430
sg6
S'Rate cuts possible as Polish inflation set to stay low-central banker'
p431
sa(dp432
g2
S'http://www.reuters.com/article/2013/05/18/prn-test-disregard-idUSnPNHS16763+1e0+PRN20130518'
p433
sg4
S'20130518\xc2\xa09:56AM UTC'
p434
sg6
S'This Is a Test From PR Newswire - 29'
p435
sa(dp436
g2
S'http://www.reuters.com/article/2013/05/18/us-egypt-protests-idUSBRE94G0Z520130518'
p437
sg4
S'20130518\xc2\xa09:53AM UTC'
p438
sg6
S'Police clash with youth in Cairo after anti-Mursi protest'
p439
sa(dp440
g2
S'http://www.reuters.com/article/2013/05/18/greece-piraeusbank-issue-idUSL6N0DZ0AB20130518'
p441
sg4
S'20130518\xc2\xa09:36AM UTC'
p442
sg6
S"Greece's Piraeus hire banks to advise on share issue-sources"
p443
sa(dp444
g2
S'http://www.reuters.com/article/2013/05/18/film-cannes-japan-idUSL6N0DZ05M20130518'
p445
sg4
S'20130518\xc2\xa09:28AM UTC'
p446
sg6
S'Agonising family choice in Japanese film at Cannes festival'
p447
sa(dp448
g2
S'http://www.reuters.com/article/2013/05/18/open-paradigm-project-idUSnPNDC16760+1e0+PRN20130518'
p449
sg4
S'20130518\xc2\xa09:28AM UTC'
p450
sg6
S'New Social Media Campaign Features Stories Of Individuals Who Rejected Psychiatric Diagnoses'
p451
sa(dp452
g2
S'http://www.reuters.com/article/2013/05/18/us-mali-fighting-idUSBRE94H07F20130518'
p453
sg4
S'20130518\xc2\xa09:22AM UTC'
p454
sg6
S'Armed Tuareg and Arab groups clash in northern Mali'
p455
sa(dp456
g2
S'http://www.reuters.com/article/2013/05/18/prn-test-disregard-idUSnPNHS16759+1e0+PRN20130518'
p457
sg4
S'20130518\xc2\xa09:12AM UTC'
p458
sg6
S'This Is a Test From PR Newswire - 28'
p459
sa(dp460
g2
S'http://www.reuters.com/article/2013/05/18/faruqi-vitamin-shoppe-idUSnPNNY16563+1e0+PRN20130518'
p461
sg4
S'20130518\xc2\xa09:00AM UTC'
p462
sg6
S'Faruqi & Faruqi, LLP Encourages Investors Who Suffered Losses In Excess Of $100,000 Investing In Vitamin Shoppe, Inc. To Contact The Firm'
p463
sa(dp464
g2
S'http://www.reuters.com/article/2013/05/18/faruqi-vtus-fraud-idUSnPNNY16560+1e0+PRN20130518'
p465
sg4
S'20130518\xc2\xa09:00AM UTC'
p466
sg6
S'Faruqi & Faruqi, LLP Encourages Investors Who Suffered Losses In Excess Of $100,000 Investing In Ventrus Biosciences, Inc. To Contact The Firm'
p467
sa(dp468
g2
S'http://www.reuters.com/article/2013/05/18/ny-faruqifaruqi-dcth-idUSnPNNY16556+1e0+PRN20130518'
p469
sg4
S'20130518\xc2\xa09:00AM UTC'
p470
sg6
S'Faruqi & Faruqi, LLP Encourages Investors Who Suffered Losses In Excess Of $100,000 Investing In Delcath Systems, Inc. To Contact The Firm'
p471
sa(dp472
g2
S'http://www.reuters.com/article/2013/05/18/ny-faruqi-aveo-pharma-idUSnPNNY16533+1e0+PRN20130518'
p473
sg4
S'20130518\xc2\xa09:00AM UTC'
p474
sg6
S'Faruqi & Faruqi, LLP Encourages Investors Who Suffered Losses In Excess Of $100,000 Investing In AVEO Pharmaceuticals, Inc. To Contact The Firm'
p475
sa(dp476
g2
S'http://www.reuters.com/article/2013/05/18/oh-vitamix-blender-idUSnPNCL16359+1e0+PRN20130518'
p477
sg4
S'20130518\xc2\xa09:00AM UTC'
p478
sg6
S'Vitamix\xc2\xae Unveils The Next Level Of Automation In Frozen Drink Blending: The Modular Blending System'
p479
sa(dp480
g2
S'http://www.reuters.com/article/2013/05/18/saudi-stocks-idUSL6N0DZ0A020130518'
p481
sg4
S'20130518\xc2\xa08:57AM UTC'
p482
sg6
S'STOCKS-NEWS-MIDEAST-Dar al-Arkan jump helps raise Saudi index'
p483
sa(dp484
g2
S'http://www.reuters.com/article/2013/05/18/prn-test-idUSnPNHS16608+1e0+PRN20130518'
p485
sg4
S'20130518\xc2\xa08:50AM UTC'
p486
sg6
S'This Is a Test From PR Newswire - 27'
p487
sa(dp488
g2
S'http://www.reuters.com/article/2013/05/18/prn-test-idUSnPNHS16591+1e0+PRN20130518'
p489
sg4
S'20130518\xc2\xa08:46AM UTC'
p490
sg6
S'This Is a Test From PR Newswire'
p491
sa(dp492
g2
S'http://www.reuters.com/article/2013/05/18/prn-test-idUSnPNHS16567+1e0+PRN20130518'
p493
sg4
S'20130518\xc2\xa08:44AM UTC'
p494
sg6
S'This Is a Test From PR Newswire'
p495
sa(dp496
g2
S'http://www.reuters.com/article/2013/05/18/conwert-haselsteiner-idUSL6N0DZ09X20130518'
p497
sg4
S'20130518\xc2\xa08:43AM UTC'
p498
sg6
S'Shareholder wants Conwert structure revamp-paper'
p499
sa(dp500
g2
S'http://www.reuters.com/article/2013/05/18/pope-merkel-idUSL6N0DZ09620130518'
p501
sg4
S'20130518\xc2\xa08:39AM UTC'
p502
sg6
S"Germany's Merkel visits Pope, urges tougher market controls"
p503
sa(dp504
g2
S'http://www.reuters.com/article/2013/05/18/us-austria-alpine-financing-idUSBRE94H07620130518'
p505
sg4
S'20130518\xc2\xa08:38AM UTC'
p506
sg6
S'Alpine in talks with FCC on financing: CEO'
p507
sa(dp508
g2
S'http://www.reuters.com/article/2013/05/18/ny-winx-dvd-ripper-idUSnPNLA16728+1e0+PRN20130518'
p509
sg4
S'20130518\xc2\xa08:00AM UTC'
p510
sg6
S'Get WinX DVD Ripper Platinum License Code for Best Price Ever - Free Lifetime Upgrade Guaranteed'
p511
sa(dp512
g2
S'http://www.reuters.com/article/2013/05/18/co-dish-network-idUSnBw185004a+100+BSW20130518'
p513
sg4
S'20130518\xc2\xa08:00AM UTC'
p514
sg6
S'DishLATINO Teams with Copa Univision, the Fastest Growing Amateur Soccer Tournament in the U.S.'
p515
sa(dp516
g2
S'http://www.reuters.com/article/2013/05/18/pr-newswire-test-idUSnPNHS16615+1e0+PRN20130518'
p517
sg4
S'20130518\xc2\xa07:52AM UTC'
p518
sg6
S'This Is a Test From PR Newswire 24'
p519
sa(dp520
g2
S'http://www.reuters.com/article/2013/05/18/us-afghanistan-women-idUSBRE94H06J20130518'
p521
sg4
S'20130518\xc2\xa07:51AM UTC'
p522
sg6
S"Afghan parliament fails to pass divisive women's law"
p523
sa(dp524
g2
S'http://www.reuters.com/article/2013/05/18/us-syria-crisis-idUSBRE94G0BB20130518'
p525
sg4
S'20130518\xc2\xa07:50AM UTC'
p526
sg6
S'U.S. chides Russia over missiles as peace plans suffer'
p527
sa(dp528
g2
S'http://www.reuters.com/article/2013/05/18/pr-newswire-test-idUSnPNHS16607+1e0+PRN20130518'
p529
sg4
S'20130518\xc2\xa07:49AM UTC'
p530
sg6
S'This Is a Test From PR Newswire 23'
p531
sa(dp532
g2
S'http://www.reuters.com/article/2013/05/18/us-egypt-palestinians-crossing-idUSBRE94H05T20130518'
p533
sg4
S'20130518\xc2\xa07:49AM UTC'
p534
sg6
S'Enraged by kidnapping, Egyptian police block Gaza border'
p535
sa(dp536
g2
S'http://www.reuters.com/article/2013/05/18/us-france-gaymarriage-idUSBRE94G0JH20130518'
p537
sg4
S'20130518\xc2\xa07:48AM UTC'
p538
sg6
S"France's Hollande signs gay marriage law"
p539
sa(dp540
g2
S'http://www.reuters.com/article/2013/05/18/pr-newswire-test-idUSnPNHS16595+1e0+PRN20130518'
p541
sg4
S'20130518\xc2\xa07:42AM UTC'
p542
sg6
S'This Is a Test From PR Newswire 22'
p543
sa(dp544
g2
S'http://www.reuters.com/article/2013/05/18/pr-newswire-test-idUSnPNHS16580+1e0+PRN20130518'
p545
sg4
S'20130518\xc2\xa07:35AM UTC'
p546
sg6
S'This Is a Test From PR Newswire 21'
p547
sa(dp548
g2
S'http://www.reuters.com/article/2013/05/18/map-aids-walk-idUSnPNDC16602+1e0+PRN20130518'
p549
sg4
S'20130518\xc2\xa07:30AM UTC'
p550
sg6
S'26th Annual Minnesota AIDS Walk'
p551
sa(dp552
g2
S'http://www.reuters.com/article/2013/05/18/idUSnGNX3jxYXT+1c7+GNW20130518'
p553
sg4
S'20130518\xc2\xa07:08AM UTC'
p554
sg6
S'H3Dpro - A Human Touch to Crowd Funding'
p555
sa(dp556
g2
S'http://www.reuters.com/article/2013/05/18/usa-map-idUSL2N0DX26N20130518'
p557
sg4
S'20130518\xc2\xa07:00AM UTC'
p558
sg6
S'RPT-FEATURE-Amid frenzy over map apps, new focus on 16th century world view'
p559
sa(dp560
g2
S'http://www.reuters.com/article/2013/05/18/ca-makerbot-idUSnBw185003a+100+BSW20130518'
p561
sg4
S'20130518\xc2\xa06:30AM UTC'
p562
sg6
S'MakerBot\xc2\xae and Autodesk\xc2\xae at Maker Faire San Mateo May 18 and 19'
p563
sa(dp564
g2
S'http://www.reuters.com/article/2013/05/18/ca-sacramento-aqmd-idUSnBw185002a+100+BSW20130518'
p565
sg4
S'20130518\xc2\xa06:05AM UTC'
p566
sg6
S'Scooter Gets Extreme About Clean Air at the Annual Clean Air Fun Fest'
p567
sa(dp568
g2
S'http://www.reuters.com/article/2013/05/18/mca-25yr-awd-doctor-idUSnPNDC13602+1e0+PRN20130518'
p569
sg4
S'20130518\xc2\xa06:00AM UTC'
p570
sg6
S'Doctor of Chiropractic Honored for 25 Years of Service and Commitment to Public Health'
p571
sa(dp572
g2
S'http://www.reuters.com/article/2013/05/18/ca-maddie-james-ocean-in-idUSnBw185001a+100+BSW20130518'
p573
sg4
S'20130518\xc2\xa06:00AM UTC'
p574
sg6
S'Ocean Institute and The Maddie James Foundation Celebrate the Grand Opening of the Maddie James Seaside Learning Center at the Third Annual A Mile for Maddie Fundraising Walk'
p575
sa(dp576
g2
S'http://www.reuters.com/article/2013/05/18/prn-good-morning-idUSnPNNYGM+3f+PRN20130518'
p577
sg4
S'20130518\xc2\xa05:59AM UTC'
p578
sg6
S'GOOD MORNING'
p579
sa(dp580
g2
S'http://www.reuters.com/article/2013/05/18/safrica-strikes-lanxess-idUSL6N0DZ05J20130518'
p581
sg4
S'20130518\xc2\xa05:56AM UTC'
p582
sg6
S'Workers on illegal strike at chrome mine in S.Africa-union'
p583
sa(dp584
g2
S'http://www.reuters.com/article/2013/05/18/tatamotors-fundraising-idUSL3N0DZ03B20130518'
p585
sg4
S'20130518\xc2\xa05:53AM UTC'
p586
sg6
S"India's Tata Motors subsidiary issues $280 mln senior notes"
p587
sa(dp588
g2
S'http://www.reuters.com/article/2013/05/18/us-badminton-world-election-idUSBRE94H06320130518'
p589
sg4
S'20130518\xc2\xa05:41AM UTC'
p590
sg6
S'Dane Hoyer Larsen elected BWF president'
p591
sa(dp592
g2
S'http://www.reuters.com/article/2013/05/18/idUSnHUGd5Pw+72+ONE20130518'
p593
sg4
S'20130518\xc2\xa05:06AM UTC'
p594
sg6
S'Banca IFIS, roadshow in Copenaghen and Dublin on the 22nd and 23rd of May'
p595
sa(dp596
g2
S'http://www.reuters.com/article/2013/05/18/us-poland-polls-idUSBRE94H05F20130518'
p597
sg4
S'20130518\xc2\xa04:59AM UTC'
p598
sg6
S'Polish conservative opposition leads opinion poll'
p599
sa(dp600
g2
S'http://www.reuters.com/article/2013/05/18/us-usa-map-idUSBRE94H03O20130518'
p601
sg4
S'20130518\xc2\xa04:43AM UTC'
p602
sg6
S'Amid frenzy over map apps, new focus on 16th century world view'
p603
sa(dp604
g2
S'http://www.reuters.com/article/2013/05/18/us-japan-africa-resources-idUSBRE94H05C20130518'
p605
sg4
S'20130518\xc2\xa04:39AM UTC'
p606
sg6
S'Japan to provide $2 billion to Africa resources projects'
p607
sa(dp608
g2
S'http://www.reuters.com/article/2013/05/18/us-yemen-assassination-idUSBRE94H05720130518'
p609
sg4
S'20130518\xc2\xa04:38AM UTC'
p610
sg6
S'Suspected Islamist gunmen assassinate Yemeni colonel'
p611
sa(dp612
g2
S'http://www.reuters.com/article/2013/05/18/saudi-stocks-idUSL6N0DZ03R20130518'
p613
sg4
S'20130518\xc2\xa04:34AM UTC'
p614
sg6
S'STOCKS-NEWS-MIDEAST-Saudi heavyweights lead stocks rise'
p615
sa(dp616
g2
S'http://www.reuters.com/article/2013/05/18/us-usa-stocks-weekahead-idUSBRE94G10120130518'
p617
sg4
S'20130518\xc2\xa04:29AM UTC'
p618
sg6
S'Wall Street Week Ahead: Correction talk gets old as rally sails along'
p619
sa(dp620
g2
S'http://www.reuters.com/article/2013/05/18/us-china-property-prices-idUSBRE94H05120130518'
p621
sg4
S'20130518\xc2\xa04:28AM UTC'
p622
sg6
S'China April housing inflation quickens to two year high'
p623
sa(dp624
g2
S'http://www.reuters.com/article/2013/05/18/china-property-prices-idUSL3N0DZ01720130518'
p625
sg4
S'20130518\xc2\xa04:26AM UTC'
p626
sg6
S'UPDATE 2-China April housing inflation quickens to two year high'
p627
sa(dp628
g2
S'http://www.reuters.com/article/2013/05/18/chinasoftwareservice-idUSnPNCN16757+1e0+PRN20130518'
p629
sg4
S'20130518\xc2\xa04:21AM UTC'
p630
sg6
S'Release of 2012 (the 9th) China Software Export and Service Outsourcing Ranking List'
p631
sa(dp632
g2
S'http://www.reuters.com/article/2013/05/18/bulgaria-protest-trucks-idUSL6N0DZ02920130518'
p633
sg4
S'20130518\xc2\xa03:36AM UTC'
p634
sg6
S'Bulgarian truck drivers end blockade of traffic to Turkey'
p635
sa(dp636
g2
S'http://www.reuters.com/article/2013/05/18/us-baseball-roundup-idUSBRE94H04C20130518'
p637
sg4
S'20130518\xc2\xa03:27AM UTC'
p638
sg6
S'Kuroda inspires Yankees, Detroit edge Rangers'
p639
sa(dp640
g2
S'http://www.reuters.com/article/2013/05/18/us-trade-eu-idUSBRE94H03J20130518'
p641
sg4
S'20130518\xc2\xa03:25AM UTC'
p642
sg6
S'Exclusive: EU cites Chinese telecoms Huawei and ZTE for trade violations'
p643
sa(dp644
g2
S'http://www.reuters.com/article/2013/05/18/us-freeport-indonesia-idUSBRE94H04620130518'
p645
sg4
S'20130518\xc2\xa03:09AM UTC'
p646
sg6
S'Hopes fade for those still trapped in Freeport Indonesia mine'
p647
sa(dp648
g2
S'http://www.reuters.com/article/2013/05/18/freeport-indonesia-idUSL3N0DZ02H20130518'
p649
sg4
S'20130518\xc2\xa03:04AM UTC'
p650
sg6
S'Hopes fade for those still trapped in Freeport Indonesia mine'
p651
sa(dp652
g2
S'http://www.reuters.com/article/2013/05/18/us-quake-japan-idUSBRE94H04020130518'
p653
sg4
S'20130518\xc2\xa02:42AM UTC'
p654
sg6
S'Northeast Japan jolted by magnitude 5.9 quake, no tsunami warning'
p655
sa(dp656
g2
S'http://www.reuters.com/article/2013/05/18/quake-japan-idUSL3N0DZ02C20130518'
p657
sg4
S'20130518\xc2\xa02:41AM UTC'
p658
sg6
S'UPDATE 1-Northeast Japan jolted by M5.9 quake, no tsunami warning'
p659
sa(dp660
g2
S'http://www.reuters.com/article/2013/05/18/quake-japan-idUSL3N0DZ02420130518'
p661
sg4
S'20130518\xc2\xa02:09AM UTC'
p662
sg6
S'Northeast Japan jolted by magnitude 5.9 quake'
p663
sa(dp664
g2
S'http://www.reuters.com/article/2013/05/18/tatateleservices-sharesale-idUSL3N0DZ01P20130518'
p665
sg4
S'20130518\xc2\xa01:02AM UTC'
p666
sg6
S'India Tata Tele (Maharashtra) share sale cancelled'
p667
sa(dp668
g2
S'http://www.reuters.com/article/2013/05/18/us-usa-immigration-tech-idUSBRE94H00720130518'
p669
sg4
S'20130518\xc2\xa01:01AM UTC'
p670
sg6
S'Tech, labor brandish dueling studies in immigration fight'
p671
sa(dp672
g2
S'http://www.reuters.com/article/2013/05/18/ny-bowlmor-idUSnBw176034a+100+BSW20130518'
p673
sg4
S'20130518\xc2\xa012:51AM UTC'
p674
sg6
S'Bowlmor Joins AMF\xe2\x80\x99s Existing Second Lien Lenders, Including Cerberus and Credit Suisse to Sponsor New Chapter 11 Plan for AMF Bowling Worldwide'
p675
sa(dp676
g2
S'http://www.reuters.com/article/2013/05/18/pa-law-offc-howard-smith-idUSnBw176033a+100+BSW20130518'
p677
sg4
S'20130518\xc2\xa012:16AM UTC'
p678
sg6
S'Law Offices of Howard G. Smith Announces Lead Plaintiff Deadline In The Class Action Lawsuit Against Navistar International Corporation'
p679
sa(dp680
g2
S'http://www.reuters.com/article/2013/05/18/census-daily-feature-idUSnPNDC16558+1e0+PRN20130518'
p681
sg4
S'20130518\xc2\xa012:01AM UTC'
p682
sg6
S'U.S. Census Bureau Daily Feature for May 18'
p683
sa(dp684
g2
S'http://www.reuters.com/news/video/videoStory?storyID=61051029'
p685
sg4
S'20130518\xc2\xa011:46PM UTC'
p686
sg6
S'Chileans march for marijuana legalisation'
p687
sa(dp688
g2
S'http://www.reuters.com/news/video/videoStory?storyID=61050332'
p689
sg4
S'20130518\xc2\xa011:21PM UTC'
p690
sg6
S'Indonesia healthcare buckling under strain'
p691
sa(dp692
g2
S'http://www.reuters.com/news/video/videoStory?storyID=61049352'
p693
sg4
S'20130518\xc2\xa010:24PM UTC'
p694
sg6
S'China turns to age-old solution for rural elderly'
p695
sa(dp696
g2
S'http://www.reuters.com/news/video/videoStory?storyID=61048614'
p697
sg4
S'20130518\xc2\xa09:34PM UTC'
p698
sg6
S'Female politician killed in Pakistan'
p699
sa(dp700
g2
S'http://www.reuters.com/news/video/videoStory?storyID=61045976'
p701
sg4
S'20130518\xc2\xa07:00PM UTC'
p702
sg6
S'Safety officials launch probe into Connecticut train crash'
p703
sa(dp704
g2
S'http://www.reuters.com/news/video/videoStory?storyID=61042366'
p705
sg4
S'20130518\xc2\xa04:20PM UTC'
p706
sg6
S'Video shows airstrikes on towns outside of Damascus'
p707
sa(dp708
g2
S'http://www.reuters.com/news/video/videoStory?storyID=61039320'
p709
sg4
S'20130518\xc2\xa01:38PM UTC'
p710
sg6
S'Dueling political rallies end in clashes in Kiev'
p711
sa(dp712
g2
S'http://www.reuters.com/news/video/videoStory?storyID=61037125'
p713
sg4
S'20130518\xc2\xa011:36AM UTC'
p714
sg6
S'Police, protesters clash in Turkey border town'
p715
sa(dp716
g2
S'http://www.reuters.com/news/video/videoStory?storyID=61035873'
p717
sg4
S'20130518\xc2\xa011:00AM UTC'
p718
sg6
S'Plane catches fire landing at Moscow airport'
p719
sa(dp720
g2
S'http://www.reuters.com/news/video/videoStory?storyID=61035156'
p721
sg4
S'20130518\xc2\xa010:25AM UTC'
p722
sg6
S"Germany's Merkel visits Pope, urges tougher market control"
p723
sa(dp724
g2
S'http://www.reuters.com/news/video/videoStory?storyID=61034802'
p725
sg4
S'20130518\xc2\xa010:19AM UTC'
p726
sg6
S'Madrid celebrations turn into riot'
p727
sa(dp728
g2
S'http://www.reuters.com/news/video/videoStory?storyID=61033457'
p729
sg4
S'20130518\xc2\xa09:21AM UTC'
p730
sg6
S'Rome protest turns up heat on Letta'
p731
sa(dp732
g2
S'http://www.reuters.com/news/video/videoStory?storyID=61033451'
p733
sg4
S'20130518\xc2\xa09:21AM UTC'
p734
sg6
S'Huge meteoroid strike dazzles scientists'
p735
sa(dp736
g2
S'http://www.reuters.com/news/video/videoStory?storyID=61030023'
p737
sg4
S'20130518\xc2\xa07:08AM UTC'
p738
sg6
S'Iraq blasts hit Sunni areas'
p739
sa(dp740
g2
S'http://www.reuters.com/news/video/videoStory?storyID=61030016'
p741
sg4
S'20130518\xc2\xa07:08AM UTC'
p742
sg6
S'One dead, dozens wounded in Egypt sectarian clashes'
p743
sa(dp744
g2
S'http://www.reuters.com/news/video/videoStory?storyID=61027127'
p745
sg4
S'20130518\xc2\xa04:19AM UTC'
p746
sg6
S'Rally marks 100 days of Guantanamo hunger strike'
p747
sa(dp748
g2
S'http://www.reuters.com/news/video/videoStory?storyID=61025996'
p749
sg4
S'20130518\xc2\xa02:05AM UTC'
p750
sg6
S'Commuter trains collide injuring up to 60 people'
p751
sa.