(lp0
(dp1
S'href'
p2
S'http://www.reuters.com/article/2013/02/24/us-tennis-memphis-idUSBRE91L05J20130224'
p3
sS'ts'
p4
S'20130223\xc2\xa011:54PM UTC'
p5
sS'title'
p6
S'Nishikori to meet Lopez in Memphis, Erakovic wins first title'
p7
sa(dp8
g2
S'http://www.reuters.com/article/2013/02/24/ca-napa-valley-vintners-idUSnBw2nR1zKa+112+BSW20130224'
p9
sg4
S'20130223\xc2\xa011:37PM UTC'
p10
sg6
S'Wines from 2011 Vintage Propel Premiere Napa Valley to Near-Record Total'
p11
sa(dp12
g2
S'http://www.reuters.com/article/2013/02/24/affymax-takeda-recall-idUSL4N0BO04920130224'
p13
sg4
S'20130223\xc2\xa011:22PM UTC'
p14
sg6
S'Affymax, Takeda recall anaemia drug Omontys after deaths'
p15
sa(dp16
g2
S'http://www.reuters.com/article/2013/02/24/us-usa-auction-sports-idUSBRE91M0AW20130224'
p17
sg4
S'20130223\xc2\xa011:19PM UTC'
p18
sg6
S'"Miracle on Ice" hockey jersey, Red Sox bloody sock sold at auction'
p19
sa(dp20
g2
S'http://www.reuters.com/article/2013/02/24/us-usa-shooting-lasvegas-idUSBRE91L18020130224'
p21
sg4
S'20130223\xc2\xa011:18PM UTC'
p22
sg6
S'Suspect named in Las Vegas shooting that killed aspiring rapper'
p23
sa(dp24
g2
S'http://www.reuters.com/article/2013/02/24/us-mexico-crime-idUSBRE91N01R20130224'
p25
sg4
S'20130223\xc2\xa010:52PM UTC'
p26
sg6
S'Belgian national killed in Mexican resort of Acapulco'
p27
sa(dp28
g2
S'http://www.reuters.com/article/2013/02/24/usa-shooting-lasvegas-idUSL1N0BO0EX20130224'
p29
sg4
S'20130223\xc2\xa010:49PM UTC'
p30
sg6
S'Suspect named in Las Vegas shooting that killed aspiring rapper'
p31
sa(dp32
g2
S'http://www.reuters.com/article/2013/02/24/us-usa-nuclear-leak-idUSBRE91L19G20130224'
p33
sg4
S'20130223\xc2\xa010:48PM UTC'
p34
sg6
S'Radioactive waste leaking from six tanks at Washington state nuclear site'
p35
sa(dp36
g2
S'http://www.reuters.com/article/2013/02/24/us-toyota-korea-idUSBRE91N01L20130224'
p37
sg4
S'20130223\xc2\xa010:44PM UTC'
p38
sg6
S'Toyota to recall 6,934 cars in South Korea for wiper glitches'
p39
sa(dp40
g2
S'http://www.reuters.com/article/2013/02/24/gulffinancehouse-results-idUSWEA00AQ920130224'
p41
sg4
S'20130223\xc2\xa010:42PM UTC'
p42
sg6
S'BRIEF-Gulf Finance house 2012 net profit rises'
p43
sa(dp44
g2
S'http://www.reuters.com/article/2013/02/24/us-spain-protests-idUSBRE91M0E220130224'
p45
sg4
S'20130223\xc2\xa010:41PM UTC'
p46
sg6
S'Tens of thousands in Spain protest economic policy, corruption'
p47
sa(dp48
g2
S'http://www.reuters.com/article/2013/02/24/toyota-korea-idUSL4N0BO03220130224'
p49
sg4
S'20130223\xc2\xa010:40PM UTC'
p50
sg6
S'Toyota to recall 6,934 cars in S.Korea for wiper glitches'
p51
sa(dp52
g2
S'http://www.reuters.com/article/2013/02/24/us-golf-pga-matchplay-day-idUSBRE91N01E20130224'
p53
sg4
S'20130223\xc2\xa010:29PM UTC'
p54
sg6
S'Two major scalps put Day into last four'
p55
sa(dp56
g2
S'http://www.reuters.com/article/2013/02/24/us-usa-whitehouse-information-idUSBRE91N01C20130224'
p57
sg4
S'20130223\xc2\xa010:23PM UTC'
p58
sg6
S'White House directs open access for government research'
p59
sa(dp60
g2
S'http://www.reuters.com/article/2013/02/24/usa-whitehouse-information-idUSL1N0BO0EN20130224'
p61
sg4
S'20130223\xc2\xa010:17PM UTC'
p62
sg6
S'White House directs open access for government research'
p63
sa(dp64
g2
S'http://www.reuters.com/article/2013/02/24/us-lockheed-fighter-idUSBRE91N01820130224'
p65
sg4
S'20130223\xc2\xa010:12PM UTC'
p66
sg6
S'Half-inch crack blamed for F-35 fighter jet grounding: sources'
p67
sa(dp68
g2
S'http://www.reuters.com/article/2013/02/24/entertainment-us-razzies-idUSBRE91N01620130224'
p69
sg4
S'20130223\xc2\xa010:09PM UTC'
p70
sg6
S'Final "Twilight Saga" movie gets mauling from Razzies'
p71
sa(dp72
g2
S'http://www.reuters.com/article/2013/02/24/lockheed-fighter-idUSL1N0BO02Z20130224'
p73
sg4
S'20130223\xc2\xa010:07PM UTC'
p74
sg6
S'Half-inch crack blamed for U.S. F-35 fighter jet grounding - sources'
p75
sa(dp76
g2
S'http://www.reuters.com/article/2013/02/24/idUSnMKW89452a+1c0+MKW20130224'
p77
sg4
S'20130223\xc2\xa010:01PM UTC'
p78
sg6
S'E-Band Communications Launches Production of Small-Cell Wireless Backhaul System'
p79
sa(dp80
g2
S'http://www.reuters.com/article/2013/02/24/us-usa-art-banksy-idUSBRE91N01220130224'
p81
sg4
S'20130223\xc2\xa010:00PM UTC'
p82
sg6
S'Banksy street murals pulled from Miami auction after controversy'
p83
sa(dp84
g2
S'http://www.reuters.com/article/2013/02/24/us-golf-pga-matchplay-poulter-idUSBRE91N01020130224'
p85
sg4
S'20130223\xc2\xa09:11PM UTC'
p86
sg6
S'Passionate Poulter again fuelled by matchplay energy'
p87
sa(dp88
g2
S'http://www.reuters.com/article/2013/02/24/us-virginia-transportation-idUSBRE91N00Y20130224'
p89
sg4
S'20130223\xc2\xa08:52PM UTC'
p90
sg6
S'Virginia approves transportation funding overhaul'
p91
sa(dp92
g2
S'http://www.reuters.com/article/2013/02/24/virginia-transportation-idUSL1N0BO04320130224'
p93
sg4
S'20130223\xc2\xa08:48PM UTC'
p94
sg6
S'Virginia approves transportation funding overhaul'
p95
sa(dp96
g2
S'http://www.reuters.com/article/2013/02/24/idUSnMKW89495a+1c0+MKW20130224'
p97
sg4
S'20130223\xc2\xa08:44PM UTC'
p98
sg6
S'Holiday Systems International Wins the 2013 Best Online Service Award'
p99
sa(dp100
g2
S'http://www.reuters.com/article/2013/02/24/us-spiritawards-factbox-idUSBRE91N00X20130224'
p101
sg4
S'20130223\xc2\xa08:36PM UTC'
p102
sg6
S'Factbox: List of winners at the Independent Spirit Awards'
p103
sa(dp104
g2
S'http://www.reuters.com/article/2013/02/24/idUSnHUG1dkm7a+1c0+ONE20130224'
p105
sg4
S'20130223\xc2\xa08:30PM UTC'
p106
sg6
S'COPEINCA ASA 2012 ANNUAL REPORT'
p107
sa(dp108
g2
S'http://www.reuters.com/article/2013/02/24/ca-oneoc-idUSnBw7hcB64a+108+BSW20130224'
p109
sg4
S'20130223\xc2\xa08:23PM UTC'
p110
sg6
S'500 Community and Company Volunteers Join Forces to Improve Oak View Neighborhood'
p111
sa(dp112
g2
S'http://www.reuters.com/article/2013/02/24/japan-economy-boj-nominee-idUSL4N0BM1QZ20130224'
p113
sg4
S'20130223\xc2\xa08:18PM UTC'
p114
sg6
S'BOJ contest becoming more open race as Muto loses momentum'
p115
sa(dp116
g2
S'http://www.reuters.com/article/2013/02/24/ca-alcoholjustcemayor-idUSnPnDC65287+160+PRN20130224'
p117
sg4
S'20130223\xc2\xa07:58PM UTC'
p118
sg6
S'L.A. Mayoral Candidates to Focus on Alcohol Issues'
p119
sa(dp120
g2
S'http://www.reuters.com/article/2013/02/24/us-usa-states-governors-idUSBRE91N00E20130224'
p121
sg4
S'20130223\xc2\xa07:57PM UTC'
p122
sg6
S'Governors press for alternative to impending spending cuts'
p123
sa(dp124
g2
S'http://www.reuters.com/article/2013/02/24/idUS171267082920130224'
p125
sg4
S'20130223\xc2\xa07:56PM UTC'
p126
sg6
S'Don\xe2\x80\x99t let doctors\xe2\x80\x99 incomes derail healthcare-cost reform'
p127
sa(dp128
g2
S'http://www.reuters.com/article/2013/02/24/idUSnMKW111a+70+MKW20130224'
p129
sg4
S'20130223\xc2\xa07:56PM UTC'
p130
sg6
S'CFIA/Health Hazard Alert: Certain Tega Brand Organic Lemon Hibiscus Green Rooibos Herbal Tea May Contain Salmonella Bacteria'
p131
sa(dp132
g2
S'http://www.reuters.com/article/2013/02/24/idUSnCCNPX2Na+fa+MKW20130224'
p133
sg4
S'20130223\xc2\xa07:56PM UTC'
p134
sg6
S'CFIA/Health Hazard Alert: Certain Tega Brand Organic Lemon Hibiscus Green Rooibos Herbal Tea May Contain Salmonella Bacteria'
p135
sa(dp136
g2
S'http://www.reuters.com/article/2013/02/24/usa-states-governors-idUSL1N0BO00420130224'
p137
sg4
S'20130223\xc2\xa07:54PM UTC'
p138
sg6
S'U.S. governors press for alternative to impending spending cuts'
p139
sa(dp140
g2
S'http://www.reuters.com/article/2013/02/24/ca-affymax-takeda-idUSnBw8XnGJfa+12c+BSW20130224'
p141
sg4
S'20130223\xc2\xa07:51PM UTC'
p142
sg6
S'Affymax and Takeda Announce a Nationwide Voluntary Recall of All Lots of OMONTYS\xc2\xae (peginesatide) Injection'
p143
sa(dp144
g2
S'http://www.reuters.com/article/2013/02/24/us-iran-drones-idUSBRE91N00A20130224'
p145
sg4
S'20130223\xc2\xa07:12PM UTC'
p146
sg6
S'Iran says it has brought down a foreign spy drone'
p147
sa(dp148
g2
S'http://www.reuters.com/article/2013/02/24/cyprus-idUSL6N0BN17M20130224'
p149
sg4
S'20130223\xc2\xa07:00PM UTC'
p150
sg6
S'Cyprus votes for president as clock ticks on bailout deal'
p151
sa(dp152
g2
S'http://www.reuters.com/article/2013/02/23/us-motorracing-nascar-daytona-idUSBRE91L11L20130223'
p153
sg4
S'20130223\xc2\xa06:42PM UTC'
p154
sg6
S'Fans, driver injured in crash at Daytona Speedway'
p155
sa(dp156
g2
S'http://www.reuters.com/article/2013/02/23/motorracing-nascar-daytona-idUSL1N0BN1PC20130223'
p157
sg4
S'20130223\xc2\xa06:35PM UTC'
p158
sg6
S'UPDATE 2-Fans, driver injured in crash at Daytona Speedway'
p159
sa(dp160
g2
S'http://www.reuters.com/article/2013/02/23/idUSnGNXUXFRTa+1fe+GNW20130223'
p161
sg4
S'20130223\xc2\xa06:05PM UTC'
p162
sg6
S'uTouchPOS "Business Starter Bundle" - A Complete POS Payment Processing Solution for $299'
p163
sa(dp164
g2
S'http://www.reuters.com/article/2013/02/23/us-bp-spill-offer-idUSBRE91M0AR20130223'
p165
sg4
S'20130223\xc2\xa05:05PM UTC'
p166
sg6
S'U.S. Justice, Gulf states crafting BP spill settlement'
p167
sa(dp168
g2
S'http://www.reuters.com/article/2013/02/23/bp-spill-offer-idUSL1N0BN1OL20130223'
p169
sg4
S'20130223\xc2\xa05:04PM UTC'
p170
sg6
S'UPDATE 1-U.S. Justice, Gulf states crafting BP spill settlement'
p171
sa(dp172
g2
S'http://www.reuters.com/article/2013/02/23/motorracing-nascar-daytona-idUSL1N0BN1OU20130223'
p173
sg4
S'20130223\xc2\xa05:03PM UTC'
p174
sg6
S'At least 10 cars in wreck at Daytona involving car of Kyle Larson'
p175
sa(dp176
g2
S'http://www.reuters.com/article/2013/02/23/us-spain-protests-idUSBRE91M0E220130223'
p177
sg4
S'20130223\xc2\xa04:57PM UTC'
p178
sg6
S'Tens of thousands in Spain protest economic policy, corruption'
p179
sa(dp180
g2
S'http://www.reuters.com/article/2013/02/23/colombia-rebels-idUSL1N0BN1MR20130223'
p181
sg4
S'20130223\xc2\xa04:21PM UTC'
p182
sg6
S'UPDATE 1-No military or verbal truce for FARC rebels, Colombia says'
p183
sa(dp184
g2
S'http://www.reuters.com/article/2013/02/23/idUSnGNXUXFRSa+1fe+GNW20130223'
p185
sg4
S'20130223\xc2\xa04:20PM UTC'
p186
sg6
S"Chunk Fitness Announces Completion of 'Shoulder Exercises' Library"
p187
sa(dp188
g2
S'http://www.reuters.com/article/2013/02/23/us-italy-vote-idUSBRE91M0EB20130223'
p189
sg4
S'20130223\xc2\xa04:17PM UTC'
p190
sg6
S'Italy urges high turnout in key election for euro zone'
p191
sa(dp192
g2
S'http://www.reuters.com/article/2013/02/23/italy-vote-idUSL6N0BN1VB20130223'
p193
sg4
S'20130223\xc2\xa04:13PM UTC'
p194
sg6
S'UPDATE 1-Italy urges high turnout in key election for euro zone'
p195
sa(dp196
g2
S'http://www.reuters.com/article/2013/02/23/cycling-track-world-idUSL4N0BN0EQ20130223'
p197
sg4
S'20130223\xc2\xa04:02PM UTC'
p198
sg6
S'Cycling-James and Gate win first world track titles in Minsk'
p199
sa(dp200
g2
S'http://www.reuters.com/article/2013/02/23/us-usa-lottery-missouri-idUSBRE91M0CB20130223'
p201
sg4
S'20130223\xc2\xa03:58PM UTC'
p202
sg6
S'Missouri Powerball winners live modestly, give back to hometown'
p203
sa(dp204
g2
S'http://www.reuters.com/article/2013/02/23/idUSnMKW89486a+1c0+MKW20130223'
p205
sg4
S'20130223\xc2\xa03:57PM UTC'
p206
sg6
S'Benefit Outsourcing Solutions Appoints Jennifer Jones as Chief Executive Officer'
p207
sa(dp208
g2
S'http://www.reuters.com/article/2013/02/23/us-turkey-kurds-idUSBRE91M0CI20130223'
p209
sg4
S'20130223\xc2\xa03:54PM UTC'
p210
sg6
S'Kurdish militant leader signals Turkish prisoners may be freed'
p211
sa(dp212
g2
S'http://www.reuters.com/article/2013/02/23/wood-resources-intl-idUSnBw2jXvQ1a+114+BSW20130223'
p213
sg4
S'20130223\xc2\xa03:44PM UTC'
p214
sg6
S'Wood Resources International LLC: Global supply, demand, pricing and logistics of pulpwood and biomass focus at 6th International Woodfibre Resource and Trade Conference'
p215
sa(dp216
g2
S'http://www.reuters.com/article/2013/02/23/us-rbs-citizens-ipo-idUSBRE91M0CG20130223'
p217
sg4
S'20130223\xc2\xa03:43PM UTC'
p218
sg6
S'RBS seen planning Citizens Financial IPO'
p219
sa(dp220
g2
S'http://www.reuters.com/article/2013/02/23/rbs-citizens-ipo-idUSL1N0BN1E720130223'
p221
sg4
S'20130223\xc2\xa03:41PM UTC'
p222
sg6
S'CORRECTED-RBS seen planning Citizens Financial IPO'
p223
sa(dp224
g2
S'http://www.reuters.com/article/2013/02/23/va-american-trucking-idUSnPnDC65282+160+PRN20130223'
p225
sg4
S'20130223\xc2\xa03:21PM UTC'
p226
sg6
S'Virginia General Assembly Passes Legislation Opposing Tolls on I-95'
p227
sa(dp228
g2
S'http://www.reuters.com/article/2013/02/23/us-yemen-austria-hostage-idUSBRE91M0DV20130223'
p229
sg4
S'20130223\xc2\xa02:59PM UTC'
p230
sg6
S'Austrian Yemen hostage appeals for ransom in video'
p231
sa(dp232
g2
S'http://www.reuters.com/article/2013/02/23/ca-creative-productio-idUSnPnLA65281+160+PRN20130223'
p233
sg4
S'20130223\xc2\xa02:44PM UTC'
p234
sg6
S'"Crosstown Showdown" Featuring USC vs. UCLA Tips Off Feb. 24'
p235
sa(dp236
g2
S'http://www.reuters.com/article/2013/02/23/us-france-farmers-idUSBRE91M0DB20130223'
p237
sg4
S'20130223\xc2\xa02:34PM UTC'
p238
sg6
S"France's Hollande hails quality meat at farm show"
p239
sa(dp240
g2
S'http://www.reuters.com/article/2013/02/23/us-horsemeat-france-bute-idUSBRE91M0DH20130223'
p241
sg4
S'20130223\xc2\xa02:34PM UTC'
p242
sg6
S'Horsemeat with banned drug entered French food chain'
p243
sa(dp244
g2
S'http://www.reuters.com/article/2013/02/23/horsemeat-france-bute-idUSL6N0BN1O020130223'
p245
sg4
S'20130223\xc2\xa02:32PM UTC'
p246
sg6
S'Horsemeat with banned drug entered French food chain'
p247
sa(dp248
g2
S'http://www.reuters.com/article/2013/02/23/turkey-tender-idUSL6N0BN1O620130223'
p249
sg4
S'20130223\xc2\xa02:31PM UTC'
p250
sg6
S'Turkish PM says may hold IPO after cancelling highway tender'
p251
sa(dp252
g2
S'http://www.reuters.com/article/2013/02/23/france-farmers-idUSL6N0BM3VY20130223'
p253
sg4
S'20130223\xc2\xa02:22PM UTC'
p254
sg6
S"France's Hollande hails quality meat at farm show"
p255
sa(dp256
g2
S'http://www.reuters.com/article/2013/02/23/us-tennis-women-dubai-idUSBRE91M0BE20130223'
p257
sg4
S'20130223\xc2\xa02:18PM UTC'
p258
sg6
S'Kvitova claims 10th tour title with Dubai victory'
p259
sa(dp260
g2
S'http://www.reuters.com/article/2013/02/23/us-india-italy-marines-idUSBRE91M0D520130223'
p261
sg4
S'20130223\xc2\xa02:17PM UTC'
p262
sg6
S'Italian marines held in India return home to vote'
p263
sa(dp264
g2
S'http://www.reuters.com/article/2013/02/23/india-italy-marines-idUSL6N0BN1JW20130223'
p265
sg4
S'20130223\xc2\xa02:13PM UTC'
p266
sg6
S'Italian marines held in India return home to vote'
p267
sa(dp268
g2
S'http://www.reuters.com/article/2013/02/23/idUSnMKW89480a+1c0+MKW20130223'
p269
sg4
S'20130223\xc2\xa02:12PM UTC'
p270
sg6
S'Celebrity Stylist Eric Archibald to Give Fashion Commentary on E! Live From The Red Carpet'
p271
sa(dp272
g2
S'http://www.reuters.com/article/2013/02/23/us-sudan-darfur-idUSBRE91M0D120130223'
p273
sg4
S'20130223\xc2\xa02:10PM UTC'
p274
sg6
S"More fighting erupts in Sudan's Darfur region"
p275
sa(dp276
g2
S'http://www.reuters.com/article/2013/02/23/idUSnMKW109a+70+MKW20130223'
p277
sg4
S'20130223\xc2\xa02:06PM UTC'
p278
sg6
S'Minister Clement Speed Dates for International Open Data Day'
p279
sa(dp280
g2
S'http://www.reuters.com/article/2013/02/23/idUSnCCN1pszLa+1c2+MKW20130223'
p281
sg4
S'20130223\xc2\xa02:06PM UTC'
p282
sg6
S'Minister Clement Speed Dates for International Open Data Day'
p283
sa(dp284
g2
S'http://www.reuters.com/article/2013/02/23/us-britain-osborne-idUSBRE91M0BW20130223'
p285
sg4
S'20130223\xc2\xa02:04PM UTC'
p286
sg6
S'UK downgrade pressures reluctant Osborne to change course'
p287
sa(dp288
g2
S'http://www.reuters.com/article/2013/02/23/us-usa-snowstorm-idUSBRE91K03820130223'
p289
sg4
S'20130223\xc2\xa01:54PM UTC'
p290
sg6
S'Third straight weekend storm heads for New England'
p291
sa(dp292
g2
S'http://www.reuters.com/article/2013/02/23/us-palestinians-israel-prisoner-idUSBRE91M0CT20130223'
p293
sg4
S'20130223\xc2\xa01:51PM UTC'
p294
sg6
S'Palestinians demand inquiry into death in an Israeli jail'
p295
sa(dp296
g2
S'http://www.reuters.com/article/2013/02/23/usa-snowstorm-idUSL1N0BN19J20130223'
p297
sg4
S'20130223\xc2\xa01:50PM UTC'
p298
sg6
S'UPDATE 1-Third straight weekend storm heads for New England'
p299
sa(dp300
g2
S'http://www.reuters.com/article/2013/02/23/us-tunisia-politics-protest-idUSBRE91M0AZ20130223'
p301
sg4
S'20130223\xc2\xa01:35PM UTC'
p302
sg6
S'Tunisian secularists protest against new Islamist PM'
p303
sa(dp304
g2
S'http://www.reuters.com/article/2013/02/23/us-afghanistan-mining-idUSBRE91M0C920130223'
p305
sg4
S'20130223\xc2\xa01:32PM UTC'
p306
sg6
S'Afghan cabinet gives preliminary approval to delayed mining law'
p307
sa(dp308
g2
S'http://www.reuters.com/article/2013/02/23/usa-lottery-missouri-idUSL1N0BN06S20130223'
p309
sg4
S'20130223\xc2\xa01:26PM UTC'
p310
sg6
S'Missouri Powerball winners live modestly, give back to hometown'
p311
sa(dp312
g2
S'http://www.reuters.com/article/2013/02/23/us-usa-crime-mit-idUSBRE91M09320130223'
p313
sg4
S'20130223\xc2\xa01:26PM UTC'
p314
sg6
S'False report led to MIT campus lockdown: police'
p315
sa(dp316
g2
S'http://www.reuters.com/article/2013/02/23/afghanistan-mining-idUSL4N0BN0BZ20130223'
p317
sg4
S'20130223\xc2\xa01:25PM UTC'
p318
sg6
S'Afghan cabinet gives preliminary approval to delayed mining law'
p319
sa(dp320
g2
S'http://www.reuters.com/article/2013/02/23/idUSnPRrN68D8a+1a4+PRN20130223'
p321
sg4
S'20130223\xc2\xa01:18PM UTC'
p322
sg6
S'REG-Not Available: Test Message'
p323
sa(dp324
g2
S'http://www.reuters.com/article/2013/02/23/dc-fmcs-update-idUSnPnDC65276+160+PRN20130223'
p325
sg4
S'20130223\xc2\xa01:09PM UTC'
p326
sg6
S'Update on Labor Negotiations Between The Boeing Company And the Society for Professional Engineering Employees in Aerospace'
p327
sa(dp328
g2
S'http://www.reuters.com/article/2013/02/23/us-egypt-parliament-idUSBRE91M03S20130223'
p329
sg4
S'20130223\xc2\xa01:08PM UTC'
p330
sg6
S'Egypt parliament election start moved to April 22'
p331
sa(dp332
g2
S'http://www.reuters.com/article/2013/02/23/ia-grinnell-needblind-idUSnPnNY65277+160+PRN20130223'
p333
sg4
S'20130223\xc2\xa01:04PM UTC'
p334
sg6
S'Grinnell College Will Remain Need-Blind - For Now'
p335
sa(dp336
g2
S'http://www.reuters.com/article/2013/02/23/us-yemen-south-clashes-idUSBRE91M05O20130223'
p337
sg4
S'20130223\xc2\xa012:55PM UTC'
p338
sg6
S'Yemen security chief escapes gunmen as three die in south'
p339
sa(dp340
g2
S'http://www.reuters.com/article/2013/02/23/us-benin-france-idUSBRE91M0BR20130223'
p341
sg4
S'20130223\xc2\xa012:48PM UTC'
p342
sg6
S'France warns of kidnappings, attack risk in Benin'
p343
sa(dp344
g2
S'http://www.reuters.com/article/2013/02/23/idUSnPreK5nYTa+126+PRN20130223'
p345
sg4
S'20130223\xc2\xa012:40PM UTC'
p346
sg6
S'Ukrainian Parliament Votes for EU Integration'
p347
sa(dp348
g2
S'http://www.reuters.com/article/2013/02/23/entertainment-us-italy-fashion-craftsman-idUSBRE91M0BL20130223'
p349
sg4
S'20130223\xc2\xa012:38PM UTC'
p350
sg6
S'Italian designers celebrate sartorial craft at Milan shows'
p351
sa(dp352
g2
S'http://www.reuters.com/article/2013/02/23/us-turkey-patriots-idUSBRE91M09J20130223'
p353
sg4
S'20130223\xc2\xa012:36PM UTC'
p354
sg6
S'Patriots in Turkey send clear warning to Syria: Germany'
p355
sa(dp356
g2
S'http://www.reuters.com/article/2013/02/23/italy-fashion-craftsmanship-idUSL6N0BN0TA20130223'
p357
sg4
S'20130223\xc2\xa012:34PM UTC'
p358
sg6
S'Italian designers celebrate sartorial craft at Milan shows'
p359
sa(dp360
g2
S'http://www.reuters.com/article/2013/02/23/us-maldives-nasheed-idUSBRE91M0BG20130223'
p361
sg4
S'20130223\xc2\xa012:33PM UTC'
p362
sg6
S'Maldives ex-president leaves Indian embassy refuge'
p363
sa(dp364
g2
S'http://www.reuters.com/article/2013/02/23/us-germany-turkey-idUSBRE91M06J20130223'
p365
sg4
S'20130223\xc2\xa012:29PM UTC'
p366
sg6
S'Merkel backs new EU talks for Turkey but has doubts'
p367
sa(dp368
g2
S'http://www.reuters.com/article/2013/02/23/entertainment-us-oscars-idUSBRE91M07X20130223'
p369
sg4
S'20130223\xc2\xa012:28PM UTC'
p370
sg6
S'Oscar show promises music, megastars and James Bond'
p371
sa(dp372
g2
S'http://www.reuters.com/article/2013/02/23/colombia-cerrejon-idUSL1N0BN16Z20130223'
p373
sg4
S'20130223\xc2\xa012:27PM UTC'
p374
sg6
S"Colombia's Cerrejon, coal union may restart wage talks on Monday"
p375
sa(dp376
g2
S'http://www.reuters.com/article/2013/02/23/us-germany-alvaro-crash-idUSBRE91M0B620130223'
p377
sg4
S'20130223\xc2\xa012:18PM UTC'
p378
sg6
S'European Parliament Deputy President injured in car crash'
p379
sa(dp380
g2
S'http://www.reuters.com/article/2013/02/23/us-usa-auction-sports-idUSBRE91M0AW20130223'
p381
sg4
S'20130223\xc2\xa012:14PM UTC'
p382
sg6
S'"Miracle on Ice" hockey jersey, Red Sox bloody sock go on sale'
p383
sa(dp384
g2
S'http://www.reuters.com/article/2013/02/23/us-safrica-pistorius-idUSBRE91K0FN20130223'
p385
sg4
S'20130223\xc2\xa012:11PM UTC'
p386
sg6
S"Pistorius must live with his conscience - slain girlfriend's father"
p387
sa(dp388
g2
S'http://www.reuters.com/article/2013/02/23/dc-delta-sigma-theta-idUSnPnDC65261+160+PRN20130223'
p389
sg4
S'20130223\xc2\xa012:07PM UTC'
p390
sg6
S'Delta Sigma Theta Sorority Celebrates 100 years of Service and Social Advocacy'
p391
sa(dp392
g2
S'http://www.reuters.com/article/2013/02/23/boehringer-ingelheim-idUSnPnNY64751+160+PRN20130223'
p393
sg4
S'20130223\xc2\xa012:07PM UTC'
p394
sg6
S'Boehringer Ingelheim Presents Efficacy Data for Tiotropium in Symptomatic Asthma Patients in Relation to Allergic Status'
p395
sa(dp396
g2
S'http://www.reuters.com/article/2013/02/23/mylan-hiv-portfolio-idUSnPnNE64429+160+PRN20130223'
p397
sg4
S'20130223\xc2\xa012:07PM UTC'
p398
sg6
S'Mylan Launches Innovative Portfolio of Antiretroviral Products for Treatment of HIV/AIDS in South Africa'
p399
sa(dp400
g2
S'http://www.reuters.com/article/2013/02/23/wa-microsoft-corp-idUSnPnSF65240+160+PRN20130223'
p401
sg4
S'20130223\xc2\xa012:07PM UTC'
p402
sg6
S'Windows 8 App Allows Toyota Racing Development to Set the Pace'
p403
sa(dp404
g2
S'http://www.reuters.com/article/2013/02/23/co-red-robin-winner-idUSnPnNY65266+160+PRN20130223'
p405
sg4
S'20130223\xc2\xa012:07PM UTC'
p406
sg6
S'Smashed Smoke Burger Wins Over Judges\' Taste Buds and a Spot on the Menu as Red Robin\'s "Best of the Bash" at the Food Network South Beach Wine & Food Festival'
p407
sa(dp408
g2
S'http://www.reuters.com/article/2013/02/23/md-vz-black-history-idUSnPnNY65252+160+PRN20130223'
p409
sg4
S'20130223\xc2\xa012:07PM UTC'
p410
sg6
S'Verizon Supports Cultural Diversity in Maryland With a Free Black History Month Open House at the Reginald F. Lewis Museum'
p411
sa(dp412
g2
S'http://www.reuters.com/article/2013/02/23/dick-cheney-keynote-idUSnPnDC65234+160+PRN20130223'
p413
sg4
S'20130223\xc2\xa012:07PM UTC'
p414
sg6
S'Former Vice President Dick Cheney and Liz Cheney to jointly deliver Keynote Dinner Address for 5th Annual Steamboat Institute Freedom Conference -- August 23, 2013'
p415
sa(dp416
g2
S'http://www.reuters.com/article/2013/02/23/atssa-traffic-expo-idUSnPnDC62791+160+PRN20130223'
p417
sg4
S'20130223\xc2\xa012:07PM UTC'
p418
sg6
S'Roadway Safety Group Exhibiting Lifesaving, Innovative Products In San Diego'
p419
sa(dp420
g2
S'http://www.reuters.com/article/2013/02/23/idUSnMKW108a+70+MKW20130223'
p421
sg4
S'20130223\xc2\xa012:00PM UTC'
p422
sg6
S'Harper Government Lifts Cap on Polio Matching Fund'
p423
sa(dp424
g2
S'http://www.reuters.com/article/2013/02/23/idUSnCCN3xfbBa+1c2+MKW20130223'
p425
sg4
S'20130223\xc2\xa012:00PM UTC'
p426
sg6
S'Harper Government Lifts Cap on Polio Matching Fund'
p427
sa(dp428
g2
S'http://www.reuters.com/article/2013/02/23/us-usa-florida-basketball-idUSBRE91M0AL20130223'
p429
sg4
S'20130223\xc2\xa011:54AM UTC'
p430
sg6
S'Pint-sized Florida youth a basketball prodigy'
p431
sa(dp432
g2
S'http://www.reuters.com/article/2013/02/23/safrica-pistorius-idUSL6N0BN14E20130223'
p433
sg4
S'20130223\xc2\xa011:54AM UTC'
p434
sg6
S"Pistorius must live with his conscience - slain girlfriend's father"
p435
sa(dp436
g2
S'http://www.reuters.com/article/2013/02/23/uae-university-conference-idUSL6N0BN0QF20130223'
p437
sg4
S'20130223\xc2\xa011:46AM UTC'
p438
sg6
S"UK's LSE cancels Arab Spring forum in UAE, citing local curbs"
p439
sa(dp440
g2
S'http://www.reuters.com/article/2013/02/23/bp-spill-offer-idUSL1N0BN16W20130223'
p441
sg4
S'20130223\xc2\xa011:43AM UTC'
p442
sg6
S'U.S. Justice, Gulf states crafting BP oil spill settlement deal -WSJ'
p443
sa(dp444
g2
S'http://www.reuters.com/article/2013/02/23/us-cyprus-russia-idUSBRE91M0AA20130223'
p445
sg4
S'20130223\xc2\xa011:42AM UTC'
p446
sg6
S'In Cyprus port, Russian money flows freely'
p447
sa(dp448
g2
S'http://www.reuters.com/article/2013/02/23/canada-biofuels-idUSL1N0BN0WU20130223'
p449
sg4
S'20130223\xc2\xa011:40AM UTC'
p450
sg6
S'Canada to end biofuel subsidy in 2017 -report'
p451
sa(dp452
g2
S'http://www.reuters.com/article/2013/02/23/entertainment-us-russia-depardieu-idUSBRE91M0A520130223'
p453
sg4
S'20130223\xc2\xa011:37AM UTC'
p454
sg6
S'Actor Depardieu picks Russian abode far from French taxes'
p455
sa(dp456
g2
S'http://www.reuters.com/article/2013/02/23/us-eni-rosneft-idUSBRE91M0A320130223'
p457
sg4
S'20130223\xc2\xa011:32AM UTC'
p458
sg6
S'Eni, Rosneft strengthen cooperation through logistics deal'
p459
sa(dp460
g2
S'http://www.reuters.com/article/2013/02/23/tx-boehringer-ingelheim-idUSnBw9WXhgha+130+BSW20130223'
p461
sg4
S'20130223\xc2\xa011:28AM UTC'
p462
sg6
S'Phase III results: tiotropium* Respimat\xc2\xae is effective in symptomatic asthma patients irrespective of their allergic status'
p463
sa(dp464
g2
S'http://www.reuters.com/article/2013/02/23/usa-snowstorm-idUSL1N0BN0WT20130223'
p465
sg4
S'20130223\xc2\xa011:22AM UTC'
p466
sg6
S'Third straight weekend storm heads towards New England'
p467
sa(dp468
g2
S'http://www.reuters.com/article/2013/02/23/idUSnHUGLLcyka+1f0+ONE20130223'
p469
sg4
S'20130223\xc2\xa011:08AM UTC'
p470
sg6
S'Ericsson heterogeneous network advantages confirmed in live networks'
p471
sa(dp472
g2
S'http://www.reuters.com/article/2013/02/23/us-palestinians-israel-idUSBRE91M09Q20130223'
p473
sg4
S'20130223\xc2\xa010:56AM UTC'
p474
sg6
S'Palestinian wounded in clashes with settlers, army'
p475
sa(dp476
g2
S'http://www.reuters.com/article/2013/02/23/us-france-budget-idUSBRE91M07T20130223'
p477
sg4
S'20130223\xc2\xa010:51AM UTC'
p478
sg6
S'France to pause austerity, cut spending next year instead: Hollande'
p479
sa(dp480
g2
S'http://www.reuters.com/article/2013/02/23/idUS179087811620130223'
p481
sg4
S'20130223\xc2\xa010:47AM UTC'
p482
sg6
S'Vatican accuses Italian media of \xe2\x80\x9cfalse and damaging\xe2\x80\x9d reports ahead of conclave'
p483
sa(dp484
g2
S'http://www.reuters.com/article/2013/02/23/us-mali-rebels-chad-idUSBRE91M09820130223'
p485
sg4
S'20130223\xc2\xa010:41AM UTC'
p486
sg6
S"Chadians attack Islamists' Mali mountain hideout"
p487
sa(dp488
g2
S'http://www.reuters.com/article/2013/02/23/turkey-patriots-idUSL6N0BN0S420130223'
p489
sg4
S'20130223\xc2\xa010:33AM UTC'
p490
sg6
S'Patriots in Turkey send clear warning to Syria - Germany'
p491
sa(dp492
g2
S'http://www.reuters.com/article/2013/02/23/us-djibouti-election-idUSBRE91M09120130223'
p493
sg4
S'20130223\xc2\xa010:05AM UTC'
p494
sg6
S'Djibouti ruling party declares election victory, opposition says flawed'
p495
sa(dp496
g2
S'http://www.reuters.com/article/2013/02/23/us-pope-resignation-media-idUSBRE91M08W20130223'
p497
sg4
S'20130223\xc2\xa09:55AM UTC'
p498
sg6
S'Vatican accuses Italian media of false reports ahead of conclave'
p499
sa(dp500
g2
S'http://www.reuters.com/article/2013/02/23/pope-resignation-media-idUSL6N0BN0QC20130223'
p501
sg4
S'20130223\xc2\xa09:52AM UTC'
p502
sg6
S'Vatican accuses Italian media of false reports ahead of conclave'
p503
sa(dp504
g2
S'http://www.reuters.com/article/2013/02/23/us-spain-corruption-idUSBRE91M06L20130223'
p505
sg4
S'20130223\xc2\xa09:48AM UTC'
p506
sg6
S"Spain grumbles as king's son-in-law appears in court"
p507
sa(dp508
g2
S'http://www.reuters.com/article/2013/02/23/us-iran-nuclear-idUSBRE91M07920130223'
p509
sg4
S'20130223\xc2\xa09:47AM UTC'
p510
sg6
S'Iran announces uranium finds, days before nuclear talks'
p511
sa(dp512
g2
S'http://www.reuters.com/article/2013/02/23/vietnam-economy-inflation-idUSL4N0BK1BR20130223'
p513
sg4
S'20130223\xc2\xa09:42AM UTC'
p514
sg6
S'TABLE-Vietnam Feb annual inflation at 7.02 pct y/y-govt'
p515
sa(dp516
g2
S'http://www.reuters.com/article/2013/02/23/djibouti-election-idUSL6N0BN08E20130223'
p517
sg4
S'20130223\xc2\xa09:39AM UTC'
p518
sg6
S'Djibouti ruling party declares election victory, opposition says flawed'
p519
sa(dp520
g2
S'http://www.reuters.com/article/2013/02/23/us-italy-vote-idUSBRE91M08K20130223'
p521
sg4
S'20130223\xc2\xa09:38AM UTC'
p522
sg6
S'Italy urges high turnout in critical election for euro zone'
p523
sa(dp524
g2
S'http://www.reuters.com/article/2013/02/23/us-fennovoima-rosatom-idUSBRE91M08I20130223'
p525
sg4
S'20130223\xc2\xa09:34AM UTC'
p526
sg6
S"Russia's Rosatom says in talks with Finnish firm on nuclear reactor"
p527
sa(dp528
g2
S'http://www.reuters.com/article/2013/02/23/us-egypt-elbaradei-idUSBRE91M08E20130223'
p529
sg4
S'20130223\xc2\xa09:30AM UTC'
p530
sg6
S'Egyptian opposition politician demands election boycott'
p531
sa(dp532
g2
S'http://www.reuters.com/article/2013/02/23/italy-vote-idUSL6N0BN0C320130223'
p533
sg4
S'20130223\xc2\xa09:29AM UTC'
p534
sg6
S'Italy urges high turnout in critical election for euro zone'
p535
sa(dp536
g2
S'http://www.reuters.com/article/2013/02/23/us-soccer-ghana-paintsil-idUSBRE91M08A20130223'
p537
sg4
S'20130223\xc2\xa09:20AM UTC'
p538
sg6
S'Ghana defender Paintsil arrested after wife attacked: police'
p539
sa(dp540
g2
S'http://www.reuters.com/article/2013/02/23/entertainment-us-oscars-zerodarkthirty-m-idUSBRE91M06Q20130223'
p541
sg4
S'20130223\xc2\xa09:16AM UTC'
p542
sg6
S"Oracle CEO Ellison's daughter pans for Oscar gold"
p543
sa(dp544
g2
S'http://www.reuters.com/article/2013/02/23/us-usa-weather-drought-idUSBRE91L0KE20130223'
p545
sg4
S'20130223\xc2\xa09:13AM UTC'
p546
sg6
S'Snow welcomed but more moisture needed in dry Plains'
p547
sa(dp548
g2
S'http://www.reuters.com/article/2013/02/23/us-apple-einhorn-idUSBRE91L14I20130223'
p549
sg4
S'20130223\xc2\xa09:11AM UTC'
p550
sg6
S'Einhorn scores legal victory versus Apple in cash scuffle'
p551
sa(dp552
g2
S'http://www.reuters.com/article/2013/02/23/ca-golden-gate-univ-idUSnBw1TmnVZa+126+BSW20130223'
p553
sg4
S'20130223\xc2\xa09:00AM UTC'
p554
sg6
S'Interviews Available with GGU Tax Wizards and Bay Area Filers at Goodwill Today in San Francisco'
p555
sa(dp556
g2
S'http://www.reuters.com/article/2013/02/23/oscars-idUSL1N0BN0EE20130223'
p557
sg4
S'20130223\xc2\xa08:59AM UTC'
p558
sg6
S'Oscar show promises music, megastars and James Bond'
p559
sa(dp560
g2
S'http://www.reuters.com/article/2013/02/23/iran-nuclear-idUSL6N0BN0MQ20130223'
p561
sg4
S'20130223\xc2\xa08:50AM UTC'
p562
sg6
S'UPDATE 2-Iran announces uranium finds, days before nuclear talks'
p563
sa(dp564
g2
S'http://www.reuters.com/article/2013/02/23/us-egypt-elbaradei-idUSBRE91M05Y20130223'
p565
sg4
S'20130223\xc2\xa08:40AM UTC'
p566
sg6
S'Egyptian opposition politician demands election boycott'
p567
sa(dp568
g2
S'http://www.reuters.com/article/2013/02/23/us-alpine-skiing-men-idUSBRE91M07K20130223'
p569
sg4
S'20130223\xc2\xa08:39AM UTC'
p570
sg6
S'Innerhofer keeps Austrians at bay in Garmisch'
p571
sa(dp572
g2
S'http://www.reuters.com/article/2013/02/23/us-alpine-skiing-women-idUSBRE91M07I20130223'
p573
sg4
S'20130223\xc2\xa08:37AM UTC'
p574
sg6
S'Ruiz Castillo gives Spain first downhill win'
p575
sa(dp576
g2
S'http://www.reuters.com/article/2013/02/23/us-horsemeat-france-idUSBRE91M05J20130223'
p577
sg4
S'20130223\xc2\xa08:34AM UTC'
p578
sg6
S"France's Hollande urges compulsory labeling amid horsemeat scandal"
p579
sa(dp580
g2
S'http://www.reuters.com/article/2013/02/23/us-horsemeat-nestle-idUSBRE91M06X20130223'
p581
sg4
S'20130223\xc2\xa08:34AM UTC'
p582
sg6
S'Italy finds no trace of horse DNA in Nestle mince meals'
p583
sa(dp584
g2
S'http://www.reuters.com/article/2013/02/23/idUSnMKW107a+70+MKW20130223'
p585
sg4
S'20130223\xc2\xa08:32AM UTC'
p586
sg6
S'The Fraser Institute: 42 Elementary Schools Across Alberta Score Improvement in Fraser Institute School Rankings'
p587
sa(dp588
g2
S'http://www.reuters.com/article/2013/02/23/horsemeat-nestle-idUSL6N0BN0MF20130223'
p589
sg4
S'20130223\xc2\xa08:28AM UTC'
p590
sg6
S'UPDATE 1-Italy finds no trace of horse DNA in Nestle mince meals'
p591
sa(dp592
g2
S'http://www.reuters.com/article/2013/02/23/idUSnHUGj7k8Za+1c2+ONE20130223'
p593
sg4
S'20130223\xc2\xa08:00AM UTC'
p594
sg6
S'O-I Campaign Raises More Than $765,000 for United Way'
p595
sa(dp596
g2
S'http://www.reuters.com/article/2013/02/23/co-dish-network-idUSnBw9Yr3rFa+122+BSW20130223'
p597
sg4
S'20130223\xc2\xa08:00AM UTC'
p598
sg6
S'DISH Hopper Jumps into the Daytona 500, Appears on FOX Despite Network Censorship of the Brand'
p599
sa(dp600
g2
S'http://www.reuters.com/article/2013/02/23/idUSnGNXUXFRQa+1fe+GNW20130223'
p601
sg4
S'20130223\xc2\xa07:40AM UTC'
p602
sg6
S'Rosen Law Firm Files Securities Fraud Class Action Against Poseidon Concepts Corp.-- POOSF'
p603
sa(dp604
g2
S'http://www.reuters.com/article/2013/02/23/kingdom-dividends-idUSL6N0BN0HQ20130223'
p605
sg4
S'20130223\xc2\xa07:31AM UTC'
p606
sg6
S'Kingdom Holding to pay $147 million in dividends'
p607
sa(dp608
g2
S'http://www.reuters.com/article/2013/02/23/idUSnMKW106a+70+MKW20130223'
p609
sg4
S'20130223\xc2\xa07:00AM UTC'
p610
sg6
S"REPEAT-BMO Study: Mutual Funds Are Backbone of Canadians' RRSPs"
p611
sa(dp612
g2
S'http://www.reuters.com/article/2013/02/23/iran-nuclear-idUSL6N0BN0JY20130223'
p613
sg4
S'20130223\xc2\xa06:40AM UTC'
p614
sg6
S'Iran announces uranium discovery days before nuclear talks'
p615
sa(dp616
g2
S'http://www.reuters.com/article/2013/02/23/la-get-city-dealz-idUSnBw6S0J2Va+12a+BSW20130223'
p617
sg4
S'20130223\xc2\xa06:30AM UTC'
p618
sg6
S'Get City Dealz and Glam 504: Two Small Town Pennsylvania Women Team Up to Bring Two Great Businesses to New Orleans'
p619
sa(dp620
g2
S'http://www.reuters.com/article/2013/02/23/horsemeat-nestle-idUSL6N0BN0GI20130223'
p621
sg4
S'20130223\xc2\xa06:09AM UTC'
p622
sg6
S'No trace of horse DNA in Nestle minced beef-Italy ministry'
p623
sa(dp624
g2
S'http://www.reuters.com/article/2013/02/23/inida-cbank-minutes-idUSL4N0BN08F20130223'
p625
sg4
S'20130223\xc2\xa06:04AM UTC'
p626
sg6
S'India cbank chief endorses advisors on policy rate cut'
p627
sa(dp628
g2
S'http://www.reuters.com/article/2013/02/23/idUSnGNXUXFPCa+1fe+GNW20130223'
p629
sg4
S'20130223\xc2\xa06:00AM UTC'
p630
sg6
S'Glancy Binkow & Goldberg Encourages Investors to Inquire About a Lead Plaintiff Position in the Class Action Lawsuit Against Longwei Petroleum Investment Holding Limited -- LPH'
p631
sa(dp632
g2
S'http://www.reuters.com/article/2013/02/23/pa-law-offc-howard-smith-idUSnBw5GgyJYa+126+BSW20130223'
p633
sg4
S'20130223\xc2\xa06:00AM UTC'
p634
sg6
S'Law Offices of Howard G. Smith Announces Class Action Lawsuit Against Cirrus Logic, Inc.'
p635
sa(dp636
g2
S'http://www.reuters.com/article/2013/02/23/ca-glancy-binkow-idUSnBw1XPcMja+134+BSW20130223'
p637
sg4
S'20130223\xc2\xa06:00AM UTC'
p638
sg6
S'Glancy Binkow & Goldberg LLP Announces Lead Plaintiff Deadline in the Class Action Lawsuit AgainstCommonWealth REIT'
p639
sa(dp640
g2
S'http://www.reuters.com/article/2013/02/23/ca-law-offc-todd-garber-idUSnBw9NhY3ka+128+BSW20130223'
p641
sg4
S'20130223\xc2\xa06:00AM UTC'
p642
sg6
S'Law Offices of Todd M. Garber Announces Class Action Lawsuit Against Yum! Brands, Inc.'
p643
sa(dp644
g2
S'http://www.reuters.com/article/2013/02/23/pa-law-offc-howard-smith-idUSnBw8NCTs1a+138+BSW20130223'
p645
sg4
S'20130223\xc2\xa06:00AM UTC'
p646
sg6
S'Law Offices of Howard G. Smith Announces Investigation of VeriSign, Inc.'
p647
sa(dp648
g2
S'http://www.reuters.com/article/2013/02/23/oscars-zerodarkthirty-meganellison-idUSL1E9CBFAK20130223'
p649
sg4
S'20130223\xc2\xa05:59AM UTC'
p650
sg6
S"Oracle CEO Ellison's daughter pans for Oscar gold"
p651
sa(dp652
g2
S'http://www.reuters.com/article/2013/02/23/ca-jasper-wireless-idUSnBw68dtLFa+106+BSW20130223'
p653
sg4
S'20130223\xc2\xa05:47AM UTC'
p654
sg6
S'Mobily and Jasper Wireless Partner to Power M2M in Saudi Arabia'
p655
sa(dp656
g2
S'http://www.reuters.com/article/2013/02/23/icbc-mideast-profits-idUSL6N0BN0FV20130223'
p657
sg4
S'20130223\xc2\xa05:37AM UTC'
p658
sg6
S'ICBC Middle East 2012 profit jumps 69 percent'
p659
sa(dp660
g2
S'http://www.reuters.com/article/2013/02/23/us-swiss-italy-tax-idUSBRE91M06F20130223'
p661
sg4
S'20130223\xc2\xa05:34AM UTC'
p662
sg6
S'"Difficult" for Swiss-Italian tax deal to start before 2015'
p663
sa(dp664
g2
S'http://www.reuters.com/article/2013/02/23/srilanka-fuel-price-idUSL4N0BN08820130223'
p665
sg4
S'20130223\xc2\xa05:31AM UTC'
p666
sg6
S'Sri Lanka raises fuel prices to record to cut losses'
p667
sa(dp668
g2
S'http://www.reuters.com/article/2013/02/23/swiss-italy-tax-idUSL6N0BN0D420130223'
p669
sg4
S'20130223\xc2\xa05:21AM UTC'
p670
sg6
S'"Difficult" for Swiss-Italian tax deal to start before 2015'
p671
sa(dp672
g2
S'http://www.reuters.com/article/2013/02/23/us-rugby-super-hurricanes-idUSBRE91M05T20130223'
p673
sg4
S'20130223\xc2\xa04:37AM UTC'
p674
sg6
S'Blues give Kirwan winning start with Wellington win'
p675
sa(dp676
g2
S'http://www.reuters.com/article/2013/02/23/basilea-repayment-idUSL6N0BN0C220130223'
p677
sg4
S'20130223\xc2\xa04:33AM UTC'
p678
sg6
S'Basilea shareholder requests repayment of capital'
p679
sa(dp680
g2
S'http://www.reuters.com/article/2013/02/23/ny-business-wire-idUSnBw6j3s4ra+100+BSW20130223'
p681
sg4
S'20130223\xc2\xa04:15AM UTC'
p682
sg6
S'The Quick Brown Fox Jumps over the Lazy Dog'
p683
sa(dp684
g2
S'http://www.reuters.com/article/2013/02/23/ny-business-wire-idUSnBw6WK5LMa+136+BSW20130223'
p685
sg4
S'20130223\xc2\xa04:12AM UTC'
p686
sg6
S'The Quick Brown Fox Jumps over the Lazy Dog'
p687
sa(dp688
g2
S'http://www.reuters.com/article/2013/02/23/ny-business-wire-idUSnBwbPQzyfa+130+BSW20130223'
p689
sg4
S'20130223\xc2\xa04:10AM UTC'
p690
sg6
S'The Quick Brown Fox Jumps over the Lazy Dog'
p691
sa(dp692
g2
S'http://www.reuters.com/article/2013/02/23/horsemeat-france-idUSL6N0BN0AB20130223'
p693
sg4
S'20130223\xc2\xa04:00AM UTC'
p694
sg6
S"France's Hollande urges compulsory labelling amid horsemeat scandal"
p695
sa(dp696
g2
S'http://www.reuters.com/article/2013/02/23/us-usa-crime-speedfreaks-idUSBRE91M05H20130223'
p697
sg4
S'20130223\xc2\xa03:59AM UTC'
p698
sg6
S'California search for victims of "speed freak" killers grows cold'
p699
sa(dp700
g2
S'http://www.reuters.com/article/2013/02/23/us-iraq-talabani-idUSBRE91M05D20130223'
p701
sg4
S'20130223\xc2\xa03:34AM UTC'
p702
sg6
S"Iraq president's health improving, can now talk: doctor"
p703
sa(dp704
g2
S'http://www.reuters.com/article/2013/02/23/us-nba-warriors-idUSBRE91M05A20130223'
p705
sg4
S'20130223\xc2\xa03:00AM UTC'
p706
sg6
S'Jack powers Warriors past road-weary Spurs'
p707
sa(dp708
g2
S'http://www.reuters.com/article/2013/02/23/saudi-renewables-idUSL6N0BN08B20130223'
p709
sg4
S'20130223\xc2\xa02:59AM UTC'
p710
sg6
S'Saudi sets out roadmap for major renewable energy programme'
p711
sa(dp712
g2
S'http://www.reuters.com/article/2013/02/23/us-china-stocklending-idUSBRE91M05720130223'
p713
sg4
S'20130223\xc2\xa02:40AM UTC'
p714
sg6
S'China to expand short selling pilot scheme on February 28: report'
p715
sa(dp716
g2
S'http://www.reuters.com/article/2013/02/23/usa-snowstorm-idUSL1N0BM5QA20130223'
p717
sg4
S'20130223\xc2\xa02:17AM UTC'
p718
sg6
S'UPDATE 4-New England braces for third snowstorm in three weekends'
p719
sa(dp720
g2
S'http://www.reuters.com/article/2013/02/23/us-boeing-787-faa-idUSBRE91L11U20130223'
p721
sg4
S'20130223\xc2\xa02:15AM UTC'
p722
sg6
S'Boeing proposes full 787 battery fix to FAA: sources'
p723
sa(dp724
g2
S'http://www.reuters.com/article/2013/02/23/us-korea-north-idUSBRE91M05220130223'
p725
sg4
S'20130223\xc2\xa02:13AM UTC'
p726
sg6
S'North Korea warns U.S. forces of "destruction" ahead of war drills'
p727
sa(dp728
g2
S'http://www.reuters.com/article/2013/02/23/china-stocklending-idUSL4N0BN04I20130223'
p729
sg4
S'20130223\xc2\xa02:03AM UTC'
p730
sg6
S'China to expand short selling pilot scheme on Feb 28 - report'
p731
sa(dp732
g2
S'http://www.reuters.com/article/2013/02/23/us-nhl-blackhawks-idUSBRE91M04A20130223'
p733
sg4
S'20130223\xc2\xa01:40AM UTC'
p734
sg6
S'Blackhawks set record for best start to season'
p735
sa(dp736
g2
S'http://www.reuters.com/article/2013/02/23/us-usa-guam-snakes-idUSBRE91M04W20130223'
p737
sg4
S'20130223\xc2\xa01:28AM UTC'
p738
sg6
S'To prevent snakes on a plane, Guam to airdrop poisoned mice'
p739
sa(dp740
g2
S'http://www.reuters.com/article/2013/02/23/us-usa-nuclear-leak-idUSBRE91L19G20130223'
p741
sg4
S'20130223\xc2\xa01:17AM UTC'
p742
sg6
S'Radioactive waste leaking from six tanks at Washington state nuclear site'
p743
sa(dp744
g2
S'http://www.reuters.com/article/2013/02/23/us-tennis-memphis-idUSBRE91L05J20130223'
p745
sg4
S'20130223\xc2\xa012:56AM UTC'
p746
sg6
S'Top seed Cilic crashes out of Memphis quarter-finals'
p747
sa(dp748
g2
S'http://www.reuters.com/article/2013/02/23/us-uruguay-rights-idUSBRE91L0ZL20130223'
p749
sg4
S'20130223\xc2\xa012:54AM UTC'
p750
sg6
S"Uruguay's Supreme Court rules against dictatorship trials"
p751
sa(dp752
g2
S'http://www.reuters.com/article/2013/02/23/us-toshiba-president-idUSBRE91M04L20130223'
p753
sg4
S'20130223\xc2\xa012:30AM UTC'
p754
sg6
S"Japan's Toshiba to promote VP Tanaka to top job: sources"
p755
sa(dp756
g2
S'http://www.reuters.com/article/2013/02/23/idUSnPremhLN1a+10c+PRN20130223'
p757
sg4
S'20130223\xc2\xa012:30AM UTC'
p758
sg6
S"BMGI Showcases how Businesses in MENA can Outperform, During 'Process Excellence Week' Held at Abu Dhabi & Riyadh"
p759
sa(dp760
g2
S'http://www.reuters.com/article/2013/02/23/toshiba-president-idUSL4N0BN02W20130223'
p761
sg4
S'20130223\xc2\xa012:25AM UTC'
p762
sg6
S"Japan's Toshiba to promote VP Tanaka to top job - sources"
p763
sa(dp764
g2
S'http://www.reuters.com/article/2013/02/23/us-armenia-protest-idUSBRE91L0Y420130223'
p765
sg4
S'20130223\xc2\xa012:17AM UTC'
p766
sg6
S'Thousands protest in Armenia against re-elected president'
p767
sa(dp768
g2
S'http://www.reuters.com/article/2013/02/23/us-rugby-super-bulls-idUSBRE91L12020130223'
p769
sg4
S'20130223\xc2\xa012:15AM UTC'
p770
sg6
S'Steyn kicks Bulls to victory in Super Rugby opener'
p771
sa(dp772
g2
S'http://www.reuters.com/article/2013/02/23/us-britain-downgrade-moodys-idUSBRE91L16M20130223'
p773
sg4
S'20130223\xc2\xa012:09AM UTC'
p774
sg6
S"Moody's strips Britain of triple-A rating in major blow to Osborne"
p775
sa(dp776
g2
S'http://www.reuters.com/article/2013/02/23/us-usa-japan-idUSBRE91M00O20130223'
p777
sg4
S'20130223\xc2\xa012:09AM UTC'
p778
sg6
S'Abe vows to revive Japanese economy, sees no escalation with China'
p779
sa(dp780
g2
S'http://www.reuters.com/article/2013/02/23/census-daily-feature-idUSnPnDC65062+160+PRN20130223'
p781
sg4
S'20130223\xc2\xa012:01AM UTC'
p782
sg6
S'U.S. Census Bureau Daily Feature for February 23'
p783
sa(dp784
g2
S'http://www.reuters.com/news/video/videoStory?storyID=56539437'
p785
sg4
S'20130223\xc2\xa09:22PM UTC'
p786
sg6
S'Austerity protest ends in clashes'
p787
sa(dp788
g2
S'http://www.reuters.com/news/video/videoStory?storyID=56538740'
p789
sg4
S'20130223\xc2\xa08:45PM UTC'
p790
sg6
S'Stars hit the magenta carpet for the Indie Spirit Awards'
p791
sa(dp792
g2
S'http://www.reuters.com/news/video/videoStory?storyID=56537115'
p793
sg4
S'20130223\xc2\xa07:32PM UTC'
p794
sg6
S'Ten-car crash at Daytona sends debris into crowd'
p795
sa(dp796
g2
S'http://www.reuters.com/news/video/videoStory?storyID=56548583'
p797
sg4
S'20130223\xc2\xa07:31PM UTC'
p798
sg6
S'Afghan security foils Kabul bombing attempt'
p799
sa(dp800
g2
S'http://www.reuters.com/news/video/videoStory?storyID=56548594'
p801
sg4
S'20130223\xc2\xa07:30PM UTC'
p802
sg6
S'Haze plagues China centre and east'
p803
sa(dp804
g2
S'http://www.reuters.com/news/video/videoStory?storyID=56548462'
p805
sg4
S'20130223\xc2\xa07:26PM UTC'
p806
sg6
S"Followers flock to hear pope's last Angelus"
p807
sa(dp808
g2
S'http://www.reuters.com/news/video/videoStory?storyID=56537262'
p809
sg4
S'20130223\xc2\xa05:33PM UTC'
p810
sg6
S'How impressive is the Chromebook Pixel? Very!'
p811
sa(dp812
g2
S'http://www.reuters.com/news/video/videoStory?storyID=56532922'
p813
sg4
S'20130223\xc2\xa03:06PM UTC'
p814
sg6
S'Syrians work to free child trapped under rubble'
p815
sa(dp816
g2
S'http://www.reuters.com/news/video/videoStory?storyID=56528587'
p817
sg4
S'20130223\xc2\xa011:06AM UTC'
p818
sg6
S'Hundreds protest over triple rape in India'
p819
sa(dp820
g2
S'http://www.reuters.com/news/video/videoStory?storyID=56526052'
p821
sg4
S'20130223\xc2\xa09:20AM UTC'
p822
sg6
S'British cardinal says consider pope from "developing world"'
p823
sa(dp824
g2
S'http://www.reuters.com/news/video/videoStory?storyID=56524422'
p825
sg4
S'20130223\xc2\xa08:19AM UTC'
p826
sg6
S'Cardinals may elect identikit new pope'
p827
sa(dp828
g2
S'http://www.reuters.com/news/video/videoStory?storyID=56524426'
p829
sg4
S'20130223\xc2\xa08:18AM UTC'
p830
sg6
S'Pistorius gets bail check'
p831
sa(dp832
g2
S'http://www.reuters.com/news/video/videoStory?storyID=56524139'
p833
sg4
S'20130223\xc2\xa08:09AM UTC'
p834
sg6
S"King of Spain's son-in-law in court over fraud"
p835
sa(dp836
g2
S'http://www.reuters.com/news/video/videoStory?storyID=56522331'
p837
sg4
S'20130223\xc2\xa06:42AM UTC'
p838
sg6
S'Town evacuated as flood waters rise'
p839
sa(dp840
g2
S'http://www.reuters.com/news/video/videoStory?storyID=56521800'
p841
sg4
S'20130223\xc2\xa06:19AM UTC'
p842
sg6
S'Radiation leak at U.S. nuclear facility'
p843
sa(dp844
g2
S'http://www.reuters.com/news/video/videoStory?storyID=56521917'
p845
sg4
S'20130223\xc2\xa06:16AM UTC'
p846
sg6
S'Stars dish on their previous Oscar wins'
p847
sa(dp848
g2
S'http://www.reuters.com/news/video/videoStory?storyID=56521568'
p849
sg4
S'20130223\xc2\xa05:54AM UTC'
p850
sg6
S"India's opposition leader visits bomb site"
p851
sa(dp852
g2
S'http://www.reuters.com/news/video/videoStory?storyID=56521043'
p853
sg4
S'20130223\xc2\xa05:50AM UTC'
p854
sg6
S'Pistorius out on bail until murder trial'
p855
sa(dp856
g2
S'http://www.reuters.com/news/video/videoStory?storyID=56520177'
p857
sg4
S'20130223\xc2\xa04:21AM UTC'
p858
sg6
S'Hundreds pray for Hugo Chavez'
p859
sa(dp860
g2
S'http://www.reuters.com/news/video/videoStory?storyID=56518907'
p861
sg4
S'20130223\xc2\xa02:47AM UTC'
p862
sg6
S'This year\xe2\x80\x99s Oscar nominated women are lauded at a pre-Oscar bash'
p863
sa(dp864
g2
S'http://www.reuters.com/news/video/videoStory?storyID=56516318'
p865
sg4
S'20130223\xc2\xa012:31AM UTC'
p866
sg6
S'Michelle Obama shows off her moves'
p867
sa(dp868
g2
S'http://www.reuters.com/news/video/videoStory?storyID=56516813'
p869
sg4
S'20130223\xc2\xa012:19AM UTC'
p870
sg6
S"Office of Egypt's opposition leader ransacked"
p871
sa.