(lp0
(dp1
S'href'
p2
S'http://www.reuters.com/article/2013/06/23/athletics-jamaica-idUSL3N0EZ02L20130623'
p3
sS'ts'
p4
S'20130622\xc2\xa011:54PM UTC'
p5
sS'title'
p6
S'Athletics-Bad lighting causes Parchment injury in Jamaica'
p7
sa(dp8
g2
S'http://www.reuters.com/article/2013/06/23/echo-sydney-resort-idUSnPNMM34718+1e0+PRN20130623'
p9
sg4
S'20130622\xc2\xa011:46PM UTC'
p10
sg6
S"Echo Unveils Proposal for World's First Connected, Integrated Resort at The Star"
p11
sa(dp12
g2
S'http://www.reuters.com/article/2013/06/23/kennedy-water-forum-idUSnPNBR36703+1e0+PRN20130623'
p13
sg4
S'20130622\xc2\xa09:47PM UTC'
p14
sg6
S'Robert Kennedy Criticizes Privatization of Water at World Environment Forum'
p15
sa(dp16
g2
S'http://www.reuters.com/article/2013/06/23/us-athletics-us-idUSBRE95M00520130623'
p17
sg4
S'20130622\xc2\xa09:43PM UTC'
p18
sg6
S'Rollins equals fourth-fastest hurdles time'
p19
sa(dp20
g2
S'http://www.reuters.com/article/2013/06/23/us-usa-afghanistan-prisoner-idUSBRE95L0DP20130623'
p21
sg4
S'20130622\xc2\xa08:31PM UTC'
p22
sg6
S'Idaho hometown of captive U.S. soldier rallies in his support'
p23
sa(dp24
g2
S'http://www.reuters.com/article/2013/06/23/usa-crash-ohio-idUSL2N0EY07B20130623'
p25
sg4
S'20130622\xc2\xa08:14PM UTC'
p26
sg6
S'UPDATE 2-Stunt performer, pilot killed in Ohio air show crash'
p27
sa(dp28
g2
S'http://www.reuters.com/article/2013/06/23/us-floods-idUSBRE95K0SS20130623'
p29
sg4
S'20130622\xc2\xa08:04PM UTC'
p30
sg6
S"Flooding to close core of Canada's oil capital for days"
p31
sa(dp32
g2
S'http://www.reuters.com/article/2013/06/23/canada-floods-idUSL2N0EY07H20130623'
p33
sg4
S'20130622\xc2\xa08:02PM UTC'
p34
sg6
S"UPDATE 2-Flooding to close core of Canada's oil capital for days"
p35
sa(dp36
g2
S'http://www.reuters.com/article/2013/06/22/us-golf-pga-idUSBRE95L0H820130622'
p37
sg4
S'20130622\xc2\xa07:59PM UTC'
p38
sg6
S'Bubba Watson keeps share of lead at Travelers'
p39
sa(dp40
g2
S'http://www.reuters.com/article/2013/06/22/us-usa-afghanistan-prisoner-idUSBRE95L0DP20130622'
p41
sg4
S'20130622\xc2\xa07:39PM UTC'
p42
sg6
S'Idaho hometown of captive soldier rallies in his support'
p43
sa(dp44
g2
S'http://www.reuters.com/article/2013/06/22/prntest-idUSnPNHSTEST1+1fe+PRN20130622'
p45
sg4
S'20130622\xc2\xa07:30PM UTC'
p46
sg6
S'Following Is a Test Release'
p47
sa(dp48
g2
S'http://www.reuters.com/article/2013/06/22/us-usa-florda-shooting-idUSBRE95L09P20130622'
p49
sg4
S'20130622\xc2\xa07:28PM UTC'
p50
sg6
S'Judge blocks audio expert testimony in Trayvon Martin case'
p51
sa(dp52
g2
S'http://www.reuters.com/article/2013/06/22/entertainment-us-palestinians-arabidol-idUSBRE95L0H020130622'
p53
sg4
S'20130622\xc2\xa07:28PM UTC'
p54
sg6
S"Palestinian 'Arab Idol' victory unleashes rare outburst of joy"
p55
sa(dp56
g2
S'http://www.reuters.com/article/2013/06/22/palestinians-arabidol-idUSL5N0EY0LR20130622'
p57
sg4
S'20130622\xc2\xa07:21PM UTC'
p58
sg6
S'Palestinian "Arab Idol" victory unleashes rare outburst of joy'
p59
sa(dp60
g2
S'http://www.reuters.com/article/2013/06/22/us-motor-racing-mans-simonsen-idUSBRE95L0A920130622'
p61
sg4
S'20130622\xc2\xa07:14PM UTC'
p62
sg6
S'Danish driver Simonsen dies at Le Mans'
p63
sa(dp64
g2
S'http://www.reuters.com/article/2013/06/22/life-idUSRTX10JYB'
p65
sg4
S'20130622\xc2\xa06:45PM UTC'
p66
sg6
S"In Mandela's shadow"
p67
sa(dp68
g2
S'http://www.reuters.com/article/2013/06/22/us-egypt-mursi-idUSBRE95L07420130622'
p69
sg4
S'20130622\xc2\xa06:41PM UTC'
p70
sg6
S"Mursi's controversial Islamist Luxor governor to quit: party"
p71
sa(dp72
g2
S'http://www.reuters.com/article/2013/06/22/us-usa-security-snowden-charges-idUSBRE95K18220130622'
p73
sg4
S'20130622\xc2\xa06:40PM UTC'
p74
sg6
S"U.S. seeks Snowden's extradition, urges Hong Kong to act quickly"
p75
sa(dp76
g2
S'http://www.reuters.com/article/2013/06/22/us-hollande-poll-idUSBRE95L0GK20130622'
p77
sg4
S'20130622\xc2\xa06:38PM UTC'
p78
sg6
S"French President Hollande's popularity down again: poll"
p79
sa(dp80
g2
S'http://www.reuters.com/article/2013/06/22/boardwalkrentalflood-idUSnPNTO611+78+PRN20130622'
p81
sg4
S'20130622\xc2\xa06:23PM UTC'
p82
sg6
S'Boardwalk Rental Communities \xe2\x80\x93 Update on the Impact of Flooding that Occurred in Calgary, AB'
p83
sa(dp84
g2
S'http://www.reuters.com/article/2013/06/22/egypt-mursi-idUSL5N0EY0JQ20130622'
p85
sg4
S'20130622\xc2\xa06:20PM UTC'
p86
sg6
S"UPDATE 1-Mursi's controversial Islamist Luxor governor to quit -party"
p87
sa(dp88
g2
S'http://www.reuters.com/article/2013/06/22/us-albania-election-idUSBRE95L0GA20130622'
p89
sg4
S'20130622\xc2\xa06:05PM UTC'
p90
sg6
S"Left seeks to unseat Albania's Berisha in tense election"
p91
sa(dp92
g2
S'http://www.reuters.com/article/2013/06/22/us-turkey-protests-idUSBRE95L0BE20130622'
p93
sg4
S'20130622\xc2\xa06:01PM UTC'
p94
sg6
S'Turkish police break up protest, PM lambasts opponents'
p95
sa(dp96
g2
S'http://www.reuters.com/article/2013/06/22/us-usa-climate-obama-idUSBRE95K16D20130622'
p97
sg4
S'20130622\xc2\xa05:55PM UTC'
p98
sg6
S'Obama to lay out climate change plan in speech on Tuesday'
p99
sa(dp100
g2
S'http://www.reuters.com/article/2013/06/22/usa-climate-obama-idUSL2N0EY07E20130622'
p101
sg4
S'20130622\xc2\xa05:55PM UTC'
p102
sg6
S'UPDATE 2-Obama to lay out climate change plan in speech on Tuesday'
p103
sa(dp104
g2
S'http://www.reuters.com/article/2013/06/22/us-syria-crisis-idUSBRE95K17J20130622'
p105
sg4
S'20130622\xc2\xa05:48PM UTC'
p106
sg6
S'Western, Arab states to step up Syrian rebel support'
p107
sa(dp108
g2
S'http://www.reuters.com/article/2013/06/22/us-syria-crisis-statement-idUSBRE95L0G320130622'
p109
sg4
S'20130622\xc2\xa05:48PM UTC'
p110
sg6
S"'Friends of Syria' agree to give urgent rebel aid"
p111
sa(dp112
g2
S'http://www.reuters.com/article/2013/06/22/us-usa-crash-ohio-idUSBRE95L0E120130622'
p113
sg4
S'20130622\xc2\xa05:25PM UTC'
p114
sg6
S'Stunt performer, pilot killed in Ohio air show crash'
p115
sa(dp116
g2
S'http://www.reuters.com/article/2013/06/22/usa-crash-ohio-idUSL2N0EY07B20130622'
p117
sg4
S'20130622\xc2\xa05:24PM UTC'
p118
sg6
S'UPDATE 1-Stunt performer, pilot killed in Ohio air show crash'
p119
sa(dp120
g2
S'http://www.reuters.com/article/2013/06/22/us-greece-pm-idUSBRE95L09T20130622'
p121
sg4
S'20130622\xc2\xa05:20PM UTC'
p122
sg6
S"Political crisis, privatization gap won't derail bailout: Greek PM"
p123
sa(dp124
g2
S'http://www.reuters.com/article/2013/06/22/us-floods-idUSBRE95K0SS20130622'
p125
sg4
S'20130622\xc2\xa05:18PM UTC'
p126
sg6
S"Canada's oil capital to be shut for days after flooding"
p127
sa(dp128
g2
S'http://www.reuters.com/article/2013/06/22/canada-floods-idUSL2N0EY07H20130622'
p129
sg4
S'20130622\xc2\xa05:11PM UTC'
p130
sg6
S"UPDATE 1-Canada's oil capital to be shut for days after flooding"
p131
sa(dp132
g2
S'http://www.reuters.com/article/2013/06/22/us-ireland-kennedy-idUSBRE95L0FK20130622'
p133
sg4
S'20130622\xc2\xa05:07PM UTC'
p134
sg6
S'Kennedys light flame in Ireland to mark iconic JFK trip'
p135
sa(dp136
g2
S'http://www.reuters.com/article/2013/06/22/us-athletics-us-gay-idUSBRE95L0FI20130622'
p137
sg4
S'20130622\xc2\xa05:06PM UTC'
p138
sg6
S'Gay easily advances in 200m in bid for sprint double'
p139
sa(dp140
g2
S'http://www.reuters.com/article/2013/06/22/us-czech-government-idUSBRE95L0F720130622'
p141
sg4
S'20130622\xc2\xa04:58PM UTC'
p142
sg6
S'Junior Czech coalition party wins speaker post in reshuffle plan'
p143
sa(dp144
g2
S'http://www.reuters.com/article/2013/06/22/us-usa-politics-hillary-idUSBRE95L0FB20130622'
p145
sg4
S'20130622\xc2\xa04:53PM UTC'
p146
sg6
S'Hillary Clinton would like to see a woman U.S. president'
p147
sa(dp148
g2
S'http://www.reuters.com/article/2013/06/22/us-iraq-violence-mosque-idUSBRE95L0CP20130622'
p149
sg4
S'20130622\xc2\xa04:49PM UTC'
p150
sg6
S'Iraq attacks kill more than 30'
p151
sa(dp152
g2
S'http://www.reuters.com/article/2013/06/22/ny-wpp-idUSnBw225032a+100+BSW20130622'
p153
sg4
S'20130622\xc2\xa04:46PM UTC'
p154
sg6
S'WPP Celebrates Cannes Hat-Trick'
p155
sa(dp156
g2
S'http://www.reuters.com/article/2013/06/22/mediacom-cannes-awd-idUSnPNNY36761+1e0+PRN20130622'
p157
sg4
S'20130622\xc2\xa04:41PM UTC'
p158
sg6
S'MediaCom Wins Silver at Cannes Branded Content and Entertainment Lions Awards Gala'
p159
sa(dp160
g2
S'http://www.reuters.com/article/2013/06/22/dc-lemelson-innoskate-idUSnPNCL36626+1e0+PRN20130622'
p161
sg4
S'20130622\xc2\xa04:40PM UTC'
p162
sg6
S'Tony Hawk and Rodney Mullen Skate into Smithsonian Collections'
p163
sa(dp164
g2
S'http://www.reuters.com/article/2013/06/22/us-italy-holocaust-palatucci-idUSBRE95L0EX20130622'
p165
sg4
S'20130622\xc2\xa04:33PM UTC'
p166
sg6
S'Vatican paper contests study on alleged Nazi collaborator'
p167
sa(dp168
g2
S'http://www.reuters.com/article/2013/06/22/italy-holocaust-palatucci-idUSL5N0EY0IB20130622'
p169
sg4
S'20130622\xc2\xa04:31PM UTC'
p170
sg6
S'Vatican paper contests study on alleged Nazi collaborator'
p171
sa(dp172
g2
S'http://www.reuters.com/article/2013/06/22/us-usa-security-snowden-virginia-idUSBRE95L0EE20130622'
p173
sg4
S'20130622\xc2\xa04:28PM UTC'
p174
sg6
S'Virginia court, home to spying and cyber cases, to hear Snowden case'
p175
sa(dp176
g2
S'http://www.reuters.com/article/2013/06/22/us-usa-security-snowden-list-idUSBRE95L0BZ20130622'
p177
sg4
S'20130622\xc2\xa04:28PM UTC'
p178
sg6
S'Factbox: Snowden latest accused by Obama administration of leaking'
p179
sa(dp180
g2
S'http://www.reuters.com/article/2013/06/22/austria-spending-growth-idUSL5N0EY0IK20130622'
p181
sg4
S'20130622\xc2\xa04:13PM UTC'
p182
sg6
S'Austria ups public spending after Alpine goes bust'
p183
sa(dp184
g2
S'http://www.reuters.com/article/2013/06/22/us-usa-patriots-hernandez-idUSBRE95L0EH20130622'
p185
sg4
S'20130622\xc2\xa03:58PM UTC'
p186
sg6
S'Police search home of NFL player linked to murder probe: media'
p187
sa(dp188
g2
S'http://www.reuters.com/article/2013/06/22/us-germany-turkey-foreignministers-idUSBRE95L0EB20130622'
p189
sg4
S'20130622\xc2\xa03:52PM UTC'
p190
sg6
S"Tension 'undeniable' as German and Turkish ministers meet"
p191
sa(dp192
g2
S'http://www.reuters.com/article/2013/06/22/raiffeisen-ceo-savings-idUSL5N0EY0HR20130622'
p193
sg4
S'20130622\xc2\xa03:42PM UTC'
p194
sg6
S'New Raiffeisen CEO seeks cost cuts as growth slows'
p195
sa(dp196
g2
S'http://www.reuters.com/article/2013/06/22/ca-braille-challenge-idUSnPNDC36757+1e0+PRN20130622'
p197
sg4
S'20130622\xc2\xa03:36PM UTC'
p198
sg6
S"Nation's Braille Whiz Kids Compete in Unique Academic Competition"
p199
sa(dp200
g2
S'http://www.reuters.com/article/2013/06/22/usa-crash-ohio-idUSL2N0EY06W20130622'
p201
sg4
S'20130622\xc2\xa03:35PM UTC'
p202
sg6
S'Stunt performer, pilot killed in Ohio air show crash'
p203
sa(dp204
g2
S'http://www.reuters.com/article/2013/06/22/us-turkey-protests-taksim-idUSBRE95L0C420130622'
p205
sg4
S'20130622\xc2\xa03:20PM UTC'
p206
sg6
S'Turkish police fire water cannon on Istanbul protesters'
p207
sa(dp208
g2
S'http://www.reuters.com/article/2013/06/22/us-usa-security-snowden-request-idUSBRE95L0DK20130622'
p209
sg4
S'20130622\xc2\xa03:14PM UTC'
p210
sg6
S'United States urges Hong Kong to act soon on Snowden extradition'
p211
sa(dp212
g2
S'http://www.reuters.com/article/2013/06/22/britain-china-swapline-idUSL5N0EY0HP20130622'
p213
sg4
S'20130622\xc2\xa03:11PM UTC'
p214
sg6
S'UPDATE 1-Britain and China set up 3-year currency swap line'
p215
sa(dp216
g2
S'http://www.reuters.com/article/2013/06/22/idUSnGNX4T1jdc+1d0+GNW20130622'
p217
sg4
S'20130622\xc2\xa03:07PM UTC'
p218
sg6
S'National Association of Credit Management Releases Commercial Credit Reporting Fact Sheet to Support National Small Business Week'
p219
sa(dp220
g2
S'http://www.reuters.com/article/2013/06/22/us-tennis-wimbledon-djokovic-idUSBRE95L0DG20130622'
p221
sg4
S'20130622\xc2\xa03:02PM UTC'
p222
sg6
S'Golden era inspires playful Djokovic to get serious'
p223
sa(dp224
g2
S'http://www.reuters.com/article/2013/06/22/ca-sony-smurfsday-idUSnPNLA36661+1e0+PRN20130622'
p225
sg4
S'20130622\xc2\xa03:00PM UTC'
p226
sg6
S'The World Gets Blue For Global Smurfs\xe2\x84\xa2 Day'
p227
sa(dp228
g2
S'http://www.reuters.com/article/2013/06/22/pew-unesco-canada-idUSnPNDC36743+1e0+PRN20130622'
p229
sg4
S'20130622\xc2\xa02:58PM UTC'
p230
sg6
S'UNESCO Commends Canadian Governments, First Nations; Resolves to Address "Fundamental Issues" in World Heritage Process Raised by Canada\'s Pimachiowin Aki Nomination'
p231
sa(dp232
g2
S'http://www.reuters.com/article/2013/06/22/us-usa-weather-idUSBRE95K0ZE20130622'
p233
sg4
S'20130622\xc2\xa02:53PM UTC'
p234
sg6
S'One dead, thousands without power after storms hit U.S. Midwest'
p235
sa(dp236
g2
S'http://www.reuters.com/article/2013/06/22/usa-weather-idUSL2N0EY05B20130622'
p237
sg4
S'20130622\xc2\xa02:51PM UTC'
p238
sg6
S'One dead, thousands without power after storms hit U.S. Midwest'
p239
sa(dp240
g2
S'http://www.reuters.com/article/2013/06/22/us-saudi-shiite-idUSBRE95L0AN20130622'
p241
sg4
S'20130622\xc2\xa02:51PM UTC'
p242
sg6
S"Shi'ite man shot dead in Saudi Arabia"
p243
sa(dp244
g2
S'http://www.reuters.com/article/2013/06/22/un-publicserviceforum-idUSnPNLA36756+1e0+PRN20130622'
p245
sg4
S'20130622\xc2\xa02:48PM UTC'
p246
sg6
S'2013 UN Public Service Forum Will Kick Off In Bahrain'
p247
sa(dp248
g2
S'http://www.reuters.com/article/2013/06/22/us-syria-crisis-bishops-idUSBRE95L0D820130622'
p249
sg4
S'20130622\xc2\xa02:45PM UTC'
p250
sg6
S"Patriarch leads candlelit vigil for Syria's kidnapped bishops"
p251
sa(dp252
g2
S'http://www.reuters.com/article/2013/06/22/us-syria-crisis-wages-idUSBRE95L0AS20130622'
p253
sg4
S'20130622\xc2\xa02:45PM UTC'
p254
sg6
S'Assad lifts Syrian wages after conflict hikes prices'
p255
sa(dp256
g2
S'http://www.reuters.com/article/2013/06/22/us-syria-crisis-statement-idUSBRE95L07Z20130622'
p257
sg4
S'20130622\xc2\xa02:45PM UTC'
p258
sg6
S'Friends of Syria agree to give urgent rebel aid'
p259
sa(dp260
g2
S'http://www.reuters.com/article/2013/06/22/us-southeastasia-haze-idUSBRE95I0WW20130622'
p261
sg4
S'20130622\xc2\xa02:43PM UTC'
p262
sg6
S'Singapore smog eases as Indonesian planes waterbomb fires'
p263
sa(dp264
g2
S'http://www.reuters.com/article/2013/06/22/us-usa-taliban-idUSBRE95L07K20130622'
p265
sg4
S'20130622\xc2\xa02:28PM UTC'
p266
sg6
S'Kerry presses Taliban to revive Afghan peace bid'
p267
sa(dp268
g2
S'http://www.reuters.com/article/2013/06/22/us-usa-florida-pets-idUSBRE95L0CX20130622'
p269
sg4
S'20130622\xc2\xa02:19PM UTC'
p270
sg6
S'Miami pet-rescue plan seeks unusual property tax funding'
p271
sa(dp272
g2
S'http://www.reuters.com/article/2013/06/22/us-usa-security-snowden-donilon-idUSBRE95L0CT20130622'
p273
sg4
S'20130622\xc2\xa02:16PM UTC'
p274
sg6
S"U.S. seeking Snowden's extradition, in 'conversation' with Hong Kong"
p275
sa(dp276
g2
S'http://www.reuters.com/article/2013/06/22/mn-unitedhealthcare-idUSnBw225030a+100+BSW20130622'
p277
sg4
S'20130622\xc2\xa02:10PM UTC'
p278
sg6
S'UnitedHealthcare IRONKIDS Syracuse Fun Run Energizes Youth About Healthy Living through \xe2\x80\x9cIRONMAN\xe2\x80\x9d Races'
p279
sa(dp280
g2
S'http://www.reuters.com/article/2013/06/22/sanofi-joslin-results-idUSnPNNY36752+1e0+PRN20130622'
p281
sg4
S'20130622\xc2\xa02:00PM UTC'
p282
sg6
S'Sanofi US and Joslin Diabetes Center Announce Results from Multicultural Outreach Pilot at American Diabetes Association Scientific Sessions'
p283
sa(dp284
g2
S'http://www.reuters.com/article/2013/06/22/aspca-milestone-idUSnPNDC36754+1e0+PRN20130622'
p285
sg4
S'20130622\xc2\xa01:44PM UTC'
p286
sg6
S'ASPCA Reaches Major Milestone, Completes Work in The Carroll Petrie Foundation Dog Rescue Project'
p287
sa(dp288
g2
S'http://www.reuters.com/article/2013/06/22/canada-floods-idUSL2N0EY05720130622'
p289
sg4
S'20130622\xc2\xa01:38PM UTC'
p290
sg6
S"Canada's oil capital to be shut for days after flooding"
p291
sa(dp292
g2
S'http://www.reuters.com/article/2013/06/22/liposcience-diabetes-idUSnPNPH36465+1e0+PRN20130622'
p293
sg4
S'20130622\xc2\xa01:30PM UTC'
p294
sg6
S'LipoScience Unveils Research Supporting NMR Diabetes Risk Test At The 2013 American Diabetes Association Scientific Sessions'
p295
sa(dp296
g2
S'http://www.reuters.com/article/2013/06/22/us-india-floods-idUSBRE95L03A20130622'
p297
sg4
S'20130622\xc2\xa01:08PM UTC'
p298
sg6
S'India monsoon floods kill at least 560; thousands missing'
p299
sa(dp300
g2
S'http://www.reuters.com/article/2013/06/22/us-space-shuttle-idUSBRE95L0AW20130622'
p301
sg4
S'20130622\xc2\xa01:05PM UTC'
p302
sg6
S'New shuttle Atlantis exhibit gives close-up look at space flight'
p303
sa(dp304
g2
S'http://www.reuters.com/article/2013/06/22/space-shuttle-idUSL2N0EY03H20130622'
p305
sg4
S'20130622\xc2\xa01:02PM UTC'
p306
sg6
S'New shuttle Atlantis exhibit gives close-up look at space flight'
p307
sa(dp308
g2
S'http://www.reuters.com/article/2013/06/22/syria-crisis-wages-idUSL5N0EY0EL20130622'
p309
sg4
S'20130622\xc2\xa012:57PM UTC'
p310
sg6
S'Assad lifts Syrian wages after conflict hikes prices'
p311
sa(dp312
g2
S'http://www.reuters.com/article/2013/06/22/greece-pm-idUSL5N0EY0DP20130622'
p313
sg4
S'20130622\xc2\xa012:54PM UTC'
p314
sg6
S"UPDATE 1-Political crisis, privatisation gap won't derail bailout-Greek PM"
p315
sa(dp316
g2
S'http://www.reuters.com/article/2013/06/22/us-germany-debt-idUSBRE95L0AB20130622'
p317
sg4
S'20130622\xc2\xa012:34PM UTC'
p318
sg6
S'Germany may achieve surplus in 2015: government source'
p319
sa(dp320
g2
S'http://www.reuters.com/article/2013/06/22/us-doping-cycling-ullrich-idUSBRE95L04M20130622'
p321
sg4
S'20130622\xc2\xa012:18PM UTC'
p322
sg6
S'Former cyclist Ullrich admits to Fuentes treatment'
p323
sa(dp324
g2
S'http://www.reuters.com/article/2013/06/22/us-tennis-wimbledon-sharapova-idUSBRE95L0A120130622'
p325
sg4
S'20130622\xc2\xa012:14PM UTC'
p326
sg6
S"Sharapova sends verbal volley Serena's way"
p327
sa(dp328
g2
S'http://www.reuters.com/article/2013/06/22/us-oracle-cloud-idUSBRE95L06C20130622'
p329
sg4
S'20130622\xc2\xa012:11PM UTC'
p330
sg6
S"Analysis: Oracle's sales miss magnifies fears about cloud missteps"
p331
sa(dp332
g2
S'http://www.reuters.com/article/2013/06/22/doping-cycling-ullrich-idUSL3N0EY07M20130622'
p333
sg4
S'20130622\xc2\xa011:59AM UTC'
p334
sg6
S'UPDATE 1-Doping-Former cyclist Ullrich admits to Fuentes treatment'
p335
sa(dp336
g2
S'http://www.reuters.com/article/2013/06/22/us-usa-security-britain-germany-idUSBRE95L09E20130622'
p337
sg4
S'20130622\xc2\xa011:54AM UTC'
p338
sg6
S"German minister seeks answers from UK over spying 'catastrophe'"
p339
sa(dp340
g2
S'http://www.reuters.com/article/2013/06/22/greece-pm-idUSA8N0EF01P20130622'
p341
sg4
S'20130622\xc2\xa011:38AM UTC'
p342
sg6
S'Greek PM Samaras says country on track to meet bailout goals-paper'
p343
sa(dp344
g2
S'http://www.reuters.com/article/2013/06/22/us-tennis-wimbledon-nadal-idUSBRE95L09N20130622'
p345
sg4
S'20130622\xc2\xa011:32AM UTC'
p346
sg6
S'Rafa happy to arrive at Wimbledon on two knees'
p347
sa(dp348
g2
S'http://www.reuters.com/article/2013/06/22/cequr-sa-insulin-stdy-idUSnPNNE36720+1e0+PRN20130622'
p349
sg4
S'20130622\xc2\xa011:32AM UTC'
p350
sg6
S'New Data Demonstrate Simple Insulin Delivery Device Can Significantly Reduce Barriers to Insulin Treatment Among People with Type 2 Diabetes'
p351
sa(dp352
g2
S'http://www.reuters.com/article/2013/06/22/sanofi-phase-idUSnPNNY36737+1e0+PRN20130622'
p353
sg4
S'20130622\xc2\xa011:26AM UTC'
p354
sg6
S'Sanofi Announces Positive Phase 3 Results for Investigational New Insulin U300'
p355
sa(dp356
g2
S'http://www.reuters.com/article/2013/06/22/usa-security-britain-germany-idUSL5N0EY09Y20130622'
p357
sg4
S'20130622\xc2\xa011:22AM UTC'
p358
sg6
S'German minister seeks answers from UK over spying "catastrophe"'
p359
sa(dp360
g2
S'http://www.reuters.com/article/2013/06/22/nj-valeritas-study-idUSnPNNY36721+1e0+PRN20130622'
p361
sg4
S'20130622\xc2\xa011:13AM UTC'
p362
sg6
S'Valeritas Announces New Findings From Observational Study Suggesting That Delivery Of Insulin Via V-Go\xc2\xae May Improve Glycemic Control And Reduce Total Daily Insulin Dose For Patients With Type 2 Diabetes'
p363
sa(dp364
g2
S'http://www.reuters.com/article/2013/06/22/us-france-qaeda-idUSBRE95L09820130622'
p365
sg4
S'20130622\xc2\xa011:11AM UTC'
p366
sg6
S'European hostages in North Africa still alive: al Qaeda'
p367
sa(dp368
g2
S'http://www.reuters.com/article/2013/06/22/us-mers-saudi-idUSBRE95L05A20130622'
p369
sg4
S'20130622\xc2\xa011:10AM UTC'
p370
sg6
S'New death in Saudi Arabia from SARS-like coronavirus MERS'
p371
sa(dp372
g2
S'http://www.reuters.com/article/2013/06/22/us-lufthansa-low-cost-idUSBRE95L09420130622'
p373
sg4
S'20130622\xc2\xa011:09AM UTC'
p374
sg6
S'Lufthansa says new low-cost brand off to good start'
p375
sa(dp376
g2
S'http://www.reuters.com/article/2013/06/22/riyadbank-dividend-idUSL5N0EY0BR20130622'
p377
sg4
S'20130622\xc2\xa011:09AM UTC'
p378
sg6
S'Riyad Bank says to distribute first-half dividend of SAR 975 mln'
p379
sa(dp380
g2
S'http://www.reuters.com/article/2013/06/22/mers-saudi-idUSL5N0EY0A820130622'
p381
sg4
S'20130622\xc2\xa011:09AM UTC'
p382
sg6
S'UPDATE 1-New death in Saudi Arabia from SARS-like coronavirus MERS'
p383
sa(dp384
g2
S'http://www.reuters.com/article/2013/06/22/us-horseracing-ascot-idUSBRE95L08Z20130622'
p385
sg4
S'20130622\xc2\xa011:08AM UTC'
p386
sg6
S'Colt Thomas Chippendale dies after Hardwicke Stakes win'
p387
sa(dp388
g2
S'http://www.reuters.com/article/2013/06/22/us-diabetes-device-medtronic-idUSBRE95L08X20130622'
p389
sg4
S'20130622\xc2\xa011:06AM UTC'
p390
sg6
S"Medtronic takes 'first step' toward U.S. sale of artificial pancreas"
p391
sa(dp392
g2
S'http://www.reuters.com/article/2013/06/22/us-diabetes-lilly-idUSBRE95L08T20130622'
p393
sg4
S'20130622\xc2\xa011:06AM UTC'
p394
sg6
S'Lilly once-weekly diabetes drug proves superior in late-stage trials'
p395
sa(dp396
g2
S'http://www.reuters.com/article/2013/06/22/lufthansa-low-cost-idUSL5N0EY09920130622'
p397
sg4
S'20130622\xc2\xa011:04AM UTC'
p398
sg6
S'Lufthansa says new low-cost brand off to good start'
p399
sa(dp400
g2
S'http://www.reuters.com/article/2013/06/22/us-sanofi-lantus-idUSBRE95L08R20130622'
p401
sg4
S'20130622\xc2\xa011:04AM UTC'
p402
sg6
S"Sanofi's next-generation insulin shows edge over Lantus"
p403
sa(dp404
g2
S'http://www.reuters.com/article/2013/06/22/citiesforlifediabetes-idUSnPNDC35212+1e0+PRN20130622'
p405
sg4
S'20130622\xc2\xa011:02AM UTC'
p406
sg6
S'Cities for Life Highlights Diabetes Management in Birmingham at American Diabetes Association 73rd Scientific Sessions'
p407
sa(dp408
g2
S'http://www.reuters.com/article/2013/06/22/sanofi-diabetes-data-idUSnPNNY35923+1e0+PRN20130622'
p409
sg4
S'20130622\xc2\xa011:01AM UTC'
p410
sg6
S'Sanofi Announces Positive Phase 3 Data for Once-Daily Lixisenatide for Type 2 Diabetes'
p411
sa(dp412
g2
S'http://www.reuters.com/article/2013/06/22/idUSnHUGd8wx+70+ONE20130622'
p413
sg4
S'20130622\xc2\xa011:00AM UTC'
p414
sg6
S'Medtronic Insulin Pump with Threshold Suspend Reported to Safely Reduce Nocturnal Hypoglycemia Without Increasing A1C'
p415
sa(dp416
g2
S'http://www.reuters.com/article/2013/06/22/in-diabetes-meds-data-idUSnPNDE35836+1e0+PRN20130622'
p417
sg4
S'20130622\xc2\xa011:00AM UTC'
p418
sg6
S'Phase III data show investigational compound empagliflozin significantly reduced blood glucose in adults with type 2 diabetes'
p419
sa(dp420
g2
S'http://www.reuters.com/article/2013/06/22/lilly-glp1-receptor-idUSnPNDE36235+1e0+PRN20130622'
p421
sg4
S'20130622\xc2\xa011:00AM UTC'
p422
sg6
S"Lilly's Investigational GLP-1 Receptor Agonist, Dulaglutide, Showed Superior Glycemic Control Versus Comparators in Patients with Type 2 Diabetes"
p423
sa(dp424
g2
S'http://www.reuters.com/article/2013/06/22/lillyboehringer-type-idUSnPNDE36224+1e0+PRN20130622'
p425
sg4
S'20130622\xc2\xa011:00AM UTC'
p426
sg6
S'Results of new exploratory analyses assessing the incidence of hypoglycemia with linagliptin in adults with type 2 diabetes announced'
p427
sa(dp428
g2
S'http://www.reuters.com/article/2013/06/22/ct-eli-lilly-diabetes-idUSnPNDE35835+1e0+PRN20130622'
p429
sg4
S'20130622\xc2\xa011:00AM UTC'
p430
sg6
S'Phase III data show investigational compound empagliflozin plus insulin significantly reduced HbA1c in adults with type 2 diabetes'
p431
sa(dp432
g2
S'http://www.reuters.com/article/2013/06/22/ct-elililly-phase-iii-idUSnPNDE35831+1e0+PRN20130622'
p433
sg4
S'20130622\xc2\xa011:00AM UTC'
p434
sg6
S'Phase III data show significant reductions in blood glucose with investigational compound empagliflozin used as monotherapy in adults with type 2 diabetes'
p435
sa(dp436
g2
S'http://www.reuters.com/article/2013/06/22/eli-lilly-boehringer-idUSnPNDE36222+1e0+PRN20130622'
p437
sg4
S'20130622\xc2\xa011:00AM UTC'
p438
sg6
S'Phase III studies show linagliptin improved blood glucose control in Asian adults with type 2 diabetes'
p439
sa(dp440
g2
S'http://www.reuters.com/article/2013/06/22/elililly-boehringer-idUSnPNDE35832+1e0+PRN20130622'
p441
sg4
S'20130622\xc2\xa011:00AM UTC'
p442
sg6
S'Phase III data show significant reduction in blood glucose with investigational compound empagliflozin added to metformin or metformin plus sulfonylurea in adults with type 2 diabetes'
p443
sa(dp444
g2
S'http://www.reuters.com/article/2013/06/22/il-zafgen-beloranib-idUSnPNNY33449+1e0+PRN20130622'
p445
sg4
S'20130622\xc2\xa011:00AM UTC'
p446
sg6
S"Zafgen Announces New Body Weight Loss and Cardiometabolic Data from Phase 2 Study of Beloranib in Obesity at American Diabetes Association's 73rd Scientific Sessions\xc2\xae"
p447
sa(dp448
g2
S'http://www.reuters.com/article/2013/06/22/ca-elcelyx-newmetdata-idUSnPNLA35752+1e0+PRN20130622'
p449
sg4
S'20130622\xc2\xa011:00AM UTC'
p450
sg6
S'Elcelyx Therapeutics Reports Positive Data for NewMet in Type 2 Diabetes at 2013 American Diabetes Association Scientific Sessions'
p451
sa(dp452
g2
S'http://www.reuters.com/article/2013/06/22/lillyboehringer-study-idUSnPNDE35830+1e0+PRN20130622'
p453
sg4
S'20130622\xc2\xa011:00AM UTC'
p454
sg6
S'Phase III study finds investigational agent empagliflozin significantly reduced blood glucose in adults with type 2 diabetes and impaired kidney function'
p455
sa(dp456
g2
S'http://www.reuters.com/article/2013/06/22/lilly-diabetes-study-idUSnPNDE35827+1e0+PRN20130622'
p457
sg4
S'20130622\xc2\xa011:00AM UTC'
p458
sg6
S'New data about the safety and efficacy of linagliptin in adults with type 2 diabetes who have moderate to severe renal impairment presented at ADA'
p459
sa(dp460
g2
S'http://www.reuters.com/article/2013/06/22/il-eli-lilly-phase-ii-idUSnPNDE33992+1e0+PRN20130622'
p461
sg4
S'20130622\xc2\xa011:00AM UTC'
p462
sg6
S'Follow-up Phase II Data Analysis Adds to Body of Evidence for Investigational Novel Basal Insulin, LY2605541'
p463
sa(dp464
g2
S'http://www.reuters.com/article/2013/06/22/ma-nimbus-discovery-idUSnBw225026a+100+BSW20130622'
p465
sg4
S'20130622\xc2\xa011:00AM UTC'
p466
sg6
S'Nimbus Discovery Presents Compelling Preclinical Proof of Concept Data on Novel ACC Allosteric Inhibitor ND-630'
p467
sa(dp468
g2
S'http://www.reuters.com/article/2013/06/22/il-bristol-myers-idUSnBw225024a+100+BSW20130622'
p469
sg4
S'20130622\xc2\xa011:00AM UTC'
p470
sg6
S'Phase IIa Study Assessing Safety and Tolerability of Dapagliflozin after 14 Days as Add-on to Insulin in Adult Patients with Type 1 Diabetes Presented at the 2013 American Diabetes Association Scientific Sessions\xc2\xae'
p471
sa(dp472
g2
S'http://www.reuters.com/article/2013/06/22/boehringer-ingelheim-idUSnBw225004a+100+BSW20130622'
p473
sg4
S'20130622\xc2\xa011:00AM UTC'
p474
sg6
S'New efficacy and safety data presented for Trajenta\xc2\xae (linagliptin) in Asians with Type 2 Diabetes'
p475
sa(dp476
g2
S'http://www.reuters.com/article/2013/06/22/in-boehringer-idUSnBw225002a+100+BSW20130622'
p477
sg4
S'20130622\xc2\xa011:00AM UTC'
p478
sg6
S'Study finds investigational compound empagliflozin reduced blood glucose in adults with Type 2 Diabetes and impaired kidney function'
p479
sa(dp480
g2
S'http://www.reuters.com/article/2013/06/22/sanofi-lantus-idUSL5N0EY0AL20130622'
p481
sg4
S'20130622\xc2\xa011:00AM UTC'
p482
sg6
S"Sanofi's next-generation insulin shows edge over Lantus"
p483
sa(dp484
g2
S'http://www.reuters.com/article/2013/06/22/in-boehringer-ingelheim-idUSnBw225012a+100+BSW20130622'
p485
sg4
S'20130622\xc2\xa011:00AM UTC'
p486
sg6
S'Phase III data show significant reduction in blood glucose with investigational compound empagliflozin added to metformin or metformin plus sulphonylurea in adults with Type 2 Diabetes'
p487
sa(dp488
g2
S'http://www.reuters.com/article/2013/06/22/in-boehringer-ingelheim-idUSnBw225011a+100+BSW20130622'
p489
sg4
S'20130622\xc2\xa011:00AM UTC'
p490
sg6
S'Phase III data show significant reductions in blood glucose with investigational compound empagliflozin used as monotherapy in adults with Type 2 Diabetes'
p491
sa(dp492
g2
S'http://www.reuters.com/article/2013/06/22/in-boehringer-idUSnBw225008a+100+BSW20130622'
p493
sg4
S'20130622\xc2\xa011:00AM UTC'
p494
sg6
S'Phase III data show investigational compound empagliflozin reduced blood glucose in adults with Type 2 Diabetes treated with basal insulin'
p495
sa(dp496
g2
S'http://www.reuters.com/article/2013/06/22/boehringer-ingelheim-idUSnBw225006a+100+BSW20130622'
p497
sg4
S'20130622\xc2\xa011:00AM UTC'
p498
sg6
S'Trajenta\xc2\xae (linagliptin): New data on safety and efficacy in Type 2 Diabetes patients with moderate to severe renal impairment'
p499
sa(dp500
g2
S'http://www.reuters.com/article/2013/06/22/diabetes-device-medtronic-idUSL2N0EX1MF20130622'
p501
sg4
S'20130622\xc2\xa010:59AM UTC'
p502
sg6
S"Medtronic takes '1st step' toward U.S. sale of artificial pancreas"
p503
sa(dp504
g2
S'http://www.reuters.com/article/2013/06/22/health-diabetes-lilly-idUSL2N0EW13W20130622'
p505
sg4
S'20130622\xc2\xa010:59AM UTC'
p506
sg6
S'Lilly once-weekly diabetes drug proves superior in late-stage trials'
p507
sa(dp508
g2
S'http://www.reuters.com/article/2013/06/22/us-usa-southwest-flights-idUSBRE95L08520130622'
p509
sg4
S'20130622\xc2\xa010:42AM UTC'
p510
sg6
S'Southwest flights delayed, canceled after computer glitch'
p511
sa(dp512
g2
S'http://www.reuters.com/article/2013/06/22/us-barclays-tax-idUSBRE95L08020130622'
p513
sg4
S'20130622\xc2\xa010:40AM UTC'
p514
sg6
S"Barclays under German taxman's gaze over tax credits: report"
p515
sa(dp516
g2
S'http://www.reuters.com/article/2013/06/22/usa-southwest-flights-idUSL2N0EY04420130622'
p517
sg4
S'20130622\xc2\xa010:38AM UTC'
p518
sg6
S'Southwest flights delayed, canceled after computer glitch'
p519
sa(dp520
g2
S'http://www.reuters.com/article/2013/06/22/barclays-tax-idUSL5N0EY06M20130622'
p521
sg4
S'20130622\xc2\xa010:37AM UTC'
p522
sg6
S"Barclays under German taxman's gaze over tax credits-report"
p523
sa(dp524
g2
S'http://www.reuters.com/article/2013/06/22/ny-tommy-surfshack-event-idUSnBw225028a+100+BSW20130622'
p525
sg4
S'20130622\xc2\xa010:31AM UTC'
p526
sg6
S'Tommy Hilfiger Celebrates Surf Shack in Los Angeles'
p527
sa(dp528
g2
S'http://www.reuters.com/article/2013/06/22/mayors-against-guns-idUSnPNDC36731+1e0+PRN20130622'
p529
sg4
S'20130622\xc2\xa010:30AM UTC'
p530
sg6
S'Father Of Newtown Victim, Congressman Price, Morrisville Mayor Holcombe, And Local Gun Owners Hold Rally In Raleigh To Voice Support For Common-Sense Gun Laws That Help Save Lives'
p531
sa(dp532
g2
S'http://www.reuters.com/article/2013/06/22/us-tennis-eastbourne-idUSBRE95L07R20130622'
p533
sg4
S'20130622\xc2\xa010:16AM UTC'
p534
sg6
S'Vesnina rides the wind to win her second title'
p535
sa(dp536
g2
S'http://www.reuters.com/article/2013/06/22/shopsimple-socnetwork-idUSnPNCN36181+1e0+PRN20130622'
p537
sg4
S'20130622\xc2\xa010:00AM UTC'
p538
sg6
S'ShopSimple - A New Social Shopping Site for Fashionistas Goes Global!'
p539
sa(dp540
g2
S'http://www.reuters.com/article/2013/06/22/us-germany-turkey-foreignministers-idUSBRE95L07620130622'
p541
sg4
S'20130622\xc2\xa09:35AM UTC'
p542
sg6
S'German, Turkish ministers meet as tension over EU entry rises'
p543
sa(dp544
g2
S'http://www.reuters.com/article/2013/06/22/russia-ibs-idUSL2N0EY03I20130622'
p545
sg4
S'20130622\xc2\xa09:30AM UTC'
p546
sg6
S"REFILE-Russia's Luxoft seeing good investor response to IPO-IBS CEO"
p547
sa(dp548
g2
S'http://www.reuters.com/article/2013/06/22/us-britain-labour-spending-idUSBRE95L07020130622'
p549
sg4
S'20130622\xc2\xa09:13AM UTC'
p550
sg6
S'UK opposition says would not borrow to reverse cuts'
p551
sa(dp552
g2
S'http://www.reuters.com/article/2013/06/22/egypt-mursi-idUSL5N0EY03I20130622'
p553
sg4
S'20130622\xc2\xa09:10AM UTC'
p554
sg6
S'Hardliners call on Luxor governor to quit after Mursi defence'
p555
sa(dp556
g2
S'http://www.reuters.com/article/2013/06/22/saudi-stocks-idUSL5N0EY08320130622'
p557
sg4
S'20130622\xc2\xa08:59AM UTC'
p558
sg6
S'STOCKS-NEWS-MIDEAST-Saudi stocks reverse losses, close up'
p559
sa(dp560
g2
S'http://www.reuters.com/article/2013/06/22/us-italy-unemployment-protest-idUSBRE95L06Q20130622'
p561
sg4
S'20130622\xc2\xa08:26AM UTC'
p562
sg6
S'Tens of thousands march in Rome against unemployment'
p563
sa(dp564
g2
S'http://www.reuters.com/article/2013/06/22/italy-unemployment-protest-idUSL5N0EY05Y20130622'
p565
sg4
S'20130622\xc2\xa08:21AM UTC'
p566
sg6
S'Tens of thousands march in Rome against unemployment'
p567
sa(dp568
g2
S'http://www.reuters.com/article/2013/06/22/us-afghanistan-peace-idUSBRE95L06M20130622'
p569
sg4
S'20130622\xc2\xa08:19AM UTC'
p570
sg6
S'Afghanistan urges Pakistan to free Taliban prisoners if it wants peace'
p571
sa(dp572
g2
S'http://www.reuters.com/article/2013/06/22/idUSnGNX33KBTC+1cf+GNW20130622'
p573
sg4
S'20130622\xc2\xa08:16AM UTC'
p574
sg6
S'6 Reasons Why Vampires are Rich and Zombies Poor, and How They Apply to You Explained in the Latest Article Published by FinancesOnline.com'
p575
sa(dp576
g2
S'http://www.reuters.com/article/2013/06/22/us-usa-fed-volatility-idUSBRE95L06720130622'
p577
sg4
S'20130622\xc2\xa08:04AM UTC'
p578
sg6
S'Analysis: After the Fed shock, markets set for more turmoil'
p579
sa(dp580
g2
S'http://www.reuters.com/article/2013/06/22/ca-harborside-health-idUSnPNLA36722+1e0+PRN20130622'
p581
sg4
S'20130622\xc2\xa08:04AM UTC'
p582
sg6
S"Steve DeAngelo And Harborside Health Center Featured In CNN Original Series 'Inside Man'"
p583
sa(dp584
g2
S'http://www.reuters.com/article/2013/06/22/us-usa-security-pentagon-idUSBRE95L06520130622'
p585
sg4
S'20130622\xc2\xa08:02AM UTC'
p586
sg6
S'Pentagon flash drive ban has many exceptions'
p587
sa(dp588
g2
S'http://www.reuters.com/article/2013/06/22/us-russia-rights-idUSBRE95L05220130622'
p589
sg4
S'20130622\xc2\xa08:01AM UTC'
p590
sg6
S'Russian rights group evicted from Moscow office'
p591
sa(dp592
g2
S'http://www.reuters.com/article/2013/06/22/usa-security-pentagon-idUSL2N0EW0NL20130622'
p593
sg4
S'20130622\xc2\xa07:59AM UTC'
p594
sg6
S'Pentagon flash drive ban has many exceptions'
p595
sa(dp596
g2
S'http://www.reuters.com/article/2013/06/22/kuwait-kipco-rothschild-idUSL5N0EY05A20130622'
p597
sg4
S'20130622\xc2\xa07:36AM UTC'
p598
sg6
S"Kuwait's KIPCO hires Rothschild to advise TV arm IPO"
p599
sa(dp600
g2
S'http://www.reuters.com/article/2013/06/22/southeastasia-haze-idUSL3N0EY05520130622'
p601
sg4
S'20130622\xc2\xa07:21AM UTC'
p602
sg6
S'UPDATE 1-Singapore smog eases as Indonesian planes waterbomb fires'
p603
sa(dp604
g2
S'http://www.reuters.com/article/2013/06/22/us-saudi-expatriates-idUSBRE95L05L20130622'
p605
sg4
S'20130622\xc2\xa07:04AM UTC'
p606
sg6
S'Over 1.5 million foreign workers change status before Saudi crackdown'
p607
sa(dp608
g2
S'http://www.reuters.com/article/2013/06/22/saudi-expatriates-idUSL5N0EY04R20130622'
p609
sg4
S'20130622\xc2\xa07:00AM UTC'
p610
sg6
S'Over 1.5 million foreign workers change status before Saudi crackdown'
p611
sa(dp612
g2
S'http://www.reuters.com/article/2013/06/22/ny-absolut-wburg-idUSnPNNY36698+1e0+PRN20130622'
p613
sg4
S'20130622\xc2\xa07:00AM UTC'
p614
sg6
S'ABSOLUT Empowers Emerging Artists to Transform the Streets of Williamsburg into an Interactive Outdoor Art Exhibition'
p615
sa(dp616
g2
S'http://www.reuters.com/article/2013/06/22/ca-heaven-and-earth-idUSnBw225001a+100+BSW20130622'
p617
sg4
S'20130622\xc2\xa06:45AM UTC'
p618
sg6
S'U.S. Military Veterans Get Healing Help with Holistic Treatments through LA Fundraiser on August 3, 2013'
p619
sa(dp620
g2
S'http://www.reuters.com/article/2013/06/22/india-floods-idUSL3N0EY03S20130622'
p621
sg4
S'20130622\xc2\xa06:29AM UTC'
p622
sg6
S'UPDATE 1-India monsoon floods kill at least 560; thousands missing'
p623
sa(dp624
g2
S'http://www.reuters.com/article/2013/06/22/us-mandela-idUSBRE95L04S20130622'
p625
sg4
S'20130622\xc2\xa06:06AM UTC'
p626
sg6
S"Nelson Mandela remains in 'serious but stable' condition: government"
p627
sa(dp628
g2
S'http://www.reuters.com/article/2013/06/22/prn-good-morning-idUSnPNNYGM+3f+PRN20130622'
p629
sg4
S'20130622\xc2\xa05:59AM UTC'
p630
sg6
S'GOOD MORNING'
p631
sa(dp632
g2
S'http://www.reuters.com/article/2013/06/22/mers-saudi-idUSL5N0EY04320130622'
p633
sg4
S'20130622\xc2\xa05:52AM UTC'
p634
sg6
S'New death from SARS-like coronavirus MERS as health experts meet'
p635
sa(dp636
g2
S'http://www.reuters.com/article/2013/06/22/us-syria-crisis-meeting-idUSBRE95L04620130622'
p637
sg4
S'20130622\xc2\xa05:30AM UTC'
p638
sg6
S'Kerry seeks to coordinate aid to Syrian rebels'
p639
sa(dp640
g2
S'http://www.reuters.com/article/2013/06/22/savola-sugar-idUSL5N0EY02A20130622'
p641
sg4
S'20130622\xc2\xa05:20AM UTC'
p642
sg6
S'Saudi Savola says sugar refinery was hit by fire'
p643
sa(dp644
g2
S'http://www.reuters.com/article/2013/06/22/doping-cycling-ullrich-idUSL3N0EY04I20130622'
p645
sg4
S'20130622\xc2\xa05:17AM UTC'
p646
sg6
S'Doping-Former cyclist Ullrich admits to Fuentes treatment'
p647
sa(dp648
g2
S'http://www.reuters.com/article/2013/06/22/rediffcom-idUSnBw225020a+100+BSW20130622'
p649
sg4
S'20130622\xc2\xa04:55AM UTC'
p650
sg6
S'India Abroad celebrates Indian-American triumph at glittering event'
p651
sa(dp652
g2
S'http://www.reuters.com/article/2013/06/22/itochu-gazprom-lng-idUSL3N0EY04J20130622'
p653
sg4
S'20130622\xc2\xa04:53AM UTC'
p654
sg6
S'Japan consortium, Gazprom to agree to build LNG plant -Nikkei'
p655
sa(dp656
g2
S'http://www.reuters.com/article/2013/06/22/us-palestinians-hamas-idUSBRE95L04020130622'
p657
sg4
S'20130622\xc2\xa04:27AM UTC'
p658
sg6
S'Hamas executes two Palestinians convicted of spying for Israel'
p659
sa(dp660
g2
S'http://www.reuters.com/article/2013/06/22/saudi-stocks-idUSL5N0EY03020130622'
p661
sg4
S'20130622\xc2\xa04:24AM UTC'
p662
sg6
S'STOCKS-NEWS-MIDEAST-Global stocks drag Saudi stocks lower'
p663
sa(dp664
g2
S'http://www.reuters.com/article/2013/06/22/us-indonesia-freeport-idUSBRE95L03M20130622'
p665
sg4
S'20130622\xc2\xa04:01AM UTC'
p666
sg6
S"Freeport resumes some output at world's No.2 copper mine"
p667
sa(dp668
g2
S'http://www.reuters.com/article/2013/06/22/indonesia-freeport-idUSL3N0EY04120130622'
p669
sg4
S'20130622\xc2\xa04:00AM UTC'
p670
sg6
S"UPDATE 1-Freeport resumes some output at world's No.2 copper mine"
p671
sa(dp672
g2
S'http://www.reuters.com/article/2013/06/22/us-icahn-dell-loans-idUSBRE95K19Z20130622'
p673
sg4
S'20130622\xc2\xa03:29AM UTC'
p674
sg6
S"Jefferies readies loans for Icahn's Dell bid: sources"
p675
sa(dp676
g2
S'http://www.reuters.com/article/2013/06/22/us-india-ubs-idUSBRE95L03Q20130622'
p677
sg4
S'20130622\xc2\xa03:27AM UTC'
p678
sg6
S'UBS to exit banking business in India: source'
p679
sa(dp680
g2
S'http://www.reuters.com/article/2013/06/22/india-ubs-idUSL3N0C50TT20130622'
p681
sg4
S'20130622\xc2\xa03:23AM UTC'
p682
sg6
S'UBS to exit banking business in India -source'
p683
sa(dp684
g2
S'http://www.reuters.com/article/2013/06/22/us-usa-security-snowden-complaint-idUSBRE95K1AE20130622'
p685
sg4
S'20130622\xc2\xa03:17AM UTC'
p686
sg6
S'U.S. files charges against former NSA contractor Snowden'
p687
sa(dp688
g2
S'http://www.reuters.com/article/2013/06/22/us-usa-security-snowden-hongkong-idUSBRE95L02X20130622'
p689
sg4
S'20130622\xc2\xa03:16AM UTC'
p690
sg6
S'Snowden extradition battle in Hong Kong could go on for years'
p691
sa(dp692
g2
S'http://www.reuters.com/article/2013/06/22/indonesia-freeport-idUSL3N0EY03K20130622'
p693
sg4
S'20130622\xc2\xa03:15AM UTC'
p694
sg6
S"Indonesia allows Freeport to reopen world's No.2 copper mine"
p695
sa(dp696
g2
S'http://www.reuters.com/article/2013/06/22/china-cnpc-idUSL3N0EY03520130622'
p697
sg4
S'20130622\xc2\xa02:52AM UTC'
p698
sg6
S"CNPC says buys Marathon's Angola oil fields for $1.52 bln"
p699
sa(dp700
g2
S'http://www.reuters.com/article/2013/06/22/us-brazil-protests-idUSBRE95K0JU20130622'
p701
sg4
S'20130622\xc2\xa02:32AM UTC'
p702
sg6
S"Brazil's president pledges to hold dialogue with protesters"
p703
sa(dp704
g2
S'http://www.reuters.com/article/2013/06/22/india-floods-idUSL3N0EY03B20130622'
p705
sg4
S'20130622\xc2\xa02:28AM UTC'
p706
sg6
S'India monsoon floods kill at least 560, with thousands missing'
p707
sa(dp708
g2
S'http://www.reuters.com/article/2013/06/22/us-baseball-roundup-idUSBRE95L03720130622'
p709
sg4
S'20130622\xc2\xa02:02AM UTC'
p710
sg6
S'Victorino inspires Red Sox to big win over Tigers'
p711
sa(dp712
g2
S'http://www.reuters.com/article/2013/06/22/6-flags-full-throttle-idUSnPNMM33036+1e0+PRN20130622'
p713
sg4
S'20130622\xc2\xa01:46AM UTC'
p714
sg6
S"Six Flags Magic Mountain Launches World's Tallest and Fastest Looping Coaster -- FULL THROTTLE"
p715
sa(dp716
g2
S'http://www.reuters.com/article/2013/06/22/ca-glancy-binkow-idUSnBw215847a+100+BSW20130622'
p717
sg4
S'20130622\xc2\xa012:32AM UTC'
p718
sg6
S'Glancy Binkow & Goldberg Announces Lead Plaintiff Deadline In The Class Action Lawsuit Against Delcath Systems, Inc.'
p719
sa(dp720
g2
S'http://www.reuters.com/article/2013/06/22/pa-law-offc-howard-smith-idUSnBw215838a+100+BSW20130622'
p721
sg4
S'20130622\xc2\xa012:32AM UTC'
p722
sg6
S'Law Offices of Howard G. Smith Announces Class Action Lawsuit Against Uni-Pixel, Inc.'
p723
sa(dp724
g2
S'http://www.reuters.com/article/2013/06/22/pa-law-offc-howard-smith-idUSnBw215837a+100+BSW20130622'
p725
sg4
S'20130622\xc2\xa012:32AM UTC'
p726
sg6
S'Law Offices of Howard G. Smith Announces Class Action Lawsuit Against Dynavax Technologies Corporation'
p727
sa(dp728
g2
S'http://www.reuters.com/article/2013/06/22/southeastasia-haze-idUSL2N0EY02820130622'
p729
sg4
S'20130622\xc2\xa012:26AM UTC'
p730
sg6
S'Indonesia fights fires, faces ire as smog blankets Singapore'
p731
sa(dp732
g2
S'http://www.reuters.com/article/2013/06/22/us-usa-dam-california-idUSBRE95L02Q20130622'
p733
sg4
S'20130622\xc2\xa012:21AM UTC'
p734
sg6
S'Crews break ground on largest California dam removal'
p735
sa(dp736
g2
S'http://www.reuters.com/article/2013/06/22/us-athletics-usa-idUSBRE95L02S20130622'
p737
sg4
S'20130622\xc2\xa012:09AM UTC'
p738
sg6
S"Gay sprints to year's fastest 100m to defeat Gatlin"
p739
sa(dp740
g2
S'http://www.reuters.com/article/2013/06/22/ny-citi-idUSnBw215859a+100+BSW20130622'
p741
sg4
S'20130622\xc2\xa012:05AM UTC'
p742
sg6
S'66,000 Citi Volunteers Mark Company\xe2\x80\x99s Annual Global Community Day with Service Activities in 95 Countries'
p743
sa(dp744
g2
S'http://www.reuters.com/article/2013/06/22/usa-dam-california-idUSL2N0EY02U20130622'
p745
sg4
S'20130622\xc2\xa012:04AM UTC'
p746
sg6
S'Crews break ground on largest California dam removal'
p747
sa(dp748
g2
S'http://www.reuters.com/article/2013/06/22/census-daily-feature-idUSnPNDC36536+1e0+PRN20130622'
p749
sg4
S'20130622\xc2\xa012:01AM UTC'
p750
sg6
S'U.S. Census Bureau Daily Feature for June 22'
p751
sa(dp752
g2
S'http://www.reuters.com/news/video/videoStory?storyID=63072897'
p753
sg4
S'20130622\xc2\xa07:27PM UTC'
p754
sg6
S'Night clashes in Turkey'
p755
sa(dp756
g2
S'http://www.reuters.com/news/video/videoStory?storyID=63071250'
p757
sg4
S'20130622\xc2\xa06:40PM UTC'
p758
sg6
S'Under water in Calgary'
p759
sa(dp760
g2
S'http://www.reuters.com/news/video/videoStory?storyID=63069538'
p761
sg4
S'20130622\xc2\xa05:36PM UTC'
p762
sg6
S'At least 18 killed when truck bursts into flames on Bolivian highway'
p763
sa(dp764
g2
S'http://www.reuters.com/news/video/videoStory?storyID=63069271'
p765
sg4
S'20130622\xc2\xa05:25PM UTC'
p766
sg6
S'The art of the protest in Brazil'
p767
sa(dp768
g2
S'http://www.reuters.com/news/video/videoStory?storyID=63067642'
p769
sg4
S'20130622\xc2\xa03:42PM UTC'
p770
sg6
S'Riot police use water cannons to disperse Taksim Square protesters'
p771
sa(dp772
g2
S'http://www.reuters.com/news/video/videoStory?storyID=63067142'
p773
sg4
S'20130622\xc2\xa03:19PM UTC'
p774
sg6
S'"Rohani is not a moderate"-Iranian dissident leader'
p775
sa(dp776
g2
S'http://www.reuters.com/news/video/videoStory?storyID=63065040'
p777
sg4
S'20130622\xc2\xa01:43PM UTC'
p778
sg6
S'A pledge to rebels in Syria'
p779
sa(dp780
g2
S'http://www.reuters.com/news/video/videoStory?storyID=63063767'
p781
sg4
S'20130622\xc2\xa012:40PM UTC'
p782
sg6
S'Spain arrests suspected al Qaeda-linked Syria network'
p783
sa(dp784
g2
S'http://www.reuters.com/news/video/videoStory?storyID=63063316'
p785
sg4
S'20130622\xc2\xa012:19PM UTC'
p786
sg6
S'Rescue efforts continue as hundreds die in monsoon floods in India'
p787
sa(dp788
g2
S'http://www.reuters.com/news/video/videoStory?storyID=63062073'
p789
sg4
S'20130622\xc2\xa011:40AM UTC'
p790
sg6
S"'Friends of Syria' discuss arming rebels"
p791
sa(dp792
g2
S'http://www.reuters.com/news/video/videoStory?storyID=63060959'
p793
sg4
S'20130622\xc2\xa010:59AM UTC'
p794
sg6
S'Indonesia struggles against illegal forest fires'
p795
sa(dp796
g2
S'http://www.reuters.com/news/video/videoStory?storyID=63058924'
p797
sg4
S'20130622\xc2\xa09:53AM UTC'
p798
sg6
S'Mount Fuji granted World Heritage status'
p799
sa(dp800
g2
S'http://www.reuters.com/news/video/videoStory?storyID=63058928'
p801
sg4
S'20130622\xc2\xa09:52AM UTC'
p802
sg6
S'India flood dead nears 600, thousands missing'
p803
sa(dp804
g2
S'http://www.reuters.com/news/video/videoStory?storyID=63058932'
p805
sg4
S'20130622\xc2\xa09:44AM UTC'
p806
sg6
S'Funeral of Pakistani lawmaker and his son'
p807
sa(dp808
g2
S'http://www.reuters.com/news/video/videoStory?storyID=63055350'
p809
sg4
S'20130622\xc2\xa07:39AM UTC'
p810
sg6
S"Egypt's Jon Stewart hosts the real Jon Stewart"
p811
sa(dp812
g2
S'http://www.reuters.com/news/video/videoStory?storyID=63055143'
p813
sg4
S'20130622\xc2\xa07:32AM UTC'
p814
sg6
S'Russia commemorates WWII anniversary'
p815
sa(dp816
g2
S'http://www.reuters.com/news/video/videoStory?storyID=63055360'
p817
sg4
S'20130622\xc2\xa07:32AM UTC'
p818
sg6
S'Thousands march in Rome anti-austerity demo'
p819
sa(dp820
g2
S'http://www.reuters.com/news/video/videoStory?storyID=63053812'
p821
sg4
S'20130622\xc2\xa06:51AM UTC'
p822
sg6
S'David Beckham entertains children at China hospital'
p823
sa(dp824
g2
S'http://www.reuters.com/news/video/videoStory?storyID=63052730'
p825
sg4
S'20130622\xc2\xa06:08AM UTC'
p826
sg6
S'Haze hangs heavy over Singapore'
p827
sa(dp828
g2
S'http://www.reuters.com/news/video/videoStory?storyID=63051688'
p829
sg4
S'20130622\xc2\xa05:24AM UTC'
p830
sg6
S'John Kerry in Doha for "Friends of Syria" meeting'
p831
sa(dp832
g2
S'http://www.reuters.com/news/video/videoStory?storyID=63050947'
p833
sg4
S'20130622\xc2\xa04:37AM UTC'
p834
sg6
S'South Korean soldiers re-enact battle'
p835
sa(dp836
g2
S'http://www.reuters.com/news/video/videoStory?storyID=63050446'
p837
sg4
S'20130622\xc2\xa04:35AM UTC'
p838
sg6
S'Rousseff promises to meet with protesters'
p839
sa(dp840
g2
S'http://www.reuters.com/news/video/videoStory?storyID=63049791'
p841
sg4
S'20130622\xc2\xa03:41AM UTC'
p842
sg6
S'Snowden charged with espionage'
p843
sa.