(lp0
(dp1
S'href'
p2
S'http://www.reuters.com/article/2014/06/15/bbo-padres-mets-writethru-idUSMTZEA6F6MQ2LT20140615'
p3
sS'ts'
p4
S'20140614\xc2\xa011:46PM UTC'
p5
sS'title'
p6
S'Hahn gives Padres 6 innings and a win'
p7
sa(dp8
g2
S'http://www.reuters.com/article/2014/06/15/bbo-nationals-cardinals-writethru-idUSMTZEA6F6U4IRF20140615'
p9
sg4
S'20140614\xc2\xa011:32PM UTC'
p10
sg6
S'Adams hits go-ahead homer again for Cardinals'
p11
sa(dp12
g2
S'http://www.reuters.com/article/2014/06/15/us-soccer-world-m8-eng-hodgson-idUSKBN0EQ03Z20140615'
p13
sg4
S'20140614\xc2\xa010:41PM UTC'
p14
sg6
S'Hodgson takes England loss hard despite youthful promise'
p15
sa(dp16
g2
S'http://www.reuters.com/article/2014/06/15/us-soccer-world-m8-eng-ita-coach-idUSKBN0EQ03E20140615'
p17
sg4
S'20140614\xc2\xa010:28PM UTC'
p18
sg6
S'My tactics worked says Prandelli after Italy sink England'
p19
sa(dp20
g2
S'http://www.reuters.com/article/2014/06/15/us-soccer-world-m8-eng-ita-idUSKBN0EQ03220140615'
p21
sg4
S'20140614\xc2\xa010:18PM UTC'
p22
sg6
S'Business as usual for Italy but England encouraged'
p23
sa(dp24
g2
S'http://www.reuters.com/article/2014/06/15/lg-chem-china-autos-idUSL4N0OU2R620140615'
p25
sg4
S'20140614\xc2\xa010:00PM UTC'
p26
sg6
S'LG Chem to supply electric car batteries to SAIC, Qoros'
p27
sa(dp28
g2
S'http://www.reuters.com/article/2014/06/15/bbo-twins-tigers-writethru-idUSMTZEA6F6OH9OU20140615'
p29
sg4
S'20140614\xc2\xa09:41PM UTC'
p30
sg6
S'Tigers hold on for 12-9 win over Twins'
p31
sa(dp32
g2
S'http://www.reuters.com/article/2014/06/15/us-golf-open-idUSKBN0EP0PN20140615'
p33
sg4
S'20140614\xc2\xa09:24PM UTC'
p34
sg6
S'Kaymer five ahead after testing day at Pinehurst'
p35
sa(dp36
g2
S'http://www.reuters.com/article/2014/06/15/us-soccer-world-m7-uru-crc-pinto-idUSKBN0EQ01120140615'
p37
sg4
S'20140614\xc2\xa09:22PM UTC'
p38
sg6
S'Costa Rica keep calm and take to the air to stun Uruguay'
p39
sa(dp40
g2
S'http://www.reuters.com/article/2014/06/15/us-soccer-world-m6-civ-jpn-teams-idUSKBN0EQ00P20140615'
p41
sg4
S'20140614\xc2\xa09:21PM UTC'
p42
sg6
S'Toure starts, Drogba benched for Ivory Coast vs. Japan'
p43
sa(dp44
g2
S'http://www.reuters.com/article/2014/06/15/us-soccer-world-m8-eng-ita-physio-idUSKBN0EQ00R20140615'
p45
sg4
S'20140614\xc2\xa09:21PM UTC'
p46
sg6
S'England physio suffers suspected broken ankle celebrating'
p47
sa(dp48
g2
S'http://www.reuters.com/article/2014/06/15/us-soccer-world-m8-eng-ita-idUSKBN0EP16120140615'
p49
sg4
S'20140614\xc2\xa09:16PM UTC'
p50
sg6
S'Cool Italy outwit England to win 2-1 in the heat'
p51
sa(dp52
g2
S'http://www.reuters.com/article/2014/06/15/us-golf-open-fowler-compton-idUSKBN0EQ02520140615'
p53
sg4
S'20140614\xc2\xa09:13PM UTC'
p54
sg6
S'Young gun Fowler, journeyman Compton converge in Pinehurst'
p55
sa(dp56
g2
S'http://www.reuters.com/article/2014/06/15/us-usa-newyork-flight-idUSKBN0EQ01V20140615'
p57
sg4
S'20140614\xc2\xa09:05PM UTC'
p58
sg6
S'JetBlue apologizes after girl, denied toilet, urinates in plane seat'
p59
sa(dp60
g2
S'http://www.reuters.com/article/2014/06/15/bbo-indians-redsox-writethru-idUSMTZEA6F6N4WM520140615'
p61
sg4
S'20140614\xc2\xa09:03PM UTC'
p62
sg6
S'Indians get help from Red Sox and win'
p63
sa(dp64
g2
S'http://www.reuters.com/article/2014/06/15/bbo-cubs-phillies-writethru-idUSMTZEA6E6JHO1D20140615'
p65
sg4
S'20140614\xc2\xa08:52PM UTC'
p66
sg6
S'Rollins, Phillies a hit in 7-4 win over Cubs'
p67
sa(dp68
g2
S'http://www.reuters.com/article/2014/06/15/bbo-rays-astros-recap-idUSMTZEA6F6NZ0O220140615'
p69
sg4
S'20140614\xc2\xa08:44PM UTC'
p70
sg6
S'Astros 7, Rays 3'
p71
sa(dp72
g2
S'http://www.reuters.com/article/2014/06/15/bbo-pirates-marlins-recap-idUSMTZEA6F6MMLLP20140615'
p73
sg4
S'20140614\xc2\xa08:34PM UTC'
p74
sg6
S'Pirates 8, Marlins 6'
p75
sa(dp76
g2
S'http://www.reuters.com/article/2014/06/15/bbo-bluejays-orioles-writethru-idUSMTZEA6F6M9QKT20140615'
p77
sg4
S'20140614\xc2\xa08:23PM UTC'
p78
sg6
S'Orioles pull closer to slumping Blue Jays'
p79
sa(dp80
g2
S'http://www.reuters.com/article/2014/06/15/us-soccer-world-m6-civ-jpn-teams-idUSKBN0EQ00720140615'
p81
sg4
S'20140614\xc2\xa08:08PM UTC'
p82
sg6
S'Ivory Coast vs. Japan - teams'
p83
sa(dp84
g2
S'http://www.reuters.com/article/2014/06/15/us-athletics-diamond-idUSKBN0EQ00320140615'
p85
sg4
S'20140614\xc2\xa08:05PM UTC'
p86
sg6
S'Bondarenko, Barshim wage epic NY high jump duel'
p87
sa(dp88
g2
S'http://www.reuters.com/article/2014/06/15/us-soccer-world-m10-fra-hon-suarez-idUSKBN0EP17F20140615'
p89
sg4
S'20140614\xc2\xa08:00PM UTC'
p90
sg6
S"Ugly? We're a Cinderella team, says Honduras coach"
p91
sa(dp92
g2
S'http://www.reuters.com/article/2014/06/14/us-usa-philadelphia-strike-idUSKBN0EP12X20140614'
p93
sg4
S'20140614\xc2\xa07:58PM UTC'
p94
sg6
S'President Obama intervenes to end Philadelphia transit strike'
p95
sa(dp96
g2
S'http://www.reuters.com/article/2014/06/14/us-medtronic-covidien-talks-source-idUSKBN0EP0TP20140614'
p97
sg4
S'20140614\xc2\xa07:55PM UTC'
p98
sg6
S'Medtronic nears $45 billion-plus deal for Covidien: sources'
p99
sa(dp100
g2
S'http://www.reuters.com/article/2014/06/14/bbo-indians-redsox-recap-idUSMTZEA6F6N4WM520140614'
p101
sg4
S'20140614\xc2\xa07:51PM UTC'
p102
sg6
S'Indians 3, Red Sox 2'
p103
sa(dp104
g2
S'http://www.reuters.com/article/2014/06/14/us-soccer-world-qatar-fifa-idUSKBN0EP14X20140614'
p105
sg4
S'20140614\xc2\xa07:49PM UTC'
p106
sg6
S'Qatar World Cup bid organizers say they have "nothing to hide"'
p107
sa(dp108
g2
S'http://www.reuters.com/article/2014/06/14/us-soccer-world-m7-uru-crc-analysis-idUSKBN0EP17520140614'
p109
sg4
S'20140614\xc2\xa07:47PM UTC'
p110
sg6
S'Life without Suarez proves too tough for Uruguay'
p111
sa(dp112
g2
S'http://www.reuters.com/article/2014/06/14/bbo-padres-mets-recap-idUSMTZEA6F6MQ2LT20140614'
p113
sg4
S'20140614\xc2\xa07:42PM UTC'
p114
sg6
S'Padres 5, Mets 0'
p115
sa(dp116
g2
S'http://www.reuters.com/article/2014/06/14/medtronic-covidien-talks-idUSL2N0OV0DL20140614'
p117
sg4
S'20140614\xc2\xa07:41PM UTC'
p118
sg6
S'UPDATE 4-Medtronic nears $45 billion-plus deal for Covidien -sources'
p119
sa(dp120
g2
S'http://www.reuters.com/article/2014/06/14/bbo-pirates-marlins-recap-idUSMTZEA6F6MMLLP20140614'
p121
sg4
S'20140614\xc2\xa07:40PM UTC'
p122
sg6
S'Pirates 8, Marlins 6'
p123
sa(dp124
g2
S'http://www.reuters.com/article/2014/06/14/soccer-world-qatar-fifa-idUSL5N0OV14I20140614'
p125
sg4
S'20140614\xc2\xa07:37PM UTC'
p126
sg6
S'UPDATE 2-Qatar World Cup bid organizers say they have "nothing to hide"'
p127
sa(dp128
g2
S'http://www.reuters.com/article/2014/06/14/us-poland-government-tape-idUSKBN0EP15920140614'
p129
sg4
S'20140614\xc2\xa07:34PM UTC'
p130
sg6
S'Polish magazine says central bank chief discussed removal of minister'
p131
sa(dp132
g2
S'http://www.reuters.com/article/2014/06/14/bbo-cubs-phillies-recap-idUSMTZEA6E6JHO1D20140614'
p133
sg4
S'20140614\xc2\xa07:32PM UTC'
p134
sg6
S'Phillies 7, Cubs 4'
p135
sa(dp136
g2
S'http://www.reuters.com/article/2014/06/14/poland-government-tape-idUSL5N0OV15J20140614'
p137
sg4
S'20140614\xc2\xa07:31PM UTC'
p138
sg6
S'UPDATE 1-Polish magazine says central bank chief discussed removal of minister'
p139
sa(dp140
g2
S'http://www.reuters.com/article/2014/06/14/gcel-idUSnBw145046a+100+BSW20140614'
p141
sg4
S'20140614\xc2\xa07:28PM UTC'
p142
sg6
S'A New Era of Trade Finance Capitalizing on USD 109 Trillion B2B Global Market Indicated by ITFC MOU with GCEL'
p143
sa(dp144
g2
S'http://www.reuters.com/article/2014/06/14/us-soccer-world-m11-argentina-idUSKBN0EP16D20140614'
p145
sg4
S'20140614\xc2\xa07:26PM UTC'
p146
sg6
S'Argentina coach tight-lipped on plans to defeat Bosnia'
p147
sa(dp148
g2
S'http://www.reuters.com/article/2014/06/14/us-soccer-world-m11-arg-bih-factbox-idUSKBN0EP16H20140614'
p149
sg4
S'20140614\xc2\xa07:26PM UTC'
p150
sg6
S'Factbox: Argentina vs. Bosnia'
p151
sa(dp152
g2
S'http://www.reuters.com/article/2014/06/14/us-brazil-worldcup-rape-idUSKBN0EP0YF20140614'
p153
sg4
S'20140614\xc2\xa07:05PM UTC'
p154
sg6
S'Brazilian police investigate World Cup alleged rape attempt'
p155
sa(dp156
g2
S'http://www.reuters.com/article/2014/06/14/us-soccer-world-m8-eng-ita-idUSKBN0EP16120140614'
p157
sg4
S'20140614\xc2\xa07:05PM UTC'
p158
sg6
S'England and Italy level at halftime after Sturridge equalizer'
p159
sa(dp160
g2
S'http://www.reuters.com/article/2014/06/14/us-soccer-world-m7-uru-crc-idUSKBN0EP15V20140614'
p161
sg4
S'20140614\xc2\xa07:04PM UTC'
p162
sg6
S'Suarez could make it for England match, says Tabarez'
p163
sa(dp164
g2
S'http://www.reuters.com/article/2014/06/14/us-iraq-security-airstrike-idUSKBN0EP12H20140614'
p165
sg4
S'20140614\xc2\xa06:53PM UTC'
p166
sg6
S'Iraqi airstrike kills seven Kurdish security forces in Diyala: police'
p167
sa(dp168
g2
S'http://www.reuters.com/article/2014/06/14/us-iraq-security-idUSKBN0EP0KJ20140614'
p169
sg4
S'20140614\xc2\xa06:53PM UTC'
p170
sg6
S'Iraq insurgent advance slows, U.S. sends carrier to Gulf'
p171
sa(dp172
g2
S'http://www.reuters.com/article/2014/06/14/us-soccer-world-m7-uru-crc-idUSKBN0EP10T20140614'
p173
sg4
S'20140614\xc2\xa06:42PM UTC'
p174
sg6
S'Clinical Costa Rica fight back to stun Uruguay'
p175
sa(dp176
g2
S'http://www.reuters.com/article/2014/06/14/uk-soccer-world-drones-idUSKBN0EP15H20140614'
p177
sg4
S'20140614\xc2\xa06:42PM UTC'
p178
sg6
S'French call in FIFA to investigate drone snooping'
p179
sa(dp180
g2
S'http://www.reuters.com/article/2014/06/14/us-soccer-world-drones-idUSKBN0EP15F20140614'
p181
sg4
S'20140614\xc2\xa06:40PM UTC'
p182
sg6
S'French call in FIFA to investigate drone snooping'
p183
sa(dp184
g2
S'http://www.reuters.com/article/2014/06/14/us-usa-body-new-york-idUSKBN0EP15D20140614'
p185
sg4
S'20140614\xc2\xa06:37PM UTC'
p186
sg6
S"Body identified as young mother missing on New York's Long Island"
p187
sa(dp188
g2
S'http://www.reuters.com/article/2014/06/14/us-ukraine-crisis-plane-idUSKBN0EP08420140614'
p189
sg4
S'20140614\xc2\xa06:36PM UTC'
p190
sg6
S'Ukraine vows firm response after rebels shoot down military plane'
p191
sa(dp192
g2
S'http://www.reuters.com/article/2014/06/14/ukraine-crisis-plane-idUSL5N0OV05920140614'
p193
sg4
S'20140614\xc2\xa06:29PM UTC'
p194
sg6
S'Ukraine vows firm response after rebels shoot down military plane'
p195
sa(dp196
g2
S'http://www.reuters.com/article/2014/06/14/poland-government-tape-idUSL5N0OV0RI20140614'
p197
sg4
S'20140614\xc2\xa06:18PM UTC'
p198
sg6
S'Polish magazine says central bank chief discussed removal of a minister'
p199
sa(dp200
g2
S'http://www.reuters.com/article/2014/06/14/us-golf-open-idUSKBN0EP0PN20140614'
p201
sg4
S'20140614\xc2\xa06:11PM UTC'
p202
sg6
S'Kaymer five ahead after nine holes in third round'
p203
sa(dp204
g2
S'http://www.reuters.com/article/2014/06/14/idUSnMKWtbRkHa+1ca+MKW20140614'
p205
sg4
S'20140614\xc2\xa06:04PM UTC'
p206
sg6
S'Duck Tape(R) Sets Guinness World Records(R) Record at Avon Heritage Duck Tape(R) Festival'
p207
sa(dp208
g2
S'http://www.reuters.com/article/2014/06/14/world-news-schedule-at-2200-gmt-6-pm-et-idUSL5N0OV0VO20140614'
p209
sg4
S'20140614\xc2\xa06:00PM UTC'
p210
sg6
S'WORLD NEWS SCHEDULE AT 2200/6 PM ET'
p211
sa(dp212
g2
S'http://www.reuters.com/article/2014/06/14/lahabranewplayground-idUSnPnbHlfV9+92+PRN20140614'
p213
sg4
S'20140614\xc2\xa06:00PM UTC'
p214
sg6
S'Foresters, KaBOOM! and volunteers  bring families together with new playground in La Habra'
p215
sa(dp216
g2
S'http://www.reuters.com/article/2014/06/14/soccer-world-qatar-fifa-idUSL5N0OV14820140614'
p217
sg4
S'20140614\xc2\xa05:45PM UTC'
p218
sg6
S"Qatar World Cup bid organizers say have 'nothing to hide'"
p219
sa(dp220
g2
S'http://www.reuters.com/article/2014/06/14/iraq-security-airstrike-idUSL5N0OV13S20140614'
p221
sg4
S'20140614\xc2\xa05:42PM UTC'
p222
sg6
S'UPDATE 1-Iraqi airstrike kills seven Kurdish security forces in Diyala -police'
p223
sa(dp224
g2
S'http://www.reuters.com/article/2014/06/14/us-soccer-world-m14-gha-usa-idUSKBN0EP14D20140614'
p225
sg4
S'20140614\xc2\xa05:38PM UTC'
p226
sg6
S'U.S. face World Cup nemesis Ghana in Natal opener'
p227
sa(dp228
g2
S'http://www.reuters.com/article/2014/06/14/us-soccer-world-m14-gha-usa-factbox-idUSKBN0EP14J20140614'
p229
sg4
S'20140614\xc2\xa05:38PM UTC'
p230
sg6
S'Factbox: Ghana vs. United States'
p231
sa(dp232
g2
S'http://www.reuters.com/article/2014/06/14/bbo-royals-whitesox-recap-idUSMTZEA6E6GO2XW20140614'
p233
sg4
S'20140614\xc2\xa05:31PM UTC'
p234
sg6
S'Royals 9, White Sox 1'
p235
sa(dp236
g2
S'http://www.reuters.com/article/2014/06/14/us-soccer-world-m10-fra-idUSKBN0EP14920140614'
p237
sg4
S'20140614\xc2\xa05:28PM UTC'
p238
sg6
S'Brazil could mark beginning of end of French nightmare'
p239
sa(dp240
g2
S'http://www.reuters.com/article/2014/06/14/us-soccer-world-m8-eng-ita-teams-idUSKBN0EP14320140614'
p241
sg4
S'20140614\xc2\xa05:25PM UTC'
p242
sg6
S'Italy pack midfield for opening game against England'
p243
sa(dp244
g2
S'http://www.reuters.com/article/2014/06/14/us-soccer-world-ecu-rueda-idUSKBN0EP13V20140614'
p245
sg4
S'20140614\xc2\xa05:23PM UTC'
p246
sg6
S'Ecuador fret over lack of experience'
p247
sa(dp248
g2
S'http://www.reuters.com/article/2014/06/14/us-soccer-world-m8-eng-ita-teams-idUSKBN0EP13P20140614'
p249
sg4
S'20140614\xc2\xa05:20PM UTC'
p250
sg6
S'England v Italy - teams'
p251
sa(dp252
g2
S'http://www.reuters.com/article/2014/06/14/us-soccer-world-m5-col-gre-pekerman-idUSKBN0EP13L20140614'
p253
sg4
S'20140614\xc2\xa05:16PM UTC'
p254
sg6
S"Colombia's focus key in win over Greece: Pekerman"
p255
sa(dp256
g2
S'http://www.reuters.com/article/2014/06/14/us-indonesia-election-media-idUSKBN0EP13J20140614'
p257
sg4
S'20140614\xc2\xa05:14PM UTC'
p258
sg6
S"In Indonesia's presidential race, ex-general a winner in proxy TV battle"
p259
sa(dp260
g2
S'http://www.reuters.com/article/2014/06/14/us-soccer-world-m7-uru-crc-redcard-idUSKBN0EP13B20140614'
p261
sg4
S'20140614\xc2\xa05:07PM UTC'
p262
sg6
S"Uruguay's Pereira sent off v Costa Rica in World Cup Group D match"
p263
sa(dp264
g2
S'http://www.reuters.com/article/2014/06/14/cqn-ca-scu-idUSnBw145038a+100+BSW20140614'
p265
sg4
S'20140614\xc2\xa05:04PM UTC'
p266
sg6
S'CORRECTING and REPLACING \xe2\x80\x9cEverybody Matters,\xe2\x80\x9d Soccer Champion Brandi Chastain Tells Santa Clara University Class of 2014'
p267
sa(dp268
g2
S'http://www.reuters.com/article/2014/06/14/indonesia-election-media-idUSL3N0OL1RP20140614'
p269
sg4
S'20140614\xc2\xa05:00PM UTC'
p270
sg6
S"In Indonesia's presidential race, ex-general a winner in proxy TV battle"
p271
sa(dp272
g2
S'http://www.reuters.com/article/2014/06/14/us-usa-obama-climatechange-idUSKBN0EP12J20140614'
p273
sg4
S'20140614\xc2\xa04:54PM UTC'
p274
sg6
S'Obama rips climate change deniers in graduation speech'
p275
sa(dp276
g2
S'http://www.reuters.com/article/2014/06/14/us-iraq-security-usa-carrier-idUSKBN0EP0S020140614'
p277
sg4
S'20140614\xc2\xa04:51PM UTC'
p278
sg6
S'Pentagon orders aircraft carrier to Gulf to add Iraq military option'
p279
sa(dp280
g2
S'http://www.reuters.com/article/2014/06/14/usa-obama-climatechange-idUSL2N0OV0E220140614'
p281
sg4
S'20140614\xc2\xa04:50PM UTC'
p282
sg6
S'Obama rips climate change deniers in graduation speech'
p283
sa(dp284
g2
S'http://www.reuters.com/article/2014/06/14/iraq-security-airstrike-idUSL5N0OV12220140614'
p285
sg4
S'20140614\xc2\xa04:48PM UTC'
p286
sg6
S'Iraqi airstrike kills seven Kurdish security forces in Diyala-police'
p287
sa(dp288
g2
S'http://www.reuters.com/article/2014/06/14/us-ukraine-crisis-talks-idUSKBN0EP0C320140614'
p289
sg4
S'20140614\xc2\xa04:39PM UTC'
p290
sg6
S'Ukraine, Russia agree to hold new gas talks on Sunday'
p291
sa(dp292
g2
S'http://www.reuters.com/article/2014/06/14/ukraine-crisis-talks-idUSL5N0OV08Q20140614'
p293
sg4
S'20140614\xc2\xa04:36PM UTC'
p294
sg6
S'UPDATE 4-Ukraine, Russia agree to hold new gas talks on Sunday'
p295
sa(dp296
g2
S'http://www.reuters.com/article/2014/06/14/us-soccer-world-m5-col-gre-idUSKBN0EP0VZ20140614'
p297
sg4
S'20140614\xc2\xa04:30PM UTC'
p298
sg6
S'Colombia thrash Greece in joyous World Cup return'
p299
sa(dp300
g2
S'http://www.reuters.com/article/2014/06/14/us-libya-qatar-idUSKBN0EP12120140614'
p301
sg4
S'20140614\xc2\xa04:26PM UTC'
p302
sg6
S"Qatar says diplomat's comments criticizing Tripoli fake: Libya"
p303
sa(dp304
g2
S'http://www.reuters.com/article/2014/06/14/us-un-carbon-idUSKBN0EP11T20140614'
p305
sg4
S'20140614\xc2\xa04:22PM UTC'
p306
sg6
S'U.N. climate talks edge towards 2015 emissions deal'
p307
sa(dp308
g2
S'http://www.reuters.com/article/2014/06/14/iraq-security-usa-carrier-idUSL2N0OV0DB20140614'
p309
sg4
S'20140614\xc2\xa04:18PM UTC'
p310
sg6
S'UPDATE 2-Pentagon orders aircraft carrier to Gulf to add Iraq military option'
p311
sa(dp312
g2
S'http://www.reuters.com/article/2014/06/14/us-ukraine-crisis-talks-finish-idUSKBN0EP11J20140614'
p313
sg4
S'20140614\xc2\xa04:16PM UTC'
p314
sg6
S'Russia and Ukraine to hold new gas talks on Sunday'
p315
sa(dp316
g2
S'http://www.reuters.com/article/2014/06/14/us-eu-ukraine-russia-idUSKBN0EP11H20140614'
p317
sg4
S'20140614\xc2\xa04:14PM UTC'
p318
sg6
S"EU's Van Rompuy: Russia must stop support to Ukraine separatists"
p319
sa(dp320
g2
S'http://www.reuters.com/article/2014/06/14/ukraine-crisis-talks-finish-idUSL5N0OV0ZZ20140614'
p321
sg4
S'20140614\xc2\xa04:12PM UTC'
p322
sg6
S'Russia and Ukraine to hold new gas talks on Sunday'
p323
sa(dp324
g2
S'http://www.reuters.com/article/2014/06/14/us-usa-people-jimmyscott-idUSKBN0EP11D20140614'
p325
sg4
S'20140614\xc2\xa04:10PM UTC'
p326
sg6
S'Jimmy Scott, angel-voiced jazz singer, dies at 88'
p327
sa(dp328
g2
S'http://www.reuters.com/article/2014/06/14/nigeria-diamond-bnk-idUSL5N0OV0ZP20140614'
p329
sg4
S'20140614\xc2\xa04:07PM UTC'
p330
sg6
S"UPDATE 1-Nigeria's Diamond Bank to raise $309 mln via rights issue"
p331
sa(dp332
g2
S'http://www.reuters.com/article/2014/06/14/us-soccer-world-m5-col-gre-analysis-idUSKBN0EP11320140614'
p333
sg4
S'20140614\xc2\xa04:07PM UTC'
p334
sg6
S'Colombia signal South American World Cup intent'
p335
sa(dp336
g2
S'http://www.reuters.com/article/2014/06/14/africa-ecobank-idUSL5N0OV10620140614'
p337
sg4
S'20140614\xc2\xa04:06PM UTC'
p338
sg6
S'Ecobank says IFC to swap $75 mln debt into equity on July 1'
p339
sa(dp340
g2
S'http://www.reuters.com/article/2014/06/14/idUSnMKWPbrRpa+1e4+MKW20140614'
p341
sg4
S'20140614\xc2\xa04:04PM UTC'
p342
sg6
S'New Halal Labelling Requirements Benefit Consumers and Food Producers'
p343
sa(dp344
g2
S'http://www.reuters.com/article/2014/06/14/idUSnCCN1xktSh+1c2+MKW20140614'
p345
sg4
S'20140614\xc2\xa04:04PM UTC'
p346
sg6
S'New Halal Labelling Requirements Benefit Consumers and Food Producers'
p347
sa(dp348
g2
S'http://www.reuters.com/article/2014/06/14/usa-people-jimmyscott-idUSL2N0OV0GD20140614'
p349
sg4
S'20140614\xc2\xa04:01PM UTC'
p350
sg6
S'Jimmy Scott, angel-voiced jazz singer, dies at 88'
p351
sa(dp352
g2
S'http://www.reuters.com/article/2014/06/14/ca-america-movie-idUSnPnbcZ872+88+PRN20140614'
p353
sg4
S'20140614\xc2\xa03:47PM UTC'
p354
sg6
S'New Movie "America" Features Hillary Clinton First Meeting With Saul Alinsky'
p355
sa(dp356
g2
S'http://www.reuters.com/article/2014/06/14/us-soccer-world-m5-gre-idUSKBN0EP10B20140614'
p357
sg4
S'20140614\xc2\xa03:40PM UTC'
p358
sg6
S'Defeat by Colombia is no Greek drama says coach Santos'
p359
sa(dp360
g2
S'http://www.reuters.com/article/2014/06/14/us-tennis-women-birmingham-idUSKBN0EP10420140614'
p361
sg4
S'20140614\xc2\xa03:32PM UTC'
p362
sg6
S'Slow-burning Ivanovic reaches Birmingham final'
p363
sa(dp364
g2
S'http://www.reuters.com/article/2014/06/14/ucc-redskins-boycott-idUSnPn7cb4gV+81+PRN20140614'
p365
sg4
S'20140614\xc2\xa03:30PM UTC'
p366
sg6
S'United Church of Christ Central Atlantic Conference Passes Resolution Calling for Washington Football Team Name Change and Calls for Member Boycott'
p367
sa(dp368
g2
S'http://www.reuters.com/article/2014/06/14/us-tennis-men-halle-idUSKBN0EP0UB20140614'
p369
sg4
S'20140614\xc2\xa03:29PM UTC'
p370
sg6
S"Forgetful Federer left wondering 'what's the point?'"
p371
sa(dp372
g2
S'http://www.reuters.com/article/2014/06/14/us-soccer-world-bel-idUSKBN0EP0ZR20140614'
p373
sg4
S'20140614\xc2\xa03:23PM UTC'
p374
sg6
S'Tackles fly in as Belgian intensity builds'
p375
sa(dp376
g2
S'http://www.reuters.com/article/2014/06/14/us-afghanistan-election-idUSKBN0EP05X20140614'
p377
sg4
S'20140614\xc2\xa03:19PM UTC'
p378
sg6
S'Afghans ignore Taliban threats and vote again in final test'
p379
sa(dp380
g2
S'http://www.reuters.com/article/2014/06/14/us-palestinian-israel-idUSKBN0EP0DZ20140614'
p381
sg4
S'20140614\xc2\xa03:17PM UTC'
p382
sg6
S'Fearing three teens abducted, Israel escalates West Bank search with Abbas help'
p383
sa(dp384
g2
S'http://www.reuters.com/article/2014/06/14/us-soccer-world-stadium-beirario-idUSKBN0EP0ZF20140614'
p385
sg4
S'20140614\xc2\xa03:13PM UTC'
p386
sg6
S'Rain-soaked workers scramble to finish Beira Rio stadium'
p387
sa(dp388
g2
S'http://www.reuters.com/article/2014/06/14/soccer-world-stadium-beirario-idUSL5N0OV0XB20140614'
p389
sg4
S'20140614\xc2\xa03:06PM UTC'
p390
sg6
S'Soccer-Rain-soaked workers scramble to finish Beira Rio stadium'
p391
sa(dp392
g2
S'http://www.reuters.com/article/2014/06/14/us-soccer-world-esp-delbosque-idUSKBN0EP0Z920140614'
p393
sg4
S'20140614\xc2\xa03:02PM UTC'
p394
sg6
S"Del Bosque still smiling after Spain's nightmare start"
p395
sa(dp396
g2
S'http://www.reuters.com/article/2014/06/14/us-soccer-world-ger-podolski-idUSKBN0EP0Z520140614'
p397
sg4
S'20140614\xc2\xa03:00PM UTC'
p398
sg6
S'German style can win over Brazilian fans: Podolski'
p399
sa(dp400
g2
S'http://www.reuters.com/article/2014/06/14/idUSnMKWLs3jca+1e0+MKW20140614'
p401
sg4
S'20140614\xc2\xa03:00PM UTC'
p402
sg6
S'11ft 10" Sturgeon Caught on Fraser River by 19-Year-Old Tourist'
p403
sa(dp404
g2
S'http://www.reuters.com/article/2014/06/14/idUSnCCN8TR5G1+1da+MKW20140614'
p405
sg4
S'20140614\xc2\xa03:00PM UTC'
p406
sg6
S'11ft 10" Sturgeon Caught on Fraser River by 19-Year-Old Tourist'
p407
sa(dp408
g2
S'http://www.reuters.com/article/2014/06/14/us-usa-crash-houston-idUSKBN0EP0Z120140614'
p409
sg4
S'20140614\xc2\xa02:57PM UTC'
p410
sg6
S'Houston police searching for hit-and-run driver who killed three'
p411
sa(dp412
g2
S'http://www.reuters.com/article/2014/06/14/us-soccer-world-m8-eng-ita-buffon-idUSKBN0EP0N820140614'
p413
sg4
S'20140614\xc2\xa02:53PM UTC'
p414
sg6
S'Italy confirm Buffon will miss England game'
p415
sa(dp416
g2
S'http://www.reuters.com/article/2014/06/14/us-soccer-world-m7-uru-crc-teams-idUSKBN0EP0YR20140614'
p417
sg4
S'20140614\xc2\xa02:46PM UTC'
p418
sg6
S'Suarez on the bench for Uruguay, Gamboa in for Costa Rica'
p419
sa(dp420
g2
S'http://www.reuters.com/article/2014/06/14/us-tennis-men-queen-s-idUSKBN0EP0YL20140614'
p421
sg4
S'20140614\xc2\xa02:41PM UTC'
p422
sg6
S"Dimitrov displays his all-round skills to down Wawrinka at Queen's"
p423
sa(dp424
g2
S'http://www.reuters.com/article/2014/06/14/us-motor-racing-lemans-idUSKBN0EP0Y520140614'
p425
sg4
S'20140614\xc2\xa02:35PM UTC'
p426
sg6
S'Porsche lead as early rain causes Le Mans spills'
p427
sa(dp428
g2
S'http://www.reuters.com/article/2014/06/14/us-brazil-politics-neves-idUSKBN0EP0O120140614'
p429
sg4
S'20140614\xc2\xa02:28PM UTC'
p430
sg6
S"Opposition candidate closes in on Brazil's Rousseff ahead of vote"
p431
sa(dp432
g2
S'http://www.reuters.com/article/2014/06/14/us-afghanistan-election-rural-idUSKBN0EP0XP20140614'
p433
sg4
S'20140614\xc2\xa02:27PM UTC'
p434
sg6
S"In Afghanistan's rural Wardak, fear of Taliban keeps voters away"
p435
sa(dp436
g2
S'http://www.reuters.com/article/2014/06/14/us-ukraine-crisis-embassy-idUSKBN0EP0WZ20140614'
p437
sg4
S'20140614\xc2\xa02:11PM UTC'
p438
sg6
S'Protesters in Ukraine rip up Russian flag at embassy '
p439
sa(dp440
g2
S'http://www.reuters.com/article/2014/06/14/us-soccer-world-m7-uru-crc-teams-idUSKBN0EP0WF20140614'
p441
sg4
S'20140614\xc2\xa02:01PM UTC'
p442
sg6
S'Uruguay v Costa Rica - teams'
p443
sa(dp444
g2
S'http://www.reuters.com/article/2014/06/14/sanofi-medtronic-inc-diabetes-idUSL5N0OV0RY20140614'
p445
sg4
S'20140614\xc2\xa01:57PM UTC'
p446
sg6
S'UPDATE 3-Sanofi and Medtronic team up on diabetes drug-device combination'
p447
sa(dp448
g2
S'http://www.reuters.com/article/2014/06/14/carige-risks-idUSL5N0OV0UI20140614'
p449
sg4
S'20140614\xc2\xa01:54PM UTC'
p450
sg6
S"Italy's Carige says 800-mln euro cash call may not be enough"
p451
sa(dp452
g2
S'http://www.reuters.com/article/2014/06/14/us-usa-ukraine-kerry-idUSKBN0EP0VD20140614'
p453
sg4
S'20140614\xc2\xa01:44PM UTC'
p454
sg6
S'Kerry warns Russia over ties to separatists in Ukraine '
p455
sa(dp456
g2
S'http://www.reuters.com/article/2014/06/14/us-soccer-world-ned-vanpersie-idUSKBN0EP0V920140614'
p457
sg4
S'20140614\xc2\xa01:44PM UTC'
p458
sg6
S"'Phenomenal' Van Persie goal has FIFA drooling"
p459
sa(dp460
g2
S'http://www.reuters.com/article/2014/06/14/us-soccer-world-usa-irn-officials-idUSKBN0EP0V720140614'
p461
sg4
S'20140614\xc2\xa01:43PM UTC'
p462
sg6
S'U.S., Iran may be enemies; at World Cup they work together'
p463
sa(dp464
g2
S'http://www.reuters.com/article/2014/06/14/us-soccer-world-aus-idUSKBN0EP0V520140614'
p465
sg4
S'20140614\xc2\xa01:42PM UTC'
p466
sg6
S'Mission accomplished as Australia avoid humiliation in Cuiaba'
p467
sa(dp468
g2
S'http://www.reuters.com/article/2014/06/14/idUSnHUGZDr8Wa+1f2+ONE20140614'
p469
sg4
S'20140614\xc2\xa01:41PM UTC'
p470
sg6
S'Sonoco-Alcore Receives Favorable Ruling in German Federal Court of Justice'
p471
sa(dp472
g2
S'http://www.reuters.com/article/2014/06/14/us-soccer-world-fifa-beckenbauer-idUSKBN0EP0SR20140614'
p473
sg4
S'20140614\xc2\xa01:41PM UTC'
p474
sg6
S"'World Cup is over for me', says Beckenbauer"
p475
sa(dp476
g2
S'http://www.reuters.com/article/2014/06/14/idUSnGNXyQxsj+e8+GNW20140614'
p477
sg4
S'20140614\xc2\xa01:28PM UTC'
p478
sg6
S'Thomas Anthony Guerriero CEO Of Oxford City (OTCQB: OXFC) Dedicates His 2014 American Business Award To His Shareholders'
p479
sa(dp480
g2
S'http://www.reuters.com/article/2014/06/14/us-soccer-world-bra-neymar-idUSKBN0EP0U920140614'
p481
sg4
S'20140614\xc2\xa01:27PM UTC'
p482
sg6
S'Neymar vows business as usual amid suspension fears'
p483
sa(dp484
g2
S'http://www.reuters.com/article/2014/06/14/us-usa-new-york-fire-idUSKBN0EP0TV20140614'
p485
sg4
S'20140614\xc2\xa01:22PM UTC'
p486
sg6
S'New York airport worker injured by fire in Delta plane engine'
p487
sa(dp488
g2
S'http://www.reuters.com/article/2014/06/14/us-soccer-world-m12-irn-nga-preview-idUSKBN0EP0TT20140614'
p489
sg4
S'20140614\xc2\xa01:20PM UTC'
p490
sg6
S"Nigeria's Super Eagles ready to soar over Iran"
p491
sa(dp492
g2
S'http://www.reuters.com/article/2014/06/14/tx-lxrx-ada-meeting-idUSnPn1tn4z+40+PRN20140614'
p493
sg4
S'20140614\xc2\xa01:15PM UTC'
p494
sg6
S'Lexicon Presents LX4211 Data at American Diabetes Association Meeting'
p495
sa(dp496
g2
S'http://www.reuters.com/article/2014/06/14/us-soccer-world-esp-ned-houllier-idUSKBN0EP0TL20140614'
p497
sg4
S'20140614\xc2\xa01:12PM UTC'
p498
sg6
S"Spain's Dutch disaster may prove a blessing: Houllier"
p499
sa(dp500
g2
S'http://www.reuters.com/article/2014/06/14/medtronic-covidien-talks-source-idUSL2N0OV0DU20140614'
p501
sg4
S'20140614\xc2\xa01:11PM UTC'
p502
sg6
S'Medtronic in talks to combine with Covidien in $45 bln deal -source'
p503
sa(dp504
g2
S'http://www.reuters.com/article/2014/06/14/us-soccer-world-por-ronaldo-idUSKBN0EP0TH20140614'
p505
sg4
S'20140614\xc2\xa01:11PM UTC'
p506
sg6
S'Ronaldo training well, will play against Germany: Eduardo'
p507
sa(dp508
g2
S'http://www.reuters.com/article/2014/06/14/idUSnGNX4gqqwK+1c1+GNW20140614'
p509
sg4
S'20140614\xc2\xa01:09PM UTC'
p510
sg6
S'Sanofi Reports Positive Phase 3 Results for Toujeo(R)'
p511
sa(dp512
g2
S'http://www.reuters.com/article/2014/06/14/idUSnGNX3vV0dT+1c9+GNW20140614'
p513
sg4
S'20140614\xc2\xa01:04PM UTC'
p514
sg6
S'The Rosen Law Firm Files Securities Fraud Class Action Against Ocean Power Technologies, Inc. -- OPTT'
p515
sa(dp516
g2
S'http://www.reuters.com/article/2014/06/14/sanofilyxumiafindings-idUSnPn9BhNQh+96+PRN20140614'
p517
sg4
S'20140614\xc2\xa01:02PM UTC'
p518
sg6
S"Sanofi's Lyxumia\xc2\xae (lixisenatide) Showed More Pronounced After-Test-Meal Blood Sugar Lowering than Liraglutide when Both were Added to Insulin Glargine"
p519
sa(dp520
g2
S'http://www.reuters.com/article/2014/06/14/type-2-diabetes-study-idUSnPnbNtY4s+94+PRN20140614'
p521
sg4
S'20140614\xc2\xa01:02PM UTC'
p522
sg6
S"Patients Continuing On Sanofi's Lantus\xc2\xae Had Lower Blood Sugar Levels Than Those who Switched to Insulin Detemir"
p523
sa(dp524
g2
S'http://www.reuters.com/article/2014/06/14/sanofi-toujeo-phase-idUSnPn5sz1Wh+82+PRN20140614'
p525
sg4
S'20140614\xc2\xa01:02PM UTC'
p526
sg6
S'Sanofi Reports Positive Phase 3 Results for Toujeo\xc2\xae (insulin glargine [rDNA origin] injection, 300 U/mL)'
p527
sa(dp528
g2
S'http://www.reuters.com/article/2014/06/14/aafp-fdtn-diabetes-idUSnPn5x00Gf+82+PRN20140614'
p529
sg4
S'20140614\xc2\xa01:01PM UTC'
p530
sg6
S'Cities for Life Increased Community Support and Showed Improved Clinical Measures for People Living With or At Risk for Type 2 Diabetes'
p531
sa(dp532
g2
S'http://www.reuters.com/article/2014/06/14/bbo-whitesox-playerwatch-idUSMTZEA6E64LQSE20140614'
p533
sg4
S'20140614\xc2\xa01:01PM UTC'
p534
sg6
S'Chicago White Sox - PlayerWatch'
p535
sa(dp536
g2
S'http://www.reuters.com/article/2014/06/14/bbo-royals-playerwatch-idUSMTZEA6E64LQSD20140614'
p537
sg4
S'20140614\xc2\xa01:01PM UTC'
p538
sg6
S'Kansas City Royals - PlayerWatch'
p539
sa(dp540
g2
S'http://www.reuters.com/article/2014/06/14/bbo-rays-playerwatch-idUSMTZEA6E64LQSC20140614'
p541
sg4
S'20140614\xc2\xa01:01PM UTC'
p542
sg6
S'Tampa Bay Rays - PlayerWatch'
p543
sa(dp544
g2
S'http://www.reuters.com/article/2014/06/14/bbo-orioles-playerwatch-idUSMTZEA6E64LQSB20140614'
p545
sg4
S'20140614\xc2\xa01:01PM UTC'
p546
sg6
S'Baltimore Orioles - PlayerWatch'
p547
sa(dp548
g2
S'http://www.reuters.com/article/2014/06/14/bbo-bluejays-playerwatch-idUSMTZEA6E64LQSA20140614'
p549
sg4
S'20140614\xc2\xa01:01PM UTC'
p550
sg6
S'Toronto Blue Jays - PlayerWatch'
p551
sa(dp552
g2
S'http://www.reuters.com/article/2014/06/14/bbo-redsox-playerwatch-idUSMTZEA6E64LQS920140614'
p553
sg4
S'20140614\xc2\xa01:01PM UTC'
p554
sg6
S'Boston Red Sox - PlayerWatch'
p555
sa(dp556
g2
S'http://www.reuters.com/article/2014/06/14/bbo-pirates-playerwatch-idUSMTZEA6E64LQS820140614'
p557
sg4
S'20140614\xc2\xa01:01PM UTC'
p558
sg6
S'Pittsburgh Pirates - PlayerWatch'
p559
sa(dp560
g2
S'http://www.reuters.com/article/2014/06/14/bbo-padres-playerwatch-idUSMTZEA6E64LQS720140614'
p561
sg4
S'20140614\xc2\xa01:01PM UTC'
p562
sg6
S'San Diego Padres - PlayerWatch'
p563
sa(dp564
g2
S'http://www.reuters.com/article/2014/06/14/bbo-yankees-playerwatch-idUSMTZEA6E64LQS520140614'
p565
sg4
S'20140614\xc2\xa01:01PM UTC'
p566
sg6
S'New York Yankees - PlayerWatch'
p567
sa(dp568
g2
S'http://www.reuters.com/article/2014/06/14/bbo-dodgers-playerwatch-idUSMTZEA6E64LQS420140614'
p569
sg4
S'20140614\xc2\xa01:01PM UTC'
p570
sg6
S'Los Angeles Dodgers - PlayerWatch'
p571
sa(dp572
g2
S'http://www.reuters.com/article/2014/06/14/bbo-diamondbacks-playerwatch-idUSMTZEA6E64LPS320140614'
p573
sg4
S'20140614\xc2\xa01:01PM UTC'
p574
sg6
S'Arizona Diamondbacks - PlayerWatch'
p575
sa(dp576
g2
S'http://www.reuters.com/article/2014/06/14/idUSnHUG2ZnyQa+1d2+ONE20140614'
p577
sg4
S'20140614\xc2\xa01:01PM UTC'
p578
sg6
S'Sanofi Reports Positive Phase 3 Results for Toujeo(R)'
p579
sa(dp580
g2
S'http://www.reuters.com/article/2014/06/14/bbo-braves-playerwatch-idUSMTZEA6E64LPRS20140614'
p581
sg4
S'20140614\xc2\xa01:01PM UTC'
p582
sg6
S'Atlanta Braves - PlayerWatch'
p583
sa(dp584
g2
S'http://www.reuters.com/article/2014/06/14/bbo-brewers-playerwatch-idUSMTZEA6E64LPS120140614'
p585
sg4
S'20140614\xc2\xa01:01PM UTC'
p586
sg6
S'Milwaukee Brewers - PlayerWatch'
p587
sa(dp588
g2
S'http://www.reuters.com/article/2014/06/14/bbo-rangers-playerwatch-idUSMTZEA6E64LPRR20140614'
p589
sg4
S'20140614\xc2\xa01:01PM UTC'
p590
sg6
S'Texas Rangers - PlayerWatch'
p591
sa(dp592
g2
S'http://www.reuters.com/article/2014/06/14/bbo-reds-playerwatch-idUSMTZEA6E64LPS020140614'
p593
sg4
S'20140614\xc2\xa01:01PM UTC'
p594
sg6
S'Cincinnati Reds - PlayerWatch'
p595
sa(dp596
g2
S'http://www.reuters.com/article/2014/06/14/bbo-angels-playerwatch-idUSMTZEA6E64LPRQ20140614'
p597
sg4
S'20140614\xc2\xa01:01PM UTC'
p598
sg6
S'Los Angeles Angels - PlayerWatch'
p599
sa(dp600
g2
S'http://www.reuters.com/article/2014/06/14/bbo-cubs-playerwatch-idUSMTZEA6E64LPRZ20140614'
p601
sg4
S'20140614\xc2\xa01:01PM UTC'
p602
sg6
S'Chicago Cubs - PlayerWatch'
p603
sa(dp604
g2
S'http://www.reuters.com/article/2014/06/14/bbo-athletics-playerwatch-idUSMTZEA6E64LPRP20140614'
p605
sg4
S'20140614\xc2\xa01:01PM UTC'
p606
sg6
S'Oakland Athletics - PlayerWatch'
p607
sa(dp608
g2
S'http://www.reuters.com/article/2014/06/14/bbo-mariners-playerwatch-idUSMTZEA6E64LPRO20140614'
p609
sg4
S'20140614\xc2\xa01:01PM UTC'
p610
sg6
S'Seattle Mariners - PlayerWatch'
p611
sa(dp612
g2
S'http://www.reuters.com/article/2014/06/14/bbo-cardinals-playerwatch-idUSMTZEA6E64LPRY20140614'
p613
sg4
S'20140614\xc2\xa01:01PM UTC'
p614
sg6
S'St. Louis Cardinals - PlayerWatch'
p615
sa(dp616
g2
S'http://www.reuters.com/article/2014/06/14/bbo-tigers-playerwatch-idUSMTZEA6E64LPRN20140614'
p617
sg4
S'20140614\xc2\xa01:01PM UTC'
p618
sg6
S'Detroit Tigers - PlayerWatch'
p619
sa(dp620
g2
S'http://www.reuters.com/article/2014/06/14/bbo-astros-playerwatch-idUSMTZEA6E64LPRX20140614'
p621
sg4
S'20140614\xc2\xa01:01PM UTC'
p622
sg6
S'Houston Astros - PlayerWatch'
p623
sa(dp624
g2
S'http://www.reuters.com/article/2014/06/14/bbo-indians-playerwatch-idUSMTZEA6E64LPRM20140614'
p625
sg4
S'20140614\xc2\xa01:01PM UTC'
p626
sg6
S'Cleveland Indians - PlayerWatch'
p627
sa(dp628
g2
S'http://www.reuters.com/article/2014/06/14/bbo-mets-playerwatch-idUSMTZEA6E64LPRW20140614'
p629
sg4
S'20140614\xc2\xa01:01PM UTC'
p630
sg6
S'New York Mets - PlayerWatch'
p631
sa(dp632
g2
S'http://www.reuters.com/article/2014/06/14/bbo-twins-playerwatch-idUSMTZEA6E64LPRL20140614'
p633
sg4
S'20140614\xc2\xa01:01PM UTC'
p634
sg6
S'Minnesota Twins - PlayerWatch'
p635
sa(dp636
g2
S'http://www.reuters.com/article/2014/06/14/bbo-nationals-playerwatch-idUSMTZEA6E64LPRV20140614'
p637
sg4
S'20140614\xc2\xa01:01PM UTC'
p638
sg6
S'Washington Nationals - PlayerWatch'
p639
sa(dp640
g2
S'http://www.reuters.com/article/2014/06/14/bbo-marlins-playerwatch-idUSMTZEA6E64LPRU20140614'
p641
sg4
S'20140614\xc2\xa01:01PM UTC'
p642
sg6
S'Miami Marlins - PlayerWatch'
p643
sa(dp644
g2
S'http://www.reuters.com/article/2014/06/14/bbo-phillies-playerwatch-idUSMTZEA6E64LPRT20140614'
p645
sg4
S'20140614\xc2\xa01:01PM UTC'
p646
sg6
S'Philadelphia Phillies - PlayerWatch'
p647
sa(dp648
g2
S'http://www.reuters.com/article/2014/06/14/bc-victoza-phase-3-trial-idUSnPn57Ph7D+89+PRN20140614'
p649
sg4
S'20140614\xc2\xa01:00PM UTC'
p650
sg6
S'New Phase 3 Study Shows Efficacy and Safety of Victoza\xc2\xae (Liraglutide [rDNA origin] Injection) for the Treatment of Type 2 Diabetes in Adults with Moderate Renal Impairment'
p651
sa(dp652
g2
S'http://www.reuters.com/article/2014/06/14/caliposciencediabetes-idUSnPnlW6wf+48+PRN20140614'
p653
sg4
S'20140614\xc2\xa01:00PM UTC'
p654
sg6
S'NMR-based Diabetes Risk Index (DRI) Helps to Identify Normal-weight Individuals at High Risk of Progressing to Type 2 Diabetes'
p655
sa(dp656
g2
S'http://www.reuters.com/article/2014/06/14/ca-elililly-diabetes-idUSnPn9n22bF+81+PRN20140614'
p657
sg4
S'20140614\xc2\xa01:00PM UTC'
p658
sg6
S"Lilly's Once-Weekly Dulaglutide Shows Similar Reductions in Average Blood Glucose Levels as Once-Daily Liraglutide in Head-to-Head Trial"
p659
sa(dp660
g2
S'http://www.reuters.com/article/2014/06/14/eli-lilly-peglispro-idUSnPn7rzdsL+81+PRN20140614'
p661
sg4
S'20140614\xc2\xa01:00PM UTC'
p662
sg6
S"Lilly's Basal Insulin Peglispro Shows Novel Mechanism of Action"
p663
sa(dp664
g2
S'http://www.reuters.com/article/2014/06/14/ca-zosano-adasession-idUSnPn3Gr0w6+90+PRN20140614'
p665
sg4
S'20140614\xc2\xa01:00PM UTC'
p666
sg6
S'Zosano Pharma, Inc. to Present at the 74th American Diabetes Association (ADA) Scientific Session'
p667
sa(dp668
g2
S'http://www.reuters.com/article/2014/06/14/eli-lilly-boehringer-idUSnPn8kQ782+88+PRN20140614'
p669
sg4
S'20140614\xc2\xa01:00PM UTC'
p670
sg6
S'Studies Show Investigational New Insulin Glargine Product from Lilly and Boehringer Ingelheim Similar Safety and Efficacy Profile to Lantus\xc2\xae'
p671
sa(dp672
g2
S'http://www.reuters.com/article/2014/06/14/health-diabetes-sanofi-lilly-idUSL2N0OU1IG20140614'
p673
sg4
S'20140614\xc2\xa01:00PM UTC'
p674
sg6
S'New rivals to top diabetes drug Lantus show promise in studies'
p675
sa(dp676
g2
S'http://www.reuters.com/article/2014/06/14/us-soccer-world-m5-col-gre-halftime-idUSKBN0EP0T320140614'
p677
sg4
S'20140614\xc2\xa012:56PM UTC'
p678
sg6
S'Aggressive Colombia take 1-0 halftime lead vs. Greece'
p679
sa(dp680
g2
S'http://www.reuters.com/article/2014/06/14/us-france-socialists-idUSKBN0EP0SV20140614'
p681
sg4
S'20140614\xc2\xa012:53PM UTC'
p682
sg6
S'French PM warns disgruntled Socialists they could "disappear"'
p683
sa(dp684
g2
S'http://www.reuters.com/article/2014/06/14/us-valeant-management-idUSKBN0EP0Q920140614'
p685
sg4
S'20140614\xc2\xa012:43PM UTC'
p686
sg6
S'Valeant senior official leaves amid Allergan takeover battle'
p687
sa(dp688
g2
S'http://www.reuters.com/article/2014/06/14/us-soccer-world-esp-ramos-idUSKBN0EP0SB20140614'
p689
sg4
S'20140614\xc2\xa012:42PM UTC'
p690
sg6
S'No time for regrets, says Spain defender Ramos'
p691
sa(dp692
g2
S'http://www.reuters.com/article/2014/06/14/us-soccer-world-civ-drogba-idUSKBN0EP0S720140614'
p693
sg4
S'20140614\xc2\xa012:41PM UTC'
p694
sg6
S'Drogba the main man for Brazilian philosophy teachers'
p695
sa(dp696
g2
S'http://www.reuters.com/article/2014/06/14/us-soccer-world-fifa-protests-idUSKBN0EP0S520140614'
p697
sg4
S'20140614\xc2\xa012:40PM UTC'
p698
sg6
S'Protesters smear FIFA headquarters with paint'
p699
sa(dp700
g2
S'http://www.reuters.com/article/2014/06/14/celgene-idUSnBw145015a+100+BSW20140614'
p701
sg4
S'20140614\xc2\xa012:30PM UTC'
p702
sg6
S'Retrospective Analysis of Overall Survival Adjusting for Patient Crossover in Phase III Study of POMALYST\xc2\xae/IMNOVID\xc2\xae (Pomalidomide) in Previously Treated Multiple Myeloma Presented at EHA'
p703
sa(dp704
g2
S'http://www.reuters.com/article/2014/06/14/ny-uani-idUSnBw145023a+100+BSW20140614'
p705
sg4
S'20140614\xc2\xa012:25PM UTC'
p706
sg6
S"UANI Fact Sheet: 1-Year Anniversary of Hassan Rouhani's Election as President of Iran"
p707
sa(dp708
g2
S'http://www.reuters.com/article/2014/06/14/idUSnGNX42HH9q+1cc+GNW20140614'
p709
sg4
S'20140614\xc2\xa012:24PM UTC'
p710
sg6
S'Black Diamond Oil Seychelles Opens Corporation in United Kingdom with Refinery Launch into Middle East'
p711
sa(dp712
g2
S'http://www.reuters.com/article/2014/06/14/medtronic-covidien-talks-idUSL2N0OV0CL20140614'
p713
sg4
S'20140614\xc2\xa012:23PM UTC'
p714
sg6
S'Medtronic, Covidien in advanced talks to combine -WSJ'
p715
sa(dp716
g2
S'http://www.reuters.com/article/2014/06/14/us-soccer-world-m9-sui-idUSKBN0EP0QZ20140614'
p717
sg4
S'20140614\xc2\xa012:11PM UTC'
p718
sg6
S'Improved Swiss confident of last-16 berth: Hitzfeld'
p719
sa(dp720
g2
S'http://www.reuters.com/article/2014/06/14/us-soccer-world-ned-vangaal-idUSKBN0EP0QX20140614'
p721
sg4
S'20140614\xc2\xa012:09PM UTC'
p722
sg6
S'Van Gaal\xe2\x80\x99s softer side helps downfall of Spain'
p723
sa(dp724
g2
S'http://www.reuters.com/article/2014/06/14/us-soccer-world-m12-irn-idUSKBN0EP0QP20140614'
p725
sg4
S'20140614\xc2\xa012:09PM UTC'
p726
sg6
S'Iran predicting surprise run to the knockout stages'
p727
sa(dp728
g2
S'http://www.reuters.com/article/2014/06/14/us-ukraine-crisis-merkel-idUSKBN0EP0Q320140614'
p729
sg4
S'20140614\xc2\xa012:02PM UTC'
p730
sg6
S"Merkel tells Putin she's concerned about plane shoot-down"
p731
sa(dp732
g2
S'http://www.reuters.com/article/2014/06/14/sanofi-medtronic-inc-diabetes-idUSL5N0OV0J420140614'
p733
sg4
S'20140614\xc2\xa012:01PM UTC'
p734
sg6
S'Sanofi and Medtronic team up on diabetes drug-device combination'
p735
sa(dp736
g2
S'http://www.reuters.com/article/2014/06/14/idUSnGNX9pl4sD+1c1+GNW20140614'
p737
sg4
S'20140614\xc2\xa012:01PM UTC'
p738
sg6
S'EQUITY ALERT: Rosen Law Firm Reminds Axesstel Inc. Investors of Important June 23, 2014 Class Action Deadline - AXST'
p739
sa(dp740
g2
S'http://www.reuters.com/article/2014/06/14/ukraine-crisis-merkel-idUSL5N0OV0ON20140614'
p741
sg4
S'20140614\xc2\xa012:00PM UTC'
p742
sg6
S"Merkel tells Putin she's concerned about plane shoot-down"
p743
sa(dp744
g2
S'http://www.reuters.com/article/2014/06/14/us-iraq-security-turkey-hostages-idUSKBN0EP0PZ20140614'
p745
sg4
S'20140614\xc2\xa012:00PM UTC'
p746
sg6
S'Turkey defends actions over consulate seizure in Iraq, 80 still held'
p747
sa(dp748
g2
S'http://www.reuters.com/article/2014/06/14/idUSnMKWt1ZGCa+1ce+MKW20140614'
p749
sg4
S'20140614\xc2\xa012:00PM UTC'
p750
sg6
S'REMINDER/Media Advisory: Legion Convention Opening Ceremonies'
p751
sa(dp752
g2
S'http://www.reuters.com/article/2014/06/14/idUSnCCN6vWLcT+1cd+MKW20140614'
p753
sg4
S'20140614\xc2\xa012:00PM UTC'
p754
sg6
S'REMINDER/Media Advisory: Legion Convention Opening Ceremonies'
p755
sa(dp756
g2
S'http://www.reuters.com/article/2014/06/14/us-usa-new-york-rower-idUSKBN0EP0PL20140614'
p757
sg4
S'20140614\xc2\xa011:53AM UTC'
p758
sg6
S'Coast Guard rescues man trying to row from New York to Scotland'
p759
sa(dp760
g2
S'http://www.reuters.com/article/2014/06/14/momsdemandactionrally-idUSnPn4bg1DN+83+PRN20140614'
p761
sg4
S'20140614\xc2\xa011:48AM UTC'
p762
sg6
S'Hundreds Join Moms Demand Action for Gun Sense in America Today for 2nd Annual Brooklyn Bridge March and Rally to End Gun Violence'
p763
sa(dp764
g2
S'http://www.reuters.com/article/2014/06/14/iraq-security-turkey-hostages-idUSL5N0OV0MB20140614'
p765
sg4
S'20140614\xc2\xa011:48AM UTC'
p766
sg6
S'Turkey defends actions over consulate seizure in Iraq, 80 still held'
p767
sa(dp768
g2
S'http://www.reuters.com/article/2014/06/14/valeant-management-idUSL2N0OU1H820140614'
p769
sg4
S'20140614\xc2\xa011:46AM UTC'
p770
sg6
S'Valeant senior official leaves amid Allergan takeover battle'
p771
sa(dp772
g2
S'http://www.reuters.com/article/2014/06/14/usa-new-york-rower-idUSL2N0OV0B020140614'
p773
sg4
S'20140614\xc2\xa011:45AM UTC'
p774
sg6
S'Coast Guard rescues man trying to row from New York to Scotland'
p775
sa(dp776
g2
S'http://www.reuters.com/article/2014/06/14/us-sanofi-medtronic-inc-diabetes-idUSKBN0EP0OP20140614'
p777
sg4
S'20140614\xc2\xa011:45AM UTC'
p778
sg6
S'Sanofi and Medtronic team up on diabetes drug-device combination'
p779
sa(dp780
g2
S'http://www.reuters.com/article/2014/06/14/bc-novo-nordisk-idUSnPn4bbqDw+82+PRN20140614'
p781
sg4
S'20140614\xc2\xa011:45AM UTC'
p782
sg6
S'New One-year Data of IDegLira Shows Glucose-lowering Effect was Maintained for People with Type 2 Diabetes'
p783
sa(dp784
g2
S'http://www.reuters.com/article/2014/06/14/idUSnMKWF0SXsa+1ec+MKW20140614'
p785
sg4
S'20140614\xc2\xa011:45AM UTC'
p786
sg6
S'Improving Diet Quality Reduces Risk for Type 2 Diabetes'
p787
sa(dp788
g2
S'http://www.reuters.com/article/2014/06/14/wipro-idUSnBw145019a+100+BSW20140614'
p789
sg4
S'20140614\xc2\xa011:45AM UTC'
p790
sg6
S'Wipro Wins a Transformational IT Applications and Infrastructure Engagement with 7-Eleven in Australia'
p791
sa(dp792
g2
S'http://www.reuters.com/article/2014/06/14/us-health-diabetes-novo-nordisk-obesity-idUSKBN0EP0OL20140614'
p793
sg4
S'20140614\xc2\xa011:43AM UTC'
p794
sg6
S'Novo Nordisk diabetes drug appears effective for weight loss: study'
p795
sa(dp796
g2
S'http://www.reuters.com/article/2014/06/14/us-yemen-drones-idUSKBN0EP0AY20140614'
p797
sg4
S'20140614\xc2\xa011:42AM UTC'
p798
sg6
S'Drone strikes kill five suspected militants in Yemen'
p799
sa(dp800
g2
S'http://www.reuters.com/article/2014/06/14/us-soccer-world-m5-col-gre-teams-idUSKBN0EP0OF20140614'
p801
sg4
S'20140614\xc2\xa011:42AM UTC'
p802
sg6
S"Greece's Mitroglou on the bench, veteran Gekas to start"
p803
sa(dp804
g2
S'http://www.reuters.com/article/2014/06/14/us-iraq-security-volunteers-idUSKBN0EP0O920140614'
p805
sg4
S'20140614\xc2\xa011:39AM UTC'
p806
sg6
S"In defense of Baghdad, Iraq turns to Shi'ite militias"
p807
sa(dp808
g2
S'http://www.reuters.com/article/2014/06/14/idUSnMKWN3qffa+1e0+MKW20140614'
p809
sg4
S'20140614\xc2\xa011:36AM UTC'
p810
sg6
S'Faruqi & Faruqi, LLP Encourages Investors Who Suffered Losses in Excess of $100,000 Investing in Regional Management Corporation (RM) to Contact the Firm'
p811
sa(dp812
g2
S'http://www.reuters.com/article/2014/06/14/yemen-drones-idUSL5N0OV0M720140614'
p813
sg4
S'20140614\xc2\xa011:31AM UTC'
p814
sg6
S'UPDATE 1-Drone strikes kill five suspected militants in Yemen'
p815
sa(dp816
g2
S'http://www.reuters.com/article/2014/06/14/bc-novo-nordisk-idUSnPn19cvQv+82+PRN20140614'
p817
sg4
S'20140614\xc2\xa011:30AM UTC'
p818
sg6
S'Phase 3a Data Showed Liraglutide 3 mg Demonstrated Significantly Greater Weight Loss Compared to Placebo in Adults With Obesity and Type 2 Diabetes'
p819
sa(dp820
g2
S'http://www.reuters.com/article/2014/06/14/health-diabetes-novo-nordisk-obesity-idUSL2N0OT10020140614'
p821
sg4
S'20140614\xc2\xa011:30AM UTC'
p822
sg6
S'Novo Nordisk diabetes drug appears effective for weight loss -study'
p823
sa(dp824
g2
S'http://www.reuters.com/article/2014/06/14/us-nigeria-politics-idUSKBN0EP0NJ20140614'
p825
sg4
S'20140614\xc2\xa011:21AM UTC'
p826
sg6
S'Nigerian opposition picks southerner as party chief ahead of election'
p827
sa(dp828
g2
S'http://www.reuters.com/article/2014/06/14/us-soccer-world-kor-struggles-idUSKBN0EP0NH20140614'
p829
sg4
S'20140614\xc2\xa011:19AM UTC'
p830
sg6
S'Kim the battering ram or Park the scalpel for Korea?'
p831
sa(dp832
g2
S'http://www.reuters.com/article/2014/06/14/health-diabetes-novo-nordisk-combination-idUSL2N0OS1I020140614'
p833
sg4
S'20140614\xc2\xa011:15AM UTC'
p834
sg6
S'Novo Nordisk combination diabetes drug effective after 1 yr-study'
p835
sa(dp836
g2
S'http://www.reuters.com/article/2014/06/14/nigeria-politics-idUSL5N0OV0KL20140614'
p837
sg4
S'20140614\xc2\xa011:14AM UTC'
p838
sg6
S'Nigerian opposition picks southerner as party chief ahead of election'
p839
sa(dp840
g2
S'http://www.reuters.com/article/2014/06/14/us-soccer-world-fra-fans-idUSKBN0EP0N620140614'
p841
sg4
S'20140614\xc2\xa011:11AM UTC'
p842
sg6
S'Fans hope France will banish memories of 2010 fiasco'
p843
sa(dp844
g2
S'http://www.reuters.com/article/2014/06/14/us-alstom-britain-sfo-idUSKBN0EP0N320140614'
p845
sg4
S'20140614\xc2\xa011:09AM UTC'
p846
sg6
S'UK Serious Fraud Office pursues investigation of Alstom: FT  '
p847
sa(dp848
g2
S'http://www.reuters.com/article/2014/06/14/ny-faruqi-law-tbbk-idUSnPnbpMW99+8c+PRN20140614'
p849
sg4
S'20140614\xc2\xa011:09AM UTC'
p850
sg6
S'Faruqi & Faruqi, LLP Encourages Investors Who Suffered Losses In Excess Of $100,000 Investing In The Bancorp Inc. (TBBK) To Contact The Firm'
p851
sa(dp852
g2
S'http://www.reuters.com/article/2014/06/14/us-infosys-shareholders-idUSKBN0EP0MZ20140614'
p853
sg4
S'20140614\xc2\xa011:08AM UTC'
p854
sg6
S'Infosys founder plays down top management exits; focuses on innovation'
p855
sa(dp856
g2
S'http://www.reuters.com/article/2014/06/14/us-southsudan-aid-idUSKBN0EP0MX20140614'
p857
sg4
S'20140614\xc2\xa011:05AM UTC'
p858
sg6
S'U.N. says 50,000 children face death in South Sudan as launches aid plan'
p859
sa(dp860
g2
S'http://www.reuters.com/article/2014/06/14/us-italy-migrants-idUSKBN0EP0MV20140614'
p861
sg4
S'20140614\xc2\xa011:03AM UTC'
p862
sg6
S'Ten migrants drown after boat sinks off Libya'
p863
sa(dp864
g2
S'http://www.reuters.com/article/2014/06/14/infosys-shareholders-idUSL4N0OV08R20140614'
p865
sg4
S'20140614\xc2\xa010:52AM UTC'
p866
sg6
S'Infosys founder plays down top management exits; focuses on innovation'
p867
sa(dp868
g2
S'http://www.reuters.com/article/2014/06/14/ma-bluebird-bio-idUSnBw145003a+100+BSW20140614'
p869
sg4
S'20140614\xc2\xa010:30AM UTC'
p870
sg6
S'bluebird bio Reports Rapid Transfusion Independence in Beta-Thalassemia Major Patients Treated with its LentiGlobin Product Candidate'
p871
sa(dp872
g2
S'http://www.reuters.com/article/2014/06/14/idUSnGNX1SgY3f+1d4+GNW20140614'
p873
sg4
S'20140614\xc2\xa010:12AM UTC'
p874
sg6
S'Sanofi and Medtronic to Form Strategic Alliance in Diabetes to Improve Patient Experience and Outcomes'
p875
sa(dp876
g2
S'http://www.reuters.com/article/2014/06/14/ny-lifshitz-miller-idUSnPnb9PvBx+8a+PRN20140614'
p877
sg4
S'20140614\xc2\xa010:01AM UTC'
p878
sg6
S"Lifshitz & Miller Law Firm Announces Investigation of Annie's, Inc., Montage Technology Group Limited, OpenTable, Inc., Provectus Biopharmaceuticals, Inc., and The Bancorp Inc."
p879
sa(dp880
g2
S'http://www.reuters.com/article/2014/06/14/idUSnHUGdL6v+74+ONE20140614'
p881
sg4
S'20140614\xc2\xa010:00AM UTC'
p882
sg6
S'Sanofi and Medtronic to Form Strategic Alliance in Diabetes to Improve Patient Experience and Outcomes'
p883
sa(dp884
g2
S'http://www.reuters.com/article/2014/06/14/idUSnHUGdKD5+76+ONE20140614'
p885
sg4
S'20140614\xc2\xa010:00AM UTC'
p886
sg6
S'Sanofi and Medtronic to Form Strategic Alliance in Diabetes to Improve Patient Experience and Outcomes'
p887
sa(dp888
g2
S'http://www.reuters.com/article/2014/06/14/mbc-free-wifi-idUSnPn7ZbWwd+94+PRN20140614'
p889
sg4
S'20140614\xc2\xa010:00AM UTC'
p890
sg6
S'Memorial Blood Centers is now "Your hotspot for saving lives"'
p891
sa(dp892
g2
S'http://www.reuters.com/article/2014/06/14/world-news-schedule-1400-gmt-10-am-et-idUSL5N0OV07G20140614'
p893
sg4
S'20140614\xc2\xa09:59AM UTC'
p894
sg6
S'WORLD NEWS SCHEDULE AT 1400 GMT/10 AM ET'
p895
sa(dp896
g2
S'http://www.reuters.com/article/2014/06/14/idUSnMKWHw7pJa+1e2+MKW20140614'
p897
sg4
S'20140614\xc2\xa09:57AM UTC'
p898
sg6
S'Faruqi & Faruqi, LLP Encourages Investors Who Suffered Losses in Excess of $100,000 Investing in China Ceramics Co., Ltd. (CCCL) to Contact the Firm'
p899
sa(dp900
g2
S'http://www.reuters.com/article/2014/06/14/us-libya-turkey-consulate-idUSKBN0EP0KA20140614'
p901
sg4
S'20140614\xc2\xa09:44AM UTC'
p902
sg6
S'Turkey pulls diplomats out of Benghazi, urges nationals to leave'
p903
sa(dp904
g2
S'http://www.reuters.com/article/2014/06/14/us-credit-suisse-blackrock-idUSKBN0EP0JT20140614'
p905
sg4
S'20140614\xc2\xa09:35AM UTC'
p906
sg6
S'BlackRock says Credit Suisse guilty plea has no impact on relationship: paper'
p907
sa(dp908
g2
S'http://www.reuters.com/article/2014/06/14/alstom-britain-sfo-idUSL5N0OV0EO20140614'
p909
sg4
S'20140614\xc2\xa09:33AM UTC'
p910
sg6
S'UK Serious Fraud Office pursues investigation of Alstom -FT'
p911
sa(dp912
g2
S'http://www.reuters.com/article/2014/06/14/ny-faruqipvctdeadline-idUSnPnhWRV3+4e+PRN20140614'
p913
sg4
S'20140614\xc2\xa09:32AM UTC'
p914
sg6
S'Faruqi & Faruqi, LLP Encourages Investors Who Suffered Losses In Excess Of $100,000 Investing In Provectus Biopharmaceuticals, Inc. To Contact The Firm'
p915
sa(dp916
g2
S'http://www.reuters.com/article/2014/06/14/credit-suisse-blackrock-idUSL5N0OV08H20140614'
p917
sg4
S'20140614\xc2\xa09:30AM UTC'
p918
sg6
S'BlackRock says CS guilty plea has no impact on relationship -paper'
p919
sa(dp920
g2
S'http://www.reuters.com/article/2014/06/14/us-germany-president-military-idUSKBN0EP0JL20140614'
p921
sg4
S'20140614\xc2\xa09:16AM UTC'
p922
sg6
S'President urges Germany to take more military responsibility'
p923
sa(dp924
g2
S'http://www.reuters.com/article/2014/06/14/us-soccer-world-ned-press-idUSKBN0EP0JD20140614'
p925
sg4
S'20140614\xc2\xa09:08AM UTC'
p926
sg6
S'Dutch delight as local media trumpets victory'
p927
sa(dp928
g2
S'http://www.reuters.com/article/2014/06/14/us-soccer-world-esp-idUSKBN0EP0J920140614'
p929
sg4
S'20140614\xc2\xa09:07AM UTC'
p930
sg6
S'Humbled Spanish urge unity before crucial Chile clash'
p931
sa(dp932
g2
S'http://www.reuters.com/article/2014/06/14/pa-cab-products-award-idUSnPnbfq919+80+PRN20140614'
p933
sg4
S'20140614\xc2\xa09:00AM UTC'
p934
sg6
S'Intersolar 2014 AWARD Finalist in Photovoltaics, CAB Products, to exhibit at Intersolar 2014 North America'
p935
sa(dp936
g2
S'http://www.reuters.com/article/2014/06/14/celgene-idUSnBw145013a+100+BSW20140614'
p937
sg4
S'20140614\xc2\xa08:58AM UTC'
p938
sg6
S'Results from Phase III Study (AML-001) of VIDAZA\xc2\xae (Azacitidine for Injection) in Acute Myeloid Leukemia Presented at EHA'
p939
sa(dp940
g2
S'http://www.reuters.com/article/2014/06/14/us-tanzania-zanzibar-blast-idUSKBN0EP0IQ20140614'
p941
sg4
S'20140614\xc2\xa08:57AM UTC'
p942
sg6
S'Zanzibar mosque bombing kills one, wounds seven'
p943
sa(dp944
g2
S'http://www.reuters.com/article/2014/06/14/us-bangladesh-clashes-idUSKBN0EP0I020140614'
p945
sg4
S'20140614\xc2\xa08:56AM UTC'
p946
sg6
S'Ten killed in clashes in Bangladesh'
p947
sa(dp948
g2
S'http://www.reuters.com/article/2014/06/14/tanzania-zanzibar-blast-idUSL5N0OV0EZ20140614'
p949
sg4
S'20140614\xc2\xa08:39AM UTC'
p950
sg6
S'Zanzibar mosque bombing kills one, wounds seven'
p951
sa(dp952
g2
S'http://www.reuters.com/article/2014/06/14/us-bayer-suit-idUSKBN0EP0HW20140614'
p953
sg4
S'20140614\xc2\xa08:34AM UTC'
p954
sg6
S'Bayer faces law suits in United States over Xarelto: paper'
p955
sa(dp956
g2
S'http://www.reuters.com/article/2014/06/14/us-finland-primeminister-idUSKBN0EP0EW20140614'
p957
sg4
S'20140614\xc2\xa08:32AM UTC'
p958
sg6
S"Stubb to be Finland's next PM, backs NATO membership"
p959
sa(dp960
g2
S'http://www.reuters.com/article/2014/06/14/idUSnGNXbr6WGp+1c6+GNW20140614'
p961
sg4
S'20140614\xc2\xa08:30AM UTC'
p962
sg6
S'OncoMed Presents Data for Notch1 Diagnostic Assay at the 19th European Hematology Association Congress'
p963
sa(dp964
g2
S'http://www.reuters.com/article/2014/06/14/us-ukraine-crisis-images-idUSKBN0EP0HK20140614'
p965
sg4
S'20140614\xc2\xa08:29AM UTC'
p966
sg6
S'NATO says images raise suspicions that Russia moved tanks into Ukraine'
p967
sa(dp968
g2
S'http://www.reuters.com/article/2014/06/14/raiffeisen-ceo-idUSL5N0OV0D220140614'
p969
sg4
S'20140614\xc2\xa08:29AM UTC'
p970
sg6
S"Austria's Raiffeisen Bank Int'l boosts savings target, CEO tells paper"
p971
sa(dp972
g2
S'http://www.reuters.com/article/2014/06/14/idUSnMKW3Rbrna+1d0+MKW20140614'
p973
sg4
S'20140614\xc2\xa08:24AM UTC'
p974
sg6
S'Faruqi & Faruqi, LLP Encourages Investors Who Suffered Losses in Excess of $100,000 Investing in Infoblox, Inc. to Contact the Firm'
p975
sa(dp976
g2
S'http://www.reuters.com/article/2014/06/14/bayer-suit-idUSL5N0OV0G020140614'
p977
sg4
S'20140614\xc2\xa08:18AM UTC'
p978
sg6
S'Bayer faces law suits in United States over Xarelto -paper'
p979
sa(dp980
g2
S'http://www.reuters.com/article/2014/06/14/us-usa-checkerboardlounge-idUSKBN0EP0H720140614'
p981
sg4
S'20140614\xc2\xa08:13AM UTC'
p982
sg6
S'Legendary Chicago blues club ailing and wailing'
p983
sa(dp984
g2
S'http://www.reuters.com/article/2014/06/14/idUSnMKWN2NKZa+1ee+MKW20140614'
p985
sg4
S'20140614\xc2\xa08:00AM UTC'
p986
sg6
S"REPEAT-BMO: More Than Half of Canada's Affluent Engage in Some Form of Hobby Investing"
p987
sa(dp988
g2
S'http://www.reuters.com/article/2014/06/14/us-earthquake-cocos-idUSKBN0EP0GP20140614'
p989
sg4
S'20140614\xc2\xa07:49AM UTC'
p990
sg6
S'Quake of 6.4 magnitude detected northwest of Cocos Islands'
p991
sa(dp992
g2
S'http://www.reuters.com/article/2014/06/14/us-china-corruption-idUSKBN0EP0GD20140614'
p993
sg4
S'20140614\xc2\xa07:35AM UTC'
p994
sg6
S'Vice-head of China government advisory body under investigation: graft watchdog'
p995
sa(dp996
g2
S'http://www.reuters.com/article/2014/06/14/us-ukraine-crisys-president-idUSKBN0EP0GB20140614'
p997
sg4
S'20140614\xc2\xa07:32AM UTC'
p998
sg6
S"Ukraine promises 'adequate response' over shot-down plane "
p999
sa(dp1000
g2
S'http://www.reuters.com/article/2014/06/14/us-iraq-security-iran-rouhani-idUSKBN0EP0AC20140614'
p1001
sg4
S'20140614\xc2\xa07:31AM UTC'
p1002
sg6
S'Iran says envisages Iraq role with U.S. if Washington tackles regional militants'
p1003
sa(dp1004
g2
S'http://www.reuters.com/article/2014/06/14/ukraine-crisys-president-idUSL5N0OV0ED20140614'
p1005
sg4
S'20140614\xc2\xa07:31AM UTC'
p1006
sg6
S'Ukraine promises "adequate response" over shot-down plane'
p1007
sa(dp1008
g2
S'http://www.reuters.com/article/2014/06/14/ma-agios-pharmaceuticals-idUSnBw145001a+100+BSW20140614'
p1009
sg4
S'20140614\xc2\xa07:31AM UTC'
p1010
sg6
S'New Agios Clinical Data from Ongoing Phase 1 Trial of AG-221 Continue to Show Complete and Durable Remissions in Patients with Difficult to Treat Hematologic Malignancies'
p1011
sa(dp1012
g2
S'http://www.reuters.com/article/2014/06/14/us-iraq-security-iran-usa-idUSKBN0EP0BA20140614'
p1013
sg4
S'20140614\xc2\xa07:30AM UTC'
p1014
sg6
S'Iran says envisages Iraq role with U.S. if Washington tackles regional militants'
p1015
sa(dp1016
g2
S'http://www.reuters.com/article/2014/06/14/us-iran-nuclear-rouhani-idUSKBN0EP0FT20140614'
p1017
sg4
S'20140614\xc2\xa07:18AM UTC'
p1018
sg6
S"Iran's Rouhani: Nuclear deal possible by July 20 with goodwill"
p1019
sa(dp1020
g2
S'http://www.reuters.com/article/2014/06/14/us-ukraine-crisis-bomb-idUSKBN0EP0FE20140614'
p1021
sg4
S'20140614\xc2\xa07:05AM UTC'
p1022
sg6
S"Bomb found near Ukrainian president's office: source"
p1023
sa(dp1024
g2
S'http://www.reuters.com/article/2014/06/14/bbo-royals-whitesox-preview-idUSMTZEA6E5NZHR120140614'
p1025
sg4
S'20140614\xc2\xa07:02AM UTC'
p1026
sg6
S'Preview: Royals at White Sox'
p1027
sa(dp1028
g2
S'http://www.reuters.com/article/2014/06/14/bbo-angels-braves-preview-idUSMTZEA6E5NZHR020140614'
p1029
sg4
S'20140614\xc2\xa07:02AM UTC'
p1030
sg6
S'Preview: Angels at Braves'
p1031
sa(dp1032
g2
S'http://www.reuters.com/article/2014/06/14/bbo-yankees-athletics-preview-idUSMTZEA6E5NZHQZ20140614'
p1033
sg4
S'20140614\xc2\xa07:02AM UTC'
p1034
sg6
S'Preview: Yankees at Athletics'
p1035
sa(dp1036
g2
S'http://www.reuters.com/article/2014/06/14/bbo-reds-brewers-preview-idUSMTZEA6E5NZHQY20140614'
p1037
sg4
S'20140614\xc2\xa07:02AM UTC'
p1038
sg6
S'Preview: Reds at Brewers'
p1039
sa(dp1040
g2
S'http://www.reuters.com/article/2014/06/14/bbo-padres-mets-preview-idUSMTZEA6E5NZGQW20140614'
p1041
sg4
S'20140614\xc2\xa07:02AM UTC'
p1042
sg6
S'Preview: Padres at Mets'
p1043
sa(dp1044
g2
S'http://www.reuters.com/article/2014/06/14/bbo-bluejays-orioles-preview-idUSMTZEA6E5NZGQP20140614'
p1045
sg4
S'20140614\xc2\xa07:02AM UTC'
p1046
sg6
S'Preview: Blue Jays at Orioles'
p1047
sa(dp1048
g2
S'http://www.reuters.com/article/2014/06/14/bbo-rangers-mariners-preview-idUSMTZEA6E5NZFQO20140614'
p1049
sg4
S'20140614\xc2\xa07:02AM UTC'
p1050
sg6
S'Preview: Rangers at Mariners'
p1051
sa(dp1052
g2
S'http://www.reuters.com/article/2014/06/14/bbo-indians-redsox-preview-idUSMTZEA6E5NZGQV20140614'
p1053
sg4
S'20140614\xc2\xa07:02AM UTC'
p1054
sg6
S'Preview: Indians at Red Sox'
p1055
sa(dp1056
g2
S'http://www.reuters.com/article/2014/06/14/bbo-nationals-cardinals-preview-idUSMTZEA6E5NZGQU20140614'
p1057
sg4
S'20140614\xc2\xa07:02AM UTC'
p1058
sg6
S'Preview: Nationals at Cardinals'
p1059
sa(dp1060
g2
S'http://www.reuters.com/article/2014/06/14/bbo-cubs-phillies-preview-idUSMTZEA6E5NZGQT20140614'
p1061
sg4
S'20140614\xc2\xa07:02AM UTC'
p1062
sg6
S'Preview: Cubs at Phillies'
p1063
sa(dp1064
g2
S'http://www.reuters.com/article/2014/06/14/bbo-rays-astros-preview-idUSMTZEA6E5NZGQS20140614'
p1065
sg4
S'20140614\xc2\xa07:02AM UTC'
p1066
sg6
S'Preview: Rays at Astros'
p1067
sa(dp1068
g2
S'http://www.reuters.com/article/2014/06/14/bbo-diamondbacks-dodgers-preview-idUSMTZEA6E5NZGQR20140614'
p1069
sg4
S'20140614\xc2\xa07:02AM UTC'
p1070
sg6
S'Preview: Diamondbacks at Dodgers'
p1071
sa(dp1072
g2
S'http://www.reuters.com/article/2014/06/14/bbo-pirates-marlins-preview-idUSMTZEA6E5NZGQQ20140614'
p1073
sg4
S'20140614\xc2\xa07:02AM UTC'
p1074
sg6
S'Preview: Pirates at Marlins'
p1075
sa(dp1076
g2
S'http://www.reuters.com/article/2014/06/14/bbo-twins-tigers-preview-idUSMTZEA6E5NZFQN20140614'
p1077
sg4
S'20140614\xc2\xa07:02AM UTC'
p1078
sg6
S'Preview: Twins at Tigers'
p1079
sa(dp1080
g2
S'http://www.reuters.com/article/2014/06/14/ny-macys-celebrates-idUSnPn7MJcpf+98+PRN20140614'
p1081
sg4
S'20140614\xc2\xa07:00AM UTC'
p1082
sg6
S'Macy\'s Stores Nationwide to Broadcast National Anthem in Salute of Flag Day Celebration for the 200th Anniversary of "The Star Spangled Banner"'
p1083
sa(dp1084
g2
S'http://www.reuters.com/article/2014/06/14/iraq-security-options-idUSL2N0OV01N20140614'
p1085
sg4
S'20140614\xc2\xa07:00AM UTC'
p1086
sg6
S'INSIGHT-RPT-Obama faces limited options in Iraq crisis, doubts over air strikes'
p1087
sa(dp1088
g2
S'http://www.reuters.com/article/2014/06/14/us-iraq-security-idUSKBN0EN0RV20140614'
p1089
sg4
S'20140614\xc2\xa06:58AM UTC'
p1090
sg6
S"Iraq's top Shi'ite cleric issues call to fight jihadist rebels"
p1091
sa(dp1092
g2
S'http://www.reuters.com/article/2014/06/14/us-iraq-security-maliki-idUSKBN0EP0EB20140614'
p1093
sg4
S'20140614\xc2\xa06:58AM UTC'
p1094
sg6
S"Iraq's Maliki tells army that Sunni insurgents will be defeated"
p1095
sa(dp1096
g2
S'http://www.reuters.com/article/2014/06/14/us-france-jihadist-tunisia-idUSKBN0EP0F620140614'
p1097
sg4
S'20140614\xc2\xa06:45AM UTC'
p1098
sg6
S'France deports Tunisian accused of jihadist recruitment for Syria'
p1099
sa(dp1100
g2
S'http://www.reuters.com/article/2014/06/14/us-britain-honours-jolie-idUSKBN0EP0EP20140614'
p1101
sg4
S'20140614\xc2\xa06:26AM UTC'
p1102
sg6
S'Britain makes Hollywood actress Angelina Jolie an honorary dame'
p1103
sa(dp1104
g2
S'http://www.reuters.com/article/2014/06/14/britain-honours-jolie-idUSL5N0OV0BK20140614'
p1105
sg4
S'20140614\xc2\xa06:24AM UTC'
p1106
sg6
S'Britain makes Hollywood actress Angelina Jolie an honorary dame'
p1107
sa(dp1108
g2
S'http://www.reuters.com/article/2014/06/14/repsol-acquisitions-idUSL5N0OV0BM20140614'
p1109
sg4
S'20140614\xc2\xa06:13AM UTC'
p1110
sg6
S'Repsol seeks purchases with 7-8 percent return rates'
p1111
sa(dp1112
g2
S'http://www.reuters.com/article/2014/06/14/idUSnMKWdfSb0a+1c8+MKW20140614'
p1113
sg4
S'20140614\xc2\xa06:00AM UTC'
p1114
sg6
S'REMINDER: 2000 km Metis Canoe Trek Reaches Welland June 14'
p1115
sa(dp1116
g2
S'http://www.reuters.com/article/2014/06/14/bbo-nationals-teamreport-idUSMTZEA6E5L34Q720140614'
p1117
sg4
S'20140614\xc2\xa05:59AM UTC'
p1118
sg6
S'Washington Nationals - TeamReport'
p1119
sa(dp1120
g2
S'http://www.reuters.com/article/2014/06/14/bbo-bluejays-teamreport-idUSMTZEA6E5L33Q520140614'
p1121
sg4
S'20140614\xc2\xa05:59AM UTC'
p1122
sg6
S'Toronto Blue Jays - TeamReport'
p1123
sa(dp1124
g2
S'http://www.reuters.com/article/2014/06/14/bbo-rangers-teamreport-idUSMTZEA6E5L33Q620140614'
p1125
sg4
S'20140614\xc2\xa05:59AM UTC'
p1126
sg6
S'Texas Rangers - TeamReport'
p1127
sa(dp1128
g2
S'http://www.reuters.com/article/2014/06/14/bbo-rays-teamreport-idUSMTZEA6E5L32Q420140614'
p1129
sg4
S'20140614\xc2\xa05:59AM UTC'
p1130
sg6
S'Tampa Bay Rays - TeamReport'
p1131
sa(dp1132
g2
S'http://www.reuters.com/article/2014/06/14/bbo-pirates-teamreport-idUSMTZEA6E5L31Q320140614'
p1133
sg4
S'20140614\xc2\xa05:59AM UTC'
p1134
sg6
S'Pittsburgh Pirates - TeamReport'
p1135
sa(dp1136
g2
S'http://www.reuters.com/article/2014/06/14/bbo-mariners-teamreport-idUSMTZEA6E5L30Q220140614'
p1137
sg4
S'20140614\xc2\xa05:59AM UTC'
p1138
sg6
S'Seattle Mariners - TeamReport'
p1139
sa(dp1140
g2
S'http://www.reuters.com/article/2014/06/14/bbo-cardinals-teamreport-idUSMTZEA6E5L30Q120140614'
p1141
sg4
S'20140614\xc2\xa05:59AM UTC'
p1142
sg6
S'St. Louis Cardinals - TeamReport'
p1143
sa(dp1144
g2
S'http://www.reuters.com/article/2014/06/14/bbo-padres-teamreport-idUSMTZEA6E5L30Q020140614'
p1145
sg4
S'20140614\xc2\xa05:59AM UTC'
p1146
sg6
S'San Diego Padres - TeamReport'
p1147
sa(dp1148
g2
S'http://www.reuters.com/article/2014/06/14/bbo-yankees-teamreport-idUSMTZEA6E5L30PY20140614'
p1149
sg4
S'20140614\xc2\xa05:59AM UTC'
p1150
sg6
S'New York Yankees - TeamReport'
p1151
sa(dp1152
g2
S'http://www.reuters.com/article/2014/06/14/bbo-mets-teamreport-idUSMTZEA6E5L30PX20140614'
p1153
sg4
S'20140614\xc2\xa05:59AM UTC'
p1154
sg6
S'New York Mets - TeamReport'
p1155
sa(dp1156
g2
S'http://www.reuters.com/article/2014/06/14/bbo-phillies-teamreport-idUSMTZEA6E5L30PW20140614'
p1157
sg4
S'20140614\xc2\xa05:59AM UTC'
p1158
sg6
S'Philadelphia Phillies - TeamReport'
p1159
sa(dp1160
g2
S'http://www.reuters.com/article/2014/06/14/bbo-athletics-teamreport-idUSMTZEA6E5L30PV20140614'
p1161
sg4
S'20140614\xc2\xa05:59AM UTC'
p1162
sg6
S'Oakland Athletics - TeamReport'
p1163
sa(dp1164
g2
S'http://www.reuters.com/article/2014/06/14/bbo-brewers-teamreport-idUSMTZEA6E5L2TPU20140614'
p1165
sg4
S'20140614\xc2\xa05:59AM UTC'
p1166
sg6
S'Milwaukee Brewers - TeamReport'
p1167
sa(dp1168
g2
S'http://www.reuters.com/article/2014/06/14/bbo-marlins-teamreport-idUSMTZEA6E5L2TPT20140614'
p1169
sg4
S'20140614\xc2\xa05:59AM UTC'
p1170
sg6
S'Miami Marlins - TeamReport'
p1171
sa(dp1172
g2
S'http://www.reuters.com/article/2014/06/14/bbo-twins-teamreport-idUSMTZEA6E5L2TPS20140614'
p1173
sg4
S'20140614\xc2\xa05:59AM UTC'
p1174
sg6
S'Minnesota Twins - TeamReport'
p1175
sa(dp1176
g2
S'http://www.reuters.com/article/2014/06/14/bbo-dodgers-teamreport-idUSMTZEA6E5L2SPR20140614'
p1177
sg4
S'20140614\xc2\xa05:59AM UTC'
p1178
sg6
S'Los Angeles Dodgers - TeamReport'
p1179
sa(dp1180
g2
S'http://www.reuters.com/article/2014/06/14/bbo-angels-teamreport-idUSMTZEA6E5L2QPM20140614'
p1181
sg4
S'20140614\xc2\xa05:59AM UTC'
p1182
sg6
S'Los Angeles Angels - TeamReport'
p1183
sa(dp1184
g2
S'http://www.reuters.com/article/2014/06/14/bbo-royals-teamreport-idUSMTZEA6E5L2QPP20140614'
p1185
sg4
S'20140614\xc2\xa05:59AM UTC'
p1186
sg6
S'Kansas City Royals - TeamReport'
p1187
sa(dp1188
g2
S'http://www.reuters.com/article/2014/06/14/bbo-whitesox-teamreport-idUSMTZEA6E5L2QPO20140614'
p1189
sg4
S'20140614\xc2\xa05:59AM UTC'
p1190
sg6
S'Chicago White Sox - TeamReport'
p1191
sa(dp1192
g2
S'http://www.reuters.com/article/2014/06/14/bbo-astros-teamreport-idUSMTZEA6E5L2QPN20140614'
p1193
sg4
S'20140614\xc2\xa05:59AM UTC'
p1194
sg6
S'Houston Astros - TeamReport'
p1195
sa(dp1196
g2
S'http://www.reuters.com/article/2014/06/14/prn-good-morning-idUSnPn9TLNWy+9e+PRN20140614'
p1197
sg4
S'20140614\xc2\xa05:59AM UTC'
p1198
sg6
S'GOOD MORNING'
p1199
sa(dp1200
g2
S'http://www.reuters.com/article/2014/06/14/bbo-tigers-teamreport-idUSMTZEA6E5L2PPL20140614'
p1201
sg4
S'20140614\xc2\xa05:59AM UTC'
p1202
sg6
S'Detroit Tigers - TeamReport'
p1203
sa(dp1204
g2
S'http://www.reuters.com/article/2014/06/14/bbo-cubs-teamreport-idUSMTZEA6E5L2PPK20140614'
p1205
sg4
S'20140614\xc2\xa05:59AM UTC'
p1206
sg6
S'Chicago Cubs - TeamReport'
p1207
sa(dp1208
g2
S'http://www.reuters.com/article/2014/06/14/bbo-reds-teamreport-idUSMTZEA6E5L2LPJ20140614'
p1209
sg4
S'20140614\xc2\xa05:59AM UTC'
p1210
sg6
S'Cincinnati Reds - TeamReport'
p1211
sa(dp1212
g2
S'http://www.reuters.com/article/2014/06/14/bbo-indians-teamreport-idUSMTZEA6E5L2LPI20140614'
p1213
sg4
S'20140614\xc2\xa05:59AM UTC'
p1214
sg6
S'Cleveland Indians - TeamReport'
p1215
sa(dp1216
g2
S'http://www.reuters.com/article/2014/06/14/bbo-diamondbacks-teamreport-idUSMTZEA6E5L2LPH20140614'
p1217
sg4
S'20140614\xc2\xa05:59AM UTC'
p1218
sg6
S'Arizona Diamondbacks - TeamReport'
p1219
sa(dp1220
g2
S'http://www.reuters.com/article/2014/06/14/bbo-redsox-teamreport-idUSMTZEA6E5L2LPG20140614'
p1221
sg4
S'20140614\xc2\xa05:59AM UTC'
p1222
sg6
S'Boston Red Sox - TeamReport'
p1223
sa(dp1224
g2
S'http://www.reuters.com/article/2014/06/14/bbo-braves-teamreport-idUSMTZEA6E5L2LPF20140614'
p1225
sg4
S'20140614\xc2\xa05:59AM UTC'
p1226
sg6
S'Atlanta Braves - TeamReport'
p1227
sa(dp1228
g2
S'http://www.reuters.com/article/2014/06/14/bbo-orioles-teamreport-idUSMTZEA6E5L2LPE20140614'
p1229
sg4
S'20140614\xc2\xa05:59AM UTC'
p1230
sg6
S'Baltimore Orioles - TeamReport'
p1231
sa(dp1232
g2
S'http://www.reuters.com/article/2014/06/14/us-syria-crisis-blast-idUSKBN0EP0E520140614'
p1233
sg4
S'20140614\xc2\xa05:56AM UTC'
p1234
sg6
S'Syria car bomb near Iraq kills at least 8: monitoring group'
p1235
sa(dp1236
g2
S'http://www.reuters.com/article/2014/06/14/us-ukraine-crisis-gas-talks-idUSKBN0EP0E120140614'
p1237
sg4
S'20140614\xc2\xa05:54AM UTC'
p1238
sg6
S"Russia's Gazprom says prepares for gas talks in Kiev"
p1239
sa(dp1240
g2
S'http://www.reuters.com/article/2014/06/14/us-finland-primeminister-idUSKBN0EP0DT20140614'
p1241
sg4
S'20140614\xc2\xa05:39AM UTC'
p1242
sg6
S"Finnish conservatives set to pick country's next PM"
p1243
sa(dp1244
g2
S'http://www.reuters.com/article/2014/06/14/ukraine-crisis-gas-talks-idUSL5N0OV09T20140614'
p1245
sg4
S'20140614\xc2\xa05:31AM UTC'
p1246
sg6
S"Russia's Gazprom says prepares for gas talks in Kiev"
p1247
sa(dp1248
g2
S'http://www.reuters.com/article/2014/06/14/us-palestinian-israel-reinforcements-idUSKBN0EP0BY20140614'
p1249
sg4
S'20140614\xc2\xa04:51AM UTC'
p1250
sg6
S'Israel reinforcing West Bank troops to search for three teens'
p1251
sa(dp1252
g2
S'http://www.reuters.com/article/2014/06/14/ukraine-crisis-talks-idUSL5N0OV08D20140614'
p1253
sg4
S'20140614\xc2\xa04:35AM UTC'
p1254
sg6
S'Ukraine expects new gas talks with Russia - government source'
p1255
sa(dp1256
g2
S'http://www.reuters.com/article/2014/06/14/us-soccer-world-spain-media-idUSKBN0EP0BN20140614'
p1257
sg4
S'20140614\xc2\xa04:21AM UTC'
p1258
sg6
S"Spanish newspapers bemoan World Cup 'cataclysm'"
p1259
sa(dp1260
g2
S'http://www.reuters.com/article/2014/06/14/soccer-world-spain-media-idUSL5N0OV07320140614'
p1261
sg4
S'20140614\xc2\xa04:07AM UTC'
p1262
sg6
S"Soccer-Spanish newspapers bemoan World Cup 'cataclysm'"
p1263
sa(dp1264
g2
S'http://www.reuters.com/article/2014/06/14/bbo-diamondbacks-dodgers-writethru-idUSMTZEA6E59U0LC20140614'
p1265
sg4
S'20140614\xc2\xa03:53AM UTC'
p1266
sg6
S'Dodgers hang on for dear life in 4-3 win'
p1267
sa(dp1268
g2
S'http://www.reuters.com/article/2014/06/14/us-nfl-noll-idUSKBN0EP07320140614'
p1269
sg4
S'20140614\xc2\xa03:44AM UTC'
p1270
sg6
S'NFL Hall of Fame coach Chuck Noll dies at 82'
p1271
sa(dp1272
g2
S'http://www.reuters.com/article/2014/06/14/yemen-drones-idUSL5N0OV07C20140614'
p1273
sg4
S'20140614\xc2\xa03:44AM UTC'
p1274
sg6
S'Drone strikes kill three suspected militants in Yemen'
p1275
sa(dp1276
g2
S'http://www.reuters.com/article/2014/06/14/us-nhl-stanley-kings-idUSKBN0EP0AK20140614'
p1277
sg4
S'20140614\xc2\xa03:25AM UTC'
p1278
sg6
S'Kings flaunt flair in thrilling Stanley Cup finale'
p1279
sa(dp1280
g2
S'http://www.reuters.com/article/2014/06/14/iraq-security-iran-rouhani-idUSL5N0OV06K20140614'
p1281
sg4
S'20140614\xc2\xa03:21AM UTC'
p1282
sg6
S"UPDATE 1-Iran's Rouhani says ready to aid Iraq, nuclear deal by July 20 possible"
p1283
sa(dp1284
g2
S'http://www.reuters.com/article/2014/06/14/us-usa-transportation-philadelphia-strik-idUSKBN0EP00Z20140614'
p1285
sg4
S'20140614\xc2\xa03:17AM UTC'
p1286
sg6
S'Philadelphia-area transit workers strike over new contract'
p1287
sa(dp1288
g2
S'http://www.reuters.com/article/2014/06/14/hkn-rangers-kings-writethru-idUSMTZEA6E56QC9A20140614'
p1289
sg4
S'20140614\xc2\xa03:08AM UTC'
p1290
sg6
S'Another Cup for Kings after 3-2 win in 2OT'
p1291
sa(dp1292
g2
S'http://www.reuters.com/article/2014/06/14/iraq-security-iran-rouhani-idUSL5N0OV05T20140614'
p1293
sg4
S'20140614\xc2\xa03:01AM UTC'
p1294
sg6
S"Iran's Rouhani says ready to aid Iraq, nuke deal by July 20 possible"
p1295
sa(dp1296
g2
S'http://www.reuters.com/article/2014/06/14/us-china-pollution-beijing-idUSKBN0EP0A320140614'
p1297
sg4
S'20140614\xc2\xa03:00AM UTC'
p1298
sg6
S"Complaints about air pollution in China's capital double in five months"
p1299
sa(dp1300
g2
S'http://www.reuters.com/article/2014/06/14/nj-celgene-corporation-idUSnBw145005a+100+BSW20140614'
p1301
sg4
S'20140614\xc2\xa03:00AM UTC'
p1302
sg6
S'Studies Presented at 19th European Hematology Association Annual Congress Evaluate Activin Receptor Ligand Trap Programs in Beta-Thalassemia'
p1303
sa(dp1304
g2
S'http://www.reuters.com/article/2014/06/14/us-nhl-stanley-mvp-idUSKBN0EP07920140614'
p1305
sg4
S'20140614\xc2\xa02:57AM UTC'
p1306
sg6
S'Kings forward Williams wins Stanley Cup Playoffs MVP award'
p1307
sa(dp1308
g2
S'http://www.reuters.com/article/2014/06/14/us-nhl-stanley-idUSKBN0EP05D20140614'
p1309
sg4
S'20140614\xc2\xa02:57AM UTC'
p1310
sg6
S'Kings reclaim Stanley Cup in overtime thriller'
p1311
sa(dp1312
g2
S'http://www.reuters.com/article/2014/06/14/us-autos-recall-honda-idUSKBN0EO2A020140614'
p1313
sg4
S'20140614\xc2\xa02:49AM UTC'
p1314
sg6
S"Exclusive: Honda's Takata airbag recall could top 1 million - source"
p1315
sa(dp1316
g2
S'http://www.reuters.com/article/2014/06/14/china-pollution-beijing-idUSL4N0OV06L20140614'
p1317
sg4
S'20140614\xc2\xa02:46AM UTC'
p1318
sg6
S"Complaints about air pollution in China's capital double in five months"
p1319
sa(dp1320
g2
S'http://www.reuters.com/article/2014/06/14/bbo-padres-mets-recap-idUSMTZEA6E552E6E20140614'
p1321
sg4
S'20140614\xc2\xa02:38AM UTC'
p1322
sg6
S'Mets 6, Padres 2'
p1323
sa(dp1324
g2
S'http://www.reuters.com/article/2014/06/14/us-nhl-stanley-rangers-idUSKBN0EP09R20140614'
p1325
sg4
S'20140614\xc2\xa02:32AM UTC'
p1326
sg6
S"Rangers' Stanley Cup wait gets prolonged"
p1327
sa(dp1328
g2
S'http://www.reuters.com/article/2014/06/14/bbo-yankees-athletics-writethru-idUSMTZEA6E58HRGJ20140614'
p1329
sg4
S'20140614\xc2\xa02:28AM UTC'
p1330
sg6
S'Phelps helps Yankees win fourth straight'
p1331
sa(dp1332
g2
S'http://www.reuters.com/article/2014/06/14/us-soccer-world-japan-kagawa-idUSKBN0EP09520140614'
p1333
sg4
S'20140614\xc2\xa02:11AM UTC'
p1334
sg6
S'Kagawa wants world to take notice of Japan in Brazil'
p1335
sa(dp1336
g2
S'http://www.reuters.com/article/2014/06/14/bbo-rangers-mariners-writethru-idUSMTZEA6E56QC9B20140614'
p1337
sg4
S'20140614\xc2\xa02:01AM UTC'
p1338
sg6
S"Rangers score in the ninth to beat Hernandez, M's"
p1339
sa(dp1340
g2
S'http://www.reuters.com/article/2014/06/14/us-nhl-stanley-mvp-idUSKBN0EP08S20140614'
p1341
sg4
S'20140614\xc2\xa01:57AM UTC'
p1342
sg6
S"Factbox: Stanley Cup playoffs' MVP Justin Williams"
p1343
sa(dp1344
g2
S'http://www.reuters.com/article/2014/06/14/us-usa-shooting-oregon-idUSKBN0EP08920140614'
p1345
sg4
S'20140614\xc2\xa01:41AM UTC'
p1346
sg6
S'Oregon high school shooter\'s parents "horrified and distraught", offer apology'
p1347
sa(dp1348
g2
S'http://www.reuters.com/article/2014/06/14/ukraine-crisis-plane-idUSL5N0OV04I20140614'
p1349
sg4
S'20140614\xc2\xa01:36AM UTC'
p1350
sg6
S'Forty-nine Ukrainian troops killed in plane shot down by rebels - military spokesman'
p1351
sa(dp1352
g2
S'http://www.reuters.com/article/2014/06/14/bbo-reds-brewers-recap-idUSMTZEA6E54XB6C20140614'
p1353
sg4
S'20140614\xc2\xa01:35AM UTC'
p1354
sg6
S'Reds 6, Brewers 5'
p1355
sa(dp1356
g2
S'http://www.reuters.com/article/2014/06/14/bbo-nationals-cardinals-recap-idUSMTZEA6E50ZR2B20140614'
p1357
sg4
S'20140614\xc2\xa01:24AM UTC'
p1358
sg6
S'Cardinals 1, Nationals 0'
p1359
sa(dp1360
g2
S'http://www.reuters.com/article/2014/06/14/bbo-rays-astros-writethru-idUSMTZEA6E546M5Y20140614'
p1361
sg4
S'20140614\xc2\xa01:08AM UTC'
p1362
sg6
S'Cobb, Rays end 10-game road skid'
p1363
sa(dp1364
g2
S'http://www.reuters.com/article/2014/06/14/bbo-pirates-marlins-writethru-idUSMTZEA6E56YZA920140614'
p1365
sg4
S'20140614\xc2\xa01:04AM UTC'
p1366
sg6
S"Polanco's first career homer lifts Pirates"
p1367
sa(dp1368
g2
S'http://www.reuters.com/article/2014/06/14/ca-relativity-partner-idUSnPn8V45d2+90+PRN20140614'
p1369
sg4
S'20140614\xc2\xa01:01AM UTC'
p1370
sg6
S'Relativity Unveils Strategic Partnership With Leading Chinese Media Company'
p1371
sa(dp1372
g2
S'http://www.reuters.com/article/2014/06/14/us-nhl-stanley-mvp-idUSKBN0EP07B20140614'
p1373
sg4
S'20140614\xc2\xa012:46AM UTC'
p1374
sg6
S'List of Conn Smythe Trophy winners'
p1375
sa(dp1376
g2
S'http://www.reuters.com/article/2014/06/14/bbo-twins-tigers-writethru-idUSMTZEA6E4ZQKZU20140614'
p1377
sg4
S'20140614\xc2\xa012:38AM UTC'
p1378
sg6
S"Twins' Gibson shuts down Tigers"
p1379
sa(dp1380
g2
S'http://www.reuters.com/article/2014/06/14/indonesia-budget-deficit-idUSL4N0OV02P20140614'
p1381
sg4
S'20140614\xc2\xa012:16AM UTC'
p1382
sg6
S'Indonesia committee revises 2014 budget deficit to 2.4 pct of GDP'
p1383
sa(dp1384
g2
S'http://www.reuters.com/article/2014/06/14/chrysler-alfa-romeo-idUSnPn6HyMbJ+95+PRN20140614'
p1385
sg4
S'20140614\xc2\xa012:01AM UTC'
p1386
sg6
S'The Attainable Supercar: All-new 2015 4C Coupe Delivers Groundbreaking Italian Design, Advanced Technological Solutions and Supercar-level Performance'
p1387
sa(dp1388
g2
S'http://www.reuters.com/article/2014/06/14/census-daily-feature-idUSnPnbbwMJb+86+PRN20140614'
p1389
sg4
S'20140614\xc2\xa012:01AM UTC'
p1390
sg6
S'U.S. Census Bureau Daily Feature for June 14'
p1391
sa(dp1392
g2
S'http://www.reuters.com/news/video/videoStory?storyID=87777850'
p1393
sg4
S'20140614\xc2\xa011:04PM UTC'
p1394
sg6
S'Syrian migrant sea rescue drama'
p1395
sa(dp1396
g2
S'http://www.reuters.com/news/video/videoStory?storyID=87774402'
p1397
sg4
S'20140614\xc2\xa09:35PM UTC'
p1398
sg6
S'Prehistoric discovery in New Mexico'
p1399
sa(dp1400
g2
S'http://www.reuters.com/news/video/videoStory?storyID=87800690'
p1401
sg4
S'20140614\xc2\xa08:47PM UTC'
p1402
sg6
S'Americans mark Flag Day with national anthem sing-alongs'
p1403
sa(dp1404
g2
S'http://www.reuters.com/news/video/videoStory?storyID=87762796'
p1405
sg4
S'20140614\xc2\xa06:05PM UTC'
p1406
sg6
S'Memorial held for slain Las Vegas police officer'
p1407
sa(dp1408
g2
S'http://www.reuters.com/news/video/videoStory?storyID=87762370'
p1409
sg4
S'20140614\xc2\xa05:50PM UTC'
p1410
sg6
S'ISIL militants parade through Mosul, Baiji'
p1411
sa(dp1412
g2
S'http://www.reuters.com/news/video/videoStory?storyID=87760850'
p1413
sg4
S'20140614\xc2\xa05:27PM UTC'
p1414
sg6
S'Russian embassy vandalized in Kiev'
p1415
sa(dp1416
g2
S'http://www.reuters.com/news/video/videoStory?storyID=87759709'
p1417
sg4
S'20140614\xc2\xa04:50PM UTC'
p1418
sg6
S'Soothsaying guinea pig predicts Swiss win'
p1419
sa(dp1420
g2
S'http://www.reuters.com/news/video/videoStory?storyID=87757931'
p1421
sg4
S'20140614\xc2\xa03:59PM UTC'
p1422
sg6
S'Iraqi-Americans react to events back home'
p1423
sa(dp1424
g2
S'http://www.reuters.com/news/video/videoStory?storyID=87755104'
p1425
sg4
S'20140614\xc2\xa02:43PM UTC'
p1426
sg6
S'Pentagon orders U.S. aircraft carrier to Gulf'
p1427
sa(dp1428
g2
S'http://www.reuters.com/news/video/videoStory?storyID=87752900'
p1429
sg4
S'20140614\xc2\xa01:33PM UTC'
p1430
sg6
S'Houston police find dozens held against their will in human trafficking house'
p1431
sa(dp1432
g2
S'http://www.reuters.com/news/video/videoStory?storyID=87752536'
p1433
sg4
S'20140614\xc2\xa01:24PM UTC'
p1434
sg6
S'Twisted, charred metal all that remains of Ukrainian jet'
p1435
sa(dp1436
g2
S'http://www.reuters.com/news/video/videoStory?storyID=87750613'
p1437
sg4
S'20140614\xc2\xa011:40AM UTC'
p1438
sg6
S"No timeline for Bergdahl's reintegration process"
p1439
sa(dp1440
g2
S'http://www.reuters.com/news/video/videoStory?storyID=87747811'
p1441
sg4
S'20140614\xc2\xa011:20AM UTC'
p1442
sg6
S'Rebels shoot down Ukrainian military plane, 49 killed'
p1443
sa(dp1444
g2
S'http://www.reuters.com/news/video/videoStory?storyID=87747816'
p1445
sg4
S'20140614\xc2\xa011:15AM UTC'
p1446
sg6
S"Iraq's Maliki warns Sunni insurgents to expect defeat"
p1447
sa(dp1448
g2
S'http://www.reuters.com/news/video/videoStory?storyID=87734156'
p1449
sg4
S'20140614\xc2\xa03:49AM UTC'
p1450
sg6
S'Rush to join Iraqi Army'
p1451
sa(dp1452
g2
S'http://www.reuters.com/news/video/videoStory?storyID=87733702'
p1453
sg4
S'20140614\xc2\xa03:23AM UTC'
p1454
sg6
S'Afghan crunch election underway'
p1455
sa(dp1456
g2
S'http://www.reuters.com/news/video/videoStory?storyID=87732313'
p1457
sg4
S'20140614\xc2\xa02:41AM UTC'
p1458
sg6
S'Iraqi PM in crisis talks'
p1459
sa(dp1460
g2
S'http://www.reuters.com/news/video/videoStory?storyID=87729782'
p1461
sg4
S'20140614\xc2\xa01:10AM UTC'
p1462
sg6
S'Abdullah votes in Afghan poll'
p1463
sa.