(lp0
(dp1
S'href'
p2
S'http://www.reuters.com/article/2014/02/24/uganda-gaybill-idUSL6N0LT04T20140224'
p3
sS'ts'
p4
S'20140223\xc2\xa011:59PM UTC'
p5
sS'title'
p6
S"Uganda's Museveni to sign anti-gay bill - government spokesman"
p7
sa(dp8
g2
S'http://www.reuters.com/article/2014/02/24/mideast-factors-idUSL6N0LT04B20140224'
p9
sg4
S'20140223\xc2\xa011:59PM UTC'
p10
sg6
S'UPDATE 1-MIDEAST STOCKS - Factors to watch - Feb 24'
p11
sa(dp12
g2
S'http://www.reuters.com/article/2014/02/24/idUSnMKWD6Q6ma+1e8+MKW20140224'
p13
sg4
S'20140223\xc2\xa011:58PM UTC'
p14
sg6
S'Thick Intersections at New Mineralised Zone Indicate Extension of the Sleeping Giant-Zeppelin Deposit at Ntaka Hill Nickel Sulphide Project'
p15
sa(dp16
g2
S'http://www.reuters.com/article/2014/02/24/idUSnCCN4CgKCm+1d6+MKW20140224'
p17
sg4
S'20140223\xc2\xa011:58PM UTC'
p18
sg6
S'Thick Intersections at New Mineralised Zone Indicate Extension of the Sleeping Giant-Zeppelin Deposit at Ntaka Hill Nickel Sulphide Project'
p19
sa(dp20
g2
S'http://www.reuters.com/article/2014/02/24/liaoning-auto-brief-idUSL3N0LT1CJ20140224'
p21
sg4
S'20140223\xc2\xa011:57PM UTC'
p22
sg6
S"BRIEF-Liaoning SG Auto's unit to sell buses worth 250 mln yuan to Everthriving Satellite"
p23
sa(dp24
g2
S'http://www.reuters.com/article/2014/02/24/bkn-timberwolves-blazers-writethru-idUSMTZEA2OHJYBU920140224'
p25
sg4
S'20140223\xc2\xa011:54PM UTC'
p26
sg6
S'Reserve F Robinson comes up big for Blazers'
p27
sa(dp28
g2
S'http://www.reuters.com/article/2014/02/24/usa-mississippi-oilspill-idUSL1N0LT0F720140224'
p29
sg4
S'20140223\xc2\xa011:54PM UTC'
p30
sg6
S'Oil spill closes 65-mile stretch of lower Mississippi River'
p31
sa(dp32
g2
S'http://www.reuters.com/article/2014/02/24/lasvegassands-japan-idUSL3N0LT0MO20140224'
p33
sg4
S'20140223\xc2\xa011:53PM UTC'
p34
sg6
S'Sands CEO says will spend "whatever it takes" for Japan casino'
p35
sa(dp36
g2
S'http://www.reuters.com/article/2014/02/24/markets-hongkong-china-stocks-idUSL3N0LT0RG20140224'
p37
sg4
S'20140223\xc2\xa011:50PM UTC'
p38
sg6
S'China shares hit 2-week low on property jitters, Hong Kong sinks too'
p39
sa(dp40
g2
S'http://www.reuters.com/article/2014/02/24/energy-japan-solar-idUSL3N0LT19820140224'
p41
sg4
S'20140223\xc2\xa011:49PM UTC'
p42
sg6
S'TABLE-Japan Q4 solar cell module sales double yr/yr'
p43
sa(dp44
g2
S'http://www.reuters.com/article/2014/02/24/us-g20-australia-growth-idUSBREA1N05G20140224'
p45
sg4
S'20140223\xc2\xa011:44PM UTC'
p46
sg6
S'G20 growth pledge easier in the making than the execution'
p47
sa(dp48
g2
S'http://www.reuters.com/article/2014/02/24/marintec-navalshore-idUSnPnHKtFdS1+16a+PRN20140224'
p49
sg4
S'20140223\xc2\xa011:42PM UTC'
p50
sg6
S'Marintec South America -- 11th Navalshore Surpasses the 2013 Mark and Registers more than 80% of Marketed Spaces'
p51
sa(dp52
g2
S'http://www.reuters.com/article/2014/02/24/us-ukraine-crisis-uk-osborne-idUSBREA1N05A20140224'
p53
sg4
S'20140223\xc2\xa011:34PM UTC'
p54
sg6
S"UK's Osborne says ready to provide assistance to Ukraine through IMF, EU"
p55
sa(dp56
g2
S'http://www.reuters.com/article/2014/02/24/hongkong-ipo-pipeline-idUSL3N0LT0PU20140224'
p57
sg4
S'20140223\xc2\xa011:34PM UTC'
p58
sg6
S'Hong Kong IPO Pipeline - Feb 24'
p59
sa(dp60
g2
S'http://www.reuters.com/article/2014/02/24/g20-australia-growth-idUSL3N0LT06320140224'
p61
sg4
S'20140223\xc2\xa011:34PM UTC'
p62
sg6
S'G20 growth pledge easier in the making than the execution'
p63
sa(dp64
g2
S'http://www.reuters.com/article/2014/02/24/emirates-unionproperties-ownership-idUSL6N0LT03U20140224'
p65
sg4
S'20140223\xc2\xa011:32PM UTC'
p66
sg6
S"Dubai's Union Properties to lift foreign ownership cap to 25 pct"
p67
sa(dp68
g2
S'http://www.reuters.com/article/2014/02/24/ti-wireless-backhaul-idUSnPnCLtVKRP+16f+PRN20140224'
p69
sg4
S'20140223\xc2\xa011:30PM UTC'
p70
sg6
S'Meeting the "yottabyte era" of data consumption with innovative, scalable wireless backhaul solutions from Texas Instruments'
p71
sa(dp72
g2
S'http://www.reuters.com/article/2014/02/24/us-thailand-protest-yingluck-idUSBREA1N05220140224'
p73
sg4
S'20140223\xc2\xa011:25PM UTC'
p74
sg6
S'Thai PM leaves Bangkok as bombs, gunfire punctuate unrest'
p75
sa(dp76
g2
S'http://www.reuters.com/article/2014/02/24/bkc-washingtonst-oregon-recap-idUSMTZEA2OHG4KS320140224'
p77
sg4
S'20140223\xc2\xa011:21PM UTC'
p78
sg6
S'Oregon 67, Washington State 53'
p79
sa(dp80
g2
S'http://www.reuters.com/article/2014/02/24/philippines-smprime-results-idUSL3N0LT18A20140224'
p81
sg4
S'20140223\xc2\xa011:21PM UTC'
p82
sg6
S"Philippines' SM Prime 2013 profit nearly flat"
p83
sa(dp84
g2
S'http://www.reuters.com/article/2014/02/24/mtgox-bitcoinfoundation-idUSL3N0LT15X20140224'
p85
sg4
S'20140223\xc2\xa011:18PM UTC'
p86
sg6
S'Mt. Gox resigns from Bitcoin Foundation - WSJ'
p87
sa(dp88
g2
S'http://www.reuters.com/article/2014/02/24/hongliang-leather-idUSL3N0LT14B20140224'
p89
sg4
S'20140223\xc2\xa011:17PM UTC'
p90
sg6
S"BRIEF-China's Hongliang Leather halts Shenzhen IPO, lead underwriter to investigate issues mentioned in media reports"
p91
sa(dp92
g2
S'http://www.reuters.com/article/2014/02/24/india-snapshot-idUSL3N0LT17N20140224'
p93
sg4
S'20140223\xc2\xa011:15PM UTC'
p94
sg6
S'SNAPSHOT-India stocks, bonds, rupee, swaps, call at 0408 GMT'
p95
sa(dp96
g2
S'http://www.reuters.com/article/2014/02/24/innolux-au-merger-idUSL3N0LT10M20140224'
p97
sg4
S'20140223\xc2\xa011:13PM UTC'
p98
sg6
S"UPDATE 1-Taiwan's Innolux does not rule out merger with AU Optronics"
p99
sa(dp100
g2
S'http://www.reuters.com/article/2014/02/24/us-usa-military-cuts-idUSBREA1N04K20140224'
p101
sg4
S'20140223\xc2\xa011:10PM UTC'
p102
sg6
S'Pentagon to propose shrinking Army, scrapping some jets: report'
p103
sa(dp104
g2
S'http://www.reuters.com/article/2014/02/24/usa-military-cuts-idUSL1N0LT0EM20140224'
p105
sg4
S'20140223\xc2\xa011:08PM UTC'
p106
sg6
S'Pentagon to propose shrinking Army, scrapping some jets -report'
p107
sa(dp108
g2
S'http://www.reuters.com/article/2014/02/24/bkn-kings-nuggets-writethru-idUSMTZEA2OHEBIQT20140224'
p109
sg4
S'20140223\xc2\xa011:07PM UTC'
p110
sg6
S'Kings 109, Nuggets 95'
p111
sa(dp112
g2
S'http://www.reuters.com/article/2014/02/24/united-indus-singapore-land-idUSL3N0LT0YM20140224'
p113
sg4
S'20140223\xc2\xa011:06PM UTC'
p114
sg6
S'UIC plans to take Singapore Land private'
p115
sa(dp116
g2
S'http://www.reuters.com/article/2014/02/24/markets-oil-idUSL3N0LT14420140224'
p117
sg4
S'20140223\xc2\xa011:05PM UTC'
p118
sg6
S'Brent rises above $110 on hopes of revived demand growth'
p119
sa(dp120
g2
S'http://www.reuters.com/article/2014/02/24/market-chatter-idUSL3N0LT14W20140224'
p121
sg4
S'20140223\xc2\xa011:02PM UTC'
p122
sg6
S'Market Chatter- Corporate finance press digest'
p123
sa(dp124
g2
S'http://www.reuters.com/article/2014/02/24/us-ukraine-crisis-selfdefence-idUSBREA1N04F20140224'
p125
sg4
S'20140223\xc2\xa011:01PM UTC'
p126
sg6
S"Self-proclaimed protectors of Kiev look to Ukraine's east"
p127
sa(dp128
g2
S'http://www.reuters.com/article/2014/02/24/zte-idUSnBw235237a+100+BSW20140224'
p129
sg4
S'20140223\xc2\xa011:01PM UTC'
p130
sg6
S"ZTE Launches the World's First Virtualised Cloud NF Solution for Multi-Radio Access Technology<000063.SZ>"
p131
sa(dp132
g2
S'http://www.reuters.com/article/2014/02/24/idUSnCCN9fQ2Gq+1ca+MKW20140224'
p133
sg4
S'20140223\xc2\xa011:00PM UTC'
p134
sg6
S'CAMAC Energy Closes Allied Energy Acquisition'
p135
sa(dp136
g2
S'http://www.reuters.com/article/2014/02/24/olympics-russia-resort-idUSL3N0LS0FG20140224'
p137
sg4
S'20140223\xc2\xa011:00PM UTC'
p138
sg6
S'Olympics-What do you do with a mountain resort with Games gone?'
p139
sa(dp140
g2
S'http://www.reuters.com/article/2014/02/24/va-cyren-new-ticker-idUSnPnSFtMbRd+16a+PRN20140224'
p141
sg4
S'20140223\xc2\xa011:00PM UTC'
p142
sg6
S'CYREN to Trade under New Symbol "CYRN"'
p143
sa(dp144
g2
S'http://www.reuters.com/article/2014/02/24/texinstr-nsncollab-idUSnPnDAtVDRd+16e+PRN20140224'
p145
sg4
S'20140223\xc2\xa011:00PM UTC'
p146
sg6
S'Texas Instruments and NSN Collaborate on Indoor Small Cell Base Stations'
p147
sa(dp148
g2
S'http://www.reuters.com/article/2014/02/24/idUSnMKWzGlhva+1d0+MKW20140224'
p149
sg4
S'20140223\xc2\xa011:00PM UTC'
p150
sg6
S'CAMAC Energy Closes Allied Energy Acquisition'
p151
sa(dp152
g2
S'http://www.reuters.com/article/2014/02/24/ukraine-crisis-selfdefence-idUSL6N0LS0V820140224'
p153
sg4
S'20140223\xc2\xa011:00PM UTC'
p154
sg6
S"Self-proclaimed protectors of Kiev look to Ukraine's east"
p155
sa(dp156
g2
S'http://www.reuters.com/article/2014/02/24/us-venezuela-protests-idUSBREA1M10U20140224'
p157
sg4
S'20140223\xc2\xa010:54PM UTC'
p158
sg6
S'Meeting between Venezuela government, opposition may help ease protests'
p159
sa(dp160
g2
S'http://www.reuters.com/article/2014/02/24/us-colombia-attack-idUSBREA1N02C20140224'
p161
sg4
S'20140223\xc2\xa010:49PM UTC'
p162
sg6
S'Attackers fire at convoy of Colombia presidential candidate'
p163
sa(dp164
g2
S'http://www.reuters.com/article/2014/02/24/us-boeing-labor-idUSBREA1N04420140224'
p165
sg4
S'20140223\xc2\xa010:47PM UTC'
p166
sg6
S"Boeing's machinist union in St. Louis approves contract extension"
p167
sa(dp168
g2
S'http://www.reuters.com/article/2014/02/24/philippines-ayalaland-bonds-idUSL3N0LT0X220140224'
p169
sg4
S'20140223\xc2\xa010:42PM UTC'
p170
sg6
S"Philippines' Ayala Land seeks up to $337 mln via bond sale"
p171
sa(dp172
g2
S'http://www.reuters.com/article/2014/02/24/fitch-publishes-ciputra-residences-a-rat-idUSFit68986420140224'
p173
sg4
S'20140223\xc2\xa010:41PM UTC'
p174
sg6
S"Fitch Publishes Ciputra Residence's 'A-(idn)' Rating"
p175
sa(dp176
g2
S'http://www.reuters.com/article/2014/02/24/india-press-viom-idUSL3N0LT13U20140224'
p177
sg4
S'20140223\xc2\xa010:41PM UTC'
p178
sg6
S'INDIA PRESS-Viom plans to raise 15 bln rupees, may list on LSE-Business Standard'
p179
sa(dp180
g2
S'http://www.reuters.com/article/2014/02/24/india-press-marutisuzuki-idUSL3N0LT12J20140224'
p181
sg4
S'20140223\xc2\xa010:30PM UTC'
p182
sg6
S"INDIA PRESS-Maruti investors oppose Suzuki's plant in Gujarat-Times of India"
p183
sa(dp184
g2
S'http://www.reuters.com/article/2014/02/24/india-press-banks-idUSL3N0LT12F20140224'
p185
sg4
S'20140223\xc2\xa010:28PM UTC'
p186
sg6
S'INDIA PRESS-Govt suggests PSU banks sell non-core investments-Mint'
p187
sa(dp188
g2
S'http://www.reuters.com/article/2014/02/24/myanmar-press-healthinsurance-idUSL3N0LT10O20140224'
p189
sg4
S'20140223\xc2\xa010:27PM UTC'
p190
sg6
S'MYANMAR PRESS-Survey to be conducted for introducing health insurance - Voice Daily'
p191
sa(dp192
g2
S'http://www.reuters.com/article/2014/02/24/india-cbank-reverserepo-idUSL3N0LT10K20140224'
p193
sg4
S'20140223\xc2\xa010:25PM UTC'
p194
sg6
S'TABLE-India cbank says reverse repo bids fall to 30.05 bln rupees'
p195
sa(dp196
g2
S'http://www.reuters.com/article/2014/02/24/us-china-economy-trade-idUSBREA1N04120140224'
p197
sg4
S'20140223\xc2\xa010:24PM UTC'
p198
sg6
S'China confident can maintain same growth pace in trade this year'
p199
sa(dp200
g2
S'http://www.reuters.com/article/2014/02/24/boeing-labor-idUSL3N0LT0VW20140224'
p201
sg4
S'20140223\xc2\xa010:20PM UTC'
p202
sg6
S"Boeing's machinist union in St. Louis approves contract extension"
p203
sa(dp204
g2
S'http://www.reuters.com/article/2014/02/24/skytv-issue-brief-idUSL3N0LT0ZS20140224'
p205
sg4
S'20140223\xc2\xa010:18PM UTC'
p206
sg6
S"BRIEF-NZ's Sky TV plans up to NZ$100 million bond offer"
p207
sa(dp208
g2
S'http://www.reuters.com/article/2014/02/24/india-press-care-idUSL3N0LT10820140224'
p209
sg4
S'20140223\xc2\xa010:17PM UTC'
p210
sg6
S'INDIA PRESS-Baring Asia sole bidder for controlling stake in CARE ratings-Economic Times'
p211
sa(dp212
g2
S'http://www.reuters.com/article/2014/02/24/zte-idUSnBw235232a+100+BSW20140224'
p213
sg4
S'20140223\xc2\xa010:17PM UTC'
p214
sg6
S'ZTE Launches Cloud UniCore Solution<000063.SZ>'
p215
sa(dp216
g2
S'http://www.reuters.com/article/2014/02/24/thailand-thaiair-shares-idUSL3N0LT0WX20140224'
p217
sg4
S'20140223\xc2\xa010:16PM UTC'
p218
sg6
S'Thai bourse briefly halts trading in Thai Airways shares'
p219
sa(dp220
g2
S'http://www.reuters.com/article/2014/02/24/australia-davidjones-idUSL3N0LT0W920140224'
p221
sg4
S'20140223\xc2\xa010:15PM UTC'
p222
sg6
S'David Jones investors say Myer must pay premium'
p223
sa(dp224
g2
S'http://www.reuters.com/article/2014/02/24/markets-japan-stocks-idUSL3N0LS0G820140224'
p225
sg4
S'20140223\xc2\xa010:14PM UTC'
p226
sg6
S'Nikkei touches 3-week high in choppy trade, but investors cautious'
p227
sa(dp228
g2
S'http://www.reuters.com/article/2014/02/24/us-golf-pga-matchplay-day-idUSBREA1N03L20140224'
p229
sg4
S'20140223\xc2\xa010:06PM UTC'
p230
sg6
S'Hard work finally pays off for Day with second PGA Tour win'
p231
sa(dp232
g2
S'http://www.reuters.com/article/2014/02/24/bkc-providence-butler-recap-idUSMTZEA2OH7K3LU20140224'
p233
sg4
S'20140223\xc2\xa010:02PM UTC'
p234
sg6
S'Providence 87, Butler 81'
p235
sa(dp236
g2
S'http://www.reuters.com/article/2014/02/24/mideast-factors-idUSL6N0LT00920140224'
p237
sg4
S'20140223\xc2\xa010:02PM UTC'
p238
sg6
S'MIDEAST STOCKS - Factors to watch - Feb 24'
p239
sa(dp240
g2
S'http://www.reuters.com/article/2014/02/24/morningcall-india-idUSL3N0LT0XX20140224'
p241
sg4
S'20140223\xc2\xa010:01PM UTC'
p242
sg6
S'India Morning Call-Global Markets'
p243
sa(dp244
g2
S'http://www.reuters.com/article/2014/02/24/us-mexico-drugs-usa-idUSBREA1M0WC20140224'
p245
sg4
S'20140223\xc2\xa010:00PM UTC'
p246
sg6
S"Seized phone key to Mexico kingpin 'Shorty' Guzman's capture"
p247
sa(dp248
g2
S'http://www.reuters.com/article/2014/02/24/us-mexico-drugs-scene-idUSBREA1M11920140224'
p249
sg4
S'20140223\xc2\xa010:00PM UTC'
p250
sg6
S"Modest condo, port town: prosaic end to Mexican kingpin's reign"
p251
sa(dp252
g2
S'http://www.reuters.com/article/2014/02/24/us-usa-media-piersmorgan-idUSBREA1N02O20140224'
p253
sg4
S'20140223\xc2\xa09:58PM UTC'
p254
sg6
S"CNN ending British journalist Piers Morgan's prime-time show"
p255
sa(dp256
g2
S'http://www.reuters.com/article/2014/02/24/us-golf-pga-matchplay-dubuisson-idUSBREA1N03520140224'
p257
sg4
S'20140223\xc2\xa09:56PM UTC'
p258
sg6
S'Losing finalist Dubuisson makes big PGA Tour splash'
p259
sa(dp260
g2
S'http://www.reuters.com/article/2014/02/24/us-tennis-men-delray-idUSBREA1N00Y20140224'
p261
sg4
S'20140223\xc2\xa09:54PM UTC'
p262
sg6
S'Cilic continues hot run of form in Delray Beach'
p263
sa(dp264
g2
S'http://www.reuters.com/article/2014/02/24/bkc-floridast-pittsburgh-recap-idUSMTZEA2OH85RLW20140224'
p265
sg4
S'20140223\xc2\xa09:52PM UTC'
p266
sg6
S'Florida State 71, Pittsburgh 66'
p267
sa(dp268
g2
S'http://www.reuters.com/article/2014/02/24/markets-forex-idUSL3N0LT06P20140224'
p269
sg4
S'20140223\xc2\xa09:52PM UTC'
p270
sg6
S'FOREX-Euro steady as Ukraine unrest ebbs, dollar eyes data'
p271
sa(dp272
g2
S'http://www.reuters.com/article/2014/02/24/fitch-downgrades-hks-chong-hing-bank-to-idUSFit69116920140224'
p273
sg4
S'20140223\xc2\xa09:49PM UTC'
p274
sg6
S"Fitch Downgrades HK's Chong Hing Bank to 'BBB'; Outlook Stable"
p275
sa(dp276
g2
S'http://www.reuters.com/article/2014/02/24/innolux-au-merger-idUSL3N0LT0T920140224'
p277
sg4
S'20140223\xc2\xa09:45PM UTC'
p278
sg6
S"Taiwan's Innolux says not against merger with AU Optronics"
p279
sa(dp280
g2
S'http://www.reuters.com/article/2014/02/24/markets-korea-stocks-idUSL3N0LT0S520140224'
p281
sg4
S'20140223\xc2\xa09:37PM UTC'
p282
sg6
S'Seoul shares slip on U.S. home sales, fall in China stocks'
p283
sa(dp284
g2
S'http://www.reuters.com/article/2014/02/24/fitch-rates-federal-international-financ-idUSFit69105420140224'
p285
sg4
S'20140223\xc2\xa09:36PM UTC'
p286
sg6
S"Fitch Rates Federal International Finance's Senior Bond 'AAA(idn)'"
p287
sa(dp288
g2
S'http://www.reuters.com/article/2014/02/24/bkc-arizonast-utah-recap-idUSMTZEA2OHDHKQD20140224'
p289
sg4
S'20140223\xc2\xa09:34PM UTC'
p290
sg6
S'Utah 86, Arizona State 63'
p291
sa(dp292
g2
S'http://www.reuters.com/article/2014/02/24/idUSnMKWMNMn0a+1f8+MKW20140224'
p293
sg4
S'20140223\xc2\xa09:30PM UTC'
p294
sg6
S'Water From California Glaciers Judged the Best in the World at International Tasting Competition'
p295
sa(dp296
g2
S'http://www.reuters.com/article/2014/02/24/thailand-press-idUSL3N0LT0U220140224'
p297
sg4
S'20140223\xc2\xa09:29PM UTC'
p298
sg6
S'THAILAND PRESS-Insurer Allianz keen on Thailand, Malaysia, and Indonesia - Bangkok Post'
p299
sa(dp300
g2
S'http://www.reuters.com/article/2014/02/24/usa-media-piersmorgan-idUSL1N0LT0CU20140224'
p301
sg4
S'20140223\xc2\xa09:25PM UTC'
p302
sg6
S"CNN ending British journalist Piers Morgan's prime-time show"
p303
sa(dp304
g2
S'http://www.reuters.com/article/2014/02/24/bkn-wizards-cavaliers-writethru-idUSMTZEA2OH8HILX20140224'
p305
sg4
S'20140223\xc2\xa09:20PM UTC'
p306
sg6
S'Late push carries Wizards past Cavaliers'
p307
sa(dp308
g2
S'http://www.reuters.com/article/2014/02/24/bkn-magic-raptors-writethru-idUSMTZEA2OH99TNR20140224'
p309
sg4
S'20140223\xc2\xa09:13PM UTC'
p310
sg6
S'Lowry scores 28 as Raptors beat Magic'
p311
sa(dp312
g2
S'http://www.reuters.com/article/2014/02/24/idUSnHUGdxm6+70+ONE20140224'
p313
sg4
S'20140223\xc2\xa09:09PM UTC'
p314
sg6
S'BURGER KING(R) RESTAURANT OPENS IN BRUNEI'
p315
sa(dp316
g2
S'http://www.reuters.com/article/2014/02/24/vietnam-press-banks-idUSL3N0LT0OP20140224'
p317
sg4
S'20140223\xc2\xa09:03PM UTC'
p318
sg6
S'VIETNAM PRESS-Vietnamese banks less optimistic about 2014 growth - Vietnam Economic Times'
p319
sa(dp320
g2
S'http://www.reuters.com/article/2014/02/24/markets-hongkong-china-property-csi-idUSH9N0L300920140224'
p321
sg4
S'20140223\xc2\xa09:00PM UTC'
p322
sg6
S'China shares sink to 2-week low, property-related sectors hit by tightening fears'
p323
sa(dp324
g2
S'http://www.reuters.com/article/2014/02/24/us-usa-obama-governors-idUSBREA1N02320140224'
p325
sg4
S'20140223\xc2\xa08:58PM UTC'
p326
sg6
S"Obama to ambitious governors: 'Make yourselves at home' in White House"
p327
sa(dp328
g2
S'http://www.reuters.com/article/2014/02/24/indonesia-press-sritex-idUSL3N0LT0PB20140224'
p329
sg4
S'20140223\xc2\xa08:56PM UTC'
p330
sg6
S'INDONESIA PRESS-Sritex wins tender to produce German, Malaysia military uniforms -reports'
p331
sa(dp332
g2
S'http://www.reuters.com/article/2014/02/24/boe-markcarney-banks-idUSL3N0LT0LU20140224'
p333
sg4
S'20140223\xc2\xa08:46PM UTC'
p334
sg6
S"BOE's Carney dismisses bank concerns on capital proposals -report"
p335
sa(dp336
g2
S'http://www.reuters.com/article/2014/02/24/fitch-china-fisherys-liquidity-needs-man-idUSFit69124420140224'
p337
sg4
S'20140223\xc2\xa08:46PM UTC'
p338
sg6
S"Fitch: China Fishery's Liquidity Needs Manageable"
p339
sa(dp340
g2
S'http://www.reuters.com/article/2014/02/24/fund-weekly-idUSL3N0LT0MZ20140224'
p341
sg4
S'20140223\xc2\xa08:39PM UTC'
p342
sg6
S'Asia Fund Weekly News, Feb. 24, 2014'
p343
sa(dp344
g2
S'http://www.reuters.com/article/2014/02/24/us-golf-pga-matchplay-idUSBREA1N00G20140224'
p345
sg4
S'20140223\xc2\xa08:38PM UTC'
p346
sg6
S'Day outlasts Dubuisson, wins thrilling Match Play'
p347
sa(dp348
g2
S'http://www.reuters.com/article/2014/02/24/indonesia-semen-idUSL3N0LO1LX20140224'
p349
sg4
S'20140223\xc2\xa08:22PM UTC'
p350
sg6
S"Cement firm Semen Indonesia's net profit rises 12.5 pct in 2013"
p351
sa(dp352
g2
S'http://www.reuters.com/article/2014/02/24/britain-press-ft-idUSL3N0LT07P20140224'
p353
sg4
S'20140223\xc2\xa08:20PM UTC'
p354
sg6
S'PRESS DIGEST- Financial Times - Feb 24'
p355
sa(dp356
g2
S'http://www.reuters.com/article/2014/02/24/us-ukraine-crisis-lew-idUSBREA1N01G20140224'
p357
sg4
S'20140223\xc2\xa08:20PM UTC'
p358
sg6
S'U.S. Treasury Secretary urges Ukraine to begin IMF discussions soon'
p359
sa(dp360
g2
S'http://www.reuters.com/article/2014/02/24/ukraine-crisis-lew-idUSS9N0LO01620140224'
p361
sg4
S'20140223\xc2\xa08:19PM UTC'
p362
sg6
S'U.S. Treasury Secretary urges Ukraine to begin IMF discussions soon'
p363
sa(dp364
g2
S'http://www.reuters.com/article/2014/02/24/us-consumer-outlook-analysis-idUSBREA1M12S20140224'
p365
sg4
S'20140223\xc2\xa08:15PM UTC'
p366
sg6
S'Big consumer companies cut costs, Wall Street wants bolder steps'
p367
sa(dp368
g2
S'http://www.reuters.com/article/2014/02/24/us-athletics-idUSBREA1N01920140224'
p369
sg4
S'20140223\xc2\xa08:13PM UTC'
p370
sg6
S'Whiting has big shot put; Cain dominates 1,500m'
p371
sa(dp372
g2
S'http://www.reuters.com/article/2014/02/24/malaysia-press-1mdb-idUSL3N0LT0B320140224'
p373
sg4
S'20140223\xc2\xa08:07PM UTC'
p374
sg6
S'MALAYSIA-PRESS-Maxis defers staff bonus after missing financial targets - Malaysian Reserve'
p375
sa(dp376
g2
S'http://www.reuters.com/article/2014/02/24/us-usa-avalanche-death-idUSBREA1N01320140224'
p377
sg4
S'20140223\xc2\xa08:06PM UTC'
p378
sg6
S'Snowmobiler dies in avalanche near Idaho-Montana border'
p379
sa(dp380
g2
S'http://www.reuters.com/article/2014/02/24/msci-idUSnBw235168a+100+BSW20140224'
p381
sg4
S'20140223\xc2\xa08:00PM UTC'
p382
sg6
S'ETF Securities and E Fund License the MSCI China A Index for New UCITS ETF'
p383
sa(dp384
g2
S'http://www.reuters.com/article/2014/02/24/markets-australia-stocks-idUSL3N0LS0Q120140224'
p385
sg4
S'20140223\xc2\xa07:59PM UTC'
p386
sg6
S'Australia shares edge higher, banks, resources support'
p387
sa(dp388
g2
S'http://www.reuters.com/article/2014/02/24/us-philippines-bdo-deutsche-idUSBREA1N00V20140224'
p389
sg4
S'20140223\xc2\xa07:58PM UTC'
p390
sg6
S"BDO to acquire Deutsche Bank's trust business in Philippines"
p391
sa(dp392
g2
S'http://www.reuters.com/article/2014/02/24/philippines-bdo-deutsche-idUSL3N0LT05020140224'
p393
sg4
S'20140223\xc2\xa07:56PM UTC'
p394
sg6
S"BDO to acquire Deutsche Bank's trust business in Philippines"
p395
sa(dp396
g2
S'http://www.reuters.com/article/2014/02/24/britain-press-business-idUSL3N0LT04S20140224'
p397
sg4
S'20140223\xc2\xa07:54PM UTC'
p398
sg6
S'PRESS DIGEST- British Business - Feb 24'
p399
sa(dp400
g2
S'http://www.reuters.com/article/2014/02/24/taiwan-tax-idUST8N0KX00H20140224'
p401
sg4
S'20140223\xc2\xa07:54PM UTC'
p402
sg6
S'Taiwan says to release tax proposal to tackle rising debt'
p403
sa(dp404
g2
S'http://www.reuters.com/article/2014/02/24/bkc-setonhall-creighton-writethru-idUSMTZEA2OH5H3LF20140224'
p405
sg4
S'20140223\xc2\xa07:53PM UTC'
p406
sg6
S'McDermott reaches milestone, Creighton edges Seton Hall'
p407
sa(dp408
g2
S'http://www.reuters.com/article/2014/02/24/us-milanfashionweek-idUSBREA1K20C20140224'
p409
sg4
S'20140223\xc2\xa07:51PM UTC'
p410
sg6
S'Fantasy and furs draw Milan fashion week to positive end'
p411
sa(dp412
g2
S'http://www.reuters.com/article/2014/02/24/malaysia-corporate-earnings-idUSL3N0LT05L20140224'
p413
sg4
S'20140223\xc2\xa07:49PM UTC'
p414
sg6
S'DIARY-Malaysia 2013/2014 corporate earnings'
p415
sa(dp416
g2
S'http://www.reuters.com/article/2014/02/24/milanfashionweek-idUSL6N0LT00620140224'
p417
sg4
S'20140223\xc2\xa07:45PM UTC'
p418
sg6
S'Fantasy and furs draw Milan fashion week to positive end'
p419
sa(dp420
g2
S'http://www.reuters.com/article/2014/02/24/philippines-press-banks-idUSL3N0LT02020140224'
p421
sg4
S'20140223\xc2\xa07:45PM UTC'
p422
sg6
S'PHILIPPINES PRESS-Philippine c.bank supports entry of more foreign banks - BusinessWorld'
p423
sa(dp424
g2
S'http://www.reuters.com/article/2014/02/24/markets-precious-idUSL3N0LT04H20140224'
p425
sg4
S'20140223\xc2\xa07:44PM UTC'
p426
sg6
S'PRECIOUS-Gold little changed, U.S. worries, ETF support'
p427
sa(dp428
g2
S'http://www.reuters.com/article/2014/02/24/markets-forex-idUSL3N0LT00T20140224'
p429
sg4
S'20140223\xc2\xa07:43PM UTC'
p430
sg6
S'FOREX-Euro steady after Ukraine unrest shows signs of subsiding'
p431
sa(dp432
g2
S'http://www.reuters.com/article/2014/02/24/philippines-press-sanmiguel-idUSL3N0LT01O20140224'
p433
sg4
S'20140223\xc2\xa07:31PM UTC'
p434
sg6
S'PHILIPPINES PRESS-San Miguel Brewery plans to raise $449 mln via bonds - Inquirer'
p435
sa(dp436
g2
S'http://www.reuters.com/article/2014/02/24/japan-defence-idUSL3N0LT02V20140224'
p437
sg4
S'20140223\xc2\xa07:30PM UTC'
p438
sg6
S'RPT-Japan drafts revision of arms exports ban -source'
p439
sa(dp440
g2
S'http://www.reuters.com/article/2014/02/24/omnicom-ddb2acq22feet-idUSnPnNYtWjJ6+16a+PRN20140224'
p441
sg4
S'20140223\xc2\xa07:30PM UTC'
p442
sg6
S'DDB announces acquisition of 22feet in India'
p443
sa(dp444
g2
S'http://www.reuters.com/article/2014/02/24/honda-executives-idUSL3N0LT02Y20140224'
p445
sg4
S'20140223\xc2\xa07:29PM UTC'
p446
sg6
S'RPT-Honda, lagging rivals, considers opening board to foreigners'
p447
sa(dp448
g2
S'http://www.reuters.com/article/2014/02/24/malaysia-press-1mdb-idUSL3N0LT03B20140224'
p449
sg4
S'20140223\xc2\xa07:29PM UTC'
p450
sg6
S'MALAYSIA-PRESS-1MDB tipped to develop solar power plant - The Edge'
p451
sa(dp452
g2
S'http://www.reuters.com/article/2014/02/24/press-digest-china-idUSL3N0LS0VW20140224'
p453
sg4
S'20140223\xc2\xa07:24PM UTC'
p454
sg6
S'PRESS DIGEST-China - Feb 24'
p455
sa(dp456
g2
S'http://www.reuters.com/article/2014/02/24/malaysia-press-petronas-idUSL3N0LT02J20140224'
p457
sg4
S'20140223\xc2\xa07:22PM UTC'
p458
sg6
S'MALAYSIA-PRESS-Petronas may not meet deadline for investment decision on $19 bln petrochems plant - The Edge'
p459
sa(dp460
g2
S'http://www.reuters.com/article/2014/02/24/us-britain-services-cbi-idUSBREA1N00D20140224'
p461
sg4
S'20140223\xc2\xa07:21PM UTC'
p462
sg6
S'Optimism in UK services firms hits highest since 1998: CBI survey'
p463
sa(dp464
g2
S'http://www.reuters.com/article/2014/02/24/bkn-bulls-heat-writethru-idUSMTZEA2NH1VF3E20140224'
p465
sg4
S'20140223\xc2\xa07:20PM UTC'
p466
sg6
S'Heat beat Bulls as James sits out with broken nose'
p467
sa(dp468
g2
S'http://www.reuters.com/article/2014/02/24/daewooshipbuilding-order-idUSL3N0LS0XG20140224'
p469
sg4
S'20140223\xc2\xa07:13PM UTC'
p470
sg6
S"S.Korea's Daewoo Shipbuilding wins $640 mln orders for gas carriers"
p471
sa(dp472
g2
S'http://www.reuters.com/article/2014/02/24/smartmatic-idUSnBw235215a+100+BSW20140224'
p473
sg4
S'20140223\xc2\xa07:06PM UTC'
p474
sg6
S'Smartmatic technology delivers official results in record breaking time in Ecuador'
p475
sa(dp476
g2
S'http://www.reuters.com/article/2014/02/24/us-indonesia-smelters-idUSBREA1M16B20140224'
p477
sg4
S'20140223\xc2\xa07:01PM UTC'
p478
sg6
S'Indonesian copper smelters at risk as mining policy misfires'
p479
sa(dp480
g2
S'http://www.reuters.com/article/2014/02/24/britain-politics-eu-idUSL6N0LS0WT20140224'
p481
sg4
S'20140223\xc2\xa07:01PM UTC'
p482
sg6
S'Business group says new EU rules have cost UK firms 12 bln pounds'
p483
sa(dp484
g2
S'http://www.reuters.com/article/2014/02/24/britain-scotland-oil-idUSL6N0LS0U220140224'
p485
sg4
S'20140223\xc2\xa07:01PM UTC'
p486
sg6
S'Keen to keep Scotland, UK unveils boost to oil and gas sector'
p487
sa(dp488
g2
S'http://www.reuters.com/article/2014/02/24/us-indonesia-copper-smelters-factbox-idUSBREA1N00320140224'
p489
sg4
S'20140223\xc2\xa07:01PM UTC'
p490
sg6
S"Factbox: Indonesia's planned copper smelter projects"
p491
sa(dp492
g2
S'http://www.reuters.com/article/2014/02/24/ma-hbs-idUSnBw235119a+100+BSW20140224'
p493
sg4
S'20140223\xc2\xa07:00PM UTC'
p494
sg6
S'Chair of HBS Executive Education & Publishing to Present Global Perspectives on Executive Development at Singapore Event'
p495
sa(dp496
g2
S'http://www.reuters.com/article/2014/02/24/ca-arcadia-biosciences-idUSnBw235018a+100+BSW20140224'
p497
sg4
S'20140223\xc2\xa07:00PM UTC'
p498
sg6
S'Stacked Gene Traits Improve Plant Productivity under Multiple Environmental Stresses'
p499
sa(dp500
g2
S'http://www.reuters.com/article/2014/02/23/us-indonesia-smelters-idUSBREA1M16B20140223'
p501
sg4
S'20140223\xc2\xa06:59PM UTC'
p502
sg6
S'Indonesian copper smelters at risk as mining policy misfires'
p503
sa(dp504
g2
S'http://www.reuters.com/article/2014/02/23/us-markets-global-idUSBRE96S00E20140223'
p505
sg4
S'20140223\xc2\xa06:56PM UTC'
p506
sg6
S'Stocks sluggish, dollar firms as G20 reaction muted'
p507
sa(dp508
g2
S'http://www.reuters.com/article/2014/02/23/bkn-bulls-heat-writethru-idUSMTZEA2NH1VF3E20140223'
p509
sg4
S'20140223\xc2\xa06:56PM UTC'
p510
sg6
S'Heat beat Bulls as James sits out with broken nose'
p511
sa(dp512
g2
S'http://www.reuters.com/article/2014/02/23/markets-global-idUSL3N0LS0WM20140223'
p513
sg4
S'20140223\xc2\xa06:54PM UTC'
p514
sg6
S'GLOBAL MARKETS-Stocks sluggish, dollar firms as G20 reaction muted'
p515
sa(dp516
g2
S'http://www.reuters.com/article/2014/02/23/us-india-quadricycle-idUSBREA1M16320140223'
p517
sg4
S'20140223\xc2\xa06:47PM UTC'
p518
sg6
S"India's Bajaj to launch four-wheel vehicle but it's not a car"
p519
sa(dp520
g2
S'http://www.reuters.com/article/2014/02/23/pictures-report-idUSRTX18PJY'
p521
sg4
S'20140223\xc2\xa06:45PM UTC'
p522
sg6
S'Unrest spreads in Venezuela'
p523
sa(dp524
g2
S'http://www.reuters.com/article/2014/02/23/bkc-setonhall-creighton-recap-idUSMTZEA2OH5H3LF20140223'
p525
sg4
S'20140223\xc2\xa06:41PM UTC'
p526
sg6
S'Creighton 72, Seton Hall 71'
p527
sa(dp528
g2
S'http://www.reuters.com/article/2014/02/23/us-holocaust-survivor-britain-death-idUSBREA1M13K20140223'
p529
sg4
S'20140223\xc2\xa06:40PM UTC'
p530
sg6
S"World's oldest Holocaust survivor, Alice Herz-Sommer, dies in UK"
p531
sa(dp532
g2
S'http://www.reuters.com/article/2014/02/23/holocaust-survivor-britain-death-idUSL6N0LS10N20140223'
p533
sg4
S'20140223\xc2\xa06:38PM UTC'
p534
sg6
S"UPDATE 1-World's oldest Holocaust survivor, Alice Herz-Sommer, dies in UK"
p535
sa(dp536
g2
S'http://www.reuters.com/article/2014/02/23/ut-boart-longyear-idUSnBw235213a+100+BSW20140223'
p537
sg4
S'20140223\xc2\xa06:34PM UTC'
p538
sg6
S'Boart Longyear Announces 2013 Full Year Financial Results, Amendment to Credit Agreement and Review of Strategic Options'
p539
sa(dp540
g2
S'http://www.reuters.com/article/2014/02/23/us-sfr-numericable-idUSBREA1M15X20140223'
p541
sg4
S'20140223\xc2\xa06:32PM UTC'
p542
sg6
S'Numericable in talks to buy SFR: Les Echos'
p543
sa(dp544
g2
S'http://www.reuters.com/article/2014/02/23/prntest-idUSnPnHSTEST1+17e+PRN20140223'
p545
sg4
S'20140223\xc2\xa06:30PM UTC'
p546
sg6
S'Following Is a Test Release'
p547
sa(dp548
g2
S'http://www.reuters.com/article/2014/02/23/sfr-numericable-idUSL6N0LS10720140223'
p549
sg4
S'20140223\xc2\xa06:25PM UTC'
p550
sg6
S'Numericable in talks to buy SFR -Les Echos'
p551
sa(dp552
g2
S'http://www.reuters.com/article/2014/02/23/holocaust-survivor-britain-death-idUSL6N0LS0YL20140223'
p553
sg4
S'20140223\xc2\xa06:17PM UTC'
p554
sg6
S"CORRECTED-World's oldest Holocaust survivor, Alice Herz-Sommer, dies in UK"
p555
sa(dp556
g2
S'http://www.reuters.com/article/2014/02/23/us-fed-banks-deutsche-idUSBREA1M15Q20140223'
p557
sg4
S'20140223\xc2\xa06:16PM UTC'
p558
sg6
S'Deutsche Bank to slash U.S.-based assets by $100 billion: FT'
p559
sa(dp560
g2
S'http://www.reuters.com/article/2014/02/23/fed-banks-deutsche-idUSL3N0LS0TC20140223'
p561
sg4
S'20140223\xc2\xa06:14PM UTC'
p562
sg6
S'Deutsche Bank to slash U.S.-based assets by $100 bln -FT'
p563
sa(dp564
g2
S'http://www.reuters.com/article/2014/02/23/idUSnCCN47Nf5+e4+MKW20140223'
p565
sg4
S'20140223\xc2\xa06:12PM UTC'
p566
sg6
S'Troy Resources Limited: Half Year Ended 31 December 2013 Financial Results'
p567
sa(dp568
g2
S'http://www.reuters.com/article/2014/02/23/markets-japan-stocks-orders-idUSL3N0LS0UA20140223'
p569
sg4
S'20140223\xc2\xa06:12PM UTC'
p570
sg6
S'TABLE-Foreign brokers set to buy Japanese stocks'
p571
sa(dp572
g2
S'http://www.reuters.com/article/2014/02/23/australia-boartlongyear-shares-idUSS9N0LO01420140223'
p573
sg4
S'20140223\xc2\xa06:10PM UTC'
p574
sg6
S"Australia's Boart Longyear shares down over 10 pct after earnings"
p575
sa(dp576
g2
S'http://www.reuters.com/article/2014/02/23/us-hsbc-earnings-idUSBREA1M15H20140223'
p577
sg4
S'20140223\xc2\xa06:07PM UTC'
p578
sg6
S'HSBC cost cuts set to lift profits as CEO faces growth challenge'
p579
sa(dp580
g2
S'http://www.reuters.com/article/2014/02/23/idUSnGNX4SGgHZ+1db+GNW20140223'
p581
sg4
S'20140223\xc2\xa06:05PM UTC'
p582
sg6
S'REVA to Hold Briefing Call on Financial Results for 2013 and Present at Cowen Health Care Conference'
p583
sa(dp584
g2
S'http://www.reuters.com/article/2014/02/23/us-olympics-ceremony-idUSBREA1M0QT20140223'
p585
sg4
S'20140223\xc2\xa06:03PM UTC'
p586
sg6
S'Russia lightens up with softer image at closing ceremony'
p587
sa(dp588
g2
S'http://www.reuters.com/article/2014/02/23/ca-skycross-idUSnBw235207a+100+BSW20140223'
p589
sg4
S'20140223\xc2\xa06:01PM UTC'
p590
sg6
S'SkyCross Introduces World\xe2\x80\x99s First 4X4 MIMO Solution for Smartphones Achieving New LTE-A Speed Record of Almost 600Mbps'
p591
sa(dp592
g2
S'http://www.reuters.com/article/2014/02/23/mi-ford-motor-company-idUSnBw235089a+100+BSW20140223'
p593
sg4
S'20140223\xc2\xa06:01PM UTC'
p594
sg6
S'World\xe2\x80\x99s Best-Selling Nameplate Gets Even Better: Ford Reveals Sophisticated New Focus with 1.0-Liter EcoBoost'
p595
sa(dp596
g2
S'http://www.reuters.com/article/2014/02/23/hsbc-earnings-idUSL6N0LP4KQ20140223'
p597
sg4
S'20140223\xc2\xa06:01PM UTC'
p598
sg6
S'HSBC cost cuts set to lift profits as CEO faces growth challenge'
p599
sa(dp600
g2
S'http://www.reuters.com/article/2014/02/23/ca-mobile-experience-idUSnPnSFtCFFC+16f+PRN20140223'
p601
sg4
S'20140223\xc2\xa06:00PM UTC'
p602
sg6
S'Tencent Publishes Certimo\xe2\x84\xa2 Smartphone Ratings to 200M+ Consumers'
p603
sa(dp604
g2
S'http://www.reuters.com/article/2014/02/23/idUSnMKW4dlVva+1c4+MKW20140223'
p605
sg4
S'20140223\xc2\xa06:00PM UTC'
p606
sg6
S'Element Provides Fifth Consecutive Financing Campaign With Next Generation BK(R) Kitchen at BURGER KING(R) Restaurants'
p607
sa(dp608
g2
S'http://www.reuters.com/article/2014/02/23/bkc-purdue-nebraska-recap-idUSMTZEA2NH3I04220140223'
p609
sg4
S'20140223\xc2\xa05:59PM UTC'
p610
sg6
S'Nebraska 76, Purdue 57'
p611
sa(dp612
g2
S'http://www.reuters.com/article/2014/02/23/us-science-rock-idUSBREA1M12A20140223'
p613
sg4
S'20140223\xc2\xa05:58PM UTC'
p614
sg6
S'Rock around the clock: zircon crystal is oldest piece of Earth'
p615
sa(dp616
g2
S'http://www.reuters.com/article/2014/02/23/australia-boartlongyear-idUSL3N0LS0Q920140223'
p617
sg4
S'20140223\xc2\xa05:56PM UTC'
p618
sg6
S'UPDATE 1-Boart Longyear posts full-year loss, amends credit agreement'
p619
sa(dp620
g2
S'http://www.reuters.com/article/2014/02/23/idUS68056622420140223'
p621
sg4
S'20140223\xc2\xa05:55PM UTC'
p622
sg6
S'Closing Ceremony in Sochi'
p623
sa(dp624
g2
S'http://www.reuters.com/article/2014/02/23/idUS113871676220140223'
p625
sg4
S'20140223\xc2\xa05:55PM UTC'
p626
sg6
S'Closing Ceremony in Sochi'
p627
sa(dp628
g2
S'http://www.reuters.com/article/2014/02/23/us-mobile-world-microsoft-idUSBREA1M15520140223'
p629
sg4
S'20140223\xc2\xa05:53PM UTC'
p630
sg6
S'Microsoft resets Windows Phone to reach lower cost markets'
p631
sa(dp632
g2
S'http://www.reuters.com/article/2014/02/23/us-medpace-cinven-idUSBREA1M14020140223'
p633
sg4
S'20140223\xc2\xa05:50PM UTC'
p634
sg6
S'Cinven to acquire Medpace in $900 million deal: sources'
p635
sa(dp636
g2
S'http://www.reuters.com/article/2014/02/23/medpace-cinven-idUSL1N0LS0FM20140223'
p637
sg4
S'20140223\xc2\xa05:49PM UTC'
p638
sg6
S'UPDATE 1-Cinven to acquire Medpace in $900 million deal -sources'
p639
sa(dp640
g2
S'http://www.reuters.com/article/2014/02/23/mobile-world-microsoft-idUSL6N0LS10220140223'
p641
sg4
S'20140223\xc2\xa05:48PM UTC'
p642
sg6
S'Microsoft resets Windows Phone to reach lower cost markets'
p643
sa(dp644
g2
S'http://www.reuters.com/article/2014/02/23/us-comcast-netflix-idUSBREA1M0X520140223'
p645
sg4
S'20140223\xc2\xa05:47PM UTC'
p646
sg6
S'Netflix to pay Comcast for faster speeds'
p647
sa(dp648
g2
S'http://www.reuters.com/article/2014/02/23/comcast-netflix-idUSL1N0LS0BB20140223'
p649
sg4
S'20140223\xc2\xa05:45PM UTC'
p650
sg6
S'UPDATE 2-Netflix to pay Comcast for faster speeds'
p651
sa(dp652
g2
S'http://www.reuters.com/article/2014/02/23/us-boxoffice-idUSBREA1M0TM20140223'
p653
sg4
S'20140223\xc2\xa05:44PM UTC'
p654
sg6
S"'Lego Movie' keeps on box-office perch with $31.5 million weekend take"
p655
sa(dp656
g2
S'http://www.reuters.com/article/2014/02/23/us-venezuela-protests-idUSBREA1M10U20140223'
p657
sg4
S'20140223\xc2\xa05:42PM UTC'
p658
sg6
S'Meeting between Venezuela government, opposition may help ease protests'
p659
sa(dp660
g2
S'http://www.reuters.com/article/2014/02/23/idUSnGNX2yR5PG+1cb+GNW20140223'
p661
sg4
S'20140223\xc2\xa05:35PM UTC'
p662
sg6
S'REVA to Present at CRT 2014 Conference'
p663
sa(dp664
g2
S'http://www.reuters.com/article/2014/02/23/us-libya-oil-idUSBREA1M14T20140223'
p665
sg4
S'20140223\xc2\xa05:34PM UTC'
p666
sg6
S'Libya struggles to pay bills as protests slash oil revenues'
p667
sa(dp668
g2
S'http://www.reuters.com/article/2014/02/23/idUSnMKW5dHSWa+1ce+MKW20140223'
p669
sg4
S'20140223\xc2\xa05:30PM UTC'
p670
sg6
S'Strata-X Updates Operations Activity on Its Three Key USA Projects'
p671
sa(dp672
g2
S'http://www.reuters.com/article/2014/02/23/idUSnCCN69k6jT+1c1+MKW20140223'
p673
sg4
S'20140223\xc2\xa05:30PM UTC'
p674
sg6
S'Strata-X Updates Operations Activity on Its Three Key USA Projects'
p675
sa(dp676
g2
S'http://www.reuters.com/article/2014/02/23/us-thailand-protest-idUSBREA1M02H20140223'
p677
sg4
S'20140223\xc2\xa05:21PM UTC'
p678
sg6
S'Blood, sandals on street as bomb kills two, wounds 22 in Thai capital'
p679
sa(dp680
g2
S'http://www.reuters.com/article/2014/02/23/us-ukraine-idUSBREA1G0OU20140223'
p681
sg4
S'20140223\xc2\xa05:14PM UTC'
p682
sg6
S'Ukraine sets European course after ouster of Yanukovich'
p683
sa(dp684
g2
S'http://www.reuters.com/article/2014/02/23/us-ukraine-crisis-russia-tv-idUSBREA1M14M20140223'
p685
sg4
S'20140223\xc2\xa05:14PM UTC'
p686
sg6
S"Russian state TV host accuses Ukraine's Yanukovich of 'betrayal'"
p687
sa(dp688
g2
S'http://www.reuters.com/article/2014/02/23/us-mobile-world-huawei-idUSBREA1M14E20140223'
p689
sg4
S'20140223\xc2\xa05:12PM UTC'
p690
sg6
S"China's Huawei seeks U.S. foothold in smartphone race: executive"
p691
sa(dp692
g2
S'http://www.reuters.com/article/2014/02/23/us-italy-politics-idUSBREA1M14820140223'
p693
sg4
S'20140223\xc2\xa05:08PM UTC'
p694
sg6
S"Italy's new PM Renzi faces first parliamentary test"
p695
sa(dp696
g2
S'http://www.reuters.com/article/2014/02/23/us-mobile-world-alcatel-intel-idUSBREA1M0WW20140223'
p697
sg4
S'20140223\xc2\xa05:04PM UTC'
p698
sg6
S'Alcatel to stay out of telecom price war, inks Intel deal'
p699
sa(dp700
g2
S'http://www.reuters.com/article/2014/02/23/us-oscars-poll-idUSBREA1M13R20140223'
p701
sg4
S'20140223\xc2\xa05:02PM UTC'
p702
sg6
S'Most Americans have yet to watch any best-picture Oscar nominee: poll'
p703
sa(dp704
g2
S'http://www.reuters.com/article/2014/02/23/mobile-world-alcatel-intel-idUSL6N0LS0Z920140223'
p705
sg4
S'20140223\xc2\xa05:02PM UTC'
p706
sg6
S'UPDATE 1-Alcatel to stay out of telecom price war, inks Intel deal'
p707
sa(dp708
g2
S'http://www.reuters.com/article/2014/02/23/ukraine-crisis-look-idUSL6N0LS0R420140223'
p709
sg4
S'20140223\xc2\xa05:01PM UTC'
p710
sg6
S'TAKE-A-LOOK-Ukraine in crisis'
p711
sa(dp712
g2
S'http://www.reuters.com/article/2014/02/23/orient-express-hotels-idUSnBw235209a+100+BSW20140223'
p713
sg4
S'20140223\xc2\xa05:00PM UTC'
p714
sg6
S'Orient-Express Hotels Ltd. to Launch Belmond Brand'
p715
sa(dp716
g2
S'http://www.reuters.com/article/2014/02/23/italy-politics-idUSL6N0LS0UH20140223'
p717
sg4
S'20140223\xc2\xa05:00PM UTC'
p718
sg6
S"Italy's new PM Renzi faces first parliamentary test"
p719
sa(dp720
g2
S'http://www.reuters.com/article/2014/02/23/mobile-world-huawei-idUSL6N0LS0XJ20140223'
p721
sg4
S'20140223\xc2\xa04:57PM UTC'
p722
sg6
S"China's Huawei seeks U.S. foothold in smartphone race -exec"
p723
sa(dp724
g2
S'http://www.reuters.com/article/2014/02/23/oscars-poll-idUSL2N0LQ2GZ20140223'
p725
sg4
S'20140223\xc2\xa04:57PM UTC'
p726
sg6
S'Most Americans have yet to watch any best-picture Oscar nominee -poll'
p727
sa(dp728
g2
S'http://www.reuters.com/article/2014/02/23/medpace-cinven-idUSL6N0LS0SK20140223'
p729
sg4
S'20140223\xc2\xa04:54PM UTC'
p730
sg6
S'Cinven to acquire Medpace in $900 million deal -sources'
p731
sa(dp732
g2
S'http://www.reuters.com/article/2014/02/23/ferragamo-ceo-idUSL6N0LS0Z020140223'
p733
sg4
S'20140223\xc2\xa04:50PM UTC'
p734
sg6
S'Salvatore Ferragamo eyes China, Latin America to boost profitability - CEO'
p735
sa(dp736
g2
S'http://www.reuters.com/article/2014/02/23/ukraine-crisis-russia-tv-idUSL6N0LS0Z420140223'
p737
sg4
S'20140223\xc2\xa04:49PM UTC'
p738
sg6
S'Russian state TV host accuses Ukraine\'s Yanukovich of "betrayal"'
p739
sa(dp740
g2
S'http://www.reuters.com/article/2014/02/23/bkn-clippers-thunder-writethru-idUSMTZEA2NGVR50O20140223'
p741
sg4
S'20140223\xc2\xa04:45PM UTC'
p742
sg6
S'Clippers get important road win over Thunde'
p743
sa(dp744
g2
S'http://www.reuters.com/article/2014/02/23/bkc-southernmethodist-connecticut-recap-idUSMTZEA2NGX6R1P20140223'
p745
sg4
S'20140223\xc2\xa04:37PM UTC'
p746
sg6
S'Southern Methodist 64, Connecticut 55'
p747
sa(dp748
g2
S'http://www.reuters.com/article/2014/02/23/markets-australia-stocks-idUSL3N0LS0JU20140223'
p749
sg4
S'20140223\xc2\xa04:36PM UTC'
p750
sg6
S'Australia shares likely to pause after rally'
p751
sa(dp752
g2
S'http://www.reuters.com/article/2014/02/23/us-nba-heat-james-idUSBREA1M13A20140223'
p753
sg4
S'20140223\xc2\xa04:28PM UTC'
p754
sg6
S'Heat forward James out of Bulls game with broken nose'
p755
sa(dp756
g2
S'http://www.reuters.com/article/2014/02/23/energy-gasoline-retail-idUSL1N0LS0DO20140223'
p757
sg4
S'20140223\xc2\xa04:26PM UTC'
p758
sg6
S'U.S. gasoline rose almost 12 cents over two weeks- survey'
p759
sa(dp760
g2
S'http://www.reuters.com/article/2014/02/23/us-china-germany-idUSBREA1M12520140223'
p761
sg4
S'20140223\xc2\xa04:25PM UTC'
p762
sg6
S'Exclusive: China, eyeing Japan, seeks WW2 focus for Xi during Germany visit'
p763
sa(dp764
g2
S'http://www.reuters.com/article/2014/02/23/personhood-pelletier-idUSnPnDCtWmBf+16a+PRN20140223'
p765
sg4
S'20140223\xc2\xa04:25PM UTC'
p766
sg6
S'Faith and pro-life groups to hold press conference with new details in Pelletier case in Boston'
p767
sa(dp768
g2
S'http://www.reuters.com/article/2014/02/23/am-academy-neuro-meet-idUSnPnDCtWnBf+16a+PRN20140223'
p769
sg4
S'20140223\xc2\xa04:25PM UTC'
p770
sg6
S'Mysterious Polio-Like Illness Found in Five California Children'
p771
sa(dp772
g2
S'http://www.reuters.com/article/2014/02/23/rentrak-results-idUSnPnSFtNlBd+16a+PRN20140223'
p773
sg4
S'20140223\xc2\xa04:24PM UTC'
p774
sg6
S'Rentrak Announces Worldwide Box Office Results for Weekend of Feb. 23, 2014'
p775
sa(dp776
g2
S'http://www.reuters.com/article/2014/02/23/us-usa-stocks-weekahead-idUSBREA1L01020140223'
p777
sg4
S'20140223\xc2\xa04:11PM UTC'
p778
sg6
S'U.S. stocks to watch Yellen; S&P; 500 may stall'
p779
sa(dp780
g2
S'http://www.reuters.com/article/2014/02/23/us-consumer-outlook-analysis-idUSBREA1M12S20140223'
p781
sg4
S'20140223\xc2\xa04:09PM UTC'
p782
sg6
S'Big consumer companies cut costs, Wall Street wants bolder steps'
p783
sa(dp784
g2
S'http://www.reuters.com/article/2014/02/23/chorus-earnings-idUSW9N0IO02120140223'
p785
sg4
S'20140223\xc2\xa04:07PM UTC'
p786
sg6
S"RPT-New Zealand's Chorus H1 year profit falls, no dividend"
p787
sa(dp788
g2
S'http://www.reuters.com/article/2014/02/23/usa-stocks-weekahead-idUSL2N0LR01F20140223'
p789
sg4
S'20140223\xc2\xa04:07PM UTC'
p790
sg6
S'UPDATE 1-Wall St Week Ahead-U.S. stocks to watch Yellen; S&P; 500 may stall'
p791
sa(dp792
g2
S'http://www.reuters.com/article/2014/02/23/us-china-banks-online-idUSBREA1M12M20140223'
p793
sg4
S'20140223\xc2\xa04:05PM UTC'
p794
sg6
S'China banks strike back against threat from Internet finance'
p795
sa(dp796
g2
S'http://www.reuters.com/article/2014/02/23/us-nba-nets-collins-idUSBREA1M11T20140223'
p797
sg4
S'20140223\xc2\xa04:02PM UTC'
p798
sg6
S'Collins signs with Nets as first openly gay player'
p799
sa(dp800
g2
S'http://www.reuters.com/article/2014/02/23/us-lg-elec-mobilephone-idUSBREA1M12D20140223'
p801
sg4
S'20140223\xc2\xa04:01PM UTC'
p802
sg6
S'LG Electronics aims for smartphone growth double the market rate'
p803
sa(dp804
g2
S'http://www.reuters.com/article/2014/02/23/co-dickeys-bbqbrisket-idUSnPnDAtTNzM+16d+PRN20140223'
p805
sg4
S'20140223\xc2\xa04:00PM UTC'
p806
sg6
S"What's Happening this Weekend in Golden?"
p807
sa(dp808
g2
S'http://www.reuters.com/article/2014/02/23/indonesia-smelters-idUSL3N0LH33D20140223'
p809
sg4
S'20140223\xc2\xa04:00PM UTC'
p810
sg6
S'Indonesian copper smelters at risk as mining policy misfires'
p811
sa(dp812
g2
S'http://www.reuters.com/article/2014/02/23/lg-elec-mobilephone-idUSL3N0LM1N020140223'
p813
sg4
S'20140223\xc2\xa04:00PM UTC'
p814
sg6
S'LG Electronics aims for smartphone growth double the market rate'
p815
sa(dp816
g2
S'http://www.reuters.com/article/2014/02/23/hedgefunds-commodities-cftc-idUSL2N0LQ2N120140223'
p817
sg4
S'20140223\xc2\xa04:00PM UTC'
p818
sg6
S'RPT-Hedge funds place largest bullish bets on commodities since 2011'
p819
sa(dp820
g2
S'http://www.reuters.com/article/2014/02/23/australia-military-planes-idUSL1N0LS0DL20140223'
p821
sg4
S'20140223\xc2\xa03:53PM UTC'
p822
sg6
S'RPT-UPDATE 3-Australia to buy eight Boeing Poseidon spy planes for $3.6 bln'
p823
sa(dp824
g2
S'http://www.reuters.com/article/2014/02/23/g20-australia-tax-idUSL1N0LS0DF20140223'
p825
sg4
S'20140223\xc2\xa03:51PM UTC'
p826
sg6
S'RPT-G20 agrees on push to close tax loopholes, make multinationals pay'
p827
sa(dp828
g2
S'http://www.reuters.com/article/2014/02/23/us-ukraine-crisis-usa-idUSBREA1M0PL20140223'
p829
sg4
S'20140223\xc2\xa03:49PM UTC'
p830
sg6
S'U.S. wants Ukraine to remain unified, cautions Russia'
p831
sa(dp832
g2
S'http://www.reuters.com/article/2014/02/23/g20-australia-idUSL3N0LS0IP20140223'
p833
sg4
S'20140223\xc2\xa03:49PM UTC'
p834
sg6
S'RPT-WRAPUP 5-G20 aspires to faster economic growth, roadmap sketchy'
p835
sa(dp836
g2
S'http://www.reuters.com/article/2014/02/23/us-usa-newyork-carbonmonoxide-idUSBREA1M04I20140223'
p837
sg4
S'20140223\xc2\xa03:44PM UTC'
p838
sg6
S'Faulty pipe led to deadly carbon monoxide leak in NY: official'
p839
sa(dp840
g2
S'http://www.reuters.com/article/2014/02/23/usa-newyork-carbonmonoxide-idUSL1N0LS0B520140223'
p841
sg4
S'20140223\xc2\xa03:43PM UTC'
p842
sg6
S'UPDATE 1-Faulty pipe led to deadly carbon monoxide leak in NY -official'
p843
sa(dp844
g2
S'http://www.reuters.com/article/2014/02/23/legalseafoods-statmnt-idUSnPnNYtWdyB+169+PRN20140223'
p845
sg4
S'20140223\xc2\xa03:39PM UTC'
p846
sg6
S'UPDATE: Legal Sea Foods CEO Calls for Stronger CO Regulation'
p847
sa(dp848
g2
S'http://www.reuters.com/article/2014/02/23/us-olympics-idUSBREA1G0GL20140223'
p849
sg4
S'20140223\xc2\xa03:25PM UTC'
p850
sg6
S'Russia tops medals table as Games end amid doping scandals'
p851
sa(dp852
g2
S'http://www.reuters.com/article/2014/02/23/olympics-idUSL6N0LS04N20140223'
p853
sg4
S'20140223\xc2\xa03:22PM UTC'
p854
sg6
S'WRAPUP 5-Olympics-Russia tops medals table as Games end amid doping scandals'
p855
sa(dp856
g2
S'http://www.reuters.com/article/2014/02/23/comcast-netflix-idUSL1N0LS0CG20140223'
p857
sg4
S'20140223\xc2\xa03:14PM UTC'
p858
sg6
S'RPT-Comcast customers to see improved Netflix speeds'
p859
sa(dp860
g2
S'http://www.reuters.com/article/2014/02/23/us-ukraine-crisis-russia-ambassador-idUSBREA1M11D20140223'
p861
sg4
S'20140223\xc2\xa03:13PM UTC'
p862
sg6
S'Russia recalls ambassador in Ukraine for consultations'
p863
sa(dp864
g2
S'http://www.reuters.com/article/2014/02/23/us-mexico-drugs-usa-idUSBREA1M0WC20140223'
p865
sg4
S'20140223\xc2\xa03:12PM UTC'
p866
sg6
S'U.S. to seek extradition of Mexican drug kingpin Guzman'
p867
sa(dp868
g2
S'http://www.reuters.com/article/2014/02/23/us-mexico-drugs-scene-idUSBREA1M11920140223'
p869
sg4
S'20140223\xc2\xa03:12PM UTC'
p870
sg6
S"American retirees and cheap digs: drab end to Mexico kingpin's reign"
p871
sa(dp872
g2
S'http://www.reuters.com/article/2014/02/23/idUS312208892320140223'
p873
sg4
S'20140223\xc2\xa03:10PM UTC'
p874
sg6
S'Felix Salmon smackdown watch, pensions edition'
p875
sa(dp876
g2
S'http://www.reuters.com/article/2014/02/23/pa-comcast-corporation-idUSnBw235193a+100+BSW20140223'
p877
sg4
S'20140223\xc2\xa03:07PM UTC'
p878
sg6
S'Comcast and Netflix Team Up to Provide Customers Excellent User Experience'
p879
sa(dp880
g2
S'http://www.reuters.com/article/2014/02/23/us-syria-crisis-qaeda-commander-idUSBREA1M0W220140223'
p881
sg4
S'20140223\xc2\xa03:04PM UTC'
p882
sg6
S'Syrian rebel, friend of al Qaeda leader, killed by rival Islamists'
p883
sa(dp884
g2
S'http://www.reuters.com/article/2014/02/23/us-motorracing-daytona-rain-idUSBREA1M10O20140223'
p885
sg4
S'20140223\xc2\xa03:03PM UTC'
p886
sg6
S'Daytona 500 in rain delay'
p887
sa(dp888
g2
S'http://www.reuters.com/article/2014/02/23/idUSnMKWFPtWqa+1f4+MKW20140223'
p889
sg4
S'20140223\xc2\xa03:00PM UTC'
p890
sg6
S'REMINDER/Media Advisory: Public Safety Canada'
p891
sa(dp892
g2
S'http://www.reuters.com/article/2014/02/23/idUSnCCN9q3dCg+1c2+MKW20140223'
p893
sg4
S'20140223\xc2\xa03:00PM UTC'
p894
sg6
S'REMINDER/Media Advisory: Public Safety Canada'
p895
sa(dp896
g2
S'http://www.reuters.com/article/2014/02/23/skytv-earnings-idUSW9N0IO02720140223'
p897
sg4
S'20140223\xc2\xa02:56PM UTC'
p898
sg6
S"New Zealand's Sky TV H1  profit up strongly"
p899
sa(dp900
g2
S'http://www.reuters.com/article/2014/02/23/us-usa-crime-missouri-girl-idUSBREA1M10C20140223'
p901
sg4
S'20140223\xc2\xa02:53PM UTC'
p902
sg6
S'Thousands remember slain Missouri girl with porch lights, vigil'
p903
sa(dp904
g2
S'http://www.reuters.com/article/2014/02/23/chorus-earnings-idUSL3N0LQ1J020140223'
p905
sg4
S'20140223\xc2\xa02:45PM UTC'
p906
sg6
S"New Zealand's Chorus H1 year profit falls, no dividend"
p907
sa(dp908
g2
S'http://www.reuters.com/article/2014/02/23/bkc-michiganst-michigan-writethru-idUSMTZEA2NGRAT0020140223'
p909
sg4
S'20140223\xc2\xa02:44PM UTC'
p910
sg6
S'Michigan surges past Michigan State'
p911
sa(dp912
g2
S'http://www.reuters.com/article/2014/02/23/boeing-union-stlouis-idUSnPnCGtW1wv+168+PRN20140223'
p913
sg4
S'20140223\xc2\xa02:30PM UTC'
p914
sg6
S'Boeing Machinists Union in St. Louis Approves Contract Extension'
p915
sa(dp916
g2
S'http://www.reuters.com/article/2014/02/23/us-ukraine-crisis-russia-turchinov-idUSBREA1M0YB20140223'
p917
sg4
S'20140223\xc2\xa02:26PM UTC'
p918
sg6
S'Ukraine charts course to Europe, wants better Russia ties'
p919
sa(dp920
g2
S'http://www.reuters.com/article/2014/02/23/boxoffice-idUSL1N0LS07Q20140223'
p921
sg4
S'20140223\xc2\xa02:26PM UTC'
p922
sg6
S"UPDATE 1-'Lego Movie' keeps on box-office perch with $31.5 mln weekend take"
p923
sa(dp924
g2
S'http://www.reuters.com/article/2014/02/23/ukraine-crisis-russia-turchinov-idUSL6N0LS0WG20140223'
p925
sg4
S'20140223\xc2\xa02:24PM UTC'
p926
sg6
S'UPDATE 1-Ukraine charts course to Europe, wants better Russia ties'
p927
sa(dp928
g2
S'http://www.reuters.com/article/2014/02/23/us-libya-usa-rice-idUSBREA1M0ZJ20140223'
p929
sg4
S'20140223\xc2\xa02:23PM UTC'
p930
sg6
S'Obama adviser Rice has no regrets on 2012 Benghazi comments'
p931
sa(dp932
g2
S'http://www.reuters.com/article/2014/02/23/us-usa-bush-veterans-idUSBREA1M0ZF20140223'
p933
sg4
S'20140223\xc2\xa02:22PM UTC'
p934
sg6
S'George W. Bush launches program to help veterans transition from war'
p935
sa(dp936
g2
S'http://www.reuters.com/article/2014/02/23/us-olympics-icehockey-men-toews-idUSBREA1M0ZC20140223'
p937
sg4
S'20140223\xc2\xa02:19PM UTC'
p938
sg6
S"Canada's Toews emerges from Crosby's shadow"
p939
sa(dp940
g2
S'http://www.reuters.com/article/2014/02/23/us-golf-pga-matchplay-semis-idUSBREA1M0Z520140223'
p941
sg4
S'20140223\xc2\xa02:16PM UTC'
p942
sg6
S'Day to face Dubuisson in Match Play final'
p943
sa(dp944
g2
S'http://www.reuters.com/article/2014/02/23/us-iran-trade-idUSBREA1M0Z220140223'
p945
sg4
S'20140223\xc2\xa02:14PM UTC'
p946
sg6
S"Iran's non-oil exports recovering under Rouhani, business says"
p947
sa(dp948
g2
S'http://www.reuters.com/article/2014/02/23/olympics-icehockey-men-toews-idUSL1N0LS02T20140223'
p949
sg4
S'20140223\xc2\xa02:12PM UTC'
p950
sg6
S"Olympics-Ice hockey-Canada's Toews emerges from Crosby's shadow"
p951
sa(dp952
g2
S'http://www.reuters.com/article/2014/02/23/us-global-economy-idUSBREA1M0YX20140223'
p953
sg4
S'20140223\xc2\xa02:11PM UTC'
p954
sg6
S'Euro zone inflation to offer clues on ECB action'
p955
sa(dp956
g2
S'http://www.reuters.com/article/2014/02/23/us-britain-charts-idUSBREA1M0YU20140223'
p957
sg4
S'20140223\xc2\xa02:10PM UTC'
p958
sg6
S'Boosted by BRIT awards, Sam Smith grabs UK chart top spot'
p959
sa(dp960
g2
S'http://www.reuters.com/article/2014/02/23/mexico-fdi-idUSL1N0LS0A220140223'
p961
sg4
S'20140223\xc2\xa02:08PM UTC'
p962
sg6
S'Mexico saw record $35 bln in foreign direct investment in 2013'
p963
sa(dp964
g2
S'http://www.reuters.com/article/2014/02/23/us-usa-governors-nationalguard-idUSBREA1M0XJ20140223'
p965
sg4
S'20140223\xc2\xa02:08PM UTC'
p966
sg6
S'U.S. governors plan to urge Obama not to downsize National Guard'
p967
sa(dp968
g2
S'http://www.reuters.com/article/2014/02/23/us-usa-marijuana-governors-idUSBREA1M0YM20140223'
p969
sg4
S'20140223\xc2\xa02:06PM UTC'
p970
sg6
S'Governors say legalizing marijuana is a step too far'
p971
sa(dp972
g2
S'http://www.reuters.com/article/2014/02/23/britain-charts-idUSL6N0LS0RR20140223'
p973
sg4
S'20140223\xc2\xa02:00PM UTC'
p974
sg6
S'Boosted by BRIT awards, Sam Smith grabs UK chart top spot'
p975
sa(dp976
g2
S'http://www.reuters.com/article/2014/02/23/global-economy-idUSL6N0LP3QZ20140223'
p977
sg4
S'20140223\xc2\xa02:00PM UTC'
p978
sg6
S'GLOBAL ECONOMY WEEKAHEAD-Euro zone inflation to offer clues on ECB action'
p979
sa(dp980
g2
S'http://www.reuters.com/article/2014/02/23/usa-marijuana-governors-idUSL1N0LS06220140223'
p981
sg4
S'20140223\xc2\xa01:57PM UTC'
p982
sg6
S'US governors say legalizing marijuana is a step too far'
p983
sa(dp984
g2
S'http://www.reuters.com/article/2014/02/23/us-soccer-england-idUSBREA1M0YH20140223'
p985
sg4
S'20140223\xc2\xa01:56PM UTC'
p986
sg6
S'Red-hot Sturridge keeps Liverpool title bid alive'
p987
sa(dp988
g2
S'http://www.reuters.com/article/2014/02/23/us-facebook-whatsapp-idUSBREA1L15220140223'
p989
sg4
S'20140223\xc2\xa01:52PM UTC'
p990
sg6
S"Network router caused WhatsApp's 'biggest' outage"
p991
sa(dp992
g2
S'http://www.reuters.com/article/2014/02/23/facebook-whatsapp-idUSL1N0LS09M20140223'
p993
sg4
S'20140223\xc2\xa01:50PM UTC'
p994
sg6
S"Network router caused WhatsApp's 'biggest' outage"
p995
sa(dp996
g2
S'http://www.reuters.com/article/2014/02/23/us-olympics-doping-backstrom-idUSBREA1M0N620140223'
p997
sg4
S'20140223\xc2\xa01:44PM UTC'
p998
sg6
S'Ice hockey officials slam IOC over Backstrom doping test'
p999
sa(dp1000
g2
S'http://www.reuters.com/article/2014/02/23/olympics-ceremony-idUSL6N0LS0QX20140223'
p1001
sg4
S'20140223\xc2\xa01:44PM UTC'
p1002
sg6
S'UPDATE 1-Olympics-Russia lightens up with softer image at closing ceremony'
p1003
sa(dp1004
g2
S'http://www.reuters.com/article/2014/02/23/us-climate-cold-idUSBREA1M0XT20140223'
p1005
sg4
S'20140223\xc2\xa01:43PM UTC'
p1006
sg6
S"Global warming won't cut winter deaths as hoped: UK study"
p1007
sa(dp1008
g2
S'http://www.reuters.com/article/2014/02/23/olympics-doping-backstrom-idUSL6N0LS0NX20140223'
p1009
sg4
S'20140223\xc2\xa01:43PM UTC'
p1010
sg6
S'UPDATE 3-Olympics-Ice hockey officials slam IOC over Backstrom doping test'
p1011
sa(dp1012
g2
S'http://www.reuters.com/article/2014/02/23/climate-cold-idUSL6N0LP4A820140223'
p1013
sg4
S'20140223\xc2\xa01:41PM UTC'
p1014
sg6
S"Global warming won't cut winter deaths as hoped-UK study"
p1015
sa(dp1016
g2
S'http://www.reuters.com/article/2014/02/23/us-mobile-world-chips-idUSBREA1M08F20140223'
p1017
sg4
S'20140223\xc2\xa01:38PM UTC'
p1018
sg6
S"Chipmakers dream of China as they head to Spain's smartphone gala"
p1019
sa(dp1020
g2
S'http://www.reuters.com/article/2014/02/23/iran-trade-idUSL6N0LS0GS20140223'
p1021
sg4
S'20140223\xc2\xa01:36PM UTC'
p1022
sg6
S"Iran's non-oil exports recovering under Rouhani, business says"
p1023
sa(dp1024
g2
S'http://www.reuters.com/article/2014/02/23/us-ukraine-crisis-russia-usa-idUSBREA1M0VS20140223'
p1025
sg4
S'20140223\xc2\xa01:21PM UTC'
p1026
sg6
S'Russia says Ukraine opposition has flouted deal and seized power'
p1027
sa(dp1028
g2
S'http://www.reuters.com/article/2014/02/23/comcast-netflix-idUSL1N0LS07T20140223'
p1029
sg4
S'20140223\xc2\xa01:20PM UTC'
p1030
sg6
S'Comcast customers to see improved Netflix speeds'
p1031
sa(dp1032
g2
S'http://www.reuters.com/article/2014/02/23/us-olympics-ceremony-closed-idUSBREA1M0WL20140223'
p1033
sg4
S'20140223\xc2\xa01:14PM UTC'
p1034
sg6
S'Bach brings Sochi Games to a close'
p1035
sa(dp1036
g2
S'http://www.reuters.com/article/2014/02/23/mobile-world-alcatel-intel-idUSL6N0LS0UE20140223'
p1037
sg4
S'20140223\xc2\xa01:11PM UTC'
p1038
sg6
S'Alcatel vows to stay out of telecom gear price war, signs Intel deal'
p1039
sa(dp1040
g2
S'http://www.reuters.com/article/2014/02/23/olympics-ceremony-closed-idUSL6N0LS06O20140223'
p1041
sg4
S'20140223\xc2\xa01:10PM UTC'
p1042
sg6
S'Olympics-Bach brings Sochi Games to a close'
p1043
sa(dp1044
g2
S'http://www.reuters.com/article/2014/02/23/nj-am-best-idUSnBw235195a+100+BSW20140223'
p1045
sg4
S'20140223\xc2\xa01:09PM UTC'
p1046
sg6
S'A.M. Best Announces the Availability of 2013 Annual Financial Data through BestLink'
p1047
sa(dp1048
g2
S'http://www.reuters.com/article/2014/02/23/idUSnGNX23lN42+1c4+GNW20140223'
p1049
sg4
S'20140223\xc2\xa01:08PM UTC'
p1050
sg6
S'Ericsson Radio Dot System chosen by SoftBank Mobile for indoor performance boost trial'
p1051
sa(dp1052
g2
S'http://www.reuters.com/article/2014/02/23/us-climate-volcanoes-idUSBREA1M0W920140223'
p1053
sg4
S'20140223\xc2\xa01:06PM UTC'
p1054
sg6
S'Sun-dimming volcanoes partly explain global warming hiatus-study'
p1055
sa(dp1056
g2
S'http://www.reuters.com/article/2014/02/23/us-estonia-prime-minister-idUSBREA1M0R820140223'
p1057
sg4
S'20140223\xc2\xa01:02PM UTC'
p1058
sg6
S"Estonia's PM to resign as parties prepare for 2015 vote"
p1059
sa(dp1060
g2
S'http://www.reuters.com/article/2014/02/23/idUSnHUGdxkS+71+ONE20140223'
p1061
sg4
S'20140223\xc2\xa01:01PM UTC'
p1062
sg6
S'Ericsson Radio Dot System chosen by Softbank Mobile for indoor performance boost trial'
p1063
sa(dp1064
g2
S'http://www.reuters.com/article/2014/02/23/pa-comcast-netflix-idUSnPnSFtVxt0+168+PRN20140223'
p1065
sg4
S'20140223\xc2\xa01:00PM UTC'
p1066
sg6
S'Comcast And Netflix Team Up To Provide Customers Excellent User Experience'
p1067
sa(dp1068
g2
S'http://www.reuters.com/article/2014/02/23/ca-opera-max-app-idUSnPnLAtTLt0+16c+PRN20140223'
p1069
sg4
S'20140223\xc2\xa01:00PM UTC'
p1070
sg6
S'Introducing Opera Max - a data-savings app to make your data plan feel unlimited'
p1071
sa(dp1072
g2
S'http://www.reuters.com/article/2014/02/23/fl-commonwell-health-idUSnPnDCtT9t0+168+PRN20140223'
p1073
sg4
S'20140223\xc2\xa01:00PM UTC'
p1074
sg6
S'CommonWell Health Alliance Expands and Live with Interoperability Service Offering'
p1075
sa(dp1076
g2
S'http://www.reuters.com/article/2014/02/23/nc-lenovo-ncta-idUSnBw235077a+100+BSW20140223'
p1077
sg4
S'20140223\xc2\xa01:00PM UTC'
p1078
sg6
S'Lenovo Premieres New Suite of Premium Apps for Smartphones and Tablets<0992.HK>'
p1079
sa(dp1080
g2
S'http://www.reuters.com/article/2014/02/23/nc-lenovo-ncta-idUSnBw235074a+100+BSW20140223'
p1081
sg4
S'20140223\xc2\xa01:00PM UTC'
p1082
sg6
S'Lenovo Refines Multimode Tablet with New YOGA Tablet 10 HD+<0992.HK>'
p1083
sa(dp1084
g2
S'http://www.reuters.com/article/2014/02/23/climate-volcanoes-idUSL6N0LQ2K620140223'
p1085
sg4
S'20140223\xc2\xa01:00PM UTC'
p1086
sg6
S'Sun-dimming volcanoes partly explain global warming hiatus-study'
p1087
sa(dp1088
g2
S'http://www.reuters.com/article/2014/02/23/us-olympics-icehockey-men-crosby-idUSBREA1M0VK20140223'
p1089
sg4
S'20140223\xc2\xa012:56PM UTC'
p1090
sg6
S"Ice hockey: Canada's Crosby saves best for last in Sochi"
p1091
sa(dp1092
g2
S'http://www.reuters.com/article/2014/02/23/us-ukraine-crisis-eu-idUSBREA1M0G720140223'
p1093
sg4
S'20140223\xc2\xa012:52PM UTC'
p1094
sg6
S"EU's Ashton to travel to Ukraine on Monday, will discuss economy"
p1095
sa(dp1096
g2
S'http://www.reuters.com/article/2014/02/23/us-israel-prison-idUSBREA1M0US20140223'
p1097
sg4
S'20140223\xc2\xa012:50PM UTC'
p1098
sg6
S'American-Israeli prisoner killed in jail battle with police'
p1099
sa(dp1100
g2
S'http://www.reuters.com/article/2014/02/23/ukraine-crisis-eu-idUSL6N0LS0TS20140223'
p1101
sg4
S'20140223\xc2\xa012:47PM UTC'
p1102
sg6
S"EU's Ashton to travel to Ukraine on Monday, will discuss economy"
p1103
sa(dp1104
g2
S'http://www.reuters.com/article/2014/02/23/us-iraq-violence-idUSBREA1M0UP20140223'
p1105
sg4
S'20140223\xc2\xa012:44PM UTC'
p1106
sg6
S'Seventeen dead in bombings and shootings in Iraq'
p1107
sa(dp1108
g2
S'http://www.reuters.com/article/2014/02/23/ga-greenway-idUSnBw235191a+100+BSW20140223'
p1109
sg4
S'20140223\xc2\xa012:43PM UTC'
p1110
sg6
S'Greenway Shows the Value of Patient Data Beyond the EHR at HIMSS14'
p1111
sa(dp1112
g2
S'http://www.reuters.com/article/2014/02/23/olympics-icehockey-men-crosby-idUSL1N0LS05J20140223'
p1113
sg4
S'20140223\xc2\xa012:37PM UTC'
p1114
sg6
S"Olympics-Ice hockey-Canada's Crosby saves best for last in Sochi"
p1115
sa(dp1116
g2
S'http://www.reuters.com/article/2014/02/23/us-pakistan-taliban-idUSBREA1M0U620140223'
p1117
sg4
S'20140223\xc2\xa012:32PM UTC'
p1118
sg6
S'Pakistan jets pound militant hideouts, killing 38'
p1119
sa(dp1120
g2
S'http://www.reuters.com/article/2014/02/23/boxoffice-chart-idUSL1N0LS07O20140223'
p1121
sg4
S'20140223\xc2\xa012:30PM UTC'
p1122
sg6
S'The top films at the North American box office'
p1123
sa(dp1124
g2
S'http://www.reuters.com/article/2014/02/23/legal-sea-foods-stmnt-idUSnPnNYtVwrr+168+PRN20140223'
p1125
sg4
S'20140223\xc2\xa012:19PM UTC'
p1126
sg6
S'Roger Berkowitz, President & CEO of Legal Sea Foods Extends His Deepest Condolences to the Victims of the Carbon Monoxide Poisoning at Walt Whitman Mall'
p1127
sa(dp1128
g2
S'http://www.reuters.com/article/2014/02/23/us-oscars-fashion-idUSBREA1M0GH20140223'
p1129
sg4
S'20140223\xc2\xa012:16PM UTC'
p1130
sg6
S'Oscars red carpet: a runway of sharp elbows and high fashion stakes'
p1131
sa(dp1132
g2
S'http://www.reuters.com/article/2014/02/23/boxoffice-idUSL1N0LS06T20140223'
p1133
sg4
S'20140223\xc2\xa012:13PM UTC'
p1134
sg6
S"'Lego Movie' builds on box-office perch with $31.5 mln weekend take"
p1135
sa(dp1136
g2
S'http://www.reuters.com/article/2014/02/23/anomaly-mirinda-idUSnPnNYtVrrj+168+PRN20140223'
p1137
sg4
S'20140223\xc2\xa012:12PM UTC'
p1138
sg6
S'Anomaly Shanghai Partners With Mirinda'
p1139
sa(dp1140
g2
S'http://www.reuters.com/article/2014/02/23/idUSnGNX98ZxhB+1c9+GNW20140223'
p1141
sg4
S'20140223\xc2\xa012:09PM UTC'
p1142
sg6
S'Vodafone takes lead with Ericsson Radio Dot System'
p1143
sa(dp1144
g2
S'http://www.reuters.com/article/2014/02/23/us-ukraine-crisis-putin-idUSBREA1M0T820140223'
p1145
sg4
S'20140223\xc2\xa012:05PM UTC'
p1146
sg6
S"Russia's Putin faces tough choices over Ukraine"
p1147
sa(dp1148
g2
S'http://www.reuters.com/article/2014/02/23/usa-newyork-carbonmonoxide-idUSL1N0LS05F20140223'
p1149
sg4
S'20140223\xc2\xa012:04PM UTC'
p1150
sg6
S'Police probe source of deadly carbon monoxide leak at New York mall'
p1151
sa(dp1152
g2
S'http://www.reuters.com/article/2014/02/23/idUSnMKWdyv4Na+1c2+MKW20140223'
p1153
sg4
S'20140223\xc2\xa012:00PM UTC'
p1154
sg6
S'Canada Partners With Coady International Institute to Strengthen Leadership in the Developing World'
p1155
sa(dp1156
g2
S'http://www.reuters.com/article/2014/02/23/idUSnHUGdxkR+71+ONE20140223'
p1157
sg4
S'20140223\xc2\xa012:00PM UTC'
p1158
sg6
S'Vodafone takes lead with Ericsson Radio Dot System'
p1159
sa(dp1160
g2
S'http://www.reuters.com/article/2014/02/23/idUSnMKWjd1PJa+1c6+MKW20140223'
p1161
sg4
S'20140223\xc2\xa012:00PM UTC'
p1162
sg6
S'HP Unveils 360-Degree Convertible PC'
p1163
sa(dp1164
g2
S'http://www.reuters.com/article/2014/02/23/idUSnMKW91QyVa+1ca+MKW20140223'
p1165
sg4
S'20140223\xc2\xa012:00PM UTC'
p1166
sg6
S'Glympse Partners With ChatON to Provide Location Technology to 180 Million Users Around the Globe'
p1167
sa(dp1168
g2
S'http://www.reuters.com/article/2014/02/23/idUSnMKWc1Dgsa+1c8+MKW20140223'
p1169
sg4
S'20140223\xc2\xa012:00PM UTC'
p1170
sg6
S'HP Builds on Leading Business Tablet Portfolio With New, Ultra-Mobile ElitePad and ProPad'
p1171
sa(dp1172
g2
S'http://www.reuters.com/article/2014/02/23/idUSnCCN4jb8SC+1c3+MKW20140223'
p1173
sg4
S'20140223\xc2\xa012:00PM UTC'
p1174
sg6
S'Canada Partners With Coady International Institute to Strengthen Leadership in the Developing World'
p1175
sa(dp1176
g2
S'http://www.reuters.com/article/2014/02/23/pg-idUSnBw235186a+100+BSW20140223'
p1177
sg4
S'20140223\xc2\xa011:58AM UTC'
p1178
sg6
S'Canadian Olympians and P&G; sponsored athletes celebrate with their families at Canada Olympic House in Sochi'
p1179
sa(dp1180
g2
S'http://www.reuters.com/article/2014/02/23/us-tennis-daviscup-berdych-idUSBREA1M0T020140223'
p1181
sg4
S'20140223\xc2\xa011:57AM UTC'
p1182
sg6
S'Czech Davis Cup hero Berdych calls for two-yearly contest'
p1183
sa(dp1184
g2
S'http://www.reuters.com/article/2014/02/23/pictures-report-idUSRTX19C7D'
p1185
sg4
S'20140223\xc2\xa011:45AM UTC'
p1186
sg6
S'Yanukovich abandons Kiev compound'
p1187
sa(dp1188
g2
S'http://www.reuters.com/article/2014/02/23/us-olympics-ceremony-joke-idUSBREA1M0S720140223'
p1189
sg4
S'20140223\xc2\xa011:38AM UTC'
p1190
sg6
S'Russians laugh at their own Olympic ring hitch'
p1191
sa(dp1192
g2
S'http://www.reuters.com/article/2014/02/23/olympics-ceremony-joke-idUSL6N0LS0QR20140223'
p1193
sg4
S'20140223\xc2\xa011:34AM UTC'
p1194
sg6
S'Olympics-Russians laugh at their own Olympic ring hitch'
p1195
sa(dp1196
g2
S'http://www.reuters.com/article/2014/02/23/us-olympics-icehockey-sweden-idUSBREA1M0RW20140223'
p1197
sg4
S'20140223\xc2\xa011:33AM UTC'
p1198
sg6
S"Ice hockey: Backstrom's absence big blow for Sweden"
p1199
sa(dp1200
g2
S'http://www.reuters.com/article/2014/02/23/us-ukraine-crisis-shrine-idUSBREA1M0RR20140223'
p1201
sg4
S'20140223\xc2\xa011:31AM UTC'
p1202
sg6
S'Ukrainians turn Kiev street into shrine to their dead'
p1203
sa(dp1204
g2
S'http://www.reuters.com/article/2014/02/23/orange-idUSnBw235043a+100+BSW20140223'
p1205
sg4
S'20140223\xc2\xa011:30AM UTC'
p1206
sg6
S'Orange Strengthens and Broadens Its Successful Own-Brand Device Portfolio with the New Orange Gova and Reyo Smartphones'
p1207
sa(dp1208
g2
S'http://www.reuters.com/article/2014/02/23/us-britain-scotland-independence-idUSBREA1M0RI20140223'
p1209
sg4
S'20140223\xc2\xa011:29AM UTC'
p1210
sg6
S'Polls show Scots becoming more skeptical about independence'
p1211
sa(dp1212
g2
S'http://www.reuters.com/article/2014/02/23/olympics-icehockey-sweden-idUSL6N0LS0QA20140223'
p1213
sg4
S'20140223\xc2\xa011:28AM UTC'
p1214
sg6
S"Olympics-Ice hockey-Backstrom's absence big blow for Sweden"
p1215
sa(dp1216
g2
S'http://www.reuters.com/article/2014/02/23/us-lightsquared-bankruptcy-analysis-idUSBREA1M0R320140223'
p1217
sg4
S'20140223\xc2\xa011:27AM UTC'
p1218
sg6
S'Clock ticks on Ergen, Falcone fight for LightSquared'
p1219
sa(dp1220
g2
S'http://www.reuters.com/article/2014/02/23/britain-scotland-independence-idUSL6N0LS0PT20140223'
p1221
sg4
S'20140223\xc2\xa011:25AM UTC'
p1222
sg6
S'Polls show Scots becoming more sceptical about independence'
p1223
sa(dp1224
g2
S'http://www.reuters.com/article/2014/02/23/us-britain-rsa-idUSBREA1M0JN20140223'
p1225
sg4
S'20140223\xc2\xa011:24AM UTC'
p1226
sg6
S'British insurer RSA says considering a cash call'
p1227
sa(dp1228
g2
S'http://www.reuters.com/article/2014/02/23/us-tennis-men-dubai-idUSBREA1M0Q520140223'
p1229
sg4
S'20140223\xc2\xa011:23AM UTC'
p1230
sg6
S'Djokovic says Becker hired to improve mental toughness'
p1231
sa(dp1232
g2
S'http://www.reuters.com/article/2014/02/23/britain-rsa-idUSL6N0LS0PA20140223'
p1233
sg4
S'20140223\xc2\xa011:22AM UTC'
p1234
sg6
S'UPDATE 1-British insurer RSA says considering a cash call'
p1235
sa(dp1236
g2
S'http://www.reuters.com/article/2014/02/23/us-olympics-icehockey-men-price-idUSBREA1M0QP20140223'
p1237
sg4
S'20140223\xc2\xa011:21AM UTC'
p1238
sg6
S'Ice hockey: Price was right for Canada in Sochi'
p1239
sa(dp1240
g2
S'http://www.reuters.com/article/2014/02/23/olympics-ceremony-idUSL6N0LS0Q420140223'
p1241
sg4
S'20140223\xc2\xa011:19AM UTC'
p1242
sg6
S'Olympics-Closing ceremony paints hosts Russia in softer colours'
p1243
sa(dp1244
g2
S'http://www.reuters.com/article/2014/02/23/olympics-icehockey-men-price-idUSL1N0LS05620140223'
p1245
sg4
S'20140223\xc2\xa011:16AM UTC'
p1246
sg6
S'Olympics-Ice hockey-Price was right for Canada in Sochi'
p1247
sa(dp1248
g2
S'http://www.reuters.com/article/2014/02/23/us-olympics-ice-hockey-canada-sweden-idUSBREA1M0K420140223'
p1249
sg4
S'20140223\xc2\xa011:14AM UTC'
p1250
sg6
S'Ice Hockey: Canada take gold, Backstrom fails dope test'
p1251
sa(dp1252
g2
S'http://www.reuters.com/article/2014/02/23/olympics-icehockey-men-idUSL6N0LS0L720140223'
p1253
sg4
S'20140223\xc2\xa011:12AM UTC'
p1254
sg6
S'UPDATE 3-Olympics-Ice Hockey-Canada take gold, Backstrom fails dope test'
p1255
sa(dp1256
g2
S'http://www.reuters.com/article/2014/02/23/us-soccer-euro-idUSBREA1M0GQ20140223'
p1257
sg4
S'20140223\xc2\xa011:07AM UTC'
p1258
sg6
S'Spain to return to scene of Euro 2012 triumph'
p1259
sa(dp1260
g2
S'http://www.reuters.com/article/2014/02/23/us-syria-crisis-dissident-idUSBREA1M0O420140223'
p1261
sg4
S'20140223\xc2\xa011:05AM UTC'
p1262
sg6
S'Activists say Syrian security forces abduct prominent dissident'
p1263
sa(dp1264
g2
S'http://www.reuters.com/article/2014/02/23/us-france-centralafrica-insight-idUSBREA1M0PW20140223'
p1265
sg4
S'20140223\xc2\xa011:03AM UTC'
p1266
sg6
S'France risks long stay after misjudging Central African Republic'
p1267
sa(dp1268
g2
S'http://www.reuters.com/article/2014/02/23/syria-crisis-dissident-idUSL6N0LS0OF20140223'
p1269
sg4
S'20140223\xc2\xa011:02AM UTC'
p1270
sg6
S'UPDATE 1-Activists say Syrian security forces abduct prominent dissident'
p1271
sa(dp1272
g2
S'http://www.reuters.com/article/2014/02/23/good-tech-partners-idUSnPnSFtVqp8+168+PRN20140223'
p1273
sg4
S'20140223\xc2\xa011:00AM UTC'
p1274
sg6
S'Good Technology Democratizes Secure Mobility with Broader Portfolio and New Partnerships'
p1275
sa(dp1276
g2
S'http://www.reuters.com/article/2014/02/23/goodtechnology-acqrs-idUSnPnSFtVpp8+168+PRN20140223'
p1277
sg4
S'20140223\xc2\xa011:00AM UTC'
p1278
sg6
S'Good Technology to Acquire BoxTone'
p1279
sa(dp1280
g2
S'http://www.reuters.com/article/2014/02/23/mediatek-new-product-idUSnPnHKtTMp8+16c+PRN20140223'
p1281
sg4
S'20140223\xc2\xa011:00AM UTC'
p1282
sg6
S'MediaTek Drives Global LTE Adoption with New ALCATEL ONETOUCH POP S7<2454.TW><2618.HK>'
p1283
sa(dp1284
g2
S'http://www.reuters.com/article/2014/02/23/mediatek-launch-mwc-idUSnPnHKtlKp8+164+PRN20140223'
p1285
sg4
S'20140223\xc2\xa011:00AM UTC'
p1286
sg6
S'MediaTek Launches MT6732 - a 64-bit LTE SOC to Spur the New "Super-mid Market"<2454.TW>'
p1287
sa(dp1288
g2
S'http://www.reuters.com/article/2014/02/23/idUSnMKW6vR8Ca+1ca+MKW20140223'
p1289
sg4
S'20140223\xc2\xa011:00AM UTC'
p1290
sg6
S'Tizen App Challenge Announces Winners of $4+ Million in Prizes'
p1291
sa(dp1292
g2
S'http://www.reuters.com/article/2014/02/23/egis-technology-idUSnBw235036a+100+BSW20140223'
p1293
sg4
S'20140223\xc2\xa011:00AM UTC'
p1294
sg6
S'EgisTec Introduces New Swipe and Area Fingerprint Sensors at MWC 2014'
p1295
sa(dp1296
g2
S'http://www.reuters.com/article/2014/02/23/us-ivorycoast-attack-idUSBREA1M0PO20140223'
p1297
sg4
S'20140223\xc2\xa010:56AM UTC'
p1298
sg6
S'Suspected Liberian gunmen attack Ivorian border town'
p1299
sa(dp1300
g2
S'http://www.reuters.com/article/2014/02/23/germany-energy-plants-idUSL6N0LS0OM20140223'
p1301
sg4
S'20140223\xc2\xa010:55AM UTC'
p1302
sg6
S'UPDATE 1-German utilities should pool ailing hard coal plants, union says'
p1303
sa(dp1304
g2
S'http://www.reuters.com/article/2014/02/23/syria-crisis-dissident-idUSL6N0LS0MQ20140223'
p1305
sg4
S'20140223\xc2\xa010:41AM UTC'
p1306
sg6
S'Activists say Syrian security forces abduct prominent dissident'
p1307
sa(dp1308
g2
S'http://www.reuters.com/article/2014/02/23/us-zimbabwe-mugabe-idUSBREA1M0P420140223'
p1309
sg4
S'20140223\xc2\xa010:38AM UTC'
p1310
sg6
S"At 90, Zimbabwe's Mugabe says has energy of 9-year-old"
p1311
sa(dp1312
g2
S'http://www.reuters.com/article/2014/02/23/alcatel-lucent-collab-idUSnPnNYtVbmP+169+PRN20140223'
p1313
sg4
S'20140223\xc2\xa010:30AM UTC'
p1314
sg6
S'Alcatel-Lucent announces global collaboration with Intel to speed industry move to cloud'
p1315
sa(dp1316
g2
S'http://www.reuters.com/article/2014/02/23/us-usa-ali-miami-idUSBREA1M0KU20140223'
p1317
sg4
S'20140223\xc2\xa010:25AM UTC'
p1318
sg6
S"Miami marks 50th anniversary of Ali's boxing match that 'shook the world'"
p1319
sa(dp1320
g2
S'http://www.reuters.com/article/2014/02/23/us-nigeria-violence-usa-idUSBREA1M0NV20140223'
p1321
sg4
S'20140223\xc2\xa010:24AM UTC'
p1322
sg6
S'U.S. condemns attacks by Boko Haram in Nigeria'
p1323
sa(dp1324
g2
S'http://www.reuters.com/article/2014/02/23/us-nigeria-security-idUSBREA1M0OE20140223'
p1325
sg4
S'20140223\xc2\xa010:24AM UTC'
p1326
sg6
S'Nigeria closes northern border with Cameroon to keep out Islamists'
p1327
sa(dp1328
g2
S'http://www.reuters.com/article/2014/02/23/us-palestinians-israel-boycott-analysis-idUSBREA1M0OI20140223'
p1329
sg4
S'20140223\xc2\xa010:23AM UTC'
p1330
sg6
S'The threat of Israel boycotts more bark than bite'
p1331
sa(dp1332
g2
S'http://www.reuters.com/article/2014/02/23/scania-idUSnBw235183a+100+BSW20140223'
p1333
sg4
S'20140223\xc2\xa010:21AM UTC'
p1334
sg6
S'Independent Committee in Scania Evaluates the Offer by Volkswagen'
p1335
sa(dp1336
g2
S'http://www.reuters.com/article/2014/02/23/us-olympics-sochi-idUSBREA1M0IH20140223'
p1337
sg4
S'20140223\xc2\xa010:19AM UTC'
p1338
sg6
S"'Excellent' Sochi Games proved critics wrong, says IOC's Bach"
p1339
sa(dp1340
g2
S'http://www.reuters.com/article/2014/02/23/nigeria-security-idUSL6N0LS0NQ20140223'
p1341
sg4
S'20140223\xc2\xa010:17AM UTC'
p1342
sg6
S'Nigeria closes northern border with Cameroon to keep out Islamists'
p1343
sa(dp1344
g2
S'http://www.reuters.com/article/2014/02/23/olympics-sochi-idUSL6N0LS0O920140223'
p1345
sg4
S'20140223\xc2\xa010:16AM UTC'
p1346
sg6
S"UPDATE 1-Olympics-'Excellent' Sochi Games proved critics wrong, says IOC's Bach"
p1347
sa(dp1348
g2
S'http://www.reuters.com/article/2014/02/23/idUSnMKWrf1Zna+1c4+MKW20140223'
p1349
sg4
S'20140223\xc2\xa010:15AM UTC'
p1350
sg6
S'TIM Brasil Deploys Juniper Networks SRX Series Services Gateway to Bolster Fourth Generation LTE Deployment Throughout Brazil'
p1351
sa(dp1352
g2
S'http://www.reuters.com/article/2014/02/23/scania-idUSnBw235182a+100+BSW20140223'
p1353
sg4
S'20140223\xc2\xa010:12AM UTC'
p1354
sg6
S'Information from Scania in Relation to the Offer by Volkswagen to the Shareholders in Scania'
p1355
sa(dp1356
g2
S'http://www.reuters.com/article/2014/02/23/nigeria-violence-usa-idUSL1N0LS04420140223'
p1357
sg4
S'20140223\xc2\xa010:10AM UTC'
p1358
sg6
S'U.S. condemns attacks by Boko Haram in Nigeria'
p1359
sa(dp1360
g2
S'http://www.reuters.com/article/2014/02/23/us-ukraine-crisis-merkel-idUSBREA1M0HJ20140223'
p1361
sg4
S'20140223\xc2\xa010:05AM UTC'
p1362
sg6
S'Merkel, Putin say Ukraine must remain intact'
p1363
sa(dp1364
g2
S'http://www.reuters.com/article/2014/02/23/ukraine-crisis-eu-idUSL6N0LS0KG20140223'
p1365
sg4
S'20140223\xc2\xa010:04AM UTC'
p1366
sg6
S'UPDATE 1-EU says ready to do Ukraine trade deal once new government in place'
p1367
sa(dp1368
g2
S'http://www.reuters.com/article/2014/02/23/ukraine-crisis-merkel-idUSL6N0LS0MK20140223'
p1369
sg4
S'20140223\xc2\xa010:02AM UTC'
p1370
sg6
S'Merkel, Putin say Ukraine must remain intact'
p1371
sa(dp1372
g2
S'http://www.reuters.com/article/2014/02/23/ti-unveils-dlpchipset-idUSnPnDAtVdmd+168+PRN20140223'
p1373
sg4
S'20140223\xc2\xa010:00AM UTC'
p1374
sg6
S'Texas Instruments unveils its smallest, most efficient HD DLP\xc2\xae Pico\xe2\x84\xa2 chipset'
p1375
sa(dp1376
g2
S'http://www.reuters.com/article/2014/02/23/idUSnGNX7j4dJy+1c2+GNW20140223'
p1377
sg4
S'20140223\xc2\xa010:00AM UTC'
p1378
sg6
S'Agoura Hills Dentist Urges Patients to Address Sleep Apnea'
p1379
sa(dp1380
g2
S'http://www.reuters.com/article/2014/02/23/mozilla-new-tools-idUSnPnNYtTWmd+16c+PRN20140223'
p1381
sg4
S'20140223\xc2\xa010:00AM UTC'
p1382
sg6
S'New Developer Hardware and Tools Show Firefox OS Ecosystem Momentum'
p1383
sa(dp1384
g2
S'http://www.reuters.com/article/2014/02/23/mozilla-firefoxosmwc-idUSnPnNYtTVmd+16c+PRN20140223'
p1385
sg4
S'20140223\xc2\xa010:00AM UTC'
p1386
sg6
S'Firefox OS Unleashes the Future of Mobile'
p1387
sa(dp1388
g2
S'http://www.reuters.com/article/2014/02/23/mozilla-smartphones-idUSnPnMMtTZmd+16c+PRN20140223'
p1389
sg4
S'20140223\xc2\xa010:00AM UTC'
p1390
sg6
S'Firefox OS Expands to Higher-Performance Devices and Pushes the Boundaries of Entry-Level Smartphones'
p1391
sa(dp1392
g2
S'http://www.reuters.com/article/2014/02/23/spreadtrum-25-phone-idUSnPnCNtFbmd+168+PRN20140223'
p1393
sg4
S'20140223\xc2\xa010:00AM UTC'
p1394
sg6
S'Spreadtrum and Mozilla Take Aim at Global Smartphone Accessibility with Turnkey Solution for US$25 Smartphones'
p1395
sa(dp1396
g2
S'http://www.reuters.com/article/2014/02/23/idUSnMKWstzrSa+1c2+MKW20140223'
p1397
sg4
S'20140223\xc2\xa010:00AM UTC'
p1398
sg6
S'Juniper Networks Expands Software-Defined Networking Portfolio to Help Service Providers Build High-IQ Networks'
p1399
sa(dp1400
g2
S'http://www.reuters.com/article/2014/02/23/maxthon-parnters-idUSnPnCNtVklj+168+PRN20140223'
p1401
sg4
S'20140223\xc2\xa09:53AM UTC'
p1402
sg6
S"Maxthon Announces Expanded Partnership with Yandex, Russia's Leading Search and Web Services Provider"
p1403
sa(dp1404
g2
S'http://www.reuters.com/article/2014/02/23/us-afghanistan-taliban-idUSBREA1M04Z20140223'
p1405
sg4
S'20140223\xc2\xa09:47AM UTC'
p1406
sg6
S'Afghan Taliban kill 21 soldiers, suspend prisoner swap attempt'
p1407
sa(dp1408
g2
S'http://www.reuters.com/article/2014/02/23/olympics-doping-backstrom-idUSL6N0LS0MC20140223'
p1409
sg4
S'20140223\xc2\xa09:46AM UTC'
p1410
sg6
S'Olympics-Swedish ice hockey player Backstrom fails dope test - source'
p1411
sa(dp1412
g2
S'http://www.reuters.com/article/2014/02/23/us-belgium-pandas-idUSBREA1M0MV20140223'
p1413
sg4
S'20140223\xc2\xa09:38AM UTC'
p1414
sg6
S'Giant pandas get a celebrity welcome in Belgium'
p1415
sa(dp1416
g2
S'http://www.reuters.com/article/2014/02/23/belgium-pandas-idUSL6N0LN1FH20140223'
p1417
sg4
S'20140223\xc2\xa09:34AM UTC'
p1418
sg6
S'Giant pandas get a celebrity welcome in Belgium'
p1419
sa(dp1420
g2
S'http://www.reuters.com/article/2014/02/23/us-ukraine-crisis-putin-merkel-idUSBREA1M0MS20140223'
p1421
sg4
S'20140223\xc2\xa09:33AM UTC'
p1422
sg6
S'Putin, Merkel discuss Ukraine over phone: Kremlin'
p1423
sa(dp1424
g2
S'http://www.reuters.com/article/2014/02/23/ukraine-crisis-putin-merkel-idUSL6N0LR0M620140223'
p1425
sg4
S'20140223\xc2\xa09:31AM UTC'
p1426
sg6
S'Putin, Merkel discuss Ukraine over phone - Kremlin'
p1427
sa(dp1428
g2
S'http://www.reuters.com/article/2014/02/23/ajc-praises-japan-idUSnPnDCtVjkS+169+PRN20140223'
p1429
sg4
S'20140223\xc2\xa09:30AM UTC'
p1430
sg6
S"AJC Praises Japan Government's Vow to Investigate Vandalism of Anne Frank's Diary"
p1431
sa(dp1432
g2
S'http://www.reuters.com/article/2014/02/23/olympics-medals-tally-result-idUSL3N0LE08I20140223'
p1433
sg4
S'20140223\xc2\xa09:26AM UTC'
p1434
sg6
S'Olympics-Medals tally'
p1435
sa(dp1436
g2
S'http://www.reuters.com/article/2014/02/23/us-bangladesh-militants-idUSBREA1M0M720140223'
p1437
sg4
S'20140223\xc2\xa09:23AM UTC'
p1438
sg6
S'Militants escape from Bangladesh prison van in bomb ambush'
p1439
sa(dp1440
g2
S'http://www.reuters.com/article/2014/02/23/olympics-icehockey-men-idUSL6N0LS03P20140223'
p1441
sg4
S'20140223\xc2\xa09:21AM UTC'
p1442
sg6
S'Olympics-Ice Hockey-Canada beat Sweden to win gold medal'
p1443
sa(dp1444
g2
S'http://www.reuters.com/article/2014/02/23/olympics-icehockey-men-result-idUSL3N0LS0BP20140223'
p1445
sg4
S'20140223\xc2\xa09:19AM UTC'
p1446
sg6
S"Olympics-Ice Hockey- Sweden 0  Canada 3 - Men's final result"
p1447
sa(dp1448
g2
S'http://www.reuters.com/article/2014/02/23/huawei-new-mediapad-idUSnPnHKtFTkB+16d+PRN20140223'
p1449
sg4
S'20140223\xc2\xa09:15AM UTC'
p1450
sg6
S"Huawei Exceeds the Limits of What's Possible with HUAWEI MediaPad X1 at MWC 2014"
p1451
sa(dp1452
g2
S'http://www.reuters.com/article/2014/02/23/huawei-ascend-g6-4g-idUSnPnHKtpckB+161+PRN20140223'
p1453
sg4
S'20140223\xc2\xa09:15AM UTC'
p1454
sg6
S'HUAWEI Ascend G6 4G Lets You Share Better and Experience a World Without Boundaries'
p1455
sa(dp1456
g2
S'http://www.reuters.com/article/2014/02/23/us-olympics-bobsleigh-zubkov-idUSBREA1M0LQ20140223'
p1457
sg4
S'20140223\xc2\xa09:13AM UTC'
p1458
sg6
S"Victorious Zubkov drained after carrying nation's hopes"
p1459
sa(dp1460
g2
S'http://www.reuters.com/article/2014/02/23/us-ukraine-crisis-tymoshenko-idUSBREA1M0LH20140223'
p1461
sg4
S'20140223\xc2\xa09:11AM UTC'
p1462
sg6
S"Ukraine's Tymoshenko says she does not want post of prime minister"
p1463
sa(dp1464
g2
S'http://www.reuters.com/article/2014/02/23/us-britain-germany-eu-idUSBREA1M0LC20140223'
p1465
sg4
S'20140223\xc2\xa09:10AM UTC'
p1466
sg6
S"UK says to use Merkel visit to push curbs to 'welfare shopping'"
p1467
sa(dp1468
g2
S'http://www.reuters.com/article/2014/02/23/bahrain-gfh-earnings-idUSL6N0LS0JK20140223'
p1469
sg4
S'20140223\xc2\xa09:09AM UTC'
p1470
sg6
S"Bahrain's Gulf Finance House doubles Q4 profit on investment revenue"
p1471
sa(dp1472
g2
S'http://www.reuters.com/article/2014/02/23/ukraine-crisis-tymoshenko-idUSL6N0LS0KQ20140223'
p1473
sg4
S'20140223\xc2\xa09:08AM UTC'
p1474
sg6
S"Ukraine's Tymoshenko says she does not want post of prime minister"
p1475
sa(dp1476
g2
S'http://www.reuters.com/article/2014/02/23/olympics-bobsleigh-zubkov-idUSL6N0LS0KJ20140223'
p1477
sg4
S'20140223\xc2\xa09:05AM UTC'
p1478
sg6
S"Olympics-Bobsleigh-Victorious Zubkov drained after carrying nation's hopes"
p1479
sa(dp1480
g2
S'http://www.reuters.com/article/2014/02/23/us-olympics-canada-idUSBREA1M09K20140223'
p1481
sg4
S'20140223\xc2\xa09:04AM UTC'
p1482
sg6
S'Canadians satisfied despite missing out on top spot'
p1483
sa(dp1484
g2
S'http://www.reuters.com/article/2014/02/23/us-yemen-newspaper-idUSBREA1M0KY20140223'
p1485
sg4
S'20140223\xc2\xa09:04AM UTC'
p1486
sg6
S'Yemen stops printing leading southern opposition newspaper'
p1487
sa(dp1488
g2
S'http://www.reuters.com/article/2014/02/23/yemen-newspaper-idUSL6N0LS0IE20140223'
p1489
sg4
S'20140223\xc2\xa09:01AM UTC'
p1490
sg6
S'Yemen stops printing leading southern opposition newspaper'
p1491
sa(dp1492
g2
S'http://www.reuters.com/article/2014/02/23/us-usa-media-buzzfeed-idUSBREA1M0IQ20140223'
p1493
sg4
S'20140223\xc2\xa09:00AM UTC'
p1494
sg6
S'Beyond cute cats: How BuzzFeed is reinventing itself'
p1495
sa(dp1496
g2
S'http://www.reuters.com/article/2014/02/23/idUSnMKWtnkY6a+1c4+MKW20140223'
p1497
sg4
S'20140223\xc2\xa09:00AM UTC'
p1498
sg6
S'Observing the 3rd Anniversary of the Passing of H.H. Shri Mataji Nirmala Devi'
p1499
sa(dp1500
g2
S'http://www.reuters.com/article/2014/02/23/pa-precyse-himss-idUSnPnPHtTYkj+16c+PRN20140223'
p1501
sg4
S'20140223\xc2\xa09:00AM UTC'
p1502
sg6
S'Precyse Drives Health Information Performance at HIMSS 2014'
p1503
sa(dp1504
g2
S'http://www.reuters.com/article/2014/02/23/il-zebratechnologies-idUSnPnCGtS3kj+168+PRN20140223'
p1505
sg4
S'20140223\xc2\xa09:00AM UTC'
p1506
sg6
S'Zebra Technologies and Kit Check Announce Strategic Partnership'
p1507
sa(dp1508
g2
S'http://www.reuters.com/article/2014/02/23/idUSnCCNbqDJxB+1cd+MKW20140223'
p1509
sg4
S'20140223\xc2\xa09:00AM UTC'
p1510
sg6
S'Observing the 3rd Anniversary of the Passing of H.H. Shri Mataji Nirmala Devi'
p1511
sa(dp1512
g2
S'http://www.reuters.com/article/2014/02/23/ks-garmin-idUSnBw235173a+100+BSW20140223'
p1513
sg4
S'20140223\xc2\xa09:00AM UTC'
p1514
sg6
S'Garmin\xc2\xae Announces Premium Navigation App for Xperia\xe2\x84\xa2 Smartphones'
p1515
sa(dp1516
g2
S'http://www.reuters.com/article/2014/02/23/ny-wohl-fruchter-idUSnBw235170a+100+BSW20140223'
p1517
sg4
S'20140223\xc2\xa09:00AM UTC'
p1518
sg6
S'ICPT SHAREHOLDER ALERT: The Law Firm of Wohl & Fruchter LLP Announces Investigation of Intercept Pharmaceuticals, Inc.'
p1519
sa(dp1520
g2
S'http://www.reuters.com/article/2014/02/23/sports-news-schedule-unplanned-at-1400-g-idUSL6N0LR0LG20140223'
p1521
sg4
S'20140223\xc2\xa09:00AM UTC'
p1522
sg6
S'Reuters Sochi Olympics Schedule at 1400 GMT on Sunday, Feb 23'
p1523
sa(dp1524
g2
S'http://www.reuters.com/article/2014/02/23/us-ukraine-crisis-rout-idUSBREA1M0KG20140223'
p1525
sg4
S'20140223\xc2\xa08:55AM UTC'
p1526
sg6
S"Ukraine's new rulers dismantle Yanukovich power structure"
p1527
sa(dp1528
g2
S'http://www.reuters.com/article/2014/02/23/us-belle-earnings-idUSBREA1M0K720140223'
p1529
sg4
S'20140223\xc2\xa08:48AM UTC'
p1530
sg6
S'Chinese footwear seller Belle says profit squeezed by competition'
p1531
sa(dp1532
g2
S'http://www.reuters.com/article/2014/02/23/ca-plantronics-idUSnBw235180a+100+BSW20140223'
p1533
sg4
S'20140223\xc2\xa08:48AM UTC'
p1534
sg6
S'The Perfect Workout Partner, Plantronics BackBeat FIT Offers Superior Stability, Comfort\xc2\xa0and Wireless Freedom'
p1535
sa(dp1536
g2
S'http://www.reuters.com/article/2014/02/23/ca-plantronics-idUSnBw235178a+100+BSW20140223'
p1537
sg4
S'20140223\xc2\xa08:45AM UTC'
p1538
sg6
S'Plantronics Introduces New Voyager Edge Bluetooth\xc2\xae Headset to Power Your Non-Stop Life'
p1539
sa(dp1540
g2
S'http://www.reuters.com/article/2014/02/23/belle-earnings-idUSL3N0LM26A20140223'
p1541
sg4
S'20140223\xc2\xa08:42AM UTC'
p1542
sg6
S'Chinese footwear seller Belle says profit squeezed by competition'
p1543
sa(dp1544
g2
S'http://www.reuters.com/article/2014/02/23/us-swiss-immigration-idUSBREA1M0JT20140223'
p1545
sg4
S'20140223\xc2\xa08:39AM UTC'
p1546
sg6
S'Swiss minister says EU threats over immigration overblown'
p1547
sa(dp1548
g2
S'http://www.reuters.com/article/2014/02/23/olympics-icehockey-men-period-idUSL6N0LS0H620140223'
p1549
sg4
S'20140223\xc2\xa08:37AM UTC'
p1550
sg6
S'Olympics-Ice hockey-Canada 2 Sweden 0 - after second period'
p1551
sa(dp1552
g2
S'http://www.reuters.com/article/2014/02/23/us-bissau-elections-idUSBREA1M0JJ20140223'
p1553
sg4
S'20140223\xc2\xa08:34AM UTC'
p1554
sg6
S'Guinea-Bissau postpones elections again to April'
p1555
sa(dp1556
g2
S'http://www.reuters.com/article/2014/02/23/britain-rsa-idUSL6N0LS0IP20140223'
p1557
sg4
S'20140223\xc2\xa08:33AM UTC'
p1558
sg6
S'Insurer RSA plans 800 million pound cash call -report'
p1559
sa(dp1560
g2
S'http://www.reuters.com/article/2014/02/23/us-syria-crisis-carbomb-idUSBREA1M07A20140223'
p1561
sg4
S'20140223\xc2\xa08:33AM UTC'
p1562
sg6
S'Car bomb kills 14 in Syrian town on Turkish border: activists'
p1563
sa(dp1564
g2
S'http://www.reuters.com/article/2014/02/23/us-hongkong-pressfreedom-idUSBREA1M0JD20140223'
p1565
sg4
S'20140223\xc2\xa08:32AM UTC'
p1566
sg6
S'Thousands march in Hong Kong against erosion of media freedoms'
p1567
sa(dp1568
g2
S'http://www.reuters.com/article/2014/02/23/spain-sareb-idUSL6N0LS0IH20140223'
p1569
sg4
S'20140223\xc2\xa08:31AM UTC'
p1570
sg6
S"Spain's bad bank Sareb names Echegoyen CEO"
p1571
sa(dp1572
g2
S'http://www.reuters.com/article/2014/02/23/us-olympics-bobsleigh-4man-idUSBREA1M0EJ20140223'
p1573
sg4
S'20140223\xc2\xa08:31AM UTC'
p1574
sg6
S'Zubkov completes double with four-man gold'
p1575
sa(dp1576
g2
S'http://www.reuters.com/article/2014/02/23/mideast-markets-wrap-idUSL6N0LS0HT20140223'
p1577
sg4
S'20140223\xc2\xa08:30AM UTC'
p1578
sg6
S'MIDEAST STOCKS-Egypt crosses key level as financials rise; Gulf mkts mixed'
p1579
sa(dp1580
g2
S'http://www.reuters.com/article/2014/02/23/microsoft-newpartners-idUSnPnSFtV9hY+169+PRN20140223'
p1581
sg4
S'20140223\xc2\xa08:30AM UTC'
p1582
sg6
S'Microsoft adds nine new Windows Phone hardware partners'
p1583
sa(dp1584
g2
S'http://www.reuters.com/article/2014/02/23/olympics-bobsleigh-4man-idUSL3N0LS0AW20140223'
p1585
sg4
S'20140223\xc2\xa08:29AM UTC'
p1586
sg6
S'UPDATE 3-Olympics-Bobsleigh-Zubkov completes double with four-man gold'
p1587
sa(dp1588
g2
S'http://www.reuters.com/article/2014/02/23/hongkong-pressfreedom-idUSL3N0LS0CU20140223'
p1589
sg4
S'20140223\xc2\xa08:22AM UTC'
p1590
sg6
S'Thousands march in Hong Kong against erosion of media freedoms'
p1591
sa(dp1592
g2
S'http://www.reuters.com/article/2014/02/23/britain-business-idUSL6N0LS0AG20140223'
p1593
sg4
S'20140223\xc2\xa08:08AM UTC'
p1594
sg6
S'PRESS DIGEST-Sunday British Business - Feb 23'
p1595
sa(dp1596
g2
S'http://www.reuters.com/article/2014/02/23/us-usa-keystone-commission-idUSBREA1M0IN20140223'
p1597
sg4
S'20140223\xc2\xa08:06AM UTC'
p1598
sg6
S'Small Nebraska agency might further complicate Keystone fight'
p1599
sa(dp1600
g2
S'http://www.reuters.com/article/2014/02/23/us-germany-usa-spying-idUSBREA1M0IK20140223'
p1601
sg4
S'20140223\xc2\xa08:02AM UTC'
p1602
sg6
S'U.S. now bugging German ministers in place of Merkel: report'
p1603
sa(dp1604
g2
S'http://www.reuters.com/article/2014/02/23/appy-geek-mobileworld-idUSnPnNYtTvhn+168+PRN20140223'
p1605
sg4
S'20140223\xc2\xa08:00AM UTC'
p1606
sg6
S'Get Your Mobile World Congress Breaking News All in One Awarding-Winning App, Appy Geek'
p1607
sa(dp1608
g2
S'http://www.reuters.com/article/2014/02/23/usa-keystone-commission-idUSL2N0LP29020140223'
p1609
sg4
S'20140223\xc2\xa08:00AM UTC'
p1610
sg6
S'Small Nebraska agency might further complicate Keystone fight'
p1611
sa(dp1612
g2
S'http://www.reuters.com/article/2014/02/23/usa-media-buzzfeed-idUSL2N0KP15I20140223'
p1613
sg4
S'20140223\xc2\xa08:00AM UTC'
p1614
sg6
S'FEATURE-Beyond cute cats: How BuzzFeed is reinventing itself'
p1615
sa(dp1616
g2
S'http://www.reuters.com/article/2014/02/23/olympics-sochi-idUSL6N0LS0FN20140223'
p1617
sg4
S'20140223\xc2\xa07:52AM UTC'
p1618
sg6
S"Olympics-'Excellent' Sochi Games proved critics wrong, says IOC's Bach"
p1619
sa(dp1620
g2
S'http://www.reuters.com/article/2014/02/23/us-ukraine-crisis-future-analysis-idUSBREA1M0HV20140223'
p1621
sg4
S'20140223\xc2\xa07:40AM UTC'
p1622
sg6
S'West faces daunting task to rescue Ukraine after uprising'
p1623
sa(dp1624
g2
S'http://www.reuters.com/article/2014/02/23/us-egypt-imports-rice-idUSBREA1M0HE20140223'
p1625
sg4
S'20140223\xc2\xa07:36AM UTC'
p1626
sg6
S'Egypt food supply shake-up sees official referred to prosecutors'
p1627
sa(dp1628
g2
S'http://www.reuters.com/article/2014/02/23/ukraine-crisis-merkel-idUSL6N0LS0EF20140223'
p1629
sg4
S'20140223\xc2\xa07:34AM UTC'
p1630
sg6
S"Ukraine's freed Tymoshenko speaks to Germany's Merkel by phone"
p1631
sa(dp1632
g2
S'http://www.reuters.com/article/2014/02/23/egypt-imports-rice-idUSL6N0LS04V20140223'
p1633
sg4
S'20140223\xc2\xa07:33AM UTC'
p1634
sg6
S'UPDATE 2-Egypt food supply shake-up sees official referred to prosecutors'
p1635
sa(dp1636
g2
S'http://www.reuters.com/article/2014/02/23/us-soros-europe-idUSBREA1M0H420140223'
p1637
sg4
S'20140223\xc2\xa07:27AM UTC'
p1638
sg6
S'Billionaire Soros considers investing in European banks: paper'
p1639
sa(dp1640
g2
S'http://www.reuters.com/article/2014/02/23/soros-europe-idUSL6N0LS0DG20140223'
p1641
sg4
S'20140223\xc2\xa07:24AM UTC'
p1642
sg6
S'Billionaire Soros considers investing in European banks -paper'
p1643
sa(dp1644
g2
S'http://www.reuters.com/article/2014/02/23/us-olympics-crosscountry-norway-idUSBREA1M0GE20140223'
p1645
sg4
S'20140223\xc2\xa07:14AM UTC'
p1646
sg6
S'Cross country: Unhappy Norwegian men end Games on a low note'
p1647
sa(dp1648
g2
S'http://www.reuters.com/article/2014/02/23/bahrain-albaraka-results-idUSL6N0LS0DD20140223'
p1649
sg4
S'20140223\xc2\xa07:12AM UTC'
p1650
sg6
S'UPDATE 1-Bahraini Islamic bank Al Baraka Q4 net income climbs 23 pct'
p1651
sa(dp1652
g2
S'http://www.reuters.com/article/2014/02/23/olympics-crosscountry-norway-idUSL6N0LS0C620140223'
p1653
sg4
S'20140223\xc2\xa07:12AM UTC'
p1654
sg6
S'Olympics-Cross country-Unhappy Norwegian men end Games on a low note'
p1655
sa(dp1656
g2
S'http://www.reuters.com/article/2014/02/23/us-vontrapp-idUSBREA1M04L20140223'
p1657
sg4
S'20140223\xc2\xa07:11AM UTC'
p1658
sg6
S"Maria von Trapp of 'Sound of Music' fame dead at 99"
p1659
sa(dp1660
g2
S'http://www.reuters.com/article/2014/02/23/olympics-bobsleigh-fourman-result-idUSL3N0LS0AF20140223'
p1661
sg4
S'20140223\xc2\xa07:10AM UTC'
p1662
sg6
S'Olympics-Bobsleigh-Four-man final standings'
p1663
sa(dp1664
g2
S'http://www.reuters.com/article/2014/02/23/us-bangladesh-militants-idUSBREA1M0FY20140223'
p1665
sg4
S'20140223\xc2\xa07:09AM UTC'
p1666
sg6
S'Gunmen snatch militants from Bangladesh prison van, kill policeman'
p1667
sa(dp1668
g2
S'http://www.reuters.com/article/2014/02/23/us-yemen-kidnapping-idUSBREA1M0FP20140223'
p1669
sg4
S'20140223\xc2\xa07:08AM UTC'
p1670
sg6
S'Kidnappers free Czech doctor in Yemen'
p1671
sa(dp1672
g2
S'http://www.reuters.com/article/2014/02/23/idUSnMKWFzdSpa+1e4+MKW20140223'
p1673
sg4
S'20140223\xc2\xa07:00AM UTC'
p1674
sg6
S'REMINDER/Media Advisory: Canada Partners With Coady International Institute to Strengthen Leadership in the Developing World'
p1675
sa(dp1676
g2
S'http://www.reuters.com/article/2014/02/23/idUSnCCN7S8DJ1+1d6+MKW20140223'
p1677
sg4
S'20140223\xc2\xa07:00AM UTC'
p1678
sg6
S'REMINDER/Media Advisory: Canada Partners With Coady International Institute to Strengthen Leadership in the Developing World'
p1679
sa(dp1680
g2
S'http://www.reuters.com/article/2014/02/23/usa-christie-budget-idUSL2N0LQ24F20140223'
p1681
sg4
S'20140223\xc2\xa07:00AM UTC'
p1682
sg6
S"New Jersey's Christie presents budget under political, fiscal cloud"
p1683
sa(dp1684
g2
S'http://www.reuters.com/article/2014/02/23/oscars-fashion-idUSL2N0LQ0IY20140223'
p1685
sg4
S'20140223\xc2\xa07:00AM UTC'
p1686
sg6
S'Oscars red carpet: a runway of sharp elbows and high fashion stakes'
p1687
sa(dp1688
g2
S'http://www.reuters.com/article/2014/02/23/us-germany-tax-idUSBREA1M0F920140223'
p1689
sg4
S'20140223\xc2\xa06:58AM UTC'
p1690
sg6
S'Germany to raise tax intake forecast as economy recovers: report'
p1691
sa(dp1692
g2
S'http://www.reuters.com/article/2014/02/23/us-usa-mexico-kingpin-idUSBREA1L0RE20140223'
p1693
sg4
S'20140223\xc2\xa06:52AM UTC'
p1694
sg6
S"Mexico captures No.1 drug kingpin 'Shorty' Guzman"
p1695
sa(dp1696
g2
S'http://www.reuters.com/article/2014/02/23/us-ukraine-crisis-britain-idUSBREA1M0D620140223'
p1697
sg4
S'20140223\xc2\xa06:51AM UTC'
p1698
sg6
S"UK tells Russia: Don't intervene in Ukraine, let economy heal"
p1699
sa(dp1700
g2
S'http://www.reuters.com/article/2014/02/23/ukraine-crisis-britain-idUSL6N0LS08W20140223'
p1701
sg4
S'20140223\xc2\xa06:49AM UTC'
p1702
sg6
S"REFILE-UK tells Russia: Don't intervene in Ukraine, let economy heal"
p1703
sa(dp1704
g2
S'http://www.reuters.com/article/2014/02/23/olympics-bobsleigh-4man-idUSL6N0LS03O20140223'
p1705
sg4
S'20140223\xc2\xa06:46AM UTC'
p1706
sg6
S'Olympics-Bobsleigh-Zubkov completes double with four-man gold'
p1707
sa(dp1708
g2
S'http://www.reuters.com/article/2014/02/23/us-olympics-sochi-bach-idUSBREA1M0EB20140223'
p1709
sg4
S'20140223\xc2\xa06:46AM UTC'
p1710
sg6
S'IOC boss to break with tradition in Games closing ceremony'
p1711
sa(dp1712
g2
S'http://www.reuters.com/article/2014/02/23/spritz-text-streaming-idUSnPnNYtV6dl+168+PRN20140223'
p1713
sg4
S'20140223\xc2\xa06:42AM UTC'
p1714
sg6
S'Spritz Reinvents Reading on Mobile Devices, One Word at a Time'
p1715
sa(dp1716
g2
S'http://www.reuters.com/article/2014/02/23/bahrain-albaraka-results-idUSL6N0LS0CC20140223'
p1717
sg4
S'20140223\xc2\xa06:42AM UTC'
p1718
sg6
S'Bahraini Islamic bank Al Baraka Q4 net income climbs 23 pct'
p1719
sa(dp1720
g2
S'http://www.reuters.com/article/2014/02/23/israel-centralbank-deputygovernor-idUSL6N0LS0CT20140223'
p1721
sg4
S'20140223\xc2\xa06:41AM UTC'
p1722
sg6
S'Baudot-Trajtenberg to join Bank of Israel MPC next week'
p1723
sa(dp1724
g2
S'http://www.reuters.com/article/2014/02/23/cloudwear-iuwantaapp-idUSnPnLAtV7dj+168+PRN20140223'
p1725
sg4
S'20140223\xc2\xa06:40AM UTC'
p1726
sg6
S'iwunta Launches First Social App to Find Nearby Friends via Geo-Relevant Wearable Technology'
p1727
sa(dp1728
g2
S'http://www.reuters.com/article/2014/02/23/us-olympics-doping-austria-idUSBREA1M05V20140223'
p1729
sg4
S'20140223\xc2\xa06:40AM UTC'
p1730
sg6
S'Austrian cross: country skier Duerr tests positive for EPO'
p1731
sa(dp1732
g2
S'http://www.reuters.com/article/2014/02/23/olympics-sochi-bach-idUSL6N0LS0CF20140223'
p1733
sg4
S'20140223\xc2\xa06:40AM UTC'
p1734
sg6
S'Olympics-IOC boss to break with tradition in Games closing ceremony'
p1735
sa(dp1736
g2
S'http://www.reuters.com/article/2014/02/23/us-olympics-crosscountry-idUSBREA1M07Y20140223'
p1737
sg4
S'20140223\xc2\xa06:40AM UTC'
p1738
sg6
S"Cross country: Legkov wins 50km to seal Russia's triumph"
p1739
sa(dp1740
g2
S'http://www.reuters.com/article/2014/02/23/olympics-doping-austria-idUSL3N0LS08V20140223'
p1741
sg4
S'20140223\xc2\xa06:39AM UTC'
p1742
sg6
S'UPDATE 3-Olympics-Austrian cross-country skier Duerr tests positive for EPO'
p1743
sa(dp1744
g2
S'http://www.reuters.com/article/2014/02/23/us-israel-russia-bus-idUSBREA1M0DU20140223'
p1745
sg4
S'20140223\xc2\xa06:39AM UTC'
p1746
sg6
S'Driver in Israel crash that killed 24 Russians jailed for eight years'
p1747
sa(dp1748
g2
S'http://www.reuters.com/article/2014/02/23/olympics-crosscountry-idUSL1N0LS01620140223'
p1749
sg4
S'20140223\xc2\xa06:32AM UTC'
p1750
sg6
S"UPDATE 3-Olympics-Cross country-Legkov wins 50km to seal Russia's triumph"
p1751
sa(dp1752
g2
S'http://www.reuters.com/article/2014/02/23/us-pope-cardinals-idUSBREA1M0AP20140223'
p1753
sg4
S'20140223\xc2\xa06:22AM UTC'
p1754
sg6
S'Pope tells cardinals to shun intrigue, cliques of a royal court'
p1755
sa(dp1756
g2
S'http://www.reuters.com/article/2014/02/23/us-india-poll-idUSBREA1M0DE20140223'
p1757
sg4
S'20140223\xc2\xa06:21AM UTC'
p1758
sg6
S"India's Modi widens lead, BJP may win half the seats in key state: poll"
p1759
sa(dp1760
g2
S'http://www.reuters.com/article/2014/02/23/us-ukraine-crisis-speaker-idUSBREA1M0BM20140223'
p1761
sg4
S'20140223\xc2\xa06:08AM UTC'
p1762
sg6
S'Tymoshenko confidante becomes acting Ukrainian president'
p1763
sa(dp1764
g2
S'http://www.reuters.com/article/2014/02/23/olympics-bobsleigh-fourman-result-idUSL3N0LS0AE20140223'
p1765
sg4
S'20140223\xc2\xa06:07AM UTC'
p1766
sg6
S'Olympics-Bobsleigh-Four-man standings after third run'
p1767
sa(dp1768
g2
S'http://www.reuters.com/article/2014/02/23/us-germany-savings-idUSBREA1M0CV20140223'
p1769
sg4
S'20140223\xc2\xa06:07AM UTC'
p1770
sg6
S'Rock-bottom rates convert German savers to spending'
p1771
sa(dp1772
g2
S'http://www.reuters.com/article/2014/02/23/ca-polycom-idUSnBw235003a+100+BSW20140223'
p1773
sg4
S'20140223\xc2\xa06:05AM UTC'
p1774
sg6
S'Polycom to Showcase Collaborative Video, Voice and Content Management Solutions for Healthcare at HiMSS 2014, Booth #4945'
p1775
sa(dp1776
g2
S'http://www.reuters.com/article/2014/02/23/ca-intel-idUSnBw235001a+100+BSW20140223'
p1777
sg4
S'20140223\xc2\xa06:05AM UTC'
p1778
sg6
S'Media Alert:\xc2\xa0Experience Mobile with Intel Inside\xc2\xae'
p1779
sa(dp1780
g2
S'http://www.reuters.com/article/2014/02/23/us-olympics-freestyle-suits-idUSBREA1M09620140223'
p1781
sg4
S'20140223\xc2\xa06:02AM UTC'
p1782
sg6
S'Freestyle: Appeal against French medal sweep dismissed - CAS'
p1783
sa(dp1784
g2
S'http://www.reuters.com/article/2014/02/23/bkn-rockets-suns-preview-idUSMTZEA2NG6RHZA20140223'
p1785
sg4
S'20140223\xc2\xa06:02AM UTC'
p1786
sg6
S'Preview: Rockets at Suns'
p1787
sa(dp1788
g2
S'http://www.reuters.com/article/2014/02/23/bkc-providence-butler-preview-idUSMTZEA2NG6RHZ920140223'
p1789
sg4
S'20140223\xc2\xa06:02AM UTC'
p1790
sg6
S'Preview: Providence at Butle'
p1791
sa(dp1792
g2
S'http://www.reuters.com/article/2014/02/23/bkc-michiganst-michigan-preview-idUSMTZEA2NG6RHZ820140223'
p1793
sg4
S'20140223\xc2\xa06:02AM UTC'
p1794
sg6
S'Preview: Michigan State at Michigan'
p1795
sa(dp1796
g2
S'http://www.reuters.com/article/2014/02/23/bkn-nets-lakers-preview-idUSMTZEA2NG6RHZ720140223'
p1797
sg4
S'20140223\xc2\xa06:02AM UTC'
p1798
sg6
S'Preview: Nets at Lakers'
p1799
sa(dp1800
g2
S'http://www.reuters.com/article/2014/02/23/bkn-clippers-thunder-preview-idUSMTZEA2NG6RHZ620140223'
p1801
sg4
S'20140223\xc2\xa06:02AM UTC'
p1802
sg6
S'Preview: Clippers at Thunde'
p1803
sa(dp1804
g2
S'http://www.reuters.com/article/2014/02/23/bkn-magic-raptors-preview-idUSMTZEA2NG6RHZ520140223'
p1805
sg4
S'20140223\xc2\xa06:02AM UTC'
p1806
sg6
S'Preview: Magic at Raptors'
p1807
sa(dp1808
g2
S'http://www.reuters.com/article/2014/02/23/bkc-setonhall-creighton-preview-idUSMTZEA2NG6RGZ120140223'
p1809
sg4
S'20140223\xc2\xa06:02AM UTC'
p1810
sg6
S'Preview: Seton Hall at Creighton'
p1811
sa(dp1812
g2
S'http://www.reuters.com/article/2014/02/23/bkc-arizonast-utah-preview-idUSMTZEA2NG6RGZ020140223'
p1813
sg4
S'20140223\xc2\xa06:02AM UTC'
p1814
sg6
S'Preview: Arizona State at Utah'
p1815
sa(dp1816
g2
S'http://www.reuters.com/article/2014/02/23/bkc-purdue-nebraska-preview-idUSMTZEA2NG6RGYZ20140223'
p1817
sg4
S'20140223\xc2\xa06:02AM UTC'
p1818
sg6
S'Preview: Purdue at Nebraska'
p1819
sa(dp1820
g2
S'http://www.reuters.com/article/2014/02/23/bkc-floridast-pittsburgh-preview-idUSMTZEA2NG6RGYY20140223'
p1821
sg4
S'20140223\xc2\xa06:02AM UTC'
p1822
sg6
S'Preview: Florida State at Pittsburgh'
p1823
sa(dp1824
g2
S'http://www.reuters.com/article/2014/02/23/bkn-bulls-heat-preview-idUSMTZEA2NG6RGZ420140223'
p1825
sg4
S'20140223\xc2\xa06:02AM UTC'
p1826
sg6
S'Preview: Bulls at Heat'
p1827
sa(dp1828
g2
S'http://www.reuters.com/article/2014/02/23/bkn-wizards-cavaliers-preview-idUSMTZEA2NG6RFYX20140223'
p1829
sg4
S'20140223\xc2\xa06:02AM UTC'
p1830
sg6
S'Preview: Wizards at Cavaliers'
p1831
sa(dp1832
g2
S'http://www.reuters.com/article/2014/02/23/bkc-southernmethodist-connecticut-previe-idUSMTZEA2NG6RGZ320140223'
p1833
sg4
S'20140223\xc2\xa06:02AM UTC'
p1834
sg6
S'Preview: Southern Methodist at Connecticut'
p1835
sa(dp1836
g2
S'http://www.reuters.com/article/2014/02/23/bkn-kings-nuggets-preview-idUSMTZEA2NG6RGZ220140223'
p1837
sg4
S'20140223\xc2\xa06:02AM UTC'
p1838
sg6
S'Preview: Kings at Nuggets'
p1839
sa(dp1840
g2
S'http://www.reuters.com/article/2014/02/23/bkc-washingtonst-oregon-preview-idUSMTZEA2NG6RFYW20140223'
p1841
sg4
S'20140223\xc2\xa06:02AM UTC'
p1842
sg6
S'Preview: Washington State at Oregon'
p1843
sa(dp1844
g2
S'http://www.reuters.com/article/2014/02/23/us-olympics-russia-resort-idUSBREA1M0CP20140223'
p1845
sg4
S'20140223\xc2\xa06:01AM UTC'
p1846
sg6
S'What do you do with a mountain resort with Games gone?'
p1847
sa(dp1848
g2
S'http://www.reuters.com/article/2014/02/23/kuwait-burgan-results-idUSL6N0LS0A320140223'
p1849
sg4
S'20140223\xc2\xa06:00AM UTC'
p1850
sg6
S"Kuwait's Burgan Bank Q4 net profit slumps"
p1851
sa(dp1852
g2
S'http://www.reuters.com/article/2014/02/23/olympics-freestyle-suits-idUSL6N0LS09J20140223'
p1853
sg4
S'20140223\xc2\xa06:00AM UTC'
p1854
sg6
S'UPDATE 1-Olympics-Freestyle-Appeal against French medal sweep dismissed - CAS'
p1855
sa(dp1856
g2
S'http://www.reuters.com/article/2014/02/23/germany-savings-idUSL6N0LP1MS20140223'
p1857
sg4
S'20140223\xc2\xa06:00AM UTC'
p1858
sg6
S'Rock-bottom rates convert German savers to spending'
p1859
sa(dp1860
g2
S'http://www.reuters.com/article/2014/02/23/prn-good-morning-idUSnPnNYGMbL+bd+PRN20140223'
p1861
sg4
S'20140223\xc2\xa05:59AM UTC'
p1862
sg6
S'GOOD MORNING'
p1863
sa(dp1864
g2
S'http://www.reuters.com/article/2014/02/23/us-ukraine-crisis-foreign-idUSBREA1M0CJ20140223'
p1865
sg4
S'20140223\xc2\xa05:57AM UTC'
p1866
sg6
S'Ukraine parliament ousts pro-Yanukovich foreign minister'
p1867
sa(dp1868
g2
S'http://www.reuters.com/article/2014/02/23/emirates-nakheel-debt-idUSL6N0LS09920140223'
p1869
sg4
S'20140223\xc2\xa05:56AM UTC'
p1870
sg6
S"Dubai's Nakheel says repays 2.35 bln dirhams of bank debt"
p1871
sa(dp1872
g2
S'http://www.reuters.com/article/2014/02/23/olympics-russia-resort-idUSL2N0LQ1I620140223'
p1873
sg4
S'20140223\xc2\xa05:56AM UTC'
p1874
sg6
S'Olympics-What do you do with a mountain resort with Games gone?'
p1875
sa(dp1876
g2
S'http://www.reuters.com/article/2014/02/23/us-thai-protest-blast-idUSBREA1M0BU20140223'
p1877
sg4
S'20140223\xc2\xa05:44AM UTC'
p1878
sg6
S'Bomb blast wounds at least 16 at anti-government protest site in Thai capital'
p1879
sa(dp1880
g2
S'http://www.reuters.com/article/2014/02/23/thai-protest-blast-idUSL3N0LQ1HW20140223'
p1881
sg4
S'20140223\xc2\xa05:43AM UTC'
p1882
sg6
S'Bomb blast wounds at least 16 at anti-govt protest site in Thai capital'
p1883
sa(dp1884
g2
S'http://www.reuters.com/article/2014/02/23/us-ukraine-crisis-estate-idUSBREA1M0B920140223'
p1885
sg4
S'20140223\xc2\xa05:40AM UTC'
p1886
sg6
S'Ukraine parliament strips Yanukovich of his luxury estate'
p1887
sa(dp1888
g2
S'http://www.reuters.com/article/2014/02/23/ukraine-crisis-estate-idUSL6N0LS08Z20140223'
p1889
sg4
S'20140223\xc2\xa05:38AM UTC'
p1890
sg6
S'Ukraine parliament strips Yanukovich of his luxury estate'
p1891
sa(dp1892
g2
S'http://www.reuters.com/article/2014/02/23/us-urkaine-crisis-idUSBREA1M0AX20140223'
p1893
sg4
S'20140223\xc2\xa05:35AM UTC'
p1894
sg6
S'Ukraine seeks agreement on national unity government by Tuesday'
p1895
sa(dp1896
g2
S'http://www.reuters.com/article/2014/02/23/us-pakistan-taliban-idUSBREA1M0AE20140223'
p1897
sg4
S'20140223\xc2\xa05:18AM UTC'
p1898
sg6
S'Pakistan army pounds militant hideouts, 18 dead'
p1899
sa(dp1900
g2
S'http://www.reuters.com/article/2014/02/23/us-china-economy-finmin-idUSBREA1M09Z20140223'
p1901
sg4
S'20140223\xc2\xa05:14AM UTC'
p1902
sg6
S'China Finance Minister welcomes U.S. policy withdrawal: Xinhua'
p1903
sa(dp1904
g2
S'http://www.reuters.com/article/2014/02/23/us-ukraine-crisis-prosecutor-idUSBREA1M09U20140223'
p1905
sg4
S'20140223\xc2\xa05:11AM UTC'
p1906
sg6
S'Ukraine order given to detain ex-incomes minister, ex-prosecutor general'
p1907
sa(dp1908
g2
S'http://www.reuters.com/article/2014/02/23/us-g20-australia-idUSBREA1L02Q20140223'
p1909
sg4
S'20140223\xc2\xa05:10AM UTC'
p1910
sg6
S'G20 aspires to faster economic growth, roadmap sketchy'
p1911
sa(dp1912
g2
S'http://www.reuters.com/article/2014/02/23/china-economy-finmin-idUSB9N0LF00M20140223'
p1913
sg4
S'20140223\xc2\xa05:09AM UTC'
p1914
sg6
S'China FinMin welcomes U.S. policy withdrawal -Xinhua'
p1915
sa(dp1916
g2
S'http://www.reuters.com/article/2014/02/23/ukraine-crisis-prosecutor-idUSL6N0LS07U20140223'
p1917
sg4
S'20140223\xc2\xa05:05AM UTC'
p1918
sg6
S'Ukraine order given to detain ex-incomes minister, ex-prosecutor general'
p1919
sa(dp1920
g2
S'http://www.reuters.com/article/2014/02/23/g20-australia-idUSL2N0LR05S20140223'
p1921
sg4
S'20140223\xc2\xa05:04AM UTC'
p1922
sg6
S'WRAPUP 5-G20 aspires to faster economic growth, roadmap sketchy'
p1923
sa(dp1924
g2
S'http://www.reuters.com/article/2014/02/23/us-mobile-world-bigdata-idUSBREA1M09F20140223'
p1925
sg4
S'20140223\xc2\xa05:03AM UTC'
p1926
sg6
S'Telecom firms mine for gold in big data despite privacy concerns'
p1927
sa(dp1928
g2
S'http://www.reuters.com/article/2014/02/23/olympics-canada-idUSL6N0LS07120140223'
p1929
sg4
S'20140223\xc2\xa05:00AM UTC'
p1930
sg6
S'Olympics-Canadians satisfied despite missing out on top spot'
p1931
sa(dp1932
g2
S'http://www.reuters.com/article/2014/02/23/mobile-world-bigdata-idUSL6N0LQ10C20140223'
p1933
sg4
S'20140223\xc2\xa05:00AM UTC'
p1934
sg6
S'Telecom firms mine for gold in big data despite privacy concerns'
p1935
sa(dp1936
g2
S'http://www.reuters.com/article/2014/02/23/olympics-freestyle-suits-idUSL3N0LS09U20140223'
p1937
sg4
S'20140223\xc2\xa04:54AM UTC'
p1938
sg6
S'Olympics-Freestyle-Appeal against French medal sweep dismissed - CAS'
p1939
sa(dp1940
g2
S'http://www.reuters.com/article/2014/02/23/us-southsudan-unrest-idUSBREA1M09320140223'
p1941
sg4
S'20140223\xc2\xa04:52AM UTC'
p1942
sg6
S'South Sudan army says repels rebel attacks on positions near Bor'
p1943
sa(dp1944
g2
S'http://www.reuters.com/article/2014/02/23/southsudan-unrest-idUSL6N0LS06H20140223'
p1945
sg4
S'20140223\xc2\xa04:48AM UTC'
p1946
sg6
S'S.Sudan army says repels rebel attacks on positions near Bor'
p1947
sa(dp1948
g2
S'http://www.reuters.com/article/2014/02/23/olympics-crosscountry-men-mass-result-idUSL3N0LR09K20140223'
p1949
sg4
S'20140223\xc2\xa04:16AM UTC'
p1950
sg6
S"Olympics-Cross Country-Men's 50 km mass start free result"
p1951
sa(dp1952
g2
S'http://www.reuters.com/article/2014/02/23/olympics-crosscountry-idUSL1N0LS01Q20140223'
p1953
sg4
S'20140223\xc2\xa04:07AM UTC'
p1954
sg6
S"UPDATE 1-Olympics-Cross-country- Russians sweep men's 50 km"
p1955
sa(dp1956
g2
S'http://www.reuters.com/article/2014/02/23/us-forex-hiring-idUSBREA1M08120140223'
p1957
sg4
S'20140223\xc2\xa04:00AM UTC'
p1958
sg6
S'Banks struggle to fill staff gaps in FX rigging row'
p1959
sa(dp1960
g2
S'http://www.reuters.com/article/2014/02/23/forex-hiring-idUSL6N0LN1CW20140223'
p1961
sg4
S'20140223\xc2\xa04:00AM UTC'
p1962
sg6
S'Banks struggle to fill staff gaps in FX rigging row'
p1963
sa(dp1964
g2
S'http://www.reuters.com/article/2014/02/23/bkc-sandiegost-newmexico-recap-idUSMTZEA2NG0G4XX20140223'
p1965
sg4
S'20140223\xc2\xa03:55AM UTC'
p1966
sg6
S'New Mexico 58, San Diego State 44'
p1967
sa(dp1968
g2
S'http://www.reuters.com/article/2014/02/23/us-china-pollution-idUSBREA1J18E20140223'
p1969
sg4
S'20140223\xc2\xa03:52AM UTC'
p1970
sg6
S'China sends government teams to investigate pollution'
p1971
sa(dp1972
g2
S'http://www.reuters.com/article/2014/02/23/olympics-crosscountry-idUSL6N0LS03I20140223'
p1973
sg4
S'20140223\xc2\xa03:52AM UTC'
p1974
sg6
S"Olympics-Cross country-Russia's Legkov wins men's 50 km race"
p1975
sa(dp1976
g2
S'http://www.reuters.com/article/2014/02/23/china-pollution-idUSL3N0LS0AR20140223'
p1977
sg4
S'20140223\xc2\xa03:51AM UTC'
p1978
sg6
S'China sends government teams to investigate pollution'
p1979
sa(dp1980
g2
S'http://www.reuters.com/article/2014/02/23/g20-australia-idUSSYDG2020140223'
p1981
sg4
S'20140223\xc2\xa03:30AM UTC'
p1982
sg6
S'HIGHLIGHTS-Comments from policymakers after G20 meeting in Sydney'
p1983
sa(dp1984
g2
S'http://www.reuters.com/article/2014/02/23/us-mexico-drugs-cartels-analysis-idUSBREA1M07H20140223'
p1985
sg4
S'20140223\xc2\xa03:28AM UTC'
p1986
sg6
S"Mexico kingpin's arrest a victory that may fuel violence"
p1987
sa(dp1988
g2
S'http://www.reuters.com/article/2014/02/23/usa-newyork-carbonmonoxide-idUSL1N0LS01G20140223'
p1989
sg4
S'20140223\xc2\xa03:24AM UTC'
p1990
sg6
S'UPDATE 2-One dead, 27 made ill by carbon monoxide at New York mall'
p1991
sa(dp1992
g2
S'http://www.reuters.com/article/2014/02/23/egypt-imports-rice-idUSL6N0LS04F20140223'
p1993
sg4
S'20140223\xc2\xa03:07AM UTC'
p1994
sg6
S'Egypt imports official suspected of corrupt rice deals, not wheat - ministry'
p1995
sa(dp1996
g2
S'http://www.reuters.com/article/2014/02/23/imageware-mwc-idUSnPnNYtTG5N+16d+PRN20140223'
p1997
sg4
S'20140223\xc2\xa03:01AM UTC'
p1998
sg6
S'ImageWare Systems To Feature GoMobile Interactive Multi-Modal Biometric Cloud Identity Management Services and More For Mobile Devices At Mobile World Congress 2014'
p1999
sa(dp2000
g2
S'http://www.reuters.com/article/2014/02/23/oaxis-inccase-mwc-idUSnPnNYtGf5M+169+PRN20140223'
p2001
sg4
S'20140223\xc2\xa03:00AM UTC'
p2002
sg6
S'Dual-Screen Era has Struck the World'
p2003
sa(dp2004
g2
S'http://www.reuters.com/article/2014/02/23/ny-accenture-idUSnBw235166a+100+BSW20140223'
p2005
sg4
S'20140223\xc2\xa03:00AM UTC'
p2006
sg6
S'Accenture and KPN Develop Google Glass\xe2\x84\xa2 Proof of Concept for Television Applications'
p2007
sa(dp2008
g2
S'http://www.reuters.com/article/2014/02/23/germany-energy-plants-idUSL6N0LR09D20140223'
p2009
sg4
S'20140223\xc2\xa03:00AM UTC'
p2010
sg6
S'German utilities should pool ailing hard coal plants, union says'
p2011
sa(dp2012
g2
S'http://www.reuters.com/article/2014/02/23/us-afghanistan-attack-idUSBREA1M06920140223'
p2013
sg4
S'20140223\xc2\xa02:54AM UTC'
p2014
sg6
S'Taliban attack kills 19 Afghan soldiers in eastern Afghanistan'
p2015
sa(dp2016
g2
S'http://www.reuters.com/article/2014/02/23/us-afghanistan-attack-karzai-idUSBREA1M07320140223'
p2017
sg4
S'20140223\xc2\xa02:54AM UTC'
p2018
sg6
S'Afghan leader postpones Sri Lanka visit over killing of soldiers'
p2019
sa(dp2020
g2
S'http://www.reuters.com/article/2014/02/23/sydney-dancing-event-idUSnPnHKtDR4w+16c+PRN20140223'
p2021
sg4
S'20140223\xc2\xa02:36AM UTC'
p2022
sg6
S'Sydney Sparkles as Baz Luhrmann Directs the Largest Outdoor Ballroom Dancing Event Ever Seen In Australia'
p2023
sa(dp2024
g2
S'http://www.reuters.com/article/2014/02/23/bkc-gonzaga-sandiego-recap-idUSMTZEA2NFUDIXU20140223'
p2025
sg4
S'20140223\xc2\xa02:27AM UTC'
p2026
sg6
S'San Diego 69, Gonzaga 66'
p2027
sa(dp2028
g2
S'http://www.reuters.com/article/2014/02/23/india-tatapower-idUSL3N0LS08S20140223'
p2029
sg4
S'20140223\xc2\xa02:24AM UTC'
p2030
sg6
S"Indian regulator allows compensation for Tata Power's Mundra plant"
p2031
sa(dp2032
g2
S'http://www.reuters.com/article/2014/02/23/mn-redbull-crashedice-idUSnPnLAtV444+168+PRN20140223'
p2033
sg4
S'20140223\xc2\xa02:12AM UTC'
p2034
sg6
S'Record Breaking Crowds In Saint Paul Cheer Americans To Finals'
p2035
sa(dp2036
g2
S'http://www.reuters.com/article/2014/02/23/us-tennis-men-delray-idUSBREA1M06P20140223'
p2037
sg4
S'20140223\xc2\xa02:03AM UTC'
p2038
sg6
S'Late-night Cilic sets up Anderson showdown in Florida'
p2039
sa(dp2040
g2
S'http://www.reuters.com/article/2014/02/23/ca-schneider-iprolens-idUSnPnNYtyV3R+165+PRN20140223'
p2041
sg4
S'20140223\xc2\xa02:00AM UTC'
p2042
sg6
S'iPro Lens System Now for iPhone 5, 5S, 4/4S, Galaxy S4, & iPads'
p2043
sa(dp2044
g2
S'http://www.reuters.com/article/2014/02/23/us-russia-blast-idUSBREA1M06G20140223'
p2045
sg4
S'20140223\xc2\xa01:55AM UTC'
p2046
sg6
S'Blast in Russia kills three, authorities suspect gas'
p2047
sa(dp2048
g2
S'http://www.reuters.com/article/2014/02/23/us-japan-defence-idUSBREA1M06320140223'
p2049
sg4
S'20140223\xc2\xa01:51AM UTC'
p2050
sg6
S'Japan drafts revision of arms exports ban: source'
p2051
sa(dp2052
g2
S'http://www.reuters.com/article/2014/02/23/japan-defence-idUSL3N0LS03220140223'
p2053
sg4
S'20140223\xc2\xa01:47AM UTC'
p2054
sg6
S'Japan drafts revision of arms exports ban -source'
p2055
sa(dp2056
g2
S'http://www.reuters.com/article/2014/02/23/bkn-nets-warriors-writethru-idUSMTZEA2NFQKLVS20140223'
p2057
sg4
S'20140223\xc2\xa01:44AM UTC'
p2058
sg6
S'Late run helps Warriors top Nets'
p2059
sa(dp2060
g2
S'http://www.reuters.com/article/2014/02/23/usa-newyork-carbonmonoxide-idUSL6N0LS02Z20140223'
p2061
sg4
S'20140223\xc2\xa01:39AM UTC'
p2062
sg6
S'UPDATE 1-One dead, 27 made ill by carbon monoxide at New York mall'
p2063
sa(dp2064
g2
S'http://www.reuters.com/article/2014/02/23/olympics-doping-austria-idUSL3N0LS08O20140223'
p2065
sg4
S'20140223\xc2\xa01:30AM UTC'
p2066
sg6
S'Olympics-Austrian athlete Duerr tests positive for EPO'
p2067
sa(dp2068
g2
S'http://www.reuters.com/article/2014/02/23/china-economy-cbank-idUSB9N0LF00C20140223'
p2069
sg4
S'20140223\xc2\xa01:25AM UTC'
p2070
sg6
S'China to aim for 7-8 pct economic growth -c.bank chief'
p2071
sa(dp2072
g2
S'http://www.reuters.com/article/2014/02/23/us-yemen-politics-analysis-idUSBREA1M05720140223'
p2073
sg4
S'20140223\xc2\xa01:22AM UTC'
p2074
sg6
S"Yemen's federal plan a bold idea, but many hurdles remain"
p2075
sa(dp2076
g2
S'http://www.reuters.com/article/2014/02/23/us-ukraine-eu-aid-idUSBREA1M05K20140223'
p2077
sg4
S'20140223\xc2\xa01:16AM UTC'
p2078
sg6
S"EU ready with 'substantial' financial aid to Ukraine"
p2079
sa(dp2080
g2
S'http://www.reuters.com/article/2014/02/23/ukraine-eu-aid-idUSL6N0LS02220140223'
p2081
sg4
S'20140223\xc2\xa01:11AM UTC'
p2082
sg6
S'EU ready with "substantial" financial aid to Ukraine'
p2083
sa(dp2084
g2
S'http://www.reuters.com/article/2014/02/23/bkn-celtics-kings-writethru-idUSMTZEA2NFPIBVE20140223'
p2085
sg4
S'20140223\xc2\xa012:59AM UTC'
p2086
sg6
S'Kings fend off Celtics'
p2087
sa(dp2088
g2
S'http://www.reuters.com/article/2014/02/23/emirates-gcic-axa-idUSL6N0LS01B20140223'
p2089
sg4
S'20140223\xc2\xa012:57AM UTC'
p2090
sg6
S"UPDATE 2-France's AXA to take major stake in UAE's Green Crescent Insurance"
p2091
sa(dp2092
g2
S'http://www.reuters.com/article/2014/02/23/bkc-temple-memphis-writethru-idUSMTZEA2NFO7GTY20140223'
p2093
sg4
S'20140223\xc2\xa012:47AM UTC'
p2094
sg6
S'Memphis overcomes Temple in OT'
p2095
sa(dp2096
g2
S'http://www.reuters.com/article/2014/02/23/us-naacp-idUSBREA1M04O20140223'
p2097
sg4
S'20140223\xc2\xa012:45AM UTC'
p2098
sg6
S'Actors Kevin Hart, Forest Whitaker are big winners at NAACP awards'
p2099
sa(dp2100
g2
S'http://www.reuters.com/article/2014/02/23/ca-napa-valley-vintners-idUSnBw225017a+100+BSW20140223'
p2101
sg4
S'20140223\xc2\xa012:23AM UTC'
p2102
sg6
S'Premiere Napa Valley Crushes Record Raising Nearly $6 Million'
p2103
sa(dp2104
g2
S'http://www.reuters.com/article/2014/02/23/film-naacp-idUSL2N0LS04Y20140223'
p2105
sg4
S'20140223\xc2\xa012:21AM UTC'
p2106
sg6
S'Actors Kevin Hart, Forest Whitaker are big winners at NAACP awards'
p2107
sa(dp2108
g2
S'http://www.reuters.com/article/2014/02/23/bkn-timberwolves-jazz-writethru-idUSMTZEA2NFM4HST20140223'
p2109
sg4
S'20140223\xc2\xa012:13AM UTC'
p2110
sg6
S'Timberwolves top Jazz with whole lot of Love'
p2111
sa(dp2112
g2
S'http://www.reuters.com/article/2014/02/23/people-vontrapp-idUSL2N0LS04T20140223'
p2113
sg4
S'20140223\xc2\xa012:11AM UTC'
p2114
sg6
S"Maria von Trapp of 'Sound of Music' fame dead at 99"
p2115
sa(dp2116
g2
S'http://www.reuters.com/article/2014/02/23/us-fox-bartiromo-idUSBREA1M04B20140223'
p2117
sg4
S'20140223\xc2\xa012:06AM UTC'
p2118
sg6
S"Fox's ratings hopes pinned on ex-CNBC anchor Bartiromo"
p2119
sa(dp2120
g2
S'http://www.reuters.com/article/2014/02/23/us-afghansitan-attack-idUSBREA1M04520140223'
p2121
sg4
S'20140223\xc2\xa012:04AM UTC'
p2122
sg6
S'Taliban attack kills 19 Afghan soldiers, more missing: official'
p2123
sa(dp2124
g2
S'http://www.reuters.com/article/2014/02/23/census-daily-feature-idUSnPnDCqv91+b0+PRN20140223'
p2125
sg4
S'20140223\xc2\xa012:01AM UTC'
p2126
sg6
S'U.S. Census Bureau Daily Feature for February 23'
p2127
sa(dp2128
g2
S'http://www.reuters.com/article/2014/02/23/fox-bartiromo-idUSL2N0LQ0H120140223'
p2129
sg4
S'20140223\xc2\xa012:00AM UTC'
p2130
sg6
S"Fox's ratings hopes pinned on ex-CNBC anchor Bartiromo"
p2131
sa(dp2132
g2
S'http://www.reuters.com/news/video/videoStory?storyID=79381517'
p2133
sg4
S'20140223\xc2\xa010:31PM UTC'
p2134
sg6
S'\xe3\x82\xa6\xe3\x82\xaf\xe3\x83\xa9\xe3\x82\xa4\xe3\x83\x8a\xe5\xa4\xa7\xe7\xb5\xb1\xe9\xa0\x98\xe9\x82\xb8\xe3\x81\xab\xe5\xb8\x82\xe6\xb0\x91\xe6\xae\xba\xe5\x88\xb0\xe3\x80\x81\xe8\xb4\x85\xe6\xb2\xa2\xe3\x81\xaa\xe6\x9a\xae\xe3\x82\x89\xe3\x81\x97\xe3\x81\xb6\xe3\x82\x8a\xe3\x81\x8c\xe6\x98\x8e\xe3\x82\x89\xe3\x81\x8b\xe3\x81\xab\xef\xbc\x88\xe5\xad\x97\xe5\xb9\x95\xe3\x83\xbb23\xe6\x97\xa5\xef\xbc\x89'
p2135
sa(dp2136
g2
S'http://www.reuters.com/news/video/videoStory?storyID=79381419'
p2137
sg4
S'20140223\xc2\xa010:27PM UTC'
p2138
sg6
S'\xe3\x82\xa6\xe3\x82\xaf\xe3\x83\xa9\xe3\x82\xa4\xe3\x83\x8a\xe6\x94\xbf\xe5\xa4\x89\xe3\x80\x81\xe6\xa8\xa9\xe5\x8a\x9b\xe8\xbf\xbd\xe3\x82\x8f\xe3\x82\x8c\xe3\x81\x9f\xe5\xa4\xa7\xe7\xb5\xb1\xe9\xa0\x98\xe3\x81\x8c\xe9\xa6\x96\xe9\x83\xbd\xe8\x84\xb1\xe5\x87\xba\xef\xbc\x88\xe5\xad\x97\xe5\xb9\x95\xe3\x83\xbb24\xe6\x97\xa5\xef\xbc\x89'
p2139
sa(dp2140
g2
S'http://www.reuters.com/news/video/videoStory?storyID=79380972'
p2141
sg4
S'20140223\xc2\xa010:16PM UTC'
p2142
sg6
S'\xe3\x82\xbd\xe3\x83\x81\xe4\xba\x94\xe8\xbc\xaa\xe3\x81\x8c\xe9\x96\x89\xe4\xbc\x9a\xe5\xbc\x8f\xe3\x80\x8117\xe6\x97\xa5\xe9\x96\x93\xe3\x81\xae\xe7\x86\xb1\xe6\x88\xa6\xe3\x81\xab\xe5\xb9\x95\xef\xbc\x88\xe5\xad\x97\xe5\xb9\x95\xe3\x83\xbb24\xe6\x97\xa5\xef\xbc\x89'
p2143
sa(dp2144
g2
S'http://www.reuters.com/news/video/videoStory?storyID=79381342'
p2145
sg4
S'20140223\xc2\xa010:15PM UTC'
p2146
sg6
S'Breakingviews: High hopes at the G20 - but can it deliver?'
p2147
sa(dp2148
g2
S'http://www.reuters.com/news/video/videoStory?storyID=79379937'
p2149
sg4
S'20140223\xc2\xa09:14PM UTC'
p2150
sg6
S'Openly-gay Collins signs with Nets, a first for the NBA'
p2151
sa(dp2152
g2
S'http://www.reuters.com/news/video/videoStory?storyID=79377521'
p2153
sg4
S'20140223\xc2\xa07:30PM UTC'
p2154
sg6
S'Violinist-turned skier Vanessa Mae has win of her own in Sochi'
p2155
sa(dp2156
g2
S'http://www.reuters.com/news/video/videoStory?storyID=79377679'
p2157
sg4
S'20140223\xc2\xa07:20PM UTC'
p2158
sg6
S'Ukrainians gather in D.C. to honor those killed back home'
p2159
sa(dp2160
g2
S'http://www.reuters.com/news/video/videoStory?storyID=79400984'
p2161
sg4
S'20140223\xc2\xa07:02PM UTC'
p2162
sg6
S'Family grieves for two children killed in Bangkok blast'
p2163
sa(dp2164
g2
S'http://www.reuters.com/news/video/videoStory?storyID=79371827'
p2165
sg4
S'20140223\xc2\xa05:38PM UTC'
p2166
sg6
S'Olympic Moments: Closing ceremonies in Sochi'
p2167
sa(dp2168
g2
S'http://www.reuters.com/news/video/videoStory?storyID=79370243'
p2169
sg4
S'20140223\xc2\xa04:10PM UTC'
p2170
sg6
S'Skies over Sochi lit up for Olympic closing ceremony'
p2171
sa(dp2172
g2
S'http://www.reuters.com/news/video/videoStory?storyID=79370874'
p2173
sg4
S'20140223\xc2\xa03:05PM UTC'
p2174
sg6
S"'Lego Movie' topples competition for third weekend straight"
p2175
sa(dp2176
g2
S'http://www.reuters.com/news/video/videoStory?storyID=79368773'
p2177
sg4
S'20140223\xc2\xa02:36PM UTC'
p2178
sg6
S'21-year-old American found in Italian train tunnel'
p2179
sa(dp2180
g2
S'http://www.reuters.com/news/video/videoStory?storyID=79368311'
p2181
sg4
S'20140223\xc2\xa02:20PM UTC'
p2182
sg6
S'Blood, sandals on street as bomb kills two, wounds 22 in Thai capital'
p2183
sa(dp2184
g2
S'http://www.reuters.com/news/video/videoStory?storyID=79366657'
p2185
sg4
S'20140223\xc2\xa012:52PM UTC'
p2186
sg6
S'Doping test sends Austrian skier home before last day in Sochi'
p2187
sa(dp2188
g2
S'http://www.reuters.com/news/video/videoStory?storyID=79366103'
p2189
sg4
S'20140223\xc2\xa012:15PM UTC'
p2190
sg6
S'Yanukovich departs Kiev by helicopter as parliament forms new government'
p2191
sa(dp2192
g2
S'http://www.reuters.com/news/video/videoStory?storyID=79359004'
p2193
sg4
S'20140223\xc2\xa08:06AM UTC'
p2194
sg6
S"Russia's Putin marks the Defender of the Fatherland Day"
p2195
sa(dp2196
g2
S'http://www.reuters.com/news/video/videoStory?storyID=79356385'
p2197
sg4
S'20140223\xc2\xa06:23AM UTC'
p2198
sg6
S'Wary Ukrainian protesters remain at barricades after day of political upheaval'
p2199
sa(dp2200
g2
S'http://www.reuters.com/news/video/videoStory?storyID=79356173'
p2201
sg4
S'20140223\xc2\xa06:19AM UTC'
p2202
sg6
S"Last of 'Sound of Music' von Trapp singers dies at 99"
p2203
sa(dp2204
g2
S'http://www.reuters.com/news/video/videoStory?storyID=79354395'
p2205
sg4
S'20140223\xc2\xa05:01AM UTC'
p2206
sg6
S'At least one killed and 41 wounded in attack on Thai protest rally.'
p2207
sa(dp2208
g2
S'http://www.reuters.com/news/video/videoStory?storyID=79354607'
p2209
sg4
S'20140223\xc2\xa04:51AM UTC'
p2210
sg6
S'China fells steel furnaces'
p2211
sa(dp2212
g2
S'http://www.reuters.com/news/video/videoStory?storyID=79353146'
p2213
sg4
S'20140223\xc2\xa03:22AM UTC'
p2214
sg6
S'Blast targets Lebanon army post'
p2215
sa(dp2216
g2
S'http://www.reuters.com/news/video/videoStory?storyID=79351906'
p2217
sg4
S'20140223\xc2\xa01:40AM UTC'
p2218
sg6
S"Mexico hails capture of top drug lord 'Shorty' Guzman"
p2219
sa.