(lp0
(dp1
S'href'
p2
S'http://www.reuters.com/article/2014/07/14/us-usa-disney-monorail-idUSKBN0FJ09G20140714'
p3
sS'ts'
p4
S'20140713\xc2\xa011:49PM UTC'
p5
sS'title'
p6
S'Disney World monorail in Florida evacuated, no injuries: TV news'
p7
sa(dp8
g2
S'http://www.reuters.com/article/2014/07/14/us-southkorea-economy-intervention-idUSKBN0FJ09820140714'
p9
sg4
S'20140713\xc2\xa011:46PM UTC'
p10
sg6
S'South Korea quietly intervenes on the won to bolster economy '
p11
sa(dp12
g2
S'http://www.reuters.com/article/2014/07/14/india-press-pharmaceuticals-prices-idUSL4N0PP0XI20140714'
p13
sg4
S'20140713\xc2\xa011:45PM UTC'
p14
sg6
S'INDIA PRESS-Major diabetes, cardiac drugs to become up to 35 pct cheaper - The Times of India'
p15
sa(dp16
g2
S'http://www.reuters.com/article/2014/07/14/us-china-electriccar-idUSKBN0FJ08Y20140714'
p17
sg4
S'20140713\xc2\xa011:36PM UTC'
p18
sg6
S'China urges local governments to buy more new-energy cars'
p19
sa(dp20
g2
S'http://www.reuters.com/article/2014/07/14/china-electriccar-idUSL4N0PP0QM20140714'
p21
sg4
S'20140713\xc2\xa011:34PM UTC'
p22
sg6
S'China urges local govts to buy more new-energy cars'
p23
sa(dp24
g2
S'http://www.reuters.com/article/2014/07/14/china-fiscal-idUSB9N0P602920140714'
p25
sg4
S'20140713\xc2\xa011:14PM UTC'
p26
sg6
S"China's June fiscal spending jumps 26.1 pct y/y"
p27
sa(dp28
g2
S'http://www.reuters.com/article/2014/07/14/india-press-itc-idUSL4N0PP0QK20140714'
p29
sg4
S'20140713\xc2\xa011:01PM UTC'
p30
sg6
S"INDIA PRESS-ITC Hotels close to buying Advani Hotels' property in Goa - Economic Times"
p31
sa(dp32
g2
S'http://www.reuters.com/article/2014/07/14/mideast-factors-idUSL6N0PP0QZ20140714'
p33
sg4
S'20140713\xc2\xa011:00PM UTC'
p34
sg6
S'MIDEAST STOCKS - Factors to watch - July 14'
p35
sa(dp36
g2
S'http://www.reuters.com/article/2014/07/14/southkorea-economy-cash-idUSL4N0PP0O820140714'
p37
sg4
S'20140713\xc2\xa010:59PM UTC'
p38
sg6
S'South Korea studying ways to funnel corporate cash into economy'
p39
sa(dp40
g2
S'http://www.reuters.com/article/2014/07/14/us-golf-seniors-playoff-idUSKBN0FI13N20140714'
p41
sg4
S'20140713\xc2\xa010:57PM UTC'
p42
sg6
S'Montgomerie wins U.S. Senior Open in playoff'
p43
sa(dp44
g2
S'http://www.reuters.com/article/2014/07/14/us-usa-fire-newyork-idUSKBN0FJ07820140714'
p45
sg4
S'20140713\xc2\xa010:52PM UTC'
p46
sg6
S'Six people injured when camera catches fire at 30 Rockefeller Plaza'
p47
sa(dp48
g2
S'http://www.reuters.com/article/2014/07/14/morningcall-india-idUSL4N0PP0P420140714'
p49
sg4
S'20140713\xc2\xa010:47PM UTC'
p50
sg6
S'India Morning Call-Global Markets'
p51
sa(dp52
g2
S'http://www.reuters.com/article/2014/07/14/markets-japan-jgb-idUSL4N0PP0PG20140714'
p53
sg4
S'20140713\xc2\xa010:47PM UTC'
p54
sg6
S'JGBs dip slightly, benchmark 10-yr bonds untraded'
p55
sa(dp56
g2
S'http://www.reuters.com/article/2014/07/14/us-xl-axiata-solusi-tunas-idUSKBN0FJ07020140714'
p57
sg4
S'20140713\xc2\xa010:46PM UTC'
p58
sg6
S"Indonesia's Solusi Tunas may bid for XL Axiata's assets: CEO"
p59
sa(dp60
g2
S'http://www.reuters.com/article/2014/07/14/markets-australia-stocks-idUSL4N0PP0O920140714'
p61
sg4
S'20140713\xc2\xa010:46PM UTC'
p62
sg6
S'Australia shares rise 0.5 pct in broad rally, gains seen limited'
p63
sa(dp64
g2
S'http://www.reuters.com/article/2014/07/14/xl-axiata-solusi-tunas-idUSL4N0PP0NF20140714'
p65
sg4
S'20140713\xc2\xa010:44PM UTC'
p66
sg6
S"Indonesia's Solusi Tunas may bid for XL Axiata's assets-CEO"
p67
sa(dp68
g2
S'http://www.reuters.com/article/2014/07/14/idUSnMKWWhMvRa+1ea+MKW20140714'
p69
sg4
S'20140713\xc2\xa010:42PM UTC'
p70
sg6
S"Epion Health Partners With athenahealth to Bring Digital Check-In and Patient Engagement to the Doctor's Office"
p71
sa(dp72
g2
S'http://www.reuters.com/article/2014/07/14/markets-japan-stocks-idUSL4N0PM3G620140714'
p73
sg4
S'20140713\xc2\xa010:40PM UTC'
p74
sg6
S'Nikkei rises as retail buyers snap up small caps, but institutions wary'
p75
sa(dp76
g2
S'http://www.reuters.com/article/2014/07/14/us-climatechange-australia-wine-idUSKBN0FI10K20140714'
p77
sg4
S'20140713\xc2\xa010:38PM UTC'
p78
sg6
S'Climate change signals the end of Australian shiraz as we know it'
p79
sa(dp80
g2
S'http://www.reuters.com/article/2014/07/14/us-samsung-sdi-batteries-idUSKBN0FJ06A20140714'
p81
sg4
S'20140713\xc2\xa010:21PM UTC'
p82
sg6
S'Samsung SDI to expand output capacity for car batteries this year: executive'
p83
sa(dp84
g2
S'http://www.reuters.com/article/2014/07/14/russell-stover-lindt-spruengl-idUSL2N0PP02G20140714'
p85
sg4
S'20140713\xc2\xa010:19PM UTC'
p86
sg6
S'Lindt close to deal to buy Russell Stover -source'
p87
sa(dp88
g2
S'http://www.reuters.com/article/2014/07/14/samsung-sdi-batteries-idUSnL4N0PP0B20140714'
p89
sg4
S'20140713\xc2\xa010:19PM UTC'
p90
sg6
S'Samsung SDI to expand output capacity for car batteries this yr - exec'
p91
sa(dp92
g2
S'http://www.reuters.com/article/2014/07/14/vietnam-press-idUSL4N0PP0JR20140714'
p93
sg4
S'20140713\xc2\xa010:14PM UTC'
p94
sg6
S'VIETNAM PRESS-Thai firm to build $2.3 bln power plant in Vietnam - Vietnam Economic Times'
p95
sa(dp96
g2
S'http://www.reuters.com/article/2014/07/14/us-usa-airindia-new-jersey-idUSKBN0FI18S20140714'
p97
sg4
S'20140713\xc2\xa010:11PM UTC'
p98
sg6
S'Air India flight returns to New Jersey airport after engine trouble'
p99
sa(dp100
g2
S'http://www.reuters.com/article/2014/07/14/pve-weekly-idUSL4N0PI26020140714'
p101
sg4
S'20140713\xc2\xa010:10PM UTC'
p102
sg6
S'Asia Private Equity Weekly News, July 14, 2014'
p103
sa(dp104
g2
S'http://www.reuters.com/article/2014/07/14/us-usa-shooting-connecticut-idUSKBN0FJ05O20140714'
p105
sg4
S'20140713\xc2\xa010:09PM UTC'
p106
sg6
S'Man charged with shooting five people after Connecticut bar fight'
p107
sa(dp108
g2
S'http://www.reuters.com/article/2014/07/14/us-swimming-phelps-idUSKBN0FJ05A20140714'
p109
sg4
S'20140713\xc2\xa010:03PM UTC'
p110
sg6
S'Swimming-Phelps beaten by Agnel in slow 100m freestyle'
p111
sa(dp112
g2
S'http://www.reuters.com/article/2014/07/14/vietnam-press-vietcombank-idUSL4N0PP0HB20140714'
p113
sg4
S'20140713\xc2\xa010:00PM UTC'
p114
sg6
S"VIETNAM PRESS-Vietcombank's H1 gross profit after provisions up 7 pct - Dau Tu"
p115
sa(dp116
g2
S'http://www.reuters.com/article/2014/07/14/idUSnMKWdm6Vya+1c4+MKW20140714'
p117
sg4
S'20140713\xc2\xa010:00PM UTC'
p118
sg6
S'Datacolor Announces Match(R) Pigment 3.0'
p119
sa(dp120
g2
S'http://www.reuters.com/article/2014/07/14/ntt-communications-idUSnBw135037a+100+BSW20140714'
p121
sg4
S'20140713\xc2\xa010:00PM UTC'
p122
sg6
S'NTT Communications Placed Among Champions in APAC Unified Communications-as-a-Service Providers Frost IQ Matrix<9432.T>'
p123
sa(dp124
g2
S'http://www.reuters.com/article/2014/07/14/china-gsk-investigators-idUSB9N0O701G20140714'
p125
sg4
S'20140713\xc2\xa09:57PM UTC'
p126
sg6
S'China charges GSK-linked investigators for illegally obtaining private information'
p127
sa(dp128
g2
S'http://www.reuters.com/article/2014/07/14/eig-global-new-compan-idUSnPn12CdW0+8a+PRN20140714'
p129
sg4
S'20140713\xc2\xa09:49PM UTC'
p130
sg6
S'Noble Group And EIG Form New Energy Company'
p131
sa(dp132
g2
S'http://www.reuters.com/article/2014/07/14/indonesia-press-cowell-idUSL4N0PP0F220140714'
p133
sg4
S'20140713\xc2\xa09:38PM UTC'
p134
sg6
S'INDONESIA PRESS-Property developer Cowell buys nearly 85 pct in Nusantara Prospekindo-Kontan'
p135
sa(dp136
g2
S'http://www.reuters.com/article/2014/07/14/barclays-asiapac-idUSL4N0PK31G20140714'
p137
sg4
S'20140713\xc2\xa09:32PM UTC'
p138
sg6
S'Barclays names Kwan co-head of investment banking Asia-Pacific -memo'
p139
sa(dp140
g2
S'http://www.reuters.com/article/2014/07/14/us-people-scaife-idUSKBN0FI0XA20140714'
p141
sg4
S'20140713\xc2\xa09:29PM UTC'
p142
sg6
S"Pittsburgh billionaire' s will sheds little light on his wealth"
p143
sa(dp144
g2
S'http://www.reuters.com/article/2014/07/14/woolworths-hld-david-jones-vote-idUSS9N0OD02G20140714'
p145
sg4
S'20140713\xc2\xa09:26PM UTC'
p146
sg6
S"Australia's David Jones shareholders back S.African Woolworths bid"
p147
sa(dp148
g2
S'http://www.reuters.com/article/2014/07/14/us-tennis-men-fame-idUSKBN0FI11A20140714'
p149
sg4
S'20140713\xc2\xa09:26PM UTC'
p150
sg6
S'Hewitt beats Karlovic to win 30th career title'
p151
sa(dp152
g2
S'http://www.reuters.com/article/2014/07/14/philippines-press-smprime-idUSL4N0PP0BL20140714'
p153
sg4
S'20140713\xc2\xa09:16PM UTC'
p154
sg6
S'PHILIPPINES PRESS-SM Prime to open 12 new malls - Standard Today'
p155
sa(dp156
g2
S'http://www.reuters.com/article/2014/07/14/retailstocks-idUSL2N0PP01720140714'
p157
sg4
S'20140713\xc2\xa09:12PM UTC'
p158
sg6
S"Some U.S. retail stocks could rise -Barron's"
p159
sa(dp160
g2
S'http://www.reuters.com/article/2014/07/14/idUSnHUG8xP0ga+1c8+ONE20140714'
p161
sg4
S'20140713\xc2\xa09:08PM UTC'
p162
sg6
S'Transocean Ltd. Announces Extraordinary General Meeting'
p163
sa(dp164
g2
S'http://www.reuters.com/article/2014/07/14/bbo-diamondbacks-giants-recap-idUSMTZEA7EOBBMR820140714'
p165
sg4
S'20140713\xc2\xa09:05PM UTC'
p166
sg6
S'Giants 8, Diamondbacks 4'
p167
sa(dp168
g2
S'http://www.reuters.com/article/2014/07/14/beats-naomi-campbell-idUSnPn8hzRh5+84+PRN20140714'
p169
sg4
S'20140713\xc2\xa09:05PM UTC'
p170
sg6
S"Beats by Dr. Dre go Golden to celebrate Germany's Victory"
p171
sa(dp172
g2
S'http://www.reuters.com/article/2014/07/14/bbo-padres-dodgers-writethru-idUSMTZEA7EOC5GSU20140714'
p173
sg4
S'20140713\xc2\xa08:59PM UTC'
p174
sg6
S'Dodgers beat Padres 1-0 for second game in row'
p175
sa(dp176
g2
S'http://www.reuters.com/article/2014/07/14/us-soccer-world-brazil-fans-idUSKBN0FJ02R20140714'
p177
sg4
S'20140713\xc2\xa08:57PM UTC'
p178
sg6
S'Brazil celebrates German victory as drubbing is forgiven'
p179
sa(dp180
g2
S'http://www.reuters.com/article/2014/07/14/us-soccer-world-germany-celebrations-idUSKBN0FJ02J20140714'
p181
sg4
S'20140713\xc2\xa08:54PM UTC'
p182
sg6
S'Germans revel in first World Cup win in 24 years'
p183
sa(dp184
g2
S'http://www.reuters.com/article/2014/07/14/us-soccer-world-m64-ger-arg-loew-idUSKBN0FJ02H20140714'
p185
sg4
S'20140713\xc2\xa08:52PM UTC'
p186
sg6
S"Germany's World Cup triumph was 10 years in the making: Loew"
p187
sa(dp188
g2
S'http://www.reuters.com/article/2014/07/14/press-digest-china-idUSL4N0PO0X820140714'
p189
sg4
S'20140713\xc2\xa08:50PM UTC'
p190
sg6
S'PRESS DIGEST - China - July 14'
p191
sa(dp192
g2
S'http://www.reuters.com/article/2014/07/14/uk-soccer-world-m64-ger-ratings-idUSKBN0FJ02320140714'
p193
sg4
S'20140713\xc2\xa08:50PM UTC'
p194
sg6
S'Germany player ratings'
p195
sa(dp196
g2
S'http://www.reuters.com/article/2014/07/14/us-soccer-world-m64-arg-ratings-idUSKBN0FJ02920140714'
p197
sg4
S'20140713\xc2\xa08:50PM UTC'
p198
sg6
S'Argentina player ratings'
p199
sa(dp200
g2
S'http://www.reuters.com/article/2014/07/14/markets-precious-idUSL4N0PP05920140714'
p201
sg4
S'20140713\xc2\xa08:45PM UTC'
p202
sg6
S'PRECIOUS-Gold steady near 4-month high on safe-haven demand'
p203
sa(dp204
g2
S'http://www.reuters.com/article/2014/07/14/us-soccer-world-messi-idUSKBN0FJ01V20140714'
p205
sg4
S'20140713\xc2\xa08:43PM UTC'
p206
sg6
S'Muted not magical, Messi misses again'
p207
sa(dp208
g2
S'http://www.reuters.com/article/2014/07/14/soccer-world-germany-celebrations-idUSL6N0PO1QG20140714'
p209
sg4
S'20140713\xc2\xa08:40PM UTC'
p210
sg6
S'Soccer-Germans revel in first World Cup win in 24 years'
p211
sa(dp212
g2
S'http://www.reuters.com/article/2014/07/14/us-soccer-world-m64-ger-arg-loew-goetze-idUSKBN0FJ01N20140714'
p213
sg4
S'20140713\xc2\xa08:39PM UTC'
p214
sg6
S"Goetze is Germany's wonder boy, says coach Loew"
p215
sa(dp216
g2
S'http://www.reuters.com/article/2014/07/14/malaysia-press-realestate-idUSL4N0PP05G20140714'
p217
sg4
S'20140713\xc2\xa08:36PM UTC'
p218
sg6
S"MALAYSIA PRESS-Dubai's Emaar Group to invest in Iskandar with $5.66 bln GDV project- Business Times"
p219
sa(dp220
g2
S'http://www.reuters.com/article/2014/07/14/us-baseball-roundup-idUSKBN0FJ01J20140714'
p221
sg4
S'20140713\xc2\xa08:35PM UTC'
p222
sg6
S'Major League Baseball roundup'
p223
sa(dp224
g2
S'http://www.reuters.com/article/2014/07/14/markets-global-idUSL4N0PO0LW20140714'
p225
sg4
S'20140713\xc2\xa08:34PM UTC'
p226
sg6
S'GLOBAL MARKETS-Asian shares nudge higher, oil nurses losses'
p227
sa(dp228
g2
S'http://www.reuters.com/article/2014/07/14/us-soccer-world-goldenball-idUSKBN0FI15S20140714'
p229
sg4
S'20140713\xc2\xa08:34PM UTC'
p230
sg6
S'Messi wins Golden Ball, Rodriguez top scorer'
p231
sa(dp232
g2
S'http://www.reuters.com/article/2014/07/14/johnson-controls-idUSL2N0PP00H20140714'
p233
sg4
S'20140713\xc2\xa08:33PM UTC'
p234
sg6
S"Johnson Controls shares could rise 20 pct -Barron's"
p235
sa(dp236
g2
S'http://www.reuters.com/article/2014/07/14/bbo-angels-rangers-writethru-idUSMTZEA7DOAJ8AZ20140714'
p237
sg4
S'20140713\xc2\xa08:32PM UTC'
p238
sg6
S'Streaking Angels sweep Rangers'
p239
sa(dp240
g2
S'http://www.reuters.com/article/2014/07/14/us-libya-security-un-idUSKBN0FJ01720140714'
p241
sg4
S'20140713\xc2\xa08:29PM UTC'
p242
sg6
S'U.N. temporarily moves some international staff out of Libya'
p243
sa(dp244
g2
S'http://www.reuters.com/article/2014/07/14/us-airshow-britain-missiledefense-idUSKBN0FJ01320140714'
p245
sg4
S'20140713\xc2\xa08:27PM UTC'
p246
sg6
S'Pentagon weighing options for missile defense: Undersecretary Kendall'
p247
sa(dp248
g2
S'http://www.reuters.com/article/2014/07/14/atk-antares-rocket-idUSnPnbY946m+90+PRN20140714'
p249
sg4
S'20140713\xc2\xa08:24PM UTC'
p250
sg6
S"ATK Motor Supports Orbital's Second Antares\xe2\x84\xa2 Commercial Resupply Mission to International Space Station"
p251
sa(dp252
g2
S'http://www.reuters.com/article/2014/07/14/libya-security-un-idUSL2N0PP00E20140714'
p253
sg4
S'20140713\xc2\xa08:22PM UTC'
p254
sg6
S'U.N. temporarily moves some international staff out of Libya'
p255
sa(dp256
g2
S'http://www.reuters.com/article/2014/07/14/britain-press-business-idUSL4N0PO0ES20140714'
p257
sg4
S'20140713\xc2\xa08:12PM UTC'
p258
sg6
S'PRESS DIGEST- British Business - July 14'
p259
sa(dp260
g2
S'http://www.reuters.com/article/2014/07/14/us-soccer-world-m64-ger-arg-goetze-idUSKBN0FI17F20140714'
p261
sg4
S'20140713\xc2\xa08:11PM UTC'
p262
sg6
S"Goetze will never again be Germany's forgotten man"
p263
sa(dp264
g2
S'http://www.reuters.com/article/2014/07/14/airshow-britain-missiledefense-idUSL2N0PO0RX20140714'
p265
sg4
S'20140713\xc2\xa08:10PM UTC'
p266
sg6
S'Pentagon weighing options for missile defense -Undersecretary Kendall'
p267
sa(dp268
g2
S'http://www.reuters.com/article/2014/07/14/bbo-twins-rockies-recap-idUSMTZEA7EOCKMTF20140714'
p269
sg4
S'20140713\xc2\xa08:10PM UTC'
p270
sg6
S'Twins 13, Rockies 5'
p271
sa(dp272
g2
S'http://www.reuters.com/article/2014/07/14/us-soccer-world-m64-ger-arg-sabella-idUSKBN0FI13720140714'
p273
sg4
S'20140713\xc2\xa08:06PM UTC'
p274
sg6
S"Argentina 'lacked efficiency' in front of goal"
p275
sa(dp276
g2
S'http://www.reuters.com/article/2014/07/14/diary-emrg-econ-idUSL4N0PM3XV20140714'
p277
sg4
S'20140713\xc2\xa08:02PM UTC'
p278
sg6
S'DIARY - Emerging Markets Economic Events to July 25'
p279
sa(dp280
g2
S'http://www.reuters.com/article/2014/07/14/us-usa-corpse-pennsylvania-idUSKBN0FJ00320140714'
p281
sg4
S'20140713\xc2\xa08:01PM UTC'
p282
sg6
S"Corpse slips out of Pennsylvania coroner's vehicle onto street"
p283
sa(dp284
g2
S'http://www.reuters.com/article/2014/07/14/diary-top-econ-idUSL4N0PM3XT20140714'
p285
sg4
S'20140713\xc2\xa08:01PM UTC'
p286
sg6
S'DIARY - Top economic Events to July 24'
p287
sa(dp288
g2
S'http://www.reuters.com/article/2014/07/13/us-golf-pga-idUSKBN0FI13F20140713'
p289
sg4
S'20140713\xc2\xa07:59PM UTC'
p290
sg6
S'Harman British Open bound after winning in Illinois'
p291
sa(dp292
g2
S'http://www.reuters.com/article/2014/07/13/ap-alternative-assets-idUSnBw135036a+100+BSW20140713'
p293
sg4
S'20140713\xc2\xa07:59PM UTC'
p294
sg6
S'AP Alternative Assets Announces Annual Unitholders Meeting Scheduled for August 8, 2014'
p295
sa(dp296
g2
S'http://www.reuters.com/article/2014/07/13/us-soccer-world-m64-ger-arg-analysis-idUSKBN0FI19620140713'
p297
sg4
S'20140713\xc2\xa07:58PM UTC'
p298
sg6
S"Germany's strength in depth delivers ultimate prize"
p299
sa(dp300
g2
S'http://www.reuters.com/article/2014/07/13/bbo-padres-dodgers-recap-idUSMTZEA7EOC5GSU20140713'
p301
sg4
S'20140713\xc2\xa07:56PM UTC'
p302
sg6
S'Dodgers 1, Padres 0'
p303
sa(dp304
g2
S'http://www.reuters.com/article/2014/07/13/bbo-twins-rockies-recap-idUSMTZEA7EOCKMTF20140713'
p305
sg4
S'20140713\xc2\xa07:53PM UTC'
p306
sg6
S'Twins 13, Rockies 5'
p307
sa(dp308
g2
S'http://www.reuters.com/article/2014/07/13/us-markets-forex-idUSKBN0FD1J820140713'
p309
sg4
S'20140713\xc2\xa07:47PM UTC'
p310
sg6
S'Dollar steady in subdued market as key events loom'
p311
sa(dp312
g2
S'http://www.reuters.com/article/2014/07/13/bbo-diamondbacks-giants-recap-idUSMTZEA7EOBBMR820140713'
p313
sg4
S'20140713\xc2\xa07:46PM UTC'
p314
sg6
S'Giants 8, Diamondbacks 4'
p315
sa(dp316
g2
S'http://www.reuters.com/article/2014/07/13/us-usa-airindia-new-jersey-idUSKBN0FI18S20140713'
p317
sg4
S'20140713\xc2\xa07:46PM UTC'
p318
sg6
S'Air India flight returns to New Jersey airport after bird strike'
p319
sa(dp320
g2
S'http://www.reuters.com/article/2014/07/13/bbo-angels-rangers-writethru-idUSMTZEA7DOAJ8AZ20140713'
p321
sg4
S'20140713\xc2\xa07:42PM UTC'
p322
sg6
S'Streaking Angels sweep Rangers'
p323
sa(dp324
g2
S'http://www.reuters.com/article/2014/07/13/bbo-athletics-mariners-recap-idUSMTZEA7EOAO7R120140713'
p325
sg4
S'20140713\xc2\xa07:37PM UTC'
p326
sg6
S'Athletics 4, Mariners 1'
p327
sa(dp328
g2
S'http://www.reuters.com/article/2014/07/13/us-palestinians-israel-lebanon-retaliati-idUSKBN0FI14B20140713'
p329
sg4
S'20140713\xc2\xa07:30PM UTC'
p330
sg6
S'Rockets fired at Israel from Lebanon, drawing Israeli fire'
p331
sa(dp332
g2
S'http://www.reuters.com/article/2014/07/13/us-palestinians-israel-idUSKBN0FI04420140713'
p333
sg4
S'20140713\xc2\xa07:30PM UTC'
p334
sg6
S'Israel holds off on escalating Gaza barrage; West wants truce'
p335
sa(dp336
g2
S'http://www.reuters.com/article/2014/07/13/markets-forex-idUSL4N0PO0QZ20140713'
p337
sg4
S'20140713\xc2\xa07:25PM UTC'
p338
sg6
S'FOREX-Dollar steady in subdued market as key events loom'
p339
sa(dp340
g2
S'http://www.reuters.com/article/2014/07/13/us-soccer-world-m64-arg-ger-neuer-idUSKBN0FI14120140713'
p341
sg4
S'20140713\xc2\xa07:23PM UTC'
p342
sg6
S"Team spirit behind World Cup win, says Germany's Neuer"
p343
sa(dp344
g2
S'http://www.reuters.com/article/2014/07/13/us-soccer-world-m64-ger-arg-goetze-idUSKBN0FI17F20140713'
p345
sg4
S'20140713\xc2\xa07:22PM UTC'
p346
sg6
S"Goetze will never now be Germany's forgotten man"
p347
sa(dp348
g2
S'http://www.reuters.com/article/2014/07/13/bbo-nationals-phillies-writethru-idUSMTZEA7DO4I52C20140713'
p349
sg4
S'20140713\xc2\xa07:22PM UTC'
p350
sg6
S'Nationals top Phillies at Citizens Bank Park'
p351
sa(dp352
g2
S'http://www.reuters.com/article/2014/07/13/us-nba-roundup-idUSKBN0FI17720140713'
p353
sg4
S'20140713\xc2\xa07:20PM UTC'
p354
sg6
S'National Basketball Association roundup'
p355
sa(dp356
g2
S'http://www.reuters.com/article/2014/07/13/us-soccer-world-goldenball-idUSKBN0FI15S20140713'
p357
sg4
S'20140713\xc2\xa07:19PM UTC'
p358
sg6
S"Messi wins Golden Ball as World Cup's best player"
p359
sa(dp360
g2
S'http://www.reuters.com/article/2014/07/13/us-golf-seniors-playoff-idUSKBN0FI13N20140713'
p361
sg4
S'20140713\xc2\xa07:18PM UTC'
p362
sg6
S'Montgomerie wins U.S. Senior Open in playoff'
p363
sa(dp364
g2
S'http://www.reuters.com/article/2014/07/13/us-britain-defence-idUSKBN0FI16Z20140713'
p365
sg4
S'20140713\xc2\xa07:17PM UTC'
p366
sg6
S'Britain to detail $1.9 billion investment in defense'
p367
sa(dp368
g2
S'http://www.reuters.com/article/2014/07/13/us-funds-report-sungard-idUSKBN0FI16T20140713'
p369
sg4
S'20140713\xc2\xa07:16PM UTC'
p370
sg6
S'Competition forcing funds to scrabble for new territory: survey'
p371
sa(dp372
g2
S'http://www.reuters.com/article/2014/07/13/markets-australia-stocks-idUSL4N0PO0P620140713'
p373
sg4
S'20140713\xc2\xa07:16PM UTC'
p374
sg6
S'Australia shares seen steady, copper prices may weigh'
p375
sa(dp376
g2
S'http://www.reuters.com/article/2014/07/13/idUS216223453820140713'
p377
sg4
S'20140713\xc2\xa07:14PM UTC'
p378
sg6
S'German soccer glory was predictable \xe2\x80\x93 with luck'
p379
sa(dp380
g2
S'http://www.reuters.com/article/2014/07/13/us-usa-transit-pennsylvania-idUSKBN0FI16R20140713'
p381
sg4
S'20140713\xc2\xa07:12PM UTC'
p382
sg6
S'Several injured after Philadelphia bus flips on side in crash'
p383
sa(dp384
g2
S'http://www.reuters.com/article/2014/07/13/bbo-redsox-astros-writethru-idUSMTZEA7DO7A17F20140713'
p385
sg4
S'20140713\xc2\xa07:12PM UTC'
p386
sg6
S'Buchholz tosses 3-hitter as Red Sox rout Astros'
p387
sa(dp388
g2
S'http://www.reuters.com/article/2014/07/13/us-egypt-blast-sinai-idUSKBN0FI12720140713'
p389
sg4
S'20140713\xc2\xa07:11PM UTC'
p390
sg6
S"Eight killed in blasts in Egypt's Sinai region"
p391
sa(dp392
g2
S'http://www.reuters.com/article/2014/07/13/us-grossman-jc-penney-idUSKBN0FI16M20140713'
p393
sg4
S'20140713\xc2\xa07:10PM UTC'
p394
sg6
S'HSN CEO Grossman declined offer to run JCPenney: WSJ'
p395
sa(dp396
g2
S'http://www.reuters.com/article/2014/07/13/bc-world-cup-louis-vuitt-idUSnPn96c2k0+80+PRN20140713'
p397
sg4
S'20140713\xc2\xa07:09PM UTC'
p398
sg6
S'The Trophy Enters the Pitch in the Official Louis Vuitton Trunk, Escorted by Gisele B\xc3\xbcndchen and 2010 FIFA World Cup Champion Carles Puyol'
p399
sa(dp400
g2
S'http://www.reuters.com/article/2014/07/13/idUS51206580120140713'
p401
sg4
S'20140713\xc2\xa07:08PM UTC'
p402
sg6
S'If only Argentine economy matched soccer success'
p403
sa(dp404
g2
S'http://www.reuters.com/article/2014/07/13/bbo-braves-cubs-writethru-idUSMTZEA7DO7F37W20140713'
p405
sg4
S'20140713\xc2\xa07:06PM UTC'
p406
sg6
S'Braves jump on Cubs, hold on for win'
p407
sa(dp408
g2
S'http://www.reuters.com/article/2014/07/13/funds-report-sungard-idUSL6N0PM2FA20140713'
p409
sg4
S'20140713\xc2\xa07:01PM UTC'
p410
sg6
S'Competition forcing funds to scrabble for new territory -survey'
p411
sa(dp412
g2
S'http://www.reuters.com/article/2014/07/13/britain-defence-idUSL6N0PO10S20140713'
p413
sg4
S'20140713\xc2\xa07:01PM UTC'
p414
sg6
S'Britain to detail $1.9 bln investment in defence'
p415
sa(dp416
g2
S'http://www.reuters.com/article/2014/07/13/bbo-marlins-mets-writethru-idUSMTZEA7DO46D2A20140713'
p417
sg4
S'20140713\xc2\xa06:55PM UTC'
p418
sg6
S'Mets complete impressive homestand with win over Marlins'
p419
sa(dp420
g2
S'http://www.reuters.com/article/2014/07/13/us-airshow-britain-idUSKBN0FI15W20140713'
p421
sg4
S'20140713\xc2\xa06:51PM UTC'
p422
sg6
S'Airbus jet re-launch heralds busy aerospace show'
p423
sa(dp424
g2
S'http://www.reuters.com/article/2014/07/13/us-soccer-world-m64-ger-arg-halftime-idUSKBN0FI0Z720140713'
p425
sg4
S'20140713\xc2\xa06:45PM UTC'
p426
sg6
S'Magical Goetze eclipses Messi as Germany win Cup '
p427
sa(dp428
g2
S'http://www.reuters.com/article/2014/07/13/grossman-jc-penney-idUSL2N0PO0PK20140713'
p429
sg4
S'20140713\xc2\xa06:43PM UTC'
p430
sg6
S'HSN CEO Grossman declined offer to run JCPenney -WSJ'
p431
sa(dp432
g2
S'http://www.reuters.com/article/2014/07/13/bbo-tigers-royals-writethru-idUSMTZEA7DO62U6220140713'
p433
sg4
S'20140713\xc2\xa06:40PM UTC'
p434
sg6
S'Royals rally for win over Tigers'
p435
sa(dp436
g2
S'http://www.reuters.com/article/2014/07/13/bbo-pirates-reds-writethru-idUSMTZEA7DO6656420140713'
p437
sg4
S'20140713\xc2\xa06:38PM UTC'
p438
sg6
S"Negron's 3-run homer pushed Reds past Pirates"
p439
sa(dp440
g2
S'http://www.reuters.com/article/2014/07/13/bbo-cardinals-brewers-writethru-idUSMTZEA7DO5W45P20140713'
p441
sg4
S'20140713\xc2\xa06:37PM UTC'
p442
sg6
S'Brewers snap 7-game skid, rout Cardinals'
p443
sa(dp444
g2
S'http://www.reuters.com/article/2014/07/13/airshow-britain-idUSL6N0PO1JP20140713'
p445
sg4
S'20140713\xc2\xa06:35PM UTC'
p446
sg6
S'AIRSHOW-Airbus jet re-launch heralds busy aerospace show'
p447
sa(dp448
g2
S'http://www.reuters.com/article/2014/07/13/us-soccer-world-arg-fans-idUSKBN0FI14R20140713'
p449
sg4
S'20140713\xc2\xa06:32PM UTC'
p450
sg6
S'Devastated Argentine fans watch Germany snatch World Cup'
p451
sa(dp452
g2
S'http://www.reuters.com/article/2014/07/13/us-spain-socialists-idUSKBN0FI0KJ20140713'
p453
sg4
S'20140713\xc2\xa06:28PM UTC'
p454
sg6
S"Spain's embattled Socialists elect new leader"
p455
sa(dp456
g2
S'http://www.reuters.com/article/2014/07/13/us-kodiak-oil-gas-whiting-petrol-idUSKBN0FI0YV20140713'
p457
sg4
S'20140713\xc2\xa06:25PM UTC'
p458
sg6
S'Whiting to buy Kodiak for $3.8 billion, create No. 1 Bakken producer'
p459
sa(dp460
g2
S'http://www.reuters.com/article/2014/07/13/us-india-inflation-idUSKBN0FI10Q20140713'
p461
sg4
S'20140713\xc2\xa06:24PM UTC'
p462
sg6
S"Modi's farm export curbs may ease India's June inflation"
p463
sa(dp464
g2
S'http://www.reuters.com/article/2014/07/13/kodiak-oil-gas-whiting-petrol-idUSL2N0PO0JZ20140713'
p465
sg4
S'20140713\xc2\xa06:22PM UTC'
p466
sg6
S'UPDATE 2-Whiting to buy Kodiak for $3.8 bln, create No. 1 Bakken producer'
p467
sa(dp468
g2
S'http://www.reuters.com/article/2014/07/13/bbo-bluejays-rays-writethru-idUSMTZEA7DO3Y41A20140713'
p469
sg4
S'20140713\xc2\xa06:21PM UTC'
p470
sg6
S'Price wins fourth straight as Rays blank Jays'
p471
sa(dp472
g2
S'http://www.reuters.com/article/2014/07/13/india-inflation-idUSL4N0PM1XM20140713'
p473
sg4
S'20140713\xc2\xa06:21PM UTC'
p474
sg6
S"REFILE-Modi's farm export curbs may ease India's June inflation"
p475
sa(dp476
g2
S'http://www.reuters.com/article/2014/07/13/us-regulator-doj-forex-idUSKBN0FI14520140713'
p477
sg4
S'20140713\xc2\xa06:18PM UTC'
p478
sg6
S'U.S. prosecutors offer junior UK traders immunity in forex probe: FT'
p479
sa(dp480
g2
S'http://www.reuters.com/article/2014/07/13/regulator-doj-forex-idUSL4N0PO0KG20140713'
p481
sg4
S'20140713\xc2\xa06:14PM UTC'
p482
sg6
S'U.S. prosecutors offer junior UK traders immunity in forex probe -FT'
p483
sa(dp484
g2
S'http://www.reuters.com/article/2014/07/13/us-brazil-worldcup-protesters-idUSKBN0FI0YO20140713'
p485
sg4
S'20140713\xc2\xa06:14PM UTC'
p486
sg6
S'Rio police disperse protesters with tear gas before World Cup final'
p487
sa(dp488
g2
S'http://www.reuters.com/article/2014/07/13/us-soccer-world-m64-ger-arg-sabella-idUSKBN0FI13720140713'
p489
sg4
S'20140713\xc2\xa06:06PM UTC'
p490
sg6
S"Argentina's Sabella sad but proud of team"
p491
sa(dp492
g2
S'http://www.reuters.com/article/2014/07/13/us-soccer-world-finals-idUSKBN0FI12520140713'
p493
sg4
S'20140713\xc2\xa06:02PM UTC'
p494
sg6
S'Factbox: World Cup finals'
p495
sa(dp496
g2
S'http://www.reuters.com/article/2014/07/13/urs-aecom-tech-idUSL2N0PO0NV20140713'
p497
sg4
S'20140713\xc2\xa05:58PM UTC'
p498
sg6
S'RPT-UPDATE 2-AECOM to pay $4 billion for engineering firm URS Corp'
p499
sa(dp500
g2
S'http://www.reuters.com/article/2014/07/13/us-nba-freeagency-idUSKBN0FI12F20140713'
p501
sg4
S'20140713\xc2\xa05:54PM UTC'
p502
sg6
S'Anthony makes NY return official, Deng to Miami'
p503
sa(dp504
g2
S'http://www.reuters.com/article/2014/07/13/us-soccer-world-sunday-idUSKBN0FI06V20140713'
p505
sg4
S'20140713\xc2\xa05:50PM UTC'
p506
sg6
S'Argentina defends Latin pride v Germany in World Cup final'
p507
sa(dp508
g2
S'http://www.reuters.com/article/2014/07/13/bbo-whitesox-indians-writethru-idUSMTZEA7DO30S1120140713'
p509
sg4
S'20140713\xc2\xa05:45PM UTC'
p510
sg6
S"Gomes' homer lifts Indians over White Sox"
p511
sa(dp512
g2
S'http://www.reuters.com/article/2014/07/13/us-palestinians-israel-un-idUSKBN0FI12120140713'
p513
sg4
S'20140713\xc2\xa05:43PM UTC'
p514
sg6
S'U.N. chief voices alarm at increased Gaza violence'
p515
sa(dp516
g2
S'http://www.reuters.com/article/2014/07/13/us-usa-greyhound-idUSKBN0FI0P720140713'
p517
sg4
S'20140713\xc2\xa05:42PM UTC'
p518
sg6
S'Indiana Greyhound bus crash kills one, injures 19'
p519
sa(dp520
g2
S'http://www.reuters.com/article/2014/07/13/us-citigroup-settlement-idUSKBN0FI11M20140713'
p521
sg4
S'20140713\xc2\xa05:41PM UTC'
p522
sg6
S'Citi, U.S. $7 billion settlement announcement expected Monday'
p523
sa(dp524
g2
S'http://www.reuters.com/article/2014/07/13/palestinians-israel-un-idUSL2N0PO0N820140713'
p525
sg4
S'20140713\xc2\xa05:41PM UTC'
p526
sg6
S'U.N. chief voices alarm at increased Gaza violence'
p527
sa(dp528
g2
S'http://www.reuters.com/article/2014/07/13/us-tennis-men-fame-idUSKBN0FI11A20140713'
p529
sg4
S'20140713\xc2\xa05:35PM UTC'
p530
sg6
S'Hewitt beats Karlovic to win 30th career title'
p531
sa(dp532
g2
S'http://www.reuters.com/article/2014/07/13/citigroup-settlement-idUSL2N0PO0FO20140713'
p533
sg4
S'20140713\xc2\xa05:34PM UTC'
p534
sg6
S'Citi, U.S. $7 billion settlement announcement expected Monday'
p535
sa(dp536
g2
S'http://www.reuters.com/article/2014/07/13/us-bombardier-forecast-idUSKBN0FI11820140713'
p537
sg4
S'20140713\xc2\xa05:33PM UTC'
p538
sg6
S'Bombardier says firmer economy to boost industry jet deliveries '
p539
sa(dp540
g2
S'http://www.reuters.com/article/2014/07/13/urs-aecom-tech-idUSL2N0PO0JG20140713'
p541
sg4
S'20140713\xc2\xa05:30PM UTC'
p542
sg6
S'UPDATE 2-AECOM to pay $4 billion for engineering firm URS Corp'
p543
sa(dp544
g2
S'http://www.reuters.com/article/2014/07/13/hawaiian-airlines-ceo-idUSnPn6MY5kt+98+PRN20140713'
p545
sg4
S'20140713\xc2\xa05:30PM UTC'
p546
sg6
S'Hawaiian Airlines President and CEO Mark Dunkerley Recognized for Leadership with Airline Strategy Award'
p547
sa(dp548
g2
S'http://www.reuters.com/article/2014/07/13/us-southkorea-economy-intervention-idUSKBN0FI11220140713'
p549
sg4
S'20140713\xc2\xa05:22PM UTC'
p550
sg6
S'South Korea quietly intervenes on the won to bolster economy '
p551
sa(dp552
g2
S'http://www.reuters.com/article/2014/07/13/us-japan-debt-france-idUSKBN0FI10W20140713'
p553
sg4
S'20140713\xc2\xa05:16PM UTC'
p554
sg6
S"Japan investors bulk up on French bonds, bet on euro zone 'Japanisation'"
p555
sa(dp556
g2
S'http://www.reuters.com/article/2014/07/13/us-australia-palmer-idUSKBN0FI10U20140713'
p557
sg4
S'20140713\xc2\xa05:11PM UTC'
p558
sg6
S'Uncertainty reigns in Australian parliament as mining king holds sway'
p559
sa(dp560
g2
S'http://www.reuters.com/article/2014/07/13/block-investigate-urs-idUSnPn3ygJXG+87+PRN20140713'
p561
sg4
S'20140713\xc2\xa05:10PM UTC'
p562
sg6
S'Block & Leviton LLP Investigates URS Corporation for Possible Breaches of Fiduciary Duty in Connection with Its Merger with AECOM Technology Corporation'
p563
sa(dp564
g2
S'http://www.reuters.com/article/2014/07/13/us-usa-anthrax-witnesses-idUSKBN0FI10S20140713'
p565
sg4
S'20140713\xc2\xa05:09PM UTC'
p566
sg6
S'U.S. House panel sets witness list for CDC anthrax hearing'
p567
sa(dp568
g2
S'http://www.reuters.com/article/2014/07/13/usa-anthrax-witnesses-idUSL2N0PO0M120140713'
p569
sg4
S'20140713\xc2\xa05:04PM UTC'
p570
sg6
S'U.S. House panel sets witness list for CDC anthrax hearing'
p571
sa(dp572
g2
S'http://www.reuters.com/article/2014/07/13/us-climatechange-australia-wine-idUSKBN0FI10K20140713'
p573
sg4
S'20140713\xc2\xa05:03PM UTC'
p574
sg6
S'Climate change signals the end of Australian shiraz as we know it'
p575
sa(dp576
g2
S'http://www.reuters.com/article/2014/07/13/southkorea-economy-intervention-idUSL4N0PM0MC20140713'
p577
sg4
S'20140713\xc2\xa05:00PM UTC'
p578
sg6
S'South Korea quietly intervenes on the won to bolster economy'
p579
sa(dp580
g2
S'http://www.reuters.com/article/2014/07/13/australia-palmer-idUSL4N0PL1CG20140713'
p581
sg4
S'20140713\xc2\xa05:00PM UTC'
p582
sg6
S'Uncertainty reigns in Australian parliament as mining king holds sway'
p583
sa(dp584
g2
S'http://www.reuters.com/article/2014/07/13/japan-debt-france-idUSL4N0PO0BO20140713'
p585
sg4
S'20140713\xc2\xa05:00PM UTC'
p586
sg6
S'Japan investors bulk up on French bonds, bet on euro zone "Japanisation"'
p587
sa(dp588
g2
S'http://www.reuters.com/article/2014/07/13/china-aircraft-leasing-idUSL4N0PM28X20140713'
p589
sg4
S'20140713\xc2\xa05:00PM UTC'
p590
sg6
S'RPT-China aviation boom brings first aircraft lessor IPO in Asia'
p591
sa(dp592
g2
S'http://www.reuters.com/article/2014/07/13/climatechange-australia-wine-idUSL4N0OZ0SP20140713'
p593
sg4
S'20140713\xc2\xa05:00PM UTC'
p594
sg6
S'Climate change signals the end of Australian shiraz as we know it'
p595
sa(dp596
g2
S'http://www.reuters.com/article/2014/07/13/us-nigeria-malala-idUSKBN0FI0JK20140713'
p597
sg4
S'20140713\xc2\xa04:57PM UTC'
p598
sg6
S'Taliban survivor Malala, in Nigeria, pledges to help free girls'
p599
sa(dp600
g2
S'http://www.reuters.com/article/2014/07/13/us-space-station-idUSKBN0FI0VH20140713'
p601
sg4
S'20140713\xc2\xa04:57PM UTC'
p602
sg6
S'U.S. cargo ship blasts off with supplies for space station'
p603
sa(dp604
g2
S'http://www.reuters.com/article/2014/07/13/us-ken-gray-idUSKBN0FI0ZL20140713'
p605
sg4
S'20140713\xc2\xa04:27PM UTC'
p606
sg6
S'Former U.S. congressman Ken Gray of Illinois dies at 89'
p607
sa(dp608
g2
S'http://www.reuters.com/article/2014/07/13/us-espiritosanto-idUSKBN0FI0ZP20140713'
p609
sg4
S'20140713\xc2\xa04:13PM UTC'
p610
sg6
S'Bank of Portugal speeds up management changes at BES'
p611
sa(dp612
g2
S'http://www.reuters.com/article/2014/07/13/us-nba-knicks-anthony-idUSKBN0FI0W320140713'
p613
sg4
S'20140713\xc2\xa04:12PM UTC'
p614
sg6
S'Knicks re-sign All-Star Carmelo Anthony'
p615
sa(dp616
g2
S'http://www.reuters.com/article/2014/07/13/espiritosanto-idUSL6N0PO1GR20140713'
p617
sg4
S'20140713\xc2\xa04:08PM UTC'
p618
sg6
S'Bank of Portugal speeds up management changes at BES'
p619
sa(dp620
g2
S'http://www.reuters.com/article/2014/07/13/newzealand-press-idUSL4N0PO0G920140713'
p621
sg4
S'20140713\xc2\xa04:06PM UTC'
p622
sg6
S'PRESS DIGEST-New Zealand newspapers - July 14'
p623
sa(dp624
g2
S'http://www.reuters.com/article/2014/07/13/us-slovenia-election-idUSKBN0FH0Y320140713'
p625
sg4
S'20140713\xc2\xa04:04PM UTC'
p626
sg6
S'Political novice wins power in Slovenia, hints at revisiting economic reform plan'
p627
sa(dp628
g2
S'http://www.reuters.com/article/2014/07/13/slovenia-election-idUSL6N0PO09H20140713'
p629
sg4
S'20140713\xc2\xa04:01PM UTC'
p630
sg6
S'UPDATE 5-Political novice wins power in Slovenia, hints at revisiting economic reform plan'
p631
sa(dp632
g2
S'http://www.reuters.com/article/2014/07/13/us-ukraine-crisis-idUSKBN0FI09I20140713'
p633
sg4
S'20140713\xc2\xa03:57PM UTC'
p634
sg6
S'Russia warns Ukraine after shell crosses border'
p635
sa(dp636
g2
S'http://www.reuters.com/article/2014/07/13/us-soccer-world-m64-ger-arg-kramer-idUSKBN0FI0YS20140713'
p637
sg4
S'20140713\xc2\xa03:55PM UTC'
p638
sg6
S'Germany replacement Kramer lasts half an hour'
p639
sa(dp640
g2
S'http://www.reuters.com/article/2014/07/13/va-orbital-sciences-idUSnBw135032a+100+BSW20140713'
p641
sg4
S'20140713\xc2\xa03:52PM UTC'
p642
sg6
S'Orbital Successfully Launches Antares Rocket Carrying Cygnus Spacecraft on Cargo Resupply Mission to International Space Station'
p643
sa(dp644
g2
S'http://www.reuters.com/article/2014/07/13/kodiak-oil-gas-whiting-petrol-idUSL2N0PO0JQ20140713'
p645
sg4
S'20140713\xc2\xa03:47PM UTC'
p646
sg6
S'Whiting Petroleum to buy Kodiak Oil in $6 bln stock deal'
p647
sa(dp648
g2
S'http://www.reuters.com/article/2014/07/13/us-usa-crime-indiana-idUSKBN0FI0YQ20140713'
p649
sg4
S'20140713\xc2\xa03:47PM UTC'
p650
sg6
S'Son charged with stabbing death of mother in Indiana hospital: media'
p651
sa(dp652
g2
S'http://www.reuters.com/article/2014/07/13/whitingpetroleum-brief-idUSWEN00DJH20140713'
p653
sg4
S'20140713\xc2\xa03:22PM UTC'
p654
sg6
S'BRIEF-Whiting Petroleum to acquire Kodiak Oil & Gas Corp in $6 bln all-stock deal'
p655
sa(dp656
g2
S'http://www.reuters.com/article/2014/07/13/us-ukraine-crisis-merkel-putin-idUSKBN0FI0R220140713'
p657
sg4
S'20140713\xc2\xa03:20PM UTC'
p658
sg6
S'Merkel and Putin call for stronger peace effort in Ukraine: Kremlin '
p659
sa(dp660
g2
S'http://www.reuters.com/article/2014/07/13/us-urs-aecom-tech-idUSKBN0FI0UA20140713'
p661
sg4
S'20140713\xc2\xa03:14PM UTC'
p662
sg6
S'AECOM to pay $4 billion for engineering firm URS Corp'
p663
sa(dp664
g2
S'http://www.reuters.com/article/2014/07/13/urs-aecom-tech-idUSL2N0PO0FD20140713'
p665
sg4
S'20140713\xc2\xa03:10PM UTC'
p666
sg6
S'CORRECTED-UPDATE 1-AECOM to pay $4 billion for engineering firm URS Corp'
p667
sa(dp668
g2
S'http://www.reuters.com/article/2014/07/13/us-soccer-world-m64-ger-arg-teams-idUSKBN0FI0Y320140713'
p669
sg4
S'20140713\xc2\xa03:10PM UTC'
p670
sg6
S'Khedira pulls out of final with calf problem: DFB'
p671
sa(dp672
g2
S'http://www.reuters.com/article/2014/07/13/us-airshow-britain-aeroflot-idUSKBN0FI0UH20140713'
p673
sg4
S'20140713\xc2\xa03:08PM UTC'
p674
sg6
S'Aeroflot sees obstacles to low-cost Russian air travel lifted soon'
p675
sa(dp676
g2
S'http://www.reuters.com/article/2014/07/13/us-iran-nuclear-idUSKBN0FI0B120140713'
p677
sg4
S'20140713\xc2\xa03:02PM UTC'
p678
sg6
S'U.S., Iran say disputes remain in nuclear talks as deadline looms'
p679
sa(dp680
g2
S'http://www.reuters.com/article/2014/07/13/urs-aecom-tech-idUSL2N0PO0F220140713'
p681
sg4
S'20140713\xc2\xa02:57PM UTC'
p682
sg6
S'CORRECTED-AECOM to pay $4 bln for URS Corp engineering firm'
p683
sa(dp684
g2
S'http://www.reuters.com/article/2014/07/13/co-whiting-kodiak-idUSnBw135030a+100+BSW20140713'
p685
sg4
S'20140713\xc2\xa02:57PM UTC'
p686
sg6
S'Whiting Petroleum Corporation To Acquire Kodiak Oil & Gas Corp. In All-Stock Transaction Valued At $6.0 Billion'
p687
sa(dp688
g2
S'http://www.reuters.com/article/2014/07/13/airshow-britain-aeroflot-idUSL6N0PO16M20140713'
p689
sg4
S'20140713\xc2\xa02:54PM UTC'
p690
sg6
S'CORRECTED-AIRSHOW-Aeroflot sees obstacles to low-cost Russian air travel lifted soon'
p691
sa(dp692
g2
S'http://www.reuters.com/article/2014/07/13/us-airshow-britain-f-idUSKBN0FI0XD20140713'
p693
sg4
S'20140713\xc2\xa02:40PM UTC'
p694
sg6
S"'Excessive' rubbing of engine blades caused F-35 failure: Pentagon"
p695
sa(dp696
g2
S'http://www.reuters.com/article/2014/07/13/us-people-scaife-idUSKBN0FI0XA20140713'
p697
sg4
S'20140713\xc2\xa02:38PM UTC'
p698
sg6
S"Pittsburgh billionaire's will sheds little light on his wealth"
p699
sa(dp700
g2
S'http://www.reuters.com/article/2014/07/13/us-golf-scottish-idUSKBN0FI0X820140713'
p701
sg4
S'20140713\xc2\xa02:36PM UTC'
p702
sg6
S'Immaculate Rose wins Scottish Open title'
p703
sa(dp704
g2
S'http://www.reuters.com/article/2014/07/13/rentrak-box-ofc-reslt-idUSnPn4gdwQK+83+PRN20140713'
p705
sg4
S'20140713\xc2\xa02:35PM UTC'
p706
sg6
S'Rentrak Announces Worldwide Box Office Results for Weekend of July 13, 2014'
p707
sa(dp708
g2
S'http://www.reuters.com/article/2014/07/13/us-soccer-world-m64-ger-arg-teams-idUSKBN0FI0WH20140713'
p709
sg4
S'20140713\xc2\xa02:34PM UTC'
p710
sg6
S'Germany, Argentina name unchanged teams for final'
p711
sa(dp712
g2
S'http://www.reuters.com/article/2014/07/13/us-soccer-world-bra-future-idUSKBN0FI0RT20140713'
p713
sg4
S'20140713\xc2\xa02:33PM UTC'
p714
sg6
S'Feast that became famine casts doubt over Brazil future'
p715
sa(dp716
g2
S'http://www.reuters.com/article/2014/07/13/airshow-britain-f-idUSL6N0PO19I20140713'
p717
sg4
S'20140713\xc2\xa02:31PM UTC'
p718
sg6
S'UPDATE 1-AIRSHOW-"Excessive" rubbing of engine blades caused F-35 failure-Pentagon'
p719
sa(dp720
g2
S'http://www.reuters.com/article/2014/07/13/us-yemen-violence-idUSKBN0FI0X220140713'
p721
sg4
S'20140713\xc2\xa02:29PM UTC'
p722
sg6
S"Yemeni leader demands Shi'ite group give up captured city"
p723
sa(dp724
g2
S'http://www.reuters.com/article/2014/07/13/us-palestinians-israel-netanhayu-idUSKBN0FI0SD20140713'
p725
sg4
S'20140713\xc2\xa02:27PM UTC'
p726
sg6
S'Netanyahu defends Israeli offensive in Gaza on U.S. television'
p727
sa(dp728
g2
S'http://www.reuters.com/article/2014/07/13/usa-stocks-weekahead-idUSL2N0PM2KC20140713'
p729
sg4
S'20140713\xc2\xa02:18PM UTC'
p730
sg6
S'RPT-Wall St Week Ahead-Tech earnings get top billing'
p731
sa(dp732
g2
S'http://www.reuters.com/article/2014/07/13/us-tennis-women-idUSKBN0FI0WL20140713'
p733
sg4
S'20140713\xc2\xa02:15PM UTC'
p734
sg6
S'Halep wins Bucharest title'
p735
sa(dp736
g2
S'http://www.reuters.com/article/2014/07/13/palestinians-israel-hamas-idUSL6N0PO1CO20140713'
p737
sg4
S'20140713\xc2\xa02:11PM UTC'
p738
sg6
S'RPT-Hamas media campaign taunts Israel, fortifies battered Gaza public'
p739
sa(dp740
g2
S'http://www.reuters.com/article/2014/07/13/us-britain-charts-idUSKBN0FI0WB20140713'
p741
sg4
S'20140713\xc2\xa02:09PM UTC'
p742
sg6
S'will.i.am bags 10th number one single in British charts'
p743
sa(dp744
g2
S'http://www.reuters.com/article/2014/07/13/us-usa-california-wildfires-idUSKBN0FI0W920140713'
p745
sg4
S'20140713\xc2\xa02:07PM UTC'
p746
sg6
S'Pot farmer charged with starting California wildfire'
p747
sa(dp748
g2
S'http://www.reuters.com/article/2014/07/13/us-soccer-world-tickets-idUSKBN0FI0W720140713'
p749
sg4
S'20140713\xc2\xa02:05PM UTC'
p750
sg6
S'Brazil police turn to Interpol in World Cup ticket probe'
p751
sa(dp752
g2
S'http://www.reuters.com/article/2014/07/13/us-usa-syria-holder-idUSKBN0FI0VZ20140713'
p753
sg4
S'20140713\xc2\xa02:02PM UTC'
p754
sg6
S'U.S. concerned foreign fighters in Syria are working with Yemenis'
p755
sa(dp756
g2
S'http://www.reuters.com/article/2014/07/13/britain-charts-idUSL6N0PO0YQ20140713'
p757
sg4
S'20140713\xc2\xa02:00PM UTC'
p758
sg6
S'will.i.am bags 10th number one single in British charts'
p759
sa(dp760
g2
S'http://www.reuters.com/article/2014/07/13/usa-syria-holder-idUSL2N0PO0D420140713'
p761
sg4
S'20140713\xc2\xa01:59PM UTC'
p762
sg6
S'U.S. concerned foreign fighters in Syria are working with Yemenis'
p763
sa(dp764
g2
S'http://www.reuters.com/article/2014/07/13/us-nigeria-violence-idUSKBN0FI0L520140713'
p765
sg4
S'20140713\xc2\xa01:50PM UTC'
p766
sg6
S"Boko Haram leader claims blast in Nigeria's Lagos"
p767
sa(dp768
g2
S'http://www.reuters.com/article/2014/07/13/space-station-idUSL2N0PO0DO20140713'
p769
sg4
S'20140713\xc2\xa01:49PM UTC'
p770
sg6
S'U.S. cargo ship blasts off with supplies for space station'
p771
sa(dp772
g2
S'http://www.reuters.com/article/2014/07/13/nasa-resupply-station-idUSnPn3zHVB4+8e+PRN20140713'
p773
sg4
S'20140713\xc2\xa01:47PM UTC'
p774
sg6
S'NASA Cargo Launches to Space Station aboard Orbital Sciences Resupply Mission'
p775
sa(dp776
g2
S'http://www.reuters.com/article/2014/07/13/nigeria-violence-idUSL6N0PO0RH20140713'
p777
sg4
S'20140713\xc2\xa01:47PM UTC'
p778
sg6
S"UPDATE 3-Boko Haram leader claims blast in Nigeria's Lagos"
p779
sa(dp780
g2
S'http://www.reuters.com/article/2014/07/13/us-airshow-britain-pratt-whitney-idUSKBN0FI0SZ20140713'
p781
sg4
S'20140713\xc2\xa01:41PM UTC'
p782
sg6
S'Pratt & Whitney says CSeries fault is seal issue in oil system'
p783
sa(dp784
g2
S'http://www.reuters.com/article/2014/07/13/airshow-britain-prattwhitney-idUSL6N0PO19D20140713'
p785
sg4
S'20140713\xc2\xa01:40PM UTC'
p786
sg6
S'UPDATE 1-AIRSHOW-Pratt & Whitney says CSeries fault is seal issue in oil system'
p787
sa(dp788
g2
S'http://www.reuters.com/article/2014/07/13/us-usa-markets-risks-analysis-idUSKBN0FI0T820140713'
p789
sg4
S'20140713\xc2\xa01:39PM UTC'
p790
sg6
S'As some high-risk assets take a hit, investors fear worse is to come'
p791
sa(dp792
g2
S'http://www.reuters.com/article/2014/07/13/us-algeria-blast-idUSKBN0FI0I820140713'
p793
sg4
S'20140713\xc2\xa01:37PM UTC'
p794
sg6
S"Roadside bomb kills seven members of Algeria's security forces"
p795
sa(dp796
g2
S'http://www.reuters.com/article/2014/07/13/us-slovenia-election-cerar-idUSKBN0FI0UL20140713'
p797
sg4
S'20140713\xc2\xa01:33PM UTC'
p798
sg6
S"Slovenia's Cerar says to meet EU economic goals, but path might change"
p799
sa(dp800
g2
S'http://www.reuters.com/article/2014/07/13/slovenia-election-cerar-idUSA5N0OT00820140713'
p801
sg4
S'20140713\xc2\xa01:32PM UTC'
p802
sg6
S"Slovenia's Cerar says to meet EU economic goals, but path might change"
p803
sa(dp804
g2
S'http://www.reuters.com/article/2014/07/13/dickeysbarbecu-expnd-idUSnPn4LRtxf+98+PRN20140713'
p805
sg4
S'20140713\xc2\xa01:30PM UTC'
p806
sg6
S"Roland Dickey Stops by New Dickey's Barbecue Pit in Lathrop"
p807
sa(dp808
g2
S'http://www.reuters.com/article/2014/07/13/us-boxoffice-idUSKBN0FI0R820140713'
p809
sg4
S'20140713\xc2\xa01:28PM UTC'
p810
sg6
S"'Planet of the Apes' climbs to top of U.S. box office charts"
p811
sa(dp812
g2
S'http://www.reuters.com/article/2014/07/13/us-safrica-strike-idUSKBN0FI0TW20140713'
p813
sg4
S'20140713\xc2\xa01:27PM UTC'
p814
sg6
S"South African metalworkers' union rejects pay offer, threatens wider strike"
p815
sa(dp816
g2
S'http://www.reuters.com/article/2014/07/13/us-usa-immigration-children-idUSKBN0FI0TO20140713'
p817
sg4
S'20140713\xc2\xa01:24PM UTC'
p818
sg6
S'Key Republicans balk at White House border funds request'
p819
sa(dp820
g2
S'http://www.reuters.com/article/2014/07/13/us-iran-nuclear-hague-idUSKBN0FI0TQ20140713'
p821
sg4
S'20140713\xc2\xa01:23PM UTC'
p822
sg6
S"Iran must be 'more realistic' in nuclear talks: Britain's Hague"
p823
sa(dp824
g2
S'http://www.reuters.com/article/2014/07/13/safrica-strike-idUSL6N0PO0GG20140713'
p825
sg4
S'20140713\xc2\xa01:17PM UTC'
p826
sg6
S"UPDATE 3-South African metalworkers' union rejects pay offer, threatens wider strike"
p827
sa(dp828
g2
S'http://www.reuters.com/article/2014/07/13/aecomtechnology-brief-idUSWEN00DJG20140713'
p829
sg4
S'20140713\xc2\xa01:15PM UTC'
p830
sg6
S'BRIEF-AECOM engineering design firm to buy URS Corp engineering firm for $6 bln'
p831
sa(dp832
g2
S'http://www.reuters.com/article/2014/07/13/airshow-britain-pratt-airbus-idUSL6N0PO18X20140713'
p833
sg4
S'20140713\xc2\xa01:11PM UTC'
p834
sg6
S'AIRSHOW-Pratt offers improved A320neo engines in battle with CFM'
p835
sa(dp836
g2
S'http://www.reuters.com/article/2014/07/13/idUSnMKW1df6Fa+1c2+MKW20140713'
p837
sg4
S'20140713\xc2\xa01:11PM UTC'
p838
sg6
S"Pratt & Whitney Canada's PW150C Engine Selected to Power AVIC Xi'an Aircraft Company's New MA700 Regional Turboprop"
p839
sa(dp840
g2
S'http://www.reuters.com/article/2014/07/13/idUSnCCN75F2Hk+1ca+MKW20140713'
p841
sg4
S'20140713\xc2\xa01:10PM UTC'
p842
sg6
S"Pratt & Whitney Canada's PW150C Engine Selected to Power AVIC Xi'an Aircraft Company's New MA700 Regional Turboprop"
p843
sa(dp844
g2
S'http://www.reuters.com/article/2014/07/13/boxoffice-idUSL2N0PO0BG20140713'
p845
sg4
S'20140713\xc2\xa01:10PM UTC'
p846
sg6
S"UPDATE 1-'Planet of the Apes' climbs to top of U.S. box office charts"
p847
sa(dp848
g2
S'http://www.reuters.com/article/2014/07/13/ca-aecom-tech-urs-idUSnBw135028a+100+BSW20140713'
p849
sg4
S'20140713\xc2\xa01:04PM UTC'
p850
sg6
S'AECOM to acquire URS Corporation for US$56.31 per share in cash and stock'
p851
sa(dp852
g2
S'http://www.reuters.com/article/2014/07/13/slovenia-election-exit-idUSA5N0OT00720140713'
p853
sg4
S'20140713\xc2\xa01:02PM UTC'
p854
sg6
S'Centre-left political novice wins Slovenia election - exit poll'
p855
sa(dp856
g2
S'http://www.reuters.com/article/2014/07/13/bbo-reds-playerwatch-idUSMTZEA7DNTXPVL20140713'
p857
sg4
S'20140713\xc2\xa01:01PM UTC'
p858
sg6
S'Cincinnati Reds - PlayerWatch'
p859
sa(dp860
g2
S'http://www.reuters.com/article/2014/07/13/bbo-marlins-playerwatch-idUSMTZEA7DNTXPVF20140713'
p861
sg4
S'20140713\xc2\xa01:01PM UTC'
p862
sg6
S'Miami Marlins - PlayerWatch'
p863
sa(dp864
g2
S'http://www.reuters.com/article/2014/07/13/bbo-bluejays-playerwatch-idUSMTZEA7DNTXPVV20140713'
p865
sg4
S'20140713\xc2\xa01:01PM UTC'
p866
sg6
S'Toronto Blue Jays - PlayerWatch'
p867
sa(dp868
g2
S'http://www.reuters.com/article/2014/07/13/bbo-cubs-playerwatch-idUSMTZEA7DNTXPVK20140713'
p869
sg4
S'20140713\xc2\xa01:01PM UTC'
p870
sg6
S'Chicago Cubs - PlayerWatch'
p871
sa(dp872
g2
S'http://www.reuters.com/article/2014/07/13/bbo-phillies-playerwatch-idUSMTZEA7DNTXPVE20140713'
p873
sg4
S'20140713\xc2\xa01:01PM UTC'
p874
sg6
S'Philadelphia Phillies - PlayerWatch'
p875
sa(dp876
g2
S'http://www.reuters.com/article/2014/07/13/bbo-redsox-playerwatch-idUSMTZEA7DNTXPVU20140713'
p877
sg4
S'20140713\xc2\xa01:01PM UTC'
p878
sg6
S'Boston Red Sox - PlayerWatch'
p879
sa(dp880
g2
S'http://www.reuters.com/article/2014/07/13/bbo-cardinals-playerwatch-idUSMTZEA7DNTXPVJ20140713'
p881
sg4
S'20140713\xc2\xa01:01PM UTC'
p882
sg6
S'St. Louis Cardinals - PlayerWatch'
p883
sa(dp884
g2
S'http://www.reuters.com/article/2014/07/13/bbo-braves-playerwatch-idUSMTZEA7DNTXPVD20140713'
p885
sg4
S'20140713\xc2\xa01:01PM UTC'
p886
sg6
S'Atlanta Braves - PlayerWatch'
p887
sa(dp888
g2
S'http://www.reuters.com/article/2014/07/13/bbo-pirates-playerwatch-idUSMTZEA7DNTXPVT20140713'
p889
sg4
S'20140713\xc2\xa01:01PM UTC'
p890
sg6
S'Pittsburgh Pirates - PlayerWatch'
p891
sa(dp892
g2
S'http://www.reuters.com/article/2014/07/13/bbo-rangers-playerwatch-idUSMTZEA7DNTXPVC20140713'
p893
sg4
S'20140713\xc2\xa01:01PM UTC'
p894
sg6
S'Texas Rangers - PlayerWatch'
p895
sa(dp896
g2
S'http://www.reuters.com/article/2014/07/13/bbo-padres-playerwatch-idUSMTZEA7DNTXPVS20140713'
p897
sg4
S'20140713\xc2\xa01:01PM UTC'
p898
sg6
S'San Diego Padres - PlayerWatch'
p899
sa(dp900
g2
S'http://www.reuters.com/article/2014/07/13/bbo-angels-playerwatch-idUSMTZEA7DNTXPVB20140713'
p901
sg4
S'20140713\xc2\xa01:01PM UTC'
p902
sg6
S'Los Angeles Angels - PlayerWatch'
p903
sa(dp904
g2
S'http://www.reuters.com/article/2014/07/13/bbo-rockies-playerwatch-idUSMTZEA7DNTXPVR20140713'
p905
sg4
S'20140713\xc2\xa01:01PM UTC'
p906
sg6
S'Colorado Rockies - PlayerWatch'
p907
sa(dp908
g2
S'http://www.reuters.com/article/2014/07/13/bbo-athletics-playerwatch-idUSMTZEA7DNTXPVA20140713'
p909
sg4
S'20140713\xc2\xa01:01PM UTC'
p910
sg6
S'Oakland Athletics - PlayerWatch'
p911
sa(dp912
g2
S'http://www.reuters.com/article/2014/07/13/bbo-yankees-playerwatch-idUSMTZEA7DNTXPVQ20140713'
p913
sg4
S'20140713\xc2\xa01:01PM UTC'
p914
sg6
S'New York Yankees - PlayerWatch'
p915
sa(dp916
g2
S'http://www.reuters.com/article/2014/07/13/bbo-mariners-playerwatch-idUSMTZEA7DNTXPV920140713'
p917
sg4
S'20140713\xc2\xa01:01PM UTC'
p918
sg6
S'Seattle Mariners - PlayerWatch'
p919
sa(dp920
g2
S'http://www.reuters.com/article/2014/07/13/bbo-dodgers-playerwatch-idUSMTZEA7DNTXPVP20140713'
p921
sg4
S'20140713\xc2\xa01:01PM UTC'
p922
sg6
S'Los Angeles Dodgers - PlayerWatch'
p923
sa(dp924
g2
S'http://www.reuters.com/article/2014/07/13/bbo-tigers-playerwatch-idUSMTZEA7DNTXPV820140713'
p925
sg4
S'20140713\xc2\xa01:01PM UTC'
p926
sg6
S'Detroit Tigers - PlayerWatch'
p927
sa(dp928
g2
S'http://www.reuters.com/article/2014/07/13/bbo-whitesox-playerwatch-idUSMTZEA7DNTXPVZ20140713'
p929
sg4
S'20140713\xc2\xa01:01PM UTC'
p930
sg6
S'Chicago White Sox - PlayerWatch'
p931
sa(dp932
g2
S'http://www.reuters.com/article/2014/07/13/bbo-diamondbacks-playerwatch-idUSMTZEA7DNTXPVO20140713'
p933
sg4
S'20140713\xc2\xa01:01PM UTC'
p934
sg6
S'Arizona Diamondbacks - PlayerWatch'
p935
sa(dp936
g2
S'http://www.reuters.com/article/2014/07/13/bbo-astros-playerwatch-idUSMTZEA7DNTXPVI20140713'
p937
sg4
S'20140713\xc2\xa01:01PM UTC'
p938
sg6
S'Houston Astros - PlayerWatch'
p939
sa(dp940
g2
S'http://www.reuters.com/article/2014/07/13/bbo-indians-playerwatch-idUSMTZEA7DNTXPV720140713'
p941
sg4
S'20140713\xc2\xa01:01PM UTC'
p942
sg6
S'Cleveland Indians - PlayerWatch'
p943
sa(dp944
g2
S'http://www.reuters.com/article/2014/07/13/bbo-royals-playerwatch-idUSMTZEA7DNTXPVY20140713'
p945
sg4
S'20140713\xc2\xa01:01PM UTC'
p946
sg6
S'Kansas City Royals - PlayerWatch'
p947
sa(dp948
g2
S'http://www.reuters.com/article/2014/07/13/bbo-giants-playerwatch-idUSMTZEA7DNTXPVN20140713'
p949
sg4
S'20140713\xc2\xa01:01PM UTC'
p950
sg6
S'San Francisco Giants - PlayerWatch'
p951
sa(dp952
g2
S'http://www.reuters.com/article/2014/07/13/bbo-mets-playerwatch-idUSMTZEA7DNTXPVH20140713'
p953
sg4
S'20140713\xc2\xa01:01PM UTC'
p954
sg6
S'New York Mets - PlayerWatch'
p955
sa(dp956
g2
S'http://www.reuters.com/article/2014/07/13/bbo-twins-playerwatch-idUSMTZEA7DNTXPV620140713'
p957
sg4
S'20140713\xc2\xa01:01PM UTC'
p958
sg6
S'Minnesota Twins - PlayerWatch'
p959
sa(dp960
g2
S'http://www.reuters.com/article/2014/07/13/bbo-rays-playerwatch-idUSMTZEA7DNTXPVX20140713'
p961
sg4
S'20140713\xc2\xa01:01PM UTC'
p962
sg6
S'Tampa Bay Rays - PlayerWatch'
p963
sa(dp964
g2
S'http://www.reuters.com/article/2014/07/13/bbo-brewers-playerwatch-idUSMTZEA7DNTXPVM20140713'
p965
sg4
S'20140713\xc2\xa01:01PM UTC'
p966
sg6
S'Milwaukee Brewers - PlayerWatch'
p967
sa(dp968
g2
S'http://www.reuters.com/article/2014/07/13/bbo-nationals-playerwatch-idUSMTZEA7DNTXPVG20140713'
p969
sg4
S'20140713\xc2\xa01:01PM UTC'
p970
sg6
S'Washington Nationals - PlayerWatch'
p971
sa(dp972
g2
S'http://www.reuters.com/article/2014/07/13/bbo-orioles-playerwatch-idUSMTZEA7DNTXPVW20140713'
p973
sg4
S'20140713\xc2\xa01:01PM UTC'
p974
sg6
S'Baltimore Orioles - PlayerWatch'
p975
sa(dp976
g2
S'http://www.reuters.com/article/2014/07/13/cchmc-study-foodaller-idUSnPn5qXMRB+8f+PRN20140713'
p977
sg4
S'20140713\xc2\xa01:00PM UTC'
p978
sg6
S'Study Finds Cause of Mysterious Food Allergy, Suggests New Treatment Strategy'
p979
sa(dp980
g2
S'http://www.reuters.com/article/2014/07/13/us-airshow-britain-boeing-fighters-idUSKBN0FI0T620140713'
p981
sg4
S'20140713\xc2\xa01:00PM UTC'
p982
sg6
S'Boeing sees F/A-18 fighter line continuing through 2017'
p983
sa(dp984
g2
S'http://www.reuters.com/article/2014/07/13/us-georgia-election-idUSKBN0FI0ST20140713'
p985
sg4
S'20140713\xc2\xa012:56PM UTC'
p986
sg6
S"Georgia's ruling party sweeps to victory in local election runoffs"
p987
sa(dp988
g2
S'http://www.reuters.com/article/2014/07/13/us-nigeria-boko-haram-insight-idUSKBN0FI0SJ20140713'
p989
sg4
S'20140713\xc2\xa012:54PM UTC'
p990
sg6
S'In Nigeria, Boko Haram-style violence radiates southwards'
p991
sa(dp992
g2
S'http://www.reuters.com/article/2014/07/13/airshow-britain-boeing-fighters-idUSL6N0PO15X20140713'
p993
sg4
S'20140713\xc2\xa012:48PM UTC'
p994
sg6
S'UPDATE 1-AIRSHOW-Boeing sees F/A-18 fighter line continuing through 2017'
p995
sa(dp996
g2
S'http://www.reuters.com/article/2014/07/13/airshow-britain-prattwhitney-idUSL6N0PO12F20140713'
p997
sg4
S'20140713\xc2\xa012:46PM UTC'
p998
sg6
S'AIRSHOW-Pratt & Whitney says CSeries fault is seal issue in oil system'
p999
sa(dp1000
g2
S'http://www.reuters.com/article/2014/07/13/nigeria-boko-haram-idUSL6N0PN09G20140713'
p1001
sg4
S'20140713\xc2\xa012:43PM UTC'
p1002
sg6
S'INSIGHT-In Nigeria, Boko Haram-style violence radiates southwards'
p1003
sa(dp1004
g2
S'http://www.reuters.com/article/2014/07/13/us-germany-usa-spying-walkin-idUSKBN0FI0S020140713'
p1005
sg4
S'20140713\xc2\xa012:34PM UTC'
p1006
sg6
S'Berlin, Washington, Moscow and Markus R., the spy who walked in from the cold'
p1007
sa(dp1008
g2
S'http://www.reuters.com/article/2014/07/13/us-libya-security-idUSKBN0FI07420140713'
p1009
sg4
S'20140713\xc2\xa012:32PM UTC'
p1010
sg6
S"Heavy fighting breaks out near Libya's Tripoli airport, seven dead"
p1011
sa(dp1012
g2
S'http://www.reuters.com/article/2014/07/13/us-soccer-world-m64-ger-arg-scene-idUSKBN0FI0OD20140713'
p1013
sg4
S'20140713\xc2\xa012:31PM UTC'
p1014
sg6
S'World Cup party already underway before kickoff'
p1015
sa(dp1016
g2
S'http://www.reuters.com/article/2014/07/13/libya-security-idUSL6N0PO04W20140713'
p1017
sg4
S'20140713\xc2\xa012:29PM UTC'
p1018
sg6
S"UPDATE 5-Heavy fighting breaks out near Libya's Tripoli airport, seven dead"
p1019
sa(dp1020
g2
S'http://www.reuters.com/article/2014/07/13/us-boxoffice-chart-idUSKBN0FI0RE20140713'
p1021
sg4
S'20140713\xc2\xa012:23PM UTC'
p1022
sg6
S'The top films at the North American box office'
p1023
sa(dp1024
g2
S'http://www.reuters.com/article/2014/07/13/boxoffice-chart-idUSL2N0PN01F20140713'
p1025
sg4
S'20140713\xc2\xa012:21PM UTC'
p1026
sg6
S'The top films at the North American box office'
p1027
sa(dp1028
g2
S'http://www.reuters.com/article/2014/07/13/us-afghanistan-election-kerry-idUSKBN0FI0RA20140713'
p1029
sg4
S'20140713\xc2\xa012:21PM UTC'
p1030
sg6
S'An embrace and a handshake: how John Kerry brokered peace between Afghan rivals'
p1031
sa(dp1032
g2
S'http://www.reuters.com/article/2014/07/13/us-pope-abuse-idUSKBN0FI0R020140713'
p1033
sg4
S'20140713\xc2\xa012:16PM UTC'
p1034
sg6
S'Pope says about two percent of priests are pedophiles: paper'
p1035
sa(dp1036
g2
S'http://www.reuters.com/article/2014/07/13/britain-press-business-idUSL6N0PO15720140713'
p1037
sg4
S'20140713\xc2\xa012:14PM UTC'
p1038
sg6
S'UPDATE 1-PRESS DIGEST-Sunday British Business - July 13'
p1039
sa(dp1040
g2
S'http://www.reuters.com/article/2014/07/13/us-italy-government-spending-insight-idUSKBN0FI0QS20140713'
p1041
sg4
S'20140713\xc2\xa012:10PM UTC'
p1042
sg6
S"Renzi struggling to rein in Italy's big-spending state"
p1043
sa(dp1044
g2
S'http://www.reuters.com/article/2014/07/13/us-iraq-security-idUSKBN0FI0EU20140713'
p1045
sg4
S'20140713\xc2\xa012:06PM UTC'
p1046
sg6
S'Iraqi factions hit new delay in forming government'
p1047
sa(dp1048
g2
S'http://www.reuters.com/article/2014/07/13/airshow-britain-sikorsky-helicopter-urge-idUSL6N0PO15120140713'
p1049
sg4
S'20140713\xc2\xa012:06PM UTC'
p1050
sg6
S'RPT-AIRSHOW-Sikorsky sees delay in first flight of Marine Corps helicopter'
p1051
sa(dp1052
g2
S'http://www.reuters.com/article/2014/07/13/prattwhitney-enhance-idUSnPn2jdk1y+80+PRN20140713'
p1053
sg4
S'20140713\xc2\xa012:00PM UTC'
p1054
sg6
S"Pratt & Whitney's PurePower\xc2\xae Engine for the A320neo Aircraft Now Saves Additional 2 Percent On Fuel Burn"
p1055
sa(dp1056
g2
S'http://www.reuters.com/article/2014/07/13/prattwhitney-news-idUSnPn5XSFS0+9e+PRN20140713'
p1057
sg4
S'20140713\xc2\xa012:00PM UTC'
p1058
sg6
S"Pratt & Whitney's PurePower\xc2\xae Engine Achieves Nearly 10,000 Hours of Engine Testing Validating Technology Maturity"
p1059
sa(dp1060
g2
S'http://www.reuters.com/article/2014/07/13/italy-government-spending-idUSL6N0PM4HU20140713'
p1061
sg4
S'20140713\xc2\xa011:58AM UTC'
p1062
sg6
S"INSIGHT-Renzi struggling to rein in Italy's big-spending state"
p1063
sa(dp1064
g2
S'http://www.reuters.com/article/2014/07/13/boxoffice-idUSL2N0PN01520140713'
p1065
sg4
S'20140713\xc2\xa011:50AM UTC'
p1066
sg6
S"'Planet of the Apes' climbs over 'Transformers' to win U.S. box office"
p1067
sa(dp1068
g2
S'http://www.reuters.com/article/2014/07/13/us-airshow-britain-drones-idUSKBN0FI0PH20140713'
p1069
sg4
S'20140713\xc2\xa011:46AM UTC'
p1070
sg6
S'State governments can help U.S. speed up drone use'
p1071
sa(dp1072
g2
S'http://www.reuters.com/article/2014/07/13/us-israel-palestinians-hamas-idUSKBN0FI0PF20140713'
p1073
sg4
S'20140713\xc2\xa011:43AM UTC'
p1074
sg6
S'Hamas media campaign taunts Israel, fortifies battered Gaza public'
p1075
sa(dp1076
g2
S'http://www.reuters.com/article/2014/07/13/us-mali-fighting-idUSKBN0FI0PD20140713'
p1077
sg4
S'20140713\xc2\xa011:42AM UTC'
p1078
sg6
S'Clashes in northern Mali kill at least 30 ahead of peace talks'
p1079
sa(dp1080
g2
S'http://www.reuters.com/article/2014/07/13/israel-palestinians-hamas-idUSL6N0PO0MD20140713'
p1081
sg4
S'20140713\xc2\xa011:39AM UTC'
p1082
sg6
S'Hamas media campaign taunts Israel, fortifies battered Gaza public'
p1083
sa(dp1084
g2
S'http://www.reuters.com/article/2014/07/13/us-libya-security-killed-idUSKBN0FI0P920140713'
p1085
sg4
S'20140713\xc2\xa011:38AM UTC'
p1086
sg6
S'Seven killed, 36 wounded in clashes in Libyan capital: ministry'
p1087
sa(dp1088
g2
S'http://www.reuters.com/article/2014/07/13/us-health-ebola-westafrica-idUSKBN0FI0P520140713'
p1089
sg4
S'20140713\xc2\xa011:36AM UTC'
p1090
sg6
S'As Ebola stalks West Africa, medics fight mistrust, hostility'
p1091
sa(dp1092
g2
S'http://www.reuters.com/article/2014/07/13/us-airshow-britain-boeing-idUSKBN0FI0P120140713'
p1093
sg4
S'20140713\xc2\xa011:35AM UTC'
p1094
sg6
S'Boeing plans higher-capacity version of 737 jet'
p1095
sa(dp1096
g2
S'http://www.reuters.com/article/2014/07/13/us-germany-usa-spying-idUSKBN0FI0NB20140713'
p1097
sg4
S'20140713\xc2\xa011:33AM UTC'
p1098
sg6
S"Amid new spy scandal, Kerry calls U.S. and Germany 'great friends'"
p1099
sa(dp1100
g2
S'http://www.reuters.com/article/2014/07/13/us-usa-supermoon-idUSKBN0FI0ON20140713'
p1101
sg4
S'20140713\xc2\xa011:32AM UTC'
p1102
sg6
S"Debut summer 'supermoon' hangs in the summer sky"
p1103
sa(dp1104
g2
S'http://www.reuters.com/article/2014/07/13/health-ebola-westafrica-idUSL6N0PO0V220140713'
p1105
sg4
S'20140713\xc2\xa011:27AM UTC'
p1106
sg6
S'As Ebola stalks West Africa, medics fight mistrust, hostility'
p1107
sa(dp1108
g2
S'http://www.reuters.com/article/2014/07/13/airshow-britain-boeing-idUSL6N0PO0YN20140713'
p1109
sg4
S'20140713\xc2\xa011:24AM UTC'
p1110
sg6
S'UPDATE 1-AIRSHOW-Boeing plans higher-capacity version of 737 jet'
p1111
sa(dp1112
g2
S'http://www.reuters.com/article/2014/07/13/us-palestinians-israel-lebanon-idUSKBN0FI0JZ20140713'
p1113
sg4
S'20140713\xc2\xa011:24AM UTC'
p1114
sg6
S'Hamas denies claim it fired rockets on Israel from Lebanon'
p1115
sa(dp1116
g2
S'http://www.reuters.com/article/2014/07/13/us-china-xinjiang-guangdong-idUSKBN0FI0O720140713'
p1117
sg4
S'20140713\xc2\xa011:22AM UTC'
p1118
sg6
S"China's Guangdong offers big rewards for terrorism informants"
p1119
sa(dp1120
g2
S'http://www.reuters.com/article/2014/07/13/us-soccer-world-ukraine-idUSKBN0FI0O220140713'
p1121
sg4
S'20140713\xc2\xa011:20AM UTC'
p1122
sg6
S'Ukraine president will not attend World Cup final'
p1123
sa(dp1124
g2
S'http://www.reuters.com/article/2014/07/13/us-airshow-britain-f-idUSKBN0FI0N120140713'
p1125
sg4
S'20140713\xc2\xa011:12AM UTC'
p1126
sg6
S'No F-35 on day one of Farnborough air show, maybe later'
p1127
sa(dp1128
g2
S'http://www.reuters.com/article/2014/07/13/us-britain-religion-bishops-idUSKBN0FI0MO20140713'
p1129
sg4
S'20140713\xc2\xa011:10AM UTC'
p1130
sg6
S'Head of Church of England hopeful vote will back women bishops'
p1131
sa(dp1132
g2
S'http://www.reuters.com/article/2014/07/13/palestinians-israel-idUSL6N0PO02W20140713'
p1133
sg4
S'20140713\xc2\xa010:53AM UTC'
p1134
sg6
S'REFILE-UPDATE 3-Thousands of Gaza civilians flee after Israeli warning'
p1135
sa(dp1136
g2
S'http://www.reuters.com/article/2014/07/13/airshow-britain-boeing-fighters-idUSL2N0PO09920140713'
p1137
sg4
S'20140713\xc2\xa010:31AM UTC'
p1138
sg6
S'AIRSHOW-Boeing sees F/A-18 fighter line continuing through 2017'
p1139
sa(dp1140
g2
S'http://www.reuters.com/article/2014/07/13/airshow-britain-f-idUSL6N0PO0Y620140713'
p1141
sg4
S'20140713\xc2\xa010:20AM UTC'
p1142
sg6
S'AIRSHOW-No F-35 on day one of Farnborough air show, maybe later'
p1143
sa(dp1144
g2
S'http://www.reuters.com/article/2014/07/13/airshow-britain-boeing-idUSL6N0PO0UH20140713'
p1145
sg4
S'20140713\xc2\xa010:10AM UTC'
p1146
sg6
S'Boeing looking at higher-capacity 737 airplane'
p1147
sa(dp1148
g2
S'http://www.reuters.com/article/2014/07/13/karstadt-sale-idUSL6N0PO0VK20140713'
p1149
sg4
S'20140713\xc2\xa010:07AM UTC'
p1150
sg6
S"Austrian investor not interested in Germany's Karstadt -report"
p1151
sa(dp1152
g2
S'http://www.reuters.com/article/2014/07/13/idUSnMKWl0jKra+1c4+MKW20140713'
p1153
sg4
S'20140713\xc2\xa010:01AM UTC'
p1154
sg6
S'Bombardier Aerospace Releases Annual Business and Commercial Aircraft Market Forecasts'
p1155
sa(dp1156
g2
S'http://www.reuters.com/article/2014/07/13/in-eli-lilly-new-data-idUSnPnbf0c0Q+81+PRN20140713'
p1157
sg4
S'20140713\xc2\xa010:00AM UTC'
p1158
sg6
S'New Data Shows Combination Therapy is More Effective than Monotherapy in Removing Beta-Amyloid Plaques from the Brains of Mice'
p1159
sa(dp1160
g2
S'http://www.reuters.com/article/2014/07/13/us-india-killings-idUSKBN0FI0LR20140713'
p1161
sg4
S'20140713\xc2\xa09:56AM UTC'
p1162
sg6
S"Four bodies found in India's volatile northeast, army deployed"
p1163
sa(dp1164
g2
S'http://www.reuters.com/article/2014/07/13/britain-press-business-idUSL6N0PO0TI20140713'
p1165
sg4
S'20140713\xc2\xa09:40AM UTC'
p1166
sg6
S'PRESS DIGEST-Sunday British Business - July 13'
p1167
sa(dp1168
g2
S'http://www.reuters.com/article/2014/07/13/bc-elbit-idUSnPn8CCyfS+99+PRN20140713'
p1169
sg4
S'20140713\xc2\xa09:39AM UTC'
p1170
sg6
S'Elbit Imaging Ltd. Announces Election of New Board Members of Plaza Centers'
p1171
sa(dp1172
g2
S'http://www.reuters.com/article/2014/07/13/us-barclays-investigation-idUSKBN0FI0L120140713'
p1173
sg4
S'20140713\xc2\xa09:33AM UTC'
p1174
sg6
S'Dark pool probe builds pressure on Barclays boss'
p1175
sa(dp1176
g2
S'http://www.reuters.com/article/2014/07/13/idUSnMKWZBnPna+1f4+MKW20140713'
p1177
sg4
S'20140713\xc2\xa09:31AM UTC'
p1178
sg6
S'Bombardier Aerospace Releases Annual Business and Commercial Aircraft Market Forecasts'
p1179
sa(dp1180
g2
S'http://www.reuters.com/article/2014/07/13/idUSnCCN11Gblw+1c8+MKW20140713'
p1181
sg4
S'20140713\xc2\xa09:31AM UTC'
p1182
sg6
S'Bombardier Aerospace Releases Annual Business and Commercial Aircraft Market Forecasts'
p1183
sa(dp1184
g2
S'http://www.reuters.com/article/2014/07/13/bundesbank-usa-fines-idUSL6N0PO0S320140713'
p1185
sg4
S'20140713\xc2\xa09:23AM UTC'
p1186
sg6
S'Bundesbank concerned by U.S. penalties for European banks'
p1187
sa(dp1188
g2
S'http://www.reuters.com/article/2014/07/13/barclays-investigation-idUSL6N0PL1XZ20140713'
p1189
sg4
S'20140713\xc2\xa09:21AM UTC'
p1190
sg6
S'Dark pool probe builds pressure on Barclays boss'
p1191
sa(dp1192
g2
S'http://www.reuters.com/article/2014/07/13/us-nigeria-violence-idUSKBN0FI0KA20140713'
p1193
sg4
S'20140713\xc2\xa09:14AM UTC'
p1194
sg6
S"Boko Haram leader claims blast in Nigeria's Lagos: AFP"
p1195
sa(dp1196
g2
S'http://www.reuters.com/article/2014/07/13/us-egypt-libya-idUSKBN0FI0K120140713'
p1197
sg4
S'20140713\xc2\xa09:12AM UTC'
p1198
sg6
S'Exclusive: Egyptians fear Islamist militants gathering on Libyan border'
p1199
sa(dp1200
g2
S'http://www.reuters.com/article/2014/07/13/italy-renzi-report-idUSL6N0PO0F820140713'
p1201
sg4
S'20140713\xc2\xa09:07AM UTC'
p1202
sg6
S'Renzi says Italy will never be put under outside supervision - paper'
p1203
sa(dp1204
g2
S'http://www.reuters.com/article/2014/07/13/us-airshow-britain-cfm-idUSKBN0FI0DT20140713'
p1205
sg4
S'20140713\xc2\xa09:05AM UTC'
p1206
sg6
S'Engine maker CFM eyes record orders in 2014'
p1207
sa(dp1208
g2
S'http://www.reuters.com/article/2014/07/13/airshow-britain-cfm-idUSL6N0PO0P220140713'
p1209
sg4
S'20140713\xc2\xa09:02AM UTC'
p1210
sg6
S'UPDATE 1-AIRSHOW-Engine maker CFM eyes record orders in 2014'
p1211
sa(dp1212
g2
S'http://www.reuters.com/article/2014/07/13/togo-accor-idUSL6N0PO0K320140713'
p1213
sg4
S'20140713\xc2\xa08:29AM UTC'
p1214
sg6
S'UPDATE 1-Togo evicts hotel group Accor amid contract dispute'
p1215
sa(dp1216
g2
S'http://www.reuters.com/article/2014/07/13/us-palestinians-israel-germany-idUSKBN0FI0I420140713'
p1217
sg4
S'20140713\xc2\xa08:28AM UTC'
p1218
sg6
S"Germany's foreign minister to travel to Middle East on Monday"
p1219
sa(dp1220
g2
S'http://www.reuters.com/article/2014/07/13/masraf-al-rayan-realestate-idUSL6N0PO0P920140713'
p1221
sg4
S'20140713\xc2\xa08:23AM UTC'
p1222
sg6
S"Qatar's Masraf Al Rayan says sells real estate firm stake to govt fund"
p1223
sa(dp1224
g2
S'http://www.reuters.com/article/2014/07/13/us-iran-nuclear-britain-idUSKBN0FI0HC20140713'
p1225
sg4
S'20140713\xc2\xa08:07AM UTC'
p1226
sg6
S'Britain says too early to speak of extending Iran nuclear talks'
p1227
sa(dp1228
g2
S'http://www.reuters.com/article/2014/07/13/us-usa-congress-fiscal-idUSKBN0FI0H620140713'
p1229
sg4
S'20140713\xc2\xa08:06AM UTC'
p1230
sg6
S'Hope fades in Congress for drama-free funding of U.S. agencies'
p1231
sa(dp1232
g2
S'http://www.reuters.com/article/2014/07/13/nc-utc-aerospace-idUSnPn1jSyBb+8a+PRN20140713'
p1233
sg4
S'20140713\xc2\xa08:00AM UTC'
p1234
sg6
S'UTC Aerospace Systems selected by Airbus for a long-term maintenance agreement'
p1235
sa(dp1236
g2
S'http://www.reuters.com/article/2014/07/13/nc-utc-aerospace-idUSnPnzZCGS+4f+PRN20140713'
p1237
sg4
S'20140713\xc2\xa08:00AM UTC'
p1238
sg6
S'UTC Aerospace Systems celebrates delivery of 10,000th set of inlet and fan cowls for Boeing 737'
p1239
sa(dp1240
g2
S'http://www.reuters.com/article/2014/07/13/nc-utc-aerospace-idUSnPncdKJKr+8e+PRN20140713'
p1241
sg4
S'20140713\xc2\xa08:00AM UTC'
p1242
sg6
S'UTC Aerospace Systems Selected to provide Wheels and Carbon Brakes for the Boeing 737 MAX'
p1243
sa(dp1244
g2
S'http://www.reuters.com/article/2014/07/13/supermicro-dimm-wpc-idUSnPn8m6kFw+82+PRN20140713'
p1245
sg4
S'20140713\xc2\xa08:00AM UTC'
p1246
sg6
S'Supermicro\xc2\xae Highlights MicroBlade, SuperBlade\xc2\xae, FatTwin\xe2\x84\xa2, SuperStorage DCO and EX DP 32/48 DIMM Server Solutions at Microsoft WPC 2014'
p1247
sa(dp1248
g2
S'http://www.reuters.com/article/2014/07/13/nc-utc-aerospace-idUSnPn9YSjzF+99+PRN20140713'
p1249
sg4
S'20140713\xc2\xa08:00AM UTC'
p1250
sg6
S"UTC Aerospace Systems' Tablet-based Electronic Flight Bag System Receives FAA Supplemental Type Certification (STC)"
p1251
sa(dp1252
g2
S'http://www.reuters.com/article/2014/07/13/nc-utc-aerospace-con-idUSnPn5mHrHr+8a+PRN20140713'
p1253
sg4
S'20140713\xc2\xa08:00AM UTC'
p1254
sg6
S'US Air Force selects UTC Aerospace Systems to upgrade the SYERS-2 imaging sensor fleet'
p1255
sa(dp1256
g2
S'http://www.reuters.com/article/2014/07/13/usa-congress-fiscal-idUSL2N0PK2MD20140713'
p1257
sg4
S'20140713\xc2\xa08:00AM UTC'
p1258
sg6
S'Hope fades in Congress for drama-free funding of U.S. agencies'
p1259
sa(dp1260
g2
S'http://www.reuters.com/article/2014/07/13/us-ukraine-crisis-consequences-idUSKBN0FI0BL20140713'
p1261
sg4
S'20140713\xc2\xa07:18AM UTC'
p1262
sg6
S"Russia warns Ukraine of 'irreversible' consequences after shelling"
p1263
sa(dp1264
g2
S'http://www.reuters.com/article/2014/07/13/mi-cfm-international-idUSnBw135026a+100+BSW20140713'
p1265
sg4
S'20140713\xc2\xa07:18AM UTC'
p1266
sg6
S'American Airlines selects CFM\xe2\x80\x99s advanced LEAP-1A engine to power 100 A320neo aircraft'
p1267
sa(dp1268
g2
S'http://www.reuters.com/article/2014/07/13/saudi-ncb-results-idUSL6N0PO0K020140713'
p1269
sg4
S'20140713\xc2\xa07:10AM UTC'
p1270
sg6
S'Saudi lender NCB posts 22 pct Q2 net profit jump'
p1271
sa(dp1272
g2
S'http://www.reuters.com/article/2014/07/13/us-swimming-australia-thorpe-idUSKBN0FH0XL20140713'
p1273
sg4
S'20140713\xc2\xa07:08AM UTC'
p1274
sg6
S'Emotional Thorpe comes out in TV interview'
p1275
sa(dp1276
g2
S'http://www.reuters.com/article/2014/07/13/us-usa-florida-everglades-fort-idUSKBN0FI0EC20140713'
p1277
sg4
S'20140713\xc2\xa07:06AM UTC'
p1278
sg6
S'Amateur explorers claim to find lost Army fort in Florida Everglades'
p1279
sa(dp1280
g2
S'http://www.reuters.com/article/2014/07/13/us-youtube-content-idUSKBN0FI0E420140713'
p1281
sg4
S'20140713\xc2\xa07:03AM UTC'
p1282
sg6
S'Exclusive: YouTube weighs funding efforts to boost premium content - sources'
p1283
sa(dp1284
g2
S'http://www.reuters.com/article/2014/07/13/bbo-diamondbacks-giants-preview-idUSMTZEA7DNDBIV520140713'
p1285
sg4
S'20140713\xc2\xa07:02AM UTC'
p1286
sg6
S'Preview: Diamondbacks at Giants'
p1287
sa(dp1288
g2
S'http://www.reuters.com/article/2014/07/13/bbo-yankees-orioles-preview-idUSMTZEA7DNDBIV420140713'
p1289
sg4
S'20140713\xc2\xa07:02AM UTC'
p1290
sg6
S'Preview: Yankees at Orioles'
p1291
sa(dp1292
g2
S'http://www.reuters.com/article/2014/07/13/bbo-pirates-reds-preview-idUSMTZEA7DNDBIV320140713'
p1293
sg4
S'20140713\xc2\xa07:02AM UTC'
p1294
sg6
S'Preview: Pirates at Reds'
p1295
sa(dp1296
g2
S'http://www.reuters.com/article/2014/07/13/bbo-whitesox-indians-preview-idUSMTZEA7DNDBIV220140713'
p1297
sg4
S'20140713\xc2\xa07:02AM UTC'
p1298
sg6
S'Preview: White Sox at Indians'
p1299
sa(dp1300
g2
S'http://www.reuters.com/article/2014/07/13/bbo-angels-rangers-preview-idUSMTZEA7DNDBHUZ20140713'
p1301
sg4
S'20140713\xc2\xa07:02AM UTC'
p1302
sg6
S'Preview: Angels at Rangers'
p1303
sa(dp1304
g2
S'http://www.reuters.com/article/2014/07/13/bbo-twins-rockies-preview-idUSMTZEA7DNDBHUY20140713'
p1305
sg4
S'20140713\xc2\xa07:02AM UTC'
p1306
sg6
S'Preview: Twins at Rockies'
p1307
sa(dp1308
g2
S'http://www.reuters.com/article/2014/07/13/bbo-braves-cubs-preview-idUSMTZEA7DNDBHUX20140713'
p1309
sg4
S'20140713\xc2\xa07:02AM UTC'
p1310
sg6
S'Preview: Braves at Cubs'
p1311
sa(dp1312
g2
S'http://www.reuters.com/article/2014/07/13/bbo-tigers-royals-preview-idUSMTZEA7DNDBHUW20140713'
p1313
sg4
S'20140713\xc2\xa07:02AM UTC'
p1314
sg6
S'Preview: Tigers at Royals'
p1315
sa(dp1316
g2
S'http://www.reuters.com/article/2014/07/13/bbo-athletics-mariners-preview-idUSMTZEA7DNDBHUV20140713'
p1317
sg4
S'20140713\xc2\xa07:02AM UTC'
p1318
sg6
S'Preview: Athletics at Mariners'
p1319
sa(dp1320
g2
S'http://www.reuters.com/article/2014/07/13/bbo-padres-dodgers-preview-idUSMTZEA7DNDBHUU20140713'
p1321
sg4
S'20140713\xc2\xa07:02AM UTC'
p1322
sg6
S'Preview: Padres at Dodgers'
p1323
sa(dp1324
g2
S'http://www.reuters.com/article/2014/07/13/bbo-redsox-astros-preview-idUSMTZEA7DNDBHUT20140713'
p1325
sg4
S'20140713\xc2\xa07:02AM UTC'
p1326
sg6
S'Preview: Red Sox at Astros'
p1327
sa(dp1328
g2
S'http://www.reuters.com/article/2014/07/13/bbo-marlins-mets-preview-idUSMTZEA7DNDBHV120140713'
p1329
sg4
S'20140713\xc2\xa07:02AM UTC'
p1330
sg6
S'Preview: Marlins at Mets'
p1331
sa(dp1332
g2
S'http://www.reuters.com/article/2014/07/13/bbo-bluejays-rays-preview-idUSMTZEA7DNDBHV020140713'
p1333
sg4
S'20140713\xc2\xa07:02AM UTC'
p1334
sg6
S'Preview: Blue Jays at Rays'
p1335
sa(dp1336
g2
S'http://www.reuters.com/article/2014/07/13/bbo-nationals-phillies-preview-idUSMTZEA7DNDBGUS20140713'
p1337
sg4
S'20140713\xc2\xa07:02AM UTC'
p1338
sg6
S'Preview: Nationals at Phillies'
p1339
sa(dp1340
g2
S'http://www.reuters.com/article/2014/07/13/bbo-cardinals-brewers-preview-idUSMTZEA7DNDBGUR20140713'
p1341
sg4
S'20140713\xc2\xa07:02AM UTC'
p1342
sg6
S'Preview: Cardinals at Brewers'
p1343
sa(dp1344
g2
S'http://www.reuters.com/article/2014/07/13/swimming-australia-thorpe-idUSL4N0PO04920140713'
p1345
sg4
S'20140713\xc2\xa07:02AM UTC'
p1346
sg6
S'UPDATE 3-Swimming-Emotional Thorpe comes out in TV interview'
p1347
sa(dp1348
g2
S'http://www.reuters.com/article/2014/07/13/togo-accor-idUSL6N0PO0GZ20140713'
p1349
sg4
S'20140713\xc2\xa06:59AM UTC'
p1350
sg6
S'Togo evicts hotel group Accor amid contract dispute'
p1351
sa(dp1352
g2
S'http://www.reuters.com/article/2014/07/13/us-libya-security-toll-idUSKBN0FI0E020140713'
p1353
sg4
S'20140713\xc2\xa06:58AM UTC'
p1354
sg6
S'At least three killed, 11 wounded in clashes at Tripoli airport: medics'
p1355
sa(dp1356
g2
S'http://www.reuters.com/article/2014/07/13/airshow-britain-sikorsky-helicopter-idUSL6N0PO0J820140713'
p1357
sg4
S'20140713\xc2\xa06:58AM UTC'
p1358
sg6
S'AIRSHOW-Sikorsky sees delay in first flight of Marine Corps helicopter'
p1359
sa(dp1360
g2
S'http://www.reuters.com/article/2014/07/13/airshow-britain-cfm-idUSL6N0PO0GQ20140713'
p1361
sg4
S'20140713\xc2\xa06:50AM UTC'
p1362
sg6
S'AIRSHOW-Engine maker CFM eyes record orders in 2014'
p1363
sa(dp1364
g2
S'http://www.reuters.com/article/2014/07/13/saudi-olayan-juice-idUSL6N0PO0HQ20140713'
p1365
sg4
S'20140713\xc2\xa06:45AM UTC'
p1366
sg6
S'Saudi conglomerate Olayan buys 51 pct stake in Gulf Union Foods Co'
p1367
sa(dp1368
g2
S'http://www.reuters.com/article/2014/07/13/biscomisr-abraaj-idUSL6N0PO0CT20140713'
p1369
sg4
S'20140713\xc2\xa06:36AM UTC'
p1370
sg6
S"UPDATE 2-Abraaj Investment Management makes bid approach to Egypt's Bisco Misr"
p1371
sa(dp1372
g2
S'http://www.reuters.com/article/2014/07/13/us-palestinians-israel-pope-idUSKBN0FI0D220140713'
p1373
sg4
S'20140713\xc2\xa06:35AM UTC'
p1374
sg6
S'Pope calls for stop to Mideast hostilities'
p1375
sa(dp1376
g2
S'http://www.reuters.com/article/2014/07/13/us-palestinians-israel-france-idUSKBN0FI0CC20140713'
p1377
sg4
S'20140713\xc2\xa06:24AM UTC'
p1378
sg6
S"France's Fabius says Gaza ceasefire is 'absolute priority'"
p1379
sa(dp1380
g2
S'http://www.reuters.com/article/2014/07/13/idUSL6N0PO0FF20140713'
p1381
sg4
S'20140713\xc2\xa06:23AM UTC'
p1382
sg6
S"S. Africa's NUMSA rejects pay offer, strike continues"
p1383
sa(dp1384
g2
S'http://www.reuters.com/article/2014/07/13/us-palestinians-israel-concert-idUSKBN0FI0BU20140713'
p1385
sg4
S'20140713\xc2\xa06:16AM UTC'
p1386
sg6
S"Israeli authorities cancel Neil Young's gig due to Gaza rocket fire"
p1387
sa(dp1388
g2
S'http://www.reuters.com/article/2014/07/13/britain-mergers-idUSL6N0PO0DY20140713'
p1389
sg4
S'20140713\xc2\xa06:13AM UTC'
p1390
sg6
S'Britain plans to remove "wiggle room" in foreign takeover rules -minister'
p1391
sa(dp1392
g2
S'http://www.reuters.com/article/2014/07/13/us-iraq-security-town-idUSKBN0FI08220140713'
p1393
sg4
S'20140713\xc2\xa06:12AM UTC'
p1394
sg6
S'Insurgents attack town north of Baghdad'
p1395
sa(dp1396
g2
S'http://www.reuters.com/article/2014/07/13/us-iraq-security-idUSKBN0FH0FF20140713'
p1397
sg4
S'20140713\xc2\xa06:12AM UTC'
p1398
sg6
S'Iraq headed for chaos unless politicians unite, U.N. says'
p1399
sa(dp1400
g2
S'http://www.reuters.com/article/2014/07/13/us-iraq-security-parliament-idUSKBN0FI0BN20140713'
p1401
sg4
S'20140713\xc2\xa06:11AM UTC'
p1402
sg6
S'Iraq parliament postpones meeting on new government to Tuesday'
p1403
sa(dp1404
g2
S'http://www.reuters.com/article/2014/07/13/ukraine-crisis-consequences-idUSL5N0OX2E120140713'
p1405
sg4
S'20140713\xc2\xa06:06AM UTC'
p1406
sg6
S'Russia warns Ukraine of "irreversible" consequences after shelling'
p1407
sa(dp1408
g2
S'http://www.reuters.com/article/2014/07/13/prn-good-morning-idUSnPn6LSS8t+9c+PRN20140713'
p1409
sg4
S'20140713\xc2\xa05:59AM UTC'
p1410
sg6
S'GOOD MORNING'
p1411
sa(dp1412
g2
S'http://www.reuters.com/article/2014/07/13/alzheimers-cataract-idUSnPn5tzCBM+87+PRN20140713'
p1413
sg4
S'20140713\xc2\xa05:45AM UTC'
p1414
sg6
S'For People With Dementia, Cataract Surgery Improves Not Only Vision But Cognition And Quality Of Life'
p1415
sa(dp1416
g2
S'http://www.reuters.com/article/2014/07/13/us-economy-global-idUSKBN0FI0A820140713'
p1417
sg4
S'20140713\xc2\xa05:33AM UTC'
p1418
sg6
S"Charting a path to 'normalization'"
p1419
sa(dp1420
g2
S'http://www.reuters.com/article/2014/07/13/us-iran-nuclear-kerry-idUSKBN0FI05W20140713'
p1421
sg4
S'20140713\xc2\xa05:30AM UTC'
p1422
sg6
S'Kerry arrives in Vienna for Iran nuclear talks'
p1423
sa(dp1424
g2
S'http://www.reuters.com/article/2014/07/13/idUSL6N0PO0BM20140713'
p1425
sg4
S'20140713\xc2\xa05:11AM UTC'
p1426
sg6
S"Abraaj Investment Management makes bid approach to Egypt's Bisco Misr"
p1427
sa(dp1428
g2
S'http://www.reuters.com/article/2014/07/13/rosneft-weatherford-deal-idUSL6N0PO0BN20140713'
p1429
sg4
S'20140713\xc2\xa05:06AM UTC'
p1430
sg6
S"Russia's Rosneft agrees to buy Weatherford's Russian, Venezuelan assets"
p1431
sa(dp1432
g2
S'http://www.reuters.com/article/2014/07/13/israel-natgas-leviathan-idUSL6N0PO08Q20140713'
p1433
sg4
S'20140713\xc2\xa05:04AM UTC'
p1434
sg6
S"Israel's Leviathan gas reserves estimate raised by 16 pct"
p1435
sa(dp1436
g2
S'http://www.reuters.com/article/2014/07/13/us-france-sarkozy-judges-idUSKBN0FI0A320140713'
p1437
sg4
S'20140713\xc2\xa05:02AM UTC'
p1438
sg6
S"Sarkozy's war with judges risks hurting French establishment"
p1439
sa(dp1440
g2
S'http://www.reuters.com/article/2014/07/13/economy-global-idUSL6N0PM3CM20140713'
p1441
sg4
S'20140713\xc2\xa05:00AM UTC'
p1442
sg6
S'GLOBAL ECONOMY WEEKAHEAD-Charting a path to "normalisation"'
p1443
sa(dp1444
g2
S'http://www.reuters.com/article/2014/07/13/us-malta-rescue-idUSKBN0FI09V20140713'
p1445
sg4
S'20140713\xc2\xa04:52AM UTC'
p1446
sg6
S'Malta couple setting up private rescue service in Mediterranean'
p1447
sa(dp1448
g2
S'http://www.reuters.com/article/2014/07/13/us-airshow-britain-cfm-american-airlines-idUSKBN0FI09B20140713'
p1449
sg4
S'20140713\xc2\xa04:35AM UTC'
p1450
sg6
S'American Airlines picks CFM for $2.6 billion engine deal'
p1451
sa(dp1452
g2
S'http://www.reuters.com/article/2014/07/13/airshow-britain-cfm-american-airlines-idUSL6N0PO09M20140713'
p1453
sg4
S'20140713\xc2\xa04:29AM UTC'
p1454
sg6
S'AIRSHOW-American Airlines picks CFM for $2.6 bln engine deal'
p1455
sa(dp1456
g2
S'http://www.reuters.com/article/2014/07/13/us-banks-sanctions-idUSKBN0FI09120140713'
p1457
sg4
S'20140713\xc2\xa04:23AM UTC'
p1458
sg6
S'Bruised and grumbling, foreign banks bend to U.S. rules'
p1459
sa(dp1460
g2
S'http://www.reuters.com/article/2014/07/13/banks-sanctions-idUSL6N0PK30R20140713'
p1461
sg4
S'20140713\xc2\xa04:18AM UTC'
p1462
sg6
S'Bruised and grumbling, foreign banks bend to U.S. rules'
p1463
sa(dp1464
g2
S'http://www.reuters.com/article/2014/07/13/us-airshow-britain-marines-idUSKBN0FI08M20140713'
p1465
sg4
S'20140713\xc2\xa04:11AM UTC'
p1466
sg6
S"U.S. Marines air chief wants to curb 'big wish lists' for arms upgrades"
p1467
sa(dp1468
g2
S'http://www.reuters.com/article/2014/07/13/us-germany-berlin-economy-insight-idUSKBN0FI07O20140713'
p1469
sg4
S'20140713\xc2\xa04:06AM UTC'
p1470
sg6
S"After decades of disappointment, Berlin's economy looks up"
p1471
sa(dp1472
g2
S'http://www.reuters.com/article/2014/07/13/airshow-britain-marines-idUSL2N0PN0QD20140713'
p1473
sg4
S'20140713\xc2\xa04:06AM UTC'
p1474
sg6
S'US Marines air chief wants to curb "big wish lists" for arms upgrades'
p1475
sa(dp1476
g2
S'http://www.reuters.com/article/2014/07/13/us-dark-pools-exchanges-idUSKBN0FI08G20140713'
p1477
sg4
S'20140713\xc2\xa04:06AM UTC'
p1478
sg6
S'Dark pool scrutiny no slam dunk for traditional exchanges'
p1479
sa(dp1480
g2
S'http://www.reuters.com/article/2014/07/13/dark-pools-exchanges-idUSL6N0PL5PD20140713'
p1481
sg4
S'20140713\xc2\xa04:00AM UTC'
p1482
sg6
S'Dark pool scrutiny no slam dunk for traditional exchanges'
p1483
sa(dp1484
g2
S'http://www.reuters.com/article/2014/07/13/al-rajhi-banking-results-idUSL6N0PO04L20140713'
p1485
sg4
S'20140713\xc2\xa03:44AM UTC'
p1486
sg6
S"UPDATE 1-Saudi's Al Rajhi Bank posts fourth straight quarterly profit dip"
p1487
sa(dp1488
g2
S'http://www.reuters.com/article/2014/07/13/us-iran-nuclear-idUSKBN0FH0OY20140713'
p1489
sg4
S'20140713\xc2\xa03:38AM UTC'
p1490
sg6
S"Iran sticks to 'unworkable, inadequate' stances in nuclear talks: U.S."
p1491
sa(dp1492
g2
S'http://www.reuters.com/article/2014/07/13/bbo-padres-dodgers-writethru-idUSMTZEA7DMWYAQ820140713'
p1493
sg4
S'20140713\xc2\xa03:22AM UTC'
p1494
sg6
S'Maholm, Ellis lead Dodgers to 1-0 win'
p1495
sa(dp1496
g2
S'http://www.reuters.com/article/2014/07/13/raytheon-upgrade-idUSnPn99ktYd+82+PRN20140713'
p1497
sg4
S'20140713\xc2\xa03:00AM UTC'
p1498
sg6
S'US Army airborne radio upgrade allows more data sharing for thousands of Chinooks, Apaches, Black Hawks'
p1499
sa(dp1500
g2
S'http://www.reuters.com/article/2014/07/13/raytheon-upgrades-idUSnPn7DYMj7+9c+PRN20140713'
p1501
sg4
S'20140713\xc2\xa03:00AM UTC'
p1502
sg6
S"Raytheon upgrades Japanese Navy's friend or foe transponders"
p1503
sa(dp1504
g2
S'http://www.reuters.com/article/2014/07/13/raytheon-amraam-idUSnPn3ttStt+84+PRN20140713'
p1505
sg4
S'20140713\xc2\xa03:00AM UTC'
p1506
sg6
S'US Air Force fires two AMRAAMs from next-generation fighter'
p1507
sa(dp1508
g2
S'http://www.reuters.com/article/2014/07/13/raytheon-usaf-ads-b-idUSnPn2TsgMm+92+PRN20140713'
p1509
sg4
S'20140713\xc2\xa03:00AM UTC'
p1510
sg6
S'US Air Force integrating Raytheon aircraft-tracking transponders'
p1511
sa(dp1512
g2
S'http://www.reuters.com/article/2014/07/13/turkey-autos-idUSL6N0PN0IX20140713'
p1513
sg4
S'20140713\xc2\xa03:00AM UTC'
p1514
sg6
S'Turkish auto output seen at record level this year - Association'
p1515
sa(dp1516
g2
S'http://www.reuters.com/article/2014/07/13/germany-berlin-economy-idUSL6N0PK3XF20140713'
p1517
sg4
S'20140713\xc2\xa03:00AM UTC'
p1518
sg6
S"INSIGHT-After decades of disappointment, Berlin's economy looks up"
p1519
sa(dp1520
g2
S'http://www.reuters.com/article/2014/07/13/idUSnMKWkZf2Ma+1d2+MKW20140713'
p1521
sg4
S'20140713\xc2\xa02:55AM UTC'
p1522
sg6
S"Barrick Partners with Ma'aden to Form Jabal Sayid Joint Venture"
p1523
sa(dp1524
g2
S'http://www.reuters.com/article/2014/07/13/idUSnCCN3m4k3M+1c1+MKW20140713'
p1525
sg4
S'20140713\xc2\xa02:55AM UTC'
p1526
sg6
S"Barrick Partners with Ma'aden to Form Jabal Sayid Joint Venture"
p1527
sa(dp1528
g2
S'http://www.reuters.com/article/2014/07/13/us-china-corruption-idUSKBN0FI06920140713'
p1529
sg4
S'20140713\xc2\xa02:53AM UTC'
p1530
sg6
S'Chinese prosecutors detain top TV news anchor'
p1531
sa(dp1532
g2
S'http://www.reuters.com/article/2014/07/13/bbo-padres-playerwatch-idUSMTZEA7DN1R6TM20140713'
p1533
sg4
S'20140713\xc2\xa02:52AM UTC'
p1534
sg6
S'San Diego Padres - PlayerWatch'
p1535
sa(dp1536
g2
S'http://www.reuters.com/article/2014/07/13/bbo-dodgers-playerwatch-idUSMTZEA7DN1R6TJ20140713'
p1537
sg4
S'20140713\xc2\xa02:52AM UTC'
p1538
sg6
S'Los Angeles Dodgers - PlayerWatch'
p1539
sa(dp1540
g2
S'http://www.reuters.com/article/2014/07/13/us-barrick-gold-maaden-jointventure-idUSKBN0FI07M20140713'
p1541
sg4
S'20140713\xc2\xa02:52AM UTC'
p1542
sg6
S"Barrick to partner with Ma'aden on Saudi Arabian copper asset "
p1543
sa(dp1544
g2
S'http://www.reuters.com/article/2014/07/13/china-corruption-idUSL4N0PO06420140713'
p1545
sg4
S'20140713\xc2\xa02:51AM UTC'
p1546
sg6
S'UPDATE 1-Chinese prosecutors detain top TV news anchor'
p1547
sa(dp1548
g2
S'http://www.reuters.com/article/2014/07/13/barrick-gold-maaden-jointventure-idUSL2N0PO01W20140713'
p1549
sg4
S'20140713\xc2\xa02:42AM UTC'
p1550
sg6
S"Barrick to partner with Ma'aden on Saudi Arabian copper asset"
p1551
sa(dp1552
g2
S'http://www.reuters.com/article/2014/07/13/samba-financial-results-idUSL6N0PK4NP20140713'
p1553
sg4
S'20140713\xc2\xa02:31AM UTC'
p1554
sg6
S'Saudi lender Samba beats estimates with 7 pct Q2 net profit rise'
p1555
sa(dp1556
g2
S'http://www.reuters.com/article/2014/07/13/alz-eye-smell-tests-idUSnPn3bsdqk+80+PRN20140713'
p1557
sg4
S'20140713\xc2\xa02:30AM UTC'
p1558
sg6
S"Smell And Eye Tests Show Potential To Detect Alzheimer's Early"
p1559
sa(dp1560
g2
S'http://www.reuters.com/article/2014/07/13/al-rajhi-banking-results-idUSL6N0PO03N20140713'
p1561
sg4
S'20140713\xc2\xa02:25AM UTC'
p1562
sg6
S"RPT/Saudi's Al Rajhi Bank Q2 net profit slips 8.2 pct; matching forecast"
p1563
sa(dp1564
g2
S'http://www.reuters.com/article/2014/07/13/bank-dhofar-results-idUSL6N0PO03Z20140713'
p1565
sg4
S'20140713\xc2\xa02:02AM UTC'
p1566
sg6
S"Oman's Bank Dhofar Q2 net profit rises 23 pct, meets expectations"
p1567
sa(dp1568
g2
S'http://www.reuters.com/article/2014/07/13/bbo-athletics-mariners-recap-idUSMTZEA7DMWUZQ620140713'
p1569
sg4
S'20140713\xc2\xa01:57AM UTC'
p1570
sg6
S'Mariners 6, Athletics 2'
p1571
sa(dp1572
g2
S'http://www.reuters.com/article/2014/07/13/al-rajhi-banking-results-idUSL6N0PO03I20140713'
p1573
sg4
S'20140713\xc2\xa01:48AM UTC'
p1574
sg6
S"Saudi's Al Rajhi Bank Q2 net profit slips 8.2 pct; matching forecast"
p1575
sa(dp1576
g2
S'http://www.reuters.com/article/2014/07/13/us-usa-pasadena-shooting-idUSKBN0FI05020140713'
p1577
sg4
S'20140713\xc2\xa01:15AM UTC'
p1578
sg6
S'Three dead, two wounded in Pasadena, California shootings'
p1579
sa(dp1580
g2
S'http://www.reuters.com/article/2014/07/13/china-corruption-idUSL4N0PO04L20140713'
p1581
sg4
S'20140713\xc2\xa01:11AM UTC'
p1582
sg6
S'Chinese prosecutors detain top TV news anchor'
p1583
sa(dp1584
g2
S'http://www.reuters.com/article/2014/07/13/bbo-nationals-phillies-writethru-idUSMTZEA7DMSFTMY20140713'
p1585
sg4
S'20140713\xc2\xa01:11AM UTC'
p1586
sg6
S'Two-run 10th sends Nationals past Phillies'
p1587
sa(dp1588
g2
S'http://www.reuters.com/article/2014/07/13/argus-media-ranking-idUSnPnb2qPTy+86+PRN20140713'
p1589
sg4
S'20140713\xc2\xa01:00AM UTC'
p1590
sg6
S"Argus climbs rankings of UK's fastest growing exporters"
p1591
sa(dp1592
g2
S'http://www.reuters.com/article/2014/07/13/honda-iowa-speedway-idUSnPn1CB1Pb+9a+PRN20140713'
p1593
sg4
S'20140713\xc2\xa012:44AM UTC'
p1594
sg6
S'Honda Finishes 1-2 at Iowa Speedway'
p1595
sa(dp1596
g2
S'http://www.reuters.com/article/2014/07/13/us-usa-connecticut-amistad-idUSKBN0FI05M20140713'
p1597
sg4
S'20140713\xc2\xa012:36AM UTC'
p1598
sg6
S"'Amistad' replica lends a touch of drama to Connecticut tall ships fest"
p1599
sa(dp1600
g2
S'http://www.reuters.com/article/2014/07/13/mideast-factors-idUSL6N0PO02S20140713'
p1601
sg4
S'20140713\xc2\xa012:35AM UTC'
p1602
sg6
S'MIDEAST STOCKS - Factors to watch - July 13'
p1603
sa(dp1604
g2
S'http://www.reuters.com/article/2014/07/13/us-lockheed-martin-fighter-idUSKBN0FH02O20140713'
p1605
sg4
S'20140713\xc2\xa012:33AM UTC'
p1606
sg6
S'U.S. Navy maintains grounding order for F-35 fighter jets'
p1607
sa(dp1608
g2
S'http://www.reuters.com/article/2014/07/13/us-trade-pacific-idUSKBN0FI05I20140713'
p1609
sg4
S'20140713\xc2\xa012:30AM UTC'
p1610
sg6
S'Japan says Pacific trade talks agree broadly on labor, health issues'
p1611
sa(dp1612
g2
S'http://www.reuters.com/article/2014/07/13/usa-connecticut-amistad-idUSL2N0PO02S20140713'
p1613
sg4
S'20140713\xc2\xa012:28AM UTC'
p1614
sg6
S"'Amistad' replica lends a touch of drama to Connecticut tall ships fest"
p1615
sa(dp1616
g2
S'http://www.reuters.com/article/2014/07/13/bbo-pirates-reds-recap-idUSMTZEA7DMSI9N420140713'
p1617
sg4
S'20140713\xc2\xa012:08AM UTC'
p1618
sg6
S'Pirates 6, Reds 5 (11)'
p1619
sa(dp1620
g2
S'http://www.reuters.com/article/2014/07/13/census-daily-feature-idUSnPn1xqXTL+87+PRN20140713'
p1621
sg4
S'20140713\xc2\xa012:01AM UTC'
p1622
sg6
S'U.S. Census Bureau Daily Feature for July 13'
p1623
sa(dp1624
g2
S'http://www.reuters.com/news/video/videoStory?storyID=89853656'
p1625
sg4
S'20140713\xc2\xa011:52PM UTC'
p1626
sg6
S'Germany parties as team wins world cup'
p1627
sa(dp1628
g2
S'http://www.reuters.com/news/video/videoStory?storyID=89852347'
p1629
sg4
S'20140713\xc2\xa011:47PM UTC'
p1630
sg6
S'\xe3\x83\x87\xe3\x83\x95\xe3\x83\xac\xe8\x84\xb1\xe5\x8d\xb4\xe5\xae\xa3\xe8\xa8\x80\xe3\x81\xaf2\xef\xbc\x85\xe7\x89\xa9\xe4\xbe\xa1\xe7\x9b\xae\xe6\xa8\x99\xe5\xae\x9a\xe7\x9d\x80\xe3\x81\x8c\xe5\x89\x8d\xe6\x8f\x90\xe3\x81\xab\xef\xbc\x9d\xe7\x94\x98\xe5\x88\xa9\xe6\x8b\x85\xe5\xbd\x93\xe7\x9b\xb8\xef\xbc\x8811\xe6\x97\xa5\xef\xbc\x89'
p1631
sa(dp1632
g2
S'http://www.reuters.com/news/video/videoStory?storyID=89851922'
p1633
sg4
S'20140713\xc2\xa011:30PM UTC'
p1634
sg6
S"Breakingviews: Odd timing for WH Group's leaner IPO"
p1635
sa(dp1636
g2
S'http://www.reuters.com/news/video/videoStory?storyID=89851228'
p1637
sg4
S'20140713\xc2\xa011:18PM UTC'
p1638
sg6
S'In Australia, the end of Shiraz as we know it?'
p1639
sa(dp1640
g2
S'http://www.reuters.com/news/video/videoStory?storyID=89849131'
p1641
sg4
S'20140713\xc2\xa010:14PM UTC'
p1642
sg6
S'Germany fans celebrate World Cup victory outside Maracana'
p1643
sa(dp1644
g2
S'http://www.reuters.com/news/video/videoStory?storyID=89850333'
p1645
sg4
S'20140713\xc2\xa010:14PM UTC'
p1646
sg6
S'Nigerians keep up protests to demand action on kidnapped girls'
p1647
sa(dp1648
g2
S'http://www.reuters.com/news/video/videoStory?storyID=89888056'
p1649
sg4
S'20140713\xc2\xa08:44PM UTC'
p1650
sg6
S'Israel claims to shoot down Gaza drone'
p1651
sa(dp1652
g2
S'http://www.reuters.com/news/video/videoStory?storyID=89901380'
p1653
sg4
S'20140713\xc2\xa08:40PM UTC'
p1654
sg6
S'EU telecoms could follow U.S. M&A; model \xe2\x80\x93 Hogan Lovells'
p1655
sa(dp1656
g2
S'http://www.reuters.com/news/video/videoStory?storyID=89883717'
p1657
sg4
S'20140713\xc2\xa08:23PM UTC'
p1658
sg6
S"India's monetary policy is far better than most other EMs: Trusted Sources"
p1659
sa(dp1660
g2
S'http://www.reuters.com/news/video/videoStory?storyID=89887629'
p1661
sg4
S'20140713\xc2\xa08:07PM UTC'
p1662
sg6
S'Disney World monorail evacuated'
p1663
sa(dp1664
g2
S'http://www.reuters.com/news/video/videoStory?storyID=89849518'
p1665
sg4
S'20140713\xc2\xa06:54PM UTC'
p1666
sg6
S'Back-to-back lightning strikes leave several dead in Colorado'
p1667
sa(dp1668
g2
S'http://www.reuters.com/news/video/videoStory?storyID=89849129'
p1669
sg4
S'20140713\xc2\xa05:49PM UTC'
p1670
sg6
S'Portland attempts world record for tree hugging'
p1671
sa(dp1672
g2
S'http://www.reuters.com/news/video/videoStory?storyID=89834940'
p1673
sg4
S'20140713\xc2\xa04:43PM UTC'
p1674
sg6
S'Brazil police disperse World Cup protesters with tear gas, pepper spray'
p1675
sa(dp1676
g2
S'http://www.reuters.com/news/video/videoStory?storyID=89834779'
p1677
sg4
S'20140713\xc2\xa04:34PM UTC'
p1678
sg6
S"Amid new spy scandal, Kerry says U.S., Germany 'great friends'"
p1679
sa(dp1680
g2
S'http://www.reuters.com/news/video/videoStory?storyID=89834223'
p1681
sg4
S'20140713\xc2\xa04:31PM UTC'
p1682
sg6
S'Warring sides in Gaza conflict campaign through social media'
p1683
sa(dp1684
g2
S'http://www.reuters.com/news/video/videoStory?storyID=89831039'
p1685
sg4
S'20140713\xc2\xa03:28PM UTC'
p1686
sg6
S'Malala campaigns on behalf of abducted schoolgirls in Nigeria'
p1687
sa(dp1688
g2
S'http://www.reuters.com/news/video/videoStory?storyID=89832003'
p1689
sg4
S'20140713\xc2\xa02:48PM UTC'
p1690
sg6
S'NASA launches Antares rocket to ISS'
p1691
sa(dp1692
g2
S'http://www.reuters.com/news/video/videoStory?storyID=89828855'
p1693
sg4
S'20140713\xc2\xa02:14PM UTC'
p1694
sg6
S'One man killed as shell from Ukraine hits Russian border town'
p1695
sa(dp1696
g2
S'http://www.reuters.com/news/video/videoStory?storyID=89827701'
p1697
sg4
S'20140713\xc2\xa01:20PM UTC'
p1698
sg6
S'Israel mobilizes 20,000 troops for possible ground offensive'
p1699
sa(dp1700
g2
S'http://www.reuters.com/news/video/videoStory?storyID=89827495'
p1701
sg4
S'20140713\xc2\xa01:16PM UTC'
p1702
sg6
S'Popes from World Cup teams show no sign of rivalry'
p1703
sa(dp1704
g2
S'http://www.reuters.com/news/video/videoStory?storyID=89826180'
p1705
sg4
S'20140713\xc2\xa012:18PM UTC'
p1706
sg6
S"Texas shooting survivor says slain family 'in much better place'"
p1707
sa(dp1708
g2
S'http://www.reuters.com/news/video/videoStory?storyID=89824633'
p1709
sg4
S'20140713\xc2\xa011:27AM UTC'
p1710
sg6
S'Netanyahu says Hamas responsible for Palestinian casualties'
p1711
sa(dp1712
g2
S'http://www.reuters.com/news/video/videoStory?storyID=89823790'
p1713
sg4
S'20140713\xc2\xa010:57AM UTC'
p1714
sg6
S'Israeli army phones Gaza civilians, warns of imminent attack'
p1715
sa(dp1716
g2
S'http://www.reuters.com/news/video/videoStory?storyID=89823107'
p1717
sg4
S'20140713\xc2\xa010:22AM UTC'
p1718
sg6
S'Israel\'s Netanyahu says Gaza offensive "may take a long time"'
p1719
sa(dp1720
g2
S'http://www.reuters.com/news/video/videoStory?storyID=89820043'
p1721
sg4
S'20140713\xc2\xa09:15AM UTC'
p1722
sg6
S'New Yorkers gawk over dazzling, rare sunset over Manhattan'
p1723
sa(dp1724
g2
S'http://www.reuters.com/news/video/videoStory?storyID=89815260'
p1725
sg4
S'20140713\xc2\xa06:58AM UTC'
p1726
sg6
S'Sand and the City - a floating beach for NYC?'
p1727
sa(dp1728
g2
S'http://www.reuters.com/news/video/videoStory?storyID=89815264'
p1729
sg4
S'20140713\xc2\xa06:54AM UTC'
p1730
sg6
S'Robot concierge \xe2\x80\x9cRay\xe2\x80\x9d parks cars hassle-free'
p1731
sa(dp1732
g2
S'http://www.reuters.com/news/video/videoStory?storyID=89812919'
p1733
sg4
S'20140713\xc2\xa03:48AM UTC'
p1734
sg6
S'18 dead in single Gaza bombing'
p1735
sa(dp1736
g2
S'http://www.reuters.com/news/video/videoStory?storyID=89811171'
p1737
sg4
S'20140713\xc2\xa02:18AM UTC'
p1738
sg6
S'Dozens killed in Baghdad shooting'
p1739
sa(dp1740
g2
S'http://www.reuters.com/news/video/videoStory?storyID=89810902'
p1741
sg4
S'20140713\xc2\xa02:04AM UTC'
p1742
sg6
S'Hamas unveils attack video'
p1743
sa(dp1744
g2
S'http://www.reuters.com/news/video/videoStory?storyID=89810155'
p1745
sg4
S'20140713\xc2\xa01:40AM UTC'
p1746
sg6
S'Dozens die in Baghdad attack'
p1747
sa.