(lp0
(dp1
S'href'
p2
S'http://www.reuters.com/article/2014/02/17/us-syria-crisis-rebels-idUSBREA1G05420140217'
p3
sS'ts'
p4
S'20140216\xc2\xa011:59PM UTC'
p5
sS'title'
p6
S'Free Syrian Army sacks chief, appoints replacement'
p7
sa(dp8
g2
S'http://www.reuters.com/article/2014/02/17/malaysia-epf-idUSL3N0LM1GS20140217'
p9
sg4
S'20140216\xc2\xa011:58PM UTC'
p10
sg6
S"Malaysia's EPF declares 2013 dividend of 6.35 pct"
p11
sa(dp12
g2
S'http://www.reuters.com/article/2014/02/17/olympics-biathlon-postponed-idUSL6N0LM05C20140217'
p13
sg4
S'20140216\xc2\xa011:57PM UTC'
p14
sg6
S"Olympics-Biathlon-Men's mass start postponed again due to fog"
p15
sa(dp16
g2
S'http://www.reuters.com/article/2014/02/17/indonesia-kerry-syria-idUSL3N0LM12C20140217'
p17
sg4
S'20140216\xc2\xa011:55PM UTC'
p18
sg6
S"Syria's Assad looks to win on battlefield, not through talks -Kerry"
p19
sa(dp20
g2
S'http://www.reuters.com/article/2014/02/17/markets-vietnam-stocks-idUSL3N0LM1I320140217'
p21
sg4
S'20140216\xc2\xa011:54PM UTC'
p22
sg6
S'Vietnam index flat at midday, banks lose'
p23
sa(dp24
g2
S'http://www.reuters.com/article/2014/02/17/singapore-economy-property-idUSL3N0LM1KS20140217'
p25
sg4
S'20140216\xc2\xa011:47PM UTC'
p26
sg6
S'Singapore Jan private home sales fall 72.1 pct year-on-year'
p27
sa(dp28
g2
S'http://www.reuters.com/article/2014/02/17/indonesia-kerry-asean-idUSL3N0LM12O20140217'
p29
sg4
S'20140216\xc2\xa011:47PM UTC'
p30
sg6
S'Asia-Pacific stability depends on success of ASEAN code of conduct -Kerry'
p31
sa(dp32
g2
S'http://www.reuters.com/article/2014/02/17/goldleaf-jewelry-brief-idUSL3N0LM1IB20140217'
p33
sg4
S'20140216\xc2\xa011:45PM UTC'
p34
sg6
S"BRIEF-China's Goldleaf Jewelry plans private placement to raise up to 5.7 bln yuan"
p35
sa(dp36
g2
S'http://www.reuters.com/article/2014/02/17/markets-singapore-shares-idUSL3N0LM1DT20140217'
p37
sg4
S'20140216\xc2\xa011:43PM UTC'
p38
sg6
S'UOB shares hit 2-1/2 wk high on positive results; Singapore index gains'
p39
sa(dp40
g2
S'http://www.reuters.com/article/2014/02/17/idUS306391718020140217'
p41
sg4
S'20140216\xc2\xa011:40PM UTC'
p42
sg6
S'India graft baiter\xe2\x80\x99s exit raises political risk'
p43
sa(dp44
g2
S'http://www.reuters.com/article/2014/02/17/komamura-corporation-idUSnBw165046a+100+BSW20140217'
p45
sg4
S'20140216\xc2\xa011:40PM UTC'
p46
sg6
S'Komamura Corporation: a Revolutionary Color Night Vision Video and Still Camera'
p47
sa(dp48
g2
S'http://www.reuters.com/article/2014/02/17/markets-hongkong-china-stocks-idUSL3N0LM0Y820140217'
p49
sg4
S'20140216\xc2\xa011:38PM UTC'
p50
sg6
S'Hong Kong shares hit 3-week high, Shanghai turns positive for 2014'
p51
sa(dp52
g2
S'http://www.reuters.com/article/2014/02/17/idUS328036858020140217'
p53
sg4
S'20140216\xc2\xa011:29PM UTC'
p54
sg6
S'On inequality'
p55
sa(dp56
g2
S'http://www.reuters.com/article/2014/02/17/idUS130610315420140217'
p57
sg4
S'20140216\xc2\xa011:29PM UTC'
p58
sg6
S'On inequality'
p59
sa(dp60
g2
S'http://www.reuters.com/article/2014/02/17/india-snapshot-idUSL3N0LM1JD20140217'
p61
sg4
S'20140216\xc2\xa011:26PM UTC'
p62
sg6
S'SNAPSHOT-India stocks, bonds, rupee, swaps, call at 0425 GMT'
p63
sa(dp64
g2
S'http://www.reuters.com/article/2014/02/17/markets-oil-idUSL3N0LM1FT20140217'
p65
sg4
S'20140216\xc2\xa011:25PM UTC'
p66
sg6
S'Brent slips below $109 as demand fears weigh; cold spell supports'
p67
sa(dp68
g2
S'http://www.reuters.com/article/2014/02/17/knoc-korea-idUSL3N0LM1A920140217'
p69
sg4
S'20140216\xc2\xa011:25PM UTC'
p70
sg6
S"S.Korea's KNOC selling land for refining or petchem investment"
p71
sa(dp72
g2
S'http://www.reuters.com/article/2014/02/17/idUS34801689720140217'
p73
sg4
S'20140216\xc2\xa011:21PM UTC'
p74
sg6
S'Despite stimulus, middle class still struggles'
p75
sa(dp76
g2
S'http://www.reuters.com/article/2014/02/17/market-chatter-idUSL3N0LM1CK20140217'
p77
sg4
S'20140216\xc2\xa011:05PM UTC'
p78
sg6
S'Market Chatter- Corporate finance press digest'
p79
sa(dp80
g2
S'http://www.reuters.com/article/2014/02/17/idUSnHUGdwFg+72+ONE20140217'
p81
sg4
S'20140216\xc2\xa011:00PM UTC'
p82
sg6
S'W\xc3\xa4rtsil\xc3\xa4 successfully finalises propeller design and installation for Australian FPSO conversion'
p83
sa(dp84
g2
S'http://www.reuters.com/article/2014/02/17/miff-pre-registration-idUSnPnHKsrSRd+166+PRN20140217'
p85
sg4
S'20140216\xc2\xa011:00PM UTC'
p86
sg6
S'MIFF 2014 Reports 40 Per Cent Spike In Pre-Registration'
p87
sa(dp88
g2
S'http://www.reuters.com/article/2014/02/17/us-usa-courts-wallstreet-idUSBREA1F0M120140217'
p89
sg4
S'20140216\xc2\xa010:54PM UTC'
p90
sg6
S'Small-firm lawyer takes on Wall Street and wins, twice'
p91
sa(dp92
g2
S'http://www.reuters.com/article/2014/02/17/us-usa-concrete-california-idUSBREA1G04K20140217'
p93
sg4
S'20140216\xc2\xa010:52PM UTC'
p94
sg6
S'Lofty Los Angeles office tower launched with record concrete pour'
p95
sa(dp96
g2
S'http://www.reuters.com/article/2014/02/17/usa-concrete-california-idUSL2N0LM02C20140217'
p97
sg4
S'20140216\xc2\xa010:49PM UTC'
p98
sg6
S'Lofty Los Angeles office tower launched with record concrete pour'
p99
sa(dp100
g2
S'http://www.reuters.com/article/2014/02/17/us-japan-economy-gdp-idUSBREA1F0XF20140217'
p101
sg4
S'20140216\xc2\xa010:46PM UTC'
p102
sg6
S"Japan's economy grows at slower pace, raises stakes for Abenomics"
p103
sa(dp104
g2
S'http://www.reuters.com/article/2014/02/17/us-china-taiwan-idUSBREA1G04F20140217'
p105
sg4
S'20140216\xc2\xa010:45PM UTC'
p106
sg6
S'China says keen on meeting with Taiwan president, but no rush'
p107
sa(dp108
g2
S'http://www.reuters.com/article/2014/02/17/japan-economy-gdp-idUSL3N0LI1QR20140217'
p109
sg4
S'20140216\xc2\xa010:38PM UTC'
p110
sg6
S"REFILE-UPDATE 2 -Japan's economy grows at slower pace, raises stakes for Abenomics"
p111
sa(dp112
g2
S'http://www.reuters.com/article/2014/02/17/fitch-places-cosmos-bank-taiwan-on-ratin-idUSFit69080520140217'
p113
sg4
S'20140216\xc2\xa010:37PM UTC'
p114
sg6
S'Fitch Places Cosmos Bank, Taiwan on Rating Watch Positive'
p115
sa(dp116
g2
S'http://www.reuters.com/article/2014/02/17/loop-bharti-press-idUSL3N0LM1DA20140217'
p117
sg4
S'20140216\xc2\xa010:31PM UTC'
p118
sg6
S"India's Bharti to buy Loop Mobile in $113 mln deal - reports"
p119
sa(dp120
g2
S'http://www.reuters.com/article/2014/02/17/column-russell-china-crude-idUSL3N0LM02P20140217'
p121
sg4
S'20140216\xc2\xa010:31PM UTC'
p122
sg6
S'COLUMN-Record China crude imports may be more than new year aberration: Clyde Russell'
p123
sa(dp124
g2
S'http://www.reuters.com/article/2014/02/17/us-venezuela-protests-idUSBREA1F0SQ20140217'
p125
sg4
S'20140216\xc2\xa010:31PM UTC'
p126
sg6
S"Venezuela's Lopez says ready for arrest at Tuesday march"
p127
sa(dp128
g2
S'http://www.reuters.com/article/2014/02/17/india-cbank-reverserepo-idUSI8N0L800420140217'
p129
sg4
S'20140216\xc2\xa010:19PM UTC'
p130
sg6
S'TABLE-India cbank says reverse repo bids fall to 1.59 bln rupees'
p131
sa(dp132
g2
S'http://www.reuters.com/article/2014/02/17/us-thailand-economy-forecasts-instant-vi-idUSBREA1G03T20140217'
p133
sg4
S'20140216\xc2\xa010:17PM UTC'
p134
sg6
S'Instant View: Thai fourth-quarter GDP growth slowed to 0.6 pct q/q, as expected'
p135
sa(dp136
g2
S'http://www.reuters.com/article/2014/02/17/markets-forex-idUSL3N0LM06N20140217'
p137
sg4
S'20140216\xc2\xa010:15PM UTC'
p138
sg6
S'FOREX-Dollar hamstrung by data, slips vs yen after soft Japan GDP'
p139
sa(dp140
g2
S'http://www.reuters.com/article/2014/02/17/morningcall-india-idUSL3N0LM1AL20140217'
p141
sg4
S'20140216\xc2\xa010:06PM UTC'
p142
sg6
S'India Morning Call-Global Markets'
p143
sa(dp144
g2
S'http://www.reuters.com/article/2014/02/17/mideast-factors-idUSL6N0LM00G20140217'
p145
sg4
S'20140216\xc2\xa010:05PM UTC'
p146
sg6
S'MIDEAST STOCKS - Factors to watch - Feb 17'
p147
sa(dp148
g2
S'http://www.reuters.com/article/2014/02/17/idUSnHUGdwL8+72+ONE20140217'
p149
sg4
S'20140216\xc2\xa010:00PM UTC'
p150
sg6
S'Transocean Ltd. Announces 2014 Annual General Meeting; Board Recommends Dividend of $3.00 Per Share, Other Agenda Items'
p151
sa(dp152
g2
S'http://www.reuters.com/article/2014/02/17/markets-japan-jgb-idUSL3N0LM18B20140217'
p153
sg4
S'20140216\xc2\xa010:00PM UTC'
p154
sg6
S'JGBs slightly lower; trade thin ahead of BOJ meeting'
p155
sa(dp156
g2
S'http://www.reuters.com/article/2014/02/17/india-press-bhartiairtel-idUSL3N0KV19U20140217'
p157
sg4
S'20140216\xc2\xa010:00PM UTC'
p158
sg6
S'INDIA PRESS-Bharti Airtel set to acquire Loop Mobile in 7 bln rupees deal-Economic Times'
p159
sa(dp160
g2
S'http://www.reuters.com/article/2014/02/17/us-venezuela-protests-usa-idUSBREA1G03820140217'
p161
sg4
S'20140216\xc2\xa09:58PM UTC'
p162
sg6
S"Venezuela's Maduro says expelled three U.S. consular officials"
p163
sa(dp164
g2
S'http://www.reuters.com/article/2014/02/17/us-china-xinjiang-idUSBREA1G02V20140217'
p165
sg4
S'20140216\xc2\xa09:55PM UTC'
p166
sg6
S'China says religious extremists behind latest Xinjiang unrest'
p167
sa(dp168
g2
S'http://www.reuters.com/article/2014/02/17/venezuela-protests-usa-idUSL2N0LM02420140217'
p169
sg4
S'20140216\xc2\xa09:53PM UTC'
p170
sg6
S"Venezuela's Maduro says expelled three U.S. consular officials"
p171
sa(dp172
g2
S'http://www.reuters.com/article/2014/02/17/us-colombia-military-corruption-idUSBREA1G02M20140217'
p173
sg4
S'20140216\xc2\xa09:52PM UTC'
p174
sg6
S'Colombia president orders inquiry into army kickback allegations'
p175
sa(dp176
g2
S'http://www.reuters.com/article/2014/02/17/markets-korea-stocks-idUSL3N0LM14S20140217'
p177
sg4
S'20140216\xc2\xa09:45PM UTC'
p178
sg6
S'Seoul shares rise to near 4-week high on global growth hopes'
p179
sa(dp180
g2
S'http://www.reuters.com/article/2014/02/17/colombia-military-corruption-idUSL2N0LM01K20140217'
p181
sg4
S'20140216\xc2\xa09:41PM UTC'
p182
sg6
S'Colombia president orders inquiry into army kickback allegations'
p183
sa(dp184
g2
S'http://www.reuters.com/article/2014/02/17/markets-japan-stocks-idUSL3N0LL0BM20140217'
p185
sg4
S'20140216\xc2\xa09:37PM UTC'
p186
sg6
S'Nikkei rebounds in choppy trade; Rakuten slides'
p187
sa(dp188
g2
S'http://www.reuters.com/article/2014/02/17/il-kellogg-school-mgmt-idUSnBw165043a+100+BSW20140217'
p189
sg4
S'20140216\xc2\xa09:30PM UTC'
p190
sg6
S'Guanghua School of Management and Kellogg School of Management Launch the Guanghua-Kellogg Executive MBA Program'
p191
sa(dp192
g2
S'http://www.reuters.com/article/2014/02/17/idUSnGNX2FWd2C+1d9+GNW20140217'
p193
sg4
S'20140216\xc2\xa09:27PM UTC'
p194
sg6
S'CreditCard.com.au survey finds Online Shopping top reason for choosing a credit card in 2013'
p195
sa(dp196
g2
S'http://www.reuters.com/article/2014/02/17/samsungengineering-order-idUSS6N0HT00920140217'
p197
sg4
S'20140216\xc2\xa09:11PM UTC'
p198
sg6
S"S.Korea's Samsung Engineering wins $800 mln order in Algeria"
p199
sa(dp200
g2
S'http://www.reuters.com/article/2014/02/17/samsung-investment-idUSL3N0LM0W220140217'
p201
sg4
S'20140216\xc2\xa09:07PM UTC'
p202
sg6
S'Samsung Elec says China plant to begin operations in H1 as planned'
p203
sa(dp204
g2
S'http://www.reuters.com/article/2014/02/17/idUSL3N0LM11220140217'
p205
sg4
S'20140216\xc2\xa09:05PM UTC'
p206
sg6
S"Vietnam's Eximbank says 2013 net down 69 pct y/y to $31 mln"
p207
sa(dp208
g2
S'http://www.reuters.com/article/2014/02/17/us-obama-aging-idUSBREA1G02820140217'
p209
sg4
S'20140216\xc2\xa09:03PM UTC'
p210
sg6
S"Obama bemoans growing 'older and creakier'"
p211
sa(dp212
g2
S'http://www.reuters.com/article/2014/02/17/idf-shanghai-idUSnPnCNrWNMn+16e+PRN20140217'
p213
sg4
S'20140216\xc2\xa09:00PM UTC'
p214
sg6
S'Explore the Fascinating World of Building and Interior Design at the Shanghai Design Festival 2014'
p215
sa(dp216
g2
S'http://www.reuters.com/article/2014/02/17/mitsubishi-electric-idUSnBw165035a+100+BSW20140217'
p217
sg4
S'20140216\xc2\xa09:00PM UTC'
p218
sg6
S'Mitsubishi Electric Successfully Launches TURKSAT-4A Satellite<6503.T>'
p219
sa(dp220
g2
S'http://www.reuters.com/article/2014/02/17/fund-weekly-idUSL3N0LG0ZJ20140217'
p221
sg4
S'20140216\xc2\xa08:53PM UTC'
p222
sg6
S'Asia Fund Weekly News, Feb. 17, 2014'
p223
sa(dp224
g2
S'http://www.reuters.com/article/2014/02/17/press-digest-hongkong-idUSL3N0LM0Z020140217'
p225
sg4
S'20140216\xc2\xa08:53PM UTC'
p226
sg6
S'PRESS DIGEST - Hong Kong - Feb 17'
p227
sa(dp228
g2
S'http://www.reuters.com/article/2014/02/17/us-usa-radiation-newmexico-idUSBREA1G02520140217'
p229
sg4
S'20140216\xc2\xa08:50PM UTC'
p230
sg6
S'Excessive radiation levels detected at New Mexico waste site'
p231
sa(dp232
g2
S'http://www.reuters.com/article/2014/02/17/usa-radiation-newmexico-idUSL2N0LL0EU20140217'
p233
sg4
S'20140216\xc2\xa08:48PM UTC'
p234
sg6
S'UPDATE 1-Excessive radiation levels detected at New Mexico waste site'
p235
sa(dp236
g2
S'http://www.reuters.com/article/2014/02/17/vietbank-earnings-idUSL3N0LM0YV20140217'
p237
sg4
S'20140216\xc2\xa08:46PM UTC'
p238
sg6
S"VietinBank's 2013 net profit eases to $275 mln"
p239
sa(dp240
g2
S'http://www.reuters.com/article/2014/02/17/pve-weekly-idUSL3N0LF0DP20140217'
p241
sg4
S'20140216\xc2\xa08:40PM UTC'
p242
sg6
S'Asia Private Equity Weekly News, February 17, 2014'
p243
sa(dp244
g2
S'http://www.reuters.com/article/2014/02/17/us-golf-pga-idUSBREA1F0WF20140217'
p245
sg4
S'20140216\xc2\xa08:39PM UTC'
p246
sg6
S'Watson storms home to seal two-shot win at Riviera'
p247
sa(dp248
g2
S'http://www.reuters.com/article/2014/02/17/us-golf-pga-johnson-idUSBREA1G01Z20140217'
p249
sg4
S'20140216\xc2\xa08:39PM UTC'
p250
sg6
S'Once again, Johnson has to settle for second'
p251
sa(dp252
g2
S'http://www.reuters.com/article/2014/02/17/bkc-notredame-bostoncollege-recap-idUSMTZEA2H494JEI20140217'
p253
sg4
S'20140216\xc2\xa08:34PM UTC'
p254
sg6
S'Notre Dame 73, Boston College 69'
p255
sa(dp256
g2
S'http://www.reuters.com/article/2014/02/17/us-olympics-monday-idUSBREA1G00Z20140217'
p257
sg4
S'20140216\xc2\xa08:30PM UTC'
p258
sg6
S'Ice dancers glide to center stage at Sochi Games'
p259
sa(dp260
g2
S'http://www.reuters.com/article/2014/02/17/vietnam-press-idUSL3N0LM0TA20140217'
p261
sg4
S'20140216\xc2\xa08:30PM UTC'
p262
sg6
S"VIETNAM PRESS-Insurer Baoviet's gross profit drops 14 pct - Vietnam Economic Times"
p263
sa(dp264
g2
S'http://www.reuters.com/article/2014/02/17/bkc-rutgers-louisville-writethru-idUSMTZEA2H48NWEH20140217'
p265
sg4
S'20140216\xc2\xa08:30PM UTC'
p266
sg6
S'Hot-shooting Louisville routs Rutgers'
p267
sa(dp268
g2
S'http://www.reuters.com/article/2014/02/17/britain-press-ft-idUSL3N0LM0X920140217'
p269
sg4
S'20140216\xc2\xa08:28PM UTC'
p270
sg6
S'PRESS DIGEST- Financial Times - Feb 17'
p271
sa(dp272
g2
S'http://www.reuters.com/article/2014/02/17/us-brazil-worldcup-stadium-idUSBREA1F0DI20140217'
p273
sg4
S'20140216\xc2\xa08:28PM UTC'
p274
sg6
S'Inspector to probe fire at Brazil World Cup stadium'
p275
sa(dp276
g2
S'http://www.reuters.com/article/2014/02/17/vietnam-bidv-profit-idUSL3N0LM0VZ20140217'
p277
sg4
S'20140216\xc2\xa08:28PM UTC'
p278
sg6
S"Vietnam's BIDV says 2013 net profit rises to $192 mln"
p279
sa(dp280
g2
S'http://www.reuters.com/article/2014/02/17/britain-press-business-idUSL3N0LM06B20140217'
p281
sg4
S'20140216\xc2\xa08:26PM UTC'
p282
sg6
S'PRESS DIGEST- British Business - Feb 17'
p283
sa(dp284
g2
S'http://www.reuters.com/article/2014/02/17/bkc-minnesota-northwestern-recap-idUSMTZEA2H49JJEK20140217'
p285
sg4
S'20140216\xc2\xa08:25PM UTC'
p286
sg6
S'Minnesota 54, Northwestern 48'
p287
sa(dp288
g2
S'http://www.reuters.com/article/2014/02/17/indonesia-press-astrasedaya-idUSL3N0LM0W120140217'
p289
sg4
S'20140216\xc2\xa08:25PM UTC'
p290
sg6
S'INDONESIA PRESS-Astra Sedaya seeks loans totalling $330 mln - Investor Daily'
p291
sa(dp292
g2
S'http://www.reuters.com/article/2014/02/17/il-gtcr-idUSnBw165037a+100+BSW20140217'
p293
sg4
S'20140216\xc2\xa08:25PM UTC'
p294
sg6
S'GTCR Announces Acquisition of Callcredit Information Group Limited'
p295
sa(dp296
g2
S'http://www.reuters.com/article/2014/02/17/indonesia-press-pembangunanperumahan-idUSL3N0LM0M020140217'
p297
sg4
S'20140216\xc2\xa08:23PM UTC'
p298
sg6
S'INDONESIA PRESS-Construction and property sectors boost PT PP revenue - Bisnis Indonesia'
p299
sa(dp300
g2
S'http://www.reuters.com/article/2014/02/17/markets-australia-stocks-idUSL3N0LL0M020140217'
p301
sg4
S'20140216\xc2\xa08:22PM UTC'
p302
sg6
S'Australia shares rise to 1-1/2 mth high, strong earnings, miners help'
p303
sa(dp304
g2
S'http://www.reuters.com/article/2014/02/17/indonesia-press-electronic-city-idUSL3N0LM0QN20140217'
p305
sg4
S'20140216\xc2\xa08:21PM UTC'
p306
sg6
S'INDONESIA PRESS-Electronic City expects 2014 net profit to rise 40 pct - Bisnis Indonesia'
p307
sa(dp308
g2
S'http://www.reuters.com/article/2014/02/17/bkc-villanova-creighton-writethru-idUSMTZEA2H47JWEF20140217'
p309
sg4
S'20140216\xc2\xa08:19PM UTC'
p310
sg6
S"McDermott passes Bird as Creighton routs 'Nova"
p311
sa(dp312
g2
S'http://www.reuters.com/article/2014/02/17/vietnam-press-idUSL3N0LM0E520140217'
p313
sg4
S'20140216\xc2\xa08:12PM UTC'
p314
sg6
S'VIETNAM PRESS-Bird flu spreads to 10 provinces - Lao Dong'
p315
sa(dp316
g2
S'http://www.reuters.com/article/2014/02/17/philippines-press-centuryproperties-idUSL3N0LM0CR20140217'
p317
sg4
S'20140216\xc2\xa08:12PM UTC'
p318
sg6
S'PHILIPPINES PRESS-Century Properties to open first shopping mall - Inquirer'
p319
sa(dp320
g2
S'http://www.reuters.com/article/2014/02/17/taiwan-solar-idUST8N0KG00H20140217'
p321
sg4
S'20140216\xc2\xa08:10PM UTC'
p322
sg6
S'Shares of Taiwan solar makers fall on U.S. trade dispute decision'
p323
sa(dp324
g2
S'http://www.reuters.com/article/2014/02/17/press-digest-china-idUSL3N0LM04T20140217'
p325
sg4
S'20140216\xc2\xa08:10PM UTC'
p326
sg6
S'PRESS DIGEST - China - Feb 17'
p327
sa(dp328
g2
S'http://www.reuters.com/article/2014/02/17/us-g20-korea-idUSBREA1G01E20140217'
p329
sg4
S'20140216\xc2\xa08:08PM UTC'
p330
sg6
S'G20 to discuss policy coordination on emerging market unrest: South Korea'
p331
sa(dp332
g2
S'http://www.reuters.com/article/2014/02/17/us-britain-lloyds-ringfencing-idUSBREA1G01820140217'
p333
sg4
S'20140216\xc2\xa08:07PM UTC'
p334
sg6
S"Lloyds seeks 'lower' ringfence to save investment banking business: FT"
p335
sa(dp336
g2
S'http://www.reuters.com/article/2014/02/17/g20-korea-idUSS6N0IM01G20140217'
p337
sg4
S'20140216\xc2\xa08:06PM UTC'
p338
sg6
S'G20 to discuss policy coordination on emerging market unrest-S.Korea'
p339
sa(dp340
g2
S'http://www.reuters.com/article/2014/02/17/malaysia-corporate-earnings-idUSL3N0LM07V20140217'
p341
sg4
S'20140216\xc2\xa08:05PM UTC'
p342
sg6
S'DIARY-Malaysia 2013/2014 corporate earnings'
p343
sa(dp344
g2
S'http://www.reuters.com/article/2014/02/17/us-motor-racing-daytona-idUSBREA1G01520140217'
p345
sg4
S'20140216\xc2\xa08:05PM UTC'
p346
sg6
S'Dillon wins pole for Daytona 500'
p347
sa(dp348
g2
S'http://www.reuters.com/article/2014/02/17/britain-lloyds-ringfencing-idUSL3N0LM02A20140217'
p349
sg4
S'20140216\xc2\xa08:01PM UTC'
p350
sg6
S"Lloyds seeks 'lower' ringfence to save investment banking business -FT"
p351
sa(dp352
g2
S'http://www.reuters.com/article/2014/02/17/thailand-press-idUSL3N0LM06V20140217'
p353
sg4
S'20140216\xc2\xa08:00PM UTC'
p354
sg6
S'THAILAND PRESS-Banks cut back high-interest deposit campaigns - The Nation'
p355
sa(dp356
g2
S'http://www.reuters.com/article/2014/02/17/us-uganda-usa-obama-idUSBREA1F0QL20140217'
p357
sg4
S'20140216\xc2\xa08:00PM UTC'
p358
sg6
S'Obama warns Uganda over anti-gay law'
p359
sa(dp360
g2
S'http://www.reuters.com/article/2014/02/17/co-samson-oil-gas-idUSnBw165012a+100+BSW20140217'
p361
sg4
S'20140216\xc2\xa08:00PM UTC'
p362
sg6
S'Samson Oil & Gas Enercom San Francisco Presentation'
p363
sa(dp364
g2
S'http://www.reuters.com/article/2014/02/17/olympics-monday-idUSL6N0LL0LG20140217'
p365
sg4
S'20140216\xc2\xa08:00PM UTC'
p366
sg6
S'Olympics-Ice dancers glide to centre stage at Sochi Games'
p367
sa(dp368
g2
S'http://www.reuters.com/article/2014/02/17/olympics-monday-medals-idUSL6N0LL02D20140217'
p369
sg4
S'20140216\xc2\xa08:00PM UTC'
p370
sg6
S'FACTBOX-Olympics-Medal events at the Sochi Games on Monday Feb. 17'
p371
sa(dp372
g2
S'http://www.reuters.com/article/2014/02/17/singapore-press-bankruptcy-idUSL3N0LM05020140217'
p373
sg4
S'20140216\xc2\xa07:57PM UTC'
p374
sg6
S'SINGAPORE PRESS-New bankruptcy cases hit four-year high - Straits Times'
p375
sa(dp376
g2
S'http://www.reuters.com/article/2014/02/17/singapore-press-land-idUSL3N0LM04H20140217'
p377
sg4
S'20140216\xc2\xa07:53PM UTC'
p378
sg6
S'SINGAPORE PRESS-Some 15 percent of golf club land to make way for other use - Straits Times'
p379
sa(dp380
g2
S'http://www.reuters.com/article/2014/02/17/us-autos-vw-council-analysis-idUSBREA1F0VV20140217'
p381
sg4
S'20140216\xc2\xa07:49PM UTC'
p382
sg6
S'After rejecting UAW, VW workers may still get works council'
p383
sa(dp384
g2
S'http://www.reuters.com/article/2014/02/17/bkc-wichitast-evansville-recap-idUSMTZEA2H46E3EE20140217'
p385
sg4
S'20140216\xc2\xa07:47PM UTC'
p386
sg6
S'Wichita State 84, Evansville 68'
p387
sa(dp388
g2
S'http://www.reuters.com/article/2014/02/17/markets-precious-idUSL3N0LM03520140217'
p389
sg4
S'20140216\xc2\xa07:47PM UTC'
p390
sg6
S'PRECIOUS-Gold hits fresh three-month high on US growth fears'
p391
sa(dp392
g2
S'http://www.reuters.com/article/2014/02/17/us-boxoffice-idUSBREA1F0M620140217'
p393
sg4
S'20140216\xc2\xa07:31PM UTC'
p394
sg6
S"'Lego' topples 'Last Night,' 'RoboCop' to win U.S. box office title"
p395
sa(dp396
g2
S'http://www.reuters.com/article/2014/02/17/us-safrica-miners-idUSBREA1F0A120140217'
p397
sg4
S'20140216\xc2\xa07:30PM UTC'
p398
sg6
S'Twelve illegal miners rescued in South Africa, others stay underground'
p399
sa(dp400
g2
S'http://www.reuters.com/article/2014/02/17/us-baseball-angels-mulder-idUSBREA1G00E20140217'
p401
sg4
S'20140216\xc2\xa07:26PM UTC'
p402
sg6
S"Ruptured Achilles halts Mulder's comeback attempt"
p403
sa(dp404
g2
S'http://www.reuters.com/article/2014/02/17/united-company-rusal-plc-idUSnBw165015a+100+BSW20140217'
p405
sg4
S'20140216\xc2\xa07:15PM UTC'
p406
sg6
S'United Company RUSAL Plc: Update on the Corporate Ruble Bonds<0486.HK>'
p407
sa(dp408
g2
S'http://www.reuters.com/article/2014/02/17/us-usa-hotel-evacuation-idUSBREA1G00620140217'
p409
sg4
S'20140216\xc2\xa07:07PM UTC'
p410
sg6
S'Carbon monoxide at Baltimore-area hotel sends nine to hospital'
p411
sa(dp412
g2
S'http://www.reuters.com/article/2014/02/17/usa-hotel-evacuation-idUSL2N0LL0G420140217'
p413
sg4
S'20140216\xc2\xa07:06PM UTC'
p414
sg6
S'Carbon monoxide at Baltimore-area hotel sends nine to hospital'
p415
sa(dp416
g2
S'http://www.reuters.com/article/2014/02/17/sports-news-schedule-unplanned-at-0001-g-idUSL6N0LL0PJ20140217'
p417
sg4
S'20140216\xc2\xa07:01PM UTC'
p418
sg6
S'Reuters Sochi Olympics Schedule at 0001 GMT on Monday, Feb 17'
p419
sa(dp420
g2
S'http://www.reuters.com/article/2014/02/17/gigaphoton-idUSnBw165001a+100+BSW20140217'
p421
sg4
S'20140216\xc2\xa07:00PM UTC'
p422
sg6
S'Gigaphoton Achieves 43W EUV Output'
p423
sa(dp424
g2
S'http://www.reuters.com/article/2014/02/16/us-japan-economy-gdp-idUSBREA1F0XF20140216'
p425
sg4
S'20140216\xc2\xa06:59PM UTC'
p426
sg6
S'Japan Q4 GDP +0.3 percent, fourth straight q/q growth'
p427
sa(dp428
g2
S'http://www.reuters.com/article/2014/02/16/japan-economy-gdp-idUST9N0G805320140216'
p429
sg4
S'20140216\xc2\xa06:58PM UTC'
p430
sg6
S'RPT-Japan Q4 GDP +0.3 pct, fourth straight q/q growth'
p431
sa(dp432
g2
S'http://www.reuters.com/article/2014/02/16/bkc-villanova-creighton-recap-idUSMTZEA2H47JWEF20140216'
p433
sg4
S'20140216\xc2\xa06:57PM UTC'
p434
sg6
S'Creighton 101, Villanova 80'
p435
sa(dp436
g2
S'http://www.reuters.com/article/2014/02/16/japan-economy-gdp-idUST9N0G805220140216'
p437
sg4
S'20140216\xc2\xa06:56PM UTC'
p438
sg6
S'Japan Q4 GDP +0.3 pct, fourth straight q/q growth'
p439
sa(dp440
g2
S'http://www.reuters.com/article/2014/02/16/us-venezuela-protests-idUSBREA1F0SQ20140216'
p441
sg4
S'20140216\xc2\xa06:55PM UTC'
p442
sg6
S"Venezuela's Lopez says ready for arrest at Tuesday march"
p443
sa(dp444
g2
S'http://www.reuters.com/article/2014/02/16/us-brazil-worldcup-stadium-idUSBREA1F0DI20140216'
p445
sg4
S'20140216\xc2\xa06:54PM UTC'
p446
sg6
S'Inspector to probe fire at Brazil World Cup stadium'
p447
sa(dp448
g2
S'http://www.reuters.com/article/2014/02/16/brazil-worldcup-stadium-idUSL2N0LL0FF20140216'
p449
sg4
S'20140216\xc2\xa06:53PM UTC'
p450
sg6
S'UPDATE 1-Inspector to probe fire at Brazil World Cup stadium'
p451
sa(dp452
g2
S'http://www.reuters.com/article/2014/02/16/us-autos-vw-council-analysis-idUSBREA1F0VV20140216'
p453
sg4
S'20140216\xc2\xa06:42PM UTC'
p454
sg6
S'After rejecting UAW, VW workers may still get works council'
p455
sa(dp456
g2
S'http://www.reuters.com/article/2014/02/16/us-markets-global-idUSBRE96S00E20140216'
p457
sg4
S'20140216\xc2\xa06:41PM UTC'
p458
sg6
S'Asia stocks supported; falling dollar a burden for Nikkei'
p459
sa(dp460
g2
S'http://www.reuters.com/article/2014/02/16/us-swiss-eu-croatia-idUSBREA1F0X420140216'
p461
sg4
S'20140216\xc2\xa06:39PM UTC'
p462
sg6
S'EU halts research, educational talks with Switzerland'
p463
sa(dp464
g2
S'http://www.reuters.com/article/2014/02/16/markets-global-idUSL3N0LL0HV20140216'
p465
sg4
S'20140216\xc2\xa06:38PM UTC'
p466
sg6
S'GLOBAL MARKETS-Asia stocks supported; falling dollar a burden for Nikkei'
p467
sa(dp468
g2
S'http://www.reuters.com/article/2014/02/16/us-australia-immigration-manus-idUSBREA1F0X020140216'
p469
sg4
S'20140216\xc2\xa06:35PM UTC'
p470
sg6
S'Asylum seekers injured, arrested after PNG incident: Australia'
p471
sa(dp472
g2
S'http://www.reuters.com/article/2014/02/16/bkc-wichitast-evansville-recap-idUSMTZEA2H46E3EE20140216'
p473
sg4
S'20140216\xc2\xa06:32PM UTC'
p474
sg6
S'Wichita State 84, Evansville 68'
p475
sa(dp476
g2
S'http://www.reuters.com/article/2014/02/16/swiss-eu-croatia-idUSL6N0LL0YA20140216'
p477
sg4
S'20140216\xc2\xa06:32PM UTC'
p478
sg6
S'UPDATE 1-EU halts research, educational talks with Switzerland'
p479
sa(dp480
g2
S'http://www.reuters.com/article/2014/02/16/us-venezuela-protests-lopez-idUSBREA1F0WT20140216'
p481
sg4
S'20140216\xc2\xa06:32PM UTC'
p482
sg6
S"Venezuela's Lopez to march on Tuesday, says ready to face arrest"
p483
sa(dp484
g2
S'http://www.reuters.com/article/2014/02/16/australia-aurizon-idUSL3N0LL0HP20140216'
p485
sg4
S'20140216\xc2\xa06:31PM UTC'
p486
sg6
S"UPDATE 1-Australia's Aurizon H1 up 18 pct, sees solid coal volume growth"
p487
sa(dp488
g2
S'http://www.reuters.com/article/2014/02/16/bkc-oregonst-oregon-recap-idUSMTZEA2G419HYC20140216'
p489
sg4
S'20140216\xc2\xa06:30PM UTC'
p490
sg6
S'Oregon 93, Oregon State 83'
p491
sa(dp492
g2
S'http://www.reuters.com/article/2014/02/16/prntest-idUSnPnHSTEST1+17e+PRN20140216'
p493
sg4
S'20140216\xc2\xa06:30PM UTC'
p494
sg6
S'Following Is a Test Release'
p495
sa(dp496
g2
S'http://www.reuters.com/article/2014/02/16/us-golf-pga-idUSBREA1F0WF20140216'
p497
sg4
S'20140216\xc2\xa06:25PM UTC'
p498
sg6
S'Watson seals two-shot win at Riviera'
p499
sa(dp500
g2
S'http://www.reuters.com/article/2014/02/16/us-markets-forex-idUSBREA0K0NG20140216'
p501
sg4
S'20140216\xc2\xa06:23PM UTC'
p502
sg6
S'Dollar hamstrung by data, China optimism buoys Aussie'
p503
sa(dp504
g2
S'http://www.reuters.com/article/2014/02/16/markets-forex-idUSL3N0LL0OJ20140216'
p505
sg4
S'20140216\xc2\xa06:22PM UTC'
p506
sg6
S'FOREX-Dollar hamstrung by data, China optimism buoys Aussie'
p507
sa(dp508
g2
S'http://www.reuters.com/article/2014/02/16/markets-japan-stocks-orders-idUSL3N0LL0RM20140216'
p509
sg4
S'20140216\xc2\xa06:15PM UTC'
p510
sg6
S'TABLE-Foreign brokers set to sell Japanese stocks'
p511
sa(dp512
g2
S'http://www.reuters.com/article/2014/02/16/ky-northwestern-idUSnPnCGsprFV+163+PRN20140216'
p513
sg4
S'20140216\xc2\xa06:15PM UTC'
p514
sg6
S"Northwestern Mutual Donates $250,000 to Kosair Children's Hospital"
p515
sa(dp516
g2
S'http://www.reuters.com/article/2014/02/16/summers-inequality-idUSL2N0LL0FG20140216'
p517
sg4
S'20140216\xc2\xa06:04PM UTC'
p518
sg6
S'COLUMN-On inequality'
p519
sa(dp520
g2
S'http://www.reuters.com/article/2014/02/16/us-eurozone-banks-stresstest-regling-idUSBREA1F0W720140216'
p521
sg4
S'20140216\xc2\xa05:55PM UTC'
p522
sg6
S'Regling: euro-zone banks in good shape before stress test: newspaper'
p523
sa(dp524
g2
S'http://www.reuters.com/article/2014/02/16/eurozone-banks-stresstest-regling-idUSL6N0LL0YC20140216'
p525
sg4
S'20140216\xc2\xa05:53PM UTC'
p526
sg6
S'Regling: euro-zone banks in good shape before stress test -newspaper'
p527
sa(dp528
g2
S'http://www.reuters.com/article/2014/02/16/us-britain-baftas-idUSBREA1F0HG20140216'
p529
sg4
S'20140216\xc2\xa05:51PM UTC'
p530
sg6
S'"12 Years a Slave" wins top British film awards as "Gravity" soars'
p531
sa(dp532
g2
S'http://www.reuters.com/article/2014/02/16/us-britain-baftas-factbox-idUSBREA1F0W420140216'
p533
sg4
S'20140216\xc2\xa05:51PM UTC'
p534
sg6
S'Factbox: Winners in main categories at BAFTA film awards'
p535
sa(dp536
g2
S'http://www.reuters.com/article/2014/02/16/bkc-nebraska-michiganst-recap-idUSMTZEA2G419HYD20140216'
p537
sg4
S'20140216\xc2\xa05:49PM UTC'
p538
sg6
S'Nebraska 60, Michigan State 51'
p539
sa(dp540
g2
S'http://www.reuters.com/article/2014/02/16/essarenergy-offer-idUSL3N0LL0MW20140216'
p541
sg4
S'20140216\xc2\xa05:44PM UTC'
p542
sg6
S"No. 1 shareholder offers 'modest' premium for Essar Energy stake"
p543
sa(dp544
g2
S'http://www.reuters.com/article/2014/02/16/film-britain-baftas-idUSL6N0LL0MZ20140216'
p545
sg4
S'20140216\xc2\xa05:42PM UTC'
p546
sg6
S'UPDATE 2-"12 Years a Slave" wins top British film awards as "Gravity" soars'
p547
sa(dp548
g2
S'http://www.reuters.com/article/2014/02/16/us-indonesia-australia-ties-idUSBREA1F0VG20140216'
p549
sg4
S'20140216\xc2\xa05:31PM UTC'
p550
sg6
S'Jakarta sees chilly ties with Australia until October: Indonesian government document'
p551
sa(dp552
g2
S'http://www.reuters.com/article/2014/02/16/us-blast-tourist-bus-egypt-idUSBREA1F0AW20140216'
p553
sg4
S'20140216\xc2\xa05:27PM UTC'
p554
sg6
S'Two Koreans and Egyptian driver die in Sinai tourist bus blast'
p555
sa(dp556
g2
S'http://www.reuters.com/article/2014/02/16/us-usa-avalanche-skiers-idUSBREA1F0R420140216'
p557
sg4
S'20140216\xc2\xa05:26PM UTC'
p558
sg6
S'Two skiers lost in Colorado avalanche are confirmed dead'
p559
sa(dp560
g2
S'http://www.reuters.com/article/2014/02/16/us-olympics-figureskating-russians-idUSBREA1F0V520140216'
p561
sg4
S'20140216\xc2\xa05:22PM UTC'
p562
sg6
S'Russian "Odile" set to sizzle in Swan Lake skate off'
p563
sa(dp564
g2
S'http://www.reuters.com/article/2014/02/16/fitch-no-rating-impact-on-nzs-heartland-idUSFit69080220140216'
p565
sg4
S'20140216\xc2\xa05:20PM UTC'
p566
sg6
S"Fitch: No Rating Impact on NZ's Heartland Bank from Parent's Acquisition"
p567
sa(dp568
g2
S'http://www.reuters.com/article/2014/02/16/olympics-figureskating-russians-idUSL6N0LL0XJ20140216'
p569
sg4
S'20140216\xc2\xa05:20PM UTC'
p570
sg6
S'Olympics-Figure Skating-Russian "Odile" set to sizzle in Swan Lake skate off'
p571
sa(dp572
g2
S'http://www.reuters.com/article/2014/02/16/us-ukraine-idUSBREA1F05G20140216'
p573
sg4
S'20140216\xc2\xa05:13PM UTC'
p574
sg6
S'Ukraine protesters and police pull back in contest over president'
p575
sa(dp576
g2
S'http://www.reuters.com/article/2014/02/16/us-nigeria-violence-idUSBREA1F0RB20140216'
p577
sg4
S'20140216\xc2\xa05:12PM UTC'
p578
sg6
S'Suspected Islamists kill 90 in Nigeria village raid: witnesses'
p579
sa(dp580
g2
S'http://www.reuters.com/article/2014/02/16/markets-australia-stocks-idUSL3N0LL0J820140216'
p581
sg4
S'20140216\xc2\xa05:07PM UTC'
p582
sg6
S'Australia shares seen rising on firm Wall St, local earnings'
p583
sa(dp584
g2
S'http://www.reuters.com/article/2014/02/16/us-usa-crime-barbours-idUSBREA1F02R20140216'
p585
sg4
S'20140216\xc2\xa05:01PM UTC'
p586
sg6
S'FBI talking to Pennsylvania police over accused Craigslist killer'
p587
sa(dp588
g2
S'http://www.reuters.com/article/2014/02/16/us-syria-crisis-hezbollah-lebanon-idUSBREA1F0US20140216'
p589
sg4
S'20140216\xc2\xa05:00PM UTC'
p590
sg6
S'Hezbollah says will quit Syria if Arabs stop meddling'
p591
sa(dp592
g2
S'http://www.reuters.com/article/2014/02/16/us-usa-snakehandler-idUSBREA1F0UP20140216'
p593
sg4
S'20140216\xc2\xa04:58PM UTC'
p594
sg6
S'Snake-handling preacher dies in Kentucky after being bit by snake'
p595
sa(dp596
g2
S'http://www.reuters.com/article/2014/02/16/us-autos-vw-challenge-analysis-idUSBREA1F0U020140216'
p597
sg4
S'20140216\xc2\xa04:43PM UTC'
p598
sg6
S'UAW legal test of Volkswagen vote would be problematic'
p599
sa(dp600
g2
S'http://www.reuters.com/article/2014/02/16/us-britain-baftas-film-idUSBREA1F0U720140216'
p601
sg4
S'20140216\xc2\xa04:38PM UTC'
p602
sg6
S'"12 years a slave" crowned best film at Britain\'s top movie awards'
p603
sa(dp604
g2
S'http://www.reuters.com/article/2014/02/16/us-global-economy-idUSBREA1F0PO20140216'
p605
sg4
S'20140216\xc2\xa04:37PM UTC'
p606
sg6
S'Fed to shed light on frozen U.S. economy'
p607
sa(dp608
g2
S'http://www.reuters.com/article/2014/02/16/film-britain-baftas-film-idUSL5N0LI4YG20140216'
p609
sg4
S'20140216\xc2\xa04:36PM UTC'
p610
sg6
S'"12 years a slave" crowned best film at Britain\'s top movie awards'
p611
sa(dp612
g2
S'http://www.reuters.com/article/2014/02/16/us-britain-baftas-actress-idUSBREA1F0TW20140216'
p613
sg4
S'20140216\xc2\xa04:33PM UTC'
p614
sg6
S'Cate Blanchett wins best actress award at 2014 BAFTAs'
p615
sa(dp616
g2
S'http://www.reuters.com/article/2014/02/16/film-britain-baftas-actress-idUSL5N0LI4YQ20140216'
p617
sg4
S'20140216\xc2\xa04:32PM UTC'
p618
sg6
S'Cate Blanchett wins best actress award at 2014 BAFTAs'
p619
sa(dp620
g2
S'http://www.reuters.com/article/2014/02/16/us-fashion-britain-idUSBREA1E0YJ20140216'
p621
sg4
S'20140216\xc2\xa04:32PM UTC'
p622
sg6
S'Designers champion eccentricity, heritage at London Fashion Week'
p623
sa(dp624
g2
S'http://www.reuters.com/article/2014/02/16/fashion-britain-idUSL6N0LL0VL20140216'
p625
sg4
S'20140216\xc2\xa04:27PM UTC'
p626
sg6
S'Designers champion eccentricity, heritage at London Fashion Week'
p627
sa(dp628
g2
S'http://www.reuters.com/article/2014/02/16/us-britain-baftas-actor-idUSBREA1F0TK20140216'
p629
sg4
S'20140216\xc2\xa04:20PM UTC'
p630
sg6
S'Briton Chiwetel Ejiofor wins best actor award at 2014 BAFTAs'
p631
sa(dp632
g2
S'http://www.reuters.com/article/2014/02/16/bkc-southernmethodist-temple-writethru-idUSMTZEA2G3Y45YA20140216'
p633
sg4
S'20140216\xc2\xa04:18PM UTC'
p634
sg6
S'Temple hits glass, tips SMU'
p635
sa(dp636
g2
S'http://www.reuters.com/article/2014/02/16/film-britain-baftas-actor-idUSL5N0LI4YL20140216'
p637
sg4
S'20140216\xc2\xa04:14PM UTC'
p638
sg6
S'Briton Chiwetel Ejiofor wins best actor award at 2014 BAFTAs'
p639
sa(dp640
g2
S'http://www.reuters.com/article/2014/02/16/us-olympics-figureskating-dance-idUSBREA1F0QG20140216'
p641
sg4
S'20140216\xc2\xa04:03PM UTC'
p642
sg6
S'Figure skating: Davis-White on track for U.S. history'
p643
sa(dp644
g2
S'http://www.reuters.com/article/2014/02/16/china-economy-idUSL3N0LH4K820140216'
p645
sg4
S'20140216\xc2\xa04:00PM UTC'
p646
sg6
S"Power, steel, cement suggest China's economy not so buoyant"
p647
sa(dp648
g2
S'http://www.reuters.com/article/2014/02/16/oh-dickeys-barbecue-idUSnPnDAsnRzM+165+PRN20140216'
p649
sg4
S'20140216\xc2\xa04:00PM UTC'
p650
sg6
S'Ready For a Party in Mentor?'
p651
sa(dp652
g2
S'http://www.reuters.com/article/2014/02/16/china-economy-money-idUSL3N0LL08520140216'
p653
sg4
S'20140216\xc2\xa04:00PM UTC'
p654
sg6
S'RPT-UPDATE 1-China January lending soars to 4-year high'
p655
sa(dp656
g2
S'http://www.reuters.com/article/2014/02/16/bonds-china-risk-idUSL3N0LI11C20140216'
p657
sg4
S'20140216\xc2\xa04:00PM UTC'
p658
sg6
S"China's bond investors wising up to price of credit risk"
p659
sa(dp660
g2
S'http://www.reuters.com/article/2014/02/16/olympics-figureskating-dance-idUSL6N0LL0WQ20140216'
p661
sg4
S'20140216\xc2\xa03:54PM UTC'
p662
sg6
S'Olympics-Figure skating-Roundup-Davis-White on track for U.S. history'
p663
sa(dp664
g2
S'http://www.reuters.com/article/2014/02/16/us-rsa-sale-idUSBREA1F0SX20140216'
p665
sg4
S'20140216\xc2\xa03:51PM UTC'
p666
sg6
S'RSA eyes sale of Canadian unit: Sky News'
p667
sa(dp668
g2
S'http://www.reuters.com/article/2014/02/16/rsa-sale-idUSL3N0LL0F320140216'
p669
sg4
S'20140216\xc2\xa03:42PM UTC'
p670
sg6
S'RSA eyes sale of Canadian unit - Sky News'
p671
sa(dp672
g2
S'http://www.reuters.com/article/2014/02/16/ca-rentrak-box-office-idUSnPnSFsqsyF+161+PRN20140216'
p673
sg4
S'20140216\xc2\xa03:42PM UTC'
p674
sg6
S'Rentrak Announces Worldwide Box Office Results for Weekend of Feb. 16, 2014'
p675
sa(dp676
g2
S'http://www.reuters.com/article/2014/02/16/us-usa-california-crash-idUSBREA1F0SH20140216'
p677
sg4
S'20140216\xc2\xa03:33PM UTC'
p678
sg6
S'Mother, four children killed in fiery car crash in California'
p679
sa(dp680
g2
S'http://www.reuters.com/article/2014/02/16/usa-california-crash-idUSL2N0LL0C820140216'
p681
sg4
S'20140216\xc2\xa03:32PM UTC'
p682
sg6
S'Mother, four children killed in fiery car crash in California'
p683
sa(dp684
g2
S'http://www.reuters.com/article/2014/02/16/us-olympics-icehockey-men-idUSBREA1F0SB20140216'
p685
sg4
S'20140216\xc2\xa03:31PM UTC'
p686
sg6
S'Ice hockey: Canada, U.S. advance; Russia sweats'
p687
sa(dp688
g2
S'http://www.reuters.com/article/2014/02/16/olympics-icehockey-men-idUSL2N0LL09220140216'
p689
sg4
S'20140216\xc2\xa03:25PM UTC'
p690
sg6
S'Olympics-Ice hockey-Roundup-Canada, US advance; Russia sweats'
p691
sa(dp692
g2
S'http://www.reuters.com/article/2014/02/16/us-tennis-men-buenosaires-idUSBREA1F0S520140216'
p693
sg4
S'20140216\xc2\xa03:24PM UTC'
p694
sg6
S'Ferrer lands third Buenos Aires clay title in a row'
p695
sa(dp696
g2
S'http://www.reuters.com/article/2014/02/16/nigeria-violence-idUSL6N0LL0W020140216'
p697
sg4
S'20140216\xc2\xa03:20PM UTC'
p698
sg6
S'UPDATE 1-Suspected Islamists kill 90 in Nigeria village raid-witnesses'
p699
sa(dp700
g2
S'http://www.reuters.com/article/2014/02/16/us-olympics-icehockey-canada-idUSBREA1F0QS20140216'
p701
sg4
S'20140216\xc2\xa03:18PM UTC'
p702
sg6
S'Doughty powers Canada into quarters'
p703
sa(dp704
g2
S'http://www.reuters.com/article/2014/02/16/us-uganda-usa-obama-idUSBREA1F0QL20140216'
p705
sg4
S'20140216\xc2\xa03:15PM UTC'
p706
sg6
S'Obama warns Uganda over anti-gay law'
p707
sa(dp708
g2
S'http://www.reuters.com/article/2014/02/16/olympics-icehockey-men-canada-idUSL6N0LL0VY20140216'
p709
sg4
S'20140216\xc2\xa03:11PM UTC'
p710
sg6
S'UPDATE 1-Olympics-Ice hockey - Doughty powers Canada into quarters'
p711
sa(dp712
g2
S'http://www.reuters.com/article/2014/02/16/bmw-sglcarbon-idUSL6N0LL0V720140216'
p713
sg4
S'20140216\xc2\xa03:03PM UTC'
p714
sg6
S'UPDATE 1-BMW, SGL Carbon to double carbon-fibre production -source'
p715
sa(dp716
g2
S'http://www.reuters.com/article/2014/02/16/us-usa-weather-caves-idUSBREA1F0R720140216'
p717
sg4
S'20140216\xc2\xa03:00PM UTC'
p718
sg6
S'Winter builds rare icy path to Lake Superior ice caves'
p719
sa(dp720
g2
S'http://www.reuters.com/article/2014/02/16/us-olympics-bobsleigh-2man-idUSBREA1F0QB20140216'
p721
sg4
S'20140216\xc2\xa02:58PM UTC'
p722
sg6
S'Zubkov sets the pace in two-man sled'
p723
sa(dp724
g2
S'http://www.reuters.com/article/2014/02/16/olympics-bobsleigh-2man-idUSL6N0LL0VP20140216'
p725
sg4
S'20140216\xc2\xa02:57PM UTC'
p726
sg6
S'UPDATE 1-Olympics-Bobsleigh-Zubkov sets the pace in two-man sled'
p727
sa(dp728
g2
S'http://www.reuters.com/article/2014/02/16/nigeria-violence-idUSL6N0LL0VU20140216'
p729
sg4
S'20140216\xc2\xa02:57PM UTC'
p730
sg6
S'Suspected Islamists kill 90 in Nigeria village raid - witnesses'
p731
sa(dp732
g2
S'http://www.reuters.com/article/2014/02/16/olympics-medals-tally-result-idUSL3N0LE08I20140216'
p733
sg4
S'20140216\xc2\xa02:51PM UTC'
p734
sg6
S'Olympics-Medals tally'
p735
sa(dp736
g2
S'http://www.reuters.com/article/2014/02/16/olympics-bobsleigh-twoman-result-idUSL3N0LL0BF20140216'
p737
sg4
S'20140216\xc2\xa02:47PM UTC'
p738
sg6
S'Olympics-Bobsleigh-Two-man standings after second run'
p739
sa(dp740
g2
S'http://www.reuters.com/article/2014/02/16/bkc-wisconsin-michigan-recap-idUSMTZEA2G3V78Y820140216'
p741
sg4
S'20140216\xc2\xa02:46PM UTC'
p742
sg6
S'Wisconsin 75, Michigan 62'
p743
sa(dp744
g2
S'http://www.reuters.com/article/2014/02/16/us-ecobank-email-idUSBREA1F0QW20140216'
p745
sg4
S'20140216\xc2\xa02:44PM UTC'
p746
sg6
S'Exclusive: Top Ecobank executives call for CEO to stand down: email'
p747
sa(dp748
g2
S'http://www.reuters.com/article/2014/02/16/morningcall-idUSL3N0LL0EG20140216'
p749
sg4
S'20140216\xc2\xa02:43PM UTC'
p750
sg6
S'RPT-UPDATE 1-New Zealand/Australia Morning Call-Global markets'
p751
sa(dp752
g2
S'http://www.reuters.com/article/2014/02/16/morningcall-idUSL3N0LL0DT20140216'
p753
sg4
S'20140216\xc2\xa02:42PM UTC'
p754
sg6
S'UPDATE 1-New Zealand/Australia Morning Call-Global markets'
p755
sa(dp756
g2
S'http://www.reuters.com/article/2014/02/16/ivorycoast-bridge-idUSL5N0LK0JI20140216'
p757
sg4
S'20140216\xc2\xa02:39PM UTC'
p758
sg6
S'CORRECTED-New Ivory Coast bridge ready by December, could boost growth - Bouygues'
p759
sa(dp760
g2
S'http://www.reuters.com/article/2014/02/16/olympics-icehockey-men-canada-idUSL6N0LL0VH20140216'
p761
sg4
S'20140216\xc2\xa02:36PM UTC'
p762
sg6
S'Olympics-Doughty powers unbeaten Canada into quarter-finals'
p763
sa(dp764
g2
S'http://www.reuters.com/article/2014/02/16/idUSnMKWVfkYma+1e4+MKW20140216'
p765
sg4
S'20140216\xc2\xa02:32PM UTC'
p766
sg6
S'Media Advisory/Photo Opportunity: Chevrolet Announces New Safe & Sure Car Seat Installation Workshops'
p767
sa(dp768
g2
S'http://www.reuters.com/article/2014/02/16/us-soccer-england-cup-idUSBREA1F0O520140216'
p769
sg4
S'20140216\xc2\xa02:29PM UTC'
p770
sg6
S'Arsenal, Everton and Sheffield United light up FA Cup'
p771
sa(dp772
g2
S'http://www.reuters.com/article/2014/02/16/us-olympics-freestyle-aerials-lambert-idUSBREA1F0MP20140216'
p773
sg4
S'20140216\xc2\xa02:22PM UTC'
p774
sg6
S'Lambert, Cheshire injured in halfpipe training'
p775
sa(dp776
g2
S'http://www.reuters.com/article/2014/02/16/teva-soros-idUSL2N0LL0B820140216'
p777
sg4
S'20140216\xc2\xa02:14PM UTC'
p778
sg6
S"Drugmaker Teva becomes Soros' biggest stock holding"
p779
sa(dp780
g2
S'http://www.reuters.com/article/2014/02/16/olympics-freestyle-aerials-lambert-idUSL6N0LL0RA20140216'
p781
sg4
S'20140216\xc2\xa02:14PM UTC'
p782
sg6
S'UPDATE 2-Olympics-Freestyle-Lambert, Cheshire injured in halfpipe training'
p783
sa(dp784
g2
S'http://www.reuters.com/article/2014/02/16/boxoffice-chart-idUSL2N0LL0BR20140216'
p785
sg4
S'20140216\xc2\xa02:13PM UTC'
p786
sg6
S'The top films at the North American box office'
p787
sa(dp788
g2
S'http://www.reuters.com/article/2014/02/16/us-burundi-politics-idUSBREA1F0Q520140216'
p789
sg4
S'20140216\xc2\xa02:12PM UTC'
p790
sg6
S'Burundi police try to stop party meeting as crisis deepens: witnesses'
p791
sa(dp792
g2
S'http://www.reuters.com/article/2014/02/16/olympics-figureskating-dance-idUSL6N0LL0US20140216'
p793
sg4
S'20140216\xc2\xa02:12PM UTC'
p794
sg6
S'Olympics-Figure skating-Davis and White on target for U.S. gold'
p795
sa(dp796
g2
S'http://www.reuters.com/article/2014/02/16/us-olympics-putin-idUSBREA1F0PW20140216'
p797
sg4
S'20140216\xc2\xa02:08PM UTC'
p798
sg6
S"Russia's Putin basks in the glory of the Games"
p799
sa(dp800
g2
S'http://www.reuters.com/article/2014/02/16/olympics-bobsleigh-2man-idUSL3N0LL0C020140216'
p801
sg4
S'20140216\xc2\xa02:07PM UTC'
p802
sg6
S"Olympics-Bobsleigh-Russia's Zubkov sets the pace in two-man sled"
p803
sa(dp804
g2
S'http://www.reuters.com/article/2014/02/16/us-britain-charts-idUSBREA180UM20140216'
p805
sg4
S'20140216\xc2\xa02:06PM UTC'
p806
sg6
S'Clean Bandit extend stay at top of UK music chart'
p807
sa(dp808
g2
S'http://www.reuters.com/article/2014/02/16/olympics-putin-idUSL6N0LL0NW20140216'
p809
sg4
S'20140216\xc2\xa02:04PM UTC'
p810
sg6
S"Olympics-Russia's Putin basks in the glory of the Games"
p811
sa(dp812
g2
S'http://www.reuters.com/article/2014/02/16/britain-charts-idUSL6N0LL0Q320140216'
p813
sg4
S'20140216\xc2\xa02:00PM UTC'
p814
sg6
S'Clean Bandit extend stay at top of UK music chart'
p815
sa(dp816
g2
S'http://www.reuters.com/article/2014/02/16/global-economy-idUSL5N0LJ37Q20140216'
p817
sg4
S'20140216\xc2\xa02:00PM UTC'
p818
sg6
S'GLOBAL ECONOMY WEEKAHEAD-Fed to shed light on frozen U.S. economy'
p819
sa(dp820
g2
S'http://www.reuters.com/article/2014/02/16/olympics-figureskating-dance-result-idUSL3N0LL0B920140216'
p821
sg4
S'20140216\xc2\xa01:58PM UTC'
p822
sg6
S'Olympics-Figure Skating-Ice dance short dance result'
p823
sa(dp824
g2
S'http://www.reuters.com/article/2014/02/16/bmw-sglcarbon-idUSL6N0LL0RL20140216'
p825
sg4
S'20140216\xc2\xa01:52PM UTC'
p826
sg6
S'BMW, SGL Carbon to double carbon-fibre production -source'
p827
sa(dp828
g2
S'http://www.reuters.com/article/2014/02/16/newzealand-press-idUSL3N0LL0DJ20140216'
p829
sg4
S'20140216\xc2\xa01:52PM UTC'
p830
sg6
S'PRESS DIGEST-New Zealand newspapers - Feb 17'
p831
sa(dp832
g2
S'http://www.reuters.com/article/2014/02/16/us-olympics-speedskating-mors-idUSBREA1F0P920140216'
p833
sg4
S'20140216\xc2\xa01:52PM UTC'
p834
sg6
S'Ter Mors wins gold, but not the one she wanted'
p835
sa(dp836
g2
S'http://www.reuters.com/article/2014/02/16/us-africa-sahel-g-idUSBREA1F0P520140216'
p837
sg4
S'20140216\xc2\xa01:50PM UTC'
p838
sg6
S'African nations form G5 to work on Sahel security, development'
p839
sa(dp840
g2
S'http://www.reuters.com/article/2014/02/16/us-usa-weather-idUSBREA120WG20140216'
p841
sg4
S'20140216\xc2\xa01:47PM UTC'
p842
sg6
S'New England digs out from second snow storm in a week'
p843
sa(dp844
g2
S'http://www.reuters.com/article/2014/02/16/life-idUSRTX18Y69'
p845
sg4
S'20140216\xc2\xa01:45PM UTC'
p846
sg6
S'Frozen caves of Lake Superior'
p847
sa(dp848
g2
S'http://www.reuters.com/article/2014/02/16/usa-weather-idUSL2N0LL0AP20140216'
p849
sg4
S'20140216\xc2\xa01:44PM UTC'
p850
sg6
S'New England digs out from second snow storm in a week'
p851
sa(dp852
g2
S'http://www.reuters.com/article/2014/02/16/us-boxoffice-idUSBREA1F0M620140216'
p853
sg4
S'20140216\xc2\xa01:42PM UTC'
p854
sg6
S"'Lego' topples 'Last Night,' 'RoboCop' to win U.S. box office title"
p855
sa(dp856
g2
S'http://www.reuters.com/article/2014/02/16/olympics-speedskating-mors-idUSL6N0LL0TB20140216'
p857
sg4
S'20140216\xc2\xa01:42PM UTC'
p858
sg6
S'Olympics-Speed skating-Ter Mors wins gold, but not the one she wanted'
p859
sa(dp860
g2
S'http://www.reuters.com/article/2014/02/16/boxoffice-idUSL2N0LL0A020140216'
p861
sg4
S'20140216\xc2\xa01:41PM UTC'
p862
sg6
S"UPDATE 1-'Lego' topples 'Last Night,' 'RoboCop' to win U.S. box office title"
p863
sa(dp864
g2
S'http://www.reuters.com/article/2014/02/16/egypt-blast-idUSL6N0LL0GU20140216'
p865
sg4
S'20140216\xc2\xa01:36PM UTC'
p866
sg6
S'UPDATE 5-Two Koreans and Egyptian driver die in Sinai tourist bus blast'
p867
sa(dp868
g2
S'http://www.reuters.com/article/2014/02/16/spin-master-toy-award-idUSnPnNYss6tz+160+PRN20140216'
p869
sg4
S'20140216\xc2\xa01:30PM UTC'
p870
sg6
S'Spin Master Wins Top Awards at the Toy of the Year Awards Ceremony'
p871
sa(dp872
g2
S'http://www.reuters.com/article/2014/02/16/us-vw-chattanooga-idUSBREA1F0A920140216'
p873
sg4
S'20140216\xc2\xa01:29PM UTC'
p874
sg6
S'VW works council says will pursue labor representation at U.S. plant'
p875
sa(dp876
g2
S'http://www.reuters.com/article/2014/02/16/morningcall-idUSL3N0LL0DA20140216'
p877
sg4
S'20140216\xc2\xa01:28PM UTC'
p878
sg6
S'RPT-New Zealand/Australia Morning Call-Global markets'
p879
sa(dp880
g2
S'http://www.reuters.com/article/2014/02/16/morningcall-idUSL3N0LL09I20140216'
p881
sg4
S'20140216\xc2\xa01:27PM UTC'
p882
sg6
S'New Zealand/Australia Morning Call-Global markets'
p883
sa(dp884
g2
S'http://www.reuters.com/article/2014/02/16/us-uganda-usa-rice-idUSBREA1F0ON20140216'
p885
sg4
S'20140216\xc2\xa01:26PM UTC'
p886
sg6
S'Top Obama adviser urges Ugandan president not to sign anti-gay law'
p887
sa(dp888
g2
S'http://www.reuters.com/article/2014/02/16/aarp-ny-caucus-info-idUSnPnDCss7tr+160+PRN20140216'
p889
sg4
S'20140216\xc2\xa01:23PM UTC'
p890
sg6
S'AARP: Black, Puerto Rican, Hispanic & Asian Caucus Stands Up for 50+ Issues'
p891
sa(dp892
g2
S'http://www.reuters.com/article/2014/02/16/us-soccer-england-cup-quarters-idUSBREA1F0OL20140216'
p893
sg4
S'20140216\xc2\xa01:21PM UTC'
p894
sg6
S'Man City to face Wigan in FA Cup final rematch'
p895
sa(dp896
g2
S'http://www.reuters.com/article/2014/02/16/us-palestinians-israel-idUSBREA1F0OE20140216'
p897
sg4
S'20140216\xc2\xa01:17PM UTC'
p898
sg6
S'We don\'t want to "flood" Israel with Palestinian refugees: Abbas'
p899
sa(dp900
g2
S'http://www.reuters.com/article/2014/02/16/olympics-bobsleigh-twoman-result-idUSL3N0LL0BE20140216'
p901
sg4
S'20140216\xc2\xa01:14PM UTC'
p902
sg6
S'Olympics-Bobsleigh-Two-man first run results'
p903
sa(dp904
g2
S'http://www.reuters.com/article/2014/02/16/us-safrica-miners-idUSBREA1F0A120140216'
p905
sg4
S'20140216\xc2\xa01:05PM UTC'
p906
sg6
S'Twelve illegal miners rescued in South Africa, others stay underground'
p907
sa(dp908
g2
S'http://www.reuters.com/article/2014/02/16/safrica-miners-idUSL6N0LL0D220140216'
p909
sg4
S'20140216\xc2\xa01:03PM UTC'
p910
sg6
S'UPDATE 4-Twelve illegal miners rescued in S.Africa, others stay underground'
p911
sa(dp912
g2
S'http://www.reuters.com/article/2014/02/16/us-olympics-skijumping-austria-idUSBREA1F0NX20140216'
p913
sg4
S'20140216\xc2\xa01:00PM UTC'
p914
sg6
S'Austrian team "not in the best shape", says top jumper'
p915
sa(dp916
g2
S'http://www.reuters.com/article/2014/02/16/idUSnMKWXYxr5a+1f0+MKW20140216'
p917
sg4
S'20140216\xc2\xa01:00PM UTC'
p918
sg6
S'CUPE stands with Toyota workers'
p919
sa(dp920
g2
S'http://www.reuters.com/article/2014/02/16/ny-toy-fair-opens-idUSnPnNYss5t0+160+PRN20140216'
p921
sg4
S'20140216\xc2\xa01:00PM UTC'
p922
sg6
S'111th American International Toy Fair Opens Today in New York City - Unveils Hundreds of Thousands of Toys, Games and Youth Entertainment Products'
p923
sa(dp924
g2
S'http://www.reuters.com/article/2014/02/16/idUSnCCN4dn0zT+1c1+MKW20140216'
p925
sg4
S'20140216\xc2\xa01:00PM UTC'
p926
sg6
S'CUPE stands with Toyota workers'
p927
sa(dp928
g2
S'http://www.reuters.com/article/2014/02/16/olympics-skijumping-austria-idUSL2N0LL07520140216'
p929
sg4
S'20140216\xc2\xa012:57PM UTC'
p930
sg6
S'Olympics-Ski jumping-Austrian team "not in the best shape", says top jumper'
p931
sa(dp932
g2
S'http://www.reuters.com/article/2014/02/16/vw-chattanooga-idUSL6N0LL0DQ20140216'
p933
sg4
S'20140216\xc2\xa012:57PM UTC'
p934
sg6
S'UPDATE 2-VW works council says will pursue labour representation at U.S. plant'
p935
sa(dp936
g2
S'http://www.reuters.com/article/2014/02/16/us-kerry-climate-idUSBREA1F0BP20140216'
p937
sg4
S'20140216\xc2\xa012:55PM UTC'
p938
sg6
S"Kerry calls climate change 'weapon of mass destruction'"
p939
sa(dp940
g2
S'http://www.reuters.com/article/2014/02/16/us-olympics-skicross-injury-idUSBREA1F0LI20140216'
p941
sg4
S'20140216\xc2\xa012:46PM UTC'
p942
sg6
S'Injured Russian skier flown to Germany'
p943
sa(dp944
g2
S'http://www.reuters.com/article/2014/02/16/olympics-skicross-injury-idUSL6N0LL0O620140216'
p945
sg4
S'20140216\xc2\xa012:45PM UTC'
p946
sg6
S'UPDATE 2-Olympics-Injured Russian skier flown to Germany'
p947
sa(dp948
g2
S'http://www.reuters.com/article/2014/02/16/us-olympics-speedskating-women-idUSBREA1F0IV20140216'
p949
sg4
S'20140216\xc2\xa012:42PM UTC'
p950
sg6
S'Speed skating:Ter Mors leads another Dutch sweep in 1,500m'
p951
sa(dp952
g2
S'http://www.reuters.com/article/2014/02/16/olympics-speedskating-women-idUSL3N0LL0AH20140216'
p953
sg4
S'20140216\xc2\xa012:41PM UTC'
p954
sg6
S'UPDATE 3-Olympics-Speed skating-Ter Mors leads another Dutch sweep in 1,500m'
p955
sa(dp956
g2
S'http://www.reuters.com/article/2014/02/16/us-britain-religion-marriage-idUSBREA1F0N820140216'
p957
sg4
S'20140216\xc2\xa012:39PM UTC'
p958
sg6
S'Church of England rules out blessings for gay marriages'
p959
sa(dp960
g2
S'http://www.reuters.com/article/2014/02/16/us-hungary-orban-idUSBREA1F0MX20140216'
p961
sg4
S'20140216\xc2\xa012:28PM UTC'
p962
sg6
S"Hungary's PM Orban sets out stakes for April vote"
p963
sa(dp964
g2
S'http://www.reuters.com/article/2014/02/16/us-italy-politics-napolitano-idUSBREA1F0JE20140216'
p965
sg4
S'20140216\xc2\xa012:27PM UTC'
p966
sg6
S"President summons center-left's Renzi as Italy seeks new government"
p967
sa(dp968
g2
S'http://www.reuters.com/article/2014/02/16/us-olympics-speedskating-us-idUSBREA1F0MM20140216'
p969
sg4
S'20140216\xc2\xa012:24PM UTC'
p970
sg6
S'Speed skating: U.S. miss out on medals again'
p971
sa(dp972
g2
S'http://www.reuters.com/article/2014/02/16/italy-politics-idUSL6N0LL0P320140216'
p973
sg4
S'20140216\xc2\xa012:18PM UTC'
p974
sg6
S"UPDATE 1-President summons centre-left's Renzi as Italy seeks new govt"
p975
sa(dp976
g2
S'http://www.reuters.com/article/2014/02/16/us-usa-politics-romney-idUSBREA1F0ME20140216'
p977
sg4
S'20140216\xc2\xa012:15PM UTC'
p978
sg6
S'Romney says he expects Hillary Clinton to run on her own record'
p979
sa(dp980
g2
S'http://www.reuters.com/article/2014/02/16/olympics-speedskating-us-idUSL2N0LL06420140216'
p981
sg4
S'20140216\xc2\xa012:12PM UTC'
p982
sg6
S'Olympics-Speed skating-U.S. miss out on medals again'
p983
sa(dp984
g2
S'http://www.reuters.com/article/2014/02/16/boxoffice-idUSL2N0LL09820140216'
p985
sg4
S'20140216\xc2\xa012:07PM UTC'
p986
sg6
S"'Lego' topples 'Last Night,' 'RoboCop' to win box office title"
p987
sa(dp988
g2
S'http://www.reuters.com/article/2014/02/16/us-saudiarabia-monitoring-idUSBREA1F0HK20140216'
p989
sg4
S'20140216\xc2\xa012:02PM UTC'
p990
sg6
S'Saudi Internet monitors turn focus on Syria-fuelled radicalism'
p991
sa(dp992
g2
S'http://www.reuters.com/article/2014/02/16/us-olympics-freestyle-cheshire-idUSBREA1F0LW20140216'
p993
sg4
S'20140216\xc2\xa012:00PM UTC'
p994
sg6
S'Freestyle: Briton Cheshire injured in training'
p995
sa(dp996
g2
S'http://www.reuters.com/article/2014/02/16/usa-courts-wallstreet-idUSL2N0LB25320140216'
p997
sg4
S'20140216\xc2\xa012:00PM UTC'
p998
sg6
S'FEATURE-Small-firm lawyer takes on Wall Street and wins, twice'
p999
sa(dp1000
g2
S'http://www.reuters.com/article/2014/02/16/olympics-freestyle-cheshire-idUSL6N0LL0RF20140216'
p1001
sg4
S'20140216\xc2\xa011:58AM UTC'
p1002
sg6
S'Olympics-Freestyle-Briton Cheshire injured in training'
p1003
sa(dp1004
g2
S'http://www.reuters.com/article/2014/02/16/idUS404912392420140216'
p1005
sg4
S'20140216\xc2\xa011:51AM UTC'
p1006
sg6
S'Football in the land of futebol'
p1007
sa(dp1008
g2
S'http://www.reuters.com/article/2014/02/16/us-olympics-biathlon-postponement-idUSBREA1F0LM20140216'
p1009
sg4
S'20140216\xc2\xa011:48AM UTC'
p1010
sg6
S"Men's mass start postponed until Monday"
p1011
sa(dp1012
g2
S'http://www.reuters.com/article/2014/02/16/olympics-biathlon-postponement-idUSL6N0LL0O120140216'
p1013
sg4
S'20140216\xc2\xa011:44AM UTC'
p1014
sg6
S"UPDATE 2-Olympics-Biathlon-Men's mass start postponed until Monday"
p1015
sa(dp1016
g2
S'http://www.reuters.com/article/2014/02/16/us-tennis-men-rotterdam-idUSBREA1F0LC20140216'
p1017
sg4
S'20140216\xc2\xa011:42AM UTC'
p1018
sg6
S'Berdych ends title drought with Rotterdam victory'
p1019
sa(dp1020
g2
S'http://www.reuters.com/article/2014/02/16/us-olympics-alpineskiing-neureuther-idUSBREA1F0L420140216'
p1021
sg4
S'20140216\xc2\xa011:40AM UTC'
p1022
sg6
S'Alpine Skiing: Stiff Neureuther to decide on giant slalom'
p1023
sa(dp1024
g2
S'http://www.reuters.com/article/2014/02/16/us-olympics-ice-hockey-idUSBREA1F0I220140216'
p1025
sg4
S'20140216\xc2\xa011:38AM UTC'
p1026
sg6
S'Ice hockey: Russia win but wait on bye to quarter-finals'
p1027
sa(dp1028
g2
S'http://www.reuters.com/article/2014/02/16/olympics-alpineskiing-neureuther-idUSL6N0LL0CA20140216'
p1029
sg4
S'20140216\xc2\xa011:37AM UTC'
p1030
sg6
S'Olympics-Alpine Skiing-Stiff Neureuther to decide on giant slalom'
p1031
sa(dp1032
g2
S'http://www.reuters.com/article/2014/02/16/olympics-icehockey-men-russia-idUSL6N0LL0PY20140216'
p1033
sg4
S'20140216\xc2\xa011:36AM UTC'
p1034
sg6
S'UPDATE 1-Olympics-Ice hockey-Russia win but wait on bye to quarter-finals'
p1035
sa(dp1036
g2
S'http://www.reuters.com/article/2014/02/16/us-olympics-idUSBREA150T820140216'
p1037
sg4
S'20140216\xc2\xa011:32AM UTC'
p1038
sg6
S"Dutch riding high after women skaters' clean sweep"
p1039
sa(dp1040
g2
S'http://www.reuters.com/article/2014/02/16/olympics-idUSL6N0LL0OI20140216'
p1041
sg4
S'20140216\xc2\xa011:30AM UTC'
p1042
sg6
S"WRAPUP 3-Olympics-Dutch riding high after women skaters' clean sweep"
p1043
sa(dp1044
g2
S'http://www.reuters.com/article/2014/02/16/bkc-wisconsin-michigan-preview-idUSMTZEA2G383GXV20140216'
p1045
sg4
S'20140216\xc2\xa011:26AM UTC'
p1046
sg6
S'Preview: Wisconsin at Michigan'
p1047
sa(dp1048
g2
S'http://www.reuters.com/article/2014/02/16/us-olympics-freestyle-aerials-lambert-idUSBREA1F0KR20140216'
p1049
sg4
S'20140216\xc2\xa011:23AM UTC'
p1050
sg6
S"Freestyle: Switzerland's Lambert injured in training fall"
p1051
sa(dp1052
g2
S'http://www.reuters.com/article/2014/02/16/olympics-freestyle-aerials-lambert-idUSL6N0LL0Q220140216'
p1053
sg4
S'20140216\xc2\xa011:21AM UTC'
p1054
sg6
S"Olympics-Freestyle-Switzerland's Lambert injured in training fall"
p1055
sa(dp1056
g2
S'http://www.reuters.com/article/2014/02/16/us-olympics-icehockey-men-usa-idUSBREA1F0HC20140216'
p1057
sg4
S'20140216\xc2\xa011:15AM UTC'
p1058
sg6
S'Ice hockey: Kessel powers U.S. to win over Slovenia'
p1059
sa(dp1060
g2
S'http://www.reuters.com/article/2014/02/16/olympics-icehockey-men-usa-idUSL6N0LL0O920140216'
p1061
sg4
S'20140216\xc2\xa011:13AM UTC'
p1062
sg6
S'UPDATE 1-Olympics-Ice hockey-Kessel powers U.S. to win over Slovenia'
p1063
sa(dp1064
g2
S'http://www.reuters.com/article/2014/02/16/georgiaemc-update-idUSnPnCLss2pj+160+PRN20140216'
p1065
sg4
S'20140216\xc2\xa011:08AM UTC'
p1066
sg6
S"Georgia's Electric Membership Corporations Outage Update"
p1067
sa(dp1068
g2
S'http://www.reuters.com/article/2014/02/16/us-soccer-england-cup-idUSBREA1F0KC20140216'
p1069
sg4
S'20140216\xc2\xa011:08AM UTC'
p1070
sg6
S'Martinez on course for double as Everton sink Swansea'
p1071
sa(dp1072
g2
S'http://www.reuters.com/article/2014/02/16/us-safrica-miners-rescue-idUSBREA1F0JX20140216'
p1073
sg4
S'20140216\xc2\xa011:03AM UTC'
p1074
sg6
S'Rescuers start bringing trapped South African illegal miners to surface'
p1075
sa(dp1076
g2
S'http://www.reuters.com/article/2014/02/16/safrica-miners-rescue-idUSL6N0LL0P420140216'
p1077
sg4
S'20140216\xc2\xa010:54AM UTC'
p1078
sg6
S'Rescuers start bringing trapped S.African illegal miners to surface'
p1079
sa(dp1080
g2
S'http://www.reuters.com/article/2014/02/16/us-olympics-biathlon-postponement-idUSBREA1F0JI20140216'
p1081
sg4
S'20140216\xc2\xa010:51AM UTC'
p1082
sg6
S"Men's mass start postponed until Monday"
p1083
sa(dp1084
g2
S'http://www.reuters.com/article/2014/02/16/olympics-speedskating-women-1500m-result-idUSL3N0LL0B620140216'
p1085
sg4
S'20140216\xc2\xa010:49AM UTC'
p1086
sg6
S"Olympics-Speed skating-Women's 1500m result"
p1087
sa(dp1088
g2
S'http://www.reuters.com/article/2014/02/16/italy-politics-napolitano-idUSR1N0LB00O20140216'
p1089
sg4
S'20140216\xc2\xa010:47AM UTC'
p1090
sg6
S'Italy president to meet Renzi Monday, seen asking to form govt'
p1091
sa(dp1092
g2
S'http://www.reuters.com/article/2014/02/16/us-usa-lottery-powerball-idUSBREA1F0J520140216'
p1093
sg4
S'20140216\xc2\xa010:40AM UTC'
p1094
sg6
S'Powerball lottery prize soars to $400 million'
p1095
sa(dp1096
g2
S'http://www.reuters.com/article/2014/02/16/us-swiss-eu-croatia-idUSBREA1F0IZ20140216'
p1097
sg4
S'20140216\xc2\xa010:39AM UTC'
p1098
sg6
S'After immigration vote, Swiss have to rework Croatia labor deal'
p1099
sa(dp1100
g2
S'http://www.reuters.com/article/2014/02/16/usa-lottery-powerball-idUSL2N0LL07P20140216'
p1101
sg4
S'20140216\xc2\xa010:38AM UTC'
p1102
sg6
S'U.S. Powerball lottery prize soars to $400 million'
p1103
sa(dp1104
g2
S'http://www.reuters.com/article/2014/02/16/cartoon-network-award-idUSnPnCLsrZmX+165+PRN20140216'
p1105
sg4
S'20140216\xc2\xa010:38AM UTC'
p1106
sg6
S'Cartoon Network Announces Winners For Fourth Annual Hall of Game\xe2\x84\xa2 Awards'
p1107
sa(dp1108
g2
S'http://www.reuters.com/article/2014/02/16/us-golf-european-aiken-idUSBREA1F0IS20140216'
p1109
sg4
S'20140216\xc2\xa010:35AM UTC'
p1110
sg6
S'Aiken sinks monster playoff putt to win Africa Open'
p1111
sa(dp1112
g2
S'http://www.reuters.com/article/2014/02/16/olympics-speedskating-women-idUSL6N0LL02K20140216'
p1113
sg4
S'20140216\xc2\xa010:35AM UTC'
p1114
sg6
S'Olympics-Speed skating-Ter Mors wins 1,500m in another Dutch sweep'
p1115
sa(dp1116
g2
S'http://www.reuters.com/article/2014/02/16/us-egypt-mursi-idUSBREA1F07I20140216'
p1117
sg4
S'20140216\xc2\xa010:34AM UTC'
p1118
sg6
S"Lawyers for Egypt's deposed President Mursi stage walk-out"
p1119
sa(dp1120
g2
S'http://www.reuters.com/article/2014/02/16/us-olympics-biathlon-postponement-idUSBREA1F0IG20140216'
p1121
sg4
S'20140216\xc2\xa010:29AM UTC'
p1122
sg6
S"Men's 15km mass start postponed until Monday: organizers"
p1123
sa(dp1124
g2
S'http://www.reuters.com/article/2014/02/16/olympics-icehockey-men-usa-idUSL2N0LL05E20140216'
p1125
sg4
S'20140216\xc2\xa010:29AM UTC'
p1126
sg6
S'CORRECTED-Olympics-Ice hockey-Kessel hat-trick powers US to win over Slovenia'
p1127
sa(dp1128
g2
S'http://www.reuters.com/article/2014/02/16/us-olympics-alpineskiing-super-hudec-idUSBREA1F0BV20140216'
p1129
sg4
S'20140216\xc2\xa010:28AM UTC'
p1130
sg6
S'Alpine skiing: Lucky loonie helps Hudec end Canadian drought'
p1131
sa(dp1132
g2
S'http://www.reuters.com/article/2014/02/16/britain-business-idUSL6N0LL0KK20140216'
p1133
sg4
S'20140216\xc2\xa010:26AM UTC'
p1134
sg6
S'PRESS DIGEST-Sunday British business - Feb 16'
p1135
sa(dp1136
g2
S'http://www.reuters.com/article/2014/02/16/olympics-biathlon-postponement-idUSL6N0LL0NB20140216'
p1137
sg4
S'20140216\xc2\xa010:23AM UTC'
p1138
sg6
S"Olympics-Biathlon-Men's 15km mass start postponed until Monday - organisers"
p1139
sa(dp1140
g2
S'http://www.reuters.com/article/2014/02/16/olympics-alpineskiing-super-hudec-idUSL6N0LL0H420140216'
p1141
sg4
S'20140216\xc2\xa010:23AM UTC'
p1142
sg6
S'REFILE-Olympics-Alpine skiing-Lucky loonie helps Hudec end Canadian drought'
p1143
sa(dp1144
g2
S'http://www.reuters.com/article/2014/02/16/olympics-icehockey-men-russia-idUSL6N0LL0NA20140216'
p1145
sg4
S'20140216\xc2\xa010:11AM UTC'
p1146
sg6
S'Olympics-Ice hockey-Russia win but wait on bye to quarter-finals'
p1147
sa(dp1148
g2
S'http://www.reuters.com/article/2014/02/16/us-greece-politics-idUSBREA1F0EU20140216'
p1149
sg4
S'20140216\xc2\xa010:09AM UTC'
p1150
sg6
S'Greek opposition says will try to force early election in 2015'
p1151
sa(dp1152
g2
S'http://www.reuters.com/article/2014/02/16/greece-politics-idUSL6N0LL0L620140216'
p1153
sg4
S'20140216\xc2\xa010:07AM UTC'
p1154
sg6
S'UPDATE 1-Greek opposition says will try to force early election in 2015'
p1155
sa(dp1156
g2
S'http://www.reuters.com/article/2014/02/16/idUSnGNXbR92xM+1d1+GNW20140216'
p1157
sg4
S'20140216\xc2\xa010:06AM UTC'
p1158
sg6
S'EQUITY NOTICE: Rosen Law Firm Reminds Teva Pharmaceutical Industries Limited Investors of Important February 24, 2014 Class Action Deadline -- TEVA'
p1159
sa(dp1160
g2
S'http://www.reuters.com/article/2014/02/16/usa-stocks-weekahead-idUSL2N0LL05820140216'
p1161
sg4
S'20140216\xc2\xa010:02AM UTC'
p1162
sg6
S'RPT-Wall St Week Ahead-U.S. stocks look to Fed view, tech charts'
p1163
sa(dp1164
g2
S'http://www.reuters.com/article/2014/02/16/us-mulberry-delevingne-idUSBREA1F0EJ20140216'
p1165
sg4
S'20140216\xc2\xa010:00AM UTC'
p1166
sg6
S'Mulberry launches Cara Delevingne bag range'
p1167
sa(dp1168
g2
S'http://www.reuters.com/article/2014/02/16/jazwares-nba-figures-idUSnPnNYsdqmd+160+PRN20140216'
p1169
sg4
S'20140216\xc2\xa010:00AM UTC'
p1170
sg6
S'Jazwares\xe2\x84\xa2 to Create "NBA Heroes" Superstar Action Figures'
p1171
sa(dp1172
g2
S'http://www.reuters.com/article/2014/02/16/ca-folkmanis-puppets-idUSnPnNYrDXmd+16c+PRN20140216'
p1173
sg4
S'20140216\xc2\xa010:00AM UTC'
p1174
sg6
S'Folkmanis\xc2\xae Puppets Bring the Beauty of Nature Home'
p1175
sa(dp1176
g2
S'http://www.reuters.com/article/2014/02/16/idUSnGNXZ9Vwl+f4+GNW20140216'
p1177
sg4
S'20140216\xc2\xa010:00AM UTC'
p1178
sg6
S'Portland Chiropractor Aims Cold Laser Therapy at Injuries'
p1179
sa(dp1180
g2
S'http://www.reuters.com/article/2014/02/16/idUSnGNXblhfWn+1c2+GNW20140216'
p1181
sg4
S'20140216\xc2\xa09:56AM UTC'
p1182
sg6
S'EQUITY ALERT: The Rosen Law Firm Reminds INTL FCStone, Inc. Shareholders of Important Class Action Deadline -- INTL'
p1183
sa(dp1184
g2
S'http://www.reuters.com/article/2014/02/16/us-peru-humala-popularity-idUSBREA1F0H520140216'
p1185
sg4
S'20140216\xc2\xa09:54AM UTC'
p1186
sg6
S"Hague ruling boosts Peru president's popularity to eight-month high"
p1187
sa(dp1188
g2
S'http://www.reuters.com/article/2014/02/16/film-britain-baftas-idUSL5N0LI4ZF20140216'
p1189
sg4
S'20140216\xc2\xa09:52AM UTC'
p1190
sg6
S'"12 Years a Slave" tipped for success at British film awards'
p1191
sa(dp1192
g2
S'http://www.reuters.com/article/2014/02/16/us-athletics-women-kiplagat-record-idUSBREA1F0GX20140216'
p1193
sg4
S'20140216\xc2\xa09:50AM UTC'
p1194
sg6
S'Kiplagat sets half marathon world record in Barcelona'
p1195
sa(dp1196
g2
S'http://www.reuters.com/article/2014/02/16/us-emirates-dubai-duff-idUSBREA1F0GT20140216'
p1197
sg4
S'20140216\xc2\xa09:49AM UTC'
p1198
sg6
S'British banker who helped transform Dubai dies'
p1199
sa(dp1200
g2
S'http://www.reuters.com/article/2014/02/16/us-olympics-crosscountry-russia-idUSBREA1F0GN20140216'
p1201
sg4
S'20140216\xc2\xa09:48AM UTC'
p1202
sg6
S'Cross country: Putin inspires Russians to relay silver'
p1203
sa(dp1204
g2
S'http://www.reuters.com/article/2014/02/16/us-venezuela-protests-idUSBREA1F0GJ20140216'
p1205
sg4
S'20140216\xc2\xa09:46AM UTC'
p1206
sg6
S'Police seek Venezuela opposition leader as he tweets defiance'
p1207
sa(dp1208
g2
S'http://www.reuters.com/article/2014/02/16/olympics-crosscountry-russia-idUSL6N0LL0M520140216'
p1209
sg4
S'20140216\xc2\xa09:46AM UTC'
p1210
sg6
S'Olympics-Cross country-Putin inspires Russians to relay silver'
p1211
sa(dp1212
g2
S'http://www.reuters.com/article/2014/02/16/us-nepal-plane-idUSBREA1F0GE20140216'
p1213
sg4
S'20140216\xc2\xa09:45AM UTC'
p1214
sg6
S'Plane with 18 people on board missing in Nepal'
p1215
sa(dp1216
g2
S'http://www.reuters.com/article/2014/02/16/emirates-dubai-duff-idUSL6N0LL0DM20140216'
p1217
sg4
S'20140216\xc2\xa09:44AM UTC'
p1218
sg6
S'British banker who helped transform Dubai dies'
p1219
sa(dp1220
g2
S'http://www.reuters.com/article/2014/02/16/nepal-plane-idUSL3N0LL09F20140216'
p1221
sg4
S'20140216\xc2\xa09:42AM UTC'
p1222
sg6
S'Plane with 18 people on board missing in Nepal'
p1223
sa(dp1224
g2
S'http://www.reuters.com/article/2014/02/16/us-olympics-snowboarding-cross-injuries-idUSBREA1F03O20140216'
p1225
sg4
S'20140216\xc2\xa09:38AM UTC'
p1226
sg6
S'More injuries on Extreme Park cross course'
p1227
sa(dp1228
g2
S'http://www.reuters.com/article/2014/02/16/olympics-snowboarding-cross-injuries-upd-idUSL3N0LL0BP20140216'
p1229
sg4
S'20140216\xc2\xa09:37AM UTC'
p1230
sg6
S'UPDATE 4-Olympics-Snowboarding-More injuries on Extreme Park cross course'
p1231
sa(dp1232
g2
S'http://www.reuters.com/article/2014/02/16/us-iraq-violence-idUSBREA1F0FZ20140216'
p1233
sg4
S'20140216\xc2\xa09:30AM UTC'
p1234
sg6
S'Iraq attacks kill 17, army fights to retake town from militants'
p1235
sa(dp1236
g2
S'http://www.reuters.com/article/2014/02/16/smartmax-innovative-idUSnPnDCrJ9kT+169+PRN20140216'
p1237
sg4
S'20140216\xc2\xa09:30AM UTC'
p1238
sg6
S'Smart Toys and Games, Inc. New SmartMax Sets Take Magnetic Construction to the Next Level with Innovative Pieces'
p1239
sa(dp1240
g2
S'http://www.reuters.com/article/2014/02/16/us-olympics-biathlon-massstart-delay-idUSBREA1F0FV20140216'
p1241
sg4
S'20140216\xc2\xa09:28AM UTC'
p1242
sg6
S"Men's mass start delayed due to fog"
p1243
sa(dp1244
g2
S'http://www.reuters.com/article/2014/02/16/olympics-biathlon-massstart-delay-idUSL6N0LL0M020140216'
p1245
sg4
S'20140216\xc2\xa09:27AM UTC'
p1246
sg6
S"Olympics-Biathlon-Men's mass start delayed due to fog"
p1247
sa(dp1248
g2
S'http://www.reuters.com/article/2014/02/16/us-france-bruni-idUSBREA1F0FP20140216'
p1249
sg4
S'20140216\xc2\xa09:27AM UTC'
p1250
sg6
S"Spotlight on ex-first lady Bruni as France's Sarkozy eyes comeback"
p1251
sa(dp1252
g2
S'http://www.reuters.com/article/2014/02/16/us-essarenergy-offer-idUSBREA1F0FK20140216'
p1253
sg4
S'20140216\xc2\xa09:24AM UTC'
p1254
sg6
S"Essar Energy's largest shareholder seen capping bid at 75 pence: report"
p1255
sa(dp1256
g2
S'http://www.reuters.com/article/2014/02/16/kuwait-nbk-idUSL6N0LL0GP20140216'
p1257
sg4
S'20140216\xc2\xa09:19AM UTC'
p1258
sg6
S'UPDATE 1-Sager succeeds Dabdoub as CEO of Kuwaiti bank NBK'
p1259
sa(dp1260
g2
S'http://www.reuters.com/article/2014/02/16/france-bruni-idUSL5N0LJ20E20140216'
p1261
sg4
S'20140216\xc2\xa09:17AM UTC'
p1262
sg6
S"Spotlight on ex-first lady Bruni as France's Sarkozy eyes comeback"
p1263
sa(dp1264
g2
S'http://www.reuters.com/article/2014/02/16/britain-retailers-flotations-idUSL6N0LL0J220140216'
p1265
sg4
S'20140216\xc2\xa09:16AM UTC'
p1266
sg6
S'UK retailers Poundland, Pets at Home plan London listings-report'
p1267
sa(dp1268
g2
S'http://www.reuters.com/article/2014/02/16/ga-georgia-power-idUSnPnCLsrYkB+165+PRN20140216'
p1269
sg4
S'20140216\xc2\xa09:15AM UTC'
p1270
sg6
S'Georgia Power restores service to 99 percent of affected customers'
p1271
sa(dp1272
g2
S'http://www.reuters.com/article/2014/02/16/us-germany-merkel-coalition-idUSBREA1F0F720140216'
p1273
sg4
S'20140216\xc2\xa09:12AM UTC'
p1274
sg6
S"Germany's Merkel to meet coalition leaders Tuesday as crisis looms"
p1275
sa(dp1276
g2
S'http://www.reuters.com/article/2014/02/16/essarenergy-offer-idUSL6N0LL0J520140216'
p1277
sg4
S'20140216\xc2\xa09:11AM UTC'
p1278
sg6
S"Essar Energy's largest shareholder seen capping bid at 75 pence -report"
p1279
sa(dp1280
g2
S'http://www.reuters.com/article/2014/02/16/germany-merkel-coalition-idUSL6N0LL0DJ20140216'
p1281
sg4
S'20140216\xc2\xa09:10AM UTC'
p1282
sg6
S"Germany's Merkel to meet coalition leaders Tuesday as crisis looms"
p1283
sa(dp1284
g2
S'http://www.reuters.com/article/2014/02/16/us-olympics-snowboarding-bright-idUSBREA1F0EB20140216'
p1285
sg4
S'20140216\xc2\xa09:09AM UTC'
p1286
sg6
S'Bright puts it all on the line for Sochi feat'
p1287
sa(dp1288
g2
S'http://www.reuters.com/article/2014/02/16/mideast-markets-wrap-idUSL6N0LL0JA20140216'
p1289
sg4
S'20140216\xc2\xa09:00AM UTC'
p1290
sg6
S'MIDEAST STOCKS-Dubai extends gains on UAE bourse merger bets, Saudi banks rise'
p1291
sa(dp1292
g2
S'http://www.reuters.com/article/2014/02/16/ca-toy-of-year-award-idUSnPnNYsrVkj+164+PRN20140216'
p1293
sg4
S'20140216\xc2\xa09:00AM UTC'
p1294
sg6
S'Razor\xc2\xae Crazy Cart\xe2\x84\xa2 Wins Outdoor Toy of the Year Award'
p1295
sa(dp1296
g2
S'http://www.reuters.com/article/2014/02/16/ny-vtech-toy-fair-idUSnPnNYsrzkj+160+PRN20140216'
p1297
sg4
S'20140216\xc2\xa09:00AM UTC'
p1298
sg6
S'VTech\xc2\xae Unveils Extensive Collection of Developmental Learning Toys at 2014 American International Toy Fair'
p1299
sa(dp1300
g2
S'http://www.reuters.com/article/2014/02/16/ny-jazwares-minecraft-idUSnPnNYsdjkj+160+PRN20140216'
p1301
sg4
S'20140216\xc2\xa09:00AM UTC'
p1302
sg6
S'Jazwares\xe2\x84\xa2 Announces Minecraft\xe2\x84\xa2 Series 2 Figures'
p1303
sa(dp1304
g2
S'http://www.reuters.com/article/2014/02/16/wooky-entertainment-idUSnPnNYs78kj+160+PRN20140216'
p1305
sg4
S'20140216\xc2\xa09:00AM UTC'
p1306
sg6
S'Wooky Entertainment Presents Artful New Line-Up for 2014'
p1307
sa(dp1308
g2
S'http://www.reuters.com/article/2014/02/16/ravensburger-toy-fair-idUSnPnNYs6Rkj+164+PRN20140216'
p1309
sg4
S'20140216\xc2\xa09:00AM UTC'
p1310
sg6
S'Ravensburger Puts Pieces in Place for Non-Stop Family Fun with Expansive New 2014 Collection'
p1311
sa(dp1312
g2
S'http://www.reuters.com/article/2014/02/16/smarttoys-iq-builders-idUSnPnDCrHWkj+16c+PRN20140216'
p1313
sg4
S'20140216\xc2\xa09:00AM UTC'
p1314
sg6
S'Smart Toys and Games, Inc. Announces Latest Single-Player IQ-Building Games'
p1315
sa(dp1316
g2
S'http://www.reuters.com/article/2014/02/16/ny-lego-sales-report-idUSnPnCLsrtkj+160+PRN20140216'
p1317
sg4
S'20140216\xc2\xa09:00AM UTC'
p1318
sg6
S'LEGO Systems Continues U.S. Momentum Brick by Brick'
p1319
sa(dp1320
g2
S'http://www.reuters.com/article/2014/02/16/fl-moneyshow-idUSnBw165010a+100+BSW20140216'
p1321
sg4
S'20140216\xc2\xa09:00AM UTC'
p1322
sg6
S'Traders Sentiment Bullish for First Half of 2014'
p1323
sa(dp1324
g2
S'http://www.reuters.com/article/2014/02/16/sports-news-schedule-unplanned-at-1400-g-idUSL6N0LL0DK20140216'
p1325
sg4
S'20140216\xc2\xa09:00AM UTC'
p1326
sg6
S'Reuters Sochi Olympics Schedule at 1400 GMT on Sunday, Feb 16'
p1327
sa(dp1328
g2
S'http://www.reuters.com/article/2014/02/16/greece-politics-idUSL6N0LL0IU20140216'
p1329
sg4
S'20140216\xc2\xa08:58AM UTC'
p1330
sg6
S'Greek opposition says will try to force election'
p1331
sa(dp1332
g2
S'http://www.reuters.com/article/2014/02/16/libya-oil-idUSL6N0LL0JY20140216'
p1333
sg4
S'20140216\xc2\xa08:56AM UTC'
p1334
sg6
S"Libya's oil output falls to 390,000 bpd due to protests in west -NOC"
p1335
sa(dp1336
g2
S'http://www.reuters.com/article/2014/02/16/us-bertelsmann-grunerjahr-china-idUSBREA1F0EP20140216'
p1337
sg4
S'20140216\xc2\xa08:56AM UTC'
p1338
sg6
S"German publisher G+J mulls selling stake in China's BODA -report"
p1339
sa(dp1340
g2
S'http://www.reuters.com/article/2014/02/16/us-italy-politics-idUSBREA1F0E120140216'
p1341
sg4
S'20140216\xc2\xa08:52AM UTC'
p1342
sg6
S"Italy's Renzi must reform troubled economy with awkward alliance"
p1343
sa(dp1344
g2
S'http://www.reuters.com/article/2014/02/16/iran-carbon-market-idUSL6N0LL0AP20140216'
p1345
sg4
S'20140216\xc2\xa08:44AM UTC'
p1346
sg6
S'Iran plans carbon emissions trading market, official says'
p1347
sa(dp1348
g2
S'http://www.reuters.com/article/2014/02/16/olympics-snowboarding-bright-idUSL3N0LL0B820140216'
p1349
sg4
S'20140216\xc2\xa08:40AM UTC'
p1350
sg6
S'Olympics-Snowboarding-Bright puts it all on the line for Sochi feat'
p1351
sa(dp1352
g2
S'http://www.reuters.com/article/2014/02/16/bertelsmann-grunerjahr-china-idUSL6N0LL09Y20140216'
p1353
sg4
S'20140216\xc2\xa08:35AM UTC'
p1354
sg6
S"German publisher G+J mulls selling stake in China's BODA -report"
p1355
sa(dp1356
g2
S'http://www.reuters.com/article/2014/02/16/us-olympics-crosscountry-relay-idUSBREA1F09C20140216'
p1357
sg4
S'20140216\xc2\xa08:33AM UTC'
p1358
sg6
S"Cross country: Sweden's men complete relay double"
p1359
sa(dp1360
g2
S'http://www.reuters.com/article/2014/02/16/olympics-crosscountry-relay-idUSL6N0LL0BT20140216'
p1361
sg4
S'20140216\xc2\xa08:31AM UTC'
p1362
sg6
S"UPDATE 3-Olympics-Cross country-Sweden's men complete relay double"
p1363
sa(dp1364
g2
S'http://www.reuters.com/article/2014/02/16/italy-politics-idUSL6N0LL0GV20140216'
p1365
sg4
S'20140216\xc2\xa08:30AM UTC'
p1366
sg6
S"Italy's Renzi must reform troubled economy with awkward alliance"
p1367
sa(dp1368
g2
S'http://www.reuters.com/article/2014/02/16/mulberry-delevingne-idUSL5N0LJ2ZV20140216'
p1369
sg4
S'20140216\xc2\xa08:30AM UTC'
p1370
sg6
S'Mulberry launches Cara Delevingne bag range'
p1371
sa(dp1372
g2
S'http://www.reuters.com/article/2014/02/16/olympics-idUSL6N0LL0GL20140216'
p1373
sg4
S'20140216\xc2\xa08:25AM UTC'
p1374
sg6
S'WRAPUP 2-Olympics-Jansrud wins Super-G, Czech snowboarder strikes gold'
p1375
sa(dp1376
g2
S'http://www.reuters.com/article/2014/02/16/us-brazil-worldcup-stadium-idUSBREA1F0DC20140216'
p1377
sg4
S'20140216\xc2\xa08:21AM UTC'
p1378
sg6
S'Inspector to probe fire at Brazil World Cup stadium'
p1379
sa(dp1380
g2
S'http://www.reuters.com/article/2014/02/16/us-olympics-snowboarding-cross-jacobelli-idUSBREA1F0D620140216'
p1381
sg4
S'20140216\xc2\xa08:19AM UTC'
p1382
sg6
S"Snowboarding: Jacobellis rues 'fluke' of costly Olympic falls"
p1383
sa(dp1384
g2
S'http://www.reuters.com/article/2014/02/16/olympics-snowboarding-cross-jacobellis-p-idUSL6N0LL0J120140216'
p1385
sg4
S'20140216\xc2\xa08:19AM UTC'
p1386
sg6
S"RPT-Olympics-Snowboarding-Jacobellis rues 'fluke' of costly Olympic falls"
p1387
sa(dp1388
g2
S'http://www.reuters.com/article/2014/02/16/brazil-worldcup-stadium-idUSL2N0LL05220140216'
p1389
sg4
S'20140216\xc2\xa08:19AM UTC'
p1390
sg6
S'Inspector to probe fire at Brazil World Cup stadium'
p1391
sa(dp1392
g2
S'http://www.reuters.com/article/2014/02/16/us-usa-kickstarter-idUSBREA1F03320140216'
p1393
sg4
S'20140216\xc2\xa08:18AM UTC'
p1394
sg6
S'Crowdfunding website Kickstarter hacked, recommends users change passwords'
p1395
sa(dp1396
g2
S'http://www.reuters.com/article/2014/02/16/olympics-snowboarding-cross-jacobellis-idUSL6N0LL0CH20140216'
p1397
sg4
S'20140216\xc2\xa08:17AM UTC'
p1398
sg6
S"HOLD Olympics-Snowboarding-Jacobellis rues 'fluke' of costly Olympic falls"
p1399
sa(dp1400
g2
S'http://www.reuters.com/article/2014/02/16/us-emirates-du-loan-idUSBREA1F0CY20140216'
p1401
sg4
S'20140216\xc2\xa08:16AM UTC'
p1402
sg6
S'UAE telco du agrees terms on $720 million loan financing: sources'
p1403
sa(dp1404
g2
S'http://www.reuters.com/article/2014/02/16/us-usa-banks-capital-idUSBREA1F0C520140216'
p1405
sg4
S'20140216\xc2\xa08:15AM UTC'
p1406
sg6
S'Foreign banks bracing for tough U.S. Fed capital rules'
p1407
sa(dp1408
g2
S'http://www.reuters.com/article/2014/02/16/toyindustryassoc-awds-idUSnPnNYsrThD+165+PRN20140216'
p1409
sg4
S'20140216\xc2\xa08:13AM UTC'
p1410
sg6
S'Most Outstanding Toys and Games of the Year Recognized at "OSCARS\xc2\xae" of the Toy Industry'
p1411
sa(dp1412
g2
S'http://www.reuters.com/article/2014/02/16/us-olympics-skijumping-hill-idUSBREA1F0CQ20140216'
p1413
sg4
S'20140216\xc2\xa08:13AM UTC'
p1414
sg6
S'Ski jumping: Drama, anger and concrete as jumps are built'
p1415
sa(dp1416
g2
S'http://www.reuters.com/article/2014/02/16/emirates-du-loan-idUSL6N0LL0I620140216'
p1417
sg4
S'20140216\xc2\xa08:12AM UTC'
p1418
sg6
S'UAE telco du agrees terms on $720 mln loan financing - sources'
p1419
sa(dp1420
g2
S'http://www.reuters.com/article/2014/02/16/us-britain-scotland-barroso-idUSBREA1F07320140216'
p1421
sg4
S'20140216\xc2\xa08:11AM UTC'
p1422
sg6
S'Barroso ruffles Scottish feathers over EU membership'
p1423
sa(dp1424
g2
S'http://www.reuters.com/article/2014/02/16/us-peugeot-idUSBREA1F0CK20140216'
p1425
sg4
S'20140216\xc2\xa08:11AM UTC'
p1426
sg6
S"Peugeot family to vote on carmaker's future on Monday"
p1427
sa(dp1428
g2
S'http://www.reuters.com/article/2014/02/16/olympics-skijumping-hill-idUSL2N0LJ0CG20140216'
p1429
sg4
S'20140216\xc2\xa08:10AM UTC'
p1430
sg6
S'Olympics-Ski jumping-Drama, anger and concrete as jumps are built'
p1431
sa(dp1432
g2
S'http://www.reuters.com/article/2014/02/16/us-olympics-alpinesking-super-jansrud-idUSBREA1F08D20140216'
p1433
sg4
S'20140216\xc2\xa08:08AM UTC'
p1434
sg6
S'Alpine skiing: Norwegian raider Jansrud plunders more gold'
p1435
sa(dp1436
g2
S'http://www.reuters.com/article/2014/02/16/peugeot-idUSL5N0LK0IV20140216'
p1437
sg4
S'20140216\xc2\xa08:08AM UTC'
p1438
sg6
S"Peugeot family to vote on carmaker's future on Monday"
p1439
sa(dp1440
g2
S'http://www.reuters.com/article/2014/02/16/olympics-alpinesking-super-jansrud-idUSL3N0LL08V20140216'
p1441
sg4
S'20140216\xc2\xa08:07AM UTC'
p1442
sg6
S'UPDATE 1-Olympics-Alpine skiing-Norwegian raider Jansrud plunders more gold'
p1443
sa(dp1444
g2
S'http://www.reuters.com/article/2014/02/16/us-thesimpsons-lego-idUSBREA1F0C220140216'
p1445
sg4
S'20140216\xc2\xa08:05AM UTC'
p1446
sg6
S"Fox's 'The Simpsons' to get Lego makeover on May 4"
p1447
sa(dp1448
g2
S'http://www.reuters.com/article/2014/02/16/sabanbrands-book-deal-idUSnPnNYsrGhn+164+PRN20140216'
p1449
sg4
S'20140216\xc2\xa08:00AM UTC'
p1450
sg6
S"Saban Brands Inks Publishing Deal for Julius Jr.with Random House Children's Books"
p1451
sa(dp1452
g2
S'http://www.reuters.com/article/2014/02/16/usa-banks-capital-idUSL2N0LJ16E20140216'
p1453
sg4
S'20140216\xc2\xa08:00AM UTC'
p1454
sg6
S'Foreign banks bracing for tough U.S. Fed capital rules'
p1455
sa(dp1456
g2
S'http://www.reuters.com/article/2014/02/16/television-thesimpsons-lego-idUSL2N0LJ1VC20140216'
p1457
sg4
S'20140216\xc2\xa08:00AM UTC'
p1458
sg6
S"Fox's 'The Simpsons' to get Lego makeover on May 4"
p1459
sa(dp1460
g2
S'http://www.reuters.com/article/2014/02/16/us-israel-egypt-explosion-idUSBREA1F0BD20140216'
p1461
sg4
S'20140216\xc2\xa07:50AM UTC'
p1462
sg6
S'Israel preparing to treat any casualties from Egypt border blast'
p1463
sa(dp1464
g2
S'http://www.reuters.com/article/2014/02/16/us-oman-corruption-sentences-idUSBREA1F0B820140216'
p1465
sg4
S'20140216\xc2\xa07:50AM UTC'
p1466
sg6
S'Ex-government officials in Oman jailed for abuse of office'
p1467
sa(dp1468
g2
S'http://www.reuters.com/article/2014/02/16/us-blast-on-tourist-bus-in-egypts-sinai-idUSBREA1F0AT20140216'
p1469
sg4
S'20140216\xc2\xa07:44AM UTC'
p1470
sg6
S"Blast on tourist bus in Egypt's Sinai wounds four"
p1471
sa(dp1472
g2
S'http://www.reuters.com/article/2014/02/16/us-olympics-snowboarding-cross-injuries-idUSBREA1F0AO20140216'
p1473
sg4
S'20140216\xc2\xa07:42AM UTC'
p1474
sg6
S'More injuries on Extreme Park cross course'
p1475
sa(dp1476
g2
S'http://www.reuters.com/article/2014/02/16/kuwait-nbk-idUSL6N0LL0ES20140216'
p1477
sg4
S'20140216\xc2\xa07:41AM UTC'
p1478
sg6
S"Sager succeeds Dabdoub as group CEO of Kuwait's NBK"
p1479
sa(dp1480
g2
S'http://www.reuters.com/article/2014/02/16/olympics-snowboarding-cross-injuries-upd-idUSL3N0LL07920140216'
p1481
sg4
S'20140216\xc2\xa07:35AM UTC'
p1482
sg6
S'UPDATE 3-Olympics-Snowboarding-More injuries on Extreme Park cross course'
p1483
sa(dp1484
g2
S'http://www.reuters.com/article/2014/02/16/olympics-crosscountry-men-relay-result-idUSL3N0LL07Q20140216'
p1485
sg4
S'20140216\xc2\xa07:25AM UTC'
p1486
sg6
S"Olympics-Cross Country-Men's relay 4x10 km result"
p1487
sa(dp1488
g2
S'http://www.reuters.com/article/2014/02/16/us-emirates-exchanges-idUSBREA1F06120140216'
p1489
sg4
S'20140216\xc2\xa07:15AM UTC'
p1490
sg6
S'UAE bourses should unify back offices even without merger: ADX CEO'
p1491
sa(dp1492
g2
S'http://www.reuters.com/article/2014/02/16/jordan-telecom-results-idUSL6N0LL0BU20140216'
p1493
sg4
S'20140216\xc2\xa07:15AM UTC'
p1494
sg6
S"Jordan Telecom's 2013 net profits fall 38 pct"
p1495
sa(dp1496
g2
S'http://www.reuters.com/article/2014/02/16/emirates-exchanges-idUSL6N0LL05Q20140216'
p1497
sg4
S'20140216\xc2\xa07:13AM UTC'
p1498
sg6
S'UPDATE 2-UAE bourses should unify back offices even without merger -ADX CEO'
p1499
sa(dp1500
g2
S'http://www.reuters.com/article/2014/02/16/vw-chattanooga-idUSL6N0LL0C920140216'
p1501
sg4
S'20140216\xc2\xa07:12AM UTC'
p1502
sg6
S'VW works council says will push U.S. plant labour representation'
p1503
sa(dp1504
g2
S'http://www.reuters.com/article/2014/02/16/abu-dhabi-police-idUSnBw165021a+100+BSW20140216'
p1505
sg4
S'20140216\xc2\xa07:09AM UTC'
p1506
sg6
S'UAE to Invest $10 Billion in 10 Years in Homeland Security According to US Department of Commerce\xe2\x80\x99s Study'
p1507
sa(dp1508
g2
S'http://www.reuters.com/article/2014/02/16/us-olympics-snowboarding-cross-idUSBREA1F0A620140216'
p1509
sg4
S'20140216\xc2\xa07:03AM UTC'
p1510
sg6
S'Dominant Czech Samkova wins cross gold'
p1511
sa(dp1512
g2
S'http://www.reuters.com/article/2014/02/16/olympics-snowboarding-cross-idUSL3N0LL09020140216'
p1513
sg4
S'20140216\xc2\xa06:59AM UTC'
p1514
sg6
S'UPDATE 3-Olympics-Snowboarding-Dominant Czech Samkova wins cross gold'
p1515
sa(dp1516
g2
S'http://www.reuters.com/article/2014/02/16/safrica-miners-idUSL6N0LL0CE20140216'
p1517
sg4
S'20140216\xc2\xa06:57AM UTC'
p1518
sg6
S'S. African rescuers trying to reach over 200 trapped illegal miners'
p1519
sa(dp1520
g2
S'http://www.reuters.com/article/2014/02/16/us-iraq-sadr-idUSBREA1F09M20140216'
p1521
sg4
S'20140216\xc2\xa06:50AM UTC'
p1522
sg6
S"Iraq Shi'ite cleric who fought U.S. forces says quitting politics"
p1523
sa(dp1524
g2
S'http://www.reuters.com/article/2014/02/16/us-soccer-england-united-rooney-idUSBREA1F09I20140216'
p1525
sg4
S'20140216\xc2\xa06:48AM UTC'
p1526
sg6
S'Rooney contract extension not signed yet, say United'
p1527
sa(dp1528
g2
S'http://www.reuters.com/article/2014/02/16/olympics-ice-skating-women-idUSL3N0LL09R20140216'
p1529
sg4
S'20140216\xc2\xa06:46AM UTC'
p1530
sg6
S"ADVISORY-Olympics-Ice skating-Women's individual preview package"
p1531
sa(dp1532
g2
S'http://www.reuters.com/article/2014/02/16/ny-makerbot-idUSnBw165014a+100+BSW20140216'
p1533
sg4
S'20140216\xc2\xa06:45AM UTC'
p1534
sg6
S'MEDIA ALERT: Visit MakerBot at the NY Toy Fair'
p1535
sa(dp1536
g2
S'http://www.reuters.com/article/2014/02/16/us-olympics-shorttrack-ahn-korea-idUSBREA1F09920140216'
p1537
sg4
S'20140216\xc2\xa06:44AM UTC'
p1538
sg6
S"Ahn's gold hard for South Koreans to swallow"
p1539
sa(dp1540
g2
S'http://www.reuters.com/article/2014/02/16/olympics-shorttrack-ahn-korea-idUSL3N0LL07F20140216'
p1541
sg4
S'20140216\xc2\xa06:39AM UTC'
p1542
sg6
S"Olympics-Ahn's gold hard for South Koreans to swallow"
p1543
sa(dp1544
g2
S'http://www.reuters.com/article/2014/02/16/islamic-finance-luxembourg-idUSL5N0LJ00S20140216'
p1545
sg4
S'20140216\xc2\xa06:38AM UTC'
p1546
sg6
S'Luxembourg bill for debut sukuk to take 2-5 months to pass'
p1547
sa(dp1548
g2
S'http://www.reuters.com/article/2014/02/16/us-britain-boe-carney-idUSBREA1F05V20140216'
p1549
sg4
S'20140216\xc2\xa06:35AM UTC'
p1550
sg6
S"BoE's Carney: jobs, incomes, wages to be factored into any rate rise"
p1551
sa(dp1552
g2
S'http://www.reuters.com/article/2014/02/16/us-spain-bankia-idUSBREA1F08R20140216'
p1553
sg4
S'20140216\xc2\xa06:35AM UTC'
p1554
sg6
S"Spain's Bankia sees 5-10 percent stake sale in first privatization round"
p1555
sa(dp1556
g2
S'http://www.reuters.com/article/2014/02/16/us-olympics-alpineskiing-miller-idUSBREA1F08I20140216'
p1557
sg4
S'20140216\xc2\xa06:32AM UTC'
p1558
sg6
S'Alpine skiing:Tearful Miller remembers dead brother'
p1559
sa(dp1560
g2
S'http://www.reuters.com/article/2014/02/16/olympics-crosscountry-relay-idUSL6N0LL02H20140216'
p1561
sg4
S'20140216\xc2\xa06:30AM UTC'
p1562
sg6
S"Olympics-Cross country-Sweden win men's 4x10km relay"
p1563
sa(dp1564
g2
S'http://www.reuters.com/article/2014/02/16/spain-bankia-idUSL6N0LL0AU20140216'
p1565
sg4
S'20140216\xc2\xa06:30AM UTC'
p1566
sg6
S"Spain's Bankia sees 5-10 pct stake sale in first privatisation round"
p1567
sa(dp1568
g2
S'http://www.reuters.com/article/2014/02/16/olympics-alpineskiing-miller-idUSL3N0LL09V20140216'
p1569
sg4
S'20140216\xc2\xa06:29AM UTC'
p1570
sg6
S'Olympics-Alpine skiing-Tearful Miller remembers dead brother'
p1571
sa(dp1572
g2
S'http://www.reuters.com/article/2014/02/16/us-olympics-india-idUSBREA1F05320140216'
p1573
sg4
S'20140216\xc2\xa06:25AM UTC'
p1574
sg6
S'India completes Olympic return with Sochi flag raising'
p1575
sa(dp1576
g2
S'http://www.reuters.com/article/2014/02/16/us-thailand-protest-idUSBREA1F05920140216'
p1577
sg4
S'20140216\xc2\xa06:25AM UTC'
p1578
sg6
S'Thai police fail to reach deal with protesters'
p1579
sa(dp1580
g2
S'http://www.reuters.com/article/2014/02/16/us-thailand-rice-idUSBREA1F08320140216'
p1581
sg4
S'20140216\xc2\xa06:25AM UTC'
p1582
sg6
S'Thai government bank loan not enough to pay off rice program debt'
p1583
sa(dp1584
g2
S'http://www.reuters.com/article/2014/02/16/olympics-idUSL6N0LL05Y20140216'
p1585
sg4
S'20140216\xc2\xa06:24AM UTC'
p1586
sg6
S'WRAPUP 1-Olympics-Jansrud and Samkova mine gold in Russian mountains'
p1587
sa(dp1588
g2
S'http://www.reuters.com/article/2014/02/16/olympics-india-idUSL6N0LL05120140216'
p1589
sg4
S'20140216\xc2\xa06:23AM UTC'
p1590
sg6
S'UPDATE 1-Olympics-India completes Olympic return with Sochi flag raising'
p1591
sa(dp1592
g2
S'http://www.reuters.com/article/2014/02/16/us-bahrain-zain-ipo-idUSBREA1F07W20140216'
p1593
sg4
S'20140216\xc2\xa06:22AM UTC'
p1594
sg6
S'Zain Bahrain IPO moves step closer with notice in government gazette'
p1595
sa(dp1596
g2
S'http://www.reuters.com/article/2014/02/16/us-olympics-snowboarding-cross-idUSBREA1F06B20140216'
p1597
sg4
S'20140216\xc2\xa06:18AM UTC'
p1598
sg6
S'Dominant Czech Samkova wins cross gold'
p1599
sa(dp1600
g2
S'http://www.reuters.com/article/2014/02/16/bahrain-zain-ipo-idUSL6N0LL08Z20140216'
p1601
sg4
S'20140216\xc2\xa06:17AM UTC'
p1602
sg6
S'Zain Bahrain IPO moves step closer with notice in govt gazette'
p1603
sa(dp1604
g2
S'http://www.reuters.com/article/2014/02/16/us-olympics-alpineskiing-super-weibrecht-idUSBREA1F07M20140216'
p1605
sg4
S'20140216\xc2\xa06:16AM UTC'
p1606
sg6
S'Alpine skiing: Wombat Weibrecht shows animal instinct'
p1607
sa(dp1608
g2
S'http://www.reuters.com/article/2014/02/16/bangladesh-economy-exports-idUSL3N0LL09W20140216'
p1609
sg4
S'20140216\xc2\xa06:13AM UTC'
p1610
sg6
S'Bangladesh Jan exports rise 7.8 pct on garment sales'
p1611
sa(dp1612
g2
S'http://www.reuters.com/article/2014/02/16/olympics-alpineskiing-super-weibrecht-idUSL6N0LL0A020140216'
p1613
sg4
S'20140216\xc2\xa06:09AM UTC'
p1614
sg6
S'Olympics-Alpine skiing-Wombat Weibrecht shows animal instinct'
p1615
sa(dp1616
g2
S'http://www.reuters.com/article/2014/02/16/bkc-minnesota-northwestern-preview-idUSMTZEA2G383HY120140216'
p1617
sg4
S'20140216\xc2\xa06:02AM UTC'
p1618
sg6
S'Preview: Minnesota at Northwestern'
p1619
sa(dp1620
g2
S'http://www.reuters.com/article/2014/02/16/bkc-southernmethodist-temple-preview-idUSMTZEA2G383HY020140216'
p1621
sg4
S'20140216\xc2\xa06:02AM UTC'
p1622
sg6
S'Preview: Southern Methodist at Temple'
p1623
sa(dp1624
g2
S'http://www.reuters.com/article/2014/02/16/bkc-wichitast-evansville-preview-idUSMTZEA2G383HXZ20140216'
p1625
sg4
S'20140216\xc2\xa06:02AM UTC'
p1626
sg6
S'Preview: Wichita State at Evansville'
p1627
sa(dp1628
g2
S'http://www.reuters.com/article/2014/02/16/bkc-rutgers-louisville-preview-idUSMTZEA2G383GXY20140216'
p1629
sg4
S'20140216\xc2\xa06:02AM UTC'
p1630
sg6
S'Preview: Rutgers at Louisville'
p1631
sa(dp1632
g2
S'http://www.reuters.com/article/2014/02/16/bkc-oregonst-oregon-preview-idUSMTZEA2G383HY220140216'
p1633
sg4
S'20140216\xc2\xa06:02AM UTC'
p1634
sg6
S'Preview: Oregon State at Oregon'
p1635
sa(dp1636
g2
S'http://www.reuters.com/article/2014/02/16/bkc-notredame-bostoncollege-preview-idUSMTZEA2G383GXX20140216'
p1637
sg4
S'20140216\xc2\xa06:02AM UTC'
p1638
sg6
S'Preview: Notre Dame at Boston College'
p1639
sa(dp1640
g2
S'http://www.reuters.com/article/2014/02/16/bkc-villanova-creighton-preview-idUSMTZEA2G383GXW20140216'
p1641
sg4
S'20140216\xc2\xa06:02AM UTC'
p1642
sg6
S'Preview: Villanova at Creighton'
p1643
sa(dp1644
g2
S'http://www.reuters.com/article/2014/02/16/bkc-nebraska-michiganst-preview-idUSMTZEA2G383GXU20140216'
p1645
sg4
S'20140216\xc2\xa06:02AM UTC'
p1646
sg6
S'Preview: Nebraska at Michigan State'
p1647
sa(dp1648
g2
S'http://www.reuters.com/article/2014/02/16/e-mega-assissinscreed-idUSnPnMOdycx+b0+PRN20140216'
p1649
sg4
S'20140216\xc2\xa06:00AM UTC'
p1650
sg6
S"MEGA Brands and Ubisoft\xc2\xae Announce Plans for MEGA BLOKS\xc2\xae Assassin's Creed\xc2\xae Collector Construction Sets for Fall 2014"
p1651
sa(dp1652
g2
S'http://www.reuters.com/article/2014/02/16/prn-good-morning-idUSnPnNYGMbL+bd+PRN20140216'
p1653
sg4
S'20140216\xc2\xa05:59AM UTC'
p1654
sg6
S'GOOD MORNING'
p1655
sa(dp1656
g2
S'http://www.reuters.com/article/2014/02/16/britain-boe-carney-idUSL6N0LL07A20140216'
p1657
sg4
S'20140216\xc2\xa05:51AM UTC'
p1658
sg6
S"UPDATE 2-BoE's Carney: jobs, incomes, wages to be factored into any rate rise"
p1659
sa(dp1660
g2
S'http://www.reuters.com/article/2014/02/16/us-fiat-bank-idUSBREA1F07D20140216'
p1661
sg4
S'20140216\xc2\xa05:49AM UTC'
p1662
sg6
S'Fiat seeks to turn financing unit into a bank: source'
p1663
sa(dp1664
g2
S'http://www.reuters.com/article/2014/02/16/fiat-bank-idUSL6N0LL06X20140216'
p1665
sg4
S'20140216\xc2\xa05:45AM UTC'
p1666
sg6
S'Fiat seeks to turn financing unit into a bank -source'
p1667
sa(dp1668
g2
S'http://www.reuters.com/article/2014/02/16/us-radiation-leak-newmexico-idUSBREA1F06Y20140216'
p1669
sg4
S'20140216\xc2\xa05:34AM UTC'
p1670
sg6
S'Possible radiation leak at New Mexico military nuclear waste site'
p1671
sa(dp1672
g2
S'http://www.reuters.com/article/2014/02/16/us-olympics-bobsleigh-meyers-idUSBREA1F06T20140216'
p1673
sg4
S'20140216\xc2\xa05:31AM UTC'
p1674
sg6
S'Late-night mechanics get Meyers back on track'
p1675
sa(dp1676
g2
S'http://www.reuters.com/article/2014/02/16/us-olympics-icehockey-idUSBREA1F06P20140216'
p1677
sg4
S'20140216\xc2\xa05:30AM UTC'
p1678
sg6
S'Austria close out preliminary round with first win'
p1679
sa(dp1680
g2
S'http://www.reuters.com/article/2014/02/16/idUSL1N0LL00P20140216'
p1681
sg4
S'20140216\xc2\xa05:28AM UTC'
p1682
sg6
S'Possible radiation leak at New Mexico military nuclear waste site'
p1683
sa(dp1684
g2
S'http://www.reuters.com/article/2014/02/16/olympics-snowboarding-women-cross-final-idUSL3N0LL07S20140216'
p1685
sg4
S'20140216\xc2\xa05:28AM UTC'
p1686
sg6
S"Olympics-Snowboarding-Women's cross final result"
p1687
sa(dp1688
g2
S'http://www.reuters.com/article/2014/02/16/olympics-bobsleigh-meyers-idUSL3N0LL07O20140216'
p1689
sg4
S'20140216\xc2\xa05:27AM UTC'
p1690
sg6
S'Olympics-Bobsleigh-Late-night mechanics get Meyers back on track'
p1691
sa(dp1692
g2
S'http://www.reuters.com/article/2014/02/16/olympics-icehockey-men-austria-idUSL6N0LL08520140216'
p1693
sg4
S'20140216\xc2\xa05:27AM UTC'
p1694
sg6
S'Olympics-Austria close out preliminary round with first win'
p1695
sa(dp1696
g2
S'http://www.reuters.com/article/2014/02/16/kuwait-energy-refineries-idUSL5N0LH1IY20140216'
p1697
sg4
S'20140216\xc2\xa05:22AM UTC'
p1698
sg6
S'Kuwaiti oil refineries vulnerable to more power problems'
p1699
sa(dp1700
g2
S'http://www.reuters.com/article/2014/02/16/us-olympics-alpineskiing-super-idUSBREA1F02U20140216'
p1701
sg4
S'20140216\xc2\xa05:09AM UTC'
p1702
sg6
S'Alpine skiing: Jansrud strikes gold as Miller medals'
p1703
sa(dp1704
g2
S'http://www.reuters.com/article/2014/02/16/olympics-alpineskiing-super-idUSL6N0LL02720140216'
p1705
sg4
S'20140216\xc2\xa05:07AM UTC'
p1706
sg6
S'UPDATE 3-Olympics-Alpine skiing-Jansrud strikes gold as Miller medals'
p1707
sa(dp1708
g2
S'http://www.reuters.com/article/2014/02/16/olympics-snowboarding-cross-idUSL6N0LL02A20140216'
p1709
sg4
S'20140216\xc2\xa05:05AM UTC'
p1710
sg6
S'Olympics-Snowboarding-Czech Samkova wins board cross gold'
p1711
sa(dp1712
g2
S'http://www.reuters.com/article/2014/02/16/us-olympics-speedskating-usa-suits-idUSBREA1F05Q20140216'
p1713
sg4
S'20140216\xc2\xa05:01AM UTC'
p1714
sg6
S"Speed skating: U.S. 'lucky' to be able to switch suits"
p1715
sa(dp1716
g2
S'http://www.reuters.com/article/2014/02/16/us-korea-north-un-idUSBREA1F01520140216'
p1717
sg4
S'20140216\xc2\xa04:52AM UTC'
p1718
sg6
S'North Korea prison camp survivor awaits U.N. report with hope, despair'
p1719
sa(dp1720
g2
S'http://www.reuters.com/article/2014/02/16/olympics-speedskating-usa-suits-idUSL6N0LL06C20140216'
p1721
sg4
S'20140216\xc2\xa04:50AM UTC'
p1722
sg6
S'Olympics-Speed skating-U.S. "lucky" to be able to switch suits'
p1723
sa(dp1724
g2
S'http://www.reuters.com/article/2014/02/16/safrica-strikes-lawsuit-idUSL6N0LL02V20140216'
p1725
sg4
S'20140216\xc2\xa04:35AM UTC'
p1726
sg6
S"Amplats sues S. Africa's AMCU union for platinum strike damages"
p1727
sa(dp1728
g2
S'http://www.reuters.com/article/2014/02/16/us-indonesia-usa-kerry-idUSBREA1F04X20140216'
p1729
sg4
S'20140216\xc2\xa04:27AM UTC'
p1730
sg6
S'Kerry tours giant mosque in Indonesia'
p1731
sa(dp1732
g2
S'http://www.reuters.com/article/2014/02/16/emirates-exchanges-idUSL6N0LL04D20140216'
p1733
sg4
S'20140216\xc2\xa04:26AM UTC'
p1734
sg6
S'UAE bourses should unify back offices -Abu Dhabi CEO'
p1735
sa(dp1736
g2
S'http://www.reuters.com/article/2014/02/16/us-tunisia-attack-idUSBREA1F04Q20140216'
p1737
sg4
S'20140216\xc2\xa04:25AM UTC'
p1738
sg6
S'Militants kill four in Tunisian border attack'
p1739
sa(dp1740
g2
S'http://www.reuters.com/article/2014/02/16/us-olympics-icehockey-men-kovacevic-idUSBREA1F04D20140216'
p1741
sg4
S'20140216\xc2\xa03:58AM UTC'
p1742
sg6
S"Ice hockey: Slovenia's Kovacevic banned one game for hit"
p1743
sa(dp1744
g2
S'http://www.reuters.com/article/2014/02/16/olympics-icehockey-men-kovacevic-idUSL1N0LL00S20140216'
p1745
sg4
S'20140216\xc2\xa03:56AM UTC'
p1746
sg6
S"Olympics-Ice hockey-Slovenia's Kovacevic banned one game for hit"
p1747
sa(dp1748
g2
S'http://www.reuters.com/article/2014/02/16/us-oscars-technical-idUSBREA1F04720140216'
p1749
sg4
S'20140216\xc2\xa03:55AM UTC'
p1750
sg6
S'Top techs behind moviemaking get their star turn from Academy'
p1751
sa(dp1752
g2
S'http://www.reuters.com/article/2014/02/16/us-olympics-skicross-injury-idUSBREA1F04420140216'
p1753
sg4
S'20140216\xc2\xa03:52AM UTC'
p1754
sg6
S'Russian skier stable after spine surgery'
p1755
sa(dp1756
g2
S'http://www.reuters.com/article/2014/02/16/film-oscars-technical-idUSL1N0LL00G20140216'
p1757
sg4
S'20140216\xc2\xa03:47AM UTC'
p1758
sg6
S'Top techs behind moviemaking get their star turn from Academy'
p1759
sa(dp1760
g2
S'http://www.reuters.com/article/2014/02/16/olympics-skicross-injury-idUSL6N0LL03U20140216'
p1761
sg4
S'20140216\xc2\xa03:46AM UTC'
p1762
sg6
S'Olympics-Russian skier stable after spine surgery'
p1763
sa(dp1764
g2
S'http://www.reuters.com/article/2014/02/16/us-olympics-icehockey-russians-idUSBREA1F03V20140216'
p1765
sg4
S'20140216\xc2\xa03:41AM UTC'
p1766
sg6
S'Anger at hockey goal melts political ice in Russia'
p1767
sa(dp1768
g2
S'http://www.reuters.com/article/2014/02/16/promontory-financial-gro-idUSnBw165018a+100+BSW20140216'
p1769
sg4
S'20140216\xc2\xa03:38AM UTC'
p1770
sg6
S'Challenges and Opportunities for Exchanges'
p1771
sa(dp1772
g2
S'http://www.reuters.com/article/2014/02/16/olympics-icehockey-russians-idUSL6N0LL02E20140216'
p1773
sg4
S'20140216\xc2\xa03:33AM UTC'
p1774
sg6
S'Olympics-Anger at hockey goal melts political ice in Russia'
p1775
sa(dp1776
g2
S'http://www.reuters.com/article/2014/02/16/olympics-alpineskiing-men-superg-result-idUSL3N0LL05S20140216'
p1777
sg4
S'20140216\xc2\xa03:26AM UTC'
p1778
sg6
S"Olympics-Alpine skiing-Men's super-G result"
p1779
sa(dp1780
g2
S'http://www.reuters.com/article/2014/02/16/idUSnGNX2H3Rkx+1d4+GNW20140216'
p1781
sg4
S'20140216\xc2\xa03:11AM UTC'
p1782
sg6
S'Intriguing Picasso to be offered at Beaux Auctions, Mar 1'
p1783
sa(dp1784
g2
S'http://www.reuters.com/article/2014/02/16/us-usa-sake-texas-idUSBREA1F03J20140216'
p1785
sg4
S'20140216\xc2\xa03:01AM UTC'
p1786
sg6
S'Texan turning Japanese sake into a Lone Star tipple'
p1787
sa(dp1788
g2
S'http://www.reuters.com/article/2014/02/16/usa-sake-texas-idUSL5N0LI4W220140216'
p1789
sg4
S'20140216\xc2\xa03:00AM UTC'
p1790
sg6
S'Texan turning Japanese sake into a Lone Star tipple'
p1791
sa(dp1792
g2
S'http://www.reuters.com/article/2014/02/16/us-myanmar-journalists-idUSBREA1F03D20140216'
p1793
sg4
S'20140216\xc2\xa02:56AM UTC'
p1794
sg6
S'Myanmar journalists on trial for reporting alleged chemical weapons factory'
p1795
sa(dp1796
g2
S'http://www.reuters.com/article/2014/02/16/myanmar-journalists-idUSL3N0LL06K20140216'
p1797
sg4
S'20140216\xc2\xa02:55AM UTC'
p1798
sg6
S'Myanmar journalists on trial for reporting alleged chemical weapons factory'
p1799
sa(dp1800
g2
S'http://www.reuters.com/article/2014/02/16/usa-kickstarter-idUSL2N0LL04C20140216'
p1801
sg4
S'20140216\xc2\xa02:35AM UTC'
p1802
sg6
S'Crowdfunding website Kickstarter hacked, recommends users change passwords'
p1803
sa(dp1804
g2
S'http://www.reuters.com/article/2014/02/16/idUSnCCN57M7Nv+1ca+MKW20140216'
p1805
sg4
S'20140216\xc2\xa02:26AM UTC'
p1806
sg6
S'Lateral Capital Corp. Announces Proposed Acquisition'
p1807
sa(dp1808
g2
S'http://www.reuters.com/article/2014/02/16/olympics-alpineskiing-super-idUSL6N0LL01820140216'
p1809
sg4
S'20140216\xc2\xa02:12AM UTC'
p1810
sg6
S"Olympics-Alpine skiing-Norway's Jansrud wins super-G gold"
p1811
sa(dp1812
g2
S'http://www.reuters.com/article/2014/02/16/emirates-deyaar-ownership-idUSL6N0LL01O20140216'
p1813
sg4
S'20140216\xc2\xa02:06AM UTC'
p1814
sg6
S"Dubai's Deyaar to allow up to 25 pct foreign ownership"
p1815
sa(dp1816
g2
S'http://www.reuters.com/article/2014/02/16/yemen-gas-total-idUSL5N0LI1DK20140216'
p1817
sg4
S'20140216\xc2\xa01:33AM UTC'
p1818
sg6
S"Yemen gas price pressure mounts on France's Total"
p1819
sa(dp1820
g2
S'http://www.reuters.com/article/2014/02/16/us-usa-florida-shooting-dunn-idUSBREA1E0MR20140216'
p1821
sg4
S'20140216\xc2\xa01:20AM UTC'
p1822
sg6
S'Florida man faces 60 years in prison for shooting teens over loud music'
p1823
sa(dp1824
g2
S'http://www.reuters.com/article/2014/02/16/us-japan-snow-idUSBREA1F02J20140216'
p1825
sg4
S'20140216\xc2\xa01:12AM UTC'
p1826
sg6
S'Heavy snow kills 12 in Japan, disrupts power and flights'
p1827
sa(dp1828
g2
S'http://www.reuters.com/article/2014/02/16/japan-snow-idUSL3N0LL04520140216'
p1829
sg4
S'20140216\xc2\xa01:09AM UTC'
p1830
sg6
S'Heavy snow kills 12 in Japan, disrupts power and flights'
p1831
sa(dp1832
g2
S'http://www.reuters.com/article/2014/02/16/idUSnMKWWd0DDa+1e6+MKW20140216'
p1833
sg4
S'20140216\xc2\xa012:53AM UTC'
p1834
sg6
S"'DALLAS BUYERS CLUB,' 'JACKASS PRESENTS: BAD GRANDPA,' and 'THE WALKING DEAD' Among Make-Up Artist Winners at the Make-Up Artists and Hair Stylists Guild Awards"
p1835
sa(dp1836
g2
S'http://www.reuters.com/article/2014/02/16/egypt-citadel-investment-idUSL6N0LL00Y20140216'
p1837
sg4
S'20140216\xc2\xa012:35AM UTC'
p1838
sg6
S"Egypt's Citadel Capital says completes $530 mln investments"
p1839
sa(dp1840
g2
S'http://www.reuters.com/article/2014/02/16/bkc-florida-kentucky-writethru-idUSMTZEA2G2MNQWW20140216'
p1841
sg4
S'20140216\xc2\xa012:09AM UTC'
p1842
sg6
S'Florida tops Kentucky for 17th straight win'
p1843
sa(dp1844
g2
S'http://www.reuters.com/article/2014/02/16/census-daily-feature-idUSnPnDCnZB1+b6+PRN20140216'
p1845
sg4
S'20140216\xc2\xa012:01AM UTC'
p1846
sg6
S'U.S. Census Bureau Daily Feature for February 16'
p1847
sa(dp1848
g2
S'http://www.reuters.com/news/video/videoStory?storyID=78902494'
p1849
sg4
S'20140216\xc2\xa011:48PM UTC'
p1850
sg6
S"Breakingviews: India's urban angst should worry investors"
p1851
sa(dp1852
g2
S'http://www.reuters.com/news/video/videoStory?storyID=78901001'
p1853
sg4
S'20140216\xc2\xa010:56PM UTC'
p1854
sg6
S'\xe3\x83\x90\xe3\x83\xaa\xe5\xb3\xb6\xe3\x81\xa7\xe6\x97\xa5\xe6\x9c\xac\xe4\xba\xba7\xe4\xba\xba\xe3\x81\xae\xe6\x8d\x9c\xe7\xb4\xa2\xe7\xb6\x9a\xe3\x81\x8f\xe3\x80\x81\xe3\x83\x80\xe3\x82\xa4\xe3\x83\x93\xe3\x83\xb3\xe3\x82\xb0\xe4\xb8\xad\xe3\x81\xab\xe8\xa1\x8c\xe6\x96\xb9\xe4\xb8\x8d\xe6\x98\x8e\xef\xbc\x88\xe5\xad\x97\xe5\xb9\x95\xe3\x83\xbb16\xe6\x97\xa5\xef\xbc\x89'
p1855
sa(dp1856
g2
S'http://www.reuters.com/news/video/videoStory?storyID=78900368'
p1857
sg4
S'20140216\xc2\xa010:38PM UTC'
p1858
sg6
S'\xe3\x82\xb7\xe3\x83\x8a\xe3\x82\xa4\xe5\x8d\x8a\xe5\xb3\xb6\xe3\x81\xa7\xe8\xa6\xb3\xe5\x85\x89\xe3\x83\x90\xe3\x82\xb9\xe3\x81\x8c\xe7\x88\x86\xe7\x99\xba\xe3\x80\x81\xe9\x9f\x93\xe5\x9b\xbd\xe4\xba\xba\xe8\xa6\xb3\xe5\x85\x89\xe5\xae\xa2\xe3\x82\x89\xe3\x81\x8c\xe6\xad\xbb\xe4\xba\xa1\xef\xbc\x88\xe5\xad\x97\xe5\xb9\x95\xe3\x83\xbb17\xe6\x97\xa5\xef\xbc\x89'
p1859
sa(dp1860
g2
S'http://www.reuters.com/news/video/videoStory?storyID=78900283'
p1861
sg4
S'20140216\xc2\xa010:35PM UTC'
p1862
sg6
S'\xe7\xb1\xb3\xe5\x8c\x97\xe6\x9d\xb1\xe9\x83\xa8\xe3\x81\xab\xe5\x86\xac\xe5\xb5\x90\xe3\x81\x8c\xe9\x95\xb7\xe9\x80\x97\xe7\x95\x99\xe3\x80\x81\xe3\x83\x90\xe3\x83\xac\xe3\x83\xb3\xe3\x82\xbf\xe3\x82\xa4\xe3\x83\xb3\xe3\x83\x87\xe3\x83\xbc\xe3\x81\xab\xe3\x82\x82\xe4\xbd\x99\xe6\xb3\xa2\xef\xbc\x88\xe5\xad\x97\xe5\xb9\x95\xe3\x83\xbb15\xe6\x97\xa5\xef\xbc\x89'
p1863
sa(dp1864
g2
S'http://www.reuters.com/news/video/videoStory?storyID=78895667'
p1865
sg4
S'20140216\xc2\xa07:21PM UTC'
p1866
sg6
S'Half-naked runners jog through the capital'
p1867
sa(dp1868
g2
S'http://www.reuters.com/news/video/videoStory?storyID=78895009'
p1869
sg4
S'20140216\xc2\xa07:15PM UTC'
p1870
sg6
S'Huge avalanche in Colorado kills 2, injures 3'
p1871
sa(dp1872
g2
S'http://www.reuters.com/news/video/videoStory?storyID=78893017'
p1873
sg4
S'20140216\xc2\xa06:09PM UTC'
p1874
sg6
S'12 illegal miners rescued in South Africa, others stay underground'
p1875
sa(dp1876
g2
S'http://www.reuters.com/news/video/videoStory?storyID=78890253'
p1877
sg4
S'20140216\xc2\xa05:18PM UTC'
p1878
sg6
S"North Koreans mark former leader Kim Jong-il's birthday"
p1879
sa(dp1880
g2
S'http://www.reuters.com/news/video/videoStory?storyID=78889313'
p1881
sg4
S'20140216\xc2\xa04:47PM UTC'
p1882
sg6
S'Victims of bus blast in Sinai were tourists, official says'
p1883
sa(dp1884
g2
S'http://www.reuters.com/news/video/videoStory?storyID=78888927'
p1885
sg4
S'20140216\xc2\xa04:22PM UTC'
p1886
sg6
S'"The Lego Movie" structually sound at top of box office charts'
p1887
sa(dp1888
g2
S'http://www.reuters.com/news/video/videoStory?storyID=78888232'
p1889
sg4
S'20140216\xc2\xa03:55PM UTC'
p1890
sg6
S"Kim Jong-un marks late father's birthday at mausoleum"
p1891
sa(dp1892
g2
S'http://www.reuters.com/news/video/videoStory?storyID=78887217'
p1893
sg4
S'20140216\xc2\xa03:20PM UTC'
p1894
sg6
S'Italy still days away from official Prime Minister announcement'
p1895
sa(dp1896
g2
S'http://www.reuters.com/news/video/videoStory?storyID=78886787'
p1897
sg4
S'20140216\xc2\xa03:05PM UTC'
p1898
sg6
S'A show of support for Assad in Damascus'
p1899
sa(dp1900
g2
S'http://www.reuters.com/news/video/videoStory?storyID=78885582'
p1901
sg4
S'20140216\xc2\xa02:07PM UTC'
p1902
sg6
S'Ice castle delights crowds at New York festival'
p1903
sa(dp1904
g2
S'http://www.reuters.com/news/video/videoStory?storyID=78883951'
p1905
sg4
S'20140216\xc2\xa01:06PM UTC'
p1906
sg6
S'Rescuers start bringing trapped illegal miners to surface'
p1907
sa(dp1908
g2
S'http://www.reuters.com/news/video/videoStory?storyID=78883767'
p1909
sg4
S'20140216\xc2\xa012:54PM UTC'
p1910
sg6
S'Deadly floods threatening livestock across Bolivia'
p1911
sa(dp1912
g2
S'http://www.reuters.com/news/video/videoStory?storyID=78882970'
p1913
sg4
S'20140216\xc2\xa012:26PM UTC'
p1914
sg6
S'Tearful Bode Miller remembers dead brother'
p1915
sa(dp1916
g2
S'http://www.reuters.com/news/video/videoStory?storyID=78884322'
p1917
sg4
S'20140216\xc2\xa012:26PM UTC'
p1918
sg6
S'Sinai Blast caught on tape'
p1919
sa(dp1920
g2
S'http://www.reuters.com/news/video/videoStory?storyID=78882655'
p1921
sg4
S'20140216\xc2\xa012:11PM UTC'
p1922
sg6
S'Children among the dead in Pakistan train blast'
p1923
sa(dp1924
g2
S'http://www.reuters.com/news/video/videoStory?storyID=78880180'
p1925
sg4
S'20140216\xc2\xa010:55AM UTC'
p1926
sg6
S"Bus blast kills at least 4 on Egypt's border with Israel"
p1927
sa(dp1928
g2
S'http://www.reuters.com/news/video/videoStory?storyID=78878805'
p1929
sg4
S'20140216\xc2\xa010:24AM UTC'
p1930
sg6
S'Blood spills in Iraq as gunmen attack checkpoint in Iraq'
p1931
sa(dp1932
g2
S'http://www.reuters.com/news/video/videoStory?storyID=78879126'
p1933
sg4
S'20140216\xc2\xa010:22AM UTC'
p1934
sg6
S'Patriotic art brought to life with Google Glass'
p1935
sa(dp1936
g2
S'http://www.reuters.com/news/video/videoStory?storyID=78877510'
p1937
sg4
S'20140216\xc2\xa09:44AM UTC'
p1938
sg6
S'S. African rescuers try to reach more than 200 trapped illegal miners'
p1939
sa(dp1940
g2
S'http://www.reuters.com/news/video/videoStory?storyID=78877556'
p1941
sg4
S'20140216\xc2\xa09:43AM UTC'
p1942
sg6
S"Yamaguchi excited about state of women's figure skating"
p1943
sa(dp1944
g2
S'http://www.reuters.com/news/video/videoStory?storyID=78875389'
p1945
sg4
S'20140216\xc2\xa09:00AM UTC'
p1946
sg6
S'Nigeria harnesses the power of waste'
p1947
sa(dp1948
g2
S'http://www.reuters.com/news/video/videoStory?storyID=78875199'
p1949
sg4
S'20140216\xc2\xa08:47AM UTC'
p1950
sg6
S"Protesters hand back Kiev's city hall to the authorities"
p1951
sa(dp1952
g2
S'http://www.reuters.com/news/video/videoStory?storyID=78873540'
p1953
sg4
S'20140216\xc2\xa08:16AM UTC'
p1954
sg6
S'Snow still piling up in the Northeast'
p1955
sa(dp1956
g2
S'http://www.reuters.com/news/video/videoStory?storyID=78870582'
p1957
sg4
S'20140216\xc2\xa06:04AM UTC'
p1958
sg6
S'Pakistan blast derails train, kills five'
p1959
sa(dp1960
g2
S'http://www.reuters.com/news/video/videoStory?storyID=78870077'
p1961
sg4
S'20140216\xc2\xa05:48AM UTC'
p1962
sg6
S'Search continues for missing Japanese divers'
p1963
sa(dp1964
g2
S'http://www.reuters.com/news/video/videoStory?storyID=78870091'
p1965
sg4
S'20140216\xc2\xa05:35AM UTC'
p1966
sg6
S"Kerry visits Indonesia's Istiqlal mosque"
p1967
sa(dp1968
g2
S'http://www.reuters.com/news/video/videoStory?storyID=78870128'
p1969
sg4
S'20140216\xc2\xa05:33AM UTC'
p1970
sg6
S'Thick smog returns to Beijing'
p1971
sa(dp1972
g2
S'http://www.reuters.com/news/video/videoStory?storyID=78869202'
p1973
sg4
S'20140216\xc2\xa05:28AM UTC'
p1974
sg6
S'Families prepare ahead of the reunions'
p1975
sa(dp1976
g2
S'http://www.reuters.com/news/video/videoStory?storyID=78868941'
p1977
sg4
S'20140216\xc2\xa05:09AM UTC'
p1978
sg6
S'Next 24 hours critical in flood relief - Cameron'
p1979
sa(dp1980
g2
S'http://www.reuters.com/news/video/videoStory?storyID=78868310'
p1981
sg4
S'20140216\xc2\xa04:27AM UTC'
p1982
sg6
S'Pro, anti government protesters clash'
p1983
sa.