(lp0
(dp1
S'href'
p2
S'http://www.reuters.com/article/2014/05/19/fitch-rates-alfamarts-proposed-idr1trn-b-idUSFit70058120140519'
p3
sS'ts'
p4
S'20140518\xc2\xa011:58PM UTC'
p5
sS'title'
p6
S"Fitch Rates Alfamart's Proposed IDR1trn Bonds 'AA-(idn)'"
p7
sa(dp8
g2
S'http://www.reuters.com/article/2014/05/19/goodpack-kkr-idUSL3N0O50XR20140519'
p9
sg4
S'20140518\xc2\xa011:58PM UTC'
p10
sg6
S"KKR in advanced talks to buy Singapore's Goodpack - sources"
p11
sa(dp12
g2
S'http://www.reuters.com/article/2014/05/19/music-billboardawards-idUSL1N0O500S20140519'
p13
sg4
S'20140518\xc2\xa011:57PM UTC'
p14
sg6
S'UPDATE 2-Timberlake, Imagine Dragons top winners at Billboard Awards'
p15
sa(dp16
g2
S'http://www.reuters.com/article/2014/05/19/market-chatter-idUSL3N0O50WS20140519'
p17
sg4
S'20140518\xc2\xa011:54PM UTC'
p18
sg6
S'Market Chatter- Corporate finance press digest'
p19
sa(dp20
g2
S'http://www.reuters.com/article/2014/05/19/markets-japan-jgb-idUSL3N0O50XD20140519'
p21
sg4
S'20140518\xc2\xa011:53PM UTC'
p22
sg6
S'JGB prices dip ahead of 20-year auction'
p23
sa(dp24
g2
S'http://www.reuters.com/article/2014/05/19/us-golf-world-men-idUSKBN0DZ06W20140519'
p25
sg4
S'20140518\xc2\xa011:53PM UTC'
p26
sg6
S'Australian Scott overtakes Tiger Woods as world No. 1'
p27
sa(dp28
g2
S'http://www.reuters.com/article/2014/05/19/servergy-idUSnBw185073a+100+BSW20140519'
p29
sg4
S'20140518\xc2\xa011:52PM UTC'
p30
sg6
S'Servergy Builds the Bridge between Open Compute and OpenPOWER'
p31
sa(dp32
g2
S'http://www.reuters.com/article/2014/05/19/us-southkorea-ferry-idUSBREA4I00720140519'
p33
sg4
S'20140518\xc2\xa011:47PM UTC'
p34
sg6
S"South Korea's Park, sorry over ferry disaster, breaks up coast guard"
p35
sa(dp36
g2
S'http://www.reuters.com/article/2014/05/19/markets-india-rupee-idUSL3N0O50X920140519'
p37
sg4
S'20140518\xc2\xa011:46PM UTC'
p38
sg6
S'RPT-Indian rupee hits 11-month high; RBI intervention in focus'
p39
sa(dp40
g2
S'http://www.reuters.com/article/2014/05/19/us-china-vietnam-taiwan-formosa-idUSBREA4I01R20140519'
p41
sg4
S'20140518\xc2\xa011:46PM UTC'
p42
sg6
S"Taiwan's Formosa Plastics to seek compensation from Vietnam over damage"
p43
sa(dp44
g2
S'http://www.reuters.com/article/2014/05/19/idUSnMKW0wZ7ma+1c8+MKW20140519'
p45
sg4
S'20140518\xc2\xa011:45PM UTC'
p46
sg6
S'Statement by Canadian Agri-Food Trade Alliance on Trans-Pacific Partnership Trade Talks'
p47
sa(dp48
g2
S'http://www.reuters.com/article/2014/05/19/idUSnCCN8CrxV+e9+MKW20140519'
p49
sg4
S'20140518\xc2\xa011:45PM UTC'
p50
sg6
S'Statement by Canadian Agri-Food Trade Alliance on Trans-Pacific Partnership Trade Talks'
p51
sa(dp52
g2
S'http://www.reuters.com/article/2014/05/19/china-vietnam-taiwan-formosa-idUSL3N0O50VE20140519'
p53
sg4
S'20140518\xc2\xa011:44PM UTC'
p54
sg6
S"Taiwan's Formosa Plastics to seek compensation from Vietnam over damage"
p55
sa(dp56
g2
S'http://www.reuters.com/article/2014/05/19/us-tennis-open-azarenka-idUSKBN0DZ06L20140519'
p57
sg4
S'20140518\xc2\xa011:43PM UTC'
p58
sg6
S'Azarenka out of French Open due to foot injury'
p59
sa(dp60
g2
S'http://www.reuters.com/article/2014/05/19/tokyosteel-prices-idUSL3N0O50UU20140519'
p61
sg4
S'20140518\xc2\xa011:40PM UTC'
p62
sg6
S'Tokyo Steel keeps product prices unchanged for 5th month in June'
p63
sa(dp64
g2
S'http://www.reuters.com/article/2014/05/19/markets-india-rupee-idUSL3N0O50V820140519'
p65
sg4
S'20140518\xc2\xa011:40PM UTC'
p66
sg6
S'Indian rupee hits 11-month high; RBI intervention in focus'
p67
sa(dp68
g2
S'http://www.reuters.com/article/2014/05/19/motor-racing-brabham-idUSL3N0O40TD20140519'
p69
sg4
S'20140518\xc2\xa011:39PM UTC'
p70
sg6
S'UPDATE 3-Motor racing-Triple F1 world champion Brabham dead at 88'
p71
sa(dp72
g2
S'http://www.reuters.com/article/2014/05/19/us-mexico-reforms-idUSBREA4I01M20140519'
p73
sg4
S'20140518\xc2\xa011:37PM UTC'
p74
sg6
S'Mexican opposition party re-elects leader in boost for reforms'
p75
sa(dp76
g2
S'http://www.reuters.com/article/2014/05/19/ca-johnson-weaver-idUSnBw185068a+100+BSW20140519'
p77
sg4
S'20140518\xc2\xa011:30PM UTC'
p78
sg6
S'DIRECTV SHAREHOLDER ALERT: Proposed Sale of DIRECTV Being Investigated by Johnson & Weaver, LLP'
p79
sa(dp80
g2
S'http://www.reuters.com/article/2014/05/19/mexico-reforms-idUSL1N0O501G20140519'
p81
sg4
S'20140518\xc2\xa011:28PM UTC'
p82
sg6
S'UPDATE 1-Mexican opposition party re-elects leader in boost for reforms'
p83
sa(dp84
g2
S'http://www.reuters.com/article/2014/05/19/singamas-cont-antidumping-idUSL3N0O50D520140519'
p85
sg4
S'20140518\xc2\xa011:25PM UTC'
p86
sg6
S'U.S. launches anti-dumping probe against China container makers'
p87
sa(dp88
g2
S'http://www.reuters.com/article/2014/05/19/bbo-angels-teamreport-idUSMTZEA5JSXEZMP20140519'
p89
sg4
S'20140518\xc2\xa011:23PM UTC'
p90
sg6
S'Los Angeles Angels - TeamReport'
p91
sa(dp92
g2
S'http://www.reuters.com/article/2014/05/19/fitch-affirms-and-withdraws-taiwan-coope-idUSFit70121320140519'
p93
sg4
S'20140518\xc2\xa011:19PM UTC'
p94
sg6
S'Fitch Affirms and Withdraws Taiwan Cooperative Bank Ratings'
p95
sa(dp96
g2
S'http://www.reuters.com/article/2014/05/19/thailand-press-idUSL3N0O50SI20140519'
p97
sg4
S'20140518\xc2\xa011:17PM UTC'
p98
sg6
S'THAILAND PRESS-True Move may lose millions of customers - Bangkok Post'
p99
sa(dp100
g2
S'http://www.reuters.com/article/2014/05/19/markets-korea-idUSL3N0O40JV20140519'
p101
sg4
S'20140518\xc2\xa011:17PM UTC'
p102
sg6
S'Seoul stocks edge down on profit-taking, won firms'
p103
sa(dp104
g2
S'http://www.reuters.com/article/2014/05/19/us-att-directv-factbox-idUSBREA4H0BD20140519'
p105
sg4
S'20140518\xc2\xa011:04PM UTC'
p106
sg6
S"Factbox: A look at AT&T; and DirecTV's businesses"
p107
sa(dp108
g2
S'http://www.reuters.com/article/2014/05/19/daimler-uaw-north-carolina-idUSL3N0O50PD20140519'
p109
sg4
S'20140518\xc2\xa011:03PM UTC'
p110
sg6
S"UAW ratifies labor contract at Daimler's North Carolina plants"
p111
sa(dp112
g2
S'http://www.reuters.com/article/2014/05/19/us-nomura-hldgs-china-jointventure-idUSBREA4I01920140519'
p113
sg4
S'20140518\xc2\xa011:00PM UTC'
p114
sg6
S"Japan's Nomura to set up joint venture in Shanghai free trade zone"
p115
sa(dp116
g2
S'http://www.reuters.com/article/2014/05/19/directv-att-idUSL1N0O40HW20140519'
p117
sg4
S'20140518\xc2\xa010:58PM UTC'
p118
sg6
S'UPDATE 3-AT&T; makes bet on video with $48.5 bln DirecTV bid'
p119
sa(dp120
g2
S'http://www.reuters.com/article/2014/05/19/us-china-sichuanchengfei-idUSBREA4I01320140519'
p121
sg4
S'20140518\xc2\xa010:48PM UTC'
p122
sg6
S'China state-owned firm in $3.4 billion deal to buy military assets'
p123
sa(dp124
g2
S'http://www.reuters.com/article/2014/05/19/nomura-hldgs-china-jointventure-idUSL3N0O50NY20140519'
p125
sg4
S'20140518\xc2\xa010:46PM UTC'
p126
sg6
S"Japan's Nomura to set up joint venture in Shanghai free trade zone"
p127
sa(dp128
g2
S'http://www.reuters.com/article/2014/05/19/us-nigeria-violence-idUSBREA4H0AR20140519'
p129
sg4
S'20140518\xc2\xa010:44PM UTC'
p130
sg6
S"Suicide car bomb kills five in bar district of north Nigeria's Kano"
p131
sa(dp132
g2
S'http://www.reuters.com/article/2014/05/19/morningcall-india-idUSL3N0O50MT20140519'
p133
sg4
S'20140518\xc2\xa010:37PM UTC'
p134
sg6
S'India Morning Call-Global Markets'
p135
sa(dp136
g2
S'http://www.reuters.com/article/2014/05/19/china-sichuanchengfei-idUSL3N0O507T20140519'
p137
sg4
S'20140518\xc2\xa010:33PM UTC'
p138
sg6
S'China state-owned firm in $3.4 bln deal to buy military assets'
p139
sa(dp140
g2
S'http://www.reuters.com/article/2014/05/19/google-twitch-idUSL1N0O503220140519'
p141
sg4
S'20140518\xc2\xa010:30PM UTC'
p142
sg6
S'RPT-Google said to be in talks to buy streaming-video site Twitch -WSJ'
p143
sa(dp144
g2
S'http://www.reuters.com/article/2014/05/19/us-mali-fighting-idUSBREA4H09X20140519'
p145
sg4
S'20140518\xc2\xa010:28PM UTC'
p146
sg6
S'Mali sends troops to retake town from Tuareg separatists'
p147
sa(dp148
g2
S'http://www.reuters.com/article/2014/05/19/markets-india-fxdebt-idUSL3N0O50J120140519'
p149
sg4
S'20140518\xc2\xa010:27PM UTC'
p150
sg6
S'Indian FX/debt factors to watch - May 19'
p151
sa(dp152
g2
S'http://www.reuters.com/article/2014/05/19/press-digest-hongkong-idUSL3N0O50K620140519'
p153
sg4
S'20140518\xc2\xa010:18PM UTC'
p154
sg6
S'PRESS DIGEST - Hong Kong - May 19'
p155
sa(dp156
g2
S'http://www.reuters.com/article/2014/05/19/us-motor-racing-brabham-idUSKBN0DZ03P20140519'
p157
sg4
S'20140518\xc2\xa010:18PM UTC'
p158
sg6
S'Triple F1 world champion Brabham dead at 88'
p159
sa(dp160
g2
S'http://www.reuters.com/article/2014/05/19/us-motor-racing-brabham-factbox-idUSKBN0DZ02920140519'
p161
sg4
S'20140518\xc2\xa010:18PM UTC'
p162
sg6
S'Factbox: Former Formula One world champion Jack Brabham'
p163
sa(dp164
g2
S'http://www.reuters.com/article/2014/05/19/bbo-rays-angels-writethru-idUSMTZEA5ISKP20L20140519'
p165
sg4
S'20140518\xc2\xa010:12PM UTC'
p166
sg6
S'Pujols homers twice as Angels dump Rays'
p167
sa(dp168
g2
S'http://www.reuters.com/article/2014/05/19/indonesia-press-telkom-idUSL3N0O50IN20140519'
p169
sg4
S'20140518\xc2\xa010:12PM UTC'
p170
sg6
S'INDONESIA PRESS-Telkom eyes stake in Tiphone-Investor Daily'
p171
sa(dp172
g2
S'http://www.reuters.com/article/2014/05/19/us-people-jerryvale-idUSKBN0DZ03D20140519'
p173
sg4
S'20140518\xc2\xa010:09PM UTC'
p174
sg6
S'Jerry Vale, 1950s crooner, dies in California at age 83'
p175
sa(dp176
g2
S'http://www.reuters.com/article/2014/05/19/indonesia-press-bumi-resources-idUSL3N0O50JK20140519'
p177
sg4
S'20140518\xc2\xa010:08PM UTC'
p178
sg6
S'INDONESIA PRESS-Bumi Resources plans to pay up to $2 bln debt next year - Bisnis Indonesia'
p179
sa(dp180
g2
S'http://www.reuters.com/article/2014/05/19/opec-fuel-subsidies-idUSL6N0O242N20140519'
p181
sg4
S'20140518\xc2\xa010:00PM UTC'
p182
sg6
S"RPT-COLUMN-Money to burn: OPEC's wasteful energy subsidies: Kemp"
p183
sa(dp184
g2
S'http://www.reuters.com/article/2014/05/19/markets-australia-stocks-idUSL3N0O40NK20140519'
p185
sg4
S'20140518\xc2\xa09:58PM UTC'
p186
sg6
S'Australia shares stumble on banks, resources, UGL drops'
p187
sa(dp188
g2
S'http://www.reuters.com/article/2014/05/19/markets-japan-stocks-idUSL3N0O50AF20140519'
p189
sg4
S'20140518\xc2\xa09:58PM UTC'
p190
sg6
S'Nikkei flat as stronger yen caps risk appetite; Tokyo Electron shines'
p191
sa(dp192
g2
S'http://www.reuters.com/article/2014/05/19/blackstone-oxford-idUSL1N0O501E20140519'
p193
sg4
S'20140518\xc2\xa09:54PM UTC'
p194
sg6
S'Blackstone to sell Boston office properties -source'
p195
sa(dp196
g2
S'http://www.reuters.com/article/2014/05/19/bbo-padres-rockies-writethru-idUSMTZEA5JSO5PJW20140519'
p197
sg4
S'20140518\xc2\xa09:53PM UTC'
p198
sg6
S'Morneau homers in 10th to give Rockies win over Padres'
p199
sa(dp200
g2
S'http://www.reuters.com/article/2014/05/19/people-jerryvale-idUSL1N0O502D20140519'
p201
sg4
S'20140518\xc2\xa09:53PM UTC'
p202
sg6
S'Jerry Vale, 1950s crooner, dies in California at age 83'
p203
sa(dp204
g2
S'http://www.reuters.com/article/2014/05/19/bbo-rockies-teamreport-idUSMTZEA5JST63M120140519'
p205
sg4
S'20140518\xc2\xa09:51PM UTC'
p206
sg6
S'Colorado Rockies - TeamReport'
p207
sa(dp208
g2
S'http://www.reuters.com/article/2014/05/19/bbo-pirates-yankees-writethru-idUSMTZEA5ISDADL020140519'
p209
sg4
S'20140518\xc2\xa09:41PM UTC'
p210
sg6
S'Harrison the hero as Pirates split with Yankees'
p211
sa(dp212
g2
S'http://www.reuters.com/article/2014/05/19/ca-mwd-solar-cup-idUSnBw185062a+100+BSW20140519'
p213
sg4
S'20140518\xc2\xa09:41PM UTC'
p214
sg6
S'Student Teams from Long Beach Poly, Canyon and West Covina High Schools Earn Top Spots at Metropolitan\xe2\x80\x99s 2014 Solar Cup\xe2\x84\xa2'
p215
sa(dp216
g2
S'http://www.reuters.com/article/2014/05/19/japan-publicfund-reform-idUST9N0N30AY20140519'
p217
sg4
S'20140518\xc2\xa09:37PM UTC'
p218
sg6
S'Abe to take aim at GPIF with expanded oversight panel -sources'
p219
sa(dp220
g2
S'http://www.reuters.com/article/2014/05/19/uk-bluewater-idUSL3N0O50BA20140519'
p221
sg4
S'20140518\xc2\xa09:32PM UTC'
p222
sg6
S"UK's retail property groups eye stake in Bluewater -The Times"
p223
sa(dp224
g2
S'http://www.reuters.com/article/2014/05/19/google-twitch-idUSL1N0O502120140519'
p225
sg4
S'20140518\xc2\xa09:30PM UTC'
p226
sg6
S'Google said to be in talks to buy streaming-video site Twitch -WSJ'
p227
sa(dp228
g2
S'http://www.reuters.com/article/2014/05/19/vietnam-press-baoviet-idUSL3N0O50C920140519'
p229
sg4
S'20140518\xc2\xa09:29PM UTC'
p230
sg6
S"VIETNAM PRESS-Top insurer Baoviet's Q1 net profit before tax up 28 pct y/y - Vietnam Economic Times"
p231
sa(dp232
g2
S'http://www.reuters.com/article/2014/05/19/us-motor-racing-brabham-idUSKBN0DY0RK20140519'
p233
sg4
S'20140518\xc2\xa09:12PM UTC'
p234
sg6
S'Former F1 world champion Brabham dead at 88'
p235
sa(dp236
g2
S'http://www.reuters.com/article/2014/05/19/us-lockheed-satellites-military-idUSBREA4I00J20140519'
p237
sg4
S'20140518\xc2\xa09:08PM UTC'
p238
sg6
S'Lockheed eyes avatars, 3D printing to lower satellite costs'
p239
sa(dp240
g2
S'http://www.reuters.com/article/2014/05/19/britain-press-ft-idUSL3N0O509K20140519'
p241
sg4
S'20140518\xc2\xa09:03PM UTC'
p242
sg6
S'PRESS DIGEST- Financial Times - May 19'
p243
sa(dp244
g2
S'http://www.reuters.com/article/2014/05/19/att-directv-idUSL1N0O40LA20140519'
p245
sg4
S'20140518\xc2\xa09:01PM UTC'
p246
sg6
S'UPDATE 1-AT&T; will not pay break-up fee if regulators reject DirecTV deal'
p247
sa(dp248
g2
S'http://www.reuters.com/article/2014/05/19/australia-ugl-dtz-idUSL3N0O502F20140519'
p249
sg4
S'20140518\xc2\xa08:59PM UTC'
p250
sg6
S"Australia's UGL gets only one bid in planned $1.1 bln property arm sale -source"
p251
sa(dp252
g2
S'http://www.reuters.com/article/2014/05/19/markets-asia-nymex-idUSL3N0O505S20140519'
p253
sg4
S'20140518\xc2\xa08:58PM UTC'
p254
sg6
S'REFILE-NYMEX-U.S. crude holds above $102 on Libya, other risks'
p255
sa(dp256
g2
S'http://www.reuters.com/article/2014/05/19/malaysia-corporate-earnings-idUSL3N0O508320140519'
p257
sg4
S'20140518\xc2\xa08:51PM UTC'
p258
sg6
S'DIARY-Malaysia 2014 corporate earnings'
p259
sa(dp260
g2
S'http://www.reuters.com/article/2014/05/19/us-lockheed-satellite-idUSBREA4H0AV20140519'
p261
sg4
S'20140518\xc2\xa08:47PM UTC'
p262
sg6
S'Exclusive: Lockheed starts final assembly of new U.S. weather satellite'
p263
sa(dp264
g2
S'http://www.reuters.com/article/2014/05/19/bbo-dodgers-diamondbacks-writethru-idUSMTZEA5JSM7PJ320140519'
p265
sg4
S'20140518\xc2\xa08:42PM UTC'
p266
sg6
S'Ross, Chavez belt homers to lead Diamondbacks past Dodgers'
p267
sa(dp268
g2
S'http://www.reuters.com/article/2014/05/19/philippines-press-mitsubishimotors-idUSL3N0O505F20140519'
p269
sg4
S'20140518\xc2\xa08:41PM UTC'
p270
sg6
S'PHILIPPINES PRESS-Mitsubishi to invest $228 mln to boost Philippine operations-Inquirer'
p271
sa(dp272
g2
S'http://www.reuters.com/article/2014/05/19/markets-precious-idUSL3N0O505C20140519'
p273
sg4
S'20140518\xc2\xa08:38PM UTC'
p274
sg6
S'PRECIOUS-Gold slips on economic optimism; platinum adds to gains'
p275
sa(dp276
g2
S'http://www.reuters.com/article/2014/05/19/southkorea-ferry-idUSL3N0O504N20140519'
p277
sg4
S'20140518\xc2\xa08:36PM UTC'
p278
sg6
S"RPT-S.Korea's Park apologises for ferry disaster, says to break up coast guard"
p279
sa(dp280
g2
S'http://www.reuters.com/article/2014/05/19/philippines-press-sm-prime-hldgs-idUSL3N0O504P20140519'
p281
sg4
S'20140518\xc2\xa08:34PM UTC'
p282
sg6
S'PHILIPPINES PRESS-SM Prime plans $1.9 bln investment next year - Standard Today'
p283
sa(dp284
g2
S'http://www.reuters.com/article/2014/05/19/bbo-braves-cardinals-writethru-idUSMTZEA5ISHVEV320140519'
p285
sg4
S'20140518\xc2\xa08:32PM UTC'
p286
sg6
S'Schafer keys Braves rally vs. Cardinals'
p287
sa(dp288
g2
S'http://www.reuters.com/article/2014/05/19/us-boxoffice-idUSKBN0DY0JQ20140519'
p289
sg4
S'20140518\xc2\xa08:31PM UTC'
p290
sg6
S"'Godzilla' tramples rivals with monster $93 million debut"
p291
sa(dp292
g2
S'http://www.reuters.com/article/2014/05/19/boxoffice-idUSL1N0O40A320140519'
p293
sg4
S'20140518\xc2\xa08:27PM UTC'
p294
sg6
S"UPDATE 3-'Godzilla' tramples rivals with monster $93 mln debut"
p295
sa(dp296
g2
S'http://www.reuters.com/article/2014/05/19/music-billboardawards-idUSL1N0O12G020140519'
p297
sg4
S'20140518\xc2\xa08:27PM UTC'
p298
sg6
S'Imagine Dragons early winner at Billboard Music Awards'
p299
sa(dp300
g2
S'http://www.reuters.com/article/2014/05/19/us-china-russia-gas-idUSBREA4I00A20140519'
p301
sg4
S'20140518\xc2\xa08:27PM UTC'
p302
sg6
S"Russia-China gas deal preparations in 'final phase' says Putin: Xinhua"
p303
sa(dp304
g2
S'http://www.reuters.com/article/2014/05/19/southkorea-ferry-idUSL3N0O503W20140519'
p305
sg4
S'20140518\xc2\xa08:25PM UTC'
p306
sg6
S"RPT-S.Korea's Park apologises for ferry disaster, says to break up coast guard"
p307
sa(dp308
g2
S'http://www.reuters.com/article/2014/05/19/singapore-press-realestate-idUSL3N0O502O20140519'
p309
sg4
S'20140518\xc2\xa08:24PM UTC'
p310
sg6
S'SINGAPORE PRESS-Robust sales at two condominium launches - Straits Times'
p311
sa(dp312
g2
S'http://www.reuters.com/article/2014/05/19/idUSnGNXBPYcQ+fd+GNW20140519'
p313
sg4
S'20140518\xc2\xa08:23PM UTC'
p314
sg6
S'OCC Announces Total Cleared Contract Volume Increased 6 Percent Year-to-Date'
p315
sa(dp316
g2
S'http://www.reuters.com/article/2014/05/19/us-nhl-playoffs-blackhawks-idUSKBN0DY0QK20140519'
p317
sg4
S'20140518\xc2\xa08:19PM UTC'
p318
sg6
S'Blackhawks top Kings to claim Western Conference opener'
p319
sa(dp320
g2
S'http://www.reuters.com/article/2014/05/19/bkn-heat-pacers-writethru-idUSMTZEA5ISJCTX520140519'
p321
sg4
S'20140518\xc2\xa08:19PM UTC'
p322
sg6
S'Pacers cruise to Game 1 win over Heat'
p323
sa(dp324
g2
S'http://www.reuters.com/article/2014/05/19/southkorea-ferry-idUSL3N0O40TV20140519'
p325
sg4
S'20140518\xc2\xa08:18PM UTC'
p326
sg6
S"S.Korea's Park apologises for ferry disaster, says to break up coast guard"
p327
sa(dp328
g2
S'http://www.reuters.com/article/2014/05/19/us-brazil-worldcup-test-idUSKBN0DZ00J20140519'
p329
sg4
S'20140518\xc2\xa08:18PM UTC'
p330
sg6
S'Brazilian stadium holds first test ahead of World Cup opener'
p331
sa(dp332
g2
S'http://www.reuters.com/article/2014/05/19/libya-violence-idUSL6N0O40LW20140519'
p333
sg4
S'20140518\xc2\xa08:17PM UTC'
p334
sg6
S'UPDATE 6-Gunmen loyal to ex-general storm Libyan parliament, demand suspension'
p335
sa(dp336
g2
S'http://www.reuters.com/article/2014/05/19/bgfretail-ipo-idUSL3N0O201Z20140519'
p337
sg4
S'20140518\xc2\xa08:06PM UTC'
p338
sg6
S"S.Korea's BGF Retail jumps 39 pct on debut after $250 mln IPO"
p339
sa(dp340
g2
S'http://www.reuters.com/article/2014/05/19/japan-economy-machinery-idUST9N0N205H20140519'
p341
sg4
S'20140518\xc2\xa08:05PM UTC'
p342
sg6
S'RPT-Japan March core machinery orders jump 19.1 pct mth/mth'
p343
sa(dp344
g2
S'http://www.reuters.com/article/2014/05/19/brazil-worldcup-test-idUSL1N0O40GN20140519'
p345
sg4
S'20140518\xc2\xa08:04PM UTC'
p346
sg6
S'Brazilian stadium holds first test ahead of World Cup opener'
p347
sa(dp348
g2
S'http://www.reuters.com/article/2014/05/19/us-turkey-mine-idUSBREA4H04320140519'
p349
sg4
S'20140518\xc2\xa08:03PM UTC'
p350
sg6
S'Turkey keeps three suspects in custody in mine disaster probe'
p351
sa(dp352
g2
S'http://www.reuters.com/article/2014/05/19/us-japan-summit-speakers-factbox-idUSBREA4I00120140519'
p353
sg4
S'20140518\xc2\xa08:02PM UTC'
p354
sg6
S'Factbox: Speakers at Reuters Japan Investment Summit'
p355
sa(dp356
g2
S'http://www.reuters.com/article/2014/05/19/diary-emrg-econ-idUSL3N0O247020140519'
p357
sg4
S'20140518\xc2\xa08:02PM UTC'
p358
sg6
S'DIARY - Emerging Markets Economic Events to May 29'
p359
sa(dp360
g2
S'http://www.reuters.com/article/2014/05/19/us-nba-playoffs-pacers-idUSKBN0DY0QM20140519'
p361
sg4
S'20140518\xc2\xa08:01PM UTC'
p362
sg6
S'George sparks Pacers to Game One win over Heat'
p363
sa(dp364
g2
S'http://www.reuters.com/article/2014/05/19/britain-press-business-idUSL3N0O40UN20140519'
p365
sg4
S'20140518\xc2\xa08:01PM UTC'
p366
sg6
S'PRESS DIGEST- British Business - May 19'
p367
sa(dp368
g2
S'http://www.reuters.com/article/2014/05/19/diary-top-econ-idUSL3N0O246O20140519'
p369
sg4
S'20140518\xc2\xa08:01PM UTC'
p370
sg6
S'DIARY - Top Economic Events to May 29'
p371
sa(dp372
g2
S'http://www.reuters.com/article/2014/05/19/idUSnMKWX67SLa+1e6+MKW20140519'
p373
sg4
S'20140518\xc2\xa08:00PM UTC'
p374
sg6
S"Acquisition of an Interest in Foster Moore International Limited Expands Teranet's Strategic Offerings"
p375
sa(dp376
g2
S'http://www.reuters.com/article/2014/05/19/idUSnCCN81LN5v+1cc+MKW20140519'
p377
sg4
S'20140518\xc2\xa08:00PM UTC'
p378
sg6
S"Acquisition of an Interest in Foster Moore International Limited Expands Teranet's Strategic Offerings"
p379
sa(dp380
g2
S'http://www.reuters.com/article/2014/05/19/ca-guidewire-software-idUSnBw185052a+100+BSW20140519'
p381
sg4
S'20140518\xc2\xa08:00PM UTC'
p382
sg6
S'Mitsui Direct Deploys Guidewire System for Claims Management'
p383
sa(dp384
g2
S'http://www.reuters.com/article/2014/05/18/us-japan-economy-machinery-idUSBREA4H0CC20140518'
p385
sg4
S'20140518\xc2\xa07:59PM UTC'
p386
sg6
S'Japan March core machinery orders jump 19.1 percent month-on-month'
p387
sa(dp388
g2
S'http://www.reuters.com/article/2014/05/18/astrazeneca-pfizer-idUSL6N0O413J20140518'
p389
sg4
S'20140518\xc2\xa07:58PM UTC'
p390
sg6
S'UPDATE 4-Pfizer raises bid for AstraZeneca to $117 billion'
p391
sa(dp392
g2
S'http://www.reuters.com/article/2014/05/18/japan-economy-machinery-idUST9N0N205G20140518'
p393
sg4
S'20140518\xc2\xa07:57PM UTC'
p394
sg6
S'Japan March core machinery orders jump 19.1 pct mth/mth'
p395
sa(dp396
g2
S'http://www.reuters.com/article/2014/05/18/us-france-kerviel-idUSBREA4H09520140518'
p397
sg4
S'20140518\xc2\xa07:57PM UTC'
p398
sg6
S'Convicted rogue trader Kerviel arrested in southern France'
p399
sa(dp400
g2
S'http://www.reuters.com/article/2014/05/18/us-golf-pga-idUSKBN0DY0QC20140518'
p401
sg4
S'20140518\xc2\xa07:55PM UTC'
p402
sg6
S'Todd clinches first PGA Tour victory in style'
p403
sa(dp404
g2
S'http://www.reuters.com/article/2014/05/18/bbo-dodgers-diamondbacks-recap-idUSMTZEA5JSM7PJ320140518'
p405
sg4
S'20140518\xc2\xa07:44PM UTC'
p406
sg6
S'Diamondbacks 5, Dodgers 3'
p407
sa(dp408
g2
S'http://www.reuters.com/article/2014/05/18/us-markets-forex-idUSBREA330R620140518'
p409
sg4
S'20140518\xc2\xa07:40PM UTC'
p410
sg6
S'Euro off to subdued start, PMIs in focus this week'
p411
sa(dp412
g2
S'http://www.reuters.com/article/2014/05/18/bkn-heat-pacers-recap-idUSMTZEA5ISJCTX520140518'
p413
sg4
S'20140518\xc2\xa07:40PM UTC'
p414
sg6
S'Pacers 107, Heat 96'
p415
sa(dp416
g2
S'http://www.reuters.com/article/2014/05/18/us-cisco-systems-nsa-idUSBREA4H0C720140518'
p417
sg4
S'20140518\xc2\xa07:40PM UTC'
p418
sg6
S'Cisco chief urges Obama to curb NSA surveillance activity'
p419
sa(dp420
g2
S'http://www.reuters.com/article/2014/05/18/markets-forex-idUSL3N0O40R520140518'
p421
sg4
S'20140518\xc2\xa07:38PM UTC'
p422
sg6
S'FOREX-Euro off to subdued start, PMIs in focus this week'
p423
sa(dp424
g2
S'http://www.reuters.com/article/2014/05/18/cisco-systems-nsa-idUSL1N0O40F420140518'
p425
sg4
S'20140518\xc2\xa07:38PM UTC'
p426
sg6
S'Cisco chief urges Obama to curb NSA surveillance activity'
p427
sa(dp428
g2
S'http://www.reuters.com/article/2014/05/18/us-nigeria-violence-idUSBREA4H0AR20140518'
p429
sg4
S'20140518\xc2\xa07:34PM UTC'
p430
sg6
S"Suicide car bomb kills 5 in bar district of north Nigeria's Kano"
p431
sa(dp432
g2
S'http://www.reuters.com/article/2014/05/18/france-kerviel-idUSL6N0O412M20140518'
p433
sg4
S'20140518\xc2\xa07:34PM UTC'
p434
sg6
S'UPDATE 2-Convicted rogue trader Kerviel arrested in southern France'
p435
sa(dp436
g2
S'http://www.reuters.com/article/2014/05/18/us-japan-economy-tankan-idUSBREA4H0C220140518'
p437
sg4
S'20140518\xc2\xa07:33PM UTC'
p438
sg6
S'Japan business mood hit by tax hike; rebound seen ahead: Reuters Tankan'
p439
sa(dp440
g2
S'http://www.reuters.com/article/2014/05/18/attceo-brief-idUSL1N0O40K320140518'
p441
sg4
S'20140518\xc2\xa07:31PM UTC'
p442
sg6
S'BRIEF-CEO says AT&T; will keep selling video product following merger with DirecTV'
p443
sa(dp444
g2
S'http://www.reuters.com/article/2014/05/18/japan-economy-tankan-idUST9N0N205E20140518'
p445
sg4
S'20140518\xc2\xa07:30PM UTC'
p446
sg6
S'Japan business mood hit by tax hike; rebound seen ahead -Reuters Tankan'
p447
sa(dp448
g2
S'http://www.reuters.com/article/2014/05/18/nv-icsc-idUSnBw185040a+100+BSW20140518'
p449
sg4
S'20140518\xc2\xa07:30PM UTC'
p450
sg6
S'City Creek Center Wins VIVA Best-of-the-Best Award from ICSC'
p451
sa(dp452
g2
S'http://www.reuters.com/article/2014/05/18/hkn-kings-blackhawks-writethru-idUSMTZEA5ISIKHVS20140518'
p453
sg4
S'20140518\xc2\xa07:29PM UTC'
p454
sg6
S'Blackhawks take Game 1 vs. Kings'
p455
sa(dp456
g2
S'http://www.reuters.com/article/2014/05/18/us-boxoffice-idUSKBN0DY0JQ20140518'
p457
sg4
S'20140518\xc2\xa07:29PM UTC'
p458
sg6
S"'Godzilla' tramples rivals with monster $93 million debut"
p459
sa(dp460
g2
S'http://www.reuters.com/article/2014/05/18/bbo-rays-angels-recap-idUSMTZEA5ISKP20L20140518'
p461
sg4
S'20140518\xc2\xa07:28PM UTC'
p462
sg6
S'Angels 6, Rays 2'
p463
sa(dp464
g2
S'http://www.reuters.com/article/2014/05/18/us-directv-at-t-idUSKBN0DY0QU20140518'
p465
sg4
S'20140518\xc2\xa07:28PM UTC'
p466
sg6
S'AT&T; to buy DirecTV for $48.5 billion as cellular growth eases'
p467
sa(dp468
g2
S'http://www.reuters.com/article/2014/05/18/us-directv-att-idUSBREA4B0W220140518'
p469
sg4
S'20140518\xc2\xa07:26PM UTC'
p470
sg6
S'AT&T; to buy DirecTV for $48.5 billion as cellular growth eases'
p471
sa(dp472
g2
S'http://www.reuters.com/article/2014/05/18/bbo-bluejays-rangers-writethru-idUSMTZEA5ISJ2QWU20140518'
p473
sg4
S'20140518\xc2\xa07:25PM UTC'
p474
sg6
S'Moreland helps Rangers beat Blue Jays'
p475
sa(dp476
g2
S'http://www.reuters.com/article/2014/05/18/us-motor-racing-brabham-idUSKBN0DY0RK20140518'
p477
sg4
S'20140518\xc2\xa07:25PM UTC'
p478
sg6
S'Former world champion Brabham dead at 88'
p479
sa(dp480
g2
S'http://www.reuters.com/article/2014/05/18/consumerunion-opinion-idUSnPn9rVmj0+88+PRN20140518'
p481
sg4
S'20140518\xc2\xa07:24PM UTC'
p482
sg6
S'Consumers Union on AT&T-DirecTV; deal'
p483
sa(dp484
g2
S'http://www.reuters.com/article/2014/05/18/directv-att-idUSL1N0O40HW20140518'
p485
sg4
S'20140518\xc2\xa07:24PM UTC'
p486
sg6
S'UPDATE 2-AT&T; to buy DirecTV for $48.5 bln as cellular growth eases'
p487
sa(dp488
g2
S'http://www.reuters.com/article/2014/05/18/boxoffice-idUSL1N0O40A320140518'
p489
sg4
S'20140518\xc2\xa07:24PM UTC'
p490
sg6
S"UPDATE 2-'Godzilla' tramples rivals with monster $93 mln debut"
p491
sa(dp492
g2
S'http://www.reuters.com/article/2014/05/18/us-scotland-independence-teens-idUSBREA4H0BY20140518'
p493
sg4
S'20140518\xc2\xa07:22PM UTC'
p494
sg6
S'Teens worried about the economy in an independent Scotland: survey'
p495
sa(dp496
g2
S'http://www.reuters.com/article/2014/05/18/bbo-pirates-yankees-recap-idUSMTZEA5ISDADL020140518'
p497
sg4
S'20140518\xc2\xa07:20PM UTC'
p498
sg6
S'Yankees 4, Pirates 3 (Game 1)'
p499
sa(dp500
g2
S'http://www.reuters.com/article/2014/05/18/us-investmentbank-revenues-idUSBREA4H0BV20140518'
p501
sg4
S'20140518\xc2\xa07:19PM UTC'
p502
sg6
S"Major investment banks' revenue falls 9 percent in first quarter"
p503
sa(dp504
g2
S'http://www.reuters.com/article/2014/05/18/markets-australia-stocks-idUSL3N0O40M820140518'
p505
sg4
S'20140518\xc2\xa07:15PM UTC'
p506
sg6
S'Australia shares seen firmer, base metals tick higher'
p507
sa(dp508
g2
S'http://www.reuters.com/article/2014/05/18/us-libya-violence-idUSBREA4G04A20140518'
p509
sg4
S'20140518\xc2\xa07:15PM UTC'
p510
sg6
S'Gunmen loyal to ex-general storm Libyan parliament, demand suspension'
p511
sa(dp512
g2
S'http://www.reuters.com/article/2014/05/18/us-libya-idUSBREA4H0BT20140518'
p513
sg4
S'20140518\xc2\xa07:15PM UTC'
p514
sg6
S"Unknown attackers fire rockets at Benghazi's airport: security source"
p515
sa(dp516
g2
S'http://www.reuters.com/article/2014/05/18/libya-idUSL6N0O41CD20140518'
p517
sg4
S'20140518\xc2\xa07:14PM UTC'
p518
sg6
S"Unknown attackers fire rockets at Benghazi's airport -security source"
p519
sa(dp520
g2
S'http://www.reuters.com/article/2014/05/18/us-usa-dallas-bodyidentified-idUSBREA4H0BO20140518'
p521
sg4
S'20140518\xc2\xa07:11PM UTC'
p522
sg6
S'Body found in Dallas creek was former assistant police chief'
p523
sa(dp524
g2
S'http://www.reuters.com/article/2014/05/18/bbo-orioles-royals-writethru-idUSMTZEA5ISH31U520140518'
p525
sg4
S'20140518\xc2\xa07:10PM UTC'
p526
sg6
S"Gordon's two 3-run homers push Royals past O's"
p527
sa(dp528
g2
S'http://www.reuters.com/article/2014/05/18/e-aircan-dreamliner-idUSnPn1pDVXK+8f+PRN20140518'
p529
sg4
S'20140518\xc2\xa07:09PM UTC'
p530
sg6
S"Air Canada's Dreamliner Touches Down in Toronto"
p531
sa(dp532
g2
S'http://www.reuters.com/article/2014/05/18/us-britain-housing-idUSBREA4H0BK20140518'
p533
sg4
S'20140518\xc2\xa07:05PM UTC'
p534
sg6
S'Asking prices for British homes hit highest on record in May'
p535
sa(dp536
g2
S'http://www.reuters.com/article/2014/05/18/libya-violence-idUSL6N0O40LW20140518'
p537
sg4
S'20140518\xc2\xa07:04PM UTC'
p538
sg6
S'UPDATE 5-Gunmen loyal to ex-general storm Libyan parliament, demand suspension'
p539
sa(dp540
g2
S'http://www.reuters.com/article/2014/05/18/bbo-braves-cardinals-writethru-idUSMTZEA5ISHVEV320140518'
p541
sg4
S'20140518\xc2\xa07:01PM UTC'
p542
sg6
S'Schafer keys Braves rally vs. Cardinals'
p543
sa(dp544
g2
S'http://www.reuters.com/article/2014/05/18/adc-therapeutics-idUSnBw185051a+100+BSW20140518'
p545
sg4
S'20140518\xc2\xa07:01PM UTC'
p546
sg6
S'ADC Therapeutics to Move Antibody Drug Conjugate ADCT-401 for Prostate Cancer into Human Clinical Trials with Partner MedImmune'
p547
sa(dp548
g2
S'http://www.reuters.com/article/2014/05/18/britain-housing-idUSL6N0O163920140518'
p549
sg4
S'20140518\xc2\xa07:01PM UTC'
p550
sg6
S'Asking prices for British homes hit highest on record in May'
p551
sa(dp552
g2
S'http://www.reuters.com/article/2014/05/18/idUSnCCN9vrRrt+1c4+MKW20140518'
p553
sg4
S'20140518\xc2\xa07:00PM UTC'
p554
sg6
S'More Employers Plan to Hire MBAs and Other Business School Graduates'
p555
sa(dp556
g2
S'http://www.reuters.com/article/2014/05/18/investmentbank-revenues-idUSL6N0O30OY20140518'
p557
sg4
S'20140518\xc2\xa07:00PM UTC'
p558
sg6
S"Major investment banks' revenue falls 9 percent in first quarter"
p559
sa(dp560
g2
S'http://www.reuters.com/article/2014/05/18/banks-commodities-idUSL6N0O23BE20140518'
p561
sg4
S'20140518\xc2\xa07:00PM UTC'
p562
sg6
S'Major banks Q1 commodities revenue jumps 26 pct'
p563
sa(dp564
g2
S'http://www.reuters.com/article/2014/05/18/idUSnMKWSzqX5a+1e4+MKW20140518'
p565
sg4
S'20140518\xc2\xa07:00PM UTC'
p566
sg6
S'More Employers Plan to Hire MBAs and Other Business School Graduates'
p567
sa(dp568
g2
S'http://www.reuters.com/article/2014/05/18/us-astrazeneca-pfizer-idUSBREA3R0H520140518'
p569
sg4
S'20140518\xc2\xa06:57PM UTC'
p570
sg6
S'Pfizer raises bid for AstraZeneca to $117 billion'
p571
sa(dp572
g2
S'http://www.reuters.com/article/2014/05/18/bbo-athletics-indians-writethru-idUSMTZEA5ISEFXO520140518'
p573
sg4
S'20140518\xc2\xa06:56PM UTC'
p574
sg6
S"A's complete sweep of Indians with 13-3 rout"
p575
sa(dp576
g2
S'http://www.reuters.com/article/2014/05/18/bbo-mariners-twins-writethru-idUSMTZEA5ISGY3U020140518'
p577
sg4
S'20140518\xc2\xa06:53PM UTC'
p578
sg6
S'Hernandez displays stopper quality as Mariners top Twins'
p579
sa(dp580
g2
S'http://www.reuters.com/article/2014/05/18/bbo-brewers-cubs-writethru-idUSMTZEA5ISGO1TC20140518'
p581
sg4
S'20140518\xc2\xa06:49PM UTC'
p582
sg6
S'Wood pitches Cubs over Brewers'
p583
sa(dp584
g2
S'http://www.reuters.com/article/2014/05/18/ma-blockleviton-dtv-idUSnPnbpx4vz+80+PRN20140518'
p585
sg4
S'20140518\xc2\xa06:49PM UTC'
p586
sg6
S'Block & Leviton LLP Investigates DIRECTV for Possible Breaches of Fiduciary Duty in Connection with Its Proposed Acquisition by AT&T;, Inc.'
p587
sa(dp588
g2
S'http://www.reuters.com/article/2014/05/18/us-att-directv-idUSBREA4H0BH20140518'
p589
sg4
S'20140518\xc2\xa06:44PM UTC'
p590
sg6
S"AT&T; won't pay break-up fee if regulators reject deal: source"
p591
sa(dp592
g2
S'http://www.reuters.com/article/2014/05/18/att-directv-idUSL1N0O40JE20140518'
p593
sg4
S'20140518\xc2\xa06:44PM UTC'
p594
sg6
S"AT&T; won't pay break-up fee if regulators reject deal-source"
p595
sa(dp596
g2
S'http://www.reuters.com/article/2014/05/18/bbo-whitesox-astros-writethru-idUSMTZEA5ISG7GRA20140518'
p597
sg4
S'20140518\xc2\xa06:43PM UTC'
p598
sg6
S'Peacock holds strong as Astros top White Sox'
p599
sa(dp600
g2
S'http://www.reuters.com/article/2014/05/18/us-nba-playoffs-pacers-idUSKBN0DY0QM20140518'
p601
sg4
S'20140518\xc2\xa06:43PM UTC'
p602
sg6
S'Pacers down Heat in Game One'
p603
sa(dp604
g2
S'http://www.reuters.com/article/2014/05/18/us-nhl-playoffs-blackhawks-idUSKBN0DY0QK20140518'
p605
sg4
S'20140518\xc2\xa06:39PM UTC'
p606
sg6
S'Blackhawks top Kings to claim Western Conference opener'
p607
sa(dp608
g2
S'http://www.reuters.com/article/2014/05/18/ajc-polishrestitution-idUSnPn4x1qy1+80+PRN20140518'
p609
sg4
S'20140518\xc2\xa06:37PM UTC'
p610
sg6
S'AJC: Polish MP Attacks Holocaust Restitution'
p611
sa(dp612
g2
S'http://www.reuters.com/article/2014/05/18/kahn-swick-foti-idUSnPn8sdXP5+86+PRN20140518'
p613
sg4
S'20140518\xc2\xa06:32PM UTC'
p614
sg6
S'DIRECTV INVESTOR ALERT BY THE FORMER ATTORNEY GENERAL OF LOUISIANA: Kahn Swick & Foti, LLC Investigates Adequacy of Price and Process in Proposed Sale of DIRECTV'
p615
sa(dp616
g2
S'http://www.reuters.com/article/2014/05/18/us-att-directv-factbox-idUSBREA4H0BD20140518'
p617
sg4
S'20140518\xc2\xa06:23PM UTC'
p618
sg6
S"Factbox: A look at AT&T; and DirecTV's businesses"
p619
sa(dp620
g2
S'http://www.reuters.com/article/2014/05/18/us-motorracing-indianapolis-idUSKBN0DY0Q820140518'
p621
sg4
S'20140518\xc2\xa06:21PM UTC'
p622
sg6
S'Carpenter claims second consecutive Indy pole'
p623
sa(dp624
g2
S'http://www.reuters.com/article/2014/05/18/us-space-dragon-idUSKBN0DY0JK20140518'
p625
sg4
S'20140518\xc2\xa06:18PM UTC'
p626
sg6
S'SpaceX Dragon splashes down to Earth from space station'
p627
sa(dp628
g2
S'http://www.reuters.com/article/2014/05/18/bbo-reds-phillies-writethru-idUSMTZEA5ISFBRQC20140518'
p629
sg4
S'20140518\xc2\xa06:14PM UTC'
p630
sg6
S'Phillies beat Reds behind 4 homers'
p631
sa(dp632
g2
S'http://www.reuters.com/article/2014/05/18/space-dragon-idUSL1N0O40HM20140518'
p633
sg4
S'20140518\xc2\xa06:14PM UTC'
p634
sg6
S'UPDATE 1-SpaceX Dragon splashes down to Earth from space station'
p635
sa(dp636
g2
S'http://www.reuters.com/article/2014/05/18/us-greece-vote-idUSBREA4H0AE20140518'
p637
sg4
S'20140518\xc2\xa06:13PM UTC'
p638
sg6
S"Greece's leftist Syriza party fares well in key local races"
p639
sa(dp640
g2
S'http://www.reuters.com/article/2014/05/18/us-mali-fighting-idUSBREA4H09X20140518'
p641
sg4
S'20140518\xc2\xa06:12PM UTC'
p642
sg6
S'Mali sends troops to retake town from Tuareg separatists'
p643
sa(dp644
g2
S'http://www.reuters.com/article/2014/05/18/frontier-silicon-idUSnBw185044a+100+BSW20140518'
p645
sg4
S'20140518\xc2\xa06:00PM UTC'
p646
sg6
S'Frontier Silicon Gains UK Digital Tick Mark Technology Approval'
p647
sa(dp648
g2
S'http://www.reuters.com/article/2014/05/18/us-turkey-mine-idUSBREA4H04320140518'
p649
sg4
S'20140518\xc2\xa05:59PM UTC'
p650
sg6
S'Turkey keeps three suspects in custody in mine disaster probe'
p651
sa(dp652
g2
S'http://www.reuters.com/article/2014/05/18/us-turkey-erdogan-idUSBREA4H0B220140518'
p653
sg4
S'20140518\xc2\xa05:59PM UTC'
p654
sg6
S"Erdogan fracas amid Turkey's mourning betrays growing polarisation"
p655
sa(dp656
g2
S'http://www.reuters.com/article/2014/05/18/vale-integra-idUSL1N0O40IK20140518'
p657
sg4
S'20140518\xc2\xa05:58PM UTC'
p658
sg6
S'RPT-UPDATE 1-Vale to shut money-losing Integra coal mine in Australia'
p659
sa(dp660
g2
S'http://www.reuters.com/article/2014/05/18/nyrstar-australia-idUSL6N0O41AT20140518'
p661
sg4
S'20140518\xc2\xa05:56PM UTC'
p662
sg6
S'RPT-UPDATE 1-Nyrstar agrees funding for Australian lead smelter upgrade'
p663
sa(dp664
g2
S'http://www.reuters.com/article/2014/05/18/turkey-erdogan-idUSL6N0O418I20140518'
p665
sg4
S'20140518\xc2\xa05:56PM UTC'
p666
sg6
S"UPDATE 1-Erdogan fracas amid Turkey's mourning betrays growing polarisation"
p667
sa(dp668
g2
S'http://www.reuters.com/article/2014/05/18/bbo-mets-nationals-writethru-idUSMTZEA5ISEFXO420140518'
p669
sg4
S'20140518\xc2\xa05:55PM UTC'
p670
sg6
S'Zimmermann picks up slack, Nationals beat Mets'
p671
sa(dp672
g2
S'http://www.reuters.com/article/2014/05/18/us-deutsche-bank-newissue-sources-idUSBREA4H07720140518'
p673
sg4
S'20140518\xc2\xa05:49PM UTC'
p674
sg6
S'Deutsche Bank enlists Qatar in $11 billion capital hike'
p675
sa(dp676
g2
S'http://www.reuters.com/article/2014/05/18/us-lockheed-satellite-idUSBREA4H0AV20140518'
p677
sg4
S'20140518\xc2\xa05:47PM UTC'
p678
sg6
S'Exclusive: Lockheed starts final assembly of new U.S. weather satellite'
p679
sa(dp680
g2
S'http://www.reuters.com/article/2014/05/18/deutsche-bank-capital-idUSL6N0O40WU20140518'
p681
sg4
S'20140518\xc2\xa05:41PM UTC'
p682
sg6
S'UPDATE 4-Deutsche Bank enlists Qatar in $11 bln capital hike'
p683
sa(dp684
g2
S'http://www.reuters.com/article/2014/05/18/rio-tinto-idUSL1N0O40HR20140518'
p685
sg4
S'20140518\xc2\xa05:40PM UTC'
p686
sg6
S'RPT-UPDATE 2-CEO says Rio Tinto not shopping assets but would consider offers'
p687
sa(dp688
g2
S'http://www.reuters.com/article/2014/05/18/directv-att-idUSL1N0O40GY20140518'
p689
sg4
S'20140518\xc2\xa05:40PM UTC'
p690
sg6
S'AT&T; agrees to buy DirecTV in $48.5 bln cash and stock deal'
p691
sa(dp692
g2
S'http://www.reuters.com/article/2014/05/18/us-britain-television-bafta-idUSKBN0DY0PE20140518'
p693
sg4
S'20140518\xc2\xa05:31PM UTC'
p694
sg6
S'British \'whodunnit\' drama series "Broadchurch" wins three BAFTAs'
p695
sa(dp696
g2
S'http://www.reuters.com/article/2014/05/18/idUSnMKWc0Sb5a+1c8+MKW20140518'
p697
sg4
S'20140518\xc2\xa05:31PM UTC'
p698
sg6
S'Fortitude Group, Inc. Receives Letter of Intent to Purchase Company'
p699
sa(dp700
g2
S'http://www.reuters.com/article/2014/05/18/us-generalmotors-recall-legal-idUSBREA4H0A020140518'
p701
sg4
S'20140518\xc2\xa05:23PM UTC'
p702
sg6
S"GM legal department under scrutiny in company's recall probe: report"
p703
sa(dp704
g2
S'http://www.reuters.com/article/2014/05/18/britain-television-bafta-idUSL6N0O417D20140518'
p705
sg4
S'20140518\xc2\xa05:17PM UTC'
p706
sg6
S'British \'whodunnit\' drama series "Broadchurch" wins three BAFTAs'
p707
sa(dp708
g2
S'http://www.reuters.com/article/2014/05/18/us-rbs-primeservices-divestiture-idUSBREA4H0AK20140518'
p709
sg4
S'20140518\xc2\xa05:15PM UTC'
p710
sg6
S'RBS to wind down interest-rate trading business'
p711
sa(dp712
g2
S'http://www.reuters.com/article/2014/05/18/rbs-primeservices-divestiture-idUSL3N0O40FL20140518'
p713
sg4
S'20140518\xc2\xa05:14PM UTC'
p714
sg6
S'RBS to wind down interest-rate trading business'
p715
sa(dp716
g2
S'http://www.reuters.com/article/2014/05/18/us-china-economy-property-analysis-idUSBREA4H0AH20140518'
p717
sg4
S'20140518\xc2\xa05:14PM UTC'
p718
sg6
S'China goes local to soften hit from property downturn'
p719
sa(dp720
g2
S'http://www.reuters.com/article/2014/05/18/us-television-aljazeera-berlinger-idUSKBN0DY0P420140518'
p721
sg4
S'20140518\xc2\xa05:13PM UTC'
p722
sg6
S'Al Jazeera America to air series that explores criminal justice system'
p723
sa(dp724
g2
S'http://www.reuters.com/article/2014/05/18/us-australia-spotless-ipo-idUSBREA4H0AB20140518'
p725
sg4
S'20140518\xc2\xa05:04PM UTC'
p726
sg6
S"Australia's Spotless IPO puts spotlight on PEP's bumper returns"
p727
sa(dp728
g2
S'http://www.reuters.com/article/2014/05/18/pfizer-idUSnBw185047a+100+BSW20140518'
p729
sg4
S'20140518\xc2\xa05:03PM UTC'
p730
sg6
S'Pfizer Makes Final Proposal to AstraZeneca'
p731
sa(dp732
g2
S'http://www.reuters.com/article/2014/05/18/intermune-ats-study-idUSnPn4FpsVY+93+PRN20140518'
p733
sg4
S'20140518\xc2\xa05:02PM UTC'
p734
sg6
S'Phase 3 ASCEND Study of Pirfenidone in Idiopathic Pulmonary Fibrosis Presented at American Thoracic Society (ATS) and Published in New England Journal of Medicine'
p735
sa(dp736
g2
S'http://www.reuters.com/article/2014/05/18/boehringer-ingelheim-idUSnBw185008a+100+BSW20140518'
p737
sg4
S'20140518\xc2\xa05:01PM UTC'
p738
sg6
S'IPF Phase III results published in NEJM show nintedanib* slows disease progression'
p739
sa(dp740
g2
S'http://www.reuters.com/article/2014/05/18/gsk-china-corruption-idUSL3N0O40AG20140518'
p741
sg4
S'20140518\xc2\xa05:00PM UTC'
p742
sg6
S'RPT-Big Pharma beware: GSK China case may be just the beginning'
p743
sa(dp744
g2
S'http://www.reuters.com/article/2014/05/18/us-filmfestival-cannes-expendables-idUSKBN0DY0GG20140518'
p745
sg4
S'20140518\xc2\xa05:00PM UTC'
p746
sg6
S"Stallone's 'arthritic' action heroes roll their tanks through Cannes"
p747
sa(dp748
g2
S'http://www.reuters.com/article/2014/05/18/china-privateequity-cdh-idUSL3N0O40CG20140518'
p749
sg4
S'20140518\xc2\xa05:00PM UTC'
p750
sg6
S'RPT-Pulled pork IPO shows China private equity not yet ready for world stage'
p751
sa(dp752
g2
S'http://www.reuters.com/article/2014/05/18/indonesia-nickel-idUSL6N0O02WE20140518'
p753
sg4
S'20140518\xc2\xa05:00PM UTC'
p754
sg6
S'Jakarta jubilant as nickel soars, China plans smelters'
p755
sa(dp756
g2
S'http://www.reuters.com/article/2014/05/18/il-pulmonaryfibrosis-idUSnPntVGNb+4e+PRN20140518'
p757
sg4
S'20140518\xc2\xa05:00PM UTC'
p758
sg6
S'Pulmonary Fibrosis Foundation Offers Clinical Trial Update Webinar'
p759
sa(dp760
g2
S'http://www.reuters.com/article/2014/05/18/australia-spotless-ipo-idUSL3N0NZ2HV20140518'
p761
sg4
S'20140518\xc2\xa05:00PM UTC'
p762
sg6
S"DEALTALK-Australia's Spotless IPO puts spotlight on PEP's bumper returns"
p763
sa(dp764
g2
S'http://www.reuters.com/article/2014/05/18/boehringer-ingelheim-idUSnPn4pRWwm+8c+PRN20140518'
p765
sg4
S'20140518\xc2\xa05:00PM UTC'
p766
sg6
S'Phase 3 INPULSIS\xe2\x84\xa2 Trials Published in the New England Journal of Medicine Show Investigational Nintedanib Slowed Lung Function Loss in People with Idiopathic Pulmonary Fibrosis'
p767
sa(dp768
g2
S'http://www.reuters.com/article/2014/05/18/thailand-economy-gdp-idUSL3N0O01KB20140518'
p769
sg4
S'20140518\xc2\xa05:00PM UTC'
p770
sg6
S'Thai economy probably shrank in Q1, unrest threatens recession'
p771
sa(dp772
g2
S'http://www.reuters.com/article/2014/05/18/tx-att-idUSnBw185046a+100+BSW20140518'
p773
sg4
S'20140518\xc2\xa04:56PM UTC'
p774
sg6
S'AT&T; to Acquire DIRECTV'
p775
sa(dp776
g2
S'http://www.reuters.com/article/2014/05/18/astrazeneca-pfizer-offer-idUSL6N0O418220140518'
p777
sg4
S'20140518\xc2\xa04:52PM UTC'
p778
sg6
S'Pfizer raises offer for AstraZeneca to 55 pounds a share'
p779
sa(dp780
g2
S'http://www.reuters.com/article/2014/05/18/filmfestival-cannes-expendables-pix-tv-u-idUSL6N0O417S20140518'
p781
sg4
S'20140518\xc2\xa04:52PM UTC'
p782
sg6
S'UPDATE 1-Stallone\'s "arthritic" action heroes roll their tanks through Cannes'
p783
sa(dp784
g2
S'http://www.reuters.com/article/2014/05/18/us-colombia-bus-idUSBREA4H0A520140518'
p785
sg4
S'20140518\xc2\xa04:48PM UTC'
p786
sg6
S'As many as 26 Colombian children killed in fire on church bus'
p787
sa(dp788
g2
S'http://www.reuters.com/article/2014/05/18/colombia-bus-idUSL1N0O40FM20140518'
p789
sg4
S'20140518\xc2\xa04:48PM UTC'
p790
sg6
S'As many as 26 Colombian children killed in fire on church bus'
p791
sa(dp792
g2
S'http://www.reuters.com/article/2014/05/18/redbullairforceny-idUSnPn1fpMXl+86+PRN20140518'
p793
sg4
S'20140518\xc2\xa04:44PM UTC'
p794
sg6
S"World's Top Wingsuit Athletes Fly Over Manhattan Skyline"
p795
sa(dp796
g2
S'http://www.reuters.com/article/2014/05/18/us-balkans-flood-idUSBREA4H04B20140518'
p797
sg4
S'20140518\xc2\xa04:44PM UTC'
p798
sg6
S'Balkans flooding threatens Serbia power plants, 37 dead'
p799
sa(dp800
g2
S'http://www.reuters.com/article/2014/05/18/generalmotors-recall-legal-idUSL1N0O40DB20140518'
p801
sg4
S'20140518\xc2\xa04:39PM UTC'
p802
sg6
S"GM legal department under scrutiny in company's recall probe -report"
p803
sa(dp804
g2
S'http://www.reuters.com/article/2014/05/18/energy-gasoline-idUSL1N0O20RT20140518'
p805
sg4
S'20140518\xc2\xa04:39PM UTC'
p806
sg6
S'U.S. gasoline prices fell 3.5 cents in past 2 weeks -Lundberg'
p807
sa(dp808
g2
S'http://www.reuters.com/article/2014/05/18/us-filmfestival-cannes-idUSKBN0DY0GC20140518'
p809
sg4
S'20140518\xc2\xa04:36PM UTC'
p810
sg6
S'Hollywood goes dark, Western goes east at Cannes'
p811
sa(dp812
g2
S'http://www.reuters.com/article/2014/05/18/us-libya-violence-statement-idUSBREA4H09V20140518'
p813
sg4
S'20140518\xc2\xa04:27PM UTC'
p814
sg6
S'Forces of renegade Libyan general demand parliament hand over power'
p815
sa(dp816
g2
S'http://www.reuters.com/article/2014/05/18/us-soccer-world-france-mandanda-idUSKBN0DY0B520140518'
p817
sg4
S'20140518\xc2\xa04:25PM UTC'
p818
sg6
S'Mandanda ruled out of World Cup with neck injury'
p819
sa(dp820
g2
S'http://www.reuters.com/article/2014/05/18/filmfestival-cannes-idUSL6N0O414X20140518'
p821
sg4
S'20140518\xc2\xa04:24PM UTC'
p822
sg6
S'UPDATE 1-Hollywood goes dark, Western goes east at Cannes'
p823
sa(dp824
g2
S'http://www.reuters.com/article/2014/05/18/us-sri-lanka-war-celebrations-idUSBREA4H09B20140518'
p825
sg4
S'20140518\xc2\xa04:20PM UTC'
p826
sg6
S'Tamils say barred from commemorating war dead, Sri Lanka denies'
p827
sa(dp828
g2
S'http://www.reuters.com/article/2014/05/18/us-cycling-california-idUSKBN0DY0OC20140518'
p829
sg4
S'20140518\xc2\xa04:19PM UTC'
p830
sg6
S'Wiggins easily wins Tour of California'
p831
sa(dp832
g2
S'http://www.reuters.com/article/2014/05/18/turkey-mine-idUSL6N0O40E420140518'
p833
sg4
S'20140518\xc2\xa04:16PM UTC'
p834
sg6
S'UPDATE 4-Turkey keeps three suspects in custody in mine disaster probe'
p835
sa(dp836
g2
S'http://www.reuters.com/article/2014/05/18/us-bissau-election-idUSBREA4H09O20140518'
p837
sg4
S'20140518\xc2\xa04:15PM UTC'
p838
sg6
S'Voting ends in Guinea-Bissau post-coup presidential run-off'
p839
sa(dp840
g2
S'http://www.reuters.com/article/2014/05/18/ecb-rates-idUSL6N0O415H20140518'
p841
sg4
S'20140518\xc2\xa04:09PM UTC'
p842
sg6
S"UPDATE 1-ECB's Praet to recommend cutting main rate to 0.15 pct -Spiegel"
p843
sa(dp844
g2
S'http://www.reuters.com/article/2014/05/18/us-usa-coffee-rust-idUSKBN0DY0O320140518'
p845
sg4
S'20140518\xc2\xa04:04PM UTC'
p846
sg6
S'U.S. intensifies fight against coffee rust in Latin America'
p847
sa(dp848
g2
S'http://www.reuters.com/article/2014/05/18/nj-covance-ubs-confer-idUSnPn6CnWLT+97+PRN20140518'
p849
sg4
S'20140518\xc2\xa04:00PM UTC'
p850
sg6
S'Covance to Present at the UBS Global Healthcare Conference'
p851
sa(dp852
g2
S'http://www.reuters.com/article/2014/05/18/dc-nasa-spacex-dragon-idUSnPn9QFPjP+9d+PRN20140518'
p853
sg4
S'20140518\xc2\xa03:48PM UTC'
p854
sg6
S'SpaceX Dragon Spacecraft Returns Critical NASA Science from Space Station'
p855
sa(dp856
g2
S'http://www.reuters.com/article/2014/05/18/us-deutsche-bank-capital-syndicate-idUSBREA4H09K20140518'
p857
sg4
S'20140518\xc2\xa03:47PM UTC'
p858
sg6
S'Deutsche Bank appoints syndicate for rights issue: sources'
p859
sa(dp860
g2
S'http://www.reuters.com/article/2014/05/18/us-club-med-idUSBREA4H09F20140518'
p861
sg4
S'20140518\xc2\xa03:46PM UTC'
p862
sg6
S'Club Med bidder files suit against shareholder Benetton: source'
p863
sa(dp864
g2
S'http://www.reuters.com/article/2014/05/18/deutsche-bank-capital-syndicate-idUSL6N0O415Q20140518'
p865
sg4
S'20140518\xc2\xa03:43PM UTC'
p866
sg6
S'Deutsche Bank appoints syndicate for rights issue - sources'
p867
sa(dp868
g2
S'http://www.reuters.com/article/2014/05/18/club-med-idUSL6N0O414H20140518'
p869
sg4
S'20140518\xc2\xa03:43PM UTC'
p870
sg6
S'Club Med bidder files suit against shareholder Benetton -source'
p871
sa(dp872
g2
S'http://www.reuters.com/article/2014/05/18/us-tennis-rome-men-idUSKBN0DY0LA20140518'
p873
sg4
S'20140518\xc2\xa03:39PM UTC'
p874
sg6
S'Djokovic throws down gauntlet to Nadal with Rome win'
p875
sa(dp876
g2
S'http://www.reuters.com/article/2014/05/18/saudi-petrochemicals-idUSL6N0O414320140518'
p877
sg4
S'20140518\xc2\xa03:38PM UTC'
p878
sg6
S'Saudi Aramco says downstream investments over $100 bln over next decade'
p879
sa(dp880
g2
S'http://www.reuters.com/article/2014/05/18/us-soccer-england-lampard-idUSKBN0DY0NM20140518'
p881
sg4
S'20140518\xc2\xa03:27PM UTC'
p882
sg6
S'Lampard named England vice-captain in Brazil'
p883
sa(dp884
g2
S'http://www.reuters.com/article/2014/05/18/usa-coffee-rust-idUSL1N0O40BV20140518'
p885
sg4
S'20140518\xc2\xa03:27PM UTC'
p886
sg6
S'U.S. intensifies fight against coffee rust in Latin America'
p887
sa(dp888
g2
S'http://www.reuters.com/article/2014/05/18/us-colombia-elections-spying-idUSBREA4H09220140518'
p889
sg4
S'20140518\xc2\xa03:22PM UTC'
p890
sg6
S'Colombia election candidate says Zuluaga should quit race over spying'
p891
sa(dp892
g2
S'http://www.reuters.com/article/2014/05/18/colombia-elections-spying-idUSL1N0O40CB20140518'
p893
sg4
S'20140518\xc2\xa03:20PM UTC'
p894
sg6
S'Colombia election candidate says Zuluaga should quit race over spying'
p895
sa(dp896
g2
S'http://www.reuters.com/article/2014/05/18/us-swiss-vote-idUSBREA4H03E20140518'
p897
sg4
S'20140518\xc2\xa03:15PM UTC'
p898
sg6
S"Swiss voters reject world's highest minimum wage, block fighter jets"
p899
sa(dp900
g2
S'http://www.reuters.com/article/2014/05/18/us-turkey-mine-prosecutor-idUSBREA4H08Y20140518'
p901
sg4
S'20140518\xc2\xa03:06PM UTC'
p902
sg6
S'Three suspects remanded in custody in Turkey mine investigation'
p903
sa(dp904
g2
S'http://www.reuters.com/article/2014/05/18/us-facebook-apps-idUSBREA4H08T20140518'
p905
sg4
S'20140518\xc2\xa03:06PM UTC'
p906
sg6
S'Facebook developing video-chat app to rival Snapchat: FT'
p907
sa(dp908
g2
S'http://www.reuters.com/article/2014/05/18/turkey-mine-prosecutor-idUSL6N0O414A20140518'
p909
sg4
S'20140518\xc2\xa03:03PM UTC'
p910
sg6
S'Three suspects remanded in custody in Turkey mine investigation'
p911
sa(dp912
g2
S'http://www.reuters.com/article/2014/05/18/facebook-apps-idUSL1N0O40DI20140518'
p913
sg4
S'20140518\xc2\xa03:03PM UTC'
p914
sg6
S'Facebook developing video-chat app to rival Snapchat -FT'
p915
sa(dp916
g2
S'http://www.reuters.com/article/2014/05/18/ca-rentrak-box-office-idUSnPn9GL9Z8+9a+PRN20140518'
p917
sg4
S'20140518\xc2\xa03:02PM UTC'
p918
sg6
S'Rentrak Announces Worldwide Box Office Results for Weekend of May 18, 2014'
p919
sa(dp920
g2
S'http://www.reuters.com/article/2014/05/18/us-horseracing-preakness-idUSKBN0DY0N220140518'
p921
sg4
S'20140518\xc2\xa02:57PM UTC'
p922
sg6
S'California Chrome wants nasal ruling for Belmont'
p923
sa(dp924
g2
S'http://www.reuters.com/article/2014/05/18/swiss-vote-idUSL6N0O40EB20140518'
p925
sg4
S'20140518\xc2\xa02:56PM UTC'
p926
sg6
S"UPDATE 3-Swiss voters reject world's highest minimum wage, block fighter jets"
p927
sa(dp928
g2
S'http://www.reuters.com/article/2014/05/18/idUSnMKWJDpfBa+1f2+MKW20140518'
p929
sg4
S'20140518\xc2\xa02:53PM UTC'
p930
sg6
S'Scotiabank Blue Nose Marathon Sets Records'
p931
sa(dp932
g2
S'http://www.reuters.com/article/2014/05/18/us-intel-chips-idUSBREA4H08P20140518'
p933
sg4
S'20140518\xc2\xa02:50PM UTC'
p934
sg6
S'Exclusive: Intel CEO promises Broadwell PCs on shelves for holidays'
p935
sa(dp936
g2
S'http://www.reuters.com/article/2014/05/18/us-pfizer-astrazeneca-idUSBREA4H08M20140518'
p937
sg4
S'20140518\xc2\xa02:27PM UTC'
p938
sg6
S'Pfizer planning to make sweetened bid for AstraZeneca PLC: WSJ'
p939
sa(dp940
g2
S'http://www.reuters.com/article/2014/05/18/us-usa-wildfires-california-idUSBREA4E0V920140518'
p941
sg4
S'20140518\xc2\xa02:26PM UTC'
p942
sg6
S'California fire crews subdue San Diego-area wildfires'
p943
sa(dp944
g2
S'http://www.reuters.com/article/2014/05/18/pfizer-astrazeneca-idUSL1N0O40CP20140518'
p945
sg4
S'20140518\xc2\xa02:26PM UTC'
p946
sg6
S'Pfizer planning to make sweetened bid for AstraZeneca PLC: WSJ'
p947
sa(dp948
g2
S'http://www.reuters.com/article/2014/05/18/usa-wildfires-california-idUSL1N0O40BH20140518'
p949
sg4
S'20140518\xc2\xa02:25PM UTC'
p950
sg6
S'California fire crews subdue San Diego-area wildfires'
p951
sa(dp952
g2
S'http://www.reuters.com/article/2014/05/18/boxoffice-chart-idUSL3N0O301K20140518'
p953
sg4
S'20140518\xc2\xa02:25PM UTC'
p954
sg6
S'The top films at the North American box office'
p955
sa(dp956
g2
S'http://www.reuters.com/article/2014/05/18/us-ukraine-crisis-crimea-tatars-idUSBREA4H06S20140518'
p957
sg4
S'20140518\xc2\xa02:13PM UTC'
p958
sg6
S'Crimean Tatars commemorate Soviet deportation despite ban'
p959
sa(dp960
g2
S'http://www.reuters.com/article/2014/05/18/us-ukraine-crisis-nato-idUSBREA4H08D20140518'
p961
sg4
S'20140518\xc2\xa02:13PM UTC'
p962
sg6
S'Hard for NATO to defend Baltic states from Russia: Spiegel'
p963
sa(dp964
g2
S'http://www.reuters.com/article/2014/05/18/ukraine-crisis-nato-idUSL6N0O412A20140518'
p965
sg4
S'20140518\xc2\xa02:09PM UTC'
p966
sg6
S'Hard for NATO to defend Baltic states from Russia - Spiegel'
p967
sa(dp968
g2
S'http://www.reuters.com/article/2014/05/18/elbit-systems-correct-idUSnPn4844ZV+83+PRN20140518'
p969
sg4
S'20140518\xc2\xa02:03PM UTC'
p970
sg6
S'Correction: Elbit Systems Ltd.'
p971
sa(dp972
g2
S'http://www.reuters.com/article/2014/05/18/deutsche-bank-newissues-statement-idUSWEB00NEC20140518'
p973
sg4
S'20140518\xc2\xa02:00PM UTC'
p974
sg6
S'Deutsche Bank prepares 8 bln euro capital hike, Qatar to take stake'
p975
sa(dp976
g2
S'http://www.reuters.com/article/2014/05/18/aua-testosterone-idUSnPn2YG5dB+99+PRN20140518'
p977
sg4
S'20140518\xc2\xa02:00PM UTC'
p978
sg6
S'New Studies Highlight Benefits, Risks of Testosterone Therapy'
p979
sa(dp980
g2
S'http://www.reuters.com/article/2014/05/18/britain-charts-idUSL6N0O40U520140518'
p981
sg4
S'20140518\xc2\xa02:00PM UTC'
p982
sg6
S'Michael Jackson tops British chart with posthumous album "Xscape"'
p983
sa(dp984
g2
S'http://www.reuters.com/article/2014/05/18/us-ice-hockey-world-idUSKBN0DY0MA20140518'
p985
sg4
S'20140518\xc2\xa01:58PM UTC'
p986
sg6
S'Canada top group and U.S. reach quarters'
p987
sa(dp988
g2
S'http://www.reuters.com/article/2014/05/18/us-egypt-courts-brotherhood-idUSBREA4H04020140518'
p989
sg4
S'20140518\xc2\xa01:57PM UTC'
p990
sg6
S'Egypt court jails more than 160 Brotherhood supporters'
p991
sa(dp992
g2
S'http://www.reuters.com/article/2014/05/18/us-usa-politics-idaho-idUSBREA4H04G20140518'
p993
sg4
S'20140518\xc2\xa01:48PM UTC'
p994
sg6
S"With ads and foot soldiers, Republican 'establishment' squeezes Tea Party"
p995
sa(dp996
g2
S'http://www.reuters.com/article/2014/05/18/fl-sony-reach3d-idUSnPnCH5mK+59+PRN20140518'
p997
sg4
S'20140518\xc2\xa01:46PM UTC'
p998
sg6
S'REACH3D Teams With Sony Medical To Simplify 3D Display And Recording For Endoscopic Applications'
p999
sa(dp1000
g2
S'http://www.reuters.com/article/2014/05/18/us-alstom-siemens-exclusive-idUSBREA4H06Y20140518'
p1001
sg4
S'20140518\xc2\xa01:39PM UTC'
p1002
sg6
S'Exclusive: Siemens seen making formal Alstom bid as early as this week'
p1003
sa(dp1004
g2
S'http://www.reuters.com/article/2014/05/18/boeing-labor-cameras-idUSL1N0O21V520140518'
p1005
sg4
S'20140518\xc2\xa01:34PM UTC'
p1006
sg6
S"U.S. NLRB's Boeing decision puts focus on cameras in workplace"
p1007
sa(dp1008
g2
S'http://www.reuters.com/article/2014/05/18/us-greece-vote-idUSBREA4H07X20140518'
p1009
sg4
S'20140518\xc2\xa01:30PM UTC'
p1010
sg6
S"Exit polls show Greece's far-left Syriza leading in local vote"
p1011
sa(dp1012
g2
S'http://www.reuters.com/article/2014/05/18/us-deutsche-bank-newissues-qatar-idUSBREA4H07V20140518'
p1013
sg4
S'20140518\xc2\xa01:28PM UTC'
p1014
sg6
S'Qatar to take Deutsche Bank stake as part of cap increase: sources'
p1015
sa(dp1016
g2
S'http://www.reuters.com/article/2014/05/18/us-usa-veterans-idUSBREA4H07P20140518'
p1017
sg4
S'20140518\xc2\xa01:27PM UTC'
p1018
sg6
S"Top aide says Obama 'madder than hell' about veterans allegations"
p1019
sa(dp1020
g2
S'http://www.reuters.com/article/2014/05/18/deutsche-bank-newissues-qatar-idUSL6N0O40ZS20140518'
p1021
sg4
S'20140518\xc2\xa01:25PM UTC'
p1022
sg6
S'Qatar to take Deutsche Bank stake as part of cap increase -sources'
p1023
sa(dp1024
g2
S'http://www.reuters.com/article/2014/05/18/ca-perion-network-idUSnBw185038a+100+BSW20140518'
p1025
sg4
S'20140518\xc2\xa01:23PM UTC'
p1026
sg6
S'Perion Files Shelf Prospectus in Israel'
p1027
sa(dp1028
g2
S'http://www.reuters.com/article/2014/05/18/usa-stocks-weekahead-idUSL1N0O21ZE20140518'
p1029
sg4
S'20140518\xc2\xa01:20PM UTC'
p1030
sg6
S"RPT-Wall St Week Ahead-Don't leave small-cap stocks for dead"
p1031
sa(dp1032
g2
S'http://www.reuters.com/article/2014/05/18/us-bissau-election-idUSBREA4H07L20140518'
p1033
sg4
S'20140518\xc2\xa01:15PM UTC'
p1034
sg6
S'Guinea-Bissau votes in post-coup presidential run-off'
p1035
sa(dp1036
g2
S'http://www.reuters.com/article/2014/05/18/umbian-u-sleep-ca-idUSnPn2v4Mk1+84+PRN20140518'
p1037
sg4
S'20140518\xc2\xa01:15PM UTC'
p1038
sg6
S'U-Sleep Automated Messaging System Reduces Coaching Labor and Improves Compliance among Sleep Apnea Patients, New Study Says'
p1039
sa(dp1040
g2
S'http://www.reuters.com/article/2014/05/18/usa-veterans-idUSL1N0O40AQ20140518'
p1041
sg4
S'20140518\xc2\xa01:12PM UTC'
p1042
sg6
S"Top aide says Obama 'madder than hell' about veterans allegations"
p1043
sa(dp1044
g2
S'http://www.reuters.com/article/2014/05/18/us-golf-european-idUSKBN0DY0L220140518'
p1045
sg4
S'20140518\xc2\xa01:10PM UTC'
p1046
sg6
S'Jimenez becomes first 50-year-old European Tour winner'
p1047
sa(dp1048
g2
S'http://www.reuters.com/article/2014/05/18/saab-idUSnBw185037a+100+BSW20140518'
p1049
sg4
S'20140518\xc2\xa01:10PM UTC'
p1050
sg6
S'Saab: Result in Swiss Referendum Announced'
p1051
sa(dp1052
g2
S'http://www.reuters.com/article/2014/05/18/idUSnGNX1tR6XG+1cb+GNW20140518'
p1053
sg4
S'20140518\xc2\xa01:03PM UTC'
p1054
sg6
S'Alamo Capital is the Distribution Agent on the new California Municipal Finance Authority Mobile Home Park Senior Revenue Bonds'
p1055
sa(dp1056
g2
S'http://www.reuters.com/article/2014/05/18/bbo-angels-playerwatch-idUSMTZEA5IS4LPCE20140518'
p1057
sg4
S'20140518\xc2\xa01:01PM UTC'
p1058
sg6
S'Los Angeles Angels - PlayerWatch'
p1059
sa(dp1060
g2
S'http://www.reuters.com/article/2014/05/18/bbo-whitesox-playerwatch-idUSMTZEA5IS4LQD220140518'
p1061
sg4
S'20140518\xc2\xa01:01PM UTC'
p1062
sg6
S'Chicago White Sox - PlayerWatch'
p1063
sa(dp1064
g2
S'http://www.reuters.com/article/2014/05/18/bbo-diamondbacks-playerwatch-idUSMTZEA5IS4LQCR20140518'
p1065
sg4
S'20140518\xc2\xa01:01PM UTC'
p1066
sg6
S'Arizona Diamondbacks - PlayerWatch'
p1067
sa(dp1068
g2
S'http://www.reuters.com/article/2014/05/18/bbo-royals-playerwatch-idUSMTZEA5IS4LQD120140518'
p1069
sg4
S'20140518\xc2\xa01:01PM UTC'
p1070
sg6
S'Kansas City Royals - PlayerWatch'
p1071
sa(dp1072
g2
S'http://www.reuters.com/article/2014/05/18/bbo-brewers-playerwatch-idUSMTZEA5IS4LQCP20140518'
p1073
sg4
S'20140518\xc2\xa01:01PM UTC'
p1074
sg6
S'Milwaukee Brewers - PlayerWatch'
p1075
sa(dp1076
g2
S'http://www.reuters.com/article/2014/05/18/bbo-rays-playerwatch-idUSMTZEA5IS4LQD020140518'
p1077
sg4
S'20140518\xc2\xa01:01PM UTC'
p1078
sg6
S'Tampa Bay Rays - PlayerWatch'
p1079
sa(dp1080
g2
S'http://www.reuters.com/article/2014/05/18/bbo-reds-playerwatch-idUSMTZEA5IS4LQCO20140518'
p1081
sg4
S'20140518\xc2\xa01:01PM UTC'
p1082
sg6
S'Cincinnati Reds - PlayerWatch'
p1083
sa(dp1084
g2
S'http://www.reuters.com/article/2014/05/18/bbo-orioles-playerwatch-idUSMTZEA5IS4LQCZ20140518'
p1085
sg4
S'20140518\xc2\xa01:01PM UTC'
p1086
sg6
S'Baltimore Orioles - PlayerWatch'
p1087
sa(dp1088
g2
S'http://www.reuters.com/article/2014/05/18/bbo-cubs-playerwatch-idUSMTZEA5IS4LQCN20140518'
p1089
sg4
S'20140518\xc2\xa01:01PM UTC'
p1090
sg6
S'Chicago Cubs - PlayerWatch'
p1091
sa(dp1092
g2
S'http://www.reuters.com/article/2014/05/18/bbo-bluejays-playerwatch-idUSMTZEA5IS4LQCY20140518'
p1093
sg4
S'20140518\xc2\xa01:01PM UTC'
p1094
sg6
S'Toronto Blue Jays - PlayerWatch'
p1095
sa(dp1096
g2
S'http://www.reuters.com/article/2014/05/18/bbo-cardinals-playerwatch-idUSMTZEA5IS4LQCM20140518'
p1097
sg4
S'20140518\xc2\xa01:01PM UTC'
p1098
sg6
S'St. Louis Cardinals - PlayerWatch'
p1099
sa(dp1100
g2
S'http://www.reuters.com/article/2014/05/18/bbo-redsox-playerwatch-idUSMTZEA5IS4LQCX20140518'
p1101
sg4
S'20140518\xc2\xa01:01PM UTC'
p1102
sg6
S'Boston Red Sox - PlayerWatch'
p1103
sa(dp1104
g2
S'http://www.reuters.com/article/2014/05/18/bbo-astros-playerwatch-idUSMTZEA5IS4LQCL20140518'
p1105
sg4
S'20140518\xc2\xa01:01PM UTC'
p1106
sg6
S'Houston Astros - PlayerWatch'
p1107
sa(dp1108
g2
S'http://www.reuters.com/article/2014/05/18/bbo-pirates-playerwatch-idUSMTZEA5IS4LQCW20140518'
p1109
sg4
S'20140518\xc2\xa01:01PM UTC'
p1110
sg6
S'Pittsburgh Pirates - PlayerWatch'
p1111
sa(dp1112
g2
S'http://www.reuters.com/article/2014/05/18/bbo-nationals-playerwatch-idUSMTZEA5IS4LQCJ20140518'
p1113
sg4
S'20140518\xc2\xa01:01PM UTC'
p1114
sg6
S'Washington Nationals - PlayerWatch'
p1115
sa(dp1116
g2
S'http://www.reuters.com/article/2014/05/18/bbo-mets-playerwatch-idUSMTZEA5IS4LQCK20140518'
p1117
sg4
S'20140518\xc2\xa01:01PM UTC'
p1118
sg6
S'New York Mets - PlayerWatch'
p1119
sa(dp1120
g2
S'http://www.reuters.com/article/2014/05/18/bbo-padres-playerwatch-idUSMTZEA5IS4LQCV20140518'
p1121
sg4
S'20140518\xc2\xa01:01PM UTC'
p1122
sg6
S'San Diego Padres - PlayerWatch'
p1123
sa(dp1124
g2
S'http://www.reuters.com/article/2014/05/18/bbo-phillies-playerwatch-idUSMTZEA5IS4LQCH20140518'
p1125
sg4
S'20140518\xc2\xa01:01PM UTC'
p1126
sg6
S'Philadelphia Phillies - PlayerWatch'
p1127
sa(dp1128
g2
S'http://www.reuters.com/article/2014/05/18/bbo-rockies-playerwatch-idUSMTZEA5IS4LQCU20140518'
p1129
sg4
S'20140518\xc2\xa01:01PM UTC'
p1130
sg6
S'Colorado Rockies - PlayerWatch'
p1131
sa(dp1132
g2
S'http://www.reuters.com/article/2014/05/18/bbo-braves-playerwatch-idUSMTZEA5IS4LQCG20140518'
p1133
sg4
S'20140518\xc2\xa01:01PM UTC'
p1134
sg6
S'Atlanta Braves - PlayerWatch'
p1135
sa(dp1136
g2
S'http://www.reuters.com/article/2014/05/18/bbo-yankees-playerwatch-idUSMTZEA5IS4LQCT20140518'
p1137
sg4
S'20140518\xc2\xa01:01PM UTC'
p1138
sg6
S'New York Yankees - PlayerWatch'
p1139
sa(dp1140
g2
S'http://www.reuters.com/article/2014/05/18/bbo-rangers-playerwatch-idUSMTZEA5IS4LQCF20140518'
p1141
sg4
S'20140518\xc2\xa01:01PM UTC'
p1142
sg6
S'Texas Rangers - PlayerWatch'
p1143
sa(dp1144
g2
S'http://www.reuters.com/article/2014/05/18/bbo-dodgers-playerwatch-idUSMTZEA5IS4LQCS20140518'
p1145
sg4
S'20140518\xc2\xa01:01PM UTC'
p1146
sg6
S'Los Angeles Dodgers - PlayerWatch'
p1147
sa(dp1148
g2
S'http://www.reuters.com/article/2014/05/18/bbo-athletics-playerwatch-idUSMTZEA5IS4LPCD20140518'
p1149
sg4
S'20140518\xc2\xa01:01PM UTC'
p1150
sg6
S'Oakland Athletics - PlayerWatch'
p1151
sa(dp1152
g2
S'http://www.reuters.com/article/2014/05/18/bbo-tigers-playerwatch-idUSMTZEA5IS4LPCC20140518'
p1153
sg4
S'20140518\xc2\xa01:01PM UTC'
p1154
sg6
S'Detroit Tigers - PlayerWatch'
p1155
sa(dp1156
g2
S'http://www.reuters.com/article/2014/05/18/bbo-indians-playerwatch-idUSMTZEA5IS4LPCB20140518'
p1157
sg4
S'20140518\xc2\xa01:01PM UTC'
p1158
sg6
S'Cleveland Indians - PlayerWatch'
p1159
sa(dp1160
g2
S'http://www.reuters.com/article/2014/05/18/aua-dogs-cancer-idUSnPn8FHt02+98+PRN20140518'
p1161
sg4
S'20140518\xc2\xa01:00PM UTC'
p1162
sg6
S'Dogs Detect Prostate Cancer in Men at a Remarkably High Rate of Accuracy'
p1163
sa(dp1164
g2
S'http://www.reuters.com/article/2014/05/18/nh-mount-washington-idUSnBw185012a+100+BSW20140518'
p1165
sg4
S'20140518\xc2\xa01:00PM UTC'
p1166
sg6
S'Mount Washington College Celebrates More Than 500 Graduates at Its 113th Commencement'
p1167
sa(dp1168
g2
S'http://www.reuters.com/article/2014/05/18/bc-icl-idUSnPn548Hgf+84+PRN20140518'
p1169
sg4
S'20140518\xc2\xa012:50PM UTC'
p1170
sg6
S"ICL's Comment to Sheshinski Interim Recommendation: The Commission's Interim Recommendations Might Force ICL to Stop Investing in Israel and Focus on Cost Cutting"
p1171
sa(dp1172
g2
S'http://www.reuters.com/article/2014/05/18/us-usa-housing-idUSBREA3N1T820140518'
p1173
sg4
S'20140518\xc2\xa012:44PM UTC'
p1174
sg6
S'U.S. private lenders not ready to replace Fannie, Freddie: regulator'
p1175
sa(dp1176
g2
S'http://www.reuters.com/article/2014/05/18/usa-housing-idUSL1N0O409920140518'
p1177
sg4
S'20140518\xc2\xa012:40PM UTC'
p1178
sg6
S'US private lenders not ready to replace Fannie, Freddie-regulator'
p1179
sa(dp1180
g2
S'http://www.reuters.com/article/2014/05/18/us-sudan-opposition-idUSBREA4H07E20140518'
p1181
sg4
S'20140518\xc2\xa012:38PM UTC'
p1182
sg6
S'Sudan arrests opposition leader al-Mahdi, could face death penalty'
p1183
sa(dp1184
g2
S'http://www.reuters.com/article/2014/05/18/balkans-flood-idUSL6N0O408I20140518'
p1185
sg4
S'20140518\xc2\xa012:32PM UTC'
p1186
sg6
S'UPDATE 3-Balkans flooding threatens Serbia power plants, 37 dead'
p1187
sa(dp1188
g2
S'http://www.reuters.com/article/2014/05/18/us-greece-vote-exit-idUSBREA4H07A20140518'
p1189
sg4
S'20140518\xc2\xa012:31PM UTC'
p1190
sg6
S"Exit polls show strong showing by Greece's Syriza in Athens race"
p1191
sa(dp1192
g2
S'http://www.reuters.com/article/2014/05/18/ny-att-solar-charging-idUSnPnwQvMN+4b+PRN20140518'
p1193
sg4
S'20140518\xc2\xa012:30PM UTC'
p1194
sg6
S'Back By Popular Demand: AT&T; Expands Solar Mobile Charging Initiative To Give New Yorkers A Free Charge All Summer Long'
p1195
sa(dp1196
g2
S'http://www.reuters.com/article/2014/05/18/us-mexico-reforms-idUSBREA4H07420140518'
p1197
sg4
S'20140518\xc2\xa012:19PM UTC'
p1198
sg6
S'Mexican opposition holds leadership vote that may impact reforms'
p1199
sa(dp1200
g2
S'http://www.reuters.com/article/2014/05/18/boxoffice-idUSL1N0O202020140518'
p1201
sg4
S'20140518\xc2\xa012:14PM UTC'
p1202
sg6
S"'Godzilla' tramples rivals with summer season's first monster hit"
p1203
sa(dp1204
g2
S'http://www.reuters.com/article/2014/05/18/ca-fibrogen-idUSnBw185035a+100+BSW20140518'
p1205
sg4
S'20140518\xc2\xa012:14PM UTC'
p1206
sg6
S'FibroGen Announces Phase 2 Data Supporting Longer-Term Safety and Efficacy Profile of FG-3019 in Patients with Idiopathic Pulmonary Fibrosis'
p1207
sa(dp1208
g2
S'http://www.reuters.com/article/2014/05/18/deutsche-bank-newissue-sources-idUSL6N0O40VL20140518'
p1209
sg4
S'20140518\xc2\xa012:09PM UTC'
p1210
sg6
S'Deutsche Bank prepares multi-billion euro share sale -sources'
p1211
sa(dp1212
g2
S'http://www.reuters.com/article/2014/05/18/space-dragon-idUSL1N0O408S20140518'
p1213
sg4
S'20140518\xc2\xa012:06PM UTC'
p1214
sg6
S'SpaceX Dragon capsule leaves space station'
p1215
sa(dp1216
g2
S'http://www.reuters.com/article/2014/05/18/us-johnson-controls-saic-motor-idUSBREA4H05Z20140518'
p1217
sg4
S'20140518\xc2\xa012:04PM UTC'
p1218
sg6
S'Johnson Controls divesting auto interiors business to SAIC JV'
p1219
sa(dp1220
g2
S'http://www.reuters.com/article/2014/05/18/us-syria-crisis-general-idUSBREA4H05F20140518'
p1221
sg4
S'20140518\xc2\xa012:03PM UTC'
p1222
sg6
S'Syria air defense head killed, rebels take northern town'
p1223
sa(dp1224
g2
S'http://www.reuters.com/article/2014/05/18/johnson-controls-saic-motor-idUSL1N0O407E20140518'
p1225
sg4
S'20140518\xc2\xa012:03PM UTC'
p1226
sg6
S'UPDATE 2-Johnson Controls divesting auto interiors business to SAIC JV'
p1227
sa(dp1228
g2
S'http://www.reuters.com/article/2014/05/18/us-usa-politics-clinton-idUSBREA4H06520140518'
p1229
sg4
S'20140518\xc2\xa011:53AM UTC'
p1230
sg6
S"Republican chairman: Clinton's age, health 'fair game'"
p1231
sa(dp1232
g2
S'http://www.reuters.com/article/2014/05/18/deutsche-bank-newissue-idUSL6N0O40SE20140518'
p1233
sg4
S'20140518\xc2\xa011:45AM UTC'
p1234
sg6
S'Deutsche Bank plans 8 billion-euro share sale -report'
p1235
sa(dp1236
g2
S'http://www.reuters.com/article/2014/05/18/mexico-reforms-idUSL1N0O116N20140518'
p1237
sg4
S'20140518\xc2\xa011:34AM UTC'
p1238
sg6
S'Mexican opposition holds leadership vote that may impact reforms'
p1239
sa(dp1240
g2
S'http://www.reuters.com/article/2014/05/18/kuwait-banking-china-idUSL6N0O40IK20140518'
p1241
sg4
S'20140518\xc2\xa011:16AM UTC'
p1242
sg6
S"China's biggest bank gets approval for Kuwait branch"
p1243
sa(dp1244
g2
S'http://www.reuters.com/article/2014/05/18/boeing-celebrates-idUSnPnb7mqSB+83+PRN20140518'
p1245
sg4
S'20140518\xc2\xa011:13AM UTC'
p1246
sg6
S'Boeing, Air Canada Celebrate Delivery of First 787 Dreamliner for Canada'
p1247
sa(dp1248
g2
S'http://www.reuters.com/article/2014/05/18/us-libya-violence-parliament-idUSBREA4H06L20140518'
p1249
sg4
S'20140518\xc2\xa011:06AM UTC'
p1250
sg6
S'Gunmen storm Libyan parliament, raid offices of lawmakers: MP'
p1251
sa(dp1252
g2
S'http://www.reuters.com/article/2014/05/18/us-libya-violence-general-idUSBREA4H06Q20140518'
p1253
sg4
S'20140518\xc2\xa011:06AM UTC'
p1254
sg6
S'Troops of renegade Libyan general say behind attack on parliament'
p1255
sa(dp1256
g2
S'http://www.reuters.com/article/2014/05/18/montepaschi-foundation-idUSL6N0O40B820140518'
p1257
sg4
S'20140518\xc2\xa011:04AM UTC'
p1258
sg6
S'Monte Paschi foundation chairwoman to leave in June -report'
p1259
sa(dp1260
g2
S'http://www.reuters.com/article/2014/05/18/us-mali-fighting-idUSBREA4H03420140518'
p1261
sg4
S'20140518\xc2\xa011:01AM UTC'
p1262
sg6
S"Mali 'at war' after Tuareg separatists abduct 30 civil servants: PM"
p1263
sa(dp1264
g2
S'http://www.reuters.com/article/2014/05/18/idUSnGNX6C7cll+1d0+GNW20140518'
p1265
sg4
S'20140518\xc2\xa011:00AM UTC'
p1266
sg6
S'iMatrix Reveals New Web Marketing Services for Dermatologists'
p1267
sa(dp1268
g2
S'http://www.reuters.com/article/2014/05/18/us-usa-sept11-memorial-idUSBREA4H04J20140518'
p1269
sg4
S'20140518\xc2\xa010:59AM UTC'
p1270
sg6
S"First responders visit New York's September 11 Memorial Museum"
p1271
sa(dp1272
g2
S'http://www.reuters.com/article/2014/05/18/cqn-in-arrow-electronics-idUSnBw185029a+100+BSW20140518'
p1273
sg4
S'20140518\xc2\xa010:58AM UTC'
p1274
sg6
S'CORRECTING and REPLACING Former IndyCar Driver Sam Schmidt Becomes First Individual Ever to Drive on Race Track Semi-Autonomous Motorcar Modified for Individuals with Quadriplegia'
p1275
sa(dp1276
g2
S'http://www.reuters.com/article/2014/05/18/serco-group-inquiry-idUSL6N0O40LC20140518'
p1277
sg4
S'20140518\xc2\xa010:49AM UTC'
p1278
sg6
S'UK opposition seeks inquiry into Serco after sexual assault allegation'
p1279
sa(dp1280
g2
S'http://www.reuters.com/article/2014/05/18/us-libya-violence-parliament-idUSBREA4H06B20140518'
p1281
sg4
S'20140518\xc2\xa010:46AM UTC'
p1282
sg6
S'Gunmen storm Libyan parliament, raid offices of lawmakers: MP'
p1283
sa(dp1284
g2
S'http://www.reuters.com/article/2014/05/18/us-germany-defence-exports-idUSBREA4H06220140518'
p1285
sg4
S'20140518\xc2\xa010:39AM UTC'
p1286
sg6
S'German economy minister pledges to restrict arms exports'
p1287
sa(dp1288
g2
S'http://www.reuters.com/article/2014/05/18/filmfestival-cannes-expendables-idUSL6N0O408T20140518'
p1289
sg4
S'20140518\xc2\xa010:38AM UTC'
p1290
sg6
S'Stallone\'s "arthritic" action heroes roll their tanks through Cannes'
p1291
sa(dp1292
g2
S'http://www.reuters.com/article/2014/05/18/us-italy-politics-idUSBREA4H05W20140518'
p1293
sg4
S'20140518\xc2\xa010:35AM UTC'
p1294
sg6
S"Italy's Renzi faces Grillo challenge ahead of EU election"
p1295
sa(dp1296
g2
S'http://www.reuters.com/article/2014/05/18/aua-sex-side-effects-idUSnPn6wm3Kg+82+PRN20140518'
p1297
sg4
S'20140518\xc2\xa010:30AM UTC'
p1298
sg6
S'Sexual Side Effects of Alpha Blockers and 5-Alpha-Reductase Inhibitors'
p1299
sa(dp1300
g2
S'http://www.reuters.com/article/2014/05/18/filmfestival-cannes-idUSL6N0O40JD20140518'
p1301
sg4
S'20140518\xc2\xa010:28AM UTC'
p1302
sg6
S'At Cannes, Tommy Lee Jones turns the western on its head'
p1303
sa(dp1304
g2
S'http://www.reuters.com/article/2014/05/18/us-iran-nuclear-talks-idUSBREA4H05Q20140518'
p1305
sg4
S'20140518\xc2\xa010:25AM UTC'
p1306
sg6
S'Iran voices tougher line on planned nuclear reactor'
p1307
sa(dp1308
g2
S'http://www.reuters.com/article/2014/05/18/us-tennis-women-rome-idUSKBN0DY0EC20140518'
p1309
sg4
S'20140518\xc2\xa010:25AM UTC'
p1310
sg6
S'Serena triumphs against injured Errani to win Italian Open'
p1311
sa(dp1312
g2
S'http://www.reuters.com/article/2014/05/18/libya-politics-idUSL6N0O40K520140518'
p1313
sg4
S'20140518\xc2\xa010:03AM UTC'
p1314
sg6
S'New Libyan PM forms government, heavy gunfire in Tripoli'
p1315
sa(dp1316
g2
S'http://www.reuters.com/article/2014/05/18/idUSnGNX7vt04Q+1c1+GNW20140518'
p1317
sg4
S'20140518\xc2\xa010:00AM UTC'
p1318
sg6
S'iMatrix Announces Launch of Urology Web Marketing Services'
p1319
sa(dp1320
g2
S'http://www.reuters.com/article/2014/05/18/germany-energy-nuclear-idUSL6N0O40JE20140518'
p1321
sg4
S'20140518\xc2\xa09:59AM UTC'
p1322
sg6
S"Germany's Gabriel says state won't pay for nuclear decommissioning"
p1323
sa(dp1324
g2
S'http://www.reuters.com/article/2014/05/18/mideast-markets-wrap-idUSL6N0O40IU20140518'
p1325
sg4
S'20140518\xc2\xa09:59AM UTC'
p1326
sg6
S'MIDEAST STOCKS-Egypt slips ahead of vote; Arabian Cement surges on debut'
p1327
sa(dp1328
g2
S'http://www.reuters.com/article/2014/05/18/johnson-controls-saic-motor-idUSL1N0O407320140518'
p1329
sg4
S'20140518\xc2\xa09:56AM UTC'
p1330
sg6
S'Johnson Controls divesting auto interiors business to SAIC JV'
p1331
sa(dp1332
g2
S'http://www.reuters.com/article/2014/05/18/us-mergerofequals-idUSBREA4H04N20140518'
p1333
sg4
S'20140518\xc2\xa09:51AM UTC'
p1334
sg6
S"Ad deal collapse busts \xe2\x80\x98merger of equals' myth"
p1335
sa(dp1336
g2
S'http://www.reuters.com/article/2014/05/18/us-brazil-worldcup-legacy-insight-idUSKBN0DY0AR20140518'
p1337
sg4
S'20140518\xc2\xa09:45AM UTC'
p1338
sg6
S'Brazilians left wanting by flawed World Cup investments'
p1339
sa(dp1340
g2
S'http://www.reuters.com/article/2014/05/18/aua-sperm-count-idUSnPn8vZn1T+89+PRN20140518'
p1341
sg4
S'20140518\xc2\xa09:45AM UTC'
p1342
sg6
S'Study Shows Link Between Low Sperm Count, Birth Defects Should Not be of Concern'
p1343
sa(dp1344
g2
S'http://www.reuters.com/article/2014/05/18/us-swiss-vote-gripen-idUSBREA4H05920140518'
p1345
sg4
S'20140518\xc2\xa09:43AM UTC'
p1346
sg6
S'Swiss voters narrowly block deal to buy Saab fighter jets: projection'
p1347
sa(dp1348
g2
S'http://www.reuters.com/article/2014/05/18/us-brazil-worldcup-legacy-insight-idUSBREA4H04S20140518'
p1349
sg4
S'20140518\xc2\xa09:34AM UTC'
p1350
sg6
S'Brazilians left wanting by flawed World Cup investments'
p1351
sa(dp1352
g2
S'http://www.reuters.com/article/2014/05/18/swiss-vote-gripen-idUSL6N0O40IO20140518'
p1353
sg4
S'20140518\xc2\xa09:33AM UTC'
p1354
sg6
S'UPDATE 1-Swiss voters narrowly block deal to buy Saab fighter jets - projection'
p1355
sa(dp1356
g2
S'http://www.reuters.com/article/2014/05/18/czech-bonds-retail-idUSL6N0O40DL20140518'
p1357
sg4
S'20140518\xc2\xa09:08AM UTC'
p1358
sg6
S'Czech ministry plans to sell 5 bln crowns of retail bonds'
p1359
sa(dp1360
g2
S'http://www.reuters.com/article/2014/05/18/idUSnMKWGsb3ja+1e0+MKW20140518'
p1361
sg4
S'20140518\xc2\xa09:00AM UTC'
p1362
sg6
S'Statement by the Honourable Shelly Glover, Minister of Canadian Heritage and Official Languages, on the Occasion of International Museum Day'
p1363
sa(dp1364
g2
S'http://www.reuters.com/article/2014/05/18/johnson-joint-venture-idUSnPn9Qh8ss+90+PRN20140518'
p1365
sg4
S'20140518\xc2\xa09:00AM UTC'
p1366
sg6
S"Johnson Controls and SAIC's Yanfeng Automotive Trim Systems Co., Ltd. form global joint venture for automotive interiors"
p1367
sa(dp1368
g2
S'http://www.reuters.com/article/2014/05/18/us-filmfestival-cannes-hungergames-idUSKBN0DY09L20140518'
p1369
sg4
S'20140518\xc2\xa08:57AM UTC'
p1370
sg6
S'Hunger Games goes on without actor Seymour Hoffman, director says'
p1371
sa(dp1372
g2
S'http://www.reuters.com/article/2014/05/18/swiss-vote-gripen-idUSWEB00NEA20140518'
p1373
sg4
S'20140518\xc2\xa08:52AM UTC'
p1374
sg6
S'Swiss voters narrowly block deal to buy Saab fighter jets - projection'
p1375
sa(dp1376
g2
S'http://www.reuters.com/article/2014/05/18/us-yemen-security-idUSBREA4H04Z20140518'
p1377
sg4
S'20140518\xc2\xa08:43AM UTC'
p1378
sg6
S'Yemeni militant, four aides killed in clashes with army: defense ministry'
p1379
sa(dp1380
g2
S'http://www.reuters.com/article/2014/05/18/us-credit-suisse-investigation-blocher-idUSBREA4H04W20140518'
p1381
sg4
S'20140518\xc2\xa08:37AM UTC'
p1382
sg6
S'Credit Suisse CEO faces more calls to quit in U.S. tax dispute'
p1383
sa(dp1384
g2
S'http://www.reuters.com/article/2014/05/18/britain-pressdigest-idUSL6N0O227E20140518'
p1385
sg4
S'20140518\xc2\xa08:35AM UTC'
p1386
sg6
S'PRESS DIGEST-Sunday British Business  - May 18'
p1387
sa(dp1388
g2
S'http://www.reuters.com/article/2014/05/18/us-health-mers-workers-idUSKBN0DY0BF20140518'
p1389
sg4
S'20140518\xc2\xa08:31AM UTC'
p1390
sg6
S'Foreign doctors, nurses in Saudi Arabia could take MERS global'
p1391
sa(dp1392
g2
S'http://www.reuters.com/article/2014/05/18/astrazeneca-pfizer-idUSL6N0O408J20140518'
p1393
sg4
S'20140518\xc2\xa08:30AM UTC'
p1394
sg6
S'Clock ticking for Pfizer to raise AstraZeneca bid'
p1395
sa(dp1396
g2
S'http://www.reuters.com/article/2014/05/18/aua-children-utis-idUSnPn1k431N+81+PRN20140518'
p1397
sg4
S'20140518\xc2\xa08:30AM UTC'
p1398
sg6
S'Efficacy of Diagnosing, Treating and Managing Febrile Urinary Tract Infections in Children with Vesicoureteral Reflux'
p1399
sa(dp1400
g2
S'http://www.reuters.com/article/2014/05/18/us-brazil-worldcup-legacy-idUSKBN0DY0AP20140518'
p1401
sg4
S'20140518\xc2\xa08:16AM UTC'
p1402
sg6
S'Brazilians left wanting by flawed World Cup investments'
p1403
sa(dp1404
g2
S'http://www.reuters.com/article/2014/05/18/credit-suisse-investigation-blocher-idUSL6N0O40B120140518'
p1405
sg4
S'20140518\xc2\xa08:14AM UTC'
p1406
sg6
S'Credit Suisse CEO faces more calls to quit in U.S. tax dispute'
p1407
sa(dp1408
g2
S'http://www.reuters.com/article/2014/05/18/zoopla-ipo-idUSL6N0O40EH20140518'
p1409
sg4
S'20140518\xc2\xa08:10AM UTC'
p1410
sg6
S'UK property website Zoopla to detail share listing plans - report'
p1411
sa(dp1412
g2
S'http://www.reuters.com/article/2014/05/18/idUSnGNX73M7Ds+1ca+GNW20140518'
p1413
sg4
S'20140518\xc2\xa08:00AM UTC'
p1414
sg6
S'Portage Chiropractor Celebrates 20 Years With Patient Appreciation Day'
p1415
sa(dp1416
g2
S'http://www.reuters.com/article/2014/05/18/health-mers-workers-idUSL1N0NZ0SQ20140518'
p1417
sg4
S'20140518\xc2\xa08:00AM UTC'
p1418
sg6
S'Foreign doctors, nurses in Saudi Arabia could take MERS global'
p1419
sa(dp1420
g2
S'http://www.reuters.com/article/2014/05/18/idUSnMKWlvVl5a+1c8+MKW20140518'
p1421
sg4
S'20140518\xc2\xa08:00AM UTC'
p1422
sg6
S'Cisco Delivers Advanced Traffic Visibility and Control With New WAN Automation Engine'
p1423
sa(dp1424
g2
S'http://www.reuters.com/article/2014/05/18/deals-mergerofequals-idUSL1N0O12GE20140518'
p1425
sg4
S'20140518\xc2\xa08:00AM UTC'
p1426
sg6
S"DEALTALK-Ad deal collapse busts 'merger of equals' myth"
p1427
sa(dp1428
g2
S'http://www.reuters.com/article/2014/05/18/brazil-worldcup-legacy-idUSL1N0O115A20140518'
p1429
sg4
S'20140518\xc2\xa08:00AM UTC'
p1430
sg6
S'INSIGHT-Brazilians left wanting by flawed World Cup investments'
p1431
sa(dp1432
g2
S'http://www.reuters.com/article/2014/05/18/ga-cricket-wireless-idUSnBw185026a+100+BSW20140518'
p1433
sg4
S'20140518\xc2\xa07:59AM UTC'
p1434
sg6
S'New Cricket Wireless Answers Nationwide Call for Network Quality, Value Prices, Great Service and No Annual Contract'
p1435
sa(dp1436
g2
S'http://www.reuters.com/article/2014/05/18/gsk-china-corruption-idUSL3N0O145X20140518'
p1437
sg4
S'20140518\xc2\xa07:45AM UTC'
p1438
sg6
S'Big Pharma beware: GSK China case may be just the beginning'
p1439
sa(dp1440
g2
S'http://www.reuters.com/article/2014/05/18/saudi-fransi-sukuk-idUSL6N0O40E020140518'
p1441
sg4
S'20140518\xc2\xa07:38AM UTC'
p1442
sg6
S'Banque Saudi Fransi plans $533 mln sukuk by end-June - banking sources'
p1443
sa(dp1444
g2
S'http://www.reuters.com/article/2014/05/18/us-france-kerviel-idUSBREA4H04620140518'
p1445
sg4
S'20140518\xc2\xa07:35AM UTC'
p1446
sg6
S'Ex-trader Kerviel appeals to French president from Italian border'
p1447
sa(dp1448
g2
S'http://www.reuters.com/article/2014/05/18/egypt-medinetnasr-idUSL6N0O40CK20140518'
p1449
sg4
S'20140518\xc2\xa07:32AM UTC'
p1450
sg6
S"Egypt's Medinet Nasr says first quarter profit slips"
p1451
sa(dp1452
g2
S'http://www.reuters.com/article/2014/05/18/britain-housing-carney-idUSL6N0O405D20140518'
p1453
sg4
S'20140518\xc2\xa07:26AM UTC'
p1454
sg6
S"UPDATE 2-UK housing market has deep problems, says BoE's Carney"
p1455
sa(dp1456
g2
S'http://www.reuters.com/article/2014/05/18/scleich-ardian-idUSL6N0O40D920140518'
p1457
sg4
S'20140518\xc2\xa07:22AM UTC'
p1458
sg6
S'French Ardian buys German toymaker Schleich'
p1459
sa(dp1460
g2
S'http://www.reuters.com/article/2014/05/18/france-kerviel-idUSL6N0O408E20140518'
p1461
sg4
S'20140518\xc2\xa07:15AM UTC'
p1462
sg6
S'Ex-trader Kerviel appeals to French president from Italian border'
p1463
sa(dp1464
g2
S'http://www.reuters.com/article/2014/05/18/turkey-mine-idUSL6N0O40DB20140518'
p1465
sg4
S'20140518\xc2\xa07:15AM UTC'
p1466
sg6
S'Turkish police detain 18 people in mine disaster investigation- media'
p1467
sa(dp1468
g2
S'http://www.reuters.com/article/2014/05/18/filmfestival-cannes-hungergames-idUSL6N0O40BS20140518'
p1469
sg4
S'20140518\xc2\xa07:08AM UTC'
p1470
sg6
S'Hunger Games goes on without actor Seymour Hoffman, director says'
p1471
sa(dp1472
g2
S'http://www.reuters.com/article/2014/05/18/us-apple-beats-music-idUSBREA4H03X20140518'
p1473
sg4
S'20140518\xc2\xa07:02AM UTC'
p1474
sg6
S'Apple strikes a new chord in the future of music'
p1475
sa(dp1476
g2
S'http://www.reuters.com/article/2014/05/18/bbo-orioles-royals-preview-idUSMTZEA5IRNZIC920140518'
p1477
sg4
S'20140518\xc2\xa07:02AM UTC'
p1478
sg6
S'Preview: Orioles at Royals'
p1479
sa(dp1480
g2
S'http://www.reuters.com/article/2014/05/18/bbo-dodgers-diamondbacks-preview-idUSMTZEA5IRNZIC820140518'
p1481
sg4
S'20140518\xc2\xa07:02AM UTC'
p1482
sg6
S'Preview: Dodgers at Diamondbacks'
p1483
sa(dp1484
g2
S'http://www.reuters.com/article/2014/05/18/bbo-padres-rockies-preview-idUSMTZEA5IRNZIC720140518'
p1485
sg4
S'20140518\xc2\xa07:02AM UTC'
p1486
sg6
S'Preview: Padres at Rockies'
p1487
sa(dp1488
g2
S'http://www.reuters.com/article/2014/05/18/bbo-braves-cardinals-preview-idUSMTZEA5IRNZIC620140518'
p1489
sg4
S'20140518\xc2\xa07:02AM UTC'
p1490
sg6
S'Preview: Braves at Cardinals'
p1491
sa(dp1492
g2
S'http://www.reuters.com/article/2014/05/18/bbo-tigers-redsox-preview-idUSMTZEA5IRNZIC520140518'
p1493
sg4
S'20140518\xc2\xa07:02AM UTC'
p1494
sg6
S'Preview: Tigers at Red Sox'
p1495
sa(dp1496
g2
S'http://www.reuters.com/article/2014/05/18/bbo-pirates-yankees-preview-idUSMTZEA5IRNZHC120140518'
p1497
sg4
S'20140518\xc2\xa07:02AM UTC'
p1498
sg6
S'Preview: Pirates at Yankees (Game 1)'
p1499
sa(dp1500
g2
S'http://www.reuters.com/article/2014/05/18/hkn-kings-blackhawks-preview-idUSMTZEA5IRNZHC220140518'
p1501
sg4
S'20140518\xc2\xa07:02AM UTC'
p1502
sg6
S'Preview: Kings at Blackhawks'
p1503
sa(dp1504
g2
S'http://www.reuters.com/article/2014/05/18/bkn-heat-pacers-preview-idUSMTZEA5IRNZHBV20140518'
p1505
sg4
S'20140518\xc2\xa07:02AM UTC'
p1506
sg6
S'Preview: Heat at Pacers'
p1507
sa(dp1508
g2
S'http://www.reuters.com/article/2014/05/18/bbo-mets-nationals-preview-idUSMTZEA5IRNZHC020140518'
p1509
sg4
S'20140518\xc2\xa07:02AM UTC'
p1510
sg6
S'Preview: Mets at Nationals'
p1511
sa(dp1512
g2
S'http://www.reuters.com/article/2014/05/18/bbo-whitesox-astros-preview-idUSMTZEA5IRNZHBZ20140518'
p1513
sg4
S'20140518\xc2\xa07:02AM UTC'
p1514
sg6
S'Preview: White Sox at Astros'
p1515
sa(dp1516
g2
S'http://www.reuters.com/article/2014/05/18/bbo-mariners-twins-preview-idUSMTZEA5IRNZHBY20140518'
p1517
sg4
S'20140518\xc2\xa07:02AM UTC'
p1518
sg6
S'Preview: Mariners at Twins'
p1519
sa(dp1520
g2
S'http://www.reuters.com/article/2014/05/18/bbo-athletics-indians-preview-idUSMTZEA5IRNZHBX20140518'
p1521
sg4
S'20140518\xc2\xa07:02AM UTC'
p1522
sg6
S'Preview: Athletics at Indians'
p1523
sa(dp1524
g2
S'http://www.reuters.com/article/2014/05/18/bbo-brewers-cubs-preview-idUSMTZEA5IRNZHC420140518'
p1525
sg4
S'20140518\xc2\xa07:02AM UTC'
p1526
sg6
S'Preview: Brewers at Cubs'
p1527
sa(dp1528
g2
S'http://www.reuters.com/article/2014/05/18/bbo-bluejays-rangers-preview-idUSMTZEA5IRNZHC320140518'
p1529
sg4
S'20140518\xc2\xa07:02AM UTC'
p1530
sg6
S'Preview: Blue Jays at Rangers'
p1531
sa(dp1532
g2
S'http://www.reuters.com/article/2014/05/18/bbo-rays-angels-preview-idUSMTZEA5IRNZGBU20140518'
p1533
sg4
S'20140518\xc2\xa07:02AM UTC'
p1534
sg6
S'Preview: Rays at Angels'
p1535
sa(dp1536
g2
S'http://www.reuters.com/article/2014/05/18/bbo-reds-phillies-preview-idUSMTZEA5IRNZGBT20140518'
p1537
sg4
S'20140518\xc2\xa07:02AM UTC'
p1538
sg6
S'Preview: Reds at Phillies'
p1539
sa(dp1540
g2
S'http://www.reuters.com/article/2014/05/18/idUSnGNX68f898+1c0+GNW20140518'
p1541
sg4
S'20140518\xc2\xa07:00AM UTC'
p1542
sg6
S'Chiropractor in Westfield Recommends Spinal Decompression for Treating Chronic Back Pain'
p1543
sa(dp1544
g2
S'http://www.reuters.com/article/2014/05/18/transportation-foxx-idUSL1N0O220W20140518'
p1545
sg4
S'20140518\xc2\xa07:00AM UTC'
p1546
sg6
S"RPT-Obama's transportation chief Foxx takes on increasingly visible role"
p1547
sa(dp1548
g2
S'http://www.reuters.com/article/2014/05/18/usa-fed-rates-idUSL1N0O21UL20140518'
p1549
sg4
S'20140518\xc2\xa07:00AM UTC'
p1550
sg6
S'RPT-U.S. Fed may need to update its interest rate guide'
p1551
sa(dp1552
g2
S'http://www.reuters.com/article/2014/05/18/ecb-rates-idUSL6N0O40C020140518'
p1553
sg4
S'20140518\xc2\xa06:58AM UTC'
p1554
sg6
S"ECB's Praet to recommend cutting main rate to 0.15 pct - Spiegel magazine"
p1555
sa(dp1556
g2
S'http://www.reuters.com/article/2014/05/18/swiss-vote-minimumwage-idUSWEB00NE920140518'
p1557
sg4
S'20140518\xc2\xa06:57AM UTC'
p1558
sg6
S"Swiss voters reject world's highest minimum wage - TV projection"
p1559
sa(dp1560
g2
S'http://www.reuters.com/article/2014/05/18/us-mali-fighting-pm-idUSBREA4H03U20140518'
p1561
sg4
S'20140518\xc2\xa06:50AM UTC'
p1562
sg6
S"Mali 'at war' with northern Tuareg separatists: prime minister"
p1563
sa(dp1564
g2
S'http://www.reuters.com/article/2014/05/18/prn-good-morning-idUSnPn7CzXSY+97+PRN20140518'
p1565
sg4
S'20140518\xc2\xa06:49AM UTC'
p1566
sg6
S'GOOD MORNING'
p1567
sa(dp1568
g2
S'http://www.reuters.com/article/2014/05/18/kipco-osn-ipo-idUSL6N0O40AF20140518'
p1569
sg4
S'20140518\xc2\xa06:46AM UTC'
p1570
sg6
S'UPDATE 1-Mideast pay-TV firm OSN has "no current plans" for share listing'
p1571
sa(dp1572
g2
S'http://www.reuters.com/article/2014/05/18/us-bmw-mexico-idUSBREA4H03O20140518'
p1573
sg4
S'20140518\xc2\xa06:32AM UTC'
p1574
sg6
S'BMW to announce its first Mexican car plant in July: report'
p1575
sa(dp1576
g2
S'http://www.reuters.com/article/2014/05/18/egypt-pioneersholding-idUSL6N0O409R20140518'
p1577
sg4
S'20140518\xc2\xa06:31AM UTC'
p1578
sg6
S"UPDATE 1-Egypt's Pioneers says to buy Rooya stake within 3 months"
p1579
sa(dp1580
g2
S'http://www.reuters.com/article/2014/05/18/us-astrazeneca-pfizer-cambridge-idUSBREA4H03K20140518'
p1581
sg4
S'20140518\xc2\xa06:27AM UTC'
p1582
sg6
S'AstraZeneca arrays academic assets in Pfizer defense'
p1583
sa(dp1584
g2
S'http://www.reuters.com/article/2014/05/18/bmw-mexico-idUSL6N0O407K20140518'
p1585
sg4
S'20140518\xc2\xa06:23AM UTC'
p1586
sg6
S'BMW to announce its first Mexican car plant in July -report'
p1587
sa(dp1588
g2
S'http://www.reuters.com/article/2014/05/18/us-india-election-idUSBREA4H01D20140518'
p1589
sg4
S'20140518\xc2\xa06:23AM UTC'
p1590
sg6
S"India's Modi grapples with first challenge - filling his cabinet"
p1591
sa(dp1592
g2
S'http://www.reuters.com/article/2014/05/18/astrazeneca-pfizer-cambridge-idUSL6N0O302L20140518'
p1593
sg4
S'20140518\xc2\xa06:21AM UTC'
p1594
sg6
S'AstraZeneca arrays academic assets in Pfizer defence'
p1595
sa(dp1596
g2
S'http://www.reuters.com/article/2014/05/18/us-india-election-crime-idUSBREA4H03C20140518'
p1597
sg4
S'20140518\xc2\xa06:15AM UTC'
p1598
sg6
S"In world's largest democracy, more lawmakers charged with crime"
p1599
sa(dp1600
g2
S'http://www.reuters.com/article/2014/05/18/swiss-vote-idUSL6N0O408220140518'
p1601
sg4
S'20140518\xc2\xa06:06AM UTC'
p1602
sg6
S"Swiss voters seen rejecting world's highest minimum wage"
p1603
sa(dp1604
g2
S'http://www.reuters.com/article/2014/05/18/idUSnMKWyKkcba+1d0+MKW20140518'
p1605
sg4
S'20140518\xc2\xa06:00AM UTC'
p1606
sg6
S'National Public Works Week -- May 18 to 24 -- "Building for Today, Planning for Tomorrow"'
p1607
sa(dp1608
g2
S'http://www.reuters.com/article/2014/05/18/turkey-erdogan-idUSL6N0O236M20140518'
p1609
sg4
S'20140518\xc2\xa05:52AM UTC'
p1610
sg6
S'Erdogan fracas as Turkey mourns betrays growing polarisation'
p1611
sa(dp1612
g2
S'http://www.reuters.com/article/2014/05/18/kipco-osn-ipo-idUSL6N0O408L20140518'
p1613
sg4
S'20140518\xc2\xa05:48AM UTC'
p1614
sg6
S'Mideast pay-TV operator OSN has "no current plans" to list shares- CEO'
p1615
sa(dp1616
g2
S'http://www.reuters.com/article/2014/05/18/us-india-election-singh-idUSBREA4H02Z20140518'
p1617
sg4
S'20140518\xc2\xa05:47AM UTC'
p1618
sg6
S"With a dubious legacy, India's 'accidental' premier bows out"
p1619
sa(dp1620
g2
S'http://www.reuters.com/article/2014/05/18/india-election-idUSL3N0O30CD20140518'
p1621
sg4
S'20140518\xc2\xa05:44AM UTC'
p1622
sg6
S"India's Modi grapples with first challenge - filling his cabinet"
p1623
sa(dp1624
g2
S'http://www.reuters.com/article/2014/05/18/us-italy-economy-idUSBREA4H03120140518'
p1625
sg4
S'20140518\xc2\xa05:36AM UTC'
p1626
sg6
S'Italy economy minister pledges new measures to help companies'
p1627
sa(dp1628
g2
S'http://www.reuters.com/article/2014/05/18/india-election-singh-idUSL3N0O408E20140518'
p1629
sg4
S'20140518\xc2\xa05:28AM UTC'
p1630
sg6
S'With a dubious legacy, India\'s "accidental" premier bows out'
p1631
sa(dp1632
g2
S'http://www.reuters.com/article/2014/05/18/us-china-vietnam-idUSBREA4H00C20140518'
p1633
sg4
S'20140518\xc2\xa05:28AM UTC'
p1634
sg6
S'Vietnam stops anti-China protests after riots, China evacuates workers'
p1635
sa(dp1636
g2
S'http://www.reuters.com/article/2014/05/18/china-vietnam-idUSL3N0O407H20140518'
p1637
sg4
S'20140518\xc2\xa05:27AM UTC'
p1638
sg6
S'WRAPUP 2-Vietnam stops anti-China protests after riots, China evacuates workers'
p1639
sa(dp1640
g2
S'http://www.reuters.com/article/2014/05/18/china-vietnam-idUSL3N0O306X20140518'
p1641
sg4
S'20140518\xc2\xa05:23AM UTC'
p1642
sg6
S'CORRECTED-UPDATE 1-Vietnam vows tough measures to avert anti-China unrest'
p1643
sa(dp1644
g2
S'http://www.reuters.com/article/2014/05/18/bc-elbit-systems-of-amer-idUSnPnbl2KD2+86+PRN20140518'
p1645
sg4
S'20140518\xc2\xa05:22AM UTC'
p1646
sg6
S'Elbit Systems of America Awarded Two Contracts to Upgrade Marine Corps AH-1W Attack Helicopters'
p1647
sa(dp1648
g2
S'http://www.reuters.com/article/2014/05/18/us-usa-fed-rates-idUSBREA4H00T20140518'
p1649
sg4
S'20140518\xc2\xa05:21AM UTC'
p1650
sg6
S'Fed may need to update its interest rate guide'
p1651
sa(dp1652
g2
S'http://www.reuters.com/article/2014/05/18/us-bissau-election-idUSBREA4H02Q20140518'
p1653
sg4
S'20140518\xc2\xa05:20AM UTC'
p1654
sg6
S'Guinea-Bissau votes in post-coup presidential runoff'
p1655
sa(dp1656
g2
S'http://www.reuters.com/article/2014/05/18/us-balkans-flood-idUSBREA4G03P20140518'
p1657
sg4
S'20140518\xc2\xa05:15AM UTC'
p1658
sg6
S'Russia, EU join flood relief efforts in Serbia, Bosnia'
p1659
sa(dp1660
g2
S'http://www.reuters.com/article/2014/05/18/balkans-flood-idUSL6N0O405T20140518'
p1661
sg4
S'20140518\xc2\xa05:08AM UTC'
p1662
sg6
S'Russia, EU join flood relief efforts in Serbia, Bosnia'
p1663
sa(dp1664
g2
S'http://www.reuters.com/article/2014/05/18/us-britain-housing-carney-idUSBREA4G09C20140518'
p1665
sg4
S'20140518\xc2\xa05:05AM UTC'
p1666
sg6
S"UK housing market has deep problems, says BoE's Carney"
p1667
sa(dp1668
g2
S'http://www.reuters.com/article/2014/05/18/us-china-xinjiang-idUSBREA4H01O20140518'
p1669
sg4
S'20140518\xc2\xa05:04AM UTC'
p1670
sg6
S'Chinese police blame separatist group for Urumqi bombing: Xinhua'
p1671
sa(dp1672
g2
S'http://www.reuters.com/article/2014/05/18/us-economy-global-idUSBREA4H02H20140518'
p1673
sg4
S'20140518\xc2\xa05:02AM UTC'
p1674
sg6
S'No sign of major central banks tightening the reins'
p1675
sa(dp1676
g2
S'http://www.reuters.com/article/2014/05/18/china-xinjiang-idUSL3N0O405C20140518'
p1677
sg4
S'20140518\xc2\xa05:00AM UTC'
p1678
sg6
S'UPDATE 2-Chinese police blame separatist group for Urumqi bombing - Xinhua'
p1679
sa(dp1680
g2
S'http://www.reuters.com/article/2014/05/18/economy-global-idUSL6N0O15M520140518'
p1681
sg4
S'20140518\xc2\xa05:00AM UTC'
p1682
sg6
S'GLOBAL ECONOMY WEEKAHEAD-No sign of major central banks tightening the reins'
p1683
sa(dp1684
g2
S'http://www.reuters.com/article/2014/05/18/us-greece-vote-idUSBREA4H02E20140518'
p1685
sg4
S'20140518\xc2\xa04:59AM UTC'
p1686
sg6
S'Greeks vote in first round of local elections'
p1687
sa(dp1688
g2
S'http://www.reuters.com/article/2014/05/18/us-iran-nuclear-talks-idUSBREA4H02B20140518'
p1689
sg4
S'20140518\xc2\xa04:58AM UTC'
p1690
sg6
S'Next Iran nuclear talks due on June 16-20: IRNA'
p1691
sa(dp1692
g2
S'http://www.reuters.com/article/2014/05/18/us-ukraine-crisis-russia-insight-idUSBREA4H02520140518'
p1693
sg4
S'20140518\xc2\xa04:41AM UTC'
p1694
sg6
S"Failing Ukraine state plays in to Russia's hands"
p1695
sa(dp1696
g2
S'http://www.reuters.com/article/2014/05/18/kuwait-regulations-idUSL6N0O402M20140518'
p1697
sg4
S'20140518\xc2\xa04:27AM UTC'
p1698
sg6
S'Kuwait eases rules for listing joint-stock companies'
p1699
sa(dp1700
g2
S'http://www.reuters.com/article/2014/05/18/elbitsystems-contract-idUSnPn37F24f+88+PRN20140518'
p1701
sg4
S'20140518\xc2\xa04:22AM UTC'
p1702
sg6
S'Elbit Systems U.S. Subsidiary Awarded Contracts to Upgrade Marine Corps AH-1W Attack Helicopter'
p1703
sa(dp1704
g2
S'http://www.reuters.com/article/2014/05/18/delek-group-delek-us-hldg-idUSL6N0O403P20140518'
p1705
sg4
S'20140518\xc2\xa03:38AM UTC'
p1706
sg6
S'Delek Group sells more shares in Delek US for 140 mln shekels'
p1707
sa(dp1708
g2
S'http://www.reuters.com/article/2014/05/18/us-indonesia-ahok-idUSBREA4H01Y20140518'
p1709
sg4
S'20140518\xc2\xa03:29AM UTC'
p1710
sg6
S'A first for Indonesia, ethnic Chinese leader takes charge in the capital'
p1711
sa(dp1712
g2
S'http://www.reuters.com/article/2014/05/18/egypt-pioneersholding-idUSL6N0O403520140518'
p1713
sg4
S'20140518\xc2\xa03:20AM UTC'
p1714
sg6
S"Egypt's Pioneers Holding to acquire Rooya stake within 3 months -CEO"
p1715
sa(dp1716
g2
S'http://www.reuters.com/article/2014/05/18/us-ukraine-crisis-nato-insight-idUSBREA4H01V20140518'
p1717
sg4
S'20140518\xc2\xa03:13AM UTC'
p1718
sg6
S"Ukraine crisis will be 'game changer' for NATO"
p1719
sa(dp1720
g2
S'http://www.reuters.com/article/2014/05/18/idUSnGNX6V8Q7Y+1d5+GNW20140518'
p1721
sg4
S'20140518\xc2\xa03:08AM UTC'
p1722
sg6
S'Tango Analytics Reaches Significant Milestone with Rapid Adoption of Global Customer and Location Predictive Analytics Platform'
p1723
sa(dp1724
g2
S'http://www.reuters.com/article/2014/05/18/us-syria-crisis-military-idUSBREA4H01S20140518'
p1725
sg4
S'20140518\xc2\xa03:05AM UTC'
p1726
sg6
S'Street by street, Assad extends grip in central Syria'
p1727
sa(dp1728
g2
S'http://www.reuters.com/article/2014/05/18/ukraine-crisis-nato-idUSL6N0O15ZR20140518'
p1729
sg4
S'20140518\xc2\xa03:00AM UTC'
p1730
sg6
S'INSIGHT-Ukraine crisis will be "game changer" for NATO'
p1731
sa(dp1732
g2
S'http://www.reuters.com/article/2014/05/18/bezeq-charge-idUSL6N0O402S20140518'
p1733
sg4
S'20140518\xc2\xa02:58AM UTC'
p1734
sg6
S"Israel's Bezeq to take charge in Q2 for early retirement plan"
p1735
sa(dp1736
g2
S'http://www.reuters.com/article/2014/05/18/us-nigerian-violence-summit-idUSBREA4G06120140518'
p1737
sg4
S'20140518\xc2\xa02:32AM UTC'
p1738
sg6
S"West Africa leaders vow to wage 'total war' on Boko Haram"
p1739
sa(dp1740
g2
S'http://www.reuters.com/article/2014/05/18/myanmar-jetfuel-idUSL3N0O405320140518'
p1741
sg4
S'20140518\xc2\xa02:29AM UTC'
p1742
sg6
S'Myanmar seeks foreign partners for jet fuel distribution'
p1743
sa(dp1744
g2
S'http://www.reuters.com/article/2014/05/18/us-china-economy-reform-idUSBREA4H01820140518'
p1745
sg4
S'20140518\xc2\xa02:25AM UTC'
p1746
sg6
S'China says faster economic reforms needed'
p1747
sa(dp1748
g2
S'http://www.reuters.com/article/2014/05/18/us-china-privateequity-cdh-idUSBREA4H00Z20140518'
p1749
sg4
S'20140518\xc2\xa02:24AM UTC'
p1750
sg6
S'Pulled pork IPO shows China private equity not yet ready for world stage'
p1751
sa(dp1752
g2
S'http://www.reuters.com/article/2014/05/18/china-vietnam-idUSL3N0O403Q20140518'
p1753
sg4
S'20140518\xc2\xa02:13AM UTC'
p1754
sg6
S'WRAPUP 1-Vietnam stops anti-China protests after deadly riots, China evacuates'
p1755
sa(dp1756
g2
S'http://www.reuters.com/article/2014/05/18/ny-cellcom-israel-moc-idUSnPn4hb5RC+83+PRN20140518'
p1757
sg4
S'20140518\xc2\xa02:03AM UTC'
p1758
sg6
S'Cellcom Israel Announces MOC Network Sharing Policy'
p1759
sa(dp1760
g2
S'http://www.reuters.com/article/2014/05/18/bbo-rays-angels-writethru-idUSMTZEA5IR5929O20140518'
p1761
sg4
S'20140518\xc2\xa01:53AM UTC'
p1762
sg6
S"Wilson blanks Rays in Angels' 6-0 win"
p1763
sa(dp1764
g2
S'http://www.reuters.com/article/2014/05/18/bbo-dodgers-diamondbacks-writethru-idUSMTZEA5IR5AT9Q20140518'
p1765
sg4
S'20140518\xc2\xa01:47AM UTC'
p1766
sg6
S"Diamondbacks chase Dodgers' Kershaw again"
p1767
sa(dp1768
g2
S'http://www.reuters.com/article/2014/05/18/bbo-tigers-redsox-writethru-idUSMTZEA5IQZDG4920140518'
p1769
sg4
S'20140518\xc2\xa01:39AM UTC'
p1770
sg6
S'Another strong starter propels Tigers over Red Sox'
p1771
sa(dp1772
g2
S'http://www.reuters.com/article/2014/05/18/bbo-padres-rockies-writethru-idUSMTZEA5IR4KA8020140518'
p1773
sg4
S'20140518\xc2\xa01:31AM UTC'
p1774
sg6
S'Padres build big lead, hold off Rockies'
p1775
sa(dp1776
g2
S'http://www.reuters.com/article/2014/05/18/us-china-internet-idUSBREA4H01520140518'
p1777
sg4
S'20140518\xc2\xa01:19AM UTC'
p1778
sg6
S"China says Internet security necessary to counter 'hostile forces'"
p1779
sa(dp1780
g2
S'http://www.reuters.com/article/2014/05/18/us-usa-politics-benghazi-gowdy-idUSBREA4H01220140518'
p1781
sg4
S'20140518\xc2\xa01:16AM UTC'
p1782
sg6
S'Courtroom theatrics a hallmark of Republican leading Benghazi probe'
p1783
sa(dp1784
g2
S'http://www.reuters.com/article/2014/05/18/china-internet-idUSL3N0O403F20140518'
p1785
sg4
S'20140518\xc2\xa01:13AM UTC'
p1786
sg6
S'China says Internet security necessary to counter "hostile forces"'
p1787
sa(dp1788
g2
S'http://www.reuters.com/article/2014/05/18/bbo-bluejays-rangers-recap-idUSMTZEA5IR3V57S20140518'
p1789
sg4
S'20140518\xc2\xa01:10AM UTC'
p1790
sg6
S'Blue Jays 4, Rangers 2'
p1791
sa(dp1792
g2
S'http://www.reuters.com/article/2014/05/18/us-transportation-foxx-idUSBREA4H00W20140518'
p1793
sg4
S'20140518\xc2\xa01:09AM UTC'
p1794
sg6
S"Obama's transportation chief Foxx takes on increasingly visible role"
p1795
sa(dp1796
g2
S'http://www.reuters.com/article/2014/05/18/china-privateequity-cdh-idUSL3N0O20EP20140518'
p1797
sg4
S'20140518\xc2\xa01:01AM UTC'
p1798
sg6
S'Pulled pork IPO shows China private equity not yet ready for world stage'
p1799
sa(dp1800
g2
S'http://www.reuters.com/article/2014/05/18/transportation-foxx-idUSL1N0O21FS20140518'
p1801
sg4
S'20140518\xc2\xa01:00AM UTC'
p1802
sg6
S"Obama's transportation chief Foxx takes on increasingly visible role"
p1803
sa(dp1804
g2
S'http://www.reuters.com/article/2014/05/18/usa-fed-rates-idUSL1N0O11US20140518'
p1805
sg4
S'20140518\xc2\xa01:00AM UTC'
p1806
sg6
S'U.S. Fed may need to update its interest rate guide'
p1807
sa(dp1808
g2
S'http://www.reuters.com/article/2014/05/18/us-indonesia-ahok-idUSBREA4H00P20140518'
p1809
sg4
S'20140518\xc2\xa012:10AM UTC'
p1810
sg6
S'A first for Indonesia, ethnic Chinese leader takes charge in the capital'
p1811
sa(dp1812
g2
S'http://www.reuters.com/article/2014/05/18/us-korea-north-building-idUSBREA4H00M20140518'
p1813
sg4
S'20140518\xc2\xa012:02AM UTC'
p1814
sg6
S'North Korea says apartment building collapses, offers rare apology'
p1815
sa(dp1816
g2
S'http://www.reuters.com/article/2014/05/18/bbo-orioles-royals-writethru-idUSMTZEA5IQZ0S3C20140518'
p1817
sg4
S'20140518\xc2\xa012:01AM UTC'
p1818
sg6
S"Royals win 1-0 after Duffy's perfect start ends"
p1819
sa(dp1820
g2
S'http://www.reuters.com/article/2014/05/18/census-daily-feature-idUSnPncdZt8b+88+PRN20140518'
p1821
sg4
S'20140518\xc2\xa012:01AM UTC'
p1822
sg6
S'U.S. Census Bureau Daily Feature for May 18'
p1823
sa(dp1824
g2
S'http://www.reuters.com/article/2014/05/18/mexico-oil-isthmus-idUSL1N0O122N20140518'
p1825
sg4
S'20140518\xc2\xa012:01AM UTC'
p1826
sg6
S"Mexico's Pemex quietly resumes light crude sales to U.S. West Coast"
p1827
sa(dp1828
g2
S'http://www.reuters.com/news/video/videoStory?storyID=85789681'
p1829
sg4
S'20140518\xc2\xa011:55PM UTC'
p1830
sg6
S"Breakingviews: Modi's top three reform priorities"
p1831
sa(dp1832
g2
S'http://www.reuters.com/news/video/videoStory?storyID=85788850'
p1833
sg4
S'20140518\xc2\xa011:30PM UTC'
p1834
sg6
S'Alibaba and the new face of finance in China'
p1835
sa(dp1836
g2
S'http://www.reuters.com/news/video/videoStory?storyID=85811003'
p1837
sg4
S'20140518\xc2\xa08:00PM UTC'
p1838
sg6
S'US Navy turns seawater into fuel'
p1839
sa(dp1840
g2
S'http://www.reuters.com/news/video/videoStory?storyID=85781471'
p1841
sg4
S'20140518\xc2\xa07:24PM UTC'
p1842
sg6
S'Searching for answers as the bury the dead in Turkey'
p1843
sa(dp1844
g2
S'http://www.reuters.com/news/video/videoStory?storyID=85777742'
p1845
sg4
S'20140518\xc2\xa06:20PM UTC'
p1846
sg6
S'Amid scandal,John McCain calls for "total refocusing" of Veterans Affairs'
p1847
sa(dp1848
g2
S'http://www.reuters.com/news/video/videoStory?storyID=85774116'
p1849
sg4
S'20140518\xc2\xa05:14PM UTC'
p1850
sg6
S'Bloomberg calls Hillary Clinton "spectacular" Democratic candidate'
p1851
sa(dp1852
g2
S'http://www.reuters.com/news/video/videoStory?storyID=85772968'
p1853
sg4
S'20140518\xc2\xa04:27PM UTC'
p1854
sg6
S'California Chrome eyes Triple Crown after Preakness win'
p1855
sa(dp1856
g2
S'http://www.reuters.com/news/video/videoStory?storyID=85772075'
p1857
sg4
S'20140518\xc2\xa04:10PM UTC'
p1858
sg6
S'Under water in Serbia'
p1859
sa(dp1860
g2
S'http://www.reuters.com/news/video/videoStory?storyID=85769220'
p1861
sg4
S'20140518\xc2\xa01:47PM UTC'
p1862
sg6
S'Gunmen storm Libyan parliament'
p1863
sa(dp1864
g2
S'http://www.reuters.com/news/video/videoStory?storyID=85767926'
p1865
sg4
S'20140518\xc2\xa012:56PM UTC'
p1866
sg6
S'Flying man soars in Washington'
p1867
sa(dp1868
g2
S'http://www.reuters.com/news/video/videoStory?storyID=85767357'
p1869
sg4
S'20140518\xc2\xa012:29PM UTC'
p1870
sg6
S'Prince Harry visits Monte Cassino abbey ahead of battle anniversary'
p1871
sa(dp1872
g2
S'http://www.reuters.com/news/video/videoStory?storyID=85766615'
p1873
sg4
S'20140518\xc2\xa012:05PM UTC'
p1874
sg6
S'Mali "at war" after Tuareg separatists abduct 30 civil servants - PM'
p1875
sa(dp1876
g2
S'http://www.reuters.com/news/video/videoStory?storyID=85766265'
p1877
sg4
S'20140518\xc2\xa011:51AM UTC'
p1878
sg6
S"SpaceX Dragon departs International Space Station after month's stay"
p1879
sa(dp1880
g2
S'http://www.reuters.com/news/video/videoStory?storyID=85763980'
p1881
sg4
S'20140518\xc2\xa011:12AM UTC'
p1882
sg6
S'Pope prays for Balkan flood victims'
p1883
sa(dp1884
g2
S'http://www.reuters.com/news/video/videoStory?storyID=85764432'
p1885
sg4
S'20140518\xc2\xa011:11AM UTC'
p1886
sg6
S'First case of U.S. MERS transmission reported'
p1887
sa(dp1888
g2
S'http://www.reuters.com/news/video/videoStory?storyID=85760733'
p1889
sg4
S'20140518\xc2\xa09:44AM UTC'
p1890
sg6
S'3D printing  specialists give 11-year-old boy a hand'
p1891
sa(dp1892
g2
S'http://www.reuters.com/news/video/videoStory?storyID=85754536'
p1893
sg4
S'20140518\xc2\xa04:51AM UTC'
p1894
sg6
S'North Korea apology'
p1895
sa(dp1896
g2
S'http://www.reuters.com/news/video/videoStory?storyID=85753617'
p1897
sg4
S'20140518\xc2\xa03:47AM UTC'
p1898
sg6
S'Chinese nationals quit Vietnam'
p1899
sa(dp1900
g2
S'http://www.reuters.com/news/video/videoStory?storyID=85752013'
p1901
sg4
S'20140518\xc2\xa01:32AM UTC'
p1902
sg6
S'Ukrainians back Tartar anniversary'
p1903
sa(dp1904
g2
S'http://www.reuters.com/news/video/videoStory?storyID=85749969'
p1905
sg4
S'20140518\xc2\xa012:05AM UTC'
p1906
sg6
S"Thai protesters vow 'final push'"
p1907
sa.