(lp0
(dp1
S'href'
p2
S'http://www.reuters.com/article/2014/03/02/bkc-sandiegost-fresnost-recap-idUSMTZEA32SNET3X20140302'
p3
sS'ts'
p4
S'20140301\xc2\xa011:42PM UTC'
p5
sS'title'
p6
S'San Diego State 82, Fresno State 67'
p7
sa(dp8
g2
S'http://www.reuters.com/article/2014/03/02/hkn-penguins-blackhawks-writethru-idUSMTZEA32SKHUYA20140302'
p9
sg4
S'20140301\xc2\xa011:42PM UTC'
p10
sg6
S'Blackhawks dominate Pens at Soldier Field'
p11
sa(dp12
g2
S'http://www.reuters.com/article/2014/03/02/hkn-lightning-stars-recap-idUSMTZEA32SN1H3V20140302'
p13
sg4
S'20140301\xc2\xa011:34PM UTC'
p14
sg6
S'Lightning 4, Stars 2'
p15
sa(dp16
g2
S'http://www.reuters.com/article/2014/03/02/bkn-nets-bucks-writethru-idUSMTZEA32SJH7TG20140302'
p17
sg4
S'20140301\xc2\xa011:34PM UTC'
p18
sg6
S'Nets end long road trip with win in Milwaukee'
p19
sa(dp20
g2
S'http://www.reuters.com/article/2014/03/02/hkn-bluejackets-panthers-recap-idUSMTZEA32SMO32V20140302'
p21
sg4
S'20140301\xc2\xa011:26PM UTC'
p22
sg6
S'Blue Jackets 6, Panthers 3'
p23
sa(dp24
g2
S'http://www.reuters.com/article/2014/03/02/hkn-devils-islanders-recap-idUSMTZEA32SMCF2I20140302'
p25
sg4
S'20140301\xc2\xa011:19PM UTC'
p26
sg6
S'Devils 6, Islanders 1'
p27
sa(dp28
g2
S'http://www.reuters.com/article/2014/03/02/hkn-flyers-rangers-recap-idUSMTZEA32SM432G20140302'
p29
sg4
S'20140301\xc2\xa011:14PM UTC'
p30
sg6
S'Flyers 4, Rangers 2'
p31
sa(dp32
g2
S'http://www.reuters.com/article/2014/03/02/hkn-capitals-bruins-recap-idUSMTZEA32SLU91S20140302'
p33
sg4
S'20140301\xc2\xa011:08PM UTC'
p34
sg6
S'Capitals 4, Bruins 2'
p35
sa(dp36
g2
S'http://www.reuters.com/article/2014/03/02/bkn-pistons-rockets-writethru-idUSMTZEA32SHY4OX20140302'
p37
sg4
S'20140301\xc2\xa011:05PM UTC'
p38
sg6
S"Rockets' running start too much for Pistons"
p39
sa(dp40
g2
S'http://www.reuters.com/article/2014/03/02/bkn-pacers-celtics-writethru-idUSMTZEA32SHZTOY20140302'
p41
sg4
S'20140301\xc2\xa010:47PM UTC'
p42
sg6
S'George comes through late for Pacers'
p43
sa(dp44
g2
S'http://www.reuters.com/article/2014/03/02/bkn-wizards-76ers-writethru-idUSMTZEA32SHUSOM20140302'
p45
sg4
S'20140301\xc2\xa010:46PM UTC'
p46
sg6
S"Ariza leads Wizards past 76ers as Iverson's jersey retired"
p47
sa(dp48
g2
S'http://www.reuters.com/article/2014/03/02/bkn-magic-heat-writethru-idUSMTZEA32SH5PNO20140302'
p49
sg4
S'20140301\xc2\xa010:34PM UTC'
p50
sg6
S'Heat on target in win over Magic'
p51
sa(dp52
g2
S'http://www.reuters.com/article/2014/03/02/bkc-houston-temple-recap-idUSMTZEA32SJUJV220140302'
p53
sg4
S'20140301\xc2\xa010:25PM UTC'
p54
sg6
S'Houston 89, Temple 79'
p55
sa(dp56
g2
S'http://www.reuters.com/article/2014/03/02/us-usa-nevada-crash-idUSBREA2102M20140302'
p57
sg4
S'20140301\xc2\xa010:10PM UTC'
p58
sg6
S'Elderly driver crashes truck into Las Vegas store, injuring 26'
p59
sa(dp60
g2
S'http://www.reuters.com/article/2014/03/02/usa-nevada-crash-idUSL1N0LZ02T20140302'
p61
sg4
S'20140301\xc2\xa010:07PM UTC'
p62
sg6
S'Elderly driver crashes truck into Las Vegas store, injuring 26'
p63
sa(dp64
g2
S'http://www.reuters.com/article/2014/03/02/us-toronto-mayor-idUSBREA1O18E20140302'
p65
sg4
S'20140301\xc2\xa09:31PM UTC'
p66
sg6
S'Toronto\'s oft-lampooned mayor to guest on "Jimmy Kimmel" -reports'
p67
sa(dp68
g2
S'http://www.reuters.com/article/2014/03/02/canada-toronto-mayor-idUSL1N0LZ01620140302'
p69
sg4
S'20140301\xc2\xa09:27PM UTC'
p70
sg6
S'Toronto\'s oft-lampooned mayor to guest on "Jimmy Kimmel" -reports'
p71
sa(dp72
g2
S'http://www.reuters.com/article/2014/03/02/bkc-minnesota-michigan-recap-idUSMTZEA32SBBQEY20140302'
p73
sg4
S'20140301\xc2\xa09:22PM UTC'
p74
sg6
S'Michigan 66, Minnesota 56'
p75
sa(dp76
g2
S'http://www.reuters.com/article/2014/03/02/bkc-kentucky-southcarolina-writethru-idUSMTZEA32SCY6HV20140302'
p77
sg4
S'20140301\xc2\xa09:22PM UTC'
p78
sg6
S'South Carolina holds on to upset No. 17 Kentucky'
p79
sa(dp80
g2
S'http://www.reuters.com/article/2014/03/02/bkc-california-arizonast-recap-idUSMTZEA32SBP5FR20140302'
p81
sg4
S'20140301\xc2\xa09:20PM UTC'
p82
sg6
S'Arizona State 78, California 60'
p83
sa(dp84
g2
S'http://www.reuters.com/article/2014/03/02/usa-navy-fighter-idUSL1N0LZ02K20140302'
p85
sg4
S'20140301\xc2\xa09:11PM UTC'
p86
sg6
S'U.S. F/A-18 fighter jet crashes during training in Nevada'
p87
sa(dp88
g2
S'http://www.reuters.com/article/2014/03/02/bkc-syracuse-virginia-writethru-idUSMTZEA31S611WW20140302'
p89
sg4
S'20140301\xc2\xa09:09PM UTC'
p90
sg6
S'Virginia Commonwealth wreaks havoc in win over Saint Louis'
p91
sa(dp92
g2
S'http://www.reuters.com/article/2014/03/02/bkc-northwestern-nebraska-recap-idUSMTZEA32S8YPEF20140302'
p93
sg4
S'20140301\xc2\xa09:06PM UTC'
p94
sg6
S'Nebraska 54, Northwestern 47'
p95
sa(dp96
g2
S'http://www.reuters.com/article/2014/03/02/ca-hackademy-awards-idUSnPnSFwFYMn+16e+PRN20140302'
p97
sg4
S'20140301\xc2\xa09:00PM UTC'
p98
sg6
S"'Great Gaspy' 2013's Thumbs Down! Hackademy Award Pick"
p99
sa(dp100
g2
S'http://www.reuters.com/article/2014/03/02/bkc-iowast-kansasst-recap-idUSMTZEA32SF9HKW20140302'
p101
sg4
S'20140301\xc2\xa08:46PM UTC'
p102
sg6
S'Kansas State 80, Iowa State 73'
p103
sa(dp104
g2
S'http://www.reuters.com/article/2014/03/02/us-usa-drought-california-idUSBREA2010G20140302'
p105
sg4
S'20140301\xc2\xa08:46PM UTC'
p106
sg6
S'California governor signs $687 million drought relief legislation'
p107
sa(dp108
g2
S'http://www.reuters.com/article/2014/03/02/usa-drought-california-idUSL1N0LY0OS20140302'
p109
sg4
S'20140301\xc2\xa08:43PM UTC'
p110
sg6
S'UPDATE 1-California governor signs $687 million drought relief legislation'
p111
sa(dp112
g2
S'http://www.reuters.com/article/2014/03/02/us-spiritawards-idUSBREA200QL20140302'
p113
sg4
S'20140301\xc2\xa08:32PM UTC'
p114
sg6
S"'12 Years a Slave,' Oscar frontrunners sweep Spirit Awards"
p115
sa(dp116
g2
S'http://www.reuters.com/article/2014/03/02/film-spiritawards-idUSL1N0LZ00320140302'
p117
sg4
S'20140301\xc2\xa08:31PM UTC'
p118
sg6
S'UPDATE 2-"12 Years a Slave," Oscar frontrunners sweep Spirit Awards'
p119
sa(dp120
g2
S'http://www.reuters.com/article/2014/03/02/us-venezuela-protests-idUSBREA200QV20140302'
p121
sg4
S'20140301\xc2\xa08:21PM UTC'
p122
sg6
S'Venezuela foreign minister to meet Ban Ki-moon in Geneva'
p123
sa(dp124
g2
S'http://www.reuters.com/article/2014/03/02/us-venezuela-protests-oscars-idUSBREA2102120140302'
p125
sg4
S'20140301\xc2\xa08:21PM UTC'
p126
sg6
S'Venezuela government says foes seek to slam it at Oscars'
p127
sa(dp128
g2
S'http://www.reuters.com/article/2014/03/02/venezuela-protests-oscars-idUSL1N0LZ00G20140302'
p129
sg4
S'20140301\xc2\xa08:18PM UTC'
p130
sg6
S"Venezuela gov't says foes seek to slam it at Oscars"
p131
sa(dp132
g2
S'http://www.reuters.com/article/2014/03/02/ukraine-crisis-idUSL1N0LZ01920140302'
p133
sg4
S'20140301\xc2\xa08:16PM UTC'
p134
sg6
S'WRAPUP 9-Putin ready to invade Ukraine; Kiev warns of war'
p135
sa(dp136
g2
S'http://www.reuters.com/article/2014/03/02/us-abenomics-japan-insight-idUSBREA2101B20140302'
p137
sg4
S'20140301\xc2\xa08:04PM UTC'
p138
sg6
S'Abenomics struggles to deliver Japan public works boom'
p139
sa(dp140
g2
S'http://www.reuters.com/article/2014/03/02/bkc-creighton-xavier-writethru-idUSMTZEA32S9KGEJ20140302'
p141
sg4
S'20140301\xc2\xa08:00PM UTC'
p142
sg6
S'Xavier pulls off upset of No. 9 Creighton'
p143
sa(dp144
g2
S'http://www.reuters.com/article/2014/03/02/idUSL3N0LV2UR20140302'
p145
sg4
S'20140301\xc2\xa08:00PM UTC'
p146
sg6
S'INSIGHT-Abenomics struggles to deliver Japan public works boom'
p147
sa(dp148
g2
S'http://www.reuters.com/article/2014/03/02/us-spiritawards-factbox-idUSBREA2101920140302'
p149
sg4
S'20140301\xc2\xa08:00PM UTC'
p150
sg6
S'Factbox: List of winners at the Independent Spirit Awards'
p151
sa(dp152
g2
S'http://www.reuters.com/article/2014/03/02/australia-gold-idUSL3N0LZ00720140302'
p153
sg4
S'20140301\xc2\xa08:00PM UTC'
p154
sg6
S'Australia boosts richer ore output to fight weak bullion prices'
p155
sa(dp156
g2
S'http://www.reuters.com/article/2014/03/02/film-spiritawards-idUSL1N0LY0D820140302'
p157
sg4
S'20140301\xc2\xa07:59PM UTC'
p158
sg6
S'Factbox: List of winners at the Independent Spirit Awards'
p159
sa(dp160
g2
S'http://www.reuters.com/article/2014/03/02/us-ukraine-crisis-canada-idUSBREA2100W20140302'
p161
sg4
S'20140301\xc2\xa07:39PM UTC'
p162
sg6
S'Canada says recalling ambassador from Russia for consultations'
p163
sa(dp164
g2
S'http://www.reuters.com/article/2014/03/02/ukraine-crisis-canada-idUSL1N0LY0LN20140302'
p165
sg4
S'20140301\xc2\xa07:38PM UTC'
p166
sg6
S'Canada says recalling ambassador from Russia for consultations'
p167
sa(dp168
g2
S'http://www.reuters.com/article/2014/03/02/idUSnMKWm0Mt2a+1c8+MKW20140302'
p169
sg4
S'20140301\xc2\xa07:27PM UTC'
p170
sg6
S'Family Members From HMCS Protecteur Transferred to USN Warship - Will Be taken to Pearl Harbour, Hawaii'
p171
sa(dp172
g2
S'http://www.reuters.com/article/2014/03/02/idUSnCCNc6LSzg+1cc+MKW20140302'
p173
sg4
S'20140301\xc2\xa07:27PM UTC'
p174
sg6
S'Family Members From HMCS Protecteur Transferred to USN Warship - Will Be taken to Pearl Harbour, Hawaii'
p175
sa(dp176
g2
S'http://www.reuters.com/article/2014/03/02/bkc-bostoncollege-wakeforest-recap-idUSMTZEA31S6Y8XQ20140302'
p177
sg4
S'20140301\xc2\xa07:21PM UTC'
p178
sg6
S'Boston College 80, Wake Forest 72'
p179
sa(dp180
g2
S'http://www.reuters.com/article/2014/03/02/us-baseball-yankees-tanaka-idUSBREA2100O20140302'
p181
sg4
S'20140301\xc2\xa07:21PM UTC'
p182
sg6
S'Tanaka goes scoreless in first game for Yankees'
p183
sa(dp184
g2
S'http://www.reuters.com/article/2014/03/02/bkc-westvirginia-texaschristian-recap-idUSMTZEA32SB57EX20140302'
p185
sg4
S'20140301\xc2\xa07:17PM UTC'
p186
sg6
S'West Virginia 81, Texas Christian 59'
p187
sa(dp188
g2
S'http://www.reuters.com/article/2014/03/02/us-golf-pga-idUSBREA2100L20140302'
p189
sg4
S'20140301\xc2\xa07:16PM UTC'
p190
sg6
S'Steady McIlroy has two-stroke lead at Honda Classic'
p191
sa(dp192
g2
S'http://www.reuters.com/article/2014/03/02/us-ukraine-crisis-usa-idUSBREA2100C20140302'
p193
sg4
S'20140301\xc2\xa07:07PM UTC'
p194
sg6
S'Obama expresses deep concern to Putin on Ukraine'
p195
sa(dp196
g2
S'http://www.reuters.com/article/2014/03/02/us-lg-china-idUSBREA2100720140302'
p197
sg4
S'20140301\xc2\xa07:06PM UTC'
p198
sg6
S'LG Chem CEO says mulls electric car battery plant in China'
p199
sa(dp200
g2
S'http://www.reuters.com/article/2014/03/02/hkn-hurricanes-kings-writethru-idUSMTZEA31S7BMXS20140302'
p201
sg4
S'20140301\xc2\xa07:05PM UTC'
p202
sg6
S'Kings pull out victory over Hurricanes'
p203
sa(dp204
g2
S'http://www.reuters.com/article/2014/03/02/us-usa-montana-avalanche-idUSBREA2100420140302'
p205
sg4
S'20140301\xc2\xa07:04PM UTC'
p206
sg6
S'Snowboarder may have caused Montana avalanche that injured three'
p207
sa(dp208
g2
S'http://www.reuters.com/article/2014/03/02/lg-china-idUSL3N0LY02T20140302'
p209
sg4
S'20140301\xc2\xa07:00PM UTC'
p210
sg6
S'LG Chem CEO says mulls electric car battery plant in China'
p211
sa(dp212
g2
S'http://www.reuters.com/article/2014/03/01/ca-film-independent-idUSnPnLAwK4GJ+16b+PRN20140301'
p213
sg4
S'20140301\xc2\xa06:57PM UTC'
p214
sg6
S'Winners Announced for 2014 Film Independent Spirit Awards'
p215
sa(dp216
g2
S'http://www.reuters.com/article/2014/03/01/us-ukraine-crisis-idUSBREA1Q1E820140301'
p217
sg4
S'20140301\xc2\xa06:56PM UTC'
p218
sg6
S'Putin ready to invade Ukraine; Kiev warns of war'
p219
sa(dp220
g2
S'http://www.reuters.com/article/2014/03/01/hkn-jets-predators-recap-idUSMTZEA31S4EJV520140301'
p221
sg4
S'20140301\xc2\xa06:56PM UTC'
p222
sg6
S'Jets 3, Predators 1'
p223
sa(dp224
g2
S'http://www.reuters.com/article/2014/03/01/bkc-centralflorida-southernmethodist-rec-idUSMTZEA31S6CJX520140301'
p225
sg4
S'20140301\xc2\xa06:54PM UTC'
p226
sg6
S'Southern Methodist 70, Central Florida 55'
p227
sa(dp228
g2
S'http://www.reuters.com/article/2014/03/01/us-usa-parade-boston-idUSBREA200YL20140301'
p229
sg4
S'20140301\xc2\xa06:54PM UTC'
p230
sg6
S"Gay rights group gets OK to join Boston St. Patrick's Day parade"
p231
sa(dp232
g2
S'http://www.reuters.com/article/2014/03/01/us-soccer-england-idUSBREA200SJ20140301'
p233
sg4
S'20140301\xc2\xa06:47PM UTC'
p234
sg6
S'Pardew sees red, Chelsea and Liverpool march on'
p235
sa(dp236
g2
S'http://www.reuters.com/article/2014/03/01/peru-economy-reserves-idUSL1N0LY0N320140301'
p237
sg4
S'20140301\xc2\xa06:44PM UTC'
p238
sg6
S'Peru central bank lowers bank reserve requirements again'
p239
sa(dp240
g2
S'http://www.reuters.com/article/2014/03/01/bkc-creighton-xavier-recap-idUSMTZEA32S9KGEJ20140301'
p241
sg4
S'20140301\xc2\xa06:43PM UTC'
p242
sg6
S'Xavier 75, Creighton 69'
p243
sa(dp244
g2
S'http://www.reuters.com/article/2014/03/01/bkc-illinois-michiganst-writethru-idUSMTZEA31S62MWY20140301'
p245
sg4
S'20140301\xc2\xa06:43PM UTC'
p246
sg6
S'Illinois shuts down No. 18 Michigan State'
p247
sa(dp248
g2
S'http://www.reuters.com/article/2014/03/01/us-usa-iditarod-idUSBREA200B420140301'
p249
sg4
S'20140301\xc2\xa06:43PM UTC'
p250
sg6
S"Alaska's famed Iditarod sled-dog race starts with ceremonial jaunt"
p251
sa(dp252
g2
S'http://www.reuters.com/article/2014/03/01/us-china-attack-idUSBREA200OQ20140301'
p253
sg4
S'20140301\xc2\xa06:39PM UTC'
p254
sg6
S"At least 28 die in 'terrorist' attack at Chinese train station: reports"
p255
sa(dp256
g2
S'http://www.reuters.com/article/2014/03/01/us-china-attack-xinjiang-idUSBREA2010V20140301'
p257
sg4
S'20140301\xc2\xa06:39PM UTC'
p258
sg6
S'China blames Xinjiang militants for station attack'
p259
sa(dp260
g2
S'http://www.reuters.com/article/2014/03/01/bkc-georgia-arkansas-recap-idUSMTZEA31S6B0X220140301'
p261
sg4
S'20140301\xc2\xa06:37PM UTC'
p262
sg6
S'Arkansas 87, Georgia 75'
p263
sa(dp264
g2
S'http://www.reuters.com/article/2014/03/01/hkn-hurricanes-kings-recap-idUSMTZEA31S7BMXS20140301'
p265
sg4
S'20140301\xc2\xa06:35PM UTC'
p266
sg6
S'Kings 3, Hurricanes 1'
p267
sa(dp268
g2
S'http://www.reuters.com/article/2014/03/01/us-ukraine-crisis-un-idUSBREA200VJ20140301'
p269
sg4
S'20140301\xc2\xa06:34PM UTC'
p270
sg6
S'Russia, West trade accusations over Ukraine crisis at U.N'
p271
sa(dp272
g2
S'http://www.reuters.com/article/2014/03/01/us-usa-drought-california-idUSBREA2010G20140301'
p273
sg4
S'20140301\xc2\xa06:33PM UTC'
p274
sg6
S'California governor signs $687 million drought relief legislation'
p275
sa(dp276
g2
S'http://www.reuters.com/article/2014/03/01/us-ukraine-crisis-obama-calls-idUSBREA2010D20140301'
p277
sg4
S'20140301\xc2\xa06:31PM UTC'
p278
sg6
S"Obama speaks to France's Hollande, Canada's Harper on Ukraine: White House"
p279
sa(dp280
g2
S'http://www.reuters.com/article/2014/03/01/ukraine-crisis-idUSL6N0LY0BW20140301'
p281
sg4
S'20140301\xc2\xa06:30PM UTC'
p282
sg6
S'WRAPUP 8-Putin ready to invade Ukraine; Kiev warns of war'
p283
sa(dp284
g2
S'http://www.reuters.com/article/2014/03/01/bkc-northwestern-nebraska-recap-idUSMTZEA32S8YPEF20140301'
p285
sg4
S'20140301\xc2\xa06:30PM UTC'
p286
sg6
S'Nebraska 54, Northwestern 47'
p287
sa(dp288
g2
S'http://www.reuters.com/article/2014/03/01/us-ukraine-crisis-usa-options-analysis-idUSBREA2010520140301'
p289
sg4
S'20140301\xc2\xa06:30PM UTC'
p290
sg6
S'Obama, wary of foreign crises, faces East-West standoff in Ukraine'
p291
sa(dp292
g2
S'http://www.reuters.com/article/2014/03/01/usa-drought-california-idUSL1N0LY0NG20140301'
p293
sg4
S'20140301\xc2\xa06:29PM UTC'
p294
sg6
S'California governor signs $687 million drought relief legislation'
p295
sa(dp296
g2
S'http://www.reuters.com/article/2014/03/01/us-soccer-england-pardew-idUSBREA2010320140301'
p297
sg4
S'20140301\xc2\xa06:27PM UTC'
p298
sg6
S'Pardew fined by Newcastle for headbutting player'
p299
sa(dp300
g2
S'http://www.reuters.com/article/2014/03/01/bkc-syracuse-virginia-writethru-idUSMTZEA31S611WW20140301'
p301
sg4
S'20140301\xc2\xa06:27PM UTC'
p302
sg6
S'Virginia cruises by Syracuse for ACC title'
p303
sa(dp304
g2
S'http://www.reuters.com/article/2014/03/01/us-urkaine-crisis-maidan-doubts-idUSBREA200ZZ20140301'
p305
sg4
S'20140301\xc2\xa06:26PM UTC'
p306
sg6
S"At cradle of Revolution, doubts about Ukraine's leadership"
p307
sa(dp308
g2
S'http://www.reuters.com/article/2014/03/01/urkaine-crisis-maidan-idUSL6N0LY0SM20140301'
p309
sg4
S'20140301\xc2\xa06:23PM UTC'
p310
sg6
S"At cradle of Revolution, doubts about Ukraine's leadership"
p311
sa(dp312
g2
S'http://www.reuters.com/article/2014/03/01/bkc-texas-oklahoma-writethru-idUSMTZEA31S5SNWO20140301'
p313
sg4
S'20140301\xc2\xa06:17PM UTC'
p314
sg6
S'Oklahoma beats Texas from long range'
p315
sa(dp316
g2
S'http://www.reuters.com/article/2014/03/01/us-urkaine-crisis-putin-obama-idUSBREA200YB20140301'
p317
sg4
S'20140301\xc2\xa06:14PM UTC'
p318
sg6
S'Putin to Obama: Russia ready to protect interests in Ukraine'
p319
sa(dp320
g2
S'http://www.reuters.com/article/2014/03/01/urkaine-crisis-putin-obama-idUSL6N0LY0U220140301'
p321
sg4
S'20140301\xc2\xa06:13PM UTC'
p322
sg6
S'UPDATE 1-Putin to Obama: Russia ready to protect interests in Ukraine'
p323
sa(dp324
g2
S'http://www.reuters.com/article/2014/03/01/hkn-lightning-stars-writethru-idUSMTZEA31S5AAVU20140301'
p325
sg4
S'20140301\xc2\xa06:13PM UTC'
p326
sg6
S'Lighting go up early, hang on vs. Stars'
p327
sa(dp328
g2
S'http://www.reuters.com/article/2014/03/01/us-ukraine-crisis-hagel-idUSBREA200ZC20140301'
p329
sg4
S'20140301\xc2\xa05:54PM UTC'
p330
sg6
S'U.S. tells Russia: Ukraine intervention risks dangerous escalation'
p331
sa(dp332
g2
S'http://www.reuters.com/article/2014/03/01/bkc-southflorida-rutgers-recap-idUSMTZEA31RVKAE120140301'
p333
sg4
S'20140301\xc2\xa05:52PM UTC'
p334
sg6
S'Rutgers 74, South Florida 73'
p335
sa(dp336
g2
S'http://www.reuters.com/article/2014/03/01/bkc-bostoncollege-wakeforest-recap-idUSMTZEA31S6Y8XQ20140301'
p337
sg4
S'20140301\xc2\xa05:47PM UTC'
p338
sg6
S'Boston College 80, Wake Forest 72'
p339
sa(dp340
g2
S'http://www.reuters.com/article/2014/03/01/idUSnMKWLsqwla+1e0+MKW20140301'
p341
sg4
S'20140301\xc2\xa05:44PM UTC'
p342
sg6
S'Vancouver Child and Youth Advocacy Centre Society Receives Funding from the Federal Government'
p343
sa(dp344
g2
S'http://www.reuters.com/article/2014/03/01/idUSnCCN7PzkL3+1d2+MKW20140301'
p345
sg4
S'20140301\xc2\xa05:44PM UTC'
p346
sg6
S'Vancouver Child and Youth Advocacy Centre Society Receives Funding from the Federal Government'
p347
sa(dp348
g2
S'http://www.reuters.com/article/2014/03/01/bkc-auburn-alabama-recap-idUSMTZEA31S3PJU620140301'
p349
sg4
S'20140301\xc2\xa05:44PM UTC'
p350
sg6
S'Alabama 73, Auburn 57'
p351
sa(dp352
g2
S'http://www.reuters.com/article/2014/03/01/us-ukraine-crisis-obama-putin-idUSBREA200Z220140301'
p353
sg4
S'20140301\xc2\xa05:33PM UTC'
p354
sg6
S'Obama expresses deep concern to Putin on Ukraine'
p355
sa(dp356
g2
S'http://www.reuters.com/article/2014/03/01/china-attack-idUSL3N0LY0A120140301'
p357
sg4
S'20140301\xc2\xa05:32PM UTC'
p358
sg6
S'UPDATE 6-At least 28 die in "terrorist" attack at Chinese train station -reports'
p359
sa(dp360
g2
S'http://www.reuters.com/article/2014/03/01/us-pakistan-swat-idUSBREA200WU20140301'
p361
sg4
S'20140301\xc2\xa05:31PM UTC'
p362
sg6
S'Pakistani army fuels anger in securing Swat from Taliban'
p363
sa(dp364
g2
S'http://www.reuters.com/article/2014/03/01/bkc-pittsburgh-notredame-recap-idUSMTZEA31S1Y5PN20140301'
p365
sg4
S'20140301\xc2\xa05:31PM UTC'
p366
sg6
S'Pittsburgh 85, Notre Dame 81 (OT)'
p367
sa(dp368
g2
S'http://www.reuters.com/article/2014/03/01/us-ukraine-crisis-france-idUSBREA200S220140301'
p369
sg4
S'20140301\xc2\xa05:29PM UTC'
p370
sg6
S'West voices alarm on Crimea, urges Russia to respect Ukraine sovereignty'
p371
sa(dp372
g2
S'http://www.reuters.com/article/2014/03/01/us-pakistan-polio-attack-idUSBREA200AA20140301'
p373
sg4
S'20140301\xc2\xa05:27PM UTC'
p374
sg6
S'Militant ambush kills 12 of polio workers escort in Pakistan'
p375
sa(dp376
g2
S'http://www.reuters.com/article/2014/03/01/us-nigeria-violence-idUSBREA200VM20140301'
p377
sg4
S'20140301\xc2\xa05:24PM UTC'
p378
sg6
S'Bomb kills at least 10 in northeast Nigerian city: witnesses'
p379
sa(dp380
g2
S'http://www.reuters.com/article/2014/03/01/us-turkey-corruption-idUSBREA2005220140301'
p381
sg4
S'20140301\xc2\xa05:24PM UTC'
p382
sg6
S'Turkish parliament votes to shut schools run by Erdogan rival'
p383
sa(dp384
g2
S'http://www.reuters.com/article/2014/03/01/bkc-vanderbilt-tennessee-recap-idUSMTZEA31RW2KE420140301'
p385
sg4
S'20140301\xc2\xa05:15PM UTC'
p386
sg6
S'Tennessee 76, Vanderbilt 38'
p387
sa(dp388
g2
S'http://www.reuters.com/article/2014/03/01/us-ukraine-crisis-balaclava-idUSBREA200Y520140301'
p389
sg4
S'20140301\xc2\xa05:11PM UTC'
p390
sg6
S'Sleepy Crimean port turns out for Russian troops'
p391
sa(dp392
g2
S'http://www.reuters.com/article/2014/03/01/bkc-northcarolina-virginiatech-recap-idUSMTZEA31S1UWPH20140301'
p393
sg4
S'20140301\xc2\xa05:09PM UTC'
p394
sg6
S'North Carolina 60, Virginia Tech 56'
p395
sa(dp396
g2
S'http://www.reuters.com/article/2014/03/01/us-oscars-weather-idUSBREA2000020140301'
p397
sg4
S'20140301\xc2\xa05:07PM UTC'
p398
sg6
S'Fashion disaster? Downpour douses Oscars red carpet'
p399
sa(dp400
g2
S'http://www.reuters.com/article/2014/03/01/bkc-louisville-memphis-writethru-idUSMTZEA31S1CLPA20140301'
p401
sg4
S'20140301\xc2\xa05:06PM UTC'
p402
sg6
S'Memphis rallies to knock off Louisville 72-66'
p403
sa(dp404
g2
S'http://www.reuters.com/article/2014/03/01/urkaine-crisis-putin-obama-idUSL6N0LY0SZ20140301'
p405
sg4
S'20140301\xc2\xa05:06PM UTC'
p406
sg6
S'Putin tells Obama Russia has right to protect interests in Ukraine'
p407
sa(dp408
g2
S'http://www.reuters.com/article/2014/03/01/us-urges-immediate-deployment-of-un-moni-idUSBREA200XS20140301'
p409
sg4
S'20140301\xc2\xa04:58PM UTC'
p410
sg6
S'U.S. urges immediate deployment of U.N. monitors to Ukraine'
p411
sa(dp412
g2
S'http://www.reuters.com/article/2014/03/01/bkc-missourist-wichitast-recap-idUSMTZEA31S148O820140301'
p413
sg4
S'20140301\xc2\xa04:56PM UTC'
p414
sg6
S'Wichita State 68, Missouri State 45'
p415
sa(dp416
g2
S'http://www.reuters.com/article/2014/03/01/hkn-devils-islanders-writethru-idUSMTZEA31RZCVJW20140301'
p417
sg4
S'20140301\xc2\xa04:43PM UTC'
p418
sg6
S'Jagr scores 700th as Devils roll'
p419
sa(dp420
g2
S'http://www.reuters.com/article/2014/03/01/bkc-cincinnati-connecticut-recap-idUSMTZEA31RVZAE220140301'
p421
sg4
S'20140301\xc2\xa04:43PM UTC'
p422
sg6
S'Connecticut 51, Cincinnati 45'
p423
sa(dp424
g2
S'http://www.reuters.com/article/2014/03/01/us-spiritawards-idUSBREA200QL20140301'
p425
sg4
S'20140301\xc2\xa04:39PM UTC'
p426
sg6
S"'12 Years a Slave' poised for Spirit Awards wins, ahead of Oscars"
p427
sa(dp428
g2
S'http://www.reuters.com/article/2014/03/01/us-ukraine-crisis-nato-meeting-idUSBREA200XD20140301'
p429
sg4
S'20140301\xc2\xa04:27PM UTC'
p430
sg6
S"NATO ambassadors to discuss Ukraine on Sunday: NATO's Rasmussen"
p431
sa(dp432
g2
S'http://www.reuters.com/article/2014/03/01/hkn-rangers-flyers-writethru-idUSMTZEA31RZ2UIR20140301'
p433
sg4
S'20140301\xc2\xa04:20PM UTC'
p434
sg6
S'Flyers bounce back, beat Rangers'
p435
sa(dp436
g2
S'http://www.reuters.com/article/2014/03/01/us-nhl-devils-jagr-idUSBREA200X420140301'
p437
sg4
S'20140301\xc2\xa04:13PM UTC'
p438
sg6
S'Jagr becomes seventh player to score 700 league goals'
p439
sa(dp440
g2
S'http://www.reuters.com/article/2014/03/01/collegiate-licensing-idUSnPnCLwD7zY+169+PRN20140301'
p441
sg4
S'20140301\xc2\xa04:10PM UTC'
p442
sg6
S"Virginia 'Hoo Crew Wins 2014 Naismith Student Section of the Year Award"
p443
sa(dp444
g2
S'http://www.reuters.com/article/2014/03/01/us-usa-dam-washingtonstate-idUSBREA200JD20140301'
p445
sg4
S'20140301\xc2\xa04:09PM UTC'
p446
sg6
S'Crack found in dam in Washington state, authorities lower water levels'
p447
sa(dp448
g2
S'http://www.reuters.com/article/2014/03/01/indonesia-massacre-idUSL3N0LX1C920140301'
p449
sg4
S'20140301\xc2\xa04:00PM UTC'
p450
sg6
S'RPT-FEATURE-Oscar-nominated documentary scrapes at raw wound in Indonesia'
p451
sa(dp452
g2
S'http://www.reuters.com/article/2014/03/01/hkn-capitals-bruins-writethru-idUSMTZEA31RZ1BIQ20140301'
p453
sg4
S'20140301\xc2\xa03:59PM UTC'
p454
sg6
S'Ovechkin scores twice, Caps beat Bruins'
p455
sa(dp456
g2
S'http://www.reuters.com/article/2014/03/01/peru-mining-politics-idUSL1N0LY0F320140301'
p457
sg4
S'20140301\xc2\xa03:59PM UTC'
p458
sg6
S"CORRECTED-Peru's VP says local people still have reservations about Conga gold mine"
p459
sa(dp460
g2
S'http://www.reuters.com/article/2014/03/01/hkn-panthers-bluejackets-recap-idUSMTZEA31S1X1PI20140301'
p461
sg4
S'20140301\xc2\xa03:58PM UTC'
p462
sg6
S'Blue Jackets 6, Panthers 3'
p463
sa(dp464
g2
S'http://www.reuters.com/article/2014/03/01/us-ukraine-crisis-government-nato-idUSBREA200WS20140301'
p465
sg4
S'20140301\xc2\xa03:57PM UTC'
p466
sg6
S'Ukraine wants NATO to look at how to protect territorial integrity'
p467
sa(dp468
g2
S'http://www.reuters.com/article/2014/03/01/ukraine-crisis-government-nato-idUSL6N0LY0RQ20140301'
p469
sg4
S'20140301\xc2\xa03:55PM UTC'
p470
sg6
S'Ukraine wants NATO to look at how to protect territorial integrity'
p471
sa(dp472
g2
S'http://www.reuters.com/article/2014/03/01/us-sprint-executive-adib-idUSBREA200WH20140301'
p473
sg4
S'20140301\xc2\xa03:50PM UTC'
p474
sg6
S'Exclusive: Fared Adib, senior Sprint executive, departing - memo'
p475
sa(dp476
g2
S'http://www.reuters.com/article/2014/03/01/us-ukraine-crisis-obama-idUSBREA200W120140301'
p477
sg4
S'20140301\xc2\xa03:48PM UTC'
p478
sg6
S'Obama national security aides discuss policy options for Ukraine'
p479
sa(dp480
g2
S'http://www.reuters.com/article/2014/03/01/bkc-texastech-baylor-recap-idUSMTZEA31RZWXKZ20140301'
p481
sg4
S'20140301\xc2\xa03:42PM UTC'
p482
sg6
S'Baylor 59, Texas Tech 49'
p483
sa(dp484
g2
S'http://www.reuters.com/article/2014/03/01/us-ukraine-crisis-maidan-idUSBREA200W920140301'
p485
sg4
S'20140301\xc2\xa03:37PM UTC'
p486
sg6
S"The day Ukraine's 'Maidan' lost control"
p487
sa(dp488
g2
S'http://www.reuters.com/article/2014/03/01/ukraine-crisis-idUSL3N0LY09020140301'
p489
sg4
S'20140301\xc2\xa03:29PM UTC'
p490
sg6
S'The day Ukraine\'s "Maidan" lost control'
p491
sa(dp492
g2
S'http://www.reuters.com/article/2014/03/01/bkc-colorado-utah-recap-idUSMTZEA31S0F5MC20140301'
p493
sg4
S'20140301\xc2\xa03:26PM UTC'
p494
sg6
S'Utah 75, Colorado 64'
p495
sa(dp496
g2
S'http://www.reuters.com/article/2014/03/01/us-ukraine-crisis-warships-idUSBREA200VA20140301'
p497
sg4
S'20140301\xc2\xa03:21PM UTC'
p498
sg6
S'Two Russian warships seen off Ukraine coast, violate agreement: Interfax'
p499
sa(dp500
g2
S'http://www.reuters.com/article/2014/03/01/ukraine-crisis-warships-idUSL6N0LY0R720140301'
p501
sg4
S'20140301\xc2\xa03:20PM UTC'
p502
sg6
S'Two Russian warships seen off Ukraine coast, violate agreement-Interfax'
p503
sa(dp504
g2
S'http://www.reuters.com/article/2014/03/01/us-tennis-men-dubai-idUSBREA200NX20140301'
p505
sg4
S'20140301\xc2\xa03:16PM UTC'
p506
sg6
S'Federer subdues Berdych to win sixth Dubai title'
p507
sa(dp508
g2
S'http://www.reuters.com/article/2014/03/01/us-ecobank-idUSBREA200MK20140301'
p509
sg4
S'20140301\xc2\xa02:55PM UTC'
p510
sg6
S"Exclusive: Ecobank CEO's contract must be terminated immediately - PIC letter"
p511
sa(dp512
g2
S'http://www.reuters.com/article/2014/03/01/bkc-texaschristian-westvirginia-recap-idUSMTZEA31RYW6IO20140301'
p513
sg4
S'20140301\xc2\xa02:53PM UTC'
p514
sg6
S'West Virginia 81, Texas Christian 59'
p515
sa(dp516
g2
S'http://www.reuters.com/article/2014/03/01/us-ukraine-crisis-military-idUSBREA200UG20140301'
p517
sg4
S'20140301\xc2\xa02:42PM UTC'
p518
sg6
S'Ukraine puts forces on combat alert, warns of war'
p519
sa(dp520
g2
S'http://www.reuters.com/article/2014/03/01/us-berkshire-results-idUSBREA200EX20140301'
p521
sg4
S'20140301\xc2\xa02:41PM UTC'
p522
sg6
S'Upbeat Buffett eyes big acquisitions after record Berkshire profit'
p523
sa(dp524
g2
S'http://www.reuters.com/article/2014/03/01/us-buffett-letter-munis-idUSBREA200U920140301'
p525
sg4
S'20140301\xc2\xa02:41PM UTC'
p526
sg6
S'Buffett says more bad news on pension funds during next decade'
p527
sa(dp528
g2
S'http://www.reuters.com/article/2014/03/01/ukraine-crisis-military-idUSL6N0LY0Q120140301'
p529
sg4
S'20140301\xc2\xa02:39PM UTC'
p530
sg6
S'Ukraine puts forces on combat alert, warns of war'
p531
sa(dp532
g2
S'http://www.reuters.com/article/2014/03/01/buffett-letter-munis-idUSL1N0LY0BT20140301'
p533
sg4
S'20140301\xc2\xa02:37PM UTC'
p534
sg6
S'Buffett says more bad news on pension funds during next decade'
p535
sa(dp536
g2
S'http://www.reuters.com/article/2014/03/01/tn-bridgestone-launch-idUSnPnCLwJSwv+16c+PRN20140301'
p537
sg4
S'20140301\xc2\xa02:30PM UTC'
p538
sg6
S'Fuel The Cause To Transform Green Spaces: Bridgestone Americas Launches Consumer Contest'
p539
sa(dp540
g2
S'http://www.reuters.com/article/2014/03/01/us-china-attack-deaths-idUSBREA200TP20140301'
p541
sg4
S'20140301\xc2\xa02:29PM UTC'
p542
sg6
S'Suspects shot dead in China station attack: Xinhua'
p543
sa(dp544
g2
S'http://www.reuters.com/article/2014/03/01/us-russia-gay-games-idUSBREA200TG20140301'
p545
sg4
S'20140301\xc2\xa02:24PM UTC'
p546
sg6
S'Moscow gay athletic games suffer disruption, harassment'
p547
sa(dp548
g2
S'http://www.reuters.com/article/2014/03/01/us-ukraine-crisis-britain-idUSBREA200ND20140301'
p549
sg4
S'20140301\xc2\xa02:17PM UTC'
p550
sg6
S"Britain says 'no excuse' for military intervention in Ukraine"
p551
sa(dp552
g2
S'http://www.reuters.com/article/2014/03/01/us-venezuela-protests-idUSBREA200QV20140301'
p553
sg4
S'20140301\xc2\xa02:15PM UTC'
p554
sg6
S'Venezuela foreign minister to meet Ban Ki-moon in Geneva'
p555
sa(dp556
g2
S'http://www.reuters.com/article/2014/03/01/idUSnMKWmJ6Dba+1d4+MKW20140301'
p557
sg4
S'20140301\xc2\xa02:10PM UTC'
p558
sg6
S'Media Advisory: Parliamentary Secretary Kelly Block to Address the Brazil-Canada Chamber of Commerce'
p559
sa(dp560
g2
S'http://www.reuters.com/article/2014/03/01/idUSnCCN1TcVfX+1d5+MKW20140301'
p561
sg4
S'20140301\xc2\xa02:10PM UTC'
p562
sg6
S'Media Advisory: Parliamentary Secretary Kelly Block to Address the Brazil-Canada Chamber of Commerce'
p563
sa(dp564
g2
S'http://www.reuters.com/article/2014/03/01/us-motor-racing-testing-idUSBREA200S520140301'
p565
sg4
S'20140301\xc2\xa02:06PM UTC'
p566
sg6
S'Massa on top for Williams, Vettel sidelined'
p567
sa(dp568
g2
S'http://www.reuters.com/article/2014/03/01/us-pabst-sale-idUSBREA200R320140301'
p569
sg4
S'20140301\xc2\xa02:03PM UTC'
p570
sg6
S"Exclusive: Dean Metropoulos' Pabst Brewing seeks buyer - sources"
p571
sa(dp572
g2
S'http://www.reuters.com/article/2014/03/01/motor-racing-testing-idUSL3N0LY0AK20140301'
p573
sg4
S'20140301\xc2\xa02:02PM UTC'
p574
sg6
S'Motor racing-Massa on top for Williams, Vettel sidelined'
p575
sa(dp576
g2
S'http://www.reuters.com/article/2014/03/01/us-ukraine-crisis-russia-ashton-idUSBREA200RW20140301'
p577
sg4
S'20140301\xc2\xa02:00PM UTC'
p578
sg6
S"EU's Ashton urges Russia not to dispatch troops to Ukraine"
p579
sa(dp580
g2
S'http://www.reuters.com/article/2014/03/01/ukraine-crisis-france-idUSL6N0LY0AW20140301'
p581
sg4
S'20140301\xc2\xa02:00PM UTC'
p582
sg6
S'UPDATE 4-West voices alarm on Crimea, calls on Russia to respect Ukraine sovereignty'
p583
sa(dp584
g2
S'http://www.reuters.com/article/2014/03/01/us-ukraine-crisis-usa-military-idUSBREA200PT20140301'
p585
sg4
S'20140301\xc2\xa01:59PM UTC'
p586
sg6
S'U.S., Russian defense chiefs talk amid Russian moves on Crimea'
p587
sa(dp588
g2
S'http://www.reuters.com/article/2014/03/01/us-ukraine-crisis-nato-idUSBREA200RK20140301'
p589
sg4
S'20140301\xc2\xa01:52PM UTC'
p590
sg6
S"Russia must respect Ukraine's sovereignty: NATO chief"
p591
sa(dp592
g2
S'http://www.reuters.com/article/2014/03/01/us-ukraine-crsis-speaker-idUSBREA200RG20140301'
p593
sg4
S'20140301\xc2\xa01:52PM UTC'
p594
sg6
S'Russian speaker warns Kiev against using force in east, Crimea: parliament'
p595
sa(dp596
g2
S'http://www.reuters.com/article/2014/03/01/ukraine-crsis-speaker-idUSL6N0LY0NY20140301'
p597
sg4
S'20140301\xc2\xa01:46PM UTC'
p598
sg6
S'Russian speaker warns Kiev against using force in east, Crimea-parliament'
p599
sa(dp600
g2
S'http://www.reuters.com/article/2014/03/01/az-physiciansforcivil-idUSnPnDCwJRtR+16d+PRN20140301'
p601
sg4
S'20140301\xc2\xa01:44PM UTC'
p602
sg6
S'WW III Imminent? Doctors Urge Preparedness'
p603
sa(dp604
g2
S'http://www.reuters.com/article/2014/03/01/film-spiritawards-idUSL1N0LY0DX20140301'
p605
sg4
S'20140301\xc2\xa01:30PM UTC'
p606
sg6
S"'12 Years a Slave' poised for Spirit Awards wins, ahead of Oscars"
p607
sa(dp608
g2
S'http://www.reuters.com/article/2014/03/01/amgen-at-cowen-conf-idUSnPnLAwJQtv+16c+PRN20140301'
p609
sg4
S'20140301\xc2\xa01:26PM UTC'
p610
sg6
S'Amgen To Present At The Cowen And Company 34th Annual Healthcare Conference'
p611
sa(dp612
g2
S'http://www.reuters.com/article/2014/03/01/us-berkshire-results-energyfuture-idUSBREA200QG20140301'
p613
sg4
S'20140301\xc2\xa01:22PM UTC'
p614
sg6
S'Warren Buffett admits to rare investing blunder'
p615
sa(dp616
g2
S'http://www.reuters.com/article/2014/03/01/us-golf-pga-woods-idUSBREA200Q020140301'
p617
sg4
S'20140301\xc2\xa01:19PM UTC'
p618
sg6
S'Tiger Woods shoots pleasing 65 at Honda Classic'
p619
sa(dp620
g2
S'http://www.reuters.com/article/2014/03/01/ny-ej-sterling-idUSnBw015013a+100+BSW20140301'
p621
sg4
S'20140301\xc2\xa01:15PM UTC'
p622
sg6
S'EJ Sterling, LLC Reviews the Definition of the American Dream with the Addition of Akhil Morada'
p623
sa(dp624
g2
S'http://www.reuters.com/article/2014/03/01/us-usa-income-washington-idUSBREA200B120140301'
p625
sg4
S'20140301\xc2\xa01:01PM UTC'
p626
sg6
S'To see U.S. wealth gap, look no further than Washington'
p627
sa(dp628
g2
S'http://www.reuters.com/article/2014/03/01/idUSnMKWNCTlYa+1fa+MKW20140301'
p629
sg4
S'20140301\xc2\xa01:00PM UTC'
p630
sg6
S'Canada a Leader in Leveraging Private Sector Investment to Stimulate Economic Growth, Create Jobs and Eradicate Poverty'
p631
sa(dp632
g2
S'http://www.reuters.com/article/2014/03/01/idUSnCCN954rWW+1c3+MKW20140301'
p633
sg4
S'20140301\xc2\xa01:00PM UTC'
p634
sg6
S'Canada a Leader in Leveraging Private Sector Investment to Stimulate Economic Growth, Create Jobs and Eradicate Poverty'
p635
sa(dp636
g2
S'http://www.reuters.com/article/2014/03/01/us-china-attack-terror-idUSBREA200PG20140301'
p637
sg4
S'20140301\xc2\xa012:58PM UTC'
p638
sg6
S"Attack at China station deemed 'violent terror attack'"
p639
sa(dp640
g2
S'http://www.reuters.com/article/2014/03/01/us-egypt-wheat-ukraine-idUSBREA200P420140301'
p641
sg4
S'20140301\xc2\xa012:51PM UTC'
p642
sg6
S'Ukraine turmoil will not disrupt Egypt wheat imports: official'
p643
sa(dp644
g2
S'http://www.reuters.com/article/2014/03/01/noble-corp-rig-status-idUSnPnLAwJBrZ+16d+PRN20140301'
p645
sg4
S'20140301\xc2\xa012:47PM UTC'
p646
sg6
S'Noble Corporation Updates Rig Status'
p647
sa(dp648
g2
S'http://www.reuters.com/article/2014/03/01/ca-csl-behring-study-idUSnPnNYwv8rX+161+PRN20140301'
p649
sg4
S'20140301\xc2\xa012:45PM UTC'
p650
sg6
S'Patient Satisfaction and Convenience Increased with Current Hereditary Angioedema Treatment Options, According to Study Findings'
p651
sa(dp652
g2
S'http://www.reuters.com/article/2014/03/01/mylan-specialty-prsnt-idUSnPnNEwCfrX+169+PRN20140301'
p653
sg4
S'20140301\xc2\xa012:45PM UTC'
p654
sg6
S"Mylan Specialty to Present Poster Presentations about an Individual's Risk of Anaphylaxis at Upcoming Medical Meeting"
p655
sa(dp656
g2
S'http://www.reuters.com/article/2014/03/01/ct-boehringer-phase-idUSnPnNYwpmrX+161+PRN20140301'
p657
sg4
S'20140301\xc2\xa012:45PM UTC'
p658
sg6
S'Boehringer Ingelheim Presents Phase 3 Data for Tiotropium Across Asthma Severities'
p659
sa(dp660
g2
S'http://www.reuters.com/article/2014/03/01/prntest-idUSnPnHSTEST1+17e+PRN20140301'
p661
sg4
S'20140301\xc2\xa012:30PM UTC'
p662
sg6
S'Following Is a Test Release'
p663
sa(dp664
g2
S'http://www.reuters.com/article/2014/03/01/us-iraq-violence-un-idUSBREA200O220140301'
p665
sg4
S'20140301\xc2\xa012:23PM UTC'
p666
sg6
S'Iraq death toll exceeds 700 in February: U.N.'
p667
sa(dp668
g2
S'http://www.reuters.com/article/2014/03/01/us-usa-politics-obama-idUSBREA1R13A20140301'
p669
sg4
S'20140301\xc2\xa012:17PM UTC'
p670
sg6
S'Obama preaches unity to Democrats at winter meeting'
p671
sa(dp672
g2
S'http://www.reuters.com/article/2014/03/01/us-usa-arctic-navy-idUSBREA1Q2DU20140301'
p673
sg4
S'20140301\xc2\xa012:15PM UTC'
p674
sg6
S'U.S. Navy eyes greater presence in Arctic'
p675
sa(dp676
g2
S'http://www.reuters.com/article/2014/03/01/us-ukraine-crisis-peskov-idUSBREA200NQ20140301'
p677
sg4
S'20140301\xc2\xa012:15PM UTC'
p678
sg6
S'Putin yet to decide on using Russian troops in Ukraine: Kremlin'
p679
sa(dp680
g2
S'http://www.reuters.com/article/2014/03/01/ukraine-crisis-peskov-idUSL6N0LY0KX20140301'
p681
sg4
S'20140301\xc2\xa012:13PM UTC'
p682
sg6
S'Putin yet to decide on using Russian troops in Ukraine-Kremlin'
p683
sa(dp684
g2
S'http://www.reuters.com/article/2014/03/01/idUS361927809320140301'
p685
sg4
S'20140301\xc2\xa012:09PM UTC'
p686
sg6
S'Thai Buddhist monk fights on even as anti-government protesters scale back'
p687
sa(dp688
g2
S'http://www.reuters.com/article/2014/03/01/idUSnGNX32QVLH+1cf+GNW20140301'
p689
sg4
S'20140301\xc2\xa011:58AM UTC'
p690
sg6
S'BioCryst Presents BCX4161 Phase 1 Trial and Kallikrein Inhibition Assay Results'
p691
sa(dp692
g2
S'http://www.reuters.com/article/2014/03/01/us-golf-european-idUSBREA200MO20140301'
p693
sg4
S'20140301\xc2\xa011:43AM UTC'
p694
sg6
S'Runaway leader Fisher angling for Tshwane Open title'
p695
sa(dp696
g2
S'http://www.reuters.com/article/2014/03/01/us-ukraine-crisis-un-idUSBREA200M920140301'
p697
sg4
S'20140301\xc2\xa011:26AM UTC'
p698
sg6
S'U.N. Security Council to hold urgent meeting on Ukraine crisis'
p699
sa(dp700
g2
S'http://www.reuters.com/article/2014/03/01/us-ukraine-crisis-kharkiv-idUSBREA200LU20140301'
p701
sg4
S'20140301\xc2\xa011:23AM UTC'
p702
sg6
S'Protesters raise Russian flag in two east Ukrainian cities'
p703
sa(dp704
g2
S'http://www.reuters.com/article/2014/03/01/us-europe-socialists-idUSBREA200LF20140301'
p705
sg4
S'20140301\xc2\xa011:14AM UTC'
p706
sg6
S'European center-left launches election drive, attacks austerity'
p707
sa(dp708
g2
S'http://www.reuters.com/article/2014/03/01/ecobank-idUSL6N0LY0IJ20140301'
p709
sg4
S'20140301\xc2\xa011:11AM UTC'
p710
sg6
S"Ecobank CEO's contract must be terminated immediately -PIC letter"
p711
sa(dp712
g2
S'http://www.reuters.com/article/2014/03/01/europe-socialists-idUSL6N0LY0ES20140301'
p713
sg4
S'20140301\xc2\xa011:08AM UTC'
p714
sg6
S'European centre-left launches election drive, attacks austerity'
p715
sa(dp716
g2
S'http://www.reuters.com/article/2014/03/01/us-ukraine-crisis-klitschko-idUSBREA200L720140301'
p717
sg4
S'20140301\xc2\xa011:06AM UTC'
p718
sg6
S"Ukraine's Klitschko calls for 'general mobilization'"
p719
sa(dp720
g2
S'http://www.reuters.com/article/2014/03/01/ukraine-crisis-klitschko-idUSL6N0LY0IV20140301'
p721
sg4
S'20140301\xc2\xa011:04AM UTC'
p722
sg6
S'Ukraine\'s Klitschko calls for "general mobilisation"'
p723
sa(dp724
g2
S'http://www.reuters.com/article/2014/03/01/us-spain-soros-paulson-idUSBREA200KW20140301'
p725
sg4
S'20140301\xc2\xa011:03AM UTC'
p726
sg6
S'Soros, Paulson in Spanish property REITs investments - FT'
p727
sa(dp728
g2
S'http://www.reuters.com/article/2014/03/01/us-ukraine-crisis-kremlin-idUSBREA200KS20140301'
p729
sg4
S'20140301\xc2\xa011:01AM UTC'
p730
sg6
S'Kremlin rep says consent to use Russian troops in Ukraine does not mean quick move'
p731
sa(dp732
g2
S'http://www.reuters.com/article/2014/03/01/us-ukraine-crisis-us-idUSBREA200KN20140301'
p733
sg4
S'20140301\xc2\xa011:00AM UTC'
p734
sg6
S'Upper house to demand recall of Moscow ambassador to U.S.'
p735
sa(dp736
g2
S'http://www.reuters.com/article/2014/03/01/us-eu-ukraine-idUSBREA200KG20140301'
p737
sg4
S'20140301\xc2\xa011:00AM UTC'
p738
sg6
S'EU foreign ministers to hold emergency Ukraine talks on Monday'
p739
sa(dp740
g2
S'http://www.reuters.com/article/2014/03/01/ukraine-crisis-kremlin-idUSL6N0LY0I920140301'
p741
sg4
S'20140301\xc2\xa010:59AM UTC'
p742
sg6
S'Kremlin rep says consent to use Russian troops in Ukraine does not mean quick move'
p743
sa(dp744
g2
S'http://www.reuters.com/article/2014/03/01/spain-soros-paulson-idUSL6N0LY0F420140301'
p745
sg4
S'20140301\xc2\xa010:58AM UTC'
p746
sg6
S'Soros, Paulson in Spanish property REITs investments - FT'
p747
sa(dp748
g2
S'http://www.reuters.com/article/2014/03/01/ukraine-crisis-us-idUSL6N0LY0HP20140301'
p749
sg4
S'20140301\xc2\xa010:55AM UTC'
p750
sg6
S'Upper house to demand recall of Moscow ambassador to U.S.'
p751
sa(dp752
g2
S'http://www.reuters.com/article/2014/03/01/eu-ukraine-idUSL6N0LY0II20140301'
p753
sg4
S'20140301\xc2\xa010:54AM UTC'
p754
sg6
S'EU foreign ministers to hold emergency Ukraine talks on Monday'
p755
sa(dp756
g2
S'http://www.reuters.com/article/2014/03/01/us-soccer-fifa-world-idUSBREA200JY20140301'
p757
sg4
S'20140301\xc2\xa010:51AM UTC'
p758
sg6
S'Brazil has left FIFA with a huge challenge says Valcke'
p759
sa(dp760
g2
S'http://www.reuters.com/article/2014/03/01/us-soccer-ifab-idUSBREA200AI20140301'
p761
sg4
S'20140301\xc2\xa010:50AM UTC'
p762
sg6
S'Law-making IFAB bans players displaying any slogans'
p763
sa(dp764
g2
S'http://www.reuters.com/article/2014/03/01/us-soccer-ifab-triple-idUSBREA200JW20140301'
p765
sg4
S'20140301\xc2\xa010:50AM UTC'
p766
sg6
S'IFAB reject UEFA request to change triple punishment'
p767
sa(dp768
g2
S'http://www.reuters.com/article/2014/03/01/us-japan-refinery-fire-idUSBREA200JR20140301'
p769
sg4
S'20140301\xc2\xa010:49AM UTC'
p770
sg6
S'TonenGeneral Kawasaki cracker on fire, refining normal elsewhere'
p771
sa(dp772
g2
S'http://www.reuters.com/article/2014/03/01/japan-refinery-fire-idUSL3N0LY05I20140301'
p773
sg4
S'20140301\xc2\xa010:45AM UTC'
p774
sg6
S'UPDATE 2-TonenGeneral Kawasaki cracker on fire, refining normal elsewhere'
p775
sa(dp776
g2
S'http://www.reuters.com/article/2014/03/01/us-pakistan-taliban-ceasefire-idUSBREA200DM20140301'
p777
sg4
S'20140301\xc2\xa010:37AM UTC'
p778
sg6
S'Pakistani Taliban announces ceasefire to revive peace talks'
p779
sa(dp780
g2
S'http://www.reuters.com/article/2014/03/01/us-macedonia-vote-idUSBREA200JH20140301'
p781
sg4
S'20140301\xc2\xa010:37AM UTC'
p782
sg6
S'Macedonia poised for early parliamentary vote after ruling coalition spat'
p783
sa(dp784
g2
S'http://www.reuters.com/article/2014/03/01/us-ukraine-crisis-troops-idUSBREA200J720140301'
p785
sg4
S'20140301\xc2\xa010:31AM UTC'
p786
sg6
S'Russian upper house approves use of troops on Ukrainian soil'
p787
sa(dp788
g2
S'http://www.reuters.com/article/2014/03/01/us-berkshire-results-factbox-idUSBREA200J220140301'
p789
sg4
S'20140301\xc2\xa010:30AM UTC'
p790
sg6
S"Factbox: Highlights from Berkshire Hathaway's annual letter"
p791
sa(dp792
g2
S'http://www.reuters.com/article/2014/03/01/dc-nascar-keselowski-idUSnBw015008a+100+BSW20140301'
p793
sg4
S'20140301\xc2\xa010:30AM UTC'
p794
sg6
S'Paralyzed Veterans of America Announces NASCAR Driver Brad Keselowski as Partner in \xe2\x80\x98Wheels Helping Warriors\xe2\x80\x99 Program'
p795
sa(dp796
g2
S'http://www.reuters.com/article/2014/03/01/ukraine-crisis-troops-idUSL6N0LY0HG20140301'
p797
sg4
S'20140301\xc2\xa010:27AM UTC'
p798
sg6
S'Russian upper house approves use of troops on Ukrainian soil'
p799
sa(dp800
g2
S'http://www.reuters.com/article/2014/03/01/pakistan-taliban-ceasefire-idUSL3N0LY07B20140301'
p801
sg4
S'20140301\xc2\xa010:17AM UTC'
p802
sg6
S'UPDATE 2-Pakistani Taliban announces ceasefire to revive peace talks'
p803
sa(dp804
g2
S'http://www.reuters.com/article/2014/03/01/us-ukraine-crisis-security-idUSBREA200IC20140301'
p805
sg4
S'20140301\xc2\xa010:11AM UTC'
p806
sg6
S'Ukrainian security chiefs to meet as tension mounts in Crimea'
p807
sa(dp808
g2
S'http://www.reuters.com/article/2014/03/01/bancopopolare-capitalhike-idUSL6N0LY0D320140301'
p809
sg4
S'20140301\xc2\xa010:06AM UTC'
p810
sg6
S'Banco Popolare approves cap hike to be launched on March 31'
p811
sa(dp812
g2
S'http://www.reuters.com/article/2014/03/01/idUSnMKW90Bq6a+1c8+MKW20140301'
p813
sg4
S'20140301\xc2\xa010:02AM UTC'
p814
sg6
S'Barrick Completes Divestiture of Kanowna in Australia'
p815
sa(dp816
g2
S'http://www.reuters.com/article/2014/03/01/idUSnCCN7X01tn+1d0+MKW20140301'
p817
sg4
S'20140301\xc2\xa010:02AM UTC'
p818
sg6
S'Barrick Completes Divestiture of Kanowna in Australia'
p819
sa(dp820
g2
S'http://www.reuters.com/article/2014/03/01/fresenius-rhoen-idUSL6N0LY0GT20140301'
p821
sg4
S'20140301\xc2\xa010:01AM UTC'
p822
sg6
S'Fresenius to cut some jobs after Rhoen hospital buy'
p823
sa(dp824
g2
S'http://www.reuters.com/article/2014/03/01/ukraine-crisis-security-idUSL6N0LY0GV20140301'
p825
sg4
S'20140301\xc2\xa010:00AM UTC'
p826
sg6
S'Ukrainian security chiefs to meet as tension mounts in Crimea'
p827
sa(dp828
g2
S'http://www.reuters.com/article/2014/03/01/nc-best-practices-llc-idUSnPnCLwGmmd+168+PRN20140301'
p829
sg4
S'20140301\xc2\xa010:00AM UTC'
p830
sg6
S'Navigating the Payer Landscape in the Ever-Changing Healthcare Marketplace'
p831
sa(dp832
g2
S'http://www.reuters.com/article/2014/03/01/us-pakistan-journalist-murder-idUSBREA200HV20140301'
p833
sg4
S'20140301\xc2\xa09:57AM UTC'
p834
sg6
S"Pakistan court convicts five of reporter's murder in landmark case"
p835
sa(dp836
g2
S'http://www.reuters.com/article/2014/03/01/pakistan-journalist-murder-idUSL3N0LY08720140301'
p837
sg4
S'20140301\xc2\xa09:56AM UTC'
p838
sg6
S"Pakistan court convicts five of reporter's murder in landmark case"
p839
sa(dp840
g2
S'http://www.reuters.com/article/2014/03/01/us-ireland-lending-idUSBREA200GM20140301'
p841
sg4
S'20140301\xc2\xa09:51AM UTC'
p842
sg6
S'Ireland eyes new big player to boost banking sector'
p843
sa(dp844
g2
S'http://www.reuters.com/article/2014/03/01/us-ukraine-crisis-france-idUSBREA200DD20140301'
p845
sg4
S'20140301\xc2\xa09:51AM UTC'
p846
sg6
S'West voices alarm on Crimea, calls on Russia to respect Ukraine sovereignty'
p847
sa(dp848
g2
S'http://www.reuters.com/article/2014/03/01/ireland-lending-idUSL6N0LY0FK20140301'
p849
sg4
S'20140301\xc2\xa09:51AM UTC'
p850
sg6
S'UPDATE 1-Ireland eyes new big player to boost banking sector'
p851
sa(dp852
g2
S'http://www.reuters.com/article/2014/03/01/us-mobile-world-tablets-idUSBREA200HB20140301'
p853
sg4
S'20140301\xc2\xa09:50AM UTC'
p854
sg6
S'Honey, can you pick up a tablet at the grocery store?'
p855
sa(dp856
g2
S'http://www.reuters.com/article/2014/03/01/mobile-world-tablets-idUSL6N0LW3CA20140301'
p857
sg4
S'20140301\xc2\xa09:47AM UTC'
p858
sg6
S'CORRECTED-Honey, can you pick up a tablet at the grocery store?'
p859
sa(dp860
g2
S'http://www.reuters.com/article/2014/03/01/mobile-world-tablets-idUSL6N0LX1U520140301'
p861
sg4
S'20140301\xc2\xa09:45AM UTC'
p862
sg6
S'CORRECTED-RPT-Honey, can you pick up a tablet at the grocery store?'
p863
sa(dp864
g2
S'http://www.reuters.com/article/2014/03/01/iraq-oil-exports-idUSL6N0LY05L20140301'
p865
sg4
S'20140301\xc2\xa09:41AM UTC'
p866
sg6
S'UPDATE 4-Iraq oil exports hit record 2.8 mln bpd in February'
p867
sa(dp868
g2
S'http://www.reuters.com/article/2014/03/01/renewable-energy-idUSnPnDCwJyl0+168+PRN20140301'
p869
sg4
S'20140301\xc2\xa09:36AM UTC'
p870
sg6
S"Stimulus Dollars Advance Energy Efficiency And Renewable Energy In America's Cities"
p871
sa(dp872
g2
S'http://www.reuters.com/article/2014/03/01/us-ukraine-crisis-putin-idUSBREA200FR20140301'
p873
sg4
S'20140301\xc2\xa09:23AM UTC'
p874
sg6
S'Putin proposes to send Russian armed forces to Ukraine'
p875
sa(dp876
g2
S'http://www.reuters.com/article/2014/03/01/berkshire-results-idUSL1N0LY09Y20140301'
p877
sg4
S'20140301\xc2\xa09:20AM UTC'
p878
sg6
S'UPDATE 1-Upbeat Buffett eyes big acquisitions after record Berkshire profit'
p879
sa(dp880
g2
S'http://www.reuters.com/article/2014/03/01/ireland-lending-idUSWLB007FK20140301'
p881
sg4
S'20140301\xc2\xa09:18AM UTC'
p882
sg6
S'Ireland wants a new big player to boost banking sector -fin min'
p883
sa(dp884
g2
S'http://www.reuters.com/article/2014/03/01/us-ukraine-crisis-gas-idUSBREA200G320140301'
p885
sg4
S'20140301\xc2\xa09:13AM UTC'
p886
sg6
S'Russia warns Ukraine may lose gas discount'
p887
sa(dp888
g2
S'http://www.reuters.com/article/2014/03/01/ukraine-crisis-gas-idUSL6N0LY0B420140301'
p889
sg4
S'20140301\xc2\xa09:11AM UTC'
p890
sg6
S'UPDATE 1-Russia warns Ukraine may lose gas discount'
p891
sa(dp892
g2
S'http://www.reuters.com/article/2014/03/01/us-france-cesar-idUSBREA200FI20140301'
p893
sg4
S'20140301\xc2\xa09:03AM UTC'
p894
sg6
S'Comedy on gender confusion sweeps French Cesar film awards'
p895
sa(dp896
g2
S'http://www.reuters.com/article/2014/03/01/ukraine-crisis-putin-idUSL6N0LY0DY20140301'
p897
sg4
S'20140301\xc2\xa09:02AM UTC'
p898
sg6
S'Putin proposes use of Russian armed forces in Ukraine'
p899
sa(dp900
g2
S'http://www.reuters.com/article/2014/03/01/france-cesar-idUSL6N0LY0DQ20140301'
p901
sg4
S'20140301\xc2\xa09:02AM UTC'
p902
sg6
S'Comedy on gender confusion sweeps French Cesar film awards'
p903
sa(dp904
g2
S'http://www.reuters.com/article/2014/03/01/idUSnMKWRRmjla+1f0+MKW20140301'
p905
sg4
S'20140301\xc2\xa09:00AM UTC'
p906
sg6
S'REMINDER/Media Advisory: Minister MacKay to Make Funding Announcement'
p907
sa(dp908
g2
S'http://www.reuters.com/article/2014/03/01/benihanamarchspecials-idUSnPnCGw21kj+160+PRN20140301'
p909
sg4
S'20140301\xc2\xa09:00AM UTC'
p910
sg6
S"March Benihana Chef's Specials"
p911
sa(dp912
g2
S'http://www.reuters.com/article/2014/03/01/idUSnCCN80VK4r+1cc+MKW20140301'
p913
sg4
S'20140301\xc2\xa09:00AM UTC'
p914
sg6
S'REMINDER/Media Advisory: Minister MacKay to Make Funding Announcement'
p915
sa(dp916
g2
S'http://www.reuters.com/article/2014/03/01/us-iran-nuclear-generals-idUSBREA200FB20140301'
p917
sg4
S'20140301\xc2\xa08:59AM UTC'
p918
sg6
S'Rouhani tells Iran generals to cut hostile rhetoric'
p919
sa(dp920
g2
S'http://www.reuters.com/article/2014/03/01/fengtao-software-inc-idUSnBw015011a+100+BSW20140301'
p921
sg4
S'20140301\xc2\xa08:43AM UTC'
p922
sg6
S'DVDFab Media Player 2 Comes onto Mac Finally'
p923
sa(dp924
g2
S'http://www.reuters.com/article/2014/03/01/nerkshire-results-idUSL1N0LY09720140301'
p925
sg4
S'20140301\xc2\xa08:25AM UTC'
p926
sg6
S'Berkshire Hathaway posts record profit in 2013'
p927
sa(dp928
g2
S'http://www.reuters.com/article/2014/03/01/berkshirehathaway-results-idUSWEN00CNL20140301'
p929
sg4
S'20140301\xc2\xa08:18AM UTC'
p930
sg6
S'BRIEF-Buffett sees taking BofA share stake, more deal partnerships such as Heinz, more big acquisitions'
p931
sa(dp932
g2
S'http://www.reuters.com/article/2014/03/01/az-quickenloansnascar-idUSnPnNYwJmhG+169+PRN20140301'
p933
sg4
S'20140301\xc2\xa08:15AM UTC'
p934
sg6
S'Hoorah! "Quicken Loans Race for Heroes 500" to Celebrate Military Service During Veterans Day Weekend Sprint Cup Race'
p935
sa(dp936
g2
S'http://www.reuters.com/article/2014/03/01/us-ukraine-crisis-talks-idUSBREA200EN20140301'
p937
sg4
S'20140301\xc2\xa08:14AM UTC'
p938
sg6
S'Russia refuses talks with Ukraine - Interfax'
p939
sa(dp940
g2
S'http://www.reuters.com/article/2014/03/01/ukraine-crisis-talks-idUSL6N0LY0CS20140301'
p941
sg4
S'20140301\xc2\xa08:10AM UTC'
p942
sg6
S'Russia refuses talks with Ukraine - Interfax'
p943
sa(dp944
g2
S'http://www.reuters.com/article/2014/03/01/us-syria-crisis-britain-idUSBREA200E920140301'
p945
sg4
S'20140301\xc2\xa08:08AM UTC'
p946
sg6
S'British ex-Guantanamo inmate denies Syria-related terror charges'
p947
sa(dp948
g2
S'http://www.reuters.com/article/2014/03/01/ne-berkshire-hathaway-idUSnBw015006a+100+BSW20140301'
p949
sg4
S'20140301\xc2\xa08:03AM UTC'
p950
sg6
S'Berkshire Hathaway Inc. News Release'
p951
sa(dp952
g2
S'http://www.reuters.com/article/2014/03/01/us-urkaine-crisis-decree-idUSBREA200E020140301'
p953
sg4
S'20140301\xc2\xa07:59AM UTC'
p954
sg6
S"Ukraine declares Crimea premier's appointment illegal"
p955
sa(dp956
g2
S'http://www.reuters.com/article/2014/03/01/ukraine-crisis-idUSL6N0LY07Q20140301'
p957
sg4
S'20140301\xc2\xa07:59AM UTC'
p958
sg6
S'REFILE-WRAPUP 3-Ukraine cites Russian troop movements as Crimea sliding from its grasp'
p959
sa(dp960
g2
S'http://www.reuters.com/article/2014/03/01/urkaine-crisis-decree-idUSL6N0LY0CC20140301'
p961
sg4
S'20140301\xc2\xa07:58AM UTC'
p962
sg6
S"Ukraine declares Crimea premier's appointment illegal"
p963
sa(dp964
g2
S'http://www.reuters.com/article/2014/03/01/us-ukraine-crisis-kharkiv-idUSBREA200D820140301'
p965
sg4
S'20140301\xc2\xa07:49AM UTC'
p966
sg6
S'Pro-Russia activists enter regional government HQ in east Ukraine'
p967
sa(dp968
g2
S'http://www.reuters.com/article/2014/03/01/us-usa-california-weather-idUSBREA2003920140301'
p969
sg4
S'20140301\xc2\xa07:42AM UTC'
p970
sg6
S"Rain soaks California causing floods, but won't end drought"
p971
sa(dp972
g2
S'http://www.reuters.com/article/2014/03/01/us-spain-eta-arms-idUSBREA200CH20140301'
p973
sg4
S'20140301\xc2\xa07:28AM UTC'
p974
sg6
S'Basque group ETA pledges to give up all its arms'
p975
sa(dp976
g2
S'http://www.reuters.com/article/2014/03/01/spain-eta-arms-idUSL6N0LY06P20140301'
p977
sg4
S'20140301\xc2\xa07:25AM UTC'
p978
sg6
S'Basque group ETA pledges to give up all its arms'
p979
sa(dp980
g2
S'http://www.reuters.com/article/2014/03/01/us-ukraine-crisis-imf-idUSBREA200CD20140301'
p981
sg4
S'20140301\xc2\xa07:24AM UTC'
p982
sg6
S'Ukraine unlikely to receive IMF help before April - minister'
p983
sa(dp984
g2
S'http://www.reuters.com/article/2014/03/01/us-ukraine-crisis-speaker-idUSBREA200C920140301'
p985
sg4
S'20140301\xc2\xa07:24AM UTC'
p986
sg6
S'Russian assembly speaker does not rule out troops going to Crimea'
p987
sa(dp988
g2
S'http://www.reuters.com/article/2014/03/01/ukraine-crisis-imf-idUSL6N0LY0AG20140301'
p989
sg4
S'20140301\xc2\xa07:22AM UTC'
p990
sg6
S'Ukraine unlikely to receive IMF help before April - minister'
p991
sa(dp992
g2
S'http://www.reuters.com/article/2014/03/01/ukraine-crisis-speaker-idUSL6N0LY0AH20140301'
p993
sg4
S'20140301\xc2\xa07:17AM UTC'
p994
sg6
S'Russian assembly speaker does not rule out troops going to Crimea'
p995
sa(dp996
g2
S'http://www.reuters.com/article/2014/03/01/tatamotors-sales-idUSL3N0LX2R520140301'
p997
sg4
S'20140301\xc2\xa07:14AM UTC'
p998
sg6
S'TABLE-Tata Motors February sales fall 36 pct'
p999
sa(dp1000
g2
S'http://www.reuters.com/article/2014/03/01/us-ukraine-crisis-britain-idUSBREA200BT20140301'
p1001
sg4
S'20140301\xc2\xa07:14AM UTC'
p1002
sg6
S"UK's foreign secretary calls on Russia to de-escalate situation in Crimea"
p1003
sa(dp1004
g2
S'http://www.reuters.com/article/2014/03/01/ukraine-crisis-britain-idUSL6N0LY0AB20140301'
p1005
sg4
S'20140301\xc2\xa07:12AM UTC'
p1006
sg6
S"UK's foreign secretary calls on Russia to de-escalate situation in Crimea"
p1007
sa(dp1008
g2
S'http://www.reuters.com/article/2014/03/01/us-venezuela-protests-idUSBREA1R14P20140301'
p1009
sg4
S'20140301\xc2\xa07:08AM UTC'
p1010
sg6
S"Jailed Venezuela protest leader mocks Maduro's talks"
p1011
sa(dp1012
g2
S'http://www.reuters.com/article/2014/03/01/us-ukraine-crisis-germany-idUSBREA200BI20140301'
p1013
sg4
S'20140301\xc2\xa07:07AM UTC'
p1014
sg6
S"Germany says situation in Crimea has become 'acute', urges Russia to explain"
p1015
sa(dp1016
g2
S'http://www.reuters.com/article/2014/03/01/us-usa-bison-yellowstone-idUSBREA200B720140301'
p1017
sg4
S'20140301\xc2\xa07:06AM UTC'
p1018
sg6
S'Yellowstone bison could launch new herds without risking cattle, study says'
p1019
sa(dp1020
g2
S'http://www.reuters.com/article/2014/03/01/ukraine-crisis-germany-idUSL6N0LY0A420140301'
p1021
sg4
S'20140301\xc2\xa07:05AM UTC'
p1022
sg6
S'Germany says situation in Crimea has become "acute", urges Russia to explain'
p1023
sa(dp1024
g2
S'http://www.reuters.com/article/2014/03/01/us-ukraine-crisis-france-idUSBREA200AZ20140301'
p1025
sg4
S'20140301\xc2\xa06:57AM UTC'
p1026
sg6
S"France 'extremely concerned' by situation in Ukraine's Crimea - minister"
p1027
sa(dp1028
g2
S'http://www.reuters.com/article/2014/03/01/us-ukraine-crisis-duma-idUSBREA2009D20140301'
p1029
sg4
S'20140301\xc2\xa06:57AM UTC'
p1030
sg6
S"Russia's Duma says legitimate election impossible in Ukraine now - Interfax"
p1031
sa(dp1032
g2
S'http://www.reuters.com/article/2014/03/01/ukraine-crisis-duma-idUSL6N0LY09P20140301'
p1033
sg4
S'20140301\xc2\xa06:55AM UTC'
p1034
sg6
S"Russia's Duma says legitimate election impossible in Ukraine now -Interfax"
p1035
sa(dp1036
g2
S'http://www.reuters.com/article/2014/03/01/us-ukraine-crisis-ships-idUSBREA200A520140301'
p1037
sg4
S'20140301\xc2\xa06:45AM UTC'
p1038
sg6
S'Ukrainian border guard vessels leave port in Crimea - Interfax'
p1039
sa(dp1040
g2
S'http://www.reuters.com/article/2014/03/01/ukraine-crisis-ships-idUSL6N0LY09L20140301'
p1041
sg4
S'20140301\xc2\xa06:43AM UTC'
p1042
sg6
S'Ukrainian border guard vessels leave port in Crimea - Interfax'
p1043
sa(dp1044
g2
S'http://www.reuters.com/article/2014/03/01/us-ukraine-crisis-gas-idUSBREA2008320140301'
p1045
sg4
S'20140301\xc2\xa06:42AM UTC'
p1046
sg6
S'Russia sees no reason to extend gas discount to Ukraine - agency cites energy ministry'
p1047
sa(dp1048
g2
S'http://www.reuters.com/article/2014/03/01/ukraine-crisis-gas-idUSL6N0LY09220140301'
p1049
sg4
S'20140301\xc2\xa06:41AM UTC'
p1050
sg6
S'Russia sees no reason to extend gas discount to Ukraine -agency cites energy ministry'
p1051
sa(dp1052
g2
S'http://www.reuters.com/article/2014/03/01/italy-bancapopolaresondrio-idUSL6N0LY06N20140301'
p1053
sg4
S'20140301\xc2\xa06:41AM UTC'
p1054
sg6
S'Banca Popolare di Sondrio plans 350 mln euro capital hike'
p1055
sa(dp1056
g2
S'http://www.reuters.com/article/2014/03/01/fl-michelob-marathon-set-idUSnBw015001a+100+BSW20140301'
p1057
sg4
S'20140301\xc2\xa06:40AM UTC'
p1058
sg6
S'Michelob Ultra Miami Beach 13.1 Marathon\xc2\xae Set for Sunday, March 2, 2014'
p1059
sa(dp1060
g2
S'http://www.reuters.com/article/2014/03/01/us-ukraine-crisis-austria-idUSBREA2009Q20140301'
p1061
sg4
S'20140301\xc2\xa06:38AM UTC'
p1062
sg6
S'Austria names 18 Ukrainians on assets freeze list'
p1063
sa(dp1064
g2
S'http://www.reuters.com/article/2014/03/01/ukraine-crisis-austria-idUSL6N0LY05I20140301'
p1065
sg4
S'20140301\xc2\xa06:34AM UTC'
p1066
sg6
S'Austria names 18 Ukrainians on assets freeze list'
p1067
sa(dp1068
g2
S'http://www.reuters.com/article/2014/03/01/us-motor-racing-redbull-idUSBREA2009G20140301'
p1069
sg4
S'20140301\xc2\xa06:31AM UTC'
p1070
sg6
S'Red Bull dismiss Vettel tantrum report'
p1071
sa(dp1072
g2
S'http://www.reuters.com/article/2014/03/01/us-thailand-protest-idUSBREA1R03P20140301'
p1073
sg4
S'20140301\xc2\xa06:29AM UTC'
p1074
sg6
S'Bangkok boating park becomes focus of Thai protests'
p1075
sa(dp1076
g2
S'http://www.reuters.com/article/2014/03/01/ukraine-crisis-duma-idUSL6N0LY08Y20140301'
p1077
sg4
S'20140301\xc2\xa06:28AM UTC'
p1078
sg6
S"Russia's Duma asks Putin to stabilise situation in Crimea - agency"
p1079
sa(dp1080
g2
S'http://www.reuters.com/article/2014/03/01/us-thailand-protest-monk-idUSBREA2008C20140301'
p1081
sg4
S'20140301\xc2\xa06:27AM UTC'
p1082
sg6
S'Thai Buddhist monk vows to fight on even as protesters scale back'
p1083
sa(dp1084
g2
S'http://www.reuters.com/article/2014/03/01/sonatel-results-idUSL6N0LY08R20140301'
p1085
sg4
S'20140301\xc2\xa06:26AM UTC'
p1086
sg6
S"Senegal's Sonatel 2013 net profit up 11.1 pct"
p1087
sa(dp1088
g2
S'http://www.reuters.com/article/2014/03/01/bangladesh-energy-loan-idUSL3N0LY06520140301'
p1089
sg4
S'20140301\xc2\xa06:22AM UTC'
p1090
sg6
S'Bangladesh to receive $600 mln World Bank loan for rural power'
p1091
sa(dp1092
g2
S'http://www.reuters.com/article/2014/03/01/us-ukraine-crisis-buildings-idUSBREA2008U20140301'
p1093
sg4
S'20140301\xc2\xa06:18AM UTC'
p1094
sg6
S'Russian servicemen guard buildings in Crimea - RIA cites fleet'
p1095
sa(dp1096
g2
S'http://www.reuters.com/article/2014/03/01/us-ukraine-russia-idUSBREA2004220140301'
p1097
sg4
S'20140301\xc2\xa06:17AM UTC'
p1098
sg6
S"Ukraine says it will not bow to Russian 'provocations' in Crimea"
p1099
sa(dp1100
g2
S'http://www.reuters.com/article/2014/03/01/ukraine-crisis-buildings-idUSL6N0LY08I20140301'
p1101
sg4
S'20140301\xc2\xa06:16AM UTC'
p1102
sg6
S'Russian servicemen guard buildings in Crimea - RIA cites fleet'
p1103
sa(dp1104
g2
S'http://www.reuters.com/article/2014/03/01/us-tennis-men-acapulco-idUSBREA2008520140301'
p1105
sg4
S'20140301\xc2\xa06:09AM UTC'
p1106
sg6
S'Dimitrov edges Murray to set up Anderson date in Acapulco'
p1107
sa(dp1108
g2
S'http://www.reuters.com/article/2014/03/01/ppl-susquehanna-plant-idUSnPnPHwJlcJ+169+PRN20140301'
p1109
sg4
S'20140301\xc2\xa06:09AM UTC'
p1110
sg6
S'Unit 2 at Susquehanna Nuclear Power Plant Safely Shut Down for Planned Turbine Inspection'
p1111
sa(dp1112
g2
S'http://www.reuters.com/article/2014/03/01/bkn-nets-bucks-preview-idUSMTZEA31RARLC920140301'
p1113
sg4
S'20140301\xc2\xa06:02AM UTC'
p1114
sg6
S'Preview: Nets at Bucks'
p1115
sa(dp1116
g2
S'http://www.reuters.com/article/2014/03/01/bkn-pacers-celtics-preview-idUSMTZEA31RARLC820140301'
p1117
sg4
S'20140301\xc2\xa06:02AM UTC'
p1118
sg6
S'Preview: Pacers at Celtics'
p1119
sa(dp1120
g2
S'http://www.reuters.com/article/2014/03/01/bkn-wizards-76ers-preview-idUSMTZEA31RARLC720140301'
p1121
sg4
S'20140301\xc2\xa06:02AM UTC'
p1122
sg6
S'Preview: Wizards at 76ers'
p1123
sa(dp1124
g2
S'http://www.reuters.com/article/2014/03/01/hkn-mapleleafs-canadiens-preview-idUSMTZEA31RARLC620140301'
p1125
sg4
S'20140301\xc2\xa06:02AM UTC'
p1126
sg6
S'Preview: Maple Leafs at Canadiens'
p1127
sa(dp1128
g2
S'http://www.reuters.com/article/2014/03/01/bkn-pistons-rockets-preview-idUSMTZEA31RARLC520140301'
p1129
sg4
S'20140301\xc2\xa06:02AM UTC'
p1130
sg6
S'Preview: Pistons at Rockets'
p1131
sa(dp1132
g2
S'http://www.reuters.com/article/2014/03/01/bkn-timberwolves-kings-preview-idUSMTZEA31RARLC420140301'
p1133
sg4
S'20140301\xc2\xa06:02AM UTC'
p1134
sg6
S'Preview: Timberwolves at Kings'
p1135
sa(dp1136
g2
S'http://www.reuters.com/article/2014/03/01/bkc-northwestern-nebraska-preview-idUSMTZEA31RARLCB20140301'
p1137
sg4
S'20140301\xc2\xa06:02AM UTC'
p1138
sg6
S'Preview: Northwestern at Nebraska'
p1139
sa(dp1140
g2
S'http://www.reuters.com/article/2014/03/01/hkn-penguins-blackhawks-preview-idUSMTZEA31RARLCA20140301'
p1141
sg4
S'20140301\xc2\xa06:02AM UTC'
p1142
sg6
S'Preview: Penguins at Blackhawks'
p1143
sa(dp1144
g2
S'http://www.reuters.com/article/2014/03/01/bkc-kansas-oklahomast-preview-idUSMTZEA31RARKC120140301'
p1145
sg4
S'20140301\xc2\xa06:02AM UTC'
p1146
sg6
S'Preview: Kansas at Oklahoma State'
p1147
sa(dp1148
g2
S'http://www.reuters.com/article/2014/03/01/bkc-houston-temple-preview-idUSMTZEA31RARKC020140301'
p1149
sg4
S'20140301\xc2\xa06:02AM UTC'
p1150
sg6
S'Preview: Houston at Temple'
p1151
sa(dp1152
g2
S'http://www.reuters.com/article/2014/03/01/bkn-magic-heat-preview-idUSMTZEA31RARKBZ20140301'
p1153
sg4
S'20140301\xc2\xa06:02AM UTC'
p1154
sg6
S'Preview: Magic at Heat'
p1155
sa(dp1156
g2
S'http://www.reuters.com/article/2014/03/01/bkc-california-arizonast-preview-idUSMTZEA31RARKBY20140301'
p1157
sg4
S'20140301\xc2\xa06:02AM UTC'
p1158
sg6
S'Preview: California at Arizona State'
p1159
sa(dp1160
g2
S'http://www.reuters.com/article/2014/03/01/bkc-minnesota-michigan-preview-idUSMTZEA31RARKBX20140301'
p1161
sg4
S'20140301\xc2\xa06:02AM UTC'
p1162
sg6
S'Preview: Minnesota at Michigan'
p1163
sa(dp1164
g2
S'http://www.reuters.com/article/2014/03/01/bkc-iowast-kansasst-preview-idUSMTZEA31RARKBW20140301'
p1165
sg4
S'20140301\xc2\xa06:02AM UTC'
p1166
sg6
S'Preview: Iowa State at Kansas State'
p1167
sa(dp1168
g2
S'http://www.reuters.com/article/2014/03/01/hkn-flames-oilers-preview-idUSMTZEA31RARKBU20140301'
p1169
sg4
S'20140301\xc2\xa06:02AM UTC'
p1170
sg6
S'Preview: Flames at Oilers'
p1171
sa(dp1172
g2
S'http://www.reuters.com/article/2014/03/01/bkn-cavaliers-grizzlies-preview-idUSMTZEA31RARKC320140301'
p1173
sg4
S'20140301\xc2\xa06:02AM UTC'
p1174
sg6
S'Preview: Cavaliers at Grizzlies'
p1175
sa(dp1176
g2
S'http://www.reuters.com/article/2014/03/01/bkc-kentucky-southcarolina-preview-idUSMTZEA31RARKC220140301'
p1177
sg4
S'20140301\xc2\xa06:02AM UTC'
p1178
sg6
S'Preview: Kentucky at South Carolina'
p1179
sa(dp1180
g2
S'http://www.reuters.com/article/2014/03/01/hkn-rangers-flyers-preview-idUSMTZEA31RARJBO20140301'
p1181
sg4
S'20140301\xc2\xa06:02AM UTC'
p1182
sg6
S'Preview: Rangers at Flyers'
p1183
sa(dp1184
g2
S'http://www.reuters.com/article/2014/03/01/bkc-bostoncollege-wakeforest-preview-idUSMTZEA31RARJBN20140301'
p1185
sg4
S'20140301\xc2\xa06:02AM UTC'
p1186
sg6
S'Preview: Boston College at Wake Forest'
p1187
sa(dp1188
g2
S'http://www.reuters.com/article/2014/03/01/bkc-louisville-memphis-preview-idUSMTZEA31RARJBM20140301'
p1189
sg4
S'20140301\xc2\xa06:02AM UTC'
p1190
sg6
S'Preview: Louisville at Memphis'
p1191
sa(dp1192
g2
S'http://www.reuters.com/article/2014/03/01/bkc-centralflorida-southernmethodist-pre-idUSMTZEA31RARJBL20140301'
p1193
sg4
S'20140301\xc2\xa06:02AM UTC'
p1194
sg6
S'Preview: Central Florida at Southern Methodist'
p1195
sa(dp1196
g2
S'http://www.reuters.com/article/2014/03/01/bkc-sandiegost-fresnost-preview-idUSMTZEA31RARJBT20140301'
p1197
sg4
S'20140301\xc2\xa06:02AM UTC'
p1198
sg6
S'Preview: San Diego State at Fresno State'
p1199
sa(dp1200
g2
S'http://www.reuters.com/article/2014/03/01/bkc-illinois-michiganst-preview-idUSMTZEA31RARJBR20140301'
p1201
sg4
S'20140301\xc2\xa06:02AM UTC'
p1202
sg6
S'Preview: Illinois at Michigan State'
p1203
sa(dp1204
g2
S'http://www.reuters.com/article/2014/03/01/bkc-colorado-utah-preview-idUSMTZEA31RARJBQ20140301'
p1205
sg4
S'20140301\xc2\xa06:02AM UTC'
p1206
sg6
S'Preview: Colorado at Utah'
p1207
sa(dp1208
g2
S'http://www.reuters.com/article/2014/03/01/hkn-devils-islanders-preview-idUSMTZEA31RARJBP20140301'
p1209
sg4
S'20140301\xc2\xa06:02AM UTC'
p1210
sg6
S'Preview: Devils at Islanders'
p1211
sa(dp1212
g2
S'http://www.reuters.com/article/2014/03/01/hkn-hurricanes-kings-preview-idUSMTZEA31RARIBK20140301'
p1213
sg4
S'20140301\xc2\xa06:02AM UTC'
p1214
sg6
S'Preview: Hurricanes at Kings'
p1215
sa(dp1216
g2
S'http://www.reuters.com/article/2014/03/01/bkc-georgia-arkansas-preview-idUSMTZEA31RARIBI20140301'
p1217
sg4
S'20140301\xc2\xa06:02AM UTC'
p1218
sg6
S'Preview: Georgia at Arkansas'
p1219
sa(dp1220
g2
S'http://www.reuters.com/article/2014/03/01/hkn-capitals-bruins-preview-idUSMTZEA31RARIBJ20140301'
p1221
sg4
S'20140301\xc2\xa06:02AM UTC'
p1222
sg6
S'Preview: Capitals at Bruins'
p1223
sa(dp1224
g2
S'http://www.reuters.com/article/2014/03/01/bkc-texaschristian-westvirginia-preview-idUSMTZEA31RARIBH20140301'
p1225
sg4
S'20140301\xc2\xa06:02AM UTC'
p1226
sg6
S'Preview: Texas Christian at West Virginia'
p1227
sa(dp1228
g2
S'http://www.reuters.com/article/2014/03/01/hkn-lightning-stars-preview-idUSMTZEA31RARIBG20140301'
p1229
sg4
S'20140301\xc2\xa06:02AM UTC'
p1230
sg6
S'Preview: Lightning at Stars'
p1231
sa(dp1232
g2
S'http://www.reuters.com/article/2014/03/01/bkc-southflorida-rutgers-preview-idUSMTZEA31RARIBF20140301'
p1233
sg4
S'20140301\xc2\xa06:02AM UTC'
p1234
sg6
S'Preview: South Florida at Rutgers'
p1235
sa(dp1236
g2
S'http://www.reuters.com/article/2014/03/01/hkn-panthers-bluejackets-preview-idUSMTZEA31RARIBD20140301'
p1237
sg4
S'20140301\xc2\xa06:02AM UTC'
p1238
sg6
S'Preview: Panthers at Blue Jackets'
p1239
sa(dp1240
g2
S'http://www.reuters.com/article/2014/03/01/bkc-syracuse-virginia-preview-idUSMTZEA31RARIBC20140301'
p1241
sg4
S'20140301\xc2\xa06:02AM UTC'
p1242
sg6
S'Preview: Syracuse at Virginia'
p1243
sa(dp1244
g2
S'http://www.reuters.com/article/2014/03/01/bkc-texastech-baylor-preview-idUSMTZEA31RARHBA20140301'
p1245
sg4
S'20140301\xc2\xa06:02AM UTC'
p1246
sg6
S'Preview: Texas Tech at Baylo'
p1247
sa(dp1248
g2
S'http://www.reuters.com/article/2014/03/01/bkc-auburn-alabama-preview-idUSMTZEA31RARHB920140301'
p1249
sg4
S'20140301\xc2\xa06:02AM UTC'
p1250
sg6
S'Preview: Auburn at Alabama'
p1251
sa(dp1252
g2
S'http://www.reuters.com/article/2014/03/01/bkc-pittsburgh-notredame-preview-idUSMTZEA31RARHB820140301'
p1253
sg4
S'20140301\xc2\xa06:02AM UTC'
p1254
sg6
S'Preview: Pittsburgh at Notre Dame'
p1255
sa(dp1256
g2
S'http://www.reuters.com/article/2014/03/01/bkc-cincinnati-connecticut-preview-idUSMTZEA31RARHB720140301'
p1257
sg4
S'20140301\xc2\xa06:02AM UTC'
p1258
sg6
S'Preview: Cincinnati at Connecticut'
p1259
sa(dp1260
g2
S'http://www.reuters.com/article/2014/03/01/hkn-jets-predators-preview-idUSMTZEA31RARHB620140301'
p1261
sg4
S'20140301\xc2\xa06:02AM UTC'
p1262
sg6
S'Preview: Jets at Predators'
p1263
sa(dp1264
g2
S'http://www.reuters.com/article/2014/03/01/bkc-texas-oklahoma-preview-idUSMTZEA31RARHB520140301'
p1265
sg4
S'20140301\xc2\xa06:02AM UTC'
p1266
sg6
S'Preview: Texas at Oklahoma'
p1267
sa(dp1268
g2
S'http://www.reuters.com/article/2014/03/01/bkc-missourist-wichitast-preview-idUSMTZEA31RARHB420140301'
p1269
sg4
S'20140301\xc2\xa06:02AM UTC'
p1270
sg6
S'Preview: Missouri State at Wichita State'
p1271
sa(dp1272
g2
S'http://www.reuters.com/article/2014/03/01/bkc-vanderbilt-tennessee-preview-idUSMTZEA31RARHB220140301'
p1273
sg4
S'20140301\xc2\xa06:02AM UTC'
p1274
sg6
S'Preview: Vanderbilt at Tennessee'
p1275
sa(dp1276
g2
S'http://www.reuters.com/article/2014/03/01/bkc-creighton-xavier-preview-idUSMTZEA31RARGB120140301'
p1277
sg4
S'20140301\xc2\xa06:02AM UTC'
p1278
sg6
S'Preview: Creighton at Xavie'
p1279
sa(dp1280
g2
S'http://www.reuters.com/article/2014/03/01/bkc-northcarolina-virginiatech-preview-idUSMTZEA31RARGB020140301'
p1281
sg4
S'20140301\xc2\xa06:02AM UTC'
p1282
sg6
S'Preview: North Carolina at Virginia Tech'
p1283
sa(dp1284
g2
S'http://www.reuters.com/article/2014/03/01/us-ukraine-crisis-airport-idUSBREA2007R20140301'
p1285
sg4
S'20140301\xc2\xa06:01AM UTC'
p1286
sg6
S"Ukraine's Crimea main airport closed"
p1287
sa(dp1288
g2
S'http://www.reuters.com/article/2014/03/01/idUS92983400320140301'
p1289
sg4
S'20140301\xc2\xa06:00AM UTC'
p1290
sg6
S'Tunisia purges Islamist state governors with consent of Islamist party'
p1291
sa(dp1292
g2
S'http://www.reuters.com/article/2014/03/01/ukraine-crisis-idUSL6N0LY07R20140301'
p1293
sg4
S'20140301\xc2\xa06:00AM UTC'
p1294
sg6
S"Ukraine's Crimea main airport closed"
p1295
sa(dp1296
g2
S'http://www.reuters.com/article/2014/03/01/us-ukraine-crisis-russian-anti-aircraft-idUSBREA2007M20140301'
p1297
sg4
S'20140301\xc2\xa06:00AM UTC'
p1298
sg6
S"Russian forces try to seize anti-aircraft missile base in Ukraine's Crimea - Interfax"
p1299
sa(dp1300
g2
S'http://www.reuters.com/article/2014/03/01/prn-good-morning-idUSnPnNYGMbL+bd+PRN20140301'
p1301
sg4
S'20140301\xc2\xa05:59AM UTC'
p1302
sg6
S'GOOD MORNING'
p1303
sa(dp1304
g2
S'http://www.reuters.com/article/2014/03/01/us-russian-servicemen-guard-buildings-in-idUSBREA2007B20140301'
p1305
sg4
S'20140301\xc2\xa05:58AM UTC'
p1306
sg6
S"Russian servicemen guard buildings in Ukraine's Crimea - regional leader"
p1307
sa(dp1308
g2
S'http://www.reuters.com/article/2014/03/01/idUSL6N0LY08120140301'
p1309
sg4
S'20140301\xc2\xa05:58AM UTC'
p1310
sg6
S"Russian forces try to seize anti-aircraft missile base in Ukraine's Crimea-Interfax"
p1311
sa(dp1312
g2
S'http://www.reuters.com/article/2014/03/01/ukraine-crisis-gas-idUSL6N0LY07A20140301'
p1313
sg4
S'20140301\xc2\xa05:56AM UTC'
p1314
sg6
S'Russia says Ukraine may lose gas discount because of debt -Gazprom'
p1315
sa(dp1316
g2
S'http://www.reuters.com/article/2014/03/01/idUSL6N0LY07820140301'
p1317
sg4
S'20140301\xc2\xa05:51AM UTC'
p1318
sg6
S"Russian servicemen guard buildings in Ukraine's Crimea-regional leader"
p1319
sa(dp1320
g2
S'http://www.reuters.com/article/2014/03/01/us-ukraine-crisis-moscow-idUSBREA2005K20140301'
p1321
sg4
S'20140301\xc2\xa05:44AM UTC'
p1322
sg6
S"Russia 'extremely concerned' about Crimea situation - Foreign Ministry"
p1323
sa(dp1324
g2
S'http://www.reuters.com/article/2014/03/01/idUS311465084220140301'
p1325
sg4
S'20140301\xc2\xa05:44AM UTC'
p1326
sg6
S'Google loses bid to keep anti-Islamic video on YouTube during court order appeal'
p1327
sa(dp1328
g2
S'http://www.reuters.com/article/2014/03/01/us-ukraine-crisis-airfield-idUSBREA2006P20140301'
p1329
sg4
S'20140301\xc2\xa05:43AM UTC'
p1330
sg6
S'Russian forces seize military airfield in east Crimea - Interfax'
p1331
sa(dp1332
g2
S'http://www.reuters.com/article/2014/03/01/ukraine-crisis-idUSL6N0LY05O20140301'
p1333
sg4
S'20140301\xc2\xa05:43AM UTC'
p1334
sg6
S'WRAPUP 2 -Ukraine says Russia has sent in troops, Obama appeals to Putin'
p1335
sa(dp1336
g2
S'http://www.reuters.com/article/2014/03/01/ukraine-crisis-airfield-idUSL6N0LY07220140301'
p1337
sg4
S'20140301\xc2\xa05:42AM UTC'
p1338
sg6
S'Russian forces seize military airfield in east Crimea - Interfax'
p1339
sa(dp1340
g2
S'http://www.reuters.com/article/2014/03/01/idUS77955617820140301'
p1341
sg4
S'20140301\xc2\xa05:32AM UTC'
p1342
sg6
S'Extra funds help float Noah\xe2\x80\x99s Ark replica in Kentucky'
p1343
sa(dp1344
g2
S'http://www.reuters.com/article/2014/03/01/us-gap-china-apparel-idUSBREA2005920140301'
p1345
sg4
S'20140301\xc2\xa05:22AM UTC'
p1346
sg6
S'Gap Inc seeks new berth in China with Old Navy'
p1347
sa(dp1348
g2
S'http://www.reuters.com/article/2014/03/01/idUS245842716120140301'
p1349
sg4
S'20140301\xc2\xa05:15AM UTC'
p1350
sg6
S'The dangers of oversimplifying the Central African Republic conflict'
p1351
sa(dp1352
g2
S'http://www.reuters.com/article/2014/03/01/ukraine-crisis-moscow-idUSL6N0LY06020140301'
p1353
sg4
S'20140301\xc2\xa05:04AM UTC'
p1354
sg6
S'UPDATE 1-Russia "extremely concerned" about Crimea situation-Foreign Ministry'
p1355
sa(dp1356
g2
S'http://www.reuters.com/article/2014/03/01/us-autoshow-geneva-fiat-revival-idUSBREA2004Z20140301'
p1357
sg4
S'20140301\xc2\xa04:42AM UTC'
p1358
sg6
S"Fiat's UK-style revival plan faces Italian hurdles"
p1359
sa(dp1360
g2
S'http://www.reuters.com/article/2014/03/01/us-palestinians-israel-idUSBREA2004N20140301'
p1361
sg4
S'20140301\xc2\xa04:38AM UTC'
p1362
sg6
S'Israeli military kill Palestinian woman near Gaza border: hospital'
p1363
sa(dp1364
g2
S'http://www.reuters.com/article/2014/03/01/mahindra-sales-idUSL3N0LX2RL20140301'
p1365
sg4
S'20140301\xc2\xa04:35AM UTC'
p1366
sg6
S"TABLE-India's Mahindra February sales fall 12 pct - RTRS"
p1367
sa(dp1368
g2
S'http://www.reuters.com/article/2014/03/01/ukraine-crisis-moscow-idUSL6N0LY05E20140301'
p1369
sg4
S'20140301\xc2\xa04:34AM UTC'
p1370
sg6
S'Russia says "extremely concerned" about situation in Crimea - Foreign Ministry'
p1371
sa(dp1372
g2
S'http://www.reuters.com/article/2014/03/01/gap-china-apparel-idUSL3N0LX1QN20140301'
p1373
sg4
S'20140301\xc2\xa04:26AM UTC'
p1374
sg6
S'Gap Inc seeks new berth in China with Old Navy'
p1375
sa(dp1376
g2
S'http://www.reuters.com/article/2014/03/01/autoshow-geneva-fiat-revival-idUSL6N0LW39020140301'
p1377
sg4
S'20140301\xc2\xa04:00AM UTC'
p1378
sg6
S"Fiat's UK-style revival plan faces Italian hurdles"
p1379
sa(dp1380
g2
S'http://www.reuters.com/article/2014/03/01/us-japan-refinery-fire-idUSBREA2004T20140301'
p1381
sg4
S'20140301\xc2\xa03:57AM UTC'
p1382
sg6
S"Japan's TonenGeneral Sekiyu says several injured in refinery fire"
p1383
sa(dp1384
g2
S'http://www.reuters.com/article/2014/03/01/tvsmotor-sales-idUSL3N0LX2SL20140301'
p1385
sg4
S'20140301\xc2\xa03:44AM UTC'
p1386
sg6
S"TABLE-India's TVS Motor February sales rise 7 pct"
p1387
sa(dp1388
g2
S'http://www.reuters.com/article/2014/03/01/japan-refinery-fire-idUSL3N0LY05D20140301'
p1389
sg4
S'20140301\xc2\xa03:43AM UTC'
p1390
sg6
S"Japan's TonenGeneral Sekiyu says several injured in refinery fire"
p1391
sa(dp1392
g2
S'http://www.reuters.com/article/2014/03/01/us-ukraine-russia-troops-idUSBREA2004920140301'
p1393
sg4
S'20140301\xc2\xa03:35AM UTC'
p1394
sg6
S'Ukraine says Russia has sent in thousands of extra troops'
p1395
sa(dp1396
g2
S'http://www.reuters.com/article/2014/03/01/idUSL6N0LY04E20140301'
p1397
sg4
S'20140301\xc2\xa03:34AM UTC'
p1398
sg6
S'Ukraine says Russia has sent in thousands of extra troops'
p1399
sa(dp1400
g2
S'http://www.reuters.com/article/2014/03/01/idUSL6N0LY04720140301'
p1401
sg4
S'20140301\xc2\xa03:23AM UTC'
p1402
sg6
S'Ukraine says it will not bow to Russian "provocations" in Crimea'
p1403
sa(dp1404
g2
S'http://www.reuters.com/article/2014/03/01/us-yemen-newspaper-idUSBREA2003T20140301'
p1405
sg4
S'20140301\xc2\xa03:20AM UTC'
p1406
sg6
S"Yemen's Aden al-Ghad newspaper says is back in print"
p1407
sa(dp1408
g2
S'http://www.reuters.com/article/2014/03/01/idUSL6N0LY03V20140301'
p1409
sg4
S'20140301\xc2\xa03:18AM UTC'
p1410
sg6
S"Yemen's Aden al-Ghad newspaper says is back in print"
p1411
sa(dp1412
g2
S'http://www.reuters.com/article/2014/03/01/idUSnGNX1YLYsT+1dd+GNW20140301'
p1413
sg4
S'20140301\xc2\xa03:13AM UTC'
p1414
sg6
S'First Market Properties Closes on a REO Portfolio of 1,188 Units in the Washington DC Metro Area'
p1415
sa(dp1416
g2
S'http://www.reuters.com/article/2014/03/01/idUSnGNX9Kt5Zs+1d2+GNW20140301'
p1417
sg4
S'20140301\xc2\xa03:09AM UTC'
p1418
sg6
S'Next Generation Trust Services Offers Tax Day Promotion, Waives Set-Up Fee on New Self-Directed IRAs through April 15'
p1419
sa(dp1420
g2
S'http://www.reuters.com/article/2014/03/01/idUSnGNX5k5J1L+1c5+GNW20140301'
p1421
sg4
S'20140301\xc2\xa03:07AM UTC'
p1422
sg6
S'Most Long Term Care Claims Paid Go to Home Care, According to New Data'
p1423
sa(dp1424
g2
S'http://www.reuters.com/article/2014/03/01/us-usa-northcarolina-spill-idUSBREA2003N20140301'
p1425
sg4
S'20140301\xc2\xa03:06AM UTC'
p1426
sg6
S'North Carolina cites Duke Energy in coal ash spill'
p1427
sa(dp1428
g2
S'http://www.reuters.com/article/2014/03/01/usa-northcarolina-spill-idUSL1N0LY05G20140301'
p1429
sg4
S'20140301\xc2\xa02:59AM UTC'
p1430
sg6
S'North Carolina cites Duke Energy in coal ash spill'
p1431
sa(dp1432
g2
S'http://www.reuters.com/article/2014/03/01/rodeo-drive-walk-of-idUSnPnLAwFd4p+168+PRN20140301'
p1433
sg4
S'20140301\xc2\xa02:30AM UTC'
p1434
sg6
S'Rodeo Drive Walk Of Style\xc2\xae Honors Two-Time Academy Award\xc2\xae Winner Catherine Martin'
p1435
sa(dp1436
g2
S'http://www.reuters.com/article/2014/03/01/us-jcrew-uniqlo-idUSBREA1R1YY20140301'
p1437
sg4
S'20140301\xc2\xa01:54AM UTC'
p1438
sg6
S'Fast Retailing, E.Land interested in buying J.Crew -sources'
p1439
sa(dp1440
g2
S'http://www.reuters.com/article/2014/03/01/idUSnGNX19DhJc+1ca+GNW20140301'
p1441
sg4
S'20140301\xc2\xa01:38AM UTC'
p1442
sg6
S'Los Angeles Home Stager Michelle Minch of Moving Mountains Design Wins Prestigious International Staging Award'
p1443
sa(dp1444
g2
S'http://www.reuters.com/article/2014/03/01/bkn-warriors-knicks-recap-idUSMTZEA31QNW3RG20140301'
p1445
sg4
S'20140301\xc2\xa01:36AM UTC'
p1446
sg6
S'Warriors 126, Knicks 103'
p1447
sa(dp1448
g2
S'http://www.reuters.com/article/2014/03/01/bkn-hornets-suns-writethru-idUSMTZEA31QXXQ5K20140301'
p1449
sg4
S'20140301\xc2\xa01:35AM UTC'
p1450
sg6
S'Dragic scores 40 to lead Suns past Pelicans'
p1451
sa(dp1452
g2
S'http://www.reuters.com/article/2014/03/01/marutisuzuki-sales-idUSL3N0LX2Q220140301'
p1453
sg4
S'20140301\xc2\xa01:31AM UTC'
p1454
sg6
S"TABLE-India's Maruti Suzuki Feb sales down 0.4 pct"
p1455
sa(dp1456
g2
S'http://www.reuters.com/article/2014/03/01/us-yemen-violence-idUSBREA2003J20140301'
p1457
sg4
S'20140301\xc2\xa01:24AM UTC'
p1458
sg6
S'At least 13 killed in north Yemen clashes - security source'
p1459
sa(dp1460
g2
S'http://www.reuters.com/article/2014/03/01/us-ukraine-crisis-obama-costs-idUSBREA1R21M20140301'
p1461
sg4
S'20140301\xc2\xa01:15AM UTC'
p1462
sg6
S'Obama warns Putin against military intervention in Ukraine'
p1463
sa(dp1464
g2
S'http://www.reuters.com/article/2014/03/01/bkn-kings-lakers-writethru-idUSMTZEA31QUC62N20140301'
p1465
sg4
S'20140301\xc2\xa01:12AM UTC'
p1466
sg6
S'Farmar, Brooks, hot shooting carry Lakers'
p1467
sa(dp1468
g2
S'http://www.reuters.com/article/2014/03/01/hkn-blues-ducks-writethru-idUSMTZEA31QSXZ0O20140301'
p1469
sg4
S'20140301\xc2\xa01:07AM UTC'
p1470
sg6
S'Ducks edge Blues in battle of Western elites'
p1471
sa(dp1472
g2
S'http://www.reuters.com/article/2014/03/01/ukraine-crisis-idUSL6N0LY02520140301'
p1473
sg4
S'20140301\xc2\xa01:06AM UTC'
p1474
sg6
S'WRAPUP -Obama warns Putin against military intervention in Ukraine'
p1475
sa(dp1476
g2
S'http://www.reuters.com/article/2014/03/01/jcrew-uniqlo-idUSL1N0LX2H520140301'
p1477
sg4
S'20140301\xc2\xa01:05AM UTC'
p1478
sg6
S'UPDATE 4-Fast Retailing, E.Land interested in buying J.Crew -sources'
p1479
sa(dp1480
g2
S'http://www.reuters.com/article/2014/03/01/usa-california-weather-idUSL1N0LX24N20140301'
p1481
sg4
S'20140301\xc2\xa01:03AM UTC'
p1482
sg6
S"UPDATE 3-Rain soaks California causing floods, but won't end drought"
p1483
sa(dp1484
g2
S'http://www.reuters.com/article/2014/03/01/idUSnMKWJm0lMa+1e2+MKW20140301'
p1485
sg4
S'20140301\xc2\xa01:00AM UTC'
p1486
sg6
S'San Diego Ad Club Presents 2014 American Advertising Awards'
p1487
sa(dp1488
g2
S'http://www.reuters.com/article/2014/03/01/idUSnMKWnqPm5a+1c8+MKW20140301'
p1489
sg4
S'20140301\xc2\xa01:00AM UTC'
p1490
sg6
S'Kaplan Fox Has Filed a Class Action to Recover Losses for Investors Who Purchased Coty Inc. Common Stock'
p1491
sa(dp1492
g2
S'http://www.reuters.com/article/2014/03/01/bkc-washingtonst-washington-recap-idUSMTZEA31QTBH0Q20140301'
p1493
sg4
S'20140301\xc2\xa012:58AM UTC'
p1494
sg6
S'Washington 72, Washington State 49'
p1495
sa(dp1496
g2
S'http://www.reuters.com/article/2014/03/01/hkn-wild-canucks-writethru-idUSMTZEA31QU5H2520140301'
p1497
sg4
S'20140301\xc2\xa012:49AM UTC'
p1498
sg6
S'Fontaine puhes Wild past Canucks in shootout'
p1499
sa(dp1500
g2
S'http://www.reuters.com/article/2014/03/01/hkn-coyotes-avalanche-writethru-idUSMTZEA31QQOBXM20140301'
p1501
sg4
S'20140301\xc2\xa012:27AM UTC'
p1502
sg6
S'Avalanche bounce back against Coyotes'
p1503
sa(dp1504
g2
S'http://www.reuters.com/article/2014/03/01/tx-celanese-idUSnBw286065a+100+BSW20140301'
p1505
sg4
S'20140301\xc2\xa012:14AM UTC'
p1506
sg6
S'Celanese Announces Vinyl Acetate-Based Emulsions Price Increase in Europe, Middle East and Africa'
p1507
sa(dp1508
g2
S'http://www.reuters.com/article/2014/03/01/us-usa-avalanche-montana-idUSBREA2001320140301'
p1509
sg4
S'20140301\xc2\xa012:06AM UTC'
p1510
sg6
S'Three injured in avalanche that engulfed Montana home'
p1511
sa(dp1512
g2
S'http://www.reuters.com/article/2014/03/01/bkn-grizzlies-thunder-writethru-idUSMTZEA31QNM1QQ20140301'
p1513
sg4
S'20140301\xc2\xa012:02AM UTC'
p1514
sg6
S'Thunder halt three-game skid'
p1515
sa(dp1516
g2
S'http://www.reuters.com/article/2014/03/01/census-daily-feature-idUSnPnDCwwd1+b0+PRN20140301'
p1517
sg4
S'20140301\xc2\xa012:01AM UTC'
p1518
sg6
S'U.S. Census Bureau Daily Feature for March 1'
p1519
sa(dp1520
g2
S'http://www.reuters.com/news/video/videoStory?storyID=79915047'
p1521
sg4
S'20140301\xc2\xa09:29PM UTC'
p1522
sg6
S'Ukranian-Americans rally White House for support'
p1523
sa(dp1524
g2
S'http://www.reuters.com/news/video/videoStory?storyID=79908050'
p1525
sg4
S'20140301\xc2\xa07:06PM UTC'
p1526
sg6
S"At least 28 die in alleged 'terrorist' attack at Chinese train station"
p1527
sa(dp1528
g2
S'http://www.reuters.com/news/video/videoStory?storyID=79905018'
p1529
sg4
S'20140301\xc2\xa06:11PM UTC'
p1530
sg6
S'Ukraine puts forces on combat alert, warns of war'
p1531
sa(dp1532
g2
S'http://www.reuters.com/news/video/videoStory?storyID=79902762'
p1533
sg4
S'20140301\xc2\xa04:55PM UTC'
p1534
sg6
S'Dam crack in Washington raises breach concerns'
p1535
sa(dp1536
g2
S'http://www.reuters.com/news/video/videoStory?storyID=79901359'
p1537
sg4
S'20140301\xc2\xa04:11PM UTC'
p1538
sg6
S'Killed protecting the fight against polio'
p1539
sa(dp1540
g2
S'http://www.reuters.com/news/video/videoStory?storyID=79901552'
p1541
sg4
S'20140301\xc2\xa04:09PM UTC'
p1542
sg6
S'Turkey anti-government protesters clash with police'
p1543
sa(dp1544
g2
S'http://www.reuters.com/news/video/videoStory?storyID=79900973'
p1545
sg4
S'20140301\xc2\xa04:03PM UTC'
p1546
sg6
S'Kiev residents critical of Russian moves to send troops to Crimea'
p1547
sa(dp1548
g2
S'http://www.reuters.com/news/video/videoStory?storyID=79899342'
p1549
sg4
S'20140301\xc2\xa03:27PM UTC'
p1550
sg6
S'Mass stabbing kills at least 28 in China'
p1551
sa(dp1552
g2
S'http://www.reuters.com/news/video/videoStory?storyID=79897902'
p1553
sg4
S'20140301\xc2\xa02:40PM UTC'
p1554
sg6
S'California communities remain on flash flood alert'
p1555
sa(dp1556
g2
S'http://www.reuters.com/news/video/videoStory?storyID=79897297'
p1557
sg4
S'20140301\xc2\xa02:25PM UTC'
p1558
sg6
S'UN Secretary-General calls for dialogue to end crisis in Ukraine'
p1559
sa(dp1560
g2
S'http://www.reuters.com/news/video/videoStory?storyID=79896082'
p1561
sg4
S'20140301\xc2\xa01:57PM UTC'
p1562
sg6
S'Russia wresting control of Crimea from Ukraine'
p1563
sa(dp1564
g2
S'http://www.reuters.com/news/video/videoStory?storyID=79895150'
p1565
sg4
S'20140301\xc2\xa01:36PM UTC'
p1566
sg6
S'Snowfall in Big Bear closes highways'
p1567
sa(dp1568
g2
S'http://www.reuters.com/news/video/videoStory?storyID=79892865'
p1569
sg4
S'20140301\xc2\xa012:21PM UTC'
p1570
sg6
S'Bright colors, serious suits at Dior'
p1571
sa(dp1572
g2
S'http://www.reuters.com/news/video/videoStory?storyID=79892424'
p1573
sg4
S'20140301\xc2\xa012:00PM UTC'
p1574
sg6
S'Russia supporters demand reunification as conflict escalates'
p1575
sa(dp1576
g2
S'http://www.reuters.com/news/video/videoStory?storyID=79892508'
p1577
sg4
S'20140301\xc2\xa011:54AM UTC'
p1578
sg6
S'Giant snowman brings Minnesota post-holiday cheer'
p1579
sa(dp1580
g2
S'http://www.reuters.com/news/video/videoStory?storyID=79889669'
p1581
sg4
S'20140301\xc2\xa010:39AM UTC'
p1582
sg6
S"Navy gears up for Arctic's Big Melt"
p1583
sa(dp1584
g2
S'http://www.reuters.com/news/video/videoStory?storyID=79890413'
p1585
sg4
S'20140301\xc2\xa010:31AM UTC'
p1586
sg6
S'Paws for concern'
p1587
sa(dp1588
g2
S'http://www.reuters.com/news/video/videoStory?storyID=79888655'
p1589
sg4
S'20140301\xc2\xa09:58AM UTC'
p1590
sg6
S'Obama focuses on jobs in weekly address'
p1591
sa(dp1592
g2
S'http://www.reuters.com/news/video/videoStory?storyID=79888081'
p1593
sg4
S'20140301\xc2\xa09:48AM UTC'
p1594
sg6
S'Putin submits proposal to parliament on using armed forces in Crimea'
p1595
sa(dp1596
g2
S'http://www.reuters.com/news/video/videoStory?storyID=79885703'
p1597
sg4
S'20140301\xc2\xa08:32AM UTC'
p1598
sg6
S'East Coast preps for another onslaught of snow'
p1599
sa(dp1600
g2
S'http://www.reuters.com/news/video/videoStory?storyID=79882789'
p1601
sg4
S'20140301\xc2\xa06:56AM UTC'
p1602
sg6
S'Russian military positioned at Ukrainian border guard post in Crimea'
p1603
sa(dp1604
g2
S'http://www.reuters.com/news/video/videoStory?storyID=79881386'
p1605
sg4
S'20140301\xc2\xa05:55AM UTC'
p1606
sg6
S'Azusa residents ordered to evacuate homes'
p1607
sa(dp1608
g2
S'http://www.reuters.com/news/video/videoStory?storyID=79880476'
p1609
sg4
S'20140301\xc2\xa05:17AM UTC'
p1610
sg6
S'Migrants storm into Spanish enclave'
p1611
sa(dp1612
g2
S'http://www.reuters.com/news/video/videoStory?storyID=79879696'
p1613
sg4
S'20140301\xc2\xa04:15AM UTC'
p1614
sg6
S'Kerry urges mediation in Venezuela'
p1615
sa.