(lp0
(dp1
S'href'
p2
S'http://www.reuters.com/article/2014/06/29/bbo-cardinals-dodgers-recap-idUSMTZEA6TWSAOHV20140629'
p3
sS'ts'
p4
S'20140628\xc2\xa011:24PM UTC'
p5
sS'title'
p6
S'Dodgers 9, Cardinals 1'
p7
sa(dp8
g2
S'http://www.reuters.com/article/2014/06/29/bbo-redsox-yankees-recap-idUSMTZEA6TWRGLGZ20140629'
p9
sg4
S'20140628\xc2\xa011:13PM UTC'
p10
sg6
S'Red Sox 2, Yankees 1'
p11
sa(dp12
g2
S'http://www.reuters.com/article/2014/06/29/bbo-angels-royals-writethru-idUSMTZEA6TWP0CFW20140629'
p13
sg4
S'20140628\xc2\xa010:58PM UTC'
p14
sg6
S'Angels weather delays in 6-2 win over Royals'
p15
sa(dp16
g2
S'http://www.reuters.com/article/2014/06/29/us-usa-california-bitcoin-idUSKBN0F402T20140629'
p17
sg4
S'20140628\xc2\xa010:41PM UTC'
p18
sg6
S'California governor signs bill to bring bitcoin and other currency into fold'
p19
sa(dp20
g2
S'http://www.reuters.com/article/2014/06/29/supp-ma-staples-idUSnBw265627a+100+BSW20140629'
p21
sg4
S'20140628\xc2\xa010:37PM UTC'
p22
sg6
S'ADDING MULTIMEDIA Staples and Katy Perry \xe2\x80\x9cMake Roar Happen\xe2\x80\x9d for Atlanta Teachers'
p23
sa(dp24
g2
S'http://www.reuters.com/article/2014/06/29/tn-flw-tour-update-idUSnPn8LyvSR+93+PRN20140629'
p25
sg4
S'20140628\xc2\xa010:32PM UTC'
p26
sg6
S'Redington Retains Lead, Morgan Wins Angler Of The Year Title At Walmart FLW Tour Event On Kentucky Lake Presented By Evinrude'
p27
sa(dp28
g2
S'http://www.reuters.com/article/2014/06/29/bbo-athletics-marlins-writethru-idUSMTZEA6TWOJKFO20140629'
p29
sg4
S'20140628\xc2\xa010:26PM UTC'
p30
sg6
S'Athletics get by Marlins in 14 innings'
p31
sa(dp32
g2
S'http://www.reuters.com/article/2014/06/29/us-music-glastonbury-idUSKBN0F30HH20140629'
p33
sg4
S'20140628\xc2\xa09:11PM UTC'
p34
sg6
S"Glastonbury embraces Metallica's 'heavier side'"
p35
sa(dp36
g2
S'http://www.reuters.com/article/2014/06/29/music-glastonbury-idUSL6N0PA00D20140629'
p37
sg4
S'20140628\xc2\xa09:05PM UTC'
p38
sg6
S"UPDATE 1-Britain's Glastonbury embraces Metallica's 'heavier side'"
p39
sa(dp40
g2
S'http://www.reuters.com/article/2014/06/29/bbo-tigers-astros-writethru-idUSMTZEA6TWKLZD220140629'
p41
sg4
S'20140628\xc2\xa09:05PM UTC'
p42
sg6
S"Tigers blast past Astros on Kinsler's home"
p43
sa(dp44
g2
S'http://www.reuters.com/article/2014/06/29/bbo-rockies-brewers-writethru-idUSMTZEA6TWK1TCR20140629'
p45
sg4
S'20140628\xc2\xa08:59PM UTC'
p46
sg6
S'Braun brings it again for Brewers vs. Rockies'
p47
sa(dp48
g2
S'http://www.reuters.com/article/2014/06/29/us-nba-heat-wade-idUSKBN0F30TK20140629'
p49
sg4
S'20140628\xc2\xa08:59PM UTC'
p50
sg6
S'Wade follows James by opting for free agency'
p51
sa(dp52
g2
S'http://www.reuters.com/article/2014/06/29/us-soccer-world-m52-crc-gre-santos-idUSKBN0F401J20140629'
p53
sg4
S'20140628\xc2\xa08:47PM UTC'
p54
sg6
S'Greek history lesson makes coach wary of Costa Rica threat'
p55
sa(dp56
g2
S'http://www.reuters.com/article/2014/06/29/bbo-twins-rangers-writethru-idUSMTZEA6SWHSNV420140629'
p57
sg4
S'20140628\xc2\xa08:43PM UTC'
p58
sg6
S'Darvish, Rangers shut out Twins 5-0'
p59
sa(dp60
g2
S'http://www.reuters.com/article/2014/06/29/us-usa-accident-philadelphia-idUSKBN0F401H20140629'
p61
sg4
S'20140628\xc2\xa08:40PM UTC'
p62
sg6
S'Child killed by falling security door at Philadelphia ice treat shop: report'
p63
sa(dp64
g2
S'http://www.reuters.com/article/2014/06/29/us-soccer-world-usa-idUSKBN0F401620140629'
p65
sg4
S'20140628\xc2\xa08:34PM UTC'
p66
sg6
S'Klinsmann tells Americans to change flights to after final'
p67
sa(dp68
g2
S'http://www.reuters.com/article/2014/06/29/us-athletics-us-idUSKBN0F400Y20140629'
p69
sg4
S'20140628\xc2\xa08:31PM UTC'
p70
sg6
S'McCorory holds off Richards-Ross for big 400m win'
p71
sa(dp72
g2
S'http://www.reuters.com/article/2014/06/29/us-soccer-world-m50-col-uru-pekerman-idUSKBN0F400S20140629'
p73
sg4
S'20140628\xc2\xa08:25PM UTC'
p74
sg6
S'Colombia relish prospect of beautiful game with Brazil'
p75
sa(dp76
g2
S'http://www.reuters.com/article/2014/06/29/bbo-mets-pirates-recap-idUSMTZEA6TWK1TCQ20140629'
p77
sg4
S'20140628\xc2\xa08:22PM UTC'
p78
sg6
S'Mets 5, Pirates 3'
p79
sa(dp80
g2
S'http://www.reuters.com/article/2014/06/29/athletics-us-idUSL4N0P90DF20140629'
p81
sg4
S'20140628\xc2\xa08:13PM UTC'
p82
sg6
S'Athletics-McCorory holds off Richards-Ross for big 400m win'
p83
sa(dp84
g2
S'http://www.reuters.com/article/2014/06/29/us-soccer-world-m50-col-uru-idUSKBN0F30UU20140629'
p85
sg4
S'20140628\xc2\xa08:08PM UTC'
p86
sg6
S'Rodriguez steals limelight as Colombia reach last eight'
p87
sa(dp88
g2
S'http://www.reuters.com/article/2014/06/29/us-usa-benghazi-khattala-idUSKBN0F30CU20140629'
p89
sg4
S'20140628\xc2\xa08:04PM UTC'
p90
sg6
S'Libyan suspect pleads not guilty in Benghazi attack'
p91
sa(dp92
g2
S'http://www.reuters.com/article/2014/06/29/us-usa-wolves-rally-idUSKBN0F400620140629'
p93
sg4
S'20140628\xc2\xa08:01PM UTC'
p94
sg6
S'Conservationists rally outside Yellowstone to protest wolf hunting'
p95
sa(dp96
g2
S'http://www.reuters.com/article/2014/06/29/us-golf-seniors-idUSKBN0F30U120140629'
p97
sg4
S'20140628\xc2\xa08:00PM UTC'
p98
sg6
S'Langer three ahead at Senior Players Championship'
p99
sa(dp100
g2
S'http://www.reuters.com/article/2014/06/28/us-soccer-world-idUSKBN0F30SA20140628'
p101
sg4
S'20140628\xc2\xa07:58PM UTC'
p102
sg6
S'Brazil edge Chile, Rodriguez rocket launches Colombia'
p103
sa(dp104
g2
S'http://www.reuters.com/article/2014/06/28/bbo-rays-orioles-recap-idUSMTZEA6TWJV8CO20140628'
p105
sg4
S'20140628\xc2\xa07:58PM UTC'
p106
sg6
S'Rays 5, Orioles 4'
p107
sa(dp108
g2
S'http://www.reuters.com/article/2014/06/28/us-usa-georgia-baby-idUSKBN0F30XH20140628'
p109
sg4
S'20140628\xc2\xa07:56PM UTC'
p110
sg6
S'Georgia father researched child death in hot car on Internet'
p111
sa(dp112
g2
S'http://www.reuters.com/article/2014/06/28/bbo-tigers-astros-recap-idUSMTZEA6TWKLZD220140628'
p113
sg4
S'20140628\xc2\xa07:54PM UTC'
p114
sg6
S'Tigers 4, Astros 3'
p115
sa(dp116
g2
S'http://www.reuters.com/article/2014/06/28/us-golf-pga-idUSKBN0F30X320140628'
p117
sg4
S'20140628\xc2\xa07:51PM UTC'
p118
sg6
S'Reed on verge of fourth PGA Tour win in 10 months'
p119
sa(dp120
g2
S'http://www.reuters.com/article/2014/06/28/bbo-twins-rangers-recap-idUSMTZEA6SWHSNV420140628'
p121
sg4
S'20140628\xc2\xa07:46PM UTC'
p122
sg6
S'Rangers 5, Twins 0'
p123
sa(dp124
g2
S'http://www.reuters.com/article/2014/06/28/bbo-rockies-brewers-recap-idUSMTZEA6TWK1TCR20140628'
p125
sg4
S'20140628\xc2\xa07:42PM UTC'
p126
sg6
S'Brewers 7, Rockies 4'
p127
sa(dp128
g2
S'http://www.reuters.com/article/2014/06/28/bbo-mets-pirates-recap-idUSMTZEA6TWK1TCQ20140628'
p129
sg4
S'20140628\xc2\xa07:42PM UTC'
p130
sg6
S'Mets 5, Pirates 3'
p131
sa(dp132
g2
S'http://www.reuters.com/article/2014/06/28/us-tennis-wimbledon-serena-idUSKBN0F30NZ20140628'
p133
sg4
S'20140628\xc2\xa07:36PM UTC'
p134
sg6
S'Serena suffers earliest Wimbledon exit since 2005'
p135
sa(dp136
g2
S'http://www.reuters.com/article/2014/06/28/us-usa-benghazi-khattala-idUSKBN0F30CU20140628'
p137
sg4
S'20140628\xc2\xa07:34PM UTC'
p138
sg6
S'Libyan suspect pleads not guilty in Benghazi attack'
p139
sa(dp140
g2
S'http://www.reuters.com/article/2014/06/28/us-google-cuba-idUSKBN0F30WN20140628'
p141
sg4
S'20140628\xc2\xa07:30PM UTC'
p142
sg6
S'Google execs visit Cuba for first time to promote open Internet'
p143
sa(dp144
g2
S'http://www.reuters.com/article/2014/06/28/soccer-world-bra-twitter-idUSL2N0P90P020140628'
p145
sg4
S'20140628\xc2\xa07:29PM UTC'
p146
sg6
S'Soccer-Brazil win generates more Twitter traffic than Super Bowl'
p147
sa(dp148
g2
S'http://www.reuters.com/article/2014/06/28/google-cuba-idUSL2N0P90LH20140628'
p149
sg4
S'20140628\xc2\xa07:27PM UTC'
p150
sg6
S'Google execs visit Cuba for first time to promote open Internet'
p151
sa(dp152
g2
S'http://www.reuters.com/article/2014/06/28/us-soccer-world-m50-col-uru-idUSKBN0F30UU20140628'
p153
sg4
S'20140628\xc2\xa07:27PM UTC'
p154
sg6
S'Rodriguez steals limelight as Colombia reach last eight'
p155
sa(dp156
g2
S'http://www.reuters.com/article/2014/06/28/us-soccer-world-bra-twitter-idUSKBN0F30WH20140628'
p157
sg4
S'20140628\xc2\xa07:25PM UTC'
p158
sg6
S'Brazil win generates more Twitter traffic than Super Bowl'
p159
sa(dp160
g2
S'http://www.reuters.com/article/2014/06/28/ca-herrera-statement-idUSnPn33fsL3+82+PRN20140628'
p161
sg4
S'20140628\xc2\xa07:22PM UTC'
p162
sg6
S'Herrera statement on historic appointment of Terry Stewart to the California Court of Appeal'
p163
sa(dp164
g2
S'http://www.reuters.com/article/2014/06/28/us-soccer-world-m50-col-uru-idUSKBN0F30W920140628'
p165
sg4
S'20140628\xc2\xa07:20PM UTC'
p166
sg6
S'Maracana rocks to the boys in yellow: Colombia'
p167
sa(dp168
g2
S'http://www.reuters.com/article/2014/06/28/us-soccer-world-m50-col-uru-rodriguez-idUSKBN0F30VD20140628'
p169
sg4
S'20140628\xc2\xa07:15PM UTC'
p170
sg6
S'Baby-faced Rodriguez makes Colombia forget Falcao'
p171
sa(dp172
g2
S'http://www.reuters.com/article/2014/06/28/us-china-golf-idUSKBN0F30W120140628'
p173
sg4
S'20140628\xc2\xa07:12PM UTC'
p174
sg6
S'China drives home message that golf courses are not the fairway to heaven'
p175
sa(dp176
g2
S'http://www.reuters.com/article/2014/06/28/us-tennis-wimbledon-idUSKBN0F30SX20140628'
p177
sg4
S'20140628\xc2\xa07:06PM UTC'
p178
sg6
S'WRAPUP 2-Tennis-Serena fizzles out, Nadal and Federer march on'
p179
sa(dp180
g2
S'http://www.reuters.com/article/2014/06/28/us-soccer-world-usa-idUSKBN0F30VT20140628'
p181
sg4
S'20140628\xc2\xa07:05PM UTC'
p182
sg6
S"U.S. finally embraces soccer's charms"
p183
sa(dp184
g2
S'http://www.reuters.com/article/2014/06/28/us-soccer-world-ger-revenge-idUSKBN0F30VH20140628'
p185
sg4
S'20140628\xc2\xa06:44PM UTC'
p186
sg6
S"'Disgrace of Gijon' irrelevant for Algeria match: Loew"
p187
sa(dp188
g2
S'http://www.reuters.com/article/2014/06/28/boe-dale-housing-idUSL6N0P90XF20140628'
p189
sg4
S'20140628\xc2\xa06:31PM UTC'
p190
sg6
S'Bank of England cannot control housing prices -Dale'
p191
sa(dp192
g2
S'http://www.reuters.com/article/2014/06/28/bbo-braves-phillies-recap-idUSMTZEA6SWEF3SU20140628'
p193
sg4
S'20140628\xc2\xa06:19PM UTC'
p194
sg6
S'Braves 10, Phillies 3 (1st)'
p195
sa(dp196
g2
S'http://www.reuters.com/article/2014/06/28/idUSnGNXgR2Xz+ea+GNW20140628'
p197
sg4
S'20140628\xc2\xa06:11PM UTC'
p198
sg6
S"USHCC Congratulates Chris Durovich of Children's Medical on Receiving EY Entrepreneur of the Year Award"
p199
sa(dp200
g2
S'http://www.reuters.com/article/2014/06/28/us-space-nasa-saucer-idUSKBN0F30PZ20140628'
p201
sg4
S'20140628\xc2\xa06:07PM UTC'
p202
sg6
S'Bum parachute mars NASA \xe2\x80\x98saucer\xe2\x80\x99 test flight'
p203
sa(dp204
g2
S'http://www.reuters.com/article/2014/06/28/us-soccer-world-bra-expert-idUSKBN0F30UQ20140628'
p205
sg4
S'20140628\xc2\xa06:04PM UTC'
p206
sg6
S'Brazil expert unhappy with team, hopes for Argentina final'
p207
sa(dp208
g2
S'http://www.reuters.com/article/2014/06/28/us-soccer-world-m51-mex-idUSKBN0F30UO20140628'
p209
sg4
S'20140628\xc2\xa06:02PM UTC'
p210
sg6
S"Mexico's Salcido to replace Vasquez against Dutch"
p211
sa(dp212
g2
S'http://www.reuters.com/article/2014/06/28/us-usa-florida-crash-idUSKBN0F30UM20140628'
p213
sg4
S'20140628\xc2\xa06:00PM UTC'
p214
sg6
S'Hit-run driver sought in crash that killed three women in Florida'
p215
sa(dp216
g2
S'http://www.reuters.com/article/2014/06/28/space-nasa-saucer-idUSL2N0P90MS20140628'
p217
sg4
S'20140628\xc2\xa05:58PM UTC'
p218
sg6
S"UPDATE 1-Bum parachute mars NASA 'saucer' test flight"
p219
sa(dp220
g2
S'http://www.reuters.com/article/2014/06/28/us-soccer-world-m49-bra-chi-juliocesar-idUSKBN0F30U720140628'
p221
sg4
S'20140628\xc2\xa05:54PM UTC'
p222
sg6
S'Valiant performance vindicates vilified keeper'
p223
sa(dp224
g2
S'http://www.reuters.com/article/2014/06/28/usa-military-hospitals-idUSL2N0P90ME20140628'
p225
sg4
S'20140628\xc2\xa05:53PM UTC'
p226
sg6
S'U.S. military hospitals plagued by avoidable errors -NYT'
p227
sa(dp228
g2
S'http://www.reuters.com/article/2014/06/28/us-golf-seniors-idUSKBN0F30U120140628'
p229
sg4
S'20140628\xc2\xa05:52PM UTC'
p230
sg6
S'Langer moves three ahead at Senior Players Championship'
p231
sa(dp232
g2
S'http://www.reuters.com/article/2014/06/28/us-libya-elections-idUSKBN0F30TW20140628'
p233
sg4
S'20140628\xc2\xa05:50PM UTC'
p234
sg6
S'Libya needs two weeks to publish elections results'
p235
sa(dp236
g2
S'http://www.reuters.com/article/2014/06/28/us-tennis-wimbledon-cornet-idUSKBN0F30TU20140628'
p237
sg4
S'20140628\xc2\xa05:48PM UTC'
p238
sg6
S'Cornet seals it with a kiss'
p239
sa(dp240
g2
S'http://www.reuters.com/article/2014/06/28/us-soccer-world-m49-bra-chi-scolari-idUSKBN0F30TS20140628'
p241
sg4
S'20140628\xc2\xa05:47PM UTC'
p242
sg6
S"Brazil 'three steps from heaven', says Scolari"
p243
sa(dp244
g2
S'http://www.reuters.com/article/2014/06/28/bbo-whitesox-bluejays-recap-idUSMTZEA6SWB2YR220140628'
p245
sg4
S'20140628\xc2\xa05:46PM UTC'
p246
sg6
S'White Sox 4, Blue Jays 3'
p247
sa(dp248
g2
S'http://www.reuters.com/article/2014/06/28/us-nba-heat-wade-idUSKBN0F30TK20140628'
p249
sg4
S'20140628\xc2\xa05:36PM UTC'
p250
sg6
S'Wade follows James by opting for free agency'
p251
sa(dp252
g2
S'http://www.reuters.com/article/2014/06/28/libya-elections-idUSL6N0P90X720140628'
p253
sg4
S'20140628\xc2\xa05:34PM UTC'
p254
sg6
S'Libya needs two weeks to publish elections results'
p255
sa(dp256
g2
S'http://www.reuters.com/article/2014/06/28/us-soccer-world-m49-bra-chi-analysis-idUSKBN0F30TF20140628'
p257
sg4
S'20140628\xc2\xa05:33PM UTC'
p258
sg6
S"Brazil almost undone by Chile's pressing game"
p259
sa(dp260
g2
S'http://www.reuters.com/article/2014/06/28/us-usa-newjersey-actionpark-idUSKBN0F30ST20140628'
p261
sg4
S'20140628\xc2\xa05:13PM UTC'
p262
sg6
S'New Jersey resort is rechristened with its once notorious name'
p263
sa(dp264
g2
S'http://www.reuters.com/article/2014/06/28/us-usa-airlines-obituary-idUSKBN0F30SM20140628'
p265
sg4
S'20140628\xc2\xa05:09PM UTC'
p266
sg6
S'Southwest Airlines co-founder dies at 83'
p267
sa(dp268
g2
S'http://www.reuters.com/article/2014/06/28/usa-airlines-obituary-idUSL2N0P90KB20140628'
p269
sg4
S'20140628\xc2\xa05:02PM UTC'
p270
sg6
S'Southwest Airlines co-founder dies at 83'
p271
sa(dp272
g2
S'http://www.reuters.com/article/2014/06/28/idUSnMKWYfXJFa+1ee+MKW20140628'
p273
sg4
S'20140628\xc2\xa05:00PM UTC'
p274
sg6
S'Target Acquisitions I, Inc., Announces Intent to Change Name'
p275
sa(dp276
g2
S'http://www.reuters.com/article/2014/06/28/us-usa-exim-idUSKBN0F30S020140628'
p277
sg4
S'20140628\xc2\xa04:48PM UTC'
p278
sg6
S'All is not lost for Ex-Im Bank amid Republican jockeying'
p279
sa(dp280
g2
S'http://www.reuters.com/article/2014/06/28/us-soccer-world-m49-bra-chi-sampaoli-idUSKBN0F30RW20140628'
p281
sg4
S'20140628\xc2\xa04:45PM UTC'
p282
sg6
S"'Beautiful' Chile agonizingly near, says coach Sampaoli"
p283
sa(dp284
g2
S'http://www.reuters.com/article/2014/06/28/bbo-nationals-cubs-recap-idUSMTZEA6SW9YYQJ20140628'
p285
sg4
S'20140628\xc2\xa04:42PM UTC'
p286
sg6
S'Nationals 3, Cubs 0 (1st)'
p287
sa(dp288
g2
S'http://www.reuters.com/article/2014/06/28/wi-kemps-world-record-idUSnPn570RJ7+86+PRN20140628'
p289
sg4
S'20140628\xc2\xa04:41PM UTC'
p290
sg6
S'Kemps Dairy Sets Guinness World Record With 3,010-Pound, "World\'s Largest Ice Cream Scoop" at Cedarburg\'s Strawberry Festival'
p291
sa(dp292
g2
S'http://www.reuters.com/article/2014/06/28/us-soccer-world-m52-crc-gre-pinto-idUSKBN0F30RJ20140628'
p293
sg4
S'20140628\xc2\xa04:34PM UTC'
p294
sg6
S'Costa Rica aim to keep "surprising the world", says Pinto'
p295
sa(dp296
g2
S'http://www.reuters.com/article/2014/06/28/us-nhl-draft-lemieux-idUSKBN0F30RF20140628'
p297
sg4
S'20140628\xc2\xa04:32PM UTC'
p298
sg6
S'Latest Lemieux enters league after selection in second round'
p299
sa(dp300
g2
S'http://www.reuters.com/article/2014/06/28/statoil-fire-ohio-idUSWEB00OYU20140628'
p301
sg4
S'20140628\xc2\xa04:30PM UTC'
p302
sg6
S"Norway's Statoil says battling fire at Ohio shale well pad"
p303
sa(dp304
g2
S'http://www.reuters.com/article/2014/06/28/us-soccer-world-m49-bra-chi-idUSKBN0F30OP20140628'
p305
sg4
S'20140628\xc2\xa04:30PM UTC'
p306
sg6
S'Cesar the hero as nervous Brazil sink Chile on penalties'
p307
sa(dp308
g2
S'http://www.reuters.com/article/2014/06/28/usa-exim-idUSL2N0P728N20140628'
p309
sg4
S'20140628\xc2\xa04:28PM UTC'
p310
sg6
S'CORRECTED-All is not lost for Ex-Im Bank amid Republican jockeying'
p311
sa(dp312
g2
S'http://www.reuters.com/article/2014/06/28/us-tennis-wimbledon-federer-idUSKBN0F30OF20140628'
p313
sg4
S'20140628\xc2\xa04:25PM UTC'
p314
sg6
S'Federer powers way past Colombian Giraldo'
p315
sa(dp316
g2
S'http://www.reuters.com/article/2014/06/28/us-soccer-world-m49-bra-chi-silva-idUSKBN0F30R920140628'
p317
sg4
S'20140628\xc2\xa04:24PM UTC'
p318
sg6
S"Julio Cesar predicted he would be Brazil's hero: Thiago Silva"
p319
sa(dp320
g2
S'http://www.reuters.com/article/2014/06/28/us-soccer-world-bel-debruyne-idUSKBN0F30QV20140628'
p321
sg4
S'20140628\xc2\xa04:12PM UTC'
p322
sg6
S"Belgium's De Bruyne expects tough American challenge"
p323
sa(dp324
g2
S'http://www.reuters.com/article/2014/06/28/us-soccer-world-germany-pitch-idUSKBN0F30QP20140628'
p325
sg4
S'20140628\xc2\xa04:07PM UTC'
p326
sg6
S'German FA vows to finish pitch after locals protest'
p327
sa(dp328
g2
S'http://www.reuters.com/article/2014/06/28/foresters-stpaulbuild-idUSnPn5Bx6yW+91+PRN20140628'
p329
sg4
S'20140628\xc2\xa04:00PM UTC'
p330
sg6
S'Foresters and KaBOOM! celebrate 100 playgrounds at Saint Paul Music Academy'
p331
sa(dp332
g2
S'http://www.reuters.com/article/2014/06/28/us-egypt-blast-idUSKBN0F30A420140628'
p333
sg4
S'20140628\xc2\xa03:58PM UTC'
p334
sg6
S'Explosion at small Cairo telephone exchange kills two'
p335
sa(dp336
g2
S'http://www.reuters.com/article/2014/06/28/egypt-blast-idUSL6N0P90BS20140628'
p337
sg4
S'20140628\xc2\xa03:49PM UTC'
p338
sg6
S'CORRECTED-UPDATE 2-Explosion at small Cairo telephone exchange kills two'
p339
sa(dp340
g2
S'http://www.reuters.com/article/2014/06/28/us-tennis-wimbledon-nadal-idUSKBN0F30HD20140628'
p341
sg4
S'20140628\xc2\xa03:43PM UTC'
p342
sg6
S'Nadal offers battling example to young players'
p343
sa(dp344
g2
S'http://www.reuters.com/article/2014/06/28/us-nissan-usa-investigation-idUSKBN0F30Q420140628'
p345
sg4
S'20140628\xc2\xa03:40PM UTC'
p346
sg6
S'U.S. agency probes Nissan Versa over speed control '
p347
sa(dp348
g2
S'http://www.reuters.com/article/2014/06/28/us-ukraine-crisis-osce-idUSKBN0F30N220140628'
p349
sg4
S'20140628\xc2\xa03:35PM UTC'
p350
sg6
S'Ukraine rebels free OSCE monitors, three Ukrainians killed in attack'
p351
sa(dp352
g2
S'http://www.reuters.com/article/2014/06/28/space-nasa-saucer-idUSL2N0P90HH20140628'
p353
sg4
S'20140628\xc2\xa03:30PM UTC'
p354
sg6
S"NASA launches balloon carrying Mars 'saucer' prototype"
p355
sa(dp356
g2
S'http://www.reuters.com/article/2014/06/28/us-ww1-anniversary-bosnia-idUSKBN0F307C20140628'
p357
sg4
S'20140628\xc2\xa03:29PM UTC'
p358
sg6
S'Sarajevo recalls the gunshot that sent the world to war'
p359
sa(dp360
g2
S'http://www.reuters.com/article/2014/06/28/us-belgium-shooting-france-idUSKBN0F30PJ20140628'
p361
sg4
S'20140628\xc2\xa03:24PM UTC'
p362
sg6
S'Suspect in Jewish Museum attack appeals extradition ruling'
p363
sa(dp364
g2
S'http://www.reuters.com/article/2014/06/28/us-soccer-world-m50-col-uru-teams-idUSKBN0F30PB20140628'
p365
sg4
S'20140628\xc2\xa03:22PM UTC'
p366
sg6
S'Forlan replaces Suarez in Uruguay team against Colombia'
p367
sa(dp368
g2
S'http://www.reuters.com/article/2014/06/28/us-saudi-ramadan-idUSKBN0F30P920140628'
p369
sg4
S'20140628\xc2\xa03:19PM UTC'
p370
sg6
S'Saudi king, in Ramadan message, vows to crush terrorists'
p371
sa(dp372
g2
S'http://www.reuters.com/article/2014/06/28/nissan-usa-investigation-idUSL2N0P90I020140628'
p373
sg4
S'20140628\xc2\xa03:19PM UTC'
p374
sg6
S'U.S. agency probes Nissan Versa over speed control'
p375
sa(dp376
g2
S'http://www.reuters.com/article/2014/06/28/saudi-ramadan-idUSL6N0P90RG20140628'
p377
sg4
S'20140628\xc2\xa03:08PM UTC'
p378
sg6
S'Saudi king, in Ramadan message, vows to crush terrorists'
p379
sa(dp380
g2
S'http://www.reuters.com/article/2014/06/28/boeing-1500th-idUSnPn5mshz3+80+PRN20140628'
p381
sg4
S'20140628\xc2\xa03:00PM UTC'
p382
sg6
S'Boeing Delivers 1,500th 747'
p383
sa(dp384
g2
S'http://www.reuters.com/article/2014/06/28/us-soccer-world-bel-idUSKBN0F30C820140628'
p385
sg4
S'20140628\xc2\xa02:56PM UTC'
p386
sg6
S'Belgium seek quick recovery of injured defenders'
p387
sa(dp388
g2
S'http://www.reuters.com/article/2014/06/28/us-soccer-world-germany-loew-idUSKBN0F30NR20140628'
p389
sg4
S'20140628\xc2\xa02:50PM UTC'
p390
sg6
S'Loew says Latin American passion has hastened European exits'
p391
sa(dp392
g2
S'http://www.reuters.com/article/2014/06/28/us-egypt-security-idUSKBN0F30NP20140628'
p393
sg4
S'20140628\xc2\xa02:47PM UTC'
p394
sg6
S'Gunmen kill four Egyptian soldiers in North Sinai: state media'
p395
sa(dp396
g2
S'http://www.reuters.com/article/2014/06/28/bc-roland-berger-ceo-idUSnPn9LVt0p+98+PRN20140628'
p397
sg4
S'20140628\xc2\xa02:45PM UTC'
p398
sg6
S'Roland Berger Strategy Consultants: Charles-Edouard Bou\xc3\xa9e Elected New CEO'
p399
sa(dp400
g2
S'http://www.reuters.com/article/2014/06/28/us-palestinian-israel-violence-idUSKBN0F30NG20140628'
p401
sg4
S'20140628\xc2\xa02:44PM UTC'
p402
sg6
S'Rocket from Gaza sets factory ablaze in southern Israel'
p403
sa(dp404
g2
S'http://www.reuters.com/article/2014/06/28/us-tennis-wimbledon-sharapova-idUSKBN0F30KB20140628'
p405
sg4
S'20140628\xc2\xa02:43PM UTC'
p406
sg6
S'Contented Sharapova strides into fourth round'
p407
sa(dp408
g2
S'http://www.reuters.com/article/2014/06/28/bulgaria-banking-idUSL6N0P90Q520140628'
p409
sg4
S'20140628\xc2\xa02:33PM UTC'
p410
sg6
S'Bulgaria makes first arrests over bank runs'
p411
sa(dp412
g2
S'http://www.reuters.com/article/2014/06/28/us-sudan-christian-woman-idUSKBN0F309G20140628'
p413
sg4
S'20140628\xc2\xa02:15PM UTC'
p414
sg6
S'U.S. and Sudan negotiating over Christian convert: sources'
p415
sa(dp416
g2
S'http://www.reuters.com/article/2014/06/28/us-soccer-world-m51-ned-kuyt-idUSKBN0F30ME20140628'
p417
sg4
S'20140628\xc2\xa02:15PM UTC'
p418
sg6
S'Versatile Kuyt shifts to defense with milestone in sight'
p419
sa(dp420
g2
S'http://www.reuters.com/article/2014/06/28/us-soccer-world-salvador-idUSKBN0F30MA20140628'
p421
sg4
S'20140628\xc2\xa02:13PM UTC'
p422
sg6
S"FIFA swallows defeat to Salvador's street sellers"
p423
sa(dp424
g2
S'http://www.reuters.com/article/2014/06/28/us-ukraine-crisis-idUSKBN0F30JP20140628'
p425
sg4
S'20140628\xc2\xa02:03PM UTC'
p426
sg6
S'Three Ukrainian military killed in rebel attack: spokesman'
p427
sa(dp428
g2
S'http://www.reuters.com/article/2014/06/28/us-soccer-world-m49-bra-chi-idUSKBN0F30K320140628'
p429
sg4
S'20140628\xc2\xa02:01PM UTC'
p430
sg6
S'Brazil v Chile World Cup match goes into extra time'
p431
sa(dp432
g2
S'http://www.reuters.com/article/2014/06/28/soccer-world-salvador-idUSL6N0P90HS20140628'
p433
sg4
S'20140628\xc2\xa02:00PM UTC'
p434
sg6
S"Soccer-FIFA swallows defeat to Salvador's street sellers"
p435
sa(dp436
g2
S'http://www.reuters.com/article/2014/06/28/us-tennis-wimbledon-idUSKBN0F30LQ20140628'
p437
sg4
S'20140628\xc2\xa01:59PM UTC'
p438
sg6
S'Nadal, Sharapova reach last 16 at soggy Wimbledon'
p439
sa(dp440
g2
S'http://www.reuters.com/article/2014/06/28/us-soccer-world-germany-idUSKBN0F30LF20140628'
p441
sg4
S'20140628\xc2\xa01:56PM UTC'
p442
sg6
S'Loew says Germany must improve finishing in knockout round'
p443
sa(dp444
g2
S'http://www.reuters.com/article/2014/06/28/us-retail-americanapparel-shareholders-idUSKBN0F30L920140628'
p445
sg4
S'20140628\xc2\xa01:49PM UTC'
p446
sg6
S'American Apparel adopts shareholder rights plan'
p447
sa(dp448
g2
S'http://www.reuters.com/article/2014/06/28/retail-americanapparel-shareholders-idUSL2N0P90F920140628'
p449
sg4
S'20140628\xc2\xa01:43PM UTC'
p450
sg6
S'American Apparel adopts shareholder rights plan'
p451
sa(dp452
g2
S'http://www.reuters.com/article/2014/06/28/us-soccer-world-bra-futsal-idUSKBN0F30IP20140628'
p453
sg4
S'20140628\xc2\xa01:36PM UTC'
p454
sg6
S'Futsal the bedrock of Brazilian football success'
p455
sa(dp456
g2
S'http://www.reuters.com/article/2014/06/28/us-bnp-paribas-usa-idUSKBN0F309820140628'
p457
sg4
S'20140628\xc2\xa01:31PM UTC'
p458
sg6
S'BNP Paribas CEO tells employees bank facing heavy U.S. penalties'
p459
sa(dp460
g2
S'http://www.reuters.com/article/2014/06/28/us-tennis-wimbledon-rain-idUSKBN0F30AP20140628'
p461
sg4
S'20140628\xc2\xa01:30PM UTC'
p462
sg6
S'Play resumes on outside courts at Wimbledon'
p463
sa(dp464
g2
S'http://www.reuters.com/article/2014/06/28/nv-cirque-du-soleil-idUSnPn4SQDFw+9e+PRN20140628'
p465
sg4
S'20140628\xc2\xa01:30PM UTC'
p466
sg6
S'NeNe Leakes Premieres In Zumanity, The Sensual Side of Cirque du Soleil For Special Engagement As First-Ever Guest Emcee Through July 1'
p467
sa(dp468
g2
S'http://www.reuters.com/article/2014/06/28/us-iraq-security-idUSKBN0F20S720140628'
p469
sg4
S'20140628\xc2\xa01:29PM UTC'
p470
sg6
S'Iraqi troops push to retake Tikrit from rebels, parties pursue talks'
p471
sa(dp472
g2
S'http://www.reuters.com/article/2014/06/28/us-iraq-security-iran-idUSKBN0F30KP20140628'
p473
sg4
S'20140628\xc2\xa01:27PM UTC'
p474
sg6
S'Khamenei calls Iraq war a showdown between humanity and barbarity'
p475
sa(dp476
g2
S'http://www.reuters.com/article/2014/06/28/bnp-paribas-usa-idUSL6N0P909I20140628'
p477
sg4
S'20140628\xc2\xa01:26PM UTC'
p478
sg6
S'UPDATE 2-BNP Paribas CEO tells employees bank facing heavy U.S. penalties'
p479
sa(dp480
g2
S'http://www.reuters.com/article/2014/06/28/bbo-whitesox-playerwatch-idUSMTZEA6SW1XQOY20140628'
p481
sg4
S'20140628\xc2\xa01:01PM UTC'
p482
sg6
S'Chicago White Sox - PlayerWatch'
p483
sa(dp484
g2
S'http://www.reuters.com/article/2014/06/28/bbo-royals-playerwatch-idUSMTZEA6SW1XPOX20140628'
p485
sg4
S'20140628\xc2\xa01:01PM UTC'
p486
sg6
S'Kansas City Royals - PlayerWatch'
p487
sa(dp488
g2
S'http://www.reuters.com/article/2014/06/28/bbo-redsox-playerwatch-idUSMTZEA6SW1XPOT20140628'
p489
sg4
S'20140628\xc2\xa01:01PM UTC'
p490
sg6
S'Boston Red Sox - PlayerWatch'
p491
sa(dp492
g2
S'http://www.reuters.com/article/2014/06/28/bbo-astros-playerwatch-idUSMTZEA6SW1XPOH20140628'
p493
sg4
S'20140628\xc2\xa01:01PM UTC'
p494
sg6
S'Houston Astros - PlayerWatch'
p495
sa(dp496
g2
S'http://www.reuters.com/article/2014/06/28/bbo-indians-playerwatch-idUSMTZEA6SW1XPO620140628'
p497
sg4
S'20140628\xc2\xa01:01PM UTC'
p498
sg6
S'Cleveland Indians - PlayerWatch'
p499
sa(dp500
g2
S'http://www.reuters.com/article/2014/06/28/bbo-rays-playerwatch-idUSMTZEA6SW1XPOW20140628'
p501
sg4
S'20140628\xc2\xa01:01PM UTC'
p502
sg6
S'Tampa Bay Rays - PlayerWatch'
p503
sa(dp504
g2
S'http://www.reuters.com/article/2014/06/28/bbo-pirates-playerwatch-idUSMTZEA6SW1XPOR20140628'
p505
sg4
S'20140628\xc2\xa01:01PM UTC'
p506
sg6
S'Pittsburgh Pirates - PlayerWatch'
p507
sa(dp508
g2
S'http://www.reuters.com/article/2014/06/28/bbo-mets-playerwatch-idUSMTZEA6SW1XPOG20140628'
p509
sg4
S'20140628\xc2\xa01:01PM UTC'
p510
sg6
S'New York Mets - PlayerWatch'
p511
sa(dp512
g2
S'http://www.reuters.com/article/2014/06/28/bbo-padres-playerwatch-idUSMTZEA6SW1XPOQ20140628'
p513
sg4
S'20140628\xc2\xa01:01PM UTC'
p514
sg6
S'San Diego Padres - PlayerWatch'
p515
sa(dp516
g2
S'http://www.reuters.com/article/2014/06/28/bbo-nationals-playerwatch-idUSMTZEA6SW1XPOF20140628'
p517
sg4
S'20140628\xc2\xa01:01PM UTC'
p518
sg6
S'Washington Nationals - PlayerWatch'
p519
sa(dp520
g2
S'http://www.reuters.com/article/2014/06/28/bbo-rockies-playerwatch-idUSMTZEA6SW1XPOP20140628'
p521
sg4
S'20140628\xc2\xa01:01PM UTC'
p522
sg6
S'Colorado Rockies - PlayerWatch'
p523
sa(dp524
g2
S'http://www.reuters.com/article/2014/06/28/bbo-marlins-playerwatch-idUSMTZEA6SW1XPOE20140628'
p525
sg4
S'20140628\xc2\xa01:01PM UTC'
p526
sg6
S'Miami Marlins - PlayerWatch'
p527
sa(dp528
g2
S'http://www.reuters.com/article/2014/06/28/bbo-yankees-playerwatch-idUSMTZEA6SW1XPOO20140628'
p529
sg4
S'20140628\xc2\xa01:01PM UTC'
p530
sg6
S'New York Yankees - PlayerWatch'
p531
sa(dp532
g2
S'http://www.reuters.com/article/2014/06/28/bbo-phillies-playerwatch-idUSMTZEA6SW1XPOD20140628'
p533
sg4
S'20140628\xc2\xa01:01PM UTC'
p534
sg6
S'Philadelphia Phillies - PlayerWatch'
p535
sa(dp536
g2
S'http://www.reuters.com/article/2014/06/28/bbo-dodgers-playerwatch-idUSMTZEA6SW1XPON20140628'
p537
sg4
S'20140628\xc2\xa01:01PM UTC'
p538
sg6
S'Los Angeles Dodgers - PlayerWatch'
p539
sa(dp540
g2
S'http://www.reuters.com/article/2014/06/28/bbo-braves-playerwatch-idUSMTZEA6SW1XPOC20140628'
p541
sg4
S'20140628\xc2\xa01:01PM UTC'
p542
sg6
S'Atlanta Braves - PlayerWatch'
p543
sa(dp544
g2
S'http://www.reuters.com/article/2014/06/28/bbo-diamondbacks-playerwatch-idUSMTZEA6SW1XPOM20140628'
p545
sg4
S'20140628\xc2\xa01:01PM UTC'
p546
sg6
S'Arizona Diamondbacks - PlayerWatch'
p547
sa(dp548
g2
S'http://www.reuters.com/article/2014/06/28/bbo-rangers-playerwatch-idUSMTZEA6SW1XPOB20140628'
p549
sg4
S'20140628\xc2\xa01:01PM UTC'
p550
sg6
S'Texas Rangers - PlayerWatch'
p551
sa(dp552
g2
S'http://www.reuters.com/article/2014/06/28/bbo-giants-playerwatch-idUSMTZEA6SW1XPOL20140628'
p553
sg4
S'20140628\xc2\xa01:01PM UTC'
p554
sg6
S'San Francisco Giants - PlayerWatch'
p555
sa(dp556
g2
S'http://www.reuters.com/article/2014/06/28/bbo-angels-playerwatch-idUSMTZEA6SW1XPOA20140628'
p557
sg4
S'20140628\xc2\xa01:01PM UTC'
p558
sg6
S'Los Angeles Angels - PlayerWatch'
p559
sa(dp560
g2
S'http://www.reuters.com/article/2014/06/28/bbo-reds-playerwatch-idUSMTZEA6SW1XPOK20140628'
p561
sg4
S'20140628\xc2\xa01:01PM UTC'
p562
sg6
S'Cincinnati Reds - PlayerWatch'
p563
sa(dp564
g2
S'http://www.reuters.com/article/2014/06/28/bbo-athletics-playerwatch-idUSMTZEA6SW1XPO920140628'
p565
sg4
S'20140628\xc2\xa01:01PM UTC'
p566
sg6
S'Oakland Athletics - PlayerWatch'
p567
sa(dp568
g2
S'http://www.reuters.com/article/2014/06/28/bbo-twins-playerwatch-idUSMTZEA6SW1XPO520140628'
p569
sg4
S'20140628\xc2\xa01:01PM UTC'
p570
sg6
S'Minnesota Twins - PlayerWatch'
p571
sa(dp572
g2
S'http://www.reuters.com/article/2014/06/28/bbo-orioles-playerwatch-idUSMTZEA6SW1XPOV20140628'
p573
sg4
S'20140628\xc2\xa01:01PM UTC'
p574
sg6
S'Baltimore Orioles - PlayerWatch'
p575
sa(dp576
g2
S'http://www.reuters.com/article/2014/06/28/bbo-cubs-playerwatch-idUSMTZEA6SW1XPOJ20140628'
p577
sg4
S'20140628\xc2\xa01:01PM UTC'
p578
sg6
S'Chicago Cubs - PlayerWatch'
p579
sa(dp580
g2
S'http://www.reuters.com/article/2014/06/28/bbo-mariners-playerwatch-idUSMTZEA6SW1XPO820140628'
p581
sg4
S'20140628\xc2\xa01:01PM UTC'
p582
sg6
S'Seattle Mariners - PlayerWatch'
p583
sa(dp584
g2
S'http://www.reuters.com/article/2014/06/28/bbo-bluejays-playerwatch-idUSMTZEA6SW1XPOU20140628'
p585
sg4
S'20140628\xc2\xa01:01PM UTC'
p586
sg6
S'Toronto Blue Jays - PlayerWatch'
p587
sa(dp588
g2
S'http://www.reuters.com/article/2014/06/28/bbo-cardinals-playerwatch-idUSMTZEA6SW1XPOI20140628'
p589
sg4
S'20140628\xc2\xa01:01PM UTC'
p590
sg6
S'St. Louis Cardinals - PlayerWatch'
p591
sa(dp592
g2
S'http://www.reuters.com/article/2014/06/28/bbo-tigers-playerwatch-idUSMTZEA6SW1XPO720140628'
p593
sg4
S'20140628\xc2\xa01:01PM UTC'
p594
sg6
S'Detroit Tigers - PlayerWatch'
p595
sa(dp596
g2
S'http://www.reuters.com/article/2014/06/28/ca-edmodo-idUSnBw285006a+100+BSW20140628'
p597
sg4
S'20140628\xc2\xa01:00PM UTC'
p598
sg6
S'Edmodo Releases App for Windows 8.1 at ISTE 2014'
p599
sa(dp600
g2
S'http://www.reuters.com/article/2014/06/28/us-soccer-world-m49-bra-chi-teams-idUSKBN0F30K920140628'
p601
sg4
S'20140628\xc2\xa012:57PM UTC'
p602
sg6
S'Brazil v Chile - teams'
p603
sa(dp604
g2
S'http://www.reuters.com/article/2014/06/28/us-india-building-collapse-idUSKBN0F30JT20140628'
p605
sg4
S'20140628\xc2\xa012:52PM UTC'
p606
sg6
S'Building collapses kill 11 in India, lax monitoring blamed'
p607
sa(dp608
g2
S'http://www.reuters.com/article/2014/06/28/austria-hypo-idUSL6N0P90LG20140628'
p609
sg4
S'20140628\xc2\xa012:49PM UTC'
p610
sg6
S'UPDATE 1-Bavaria considers lawsuit against Austria over Hypo - report'
p611
sa(dp612
g2
S'http://www.reuters.com/article/2014/06/28/india-building-collapse-idUSL4N0P906W20140628'
p613
sg4
S'20140628\xc2\xa012:43PM UTC'
p614
sg6
S'UPDATE 1-Building collapses kill 11 in India, lax monitoring blamed'
p615
sa(dp616
g2
S'http://www.reuters.com/article/2014/06/28/iraq-security-idUSL6N0P903F20140628'
p617
sg4
S'20140628\xc2\xa012:40PM UTC'
p618
sg6
S'WRAPUP 3-Iraqi troops push to retake Tikrit from rebels, parties pursue talks'
p619
sa(dp620
g2
S'http://www.reuters.com/article/2014/06/28/us-soccer-world-m51-ned-idUSKBN0F30IZ20140628'
p621
sg4
S'20140628\xc2\xa012:23PM UTC'
p622
sg6
S'Netherlands concerned about heat, pitch for Mexico match'
p623
sa(dp624
g2
S'http://www.reuters.com/article/2014/06/28/austria-hypo-idUSL6N0P90FH20140628'
p625
sg4
S'20140628\xc2\xa012:08PM UTC'
p626
sg6
S'Bavaria considers lawsuit against Austria over Hypo - report'
p627
sa(dp628
g2
S'http://www.reuters.com/article/2014/06/28/mcgraw-hill-edu-iste-idUSnPn9j2T82+84+PRN20140628'
p629
sg4
S'20140628\xc2\xa012:00PM UTC'
p630
sg6
S'McGraw-Hill Education Raises the Ed-Tech Stakes at the 2014 ISTE Conference, Unveiling All-Digital Professional Development Platform for K-12 Teachers'
p631
sa(dp632
g2
S'http://www.reuters.com/article/2014/06/28/us-usa-nestle-icecream-idUSKBN0F30HN20140628'
p633
sg4
S'20140628\xc2\xa011:58AM UTC'
p634
sg6
S'Nestle recalls ice cream that fails to note peanuts in labeling'
p635
sa(dp636
g2
S'http://www.reuters.com/article/2014/06/28/us-soccer-world-suarez-report-idUSKBN0F30FP20140628'
p637
sg4
S'20140628\xc2\xa011:56AM UTC'
p638
sg6
S'FIFA hit Suarez hard because he showed no regret'
p639
sa(dp640
g2
S'http://www.reuters.com/article/2014/06/28/us-music-glastonbury-idUSKBN0F30HH20140628'
p641
sg4
S'20140628\xc2\xa011:55AM UTC'
p642
sg6
S'Stormy Glastonbury set for heavy metal debut'
p643
sa(dp644
g2
S'http://www.reuters.com/article/2014/06/28/us-soccer-world-brazil-germans-idUSKBN0F30HF20140628'
p645
sg4
S'20140628\xc2\xa011:53AM UTC'
p646
sg6
S'German roots go deep in Porto Alegre'
p647
sa(dp648
g2
S'http://www.reuters.com/article/2014/06/28/us-soccer-world-africa-idUSKBN0F30H920140628'
p649
sg4
S'20140628\xc2\xa011:50AM UTC'
p650
sg6
S'Cameroon, Ghana order enquiries into World Cup debacles'
p651
sa(dp652
g2
S'http://www.reuters.com/article/2014/06/28/us-soccer-world-fifa-racism-idUSKBN0F30H520140628'
p653
sg4
S'20140628\xc2\xa011:47AM UTC'
p654
sg6
S'No action from FIFA on Croatia, Russia racism reports'
p655
sa(dp656
g2
S'http://www.reuters.com/article/2014/06/28/us-world-soccer-arg-idUSKBN0F30H320140628'
p657
sg4
S'20140628\xc2\xa011:46AM UTC'
p658
sg6
S"Argentina's Lavezzi set to replace Aguero v Switzerland"
p659
sa(dp660
g2
S'http://www.reuters.com/article/2014/06/28/us-soccer-world-m53-fra-nga-idUSKBN0F30GZ20140628'
p661
sg4
S'20140628\xc2\xa011:44AM UTC'
p662
sg6
S'France pinning hopes on Benzema for Nigeria clash'
p663
sa(dp664
g2
S'http://www.reuters.com/article/2014/06/28/us-television-aereo-idUSKBN0F30GR20140628'
p665
sg4
S'20140628\xc2\xa011:40AM UTC'
p666
sg6
S'Video streamer Aereo suspending service after court decision'
p667
sa(dp668
g2
S'http://www.reuters.com/article/2014/06/28/music-glastonbury-idUSL6N0P859S20140628'
p669
sg4
S'20140628\xc2\xa011:37AM UTC'
p670
sg6
S'Stormy Glastonbury set for heavy metal debut'
p671
sa(dp672
g2
S'http://www.reuters.com/article/2014/06/28/usa-nestle-icecream-idUSL2N0P90BJ20140628'
p673
sg4
S'20140628\xc2\xa011:28AM UTC'
p674
sg6
S'Nestle recalls ice cream that fails to note peanuts in labeling'
p675
sa(dp676
g2
S'http://www.reuters.com/article/2014/06/28/television-aereo-idUSL2N0P90C020140628'
p677
sg4
S'20140628\xc2\xa011:27AM UTC'
p678
sg6
S'Video streamer Aereo suspending service after court decision'
p679
sa(dp680
g2
S'http://www.reuters.com/article/2014/06/28/us-soccer-world-suarez-appeal-idUSKBN0F30EF20140628'
p681
sg4
S'20140628\xc2\xa011:18AM UTC'
p682
sg6
S'Uruguay appealing Suarez ban, FA tells FIFA'
p683
sa(dp684
g2
S'http://www.reuters.com/article/2014/06/28/us-soccer-world-m49-bra-chi-teams-idUSKBN0F30FX20140628'
p685
sg4
S'20140628\xc2\xa011:09AM UTC'
p686
sg6
S'Brazil bring in Fernandinho against full-strength Chile'
p687
sa(dp688
g2
S'http://www.reuters.com/article/2014/06/28/us-soccer-world-bel-defour-idUSKBN0F30FV20140628'
p689
sg4
S'20140628\xc2\xa011:08AM UTC'
p690
sg6
S"Belgium's Defour could face longer ban at World Cup"
p691
sa(dp692
g2
S'http://www.reuters.com/article/2014/06/28/us-soccer-world-blatter-idUSKBN0F30FT20140628'
p693
sg4
S'20140628\xc2\xa011:07AM UTC'
p694
sg6
S"UEFA plays down Blatter's Euro 2016 technology remarks"
p695
sa(dp696
g2
S'http://www.reuters.com/article/2014/06/28/idUSnMKWDbcL6a+1e4+MKW20140628'
p697
sg4
S'20140628\xc2\xa011:00AM UTC'
p698
sg6
S"Statement by the Honourable Michelle Rempel Highlighting the Value of BC's Wine Industry"
p699
sa(dp700
g2
S'http://www.reuters.com/article/2014/06/28/allied-telesis-conf-idUSnPnbdDL62+8c+PRN20140628'
p701
sg4
S'20140628\xc2\xa011:00AM UTC'
p702
sg6
S'Allied Telesis Showcases Simplified Network Configuration and Management for Education Market'
p703
sa(dp704
g2
S'http://www.reuters.com/article/2014/06/28/idUSnMKWxvg9ma+1c0+MKW20140628'
p705
sg4
S'20140628\xc2\xa010:57AM UTC'
p706
sg6
S'The AIDS Generation Selected as 2014 Division 44 Book Award'
p707
sa(dp708
g2
S'http://www.reuters.com/article/2014/06/28/ny-faruqifaruqi-kbr-idUSnPn9sTKHZ+8f+PRN20140628'
p709
sg4
S'20140628\xc2\xa010:48AM UTC'
p710
sg6
S'Faruqi & Faruqi, LLP Reminds Investors In KBR, Inc. (KBR) Of Imminent Deadline To Protect Your Rights'
p711
sa(dp712
g2
S'http://www.reuters.com/article/2014/06/28/us-nigeria-violence-idUSKBN0F308D20140628'
p713
sg4
S'20140628\xc2\xa010:40AM UTC'
p714
sg6
S'Blast in brothel in northeast Nigeria kills 11: police'
p715
sa(dp716
g2
S'http://www.reuters.com/article/2014/06/28/unicredit-employment-idUSL6N0P90FX20140628'
p717
sg4
S'20140628\xc2\xa010:39AM UTC'
p718
sg6
S'UniCredit, unions agree 2,400 job cuts - union'
p719
sa(dp720
g2
S'http://www.reuters.com/article/2014/06/28/us-eu-summit-britain-idUSKBN0F30EH20140628'
p721
sg4
S'20140628\xc2\xa010:26AM UTC'
p722
sg6
S"British minister condemns 'cowardice' of EU leaders over Juncker vote"
p723
sa(dp724
g2
S'http://www.reuters.com/article/2014/06/28/us-soccer-world-m54-ger-alg-idUSKBN0F30DU20140628'
p725
sg4
S'20140628\xc2\xa010:21AM UTC'
p726
sg6
S'Algeria fight for glory, revenge against powerful Germany'
p727
sa(dp728
g2
S'http://www.reuters.com/article/2014/06/28/us-soccer-m54-ger-alg-idUSKBN0F30E820140628'
p729
sg4
S'20140628\xc2\xa010:20AM UTC'
p730
sg6
S'Germany v Algeria'
p731
sa(dp732
g2
S'http://www.reuters.com/article/2014/06/28/us-yemen-violence-idUSKBN0F30DI20140628'
p733
sg4
S'20140628\xc2\xa010:09AM UTC'
p734
sg6
S'Suspected Islamists stage attacks in southern Yemen as Ramadan begins'
p735
sa(dp736
g2
S'http://www.reuters.com/article/2014/06/28/ny-faruqifaruqi-bcor-idUSnPn7xCZY4+8e+PRN20140628'
p737
sg4
S'20140628\xc2\xa09:54AM UTC'
p738
sg6
S'Faruqi & Faruqi, LLP Encourages Investors Who Suffered Losses In Excess Of $100,000 Investing In Blucora, Inc. (BCOR) To Contact The Firm'
p739
sa(dp740
g2
S'http://www.reuters.com/article/2014/06/28/us-singapore-gay-rally-idUSKBN0F30CM20140628'
p741
sg4
S'20140628\xc2\xa09:52AM UTC'
p742
sg6
S'Record turnout for Singapore gay rally amid religious protests'
p743
sa(dp744
g2
S'http://www.reuters.com/article/2014/06/28/singapore-gay-rally-idUSL4N0P40UQ20140628'
p745
sg4
S'20140628\xc2\xa09:46AM UTC'
p746
sg6
S'Record turnout for Singapore gay rally amid religious protests'
p747
sa(dp748
g2
S'http://www.reuters.com/article/2014/06/28/algeria-gas-idUSL6N0P90DH20140628'
p749
sg4
S'20140628\xc2\xa09:45AM UTC'
p750
sg6
S"UPDATE 1-Foreign oil workers return to work at Algeria's In Amenas gas plant - source"
p751
sa(dp752
g2
S'http://www.reuters.com/article/2014/06/28/us-china-diplomacy-idUSKBN0F30BC20140628'
p753
sg4
S'20140628\xc2\xa09:41AM UTC'
p754
sg6
S'China fetes India, Myanmar, says Beijing poses no threat'
p755
sa(dp756
g2
S'http://www.reuters.com/article/2014/06/28/algeria-gas-idUSL6N0P90D220140628'
p757
sg4
S'20140628\xc2\xa09:33AM UTC'
p758
sg6
S"Foreign oil workers return to work at Algeria's In Amenas gas plant - source"
p759
sa(dp760
g2
S'http://www.reuters.com/article/2014/06/28/aspen-ideas-festival-idUSnPn7xLhVz+8a+PRN20140628'
p761
sg4
S'20140628\xc2\xa09:32AM UTC'
p762
sg6
S'The Aspen Ideas Festival Announces Live Video for June 28'
p763
sa(dp764
g2
S'http://www.reuters.com/article/2014/06/28/huawei-curriki-iste-idUSnPn5r57GN+83+PRN20140628'
p765
sg4
S'20140628\xc2\xa09:15AM UTC'
p766
sg6
S'Huawei and Curriki Collaborate to Create Free Online Educational Resources for Calculus Students'
p767
sa(dp768
g2
S'http://www.reuters.com/article/2014/06/28/us-syria-crisis-iraq-border-idUSKBN0F30B420140628'
p769
sg4
S'20140628\xc2\xa09:13AM UTC'
p770
sg6
S'Syria Islamists challenge ISIL control of town on Iraq border'
p771
sa(dp772
g2
S'http://www.reuters.com/article/2014/06/28/us-usa-shooting-california-idUSKBN0F30B220140628'
p773
sg4
S'20140628\xc2\xa09:11AM UTC'
p774
sg6
S"Father of California mass killer never knew 'the monster' in son"
p775
sa(dp776
g2
S'http://www.reuters.com/article/2014/06/28/idUSnMKWdmQhJa+1ca+MKW20140628'
p777
sg4
S'20140628\xc2\xa09:00AM UTC'
p778
sg6
S'Media Advisory: Controversial "Men\'s Issues" Organization Ejected From Pride Parade'
p779
sa(dp780
g2
S'http://www.reuters.com/article/2014/06/28/idUSnCCN1RjqxD+1d1+MKW20140628'
p781
sg4
S'20140628\xc2\xa09:00AM UTC'
p782
sg6
S'Media Advisory: Controversial "Men\'s Issues" Organization Ejected From Pride Parade'
p783
sa(dp784
g2
S'http://www.reuters.com/article/2014/06/28/us-soccer-world-suarez-maduro-idUSKBN0F30AK20140628'
p785
sg4
S'20140628\xc2\xa08:47AM UTC'
p786
sg6
S'Venezuela: Suarez punished for hurting football powers'
p787
sa(dp788
g2
S'http://www.reuters.com/article/2014/06/28/lpi-safe-communities-idUSnPn3kZxS5+8a+PRN20140628'
p789
sg4
S'20140628\xc2\xa08:45AM UTC'
p790
sg6
S'Building Lightning Safe Communities Initiative Provides Lightning Protection System for Historic Connecticut Fire Station'
p791
sa(dp792
g2
S'http://www.reuters.com/article/2014/06/28/egypt-blast-idUSL6N0P909W20140628'
p793
sg4
S'20140628\xc2\xa08:27AM UTC'
p794
sg6
S'Explosion at small Cairo telephone exchange kills woman'
p795
sa(dp796
g2
S'http://www.reuters.com/article/2014/06/28/asiaresourceminerals-chairman-idUSL4N0P83QH20140628'
p797
sg4
S'20140628\xc2\xa08:21AM UTC'
p798
sg6
S'CORRECTED-UPDATE 1-Asia Resource Minerals replaces chairman after investor revolt'
p799
sa(dp800
g2
S'http://www.reuters.com/article/2014/06/28/ny-faruqifaruqi-pgem-idUSnPnbrX0Sy+8a+PRN20140628'
p801
sg4
S'20140628\xc2\xa08:21AM UTC'
p802
sg6
S'Faruqi & Faruqi, LLP Encourages Investors Who Suffered Losses In Excess Of $100,000 Investing In Ply Gem Holdings, Inc. (PGEM) To Contact The Firm'
p803
sa(dp804
g2
S'http://www.reuters.com/article/2014/06/28/us-iraq-security-usa-saudis-idUSKBN0F309W20140628'
p805
sg4
S'20140628\xc2\xa08:10AM UTC'
p806
sg6
S'Saudi king tells Kerry he will press Sunnis to join Iraq government'
p807
sa(dp808
g2
S'http://www.reuters.com/article/2014/06/28/iraq-security-usa-saudis-idUSL6N0P906Z20140628'
p809
sg4
S'20140628\xc2\xa08:08AM UTC'
p810
sg6
S'Saudi king tells Kerry he will press Sunnis to join Iraq government'
p811
sa(dp812
g2
S'http://www.reuters.com/article/2014/06/28/us-usa-sufis-perfume-idUSKBN0F309S20140628'
p813
sg4
S'20140628\xc2\xa08:05AM UTC'
p814
sg6
S'Sufi faithful raise a stink over sultry perfume ads'
p815
sa(dp816
g2
S'http://www.reuters.com/article/2014/06/28/standardpacificalaqua-idUSnPn9rldVm+82+PRN20140628'
p817
sg4
S'20140628\xc2\xa08:00AM UTC'
p818
sg6
S'Standard Pacific Homes Opens Private Golf Course Community In Orlando'
p819
sa(dp820
g2
S'http://www.reuters.com/article/2014/06/28/nv-world-book-ala-idUSnPn29nBmf+84+PRN20140628'
p821
sg4
S'20140628\xc2\xa08:00AM UTC'
p822
sg6
S'The World Book Encyclopedia 2015 SPINESCAPE\xc2\xae Concept and Design Announced at ALA Annual Conference'
p823
sa(dp824
g2
S'http://www.reuters.com/article/2014/06/28/usa-sufis-perfume-idUSL2N0P608R20140628'
p825
sg4
S'20140628\xc2\xa08:00AM UTC'
p826
sg6
S'Sufi faithful raise a stink over sultry perfume ads'
p827
sa(dp828
g2
S'http://www.reuters.com/article/2014/06/28/hungary-fxloans-idUSL6N0P906P20140628'
p829
sg4
S'20140628\xc2\xa07:41AM UTC'
p830
sg6
S'Hungarian central bank sees cost of FX loan bill surging - paper'
p831
sa(dp832
g2
S'http://www.reuters.com/article/2014/06/28/efg-hermes-stocks-idUSL6N0P903O20140628'
p833
sg4
S'20140628\xc2\xa07:37AM UTC'
p834
sg6
S"UPDATE 3-Egypt's EFG Hermes says Beltone-Sawiris bid 30 pct below fair share price"
p835
sa(dp836
g2
S'http://www.reuters.com/article/2014/06/28/bnp-paribas-usa-idUSL6N0P907Q20140628'
p837
sg4
S'20140628\xc2\xa07:31AM UTC'
p838
sg6
S'CEO Bonnafe tells employees BNP to be heavily sanctioned by US'
p839
sa(dp840
g2
S'http://www.reuters.com/article/2014/06/28/idUS15817462720140628'
p841
sg4
S'20140628\xc2\xa07:28AM UTC'
p842
sg6
S'Flamboyant Pakistani cleric Qadri denies military backing  for anti-gov\xe2\x80\x99t campaign'
p843
sa(dp844
g2
S'http://www.reuters.com/article/2014/06/28/us-russia-economy-idUSKBN0F308T20140628'
p845
sg4
S'20140628\xc2\xa07:18AM UTC'
p846
sg6
S'Russia economy would shrink if hit by sectoral sanctions -minister'
p847
sa(dp848
g2
S'http://www.reuters.com/article/2014/06/28/india-building-collapse-idUSL4N0P904J20140628'
p849
sg4
S'20140628\xc2\xa07:17AM UTC'
p850
sg6
S'Decades-old building collapses in New Delhi, killing 7'
p851
sa(dp852
g2
S'http://www.reuters.com/article/2014/06/28/us-hewlettpackard-lawsuits-idUSKBN0F21YD20140628'
p853
sg4
S'20140628\xc2\xa07:07AM UTC'
p854
sg6
S'HP to settle suits over Autonomy deal; make claim against ex-CEO Lynch'
p855
sa(dp856
g2
S'http://www.reuters.com/article/2014/06/28/fincantieri-ipo-idUSL6N0P906320140628'
p857
sg4
S'20140628\xc2\xa07:05AM UTC'
p858
sg6
S"UPDATE 1-Italy's Fincantieri prices IPO at bottom of range, cuts offer size"
p859
sa(dp860
g2
S'http://www.reuters.com/article/2014/06/28/russia-economy-idUSL6N0P905J20140628'
p861
sg4
S'20140628\xc2\xa07:04AM UTC'
p862
sg6
S'Russia economy would shrink if hit by sectoral sanctions -minister'
p863
sa(dp864
g2
S'http://www.reuters.com/article/2014/06/28/idUSnGNX94f32y+1c0+GNW20140628'
p865
sg4
S'20140628\xc2\xa07:03AM UTC'
p866
sg6
S'Help TruGreen Support Children of Fallen Patriots with TruCare for Troops Social Media Campaign'
p867
sa(dp868
g2
S'http://www.reuters.com/article/2014/06/28/bbo-braves-phillies-preview-idUSMTZEA6SVLBHNU20140628'
p869
sg4
S'20140628\xc2\xa07:02AM UTC'
p870
sg6
S'Preview: Braves at Phillies (Game 1)'
p871
sa(dp872
g2
S'http://www.reuters.com/article/2014/06/28/bbo-redsox-yankees-preview-idUSMTZEA6SVLBIO120140628'
p873
sg4
S'20140628\xc2\xa07:02AM UTC'
p874
sg6
S'Preview: Red Sox at Yankees'
p875
sa(dp876
g2
S'http://www.reuters.com/article/2014/06/28/bbo-rays-orioles-preview-idUSMTZEA6SVLBIO020140628'
p877
sg4
S'20140628\xc2\xa07:02AM UTC'
p878
sg6
S'Preview: Rays at Orioles'
p879
sa(dp880
g2
S'http://www.reuters.com/article/2014/06/28/bbo-athletics-marlins-preview-idUSMTZEA6SVLBHNZ20140628'
p881
sg4
S'20140628\xc2\xa07:02AM UTC'
p882
sg6
S'Preview: Athletics at Marlins'
p883
sa(dp884
g2
S'http://www.reuters.com/article/2014/06/28/bbo-angels-royals-preview-idUSMTZEA6SVLBIO420140628'
p885
sg4
S'20140628\xc2\xa07:02AM UTC'
p886
sg6
S'Preview: Angels at Royals'
p887
sa(dp888
g2
S'http://www.reuters.com/article/2014/06/28/bbo-twins-rangers-preview-idUSMTZEA6SVLBIO320140628'
p889
sg4
S'20140628\xc2\xa07:02AM UTC'
p890
sg6
S'Preview: Twins at Rangers'
p891
sa(dp892
g2
S'http://www.reuters.com/article/2014/06/28/bbo-reds-giants-preview-idUSMTZEA6SVLBIO220140628'
p893
sg4
S'20140628\xc2\xa07:02AM UTC'
p894
sg6
S'Preview: Reds at Giants'
p895
sa(dp896
g2
S'http://www.reuters.com/article/2014/06/28/bbo-rockies-brewers-preview-idUSMTZEA6SVLBHNY20140628'
p897
sg4
S'20140628\xc2\xa07:02AM UTC'
p898
sg6
S'Preview: Rockies at Brewers'
p899
sa(dp900
g2
S'http://www.reuters.com/article/2014/06/28/bbo-diamondbacks-padres-preview-idUSMTZEA6SVLBHNX20140628'
p901
sg4
S'20140628\xc2\xa07:02AM UTC'
p902
sg6
S'Preview: Diamondbacks at Padres'
p903
sa(dp904
g2
S'http://www.reuters.com/article/2014/06/28/bbo-indians-mariners-preview-idUSMTZEA6SVLBHNW20140628'
p905
sg4
S'20140628\xc2\xa07:02AM UTC'
p906
sg6
S'Preview: Indians at Mariners'
p907
sa(dp908
g2
S'http://www.reuters.com/article/2014/06/28/bbo-tigers-astros-preview-idUSMTZEA6SVLBHNV20140628'
p909
sg4
S'20140628\xc2\xa07:02AM UTC'
p910
sg6
S'Preview: Tigers at Astros'
p911
sa(dp912
g2
S'http://www.reuters.com/article/2014/06/28/bbo-whitesox-bluejays-preview-idUSMTZEA6SVLBHNT20140628'
p913
sg4
S'20140628\xc2\xa07:02AM UTC'
p914
sg6
S'Preview: White Sox at Blue Jays'
p915
sa(dp916
g2
S'http://www.reuters.com/article/2014/06/28/bbo-mets-pirates-preview-idUSMTZEA6SVLBHNS20140628'
p917
sg4
S'20140628\xc2\xa07:02AM UTC'
p918
sg6
S'Preview: Mets at Pirates'
p919
sa(dp920
g2
S'http://www.reuters.com/article/2014/06/28/bbo-nationals-cubs-preview-idUSMTZEA6SVLBHNR20140628'
p921
sg4
S'20140628\xc2\xa07:02AM UTC'
p922
sg6
S'Preview: Nationals at Cubs (Game 2)'
p923
sa(dp924
g2
S'http://www.reuters.com/article/2014/06/28/bbo-cardinals-dodgers-preview-idUSMTZEA6SVLBHNQ20140628'
p925
sg4
S'20140628\xc2\xa07:02AM UTC'
p926
sg6
S'Preview: Cardinals at Dodgers'
p927
sa(dp928
g2
S'http://www.reuters.com/article/2014/06/28/hewlettpackard-lawsuits-idUSL2N0P81YM20140628'
p929
sg4
S'20140628\xc2\xa06:58AM UTC'
p930
sg6
S'UPDATE 3-HP to settle suits over Autonomy deal; make claim against ex-CEO Lynch'
p931
sa(dp932
g2
S'http://www.reuters.com/article/2014/06/28/idUS155933974120140628'
p933
sg4
S'20140628\xc2\xa06:55AM UTC'
p934
sg6
S'Indian court orders arrest of cricket star portrayed as Hindu god Vishnu'
p935
sa(dp936
g2
S'http://www.reuters.com/article/2014/06/28/deutsche-post-postage-idUSL6N0P905420140628'
p937
sg4
S'20140628\xc2\xa06:53AM UTC'
p938
sg6
S'Deutsche Post mulls stamp price rise next year -report'
p939
sa(dp940
g2
S'http://www.reuters.com/article/2014/06/28/taiho-oncology-result-idUSnPn74Vyb9+88+PRN20140628'
p941
sg4
S'20140628\xc2\xa06:30AM UTC'
p942
sg6
S'Taiho Oncology, Inc. Announces Results from TAS-102 Global Phase III RECOURSE Trial in Refractory Metastatic Colorectal Cancer'
p943
sa(dp944
g2
S'http://www.reuters.com/article/2014/06/28/us-pakistan-honourkillings-idUSKBN0F307O20140628'
p945
sg4
S'20140628\xc2\xa06:04AM UTC'
p946
sg6
S'Pakistan family slits throats of young couple over love marriage'
p947
sa(dp948
g2
S'http://www.reuters.com/article/2014/06/28/prn-good-morning-idUSnPn697pMW+83+PRN20140628'
p949
sg4
S'20140628\xc2\xa05:59AM UTC'
p950
sg6
S'GOOD MORNING'
p951
sa(dp952
g2
S'http://www.reuters.com/article/2014/06/28/us-thailand-thai-airways-idUSKBN0F307620140628'
p953
sg4
S'20140628\xc2\xa05:44AM UTC'
p954
sg6
S'Thai Airways names new acting president '
p955
sa(dp956
g2
S'http://www.reuters.com/article/2014/06/28/fincantieri-ipo-idUSI6N0OQ02420140628'
p957
sg4
S'20140628\xc2\xa05:34AM UTC'
p958
sg6
S"Italy's Fincantieri prices IPO at 0.78 euros/shr, bottom of range"
p959
sa(dp960
g2
S'http://www.reuters.com/article/2014/06/28/us-russia-space-idUSKBN0F306J20140628'
p961
sg4
S'20140628\xc2\xa05:15AM UTC'
p962
sg6
S'Russia delays landmark rocket launch again: report'
p963
sa(dp964
g2
S'http://www.reuters.com/article/2014/06/28/russia-space-idUSL6N0P904K20140628'
p965
sg4
S'20140628\xc2\xa05:10AM UTC'
p966
sg6
S'Russia delays landmark rocket launch again - report'
p967
sa(dp968
g2
S'http://www.reuters.com/article/2014/06/28/us-tennis-wimbledon-umpire-idUSKBN0F305Z20140628'
p969
sg4
S'20140628\xc2\xa04:37AM UTC'
p970
sg6
S"Chair umpire Bernardes faults McEnroe on 'no umpire' scheme"
p971
sa(dp972
g2
S'http://www.reuters.com/article/2014/06/28/bbo-tigers-teamreport-idUSMTZEA6SVEAWMG20140628'
p973
sg4
S'20140628\xc2\xa04:30AM UTC'
p974
sg6
S'Detroit Tigers - TeamReport'
p975
sa(dp976
g2
S'http://www.reuters.com/article/2014/06/28/bbo-astros-teamreport-idUSMTZEA6SVEAWMF20140628'
p977
sg4
S'20140628\xc2\xa04:30AM UTC'
p978
sg6
S'Houston Astros - TeamReport'
p979
sa(dp980
g2
S'http://www.reuters.com/article/2014/06/28/bbo-rangers-teamreport-idUSMTZEA6SVDS3ME20140628'
p981
sg4
S'20140628\xc2\xa04:19AM UTC'
p982
sg6
S'Texas Rangers - TeamReport'
p983
sa(dp984
g2
S'http://www.reuters.com/article/2014/06/28/bbo-cardinals-teamreport-idUSMTZEA6SVDS1MD20140628'
p985
sg4
S'20140628\xc2\xa04:19AM UTC'
p986
sg6
S'St. Louis Cardinals - TeamReport'
p987
sa(dp988
g2
S'http://www.reuters.com/article/2014/06/28/bbo-mariners-teamreport-idUSMTZEA6SVDS0MC20140628'
p989
sg4
S'20140628\xc2\xa04:19AM UTC'
p990
sg6
S'Seattle Mariners - TeamReport'
p991
sa(dp992
g2
S'http://www.reuters.com/article/2014/06/28/bbo-padres-teamreport-idUSMTZEA6SVDS0MB20140628'
p993
sg4
S'20140628\xc2\xa04:19AM UTC'
p994
sg6
S'San Diego Padres - TeamReport'
p995
sa(dp996
g2
S'http://www.reuters.com/article/2014/06/28/bbo-athletics-teamreport-idUSMTZEA6SVDRZM920140628'
p997
sg4
S'20140628\xc2\xa04:19AM UTC'
p998
sg6
S'Oakland Athletics - TeamReport'
p999
sa(dp1000
g2
S'http://www.reuters.com/article/2014/06/28/bbo-dodgers-teamreport-idUSMTZEA6SVDRZM820140628'
p1001
sg4
S'20140628\xc2\xa04:19AM UTC'
p1002
sg6
S'Los Angeles Dodgers - TeamReport'
p1003
sa(dp1004
g2
S'http://www.reuters.com/article/2014/06/28/bbo-yankees-teamreport-idUSMTZEA6SVDRZM720140628'
p1005
sg4
S'20140628\xc2\xa04:19AM UTC'
p1006
sg6
S'New York Yankees - TeamReport'
p1007
sa(dp1008
g2
S'http://www.reuters.com/article/2014/06/28/bbo-rockies-teamreport-idUSMTZEA6SVDRZM620140628'
p1009
sg4
S'20140628\xc2\xa04:19AM UTC'
p1010
sg6
S'Colorado Rockies - TeamReport'
p1011
sa(dp1012
g2
S'http://www.reuters.com/article/2014/06/28/bbo-phillies-teamreport-idUSMTZEA6SVDRZM520140628'
p1013
sg4
S'20140628\xc2\xa04:19AM UTC'
p1014
sg6
S'Philadelphia Phillies - TeamReport'
p1015
sa(dp1016
g2
S'http://www.reuters.com/article/2014/06/28/bbo-twins-teamreport-idUSMTZEA6SVDRZM420140628'
p1017
sg4
S'20140628\xc2\xa04:19AM UTC'
p1018
sg6
S'Minnesota Twins - TeamReport'
p1019
sa(dp1020
g2
S'http://www.reuters.com/article/2014/06/28/bbo-marlins-teamreport-idUSMTZEA6SVDRZM320140628'
p1021
sg4
S'20140628\xc2\xa04:19AM UTC'
p1022
sg6
S'Miami Marlins - TeamReport'
p1023
sa(dp1024
g2
S'http://www.reuters.com/article/2014/06/28/bbo-brewers-teamreport-idUSMTZEA6SVDRZMA20140628'
p1025
sg4
S'20140628\xc2\xa04:19AM UTC'
p1026
sg6
S'Milwaukee Brewers - TeamReport'
p1027
sa(dp1028
g2
S'http://www.reuters.com/article/2014/06/28/bbo-indians-teamreport-idUSMTZEA6SVDRSM220140628'
p1029
sg4
S'20140628\xc2\xa04:19AM UTC'
p1030
sg6
S'Cleveland Indians - TeamReport'
p1031
sa(dp1032
g2
S'http://www.reuters.com/article/2014/06/28/bbo-redsox-teamreport-idUSMTZEA6SVDRSM120140628'
p1033
sg4
S'20140628\xc2\xa04:19AM UTC'
p1034
sg6
S'Boston Red Sox - TeamReport'
p1035
sa(dp1036
g2
S'http://www.reuters.com/article/2014/06/28/bbo-braves-teamreport-idUSMTZEA6SVDRQLZ20140628'
p1037
sg4
S'20140628\xc2\xa04:19AM UTC'
p1038
sg6
S'Atlanta Braves - TeamReport'
p1039
sa(dp1040
g2
S'http://www.reuters.com/article/2014/06/28/bbo-diamondbacks-teamreport-idUSMTZEA6SVDRQM020140628'
p1041
sg4
S'20140628\xc2\xa04:19AM UTC'
p1042
sg6
S'Arizona Diamondbacks - TeamReport'
p1043
sa(dp1044
g2
S'http://www.reuters.com/article/2014/06/28/delta-electronics-idUSnBw285001a+100+BSW20140628'
p1045
sg4
S'20140628\xc2\xa04:00AM UTC'
p1046
sg6
S'Delta Electronics Introduces Innovative Battery Energy Storage Solution<2308.TW>'
p1047
sa(dp1048
g2
S'http://www.reuters.com/article/2014/06/28/bbo-royals-teamreport-idUSMTZEA6SVC7ZLY20140628'
p1049
sg4
S'20140628\xc2\xa03:45AM UTC'
p1050
sg6
S'Kansas City Royals - TeamReport'
p1051
sa(dp1052
g2
S'http://www.reuters.com/article/2014/06/28/bbo-reds-teamreport-idUSMTZEA6SVC7ZLX20140628'
p1053
sg4
S'20140628\xc2\xa03:45AM UTC'
p1054
sg6
S'Cincinnati Reds - TeamReport'
p1055
sa(dp1056
g2
S'http://www.reuters.com/article/2014/06/28/bbo-angels-teamreport-idUSMTZEA6SVC7ZLW20140628'
p1057
sg4
S'20140628\xc2\xa03:45AM UTC'
p1058
sg6
S'Los Angeles Angels - TeamReport'
p1059
sa(dp1060
g2
S'http://www.reuters.com/article/2014/06/28/bbo-giants-teamreport-idUSMTZEA6SVC7ZLV20140628'
p1061
sg4
S'20140628\xc2\xa03:45AM UTC'
p1062
sg6
S'San Francisco Giants - TeamReport'
p1063
sa(dp1064
g2
S'http://www.reuters.com/article/2014/06/28/idUSnGNX9Y8TrD+1d5+GNW20140628'
p1065
sg4
S'20140628\xc2\xa03:09AM UTC'
p1066
sg6
S'Bank Associates Merchant Services (BAMS) Announces Launch of "Street Smarts" Column in The Green Sheet'
p1067
sa(dp1068
g2
S'http://www.reuters.com/article/2014/06/28/efg-hermes-stocks-idUSL6N0P902Q20140628'
p1069
sg4
S'20140628\xc2\xa03:02AM UTC'
p1070
sg6
S"Egypt's EFG-Hermes says fair price 30 pct more than Beltone-New Egypt bid"
p1071
sa(dp1072
g2
S'http://www.reuters.com/article/2014/06/28/ca-american-apparel-idUSnBw275899a+100+BSW20140628'
p1073
sg4
S'20140628\xc2\xa02:59AM UTC'
p1074
sg6
S'American Apparel Adopts Stockholder Rights Plan'
p1075
sa(dp1076
g2
S'http://www.reuters.com/article/2014/06/28/bbo-cardinals-dodgers-writethru-idUSMTZEA6SV4USK620140628'
p1077
sg4
S'20140628\xc2\xa02:49AM UTC'
p1078
sg6
S'Cardinals even series with Dodgers'
p1079
sa(dp1080
g2
S'http://www.reuters.com/article/2014/06/28/us-athletics-u-s-idUSKBN0F304V20140628'
p1081
sg4
S'20140628\xc2\xa02:37AM UTC'
p1082
sg6
S"Hardee has year's best decathlon as winds slow sprints"
p1083
sa(dp1084
g2
S'http://www.reuters.com/article/2014/06/28/bbo-angels-royals-recap-idUSMTZEA6SV04QER20140628'
p1085
sg4
S'20140628\xc2\xa02:36AM UTC'
p1086
sg6
S'Royals 8, Angels 6'
p1087
sa(dp1088
g2
S'http://www.reuters.com/article/2014/06/28/us-soccer-world-saturday-idUSKBN0F304R20140628'
p1089
sg4
S'20140628\xc2\xa02:35AM UTC'
p1090
sg6
S'Hosts Brazil aim for quarter-final spot'
p1091
sa(dp1092
g2
S'http://www.reuters.com/article/2014/06/28/bbo-diamondbacks-padres-recap-idUSMTZEA6SV4CDK020140628'
p1093
sg4
S'20140628\xc2\xa02:32AM UTC'
p1094
sg6
S'Diamondbacks 2, Padres 1'
p1095
sa(dp1096
g2
S'http://www.reuters.com/article/2014/06/28/bbo-pirates-teamreport-idUSMTZEA6SV8SQLQ20140628'
p1097
sg4
S'20140628\xc2\xa02:31AM UTC'
p1098
sg6
S'Pittsburgh Pirates - TeamReport'
p1099
sa(dp1100
g2
S'http://www.reuters.com/article/2014/06/28/bbo-whitesox-teamreport-idUSMTZEA6SV8SQLP20140628'
p1101
sg4
S'20140628\xc2\xa02:31AM UTC'
p1102
sg6
S'Chicago White Sox - TeamReport'
p1103
sa(dp1104
g2
S'http://www.reuters.com/article/2014/06/28/bbo-bluejays-teamreport-idUSMTZEA6SV8SQLO20140628'
p1105
sg4
S'20140628\xc2\xa02:31AM UTC'
p1106
sg6
S'Toronto Blue Jays - TeamReport'
p1107
sa(dp1108
g2
S'http://www.reuters.com/article/2014/06/28/bbo-mets-teamreport-idUSMTZEA6SV8SQLN20140628'
p1109
sg4
S'20140628\xc2\xa02:31AM UTC'
p1110
sg6
S'New York Mets - TeamReport'
p1111
sa(dp1112
g2
S'http://www.reuters.com/article/2014/06/28/bbo-athletics-marlins-recap-idUSMTZEA6SUXYFC920140628'
p1113
sg4
S'20140628\xc2\xa02:03AM UTC'
p1114
sg6
S'Athletics 9, Marlins 5'
p1115
sa(dp1116
g2
S'http://www.reuters.com/article/2014/06/28/bbo-tigers-astros-writethru-idUSMTZEA6SV3JYIO20140628'
p1117
sg4
S'20140628\xc2\xa01:53AM UTC'
p1118
sg6
S"Astros top Tigers with Castro's 11th-inning home"
p1119
sa(dp1120
g2
S'http://www.reuters.com/article/2014/06/28/bbo-whitesox-bluejays-recap-idUSMTZEA6SUXHQBY20140628'
p1121
sg4
S'20140628\xc2\xa01:42AM UTC'
p1122
sg6
S'White Sox 5, Blue Jays 4'
p1123
sa(dp1124
g2
S'http://www.reuters.com/article/2014/06/28/bbo-indians-mariners-recap-idUSMTZEA6SV5TSLD20140628'
p1125
sg4
S'20140628\xc2\xa01:37AM UTC'
p1126
sg6
S'Mariners 3, Indians 2'
p1127
sa(dp1128
g2
S'http://www.reuters.com/article/2014/06/28/bbo-rays-teamreport-idUSMTZEA6SV5YZLI20140628'
p1129
sg4
S'20140628\xc2\xa01:30AM UTC'
p1130
sg6
S'Tampa Bay Rays - TeamReport'
p1131
sa(dp1132
g2
S'http://www.reuters.com/article/2014/06/28/bbo-cubs-teamreport-idUSMTZEA6SV5YZLH20140628'
p1133
sg4
S'20140628\xc2\xa01:30AM UTC'
p1134
sg6
S'Chicago Cubs - TeamReport'
p1135
sa(dp1136
g2
S'http://www.reuters.com/article/2014/06/28/bbo-orioles-teamreport-idUSMTZEA6SV5YZLG20140628'
p1137
sg4
S'20140628\xc2\xa01:30AM UTC'
p1138
sg6
S'Baltimore Orioles - TeamReport'
p1139
sa(dp1140
g2
S'http://www.reuters.com/article/2014/06/28/bbo-nationals-teamreport-idUSMTZEA6SV5YZLF20140628'
p1141
sg4
S'20140628\xc2\xa01:30AM UTC'
p1142
sg6
S'Washington Nationals - TeamReport'
p1143
sa(dp1144
g2
S'http://www.reuters.com/article/2014/06/28/idUSnGNX4zw33j+1c0+GNW20140628'
p1145
sg4
S'20140628\xc2\xa01:29AM UTC'
p1146
sg6
S'Redington Takes Lead At Walmart FLW Tour Event On Kentucky Lake Presented By Evinrude'
p1147
sa(dp1148
g2
S'http://www.reuters.com/article/2014/06/28/mitsubishimotors-chrysler-idUSL4N0P903820140628'
p1149
sg4
S'20140628\xc2\xa012:52AM UTC'
p1150
sg6
S'Mitsubishi to supply sedan to Chrysler for sale in Mexico-source'
p1151
sa(dp1152
g2
S'http://www.reuters.com/article/2014/06/28/us-usa-dogs-truck-idUSKBN0F304720140628'
p1153
sg4
S'20140628\xc2\xa012:49AM UTC'
p1154
sg6
S'Food truck in San Francisco is going to the dogs'
p1155
sa(dp1156
g2
S'http://www.reuters.com/article/2014/06/28/us-argentina-boudou-idUSKBN0F304320140628'
p1157
sg4
S'20140628\xc2\xa012:47AM UTC'
p1158
sg6
S'Argentine vice president charged with conflict of interest'
p1159
sa(dp1160
g2
S'http://www.reuters.com/article/2014/06/28/usa-dogs-truck-idUSL2N0P904020140628'
p1161
sg4
S'20140628\xc2\xa012:43AM UTC'
p1162
sg6
S'Food truck in San Francisco is going to the dogs'
p1163
sa(dp1164
g2
S'http://www.reuters.com/article/2014/06/28/bbo-mets-pirates-writethru-idUSMTZEA6SUZE4EM20140628'
p1165
sg4
S'20140628\xc2\xa012:36AM UTC'
p1166
sg6
S"Harrison's 11th-inning hit lifts Pirates"
p1167
sa(dp1168
g2
S'http://www.reuters.com/article/2014/06/28/bbo-twins-rangers-writethru-idUSMTZEA6SUZUTEO20140628'
p1169
sg4
S'20140628\xc2\xa012:20AM UTC'
p1170
sg6
S'Rangers hang on against Twins'
p1171
sa(dp1172
g2
S'http://www.reuters.com/article/2014/06/28/argentina-boudou-idUSL2N0P904220140628'
p1173
sg4
S'20140628\xc2\xa012:19AM UTC'
p1174
sg6
S'Argentine vice president charged with conflict of interest'
p1175
sa(dp1176
g2
S'http://www.reuters.com/article/2014/06/28/ga-u-haul-albany-auto-idUSnPn86FmDB+8b+PRN20140628'
p1177
sg4
S'20140628\xc2\xa012:10AM UTC'
p1178
sg6
S'Albany Auto Center Inc. Utilizes Untapped Potential By Joining Forces with U-Haul'
p1179
sa(dp1180
g2
S'http://www.reuters.com/article/2014/06/28/us-usa-stabbing-pennsylvania-idUSKBN0F303T20140628'
p1181
sg4
S'20140628\xc2\xa012:04AM UTC'
p1182
sg6
S'Pennsylvania school stabbing suspect seeks transfer to mental facility'
p1183
sa(dp1184
g2
S'http://www.reuters.com/article/2014/06/28/us-nhl-draft-idUSKBN0F22LO20140628'
p1185
sg4
S'20140628\xc2\xa012:02AM UTC'
p1186
sg6
S"Germany's Draisaitl makes history in NHL draft"
p1187
sa(dp1188
g2
S'http://www.reuters.com/article/2014/06/28/census-daily-feature-idUSnPn35BmRh+8a+PRN20140628'
p1189
sg4
S'20140628\xc2\xa012:01AM UTC'
p1190
sg6
S'U.S. Census Bureau Daily Feature for June 28'
p1191
sa(dp1192
g2
S'http://www.reuters.com/news/video/videoStory?storyID=88774477'
p1193
sg4
S'20140628\xc2\xa09:51PM UTC'
p1194
sg6
S'Ukraine rebels release second group of OSCE monitors'
p1195
sa(dp1196
g2
S'http://www.reuters.com/news/video/videoStory?storyID=88774182'
p1197
sg4
S'20140628\xc2\xa09:36PM UTC'
p1198
sg6
S'Centennial of murder that triggered World War One'
p1199
sa(dp1200
g2
S'http://www.reuters.com/news/video/videoStory?storyID=88790406'
p1201
sg4
S'20140628\xc2\xa08:58PM UTC'
p1202
sg6
S'Father of borewell plunge boy develops rescue robot'
p1203
sa(dp1204
g2
S'http://www.reuters.com/news/video/videoStory?storyID=88769042'
p1205
sg4
S'20140628\xc2\xa07:13PM UTC'
p1206
sg6
S'Campaign trail should not extend to Senate floor: Joe Manchin'
p1207
sa(dp1208
g2
S'http://www.reuters.com/news/video/videoStory?storyID=88768598'
p1209
sg4
S'20140628\xc2\xa06:45PM UTC'
p1210
sg6
S'Mobile food truck for dogs debuts in San Francisco'
p1211
sa(dp1212
g2
S'http://www.reuters.com/news/video/videoStory?storyID=88765327'
p1213
sg4
S'20140628\xc2\xa06:15PM UTC'
p1214
sg6
S'When stuck on a problem, take a shower: psych professor'
p1215
sa(dp1216
g2
S'http://www.reuters.com/news/video/videoStory?storyID=88766570'
p1217
sg4
S'20140628\xc2\xa06:13PM UTC'
p1218
sg6
S'Libyan suspect in Benghazi attack pleads not guilty in Washington'
p1219
sa(dp1220
g2
S'http://www.reuters.com/news/video/videoStory?storyID=88764668'
p1221
sg4
S'20140628\xc2\xa05:44PM UTC'
p1222
sg6
S'Benghazi suspect answers to one of three charges'
p1223
sa(dp1224
g2
S'http://www.reuters.com/news/video/videoStory?storyID=88763048'
p1225
sg4
S'20140628\xc2\xa04:53PM UTC'
p1226
sg6
S'Ukrainian rebels refuse to abandon posts'
p1227
sa(dp1228
g2
S'http://www.reuters.com/news/video/videoStory?storyID=88762707'
p1229
sg4
S'20140628\xc2\xa04:39PM UTC'
p1230
sg6
S"Benghazi suspect pleads 'not guilty' in U.S. court"
p1231
sa(dp1232
g2
S'http://www.reuters.com/news/video/videoStory?storyID=88761753'
p1233
sg4
S'20140628\xc2\xa04:13PM UTC'
p1234
sg6
S'A hate crime that tied two Americans, and two Americas, together'
p1235
sa(dp1236
g2
S'http://www.reuters.com/news/video/videoStory?storyID=88761141'
p1237
sg4
S'20140628\xc2\xa03:41PM UTC'
p1238
sg6
S'U.S. ignoring homicide epidemic: New Orleans Mayor Landrieu'
p1239
sa(dp1240
g2
S'http://www.reuters.com/news/video/videoStory?storyID=88759323'
p1241
sg4
S'20140628\xc2\xa01:57PM UTC'
p1242
sg6
S'Iraqi Christians flee ISIL fighting'
p1243
sa(dp1244
g2
S'http://www.reuters.com/news/video/videoStory?storyID=88754956'
p1245
sg4
S'20140628\xc2\xa011:54AM UTC'
p1246
sg6
S'Benghazi suspect brought to federal court in DC'
p1247
sa(dp1248
g2
S'http://www.reuters.com/news/video/videoStory?storyID=88754617'
p1249
sg4
S'20140628\xc2\xa011:37AM UTC'
p1250
sg6
S'Obama enjoys a summertime tradition at Marine Corps Parade'
p1251
sa(dp1252
g2
S'http://www.reuters.com/news/video/videoStory?storyID=88754314'
p1253
sg4
S'20140628\xc2\xa011:16AM UTC'
p1254
sg6
S'Benghazi suspect brought to federal court in DC'
p1255
sa(dp1256
g2
S'http://www.reuters.com/news/video/videoStory?storyID=88753872'
p1257
sg4
S'20140628\xc2\xa011:05AM UTC'
p1258
sg6
S'Shell Oil sitting out climate fight'
p1259
sa(dp1260
g2
S'http://www.reuters.com/news/video/videoStory?storyID=88752880'
p1261
sg4
S'20140628\xc2\xa010:29AM UTC'
p1262
sg6
S'Two car bombs hit Syrian market in Douma'
p1263
sa(dp1264
g2
S'http://www.reuters.com/news/video/videoStory?storyID=88750629'
p1265
sg4
S'20140628\xc2\xa09:15AM UTC'
p1266
sg6
S'Obama touts Minnesota "day in the life" visit'
p1267
sa(dp1268
g2
S'http://www.reuters.com/news/video/videoStory?storyID=88742995'
p1269
sg4
S'20140628\xc2\xa04:45AM UTC'
p1270
sg6
S"Hong Kong 'patriotism' plan sparks protest"
p1271
sa(dp1272
g2
S'http://www.reuters.com/news/video/videoStory?storyID=88741580'
p1273
sg4
S'20140628\xc2\xa03:27AM UTC'
p1274
sg6
S'UK outvoted in EU president ballot'
p1275
sa(dp1276
g2
S'http://www.reuters.com/news/video/videoStory?storyID=88739578'
p1277
sg4
S'20140628\xc2\xa01:17AM UTC'
p1278
sg6
S'Pregnant runner defends title'
p1279
sa(dp1280
g2
S'http://www.reuters.com/news/video/videoStory?storyID=88739816'
p1281
sg4
S'20140628\xc2\xa012:21AM UTC'
p1282
sg6
S'Pressure grows for new Iraq government'
p1283
sa.