(lp0
(dp1
S'href'
p2
S'http://www.reuters.com/article/sumitomo-life-symetra-idUSL3N10K03S20150809'
p3
sS'ts'
p4
S'20150809\xc2\xa011:58PM UTC'
p5
sS'title'
p6
S"UPDATE 1-Japan's Sumitomo Life in talks to buy U.S. insurer Symetra - source"
p7
sa(dp8
g2
S'http://www.reuters.com/article/us-afghanistan-attack-idUSKCN0QC1U920150809'
p9
sg4
S'20150809\xc2\xa011:41PM UTC'
p10
sg6
S'Attacks on army, police and U.S. special forces kill 50 in Kabul'
p11
sa(dp12
g2
S'http://www.reuters.com/article/bbo-whitesox-royals-writethru-idUSMTZEB89SM6ATP20150809'
p13
sg4
S'20150809\xc2\xa011:24PM UTC'
p14
sg6
S'Royals hold off White Sox, 7-6'
p15
sa(dp16
g2
S'http://www.reuters.com/article/bbo-marlins-braves-writethru-idUSMTZEB89SM9PTT20150809'
p17
sg4
S'20150809\xc2\xa011:21PM UTC'
p18
sg6
S'Swisher arrives with excitement, Braves win'
p19
sa(dp20
g2
S'http://www.reuters.com/article/soccer-premierleague-england-kylewalker-idUSKCN0QD0G320150809'
p21
sg4
S'20150809\xc2\xa011:14PM UTC'
p22
sg6
S'Ten-man Chelsea held amid high drama, United win'
p23
sa(dp24
g2
S'http://www.reuters.com/article/bbo-rockies-nationals-writethru-idUSMTZEB89SLKQSW20150809'
p25
sg4
S'20150809\xc2\xa011:10PM UTC'
p26
sg6
S'Strasburg returns from DL, overpowers Rockies'
p27
sa(dp28
g2
S'http://www.reuters.com/article/us-baseball-rays-idUSKCN0QE02J20150809'
p29
sg4
S'20150809\xc2\xa011:00PM UTC'
p30
sg6
S'Rays overcome early deficit for 5-4 win'
p31
sa(dp32
g2
S'http://www.reuters.com/article/bbo-redsox-tigers-recap-idUSMTZEB89SNUDV420150809'
p33
sg4
S'20150809\xc2\xa010:59PM UTC'
p34
sg6
S'Tigers 7, Red Sox 6'
p35
sa(dp36
g2
S'http://www.reuters.com/article/bbo-mets-rays-writethru-idUSMTZEB89SKBKRB20150809'
p37
sg4
S'20150809\xc2\xa010:53PM UTC'
p38
sg6
S'Rays overcome early deficit for 5-4 win'
p39
sa(dp40
g2
S'http://www.reuters.com/article/us-golf-pga-reno-idUSKCN0QE02620150809'
p41
sg4
S'20150809\xc2\xa010:37PM UTC'
p42
sg6
S'Romero quits round but not disqualified in Reno'
p43
sa(dp44
g2
S'http://www.reuters.com/article/bbo-cardinals-brewers-recap-idUSMTZEB89SM80TS20150809'
p45
sg4
S'20150809\xc2\xa010:24PM UTC'
p46
sg6
S'Cardinals 3, Brewers 0'
p47
sa(dp48
g2
S'http://www.reuters.com/article/us-usa-police-texas-fbi-idUSKCN0QE01I20150809'
p49
sg4
S'20150809\xc2\xa010:17PM UTC'
p50
sg6
S'FBI aid sought in Texas probe of unarmed black man shot dead by police'
p51
sa(dp52
g2
S'http://www.reuters.com/article/idUSnGNXbwtsgf+1c0+GNW20150809'
p53
sg4
S'20150809\xc2\xa010:03PM UTC'
p54
sg6
S'Steelmakers Try to Stay Out in Front in Auto Industry as World Patent Marketing Introduces The Portable Vehicle Trailer Lift Ramp'
p55
sa(dp56
g2
S'http://www.reuters.com/article/bbo-dodgers-pirates-writethru-idUSMTZEB89SG79LV20150809'
p57
sg4
S'20150809\xc2\xa09:51PM UTC'
p58
sg6
S"Liriano's first homer helps Pirates get by Dodgers"
p59
sa(dp60
g2
S'http://www.reuters.com/article/us-tennis-men-citi-idUSKCN0QD0QY20150809'
p61
sg4
S'20150809\xc2\xa09:48PM UTC'
p62
sg6
S'Nishikori gets the better of Cilic in U.S. Open rematch'
p63
sa(dp64
g2
S'http://www.reuters.com/article/us-tennis-women-stanford-idUSKCN0QE01220150809'
p65
sg4
S'20150809\xc2\xa09:46PM UTC'
p66
sg6
S'Pliskova on verge of her first big WTA victory'
p67
sa(dp68
g2
S'http://www.reuters.com/article/bbo-rangers-mariners-writethru-idUSMTZEB89SIQXPE20150809'
p69
sg4
S'20150809\xc2\xa09:36PM UTC'
p70
sg6
S'Rangers score eight in the 11th to blow out Mariners'
p71
sa(dp72
g2
S'http://www.reuters.com/article/sumitomo-life-symetra-idUSL3N10K01A20150809'
p73
sg4
S'20150809\xc2\xa09:32PM UTC'
p74
sg6
S"Japan's Sumitomo Life in talks to buy U.S. insurer Symetra -Nikkei"
p75
sa(dp76
g2
S'http://www.reuters.com/article/us-usa-colorado-spill-idUSKCN0QE00T20150809'
p77
sg4
S'20150809\xc2\xa09:26PM UTC'
p78
sg6
S'Plume from Colorado mine spill reaches New Mexico'
p79
sa(dp80
g2
S'http://www.reuters.com/article/bbo-giants-cubs-writethru-idUSMTZEB89SFBNJP20150809'
p81
sg4
S'20150809\xc2\xa09:00PM UTC'
p82
sg6
S'Maddon hopes Cubs learn lesson in win vs. Giants'
p83
sa(dp84
g2
S'http://www.reuters.com/article/bbo-astros-athletics-writethru-idUSMTZEB89SE0XIB20150809'
p85
sg4
S'20150809\xc2\xa08:48PM UTC'
p86
sg6
S"A's, Chavez cool off first-place Astros"
p87
sa(dp88
g2
S'http://www.reuters.com/article/us-swimming-us-phelps-idUSKCN0QE00120150809'
p89
sg4
S'20150809\xc2\xa08:42PM UTC'
p90
sg6
S'Phelps beats world winning time in 100m fly'
p91
sa(dp92
g2
S'http://www.reuters.com/article/brazil-petrobras-ceo-idUSL1N10K00G20150809'
p93
sg4
S'20150809\xc2\xa08:39PM UTC'
p94
sg6
S'Petrobras CEO says it will take 5 years to rebuild company -paper'
p95
sa(dp96
g2
S'http://www.reuters.com/article/us-suncor-energy-regulator-birds-idUSKCN0QD0QQ20150809'
p97
sg4
S'20150809\xc2\xa08:27PM UTC'
p98
sg6
S'Alberta probing heron deaths at Syncrude oil sands site'
p99
sa(dp100
g2
S'http://www.reuters.com/article/us-baseball-bluejays-idUSKCN0QE00H20150809'
p101
sg4
S'20150809\xc2\xa08:26PM UTC'
p102
sg6
S'Price smokes Yankees, Smoak slams them'
p103
sa(dp104
g2
S'http://www.reuters.com/article/suncor-energy-regulator-birds-idUSL1N10J0M220150809'
p105
sg4
S'20150809\xc2\xa08:22PM UTC'
p106
sg6
S'UPDATE 1-Alberta probing heron deaths at Syncrude oil sands site'
p107
sa(dp108
g2
S'http://www.reuters.com/article/us-baseball-highlights-idUSKCN0QE00F20150809'
p109
sg4
S'20150809\xc2\xa08:20PM UTC'
p110
sg6
S"Highlights from Saturday's MLB games"
p111
sa(dp112
g2
S'http://www.reuters.com/article/us-usa-bearattack-wyoming-idUSKCN0QE00320150809'
p113
sg4
S'20150809\xc2\xa08:12PM UTC'
p114
sg6
S'Hiker found dead at Yellowstone was attacked by grizzly: officials'
p115
sa(dp116
g2
S'http://www.reuters.com/article/us-mali-violence-idUSKCN0QC18E20150809'
p117
sg4
S'20150809\xc2\xa08:00PM UTC'
p118
sg6
S'At least 12 dead as Mali siege ends, some U.N. workers freed'
p119
sa(dp120
g2
S'http://www.reuters.com/article/us-usa-election-trump-idUSKCN0QD0ID20150809'
p121
sg4
S'20150809\xc2\xa08:00PM UTC'
p122
sg6
S'Republicans pile on Trump as U.S. presidential campaign stumbles'
p123
sa(dp124
g2
S'http://www.reuters.com/article/us-ferguson-anniversary-police-idUSKCN0QD0NK20150808'
p125
sg4
S'20150809\xc2\xa07:59PM UTC'
p126
sg6
S'Fear, mistrust linger in Ferguson despite reform efforts by police'
p127
sa(dp128
g2
S'http://www.reuters.com/article/us-uganda-rights-idUSKCN0QD0O220150808'
p129
sg4
S'20150809\xc2\xa07:58PM UTC'
p130
sg6
S'Ugandans mark Gay Pride, but stigma tempers joy'
p131
sa(dp132
g2
S'http://www.reuters.com/article/us-yemen-security-idUSKCN0QD0JO20150808'
p133
sg4
S'20150809\xc2\xa07:58PM UTC'
p134
sg6
S'Anti-Houthi forces take strategic city in Yemen, Emirati troops killed'
p135
sa(dp136
g2
S'http://www.reuters.com/article/bbo-giants-cubs-writethru-idUSMTZEB89SFBNJP20150808'
p137
sg4
S'20150809\xc2\xa07:55PM UTC'
p138
sg6
S'Maddon hopes Cubs learn lesson in win vs. Giants'
p139
sa(dp140
g2
S'http://www.reuters.com/article/bbo-astros-athletics-recap-idUSMTZEB89SE0XIB20150808'
p141
sg4
S'20150809\xc2\xa07:48PM UTC'
p142
sg6
S'Athletics 2, Astros 1'
p143
sa(dp144
g2
S'http://www.reuters.com/article/us-golf-pga-idUSKCN0QD0QO20150808'
p145
sg4
S'20150809\xc2\xa07:41PM UTC'
p146
sg6
S'Charging Rose joins Furyk in tie for Firestone lead'
p147
sa(dp148
g2
S'http://www.reuters.com/article/us-golf-pga-furyk-rose-idUSKCN0QD0R620150808'
p149
sg4
S'20150809\xc2\xa07:40PM UTC'
p150
sg6
S'Ideal final Firestone pairing for Rose and Furyk'
p151
sa(dp152
g2
S'http://www.reuters.com/article/car-nascar-grandnational-writethru-idUSMTZEB89SEJPIM20150808'
p153
sg4
S'20150809\xc2\xa07:38PM UTC'
p154
sg6
S'Logano overcomes penalty for win at Watkins Glen'
p155
sa(dp156
g2
S'http://www.reuters.com/article/us-mali-violence-idUSKCN0QC18E20150808'
p157
sg4
S'20150809\xc2\xa07:36PM UTC'
p158
sg6
S'At least 12 dead as Mali siege ends, some U.N. workers freed'
p159
sa(dp160
g2
S'http://www.reuters.com/article/us-usa-landing-colorado-idUSKCN0QD0R020150808'
p161
sg4
S'20150809\xc2\xa07:35PM UTC'
p162
sg6
S'Delta flight makes emergency landing in Denver due to hail'
p163
sa(dp164
g2
S'http://www.reuters.com/article/us-tennis-men-citi-idUSKCN0QD0QY20150808'
p165
sg4
S'20150809\xc2\xa07:26PM UTC'
p166
sg6
S'Nishikori gets the better of Cilic in U.S. Open rematch'
p167
sa(dp168
g2
S'http://www.reuters.com/article/usa-landing-colorado-idUSL1N10J0LL20150808'
p169
sg4
S'20150809\xc2\xa07:21PM UTC'
p170
sg6
S'Delta flight makes emergency landing in Denver due to hail'
p171
sa(dp172
g2
S'http://www.reuters.com/article/idUSnMKWT0Mk1a+1e8+MKW20150808'
p173
sg4
S'20150809\xc2\xa07:07PM UTC'
p174
sg6
S'Epic, an Out-of-the-Box Pink Sheet Company, Announced the Successful Conclusion of Its Second Exchange Offer, Its 10th Consecutive Preferred Stock Dividend, and Its Recapitalization and Reorganization'
p175
sa(dp176
g2
S'http://www.reuters.com/article/us-chile-dictatorship-contreras-idUSKCN0QD0EU20150808'
p177
sg4
S'20150809\xc2\xa06:42PM UTC'
p178
sg6
S"Chileans cheer, lament death of Pinochet's hated police boss"
p179
sa(dp180
g2
S'http://www.reuters.com/article/us-suncor-energy-regulator-birds-idUSKCN0QD0QQ20150808'
p181
sg4
S'20150809\xc2\xa06:39PM UTC'
p182
sg6
S'Alberta investigating reports of bird deaths at oil sands site'
p183
sa(dp184
g2
S'http://www.reuters.com/article/us-usa-health-legionnaires-idUSKCN0QD0QM20150808'
p185
sg4
S'20150809\xc2\xa06:33PM UTC'
p186
sg6
S'New York to clean cooling towers in outbreak area by Sunday: mayor'
p187
sa(dp188
g2
S'http://www.reuters.com/article/us-eurozone-greece-bailout-idUSKCN0QD0ND20150808'
p189
sg4
S'20150809\xc2\xa06:31PM UTC'
p190
sg6
S'Greek government says discussing draft of third bailout deal'
p191
sa(dp192
g2
S'http://www.reuters.com/article/us-waterpolo-world-idUSKCN0QD0QI20150808'
p193
sg4
S'20150809\xc2\xa06:30PM UTC'
p194
sg6
S'Serbia sink Croatia to take world water polo title'
p195
sa(dp196
g2
S'http://www.reuters.com/article/us-ivorycoast-election-idUSKCN0QD0QF20150808'
p197
sg4
S'20150809\xc2\xa06:28PM UTC'
p198
sg6
S"Gbagbo's FPI picks presidential hopeful after years of boycotts"
p199
sa(dp200
g2
S'http://www.reuters.com/article/us-singapore-anniversary-idUSKCN0QD0QD20150808'
p201
sg4
S'20150809\xc2\xa06:26PM UTC'
p202
sg6
S'As Singapore turns 50, a proud nation prepares to party'
p203
sa(dp204
g2
S'http://www.reuters.com/article/us-afghanistan-attack-idUSKCN0QC1U920150808'
p205
sg4
S'20150809\xc2\xa06:22PM UTC'
p206
sg6
S'Attacks on army, police and U.S. special forces kill 50 in Kabul'
p207
sa(dp208
g2
S'http://www.reuters.com/article/us-precision-cast-m-a-berkshire-hatha-idUSKCN0QD0LD20150808'
p209
sg4
S'20150809\xc2\xa06:21PM UTC'
p210
sg6
S"Buffett's Berkshire nears deal for Precision Castparts: source"
p211
sa(dp212
g2
S'http://www.reuters.com/article/us-usa-crime-california-idUSKCN0QD0Q920150808'
p213
sg4
S'20150809\xc2\xa06:19PM UTC'
p214
sg6
S'Police shoot to death California man who stabbed six people'
p215
sa(dp216
g2
S'http://www.reuters.com/article/us-golf-pga-mcilroy-idUSKCN0QD0JF20150808'
p217
sg4
S'20150809\xc2\xa06:18PM UTC'
p218
sg6
S'McIlroy prepares for PGA at Whistling Straits'
p219
sa(dp220
g2
S'http://www.reuters.com/article/us-motorcycling-us-idUSKCN0QD0Q220150808'
p221
sg4
S'20150809\xc2\xa06:16PM UTC'
p222
sg6
S'Marquez claims another pole position at Indy'
p223
sa(dp224
g2
S'http://www.reuters.com/article/idUSnMKWZ43SHa+1e6+MKW20150808'
p225
sg4
S'20150809\xc2\xa06:07PM UTC'
p226
sg6
S'Dollar General Presents A Day of Beauty'
p227
sa(dp228
g2
S'http://www.reuters.com/article/idUSnCCN4bt7Rn+1c2+MKW20150808'
p229
sg4
S'20150809\xc2\xa06:07PM UTC'
p230
sg6
S'Dollar General Presents A Day of Beauty'
p231
sa(dp232
g2
S'http://www.reuters.com/article/idUSnGNX6Y73D2+1d2+GNW20150808'
p233
sg4
S'20150809\xc2\xa06:07PM UTC'
p234
sg6
S'Licensing-Prototyping-Manufacturing Deal! World Patent Marketing Signs Exclusive 25 Year Exclusive Licensing Agreement For Squatch On A Box'
p235
sa(dp236
g2
S'http://www.reuters.com/article/suncor-energy-regulator-birds-idUSL1N10J0JB20150808'
p237
sg4
S'20150809\xc2\xa06:06PM UTC'
p238
sg6
S'Alberta investigating reports of bird deaths at oil sands site'
p239
sa(dp240
g2
S'http://www.reuters.com/article/chile-mine-idUSL5N10J0GB20150808'
p241
sg4
S'20150809\xc2\xa05:51PM UTC'
p242
sg6
S"Chile's Codelco denounces mine damage as talks with strikers fail"
p243
sa(dp244
g2
S'http://www.reuters.com/article/eurozone-greece-bailout-idUSL5N10J0GD20150808'
p245
sg4
S'20150809\xc2\xa05:25PM UTC'
p246
sg6
S'UPDATE 1-Greek govt says discussing draft of third bailout deal'
p247
sa(dp248
g2
S'http://www.reuters.com/article/bbo-bluejays-yankees-recap-idUSMTZEB88S5SNBY20150808'
p249
sg4
S'20150809\xc2\xa05:00PM UTC'
p250
sg6
S'Blue Jays 6, Yankees 0'
p251
sa(dp252
g2
S'http://www.reuters.com/article/precision-cast-ma-berkshire-hatha-idUSL1N10J0E320150808'
p253
sg4
S'20150809\xc2\xa04:56PM UTC'
p254
sg6
S"UPDATE 4-Buffett's Berkshire nears deal for Precision Castparts -source"
p255
sa(dp256
g2
S'http://www.reuters.com/article/paul-allen-hms-hood-idUSnPnbKWYX1+9e+PRN20150808'
p257
sg4
S'20150809\xc2\xa04:40PM UTC'
p258
sg6
S"HMS Hood's Bell Has Been Successfully Recovered (Video)"
p259
sa(dp260
g2
S'http://www.reuters.com/article/anglo-american-ma-chile-idUSL1N10J0II20150808'
p261
sg4
S'20150809\xc2\xa04:37PM UTC'
p262
sg6
S"UPDATE 1-UK fund to buy Anglo's Chile copper mines - paper"
p263
sa(dp264
g2
S'http://www.reuters.com/article/us-eurozone-greece-finland-idUSKCN0QD0OS20150808'
p265
sg4
S'20150809\xc2\xa04:16PM UTC'
p266
sg6
S'Finland could stay out of new Greek bailout: foreign minister'
p267
sa(dp268
g2
S'http://www.reuters.com/article/us-carphone-warhouse-idUSKCN0QD0JJ20150808'
p269
sg4
S'20150809\xc2\xa04:14PM UTC'
p270
sg6
S"Dixons Carphone says cyber attack may have exposed customers' data"
p271
sa(dp272
g2
S'http://www.reuters.com/article/us-usa-crime-vermont-idUSKCN0QD0OQ20150808'
p273
sg4
S'20150809\xc2\xa04:14PM UTC'
p274
sg6
S'Three found dead in northern Vermont, link seen to Friday attack: police'
p275
sa(dp276
g2
S'http://www.reuters.com/article/us-golf-pga-bowditch-idUSKCN0QD0O820150808'
p277
sg4
S'20150809\xc2\xa03:54PM UTC'
p278
sg6
S'Timely Presidents Cup boost for Bowditch at Firestone'
p279
sa(dp280
g2
S'http://www.reuters.com/article/sunpower-foodcenter-idUSnPn7gdy4l+80+PRN20150808'
p281
sg4
S'20150809\xc2\xa03:52PM UTC'
p282
sg6
S'SunPower and Freedom Solar Bring Clean Energy to Sustainable Food Center in Austin'
p283
sa(dp284
g2
S'http://www.reuters.com/article/us-usa-election-trump-idUSKCN0QD0ID20150808'
p285
sg4
S'20150809\xc2\xa03:39PM UTC'
p286
sg6
S'Republicans pile on Trump as U.S. presidential campaign stumbles'
p287
sa(dp288
g2
S'http://www.reuters.com/article/uganda-rights-idUSL1N10J0GH20150808'
p289
sg4
S'20150809\xc2\xa03:37PM UTC'
p290
sg6
S'Ugandans mark Gay Pride, but stigma tempers joy'
p291
sa(dp292
g2
S'http://www.reuters.com/article/us-israel-palestinians-violence-idUSKCN0QD06E20150808'
p293
sg4
S'20150809\xc2\xa03:35PM UTC'
p294
sg6
S'Father of Palestinian toddler killed in arson attack dies of wounds'
p295
sa(dp296
g2
S'http://www.reuters.com/article/us-usa-police-texas-idUSKCN0QD05X20150808'
p297
sg4
S'20150809\xc2\xa03:31PM UTC'
p298
sg6
S'Texas officer shoots dead unarmed, black college student'
p299
sa(dp300
g2
S'http://www.reuters.com/article/brazil-petrobras-janot-idUSL1N10J0H520150808'
p301
sg4
S'20150809\xc2\xa03:27PM UTC'
p302
sg6
S"Brazil's Rousseff reappoints top prosecutor in Petrobras probe"
p303
sa(dp304
g2
S'http://www.reuters.com/article/us-rwanda-un-shooting-idUSKCN0QD0FV20150808'
p305
sg4
S'20150809\xc2\xa03:19PM UTC'
p306
sg6
S'Rwandan peacekeeper kills four colleagues in Central African Republic'
p307
sa(dp308
g2
S'http://www.reuters.com/article/us-usa-pennsylvania-kane-idUSKCN0QD0HM20150808'
p309
sg4
S'20150809\xc2\xa03:13PM UTC'
p310
sg6
S"Pennsylvania's top prosecutor arraigned, no plea entered"
p311
sa(dp312
g2
S'http://www.reuters.com/article/dixons-carphone-idUSL5N10J0BM20150808'
p313
sg4
S'20150809\xc2\xa03:11PM UTC'
p314
sg6
S"UPDATE 1-Dixons Carphone says cyber attack may have exposed customers' data"
p315
sa(dp316
g2
S'http://www.reuters.com/article/us-gabon-corruption-idUSKCN0QD0NO20150808'
p317
sg4
S'20150809\xc2\xa02:44PM UTC'
p318
sg6
S'France opens bribery investigation into Gabonese official'
p319
sa(dp320
g2
S'http://www.reuters.com/article/us-swimming-world-mixedrelay-record-idUSKCN0QD0M720150808'
p321
sg4
S'20150809\xc2\xa02:43PM UTC'
p322
sg6
S'U.S. sets world record in mixed relay'
p323
sa(dp324
g2
S'http://www.reuters.com/article/idUSnMKWVKzJpa+1f4+MKW20150808'
p325
sg4
S'20150809\xc2\xa02:41PM UTC'
p326
sg6
S'London Drugs Turns up the Volume on Vinyl Record Day'
p327
sa(dp328
g2
S'http://www.reuters.com/article/us-swimming-world-800freestyle-record-idUSKCN0QD0L920150808'
p329
sg4
S'20150809\xc2\xa02:39PM UTC'
p330
sg6
S'Unstoppable Ledecky powers to fifth gold'
p331
sa(dp332
g2
S'http://www.reuters.com/article/ca-goldberg-law-pc-idUSnBw085009a+100+BSW20150808'
p333
sg4
S'20150809\xc2\xa02:25PM UTC'
p334
sg6
S'IMPORTANT INVESTOR ALERT: Goldberg Law PC Announces An Investigation Of Claims Against Whole Foods Market, Inc. On Behalf Of Investors'
p335
sa(dp336
g2
S'http://www.reuters.com/article/us-mideast-crisis-turkey-kurds-idUSKCN0QD0DC20150808'
p337
sg4
S'20150809\xc2\xa02:24PM UTC'
p338
sg6
S'Pro-Kurdish party leader calls for steps to halt Turkey violence'
p339
sa(dp340
g2
S'http://www.reuters.com/article/us-taiwan-typhoon-idUSKCN0QD03V20150808'
p341
sg4
S'20150809\xc2\xa02:22PM UTC'
p342
sg6
S'Powerful storm hits Taiwan, millions without power, six dead'
p343
sa(dp344
g2
S'http://www.reuters.com/article/us-usa-shooting-denver-idUSKCN0QC1X020150808'
p345
sg4
S'20150809\xc2\xa02:20PM UTC'
p346
sg6
S'Colorado gunman gets life sentence for killing 12 in movie rampage'
p347
sa(dp348
g2
S'http://www.reuters.com/article/ca-goldberg-law-idUSnBw085008a+100+BSW20150808'
p349
sg4
S'20150809\xc2\xa02:11PM UTC'
p350
sg6
S'IMPORTANT INVESTOR ALERT: Goldberg Law PC Announces Securities Class Action Lawsuit Against Constant Contact, Inc. and Advises Shareholders to Contact the Firm Prior to the Lead Plaintiff Deadline'
p351
sa(dp352
g2
S'http://www.reuters.com/article/us-mideast-crisis-airstrikes-idUSKCN0QD0JB20150808'
p353
sg4
S'20150809\xc2\xa02:08PM UTC'
p354
sg6
S'Islamic State targeted in 19 strikes by U.S.-led coalition: statement'
p355
sa(dp356
g2
S'http://www.reuters.com/article/us-usa-videogames-finals-idUSKCN0QD0MP20150808'
p357
sg4
S'20150809\xc2\xa01:45PM UTC'
p358
sg6
S'Video gamers compete for millions of dollars in Seattle championship'
p359
sa(dp360
g2
S'http://www.reuters.com/article/eurozone-greece-bailout-idUSL5N10J0DO20150808'
p361
sg4
S'20150809\xc2\xa01:44PM UTC'
p362
sg6
S'Greek govt says poring over draft of third bailout agreement'
p363
sa(dp364
g2
S'http://www.reuters.com/article/us-usa-odd-naked-man-idUSKCN0QD0MJ20150808'
p365
sg4
S'20150809\xc2\xa01:44PM UTC'
p366
sg6
S'Court sets $600,000 bail for Ohio man who ran naked down highway'
p367
sa(dp368
g2
S'http://www.reuters.com/article/us-egypt-courts-mursi-idUSKCN0QD0M020150808'
p369
sg4
S'20150809\xc2\xa01:10PM UTC'
p370
sg6
S"Egypt's Mursi complains about prison food, requests medical exam: state media"
p371
sa(dp372
g2
S'http://www.reuters.com/article/us-iran-nuclear-parchin-idUSKCN0QD0CK20150808'
p373
sg4
S'20150809\xc2\xa01:06PM UTC'
p374
sg6
S"Iran rejects accusations about military site as 'lies'"
p375
sa(dp376
g2
S'http://www.reuters.com/article/anglo-american-ma-chile-idUSL1N10J0E420150808'
p377
sg4
S'20150809\xc2\xa01:03PM UTC'
p378
sg6
S"UK fund to buy Anglo's Chile copper mines - paper"
p379
sa(dp380
g2
S'http://www.reuters.com/article/bbo-whitesox-playerwatch-idUSMTZEB88RWLQ9Q20150808'
p381
sg4
S'20150809\xc2\xa01:01PM UTC'
p382
sg6
S'Chicago White Sox - PlayerWatch'
p383
sa(dp384
g2
S'http://www.reuters.com/article/bbo-royals-playerwatch-idUSMTZEB88RWLQ9P20150808'
p385
sg4
S'20150809\xc2\xa01:01PM UTC'
p386
sg6
S'Kansas City Royals - PlayerWatch'
p387
sa(dp388
g2
S'http://www.reuters.com/article/bbo-rays-playerwatch-idUSMTZEB88RWLQ9O20150808'
p389
sg4
S'20150809\xc2\xa01:01PM UTC'
p390
sg6
S'Tampa Bay Rays - PlayerWatch'
p391
sa(dp392
g2
S'http://www.reuters.com/article/bbo-orioles-playerwatch-idUSMTZEB88RWLQ9N20150808'
p393
sg4
S'20150809\xc2\xa01:01PM UTC'
p394
sg6
S'Baltimore Orioles - PlayerWatch'
p395
sa(dp396
g2
S'http://www.reuters.com/article/bbo-bluejays-playerwatch-idUSMTZEB88RWLQ9M20150808'
p397
sg4
S'20150809\xc2\xa01:01PM UTC'
p398
sg6
S'Toronto Blue Jays - PlayerWatch'
p399
sa(dp400
g2
S'http://www.reuters.com/article/bbo-redsox-playerwatch-idUSMTZEB88RWLP9L20150808'
p401
sg4
S'20150809\xc2\xa01:01PM UTC'
p402
sg6
S'Boston Red Sox - PlayerWatch'
p403
sa(dp404
g2
S'http://www.reuters.com/article/bbo-marlins-playerwatch-idUSMTZEB88RWLP9620150808'
p405
sg4
S'20150809\xc2\xa01:01PM UTC'
p406
sg6
S'Miami Marlins - PlayerWatch'
p407
sa(dp408
g2
S'http://www.reuters.com/article/bbo-dodgers-playerwatch-idUSMTZEB88RWLP9G20150808'
p409
sg4
S'20150809\xc2\xa01:01PM UTC'
p410
sg6
S'Los Angeles Dodgers - PlayerWatch'
p411
sa(dp412
g2
S'http://www.reuters.com/article/bbo-braves-playerwatch-idUSMTZEB88RWLP9420150808'
p413
sg4
S'20150809\xc2\xa01:01PM UTC'
p414
sg6
S'Atlanta Braves - PlayerWatch'
p415
sa(dp416
g2
S'http://www.reuters.com/article/bbo-diamondbacks-playerwatch-idUSMTZEB88RWLP9F20150808'
p417
sg4
S'20150809\xc2\xa01:01PM UTC'
p418
sg6
S'Arizona Diamondbacks - PlayerWatch'
p419
sa(dp420
g2
S'http://www.reuters.com/article/bbo-rangers-playerwatch-idUSMTZEB88RWLP9320150808'
p421
sg4
S'20150809\xc2\xa01:01PM UTC'
p422
sg6
S'Texas Rangers - PlayerWatch'
p423
sa(dp424
g2
S'http://www.reuters.com/article/bbo-giants-playerwatch-idUSMTZEB88RWLP9E20150808'
p425
sg4
S'20150809\xc2\xa01:01PM UTC'
p426
sg6
S'San Francisco Giants - PlayerWatch'
p427
sa(dp428
g2
S'http://www.reuters.com/article/bbo-angels-playerwatch-idUSMTZEB88RWLP9220150808'
p429
sg4
S'20150809\xc2\xa01:01PM UTC'
p430
sg6
S'Los Angeles Angels - PlayerWatch'
p431
sa(dp432
g2
S'http://www.reuters.com/article/bbo-brewers-playerwatch-idUSMTZEB88RWLP9D20150808'
p433
sg4
S'20150809\xc2\xa01:01PM UTC'
p434
sg6
S'Milwaukee Brewers - PlayerWatch'
p435
sa(dp436
g2
S'http://www.reuters.com/article/bbo-athletics-playerwatch-idUSMTZEB88RWLP9120150808'
p437
sg4
S'20150809\xc2\xa01:01PM UTC'
p438
sg6
S'Oakland Athletics - PlayerWatch'
p439
sa(dp440
g2
S'http://www.reuters.com/article/bbo-mariners-playerwatch-idUSMTZEB88RWLP9020150808'
p441
sg4
S'20150809\xc2\xa01:01PM UTC'
p442
sg6
S'Seattle Mariners - PlayerWatch'
p443
sa(dp444
g2
S'http://www.reuters.com/article/bbo-reds-playerwatch-idUSMTZEB88RWLP9C20150808'
p445
sg4
S'20150809\xc2\xa01:01PM UTC'
p446
sg6
S'Cincinnati Reds - PlayerWatch'
p447
sa(dp448
g2
S'http://www.reuters.com/article/bbo-tigers-playerwatch-idUSMTZEB88RWLP8Z20150808'
p449
sg4
S'20150809\xc2\xa01:01PM UTC'
p450
sg6
S'Detroit Tigers - PlayerWatch'
p451
sa(dp452
g2
S'http://www.reuters.com/article/bbo-cubs-playerwatch-idUSMTZEB88RWLP9B20150808'
p453
sg4
S'20150809\xc2\xa01:01PM UTC'
p454
sg6
S'Chicago Cubs - PlayerWatch'
p455
sa(dp456
g2
S'http://www.reuters.com/article/bbo-indians-playerwatch-idUSMTZEB88RWLP8Y20150808'
p457
sg4
S'20150809\xc2\xa01:01PM UTC'
p458
sg6
S'Cleveland Indians - PlayerWatch'
p459
sa(dp460
g2
S'http://www.reuters.com/article/bbo-cardinals-playerwatch-idUSMTZEB88RWLP9A20150808'
p461
sg4
S'20150809\xc2\xa01:01PM UTC'
p462
sg6
S'St. Louis Cardinals - PlayerWatch'
p463
sa(dp464
g2
S'http://www.reuters.com/article/bbo-twins-playerwatch-idUSMTZEB88RWLP8X20150808'
p465
sg4
S'20150809\xc2\xa01:01PM UTC'
p466
sg6
S'Minnesota Twins - PlayerWatch'
p467
sa(dp468
g2
S'http://www.reuters.com/article/bbo-astros-playerwatch-idUSMTZEB88RWLP9920150808'
p469
sg4
S'20150809\xc2\xa01:01PM UTC'
p470
sg6
S'Houston Astros - PlayerWatch'
p471
sa(dp472
g2
S'http://www.reuters.com/article/bbo-pirates-playerwatch-idUSMTZEB88RWLP9J20150808'
p473
sg4
S'20150809\xc2\xa01:01PM UTC'
p474
sg6
S'Pittsburgh Pirates - PlayerWatch'
p475
sa(dp476
g2
S'http://www.reuters.com/article/bbo-mets-playerwatch-idUSMTZEB88RWLP9820150808'
p477
sg4
S'20150809\xc2\xa01:01PM UTC'
p478
sg6
S'New York Mets - PlayerWatch'
p479
sa(dp480
g2
S'http://www.reuters.com/article/bbo-rockies-playerwatch-idUSMTZEB88RWLP9I20150808'
p481
sg4
S'20150809\xc2\xa01:01PM UTC'
p482
sg6
S'Colorado Rockies - PlayerWatch'
p483
sa(dp484
g2
S'http://www.reuters.com/article/bbo-nationals-playerwatch-idUSMTZEB88RWLP9720150808'
p485
sg4
S'20150809\xc2\xa01:01PM UTC'
p486
sg6
S'Washington Nationals - PlayerWatch'
p487
sa(dp488
g2
S'http://www.reuters.com/article/bbo-yankees-playerwatch-idUSMTZEB88RWLP9H20150808'
p489
sg4
S'20150809\xc2\xa01:01PM UTC'
p490
sg6
S'New York Yankees - PlayerWatch'
p491
sa(dp492
g2
S'http://www.reuters.com/article/dav-ford-donates-vans-idUSnPnbF7kk5+90+PRN20150808'
p493
sg4
S'20150809\xc2\xa01:00PM UTC'
p494
sg6
S'Ford Donates Vans to Deliver Veterans to Medical Appointments'
p495
sa(dp496
g2
S'http://www.reuters.com/article/angola-protest-idUSL5N10J0BS20150808'
p497
sg4
S'20150809\xc2\xa012:54PM UTC'
p498
sg6
S'Angolan police clash with dozens of anti-government protesters'
p499
sa(dp500
g2
S'http://www.reuters.com/article/hms-hood-bell-recover-idUSnPnbr9CPX+87+PRN20150808'
p501
sg4
S'20150809\xc2\xa012:50PM UTC'
p502
sg6
S"HMS Hood's Bell Has Been Successfully Recovered"
p503
sa(dp504
g2
S'http://www.reuters.com/article/idUSnGNX2DPQPj+1de+GNW20150808'
p505
sg4
S'20150809\xc2\xa012:41PM UTC'
p506
sg6
S'This is a Test From GlobeNewswire'
p507
sa(dp508
g2
S'http://www.reuters.com/article/precision-cast-ma-berkshire-hatha-idUSL1N10J0DR20150808'
p509
sg4
S'20150809\xc2\xa012:35PM UTC'
p510
sg6
S"Warren Buffett's Berkshire Hathaway nearing deal to buy Precision Castparts - WSJ"
p511
sa(dp512
g2
S'http://www.reuters.com/article/us-refinery-operations-marathon-pete-idUSKCN0QD0L320150808'
p513
sg4
S'20150809\xc2\xa012:21PM UTC'
p514
sg6
S'Marathon begins restart of Kentucky refinery: source'
p515
sa(dp516
g2
S'http://www.reuters.com/article/us-italy-boars-attack-idUSKCN0QD0KH20150808'
p517
sg4
S'20150809\xc2\xa012:10PM UTC'
p518
sg6
S'Italian man killed by charging boars in Sicily'
p519
sa(dp520
g2
S'http://www.reuters.com/article/italy-boars-attack-idUSL5N10J0C220150808'
p521
sg4
S'20150809\xc2\xa012:09PM UTC'
p522
sg6
S'Italian man killed by charging boars in Sicily'
p523
sa(dp524
g2
S'http://www.reuters.com/article/us-pope-argentina-idUSKCN0QD0KD20150808'
p525
sg4
S'20150809\xc2\xa012:08PM UTC'
p526
sg6
S'Pope laments destruction of forests to plant soy'
p527
sa(dp528
g2
S'http://www.reuters.com/article/pruittcares-fdn-camp-idUSnPnbs4yzP+81+PRN20150808'
p529
sg4
S'20150809\xc2\xa012:06PM UTC'
p530
sg6
S'Camp Cocoon: An Incredible Place for Children'
p531
sa(dp532
g2
S'http://www.reuters.com/article/carphone-warhouse-idUSL5N10J0B420150808'
p533
sg4
S'20150809\xc2\xa011:27AM UTC'
p534
sg6
S"Dixons Carphone says cyber attack may have exposed customers' data"
p535
sa(dp536
g2
S'http://www.reuters.com/article/cricket-ashes-england-idUSKCN0QD0IB20150808'
p537
sg4
S'20150809\xc2\xa011:08AM UTC'
p538
sg6
S'Analysis: Vibrant England find perfect blend to win Ashes'
p539
sa(dp540
g2
S'http://www.reuters.com/article/us-usa-new-york-crash-idUSKCN0QD0I920150808'
p541
sg4
S'20150809\xc2\xa011:07AM UTC'
p542
sg6
S'Four dead after small plane crashes in northern New York State: police'
p543
sa(dp544
g2
S'http://www.reuters.com/article/us-nigeria-oil-violence-idUSKCN0QD0I420150808'
p545
sg4
S'20150809\xc2\xa011:05AM UTC'
p546
sg6
S"Suspected pirates attack military base in Nigeria's southern delta, kill five"
p547
sa(dp548
g2
S'http://www.reuters.com/article/nigeria-oil-violence-idUSL5N10J0AI20150808'
p549
sg4
S'20150809\xc2\xa011:02AM UTC'
p550
sg6
S"Suspected pirates attack military base in Nigeria's southern delta, kill five"
p551
sa(dp552
g2
S'http://www.reuters.com/article/idUSnMKWGhdTna+1e4+MKW20150808'
p553
sg4
S'20150809\xc2\xa010:54AM UTC'
p554
sg6
S'AER Responding to Waterfowl Deaths at a Syncrude Site in the Fort McMurray Area'
p555
sa(dp556
g2
S'http://www.reuters.com/article/us-athletics-iaaf-doping-idUSKCN0QD0HI20150808'
p557
sg4
S'20150809\xc2\xa010:52AM UTC'
p558
sg6
S'Former WADA vice-president throws weight behind IAAF'
p559
sa(dp560
g2
S'http://www.reuters.com/article/athletics-iaaf-doping-idUSL3N10J09820150808'
p561
sg4
S'20150809\xc2\xa010:50AM UTC'
p562
sg6
S'Athletics-Former WADA vice-president throws weight behind IAAF'
p563
sa(dp564
g2
S'http://www.reuters.com/article/us-usa-shooting-denver-victims-idUSKCN0QD0H920150808'
p565
sg4
S'20150809\xc2\xa010:44AM UTC'
p566
sg6
S'Victims speak out after Colorado massacre trial ends in life '
p567
sa(dp568
g2
S'http://www.reuters.com/article/us-iran-nuclear-military-idUSKCN0QD0H420150808'
p569
sg4
S'20150809\xc2\xa010:36AM UTC'
p570
sg6
S"Iran's military chief comes out in support of nuclear deal"
p571
sa(dp572
g2
S'http://www.reuters.com/article/opera-software-ma-idUSL5N10J09C20150808'
p573
sg4
S'20150809\xc2\xa010:00AM UTC'
p574
sg6
S"Norway's Opera warns on growth, says firm may be sold"
p575
sa(dp576
g2
S'http://www.reuters.com/article/raelian-prostitution-idUSnPn2Brs9r+90+PRN20150808'
p577
sg4
S'20150809\xc2\xa010:00AM UTC'
p578
sg6
S"Rael supports Amnesty International's effort to decriminalize prostitution"
p579
sa(dp580
g2
S'http://www.reuters.com/article/mideast-crisis-turkey-kurds-idUSL5N10J08M20150808'
p581
sg4
S'20150809\xc2\xa09:47AM UTC'
p582
sg6
S'UPDATE 1-Pro-Kurdish party leader calls for steps to halt Turkey violence'
p583
sa(dp584
g2
S'http://www.reuters.com/article/cricket-ashes-idUSKCN0QD0CE20150808'
p585
sg4
S'20150809\xc2\xa09:39AM UTC'
p586
sg6
S'Ruthless England complete Ashes demolition job'
p587
sa(dp588
g2
S'http://www.reuters.com/article/alliance-piplne-gas-shutdown-idUSL1N10I1MS20150808'
p589
sg4
S'20150809\xc2\xa09:34AM UTC'
p590
sg6
S'UPDATE 2-Alliance shuts 1.6-bcfd natgas pipeline; Chicago prices up'
p591
sa(dp592
g2
S'http://www.reuters.com/article/us-mali-violence-dead-idUSKCN0QD0FD20150808'
p593
sg4
S'20150809\xc2\xa09:16AM UTC'
p594
sg6
S'Hostages killed in Mali hotel siege from South Africa, Russia, Ukraine'
p595
sa(dp596
g2
S'http://www.reuters.com/article/cricket-ashes-michael-clarke-retire-idUSKCN0QD0CC20150808'
p597
sg4
S'20150809\xc2\xa09:06AM UTC'
p598
sg6
S"Australia's Clarke to retire after final Ashes test"
p599
sa(dp600
g2
S'http://www.reuters.com/article/mideast-crisis-turkey-kurds-idUSL5N10J05J20150808'
p601
sg4
S'20150809\xc2\xa07:33AM UTC'
p602
sg6
S'Pro-Kurdish party leader calls for steps to halt Turkey violence'
p603
sa(dp604
g2
S'http://www.reuters.com/article/us-tunisia-security-idUSKCN0QD0D620150808'
p605
sg4
S'20150809\xc2\xa07:27AM UTC'
p606
sg6
S'Tunisia says arrests 12 trying to enter Libya'
p607
sa(dp608
g2
S'http://www.reuters.com/article/bbo-giants-cubs-preview-idUSMTZEB88RFZG8W20150808'
p609
sg4
S'20150809\xc2\xa07:02AM UTC'
p610
sg6
S'Preview: Giants at Cubs'
p611
sa(dp612
g2
S'http://www.reuters.com/article/bbo-bluejays-yankees-preview-idUSMTZEB88RFZG8V20150808'
p613
sg4
S'20150809\xc2\xa07:02AM UTC'
p614
sg6
S'Preview: Blue Jays at Yankees'
p615
sa(dp616
g2
S'http://www.reuters.com/article/bbo-astros-athletics-preview-idUSMTZEB88RFZG8U20150808'
p617
sg4
S'20150809\xc2\xa07:02AM UTC'
p618
sg6
S'Preview: Astros at Athletics'
p619
sa(dp620
g2
S'http://www.reuters.com/article/bbo-rangers-mariners-preview-idUSMTZEB88RFZF8Q20150808'
p621
sg4
S'20150809\xc2\xa07:02AM UTC'
p622
sg6
S'Preview: Rangers at Mariners'
p623
sa(dp624
g2
S'http://www.reuters.com/article/bbo-orioles-angels-preview-idUSMTZEB88RFZF8P20150808'
p625
sg4
S'20150809\xc2\xa07:02AM UTC'
p626
sg6
S'Preview: Orioles at Angels'
p627
sa(dp628
g2
S'http://www.reuters.com/article/bbo-reds-diamondbacks-preview-idUSMTZEB88RFZF8O20150808'
p629
sg4
S'20150809\xc2\xa07:02AM UTC'
p630
sg6
S'Preview: Reds at Diamondbacks'
p631
sa(dp632
g2
S'http://www.reuters.com/article/bbo-dodgers-pirates-preview-idUSMTZEB88RFZF8N20150808'
p633
sg4
S'20150809\xc2\xa07:02AM UTC'
p634
sg6
S'Preview: Dodgers at Pirates'
p635
sa(dp636
g2
S'http://www.reuters.com/article/bbo-marlins-braves-preview-idUSMTZEB88RFZF8M20150808'
p637
sg4
S'20150809\xc2\xa07:02AM UTC'
p638
sg6
S'Preview: Marlins at Braves'
p639
sa(dp640
g2
S'http://www.reuters.com/article/bbo-twins-indians-preview-idUSMTZEB88RFZF8L20150808'
p641
sg4
S'20150809\xc2\xa07:02AM UTC'
p642
sg6
S'Preview: Twins at Indians'
p643
sa(dp644
g2
S'http://www.reuters.com/article/bbo-mets-rays-preview-idUSMTZEB88RFZF8K20150808'
p645
sg4
S'20150809\xc2\xa07:02AM UTC'
p646
sg6
S'Preview: Mets at Rays'
p647
sa(dp648
g2
S'http://www.reuters.com/article/bbo-rockies-nationals-preview-idUSMTZEB88RFZF8T20150808'
p649
sg4
S'20150809\xc2\xa07:02AM UTC'
p650
sg6
S'Preview: Rockies at Nationals'
p651
sa(dp652
g2
S'http://www.reuters.com/article/bbo-cardinals-brewers-preview-idUSMTZEB88RFZF8S20150808'
p653
sg4
S'20150809\xc2\xa07:02AM UTC'
p654
sg6
S'Preview: Cardinals at Brewers'
p655
sa(dp656
g2
S'http://www.reuters.com/article/bbo-whitesox-royals-preview-idUSMTZEB88RFZF8R20150808'
p657
sg4
S'20150809\xc2\xa07:02AM UTC'
p658
sg6
S'Preview: White Sox at Royals'
p659
sa(dp660
g2
S'http://www.reuters.com/article/bbo-redsox-tigers-preview-idUSMTZEB88RFZE8I20150808'
p661
sg4
S'20150809\xc2\xa07:02AM UTC'
p662
sg6
S'Preview: Red Sox at Tigers'
p663
sa(dp664
g2
S'http://www.reuters.com/article/us-mali-violence-freed-idUSKCN0QD0C520150808'
p665
sg4
S'20150809\xc2\xa07:00AM UTC'
p666
sg6
S'South Africans, Russian and Ukrainian freed in Mali hotel siege'
p667
sa(dp668
g2
S'http://www.reuters.com/article/fl-new-to-palm-beach-idUSnPn5czqwS+81+PRN20150808'
p669
sg4
S'20150809\xc2\xa07:00AM UTC'
p670
sg6
S'New to Palm Beach Launches New and Innovative Customized Dating Itinerary Service'
p671
sa(dp672
g2
S'http://www.reuters.com/article/ia-geico-idUSnBw085002a+100+BSW20150808'
p673
sg4
S'20150809\xc2\xa07:00AM UTC'
p674
sg6
S'GEICO seeks applicants for Coralville office expansion'
p675
sa(dp676
g2
S'http://www.reuters.com/article/cricket-ashes-result-idUSKCN0QD0BO20150808'
p677
sg4
S'20150809\xc2\xa06:57AM UTC'
p678
sg6
S'England beat Australia to regain Ashes'
p679
sa(dp680
g2
S'http://www.reuters.com/article/ma-lovin-scoopful-idUSnBw085001a+100+BSW20150808'
p681
sg4
S'20150809\xc2\xa06:45AM UTC'
p682
sg6
S'Tim Shriver, Chairman of Special Olympics, to Present the Lovin\xe2\x80\x99 Award & Serve up Some Fun at Stop & Shop in Hyannis, Mass. on Sunday, August 9 at 4 p.m.'
p683
sa(dp684
g2
S'http://www.reuters.com/article/us-swimming-world-mixedrelay-idUSKCN0QD0BI20150808'
p685
sg4
S'20150809\xc2\xa06:39AM UTC'
p686
sg6
S'Australia defend decision to skip mixed gender races'
p687
sa(dp688
g2
S'http://www.reuters.com/article/swiss-snb-zurbruegg-idUSL5N10J05R20150808'
p689
sg4
S'20150809\xc2\xa06:33AM UTC'
p690
sg6
S'Swiss National Bank still ready to intervene -Zurbruegg in paper'
p691
sa(dp692
g2
S'http://www.reuters.com/article/swimming-world-mixedrelay-idUSL3N10J07D20150808'
p693
sg4
S'20150809\xc2\xa06:25AM UTC'
p694
sg6
S'Swimming-Australia defend decision to skip mixed gender races'
p695
sa(dp696
g2
S'http://www.reuters.com/article/taiwan-typhoon-soudelor-idUSKCN0QD04520150808'
p697
sg4
S'20150809\xc2\xa06:20AM UTC'
p698
sg6
S'Powerful storm hits Taiwan, millions without power, six dead'
p699
sa(dp700
g2
S'http://www.reuters.com/article/taiwan-typhoon-idUSL3N10J05820150808'
p701
sg4
S'20150809\xc2\xa06:18AM UTC'
p702
sg6
S'UPDATE 2-Powerful storm hits Taiwan, millions without power, six dead'
p703
sa(dp704
g2
S'http://www.reuters.com/article/sharktec-chinapartner-idUSnPn6L1YL2+96+PRN20150808'
p705
sg4
S'20150809\xc2\xa06:00AM UTC'
p706
sg6
S'Sharktech Announces Partnership with China Unicom and China Telecom'
p707
sa(dp708
g2
S'http://www.reuters.com/article/cricket-england-australia-clarke-idUSKCN0QD06O20150808'
p709
sg4
S'20150809\xc2\xa05:56AM UTC'
p710
sg6
S"Australia's Clarke to retire after Ashes - report"
p711
sa(dp712
g2
S'http://www.reuters.com/article/us-kazkommertsbank-rakishev-idUSKCN0QD0A920150808'
p713
sg4
S'20150809\xc2\xa05:54AM UTC'
p714
sg6
S'Businessman Rakishev to take control of Kazkommertsbank'
p715
sa(dp716
g2
S'http://www.reuters.com/article/kazkommertsbank-rakishev-idUSL5N10J05Q20150808'
p717
sg4
S'20150809\xc2\xa05:46AM UTC'
p718
sg6
S'Businessman Rakishev to take control of Kazkommertsbank'
p719
sa(dp720
g2
S'http://www.reuters.com/article/bbo-rangers-teamreport-idUSMTZEB88RCCU7720150808'
p721
sg4
S'20150809\xc2\xa05:43AM UTC'
p722
sg6
S'Texas Rangers - TeamReport'
p723
sa(dp724
g2
S'http://www.reuters.com/article/bbo-bluejays-teamreport-idUSMTZEB88RCCU7620150808'
p725
sg4
S'20150809\xc2\xa05:43AM UTC'
p726
sg6
S'Toronto Blue Jays - TeamReport'
p727
sa(dp728
g2
S'http://www.reuters.com/article/bbo-rays-teamreport-idUSMTZEB88RCCU7520150808'
p729
sg4
S'20150809\xc2\xa05:43AM UTC'
p730
sg6
S'Tampa Bay Rays - TeamReport'
p731
sa(dp732
g2
S'http://www.reuters.com/article/bbo-nationals-teamreport-idUSMTZEB88RCCU7420150808'
p733
sg4
S'20150809\xc2\xa05:43AM UTC'
p734
sg6
S'Washington Nationals - TeamReport'
p735
sa(dp736
g2
S'http://www.reuters.com/article/bbo-mariners-teamreport-idUSMTZEB88RCCN7120150808'
p737
sg4
S'20150809\xc2\xa05:43AM UTC'
p738
sg6
S'Seattle Mariners - TeamReport'
p739
sa(dp740
g2
S'http://www.reuters.com/article/bbo-cardinals-teamreport-idUSMTZEB88RCCN7020150808'
p741
sg4
S'20150809\xc2\xa05:43AM UTC'
p742
sg6
S'St. Louis Cardinals - TeamReport'
p743
sa(dp744
g2
S'http://www.reuters.com/article/bbo-giants-teamreport-idUSMTZEB88RCCN7220150808'
p745
sg4
S'20150809\xc2\xa05:43AM UTC'
p746
sg6
S'San Francisco Giants - TeamReport'
p747
sa(dp748
g2
S'http://www.reuters.com/article/bbo-pirates-teamreport-idUSMTZEB88RCCM6Z20150808'
p749
sg4
S'20150809\xc2\xa05:43AM UTC'
p750
sg6
S'Pittsburgh Pirates - TeamReport'
p751
sa(dp752
g2
S'http://www.reuters.com/article/bbo-athletics-teamreport-idUSMTZEB88RCCH6X20150808'
p753
sg4
S'20150809\xc2\xa05:43AM UTC'
p754
sg6
S'Oakland Athletics - TeamReport'
p755
sa(dp756
g2
S'http://www.reuters.com/article/bbo-mets-teamreport-idUSMTZEB88RCCG6W20150808'
p757
sg4
S'20150809\xc2\xa05:43AM UTC'
p758
sg6
S'New York Mets - TeamReport'
p759
sa(dp760
g2
S'http://www.reuters.com/article/bbo-yankees-teamreport-idUSMTZEB88RCCG6V20150808'
p761
sg4
S'20150809\xc2\xa05:43AM UTC'
p762
sg6
S'New York Yankees - TeamReport'
p763
sa(dp764
g2
S'http://www.reuters.com/article/bbo-twins-teamreport-idUSMTZEB88RCCF6U20150808'
p765
sg4
S'20150809\xc2\xa05:43AM UTC'
p766
sg6
S'Minnesota Twins - TeamReport'
p767
sa(dp768
g2
S'http://www.reuters.com/article/bbo-brewers-teamreport-idUSMTZEB88RCCE6T20150808'
p769
sg4
S'20150809\xc2\xa05:43AM UTC'
p770
sg6
S'Milwaukee Brewers - TeamReport'
p771
sa(dp772
g2
S'http://www.reuters.com/article/bbo-dodgers-teamreport-idUSMTZEB88RCCD6R20150808'
p773
sg4
S'20150809\xc2\xa05:43AM UTC'
p774
sg6
S'Los Angeles Dodgers - TeamReport'
p775
sa(dp776
g2
S'http://www.reuters.com/article/bbo-angels-teamreport-idUSMTZEB88RCCD6Q20150808'
p777
sg4
S'20150809\xc2\xa05:43AM UTC'
p778
sg6
S'Los Angeles Angels - TeamReport'
p779
sa(dp780
g2
S'http://www.reuters.com/article/bbo-marlins-teamreport-idUSMTZEB88RCCD6P20150808'
p781
sg4
S'20150809\xc2\xa05:43AM UTC'
p782
sg6
S'Miami Marlins - TeamReport'
p783
sa(dp784
g2
S'http://www.reuters.com/article/bbo-astros-teamreport-idUSMTZEB88RCCD6O20150808'
p785
sg4
S'20150809\xc2\xa05:43AM UTC'
p786
sg6
S'Houston Astros - TeamReport'
p787
sa(dp788
g2
S'http://www.reuters.com/article/bbo-tigers-teamreport-idUSMTZEB88RCCD6N20150808'
p789
sg4
S'20150809\xc2\xa05:43AM UTC'
p790
sg6
S'Detroit Tigers - TeamReport'
p791
sa(dp792
g2
S'http://www.reuters.com/article/bbo-royals-teamreport-idUSMTZEB88RCCD6S20150808'
p793
sg4
S'20150809\xc2\xa05:43AM UTC'
p794
sg6
S'Kansas City Royals - TeamReport'
p795
sa(dp796
g2
S'http://www.reuters.com/article/bbo-redsox-teamreport-idUSMTZEB88RCCB6H20150808'
p797
sg4
S'20150809\xc2\xa05:43AM UTC'
p798
sg6
S'Boston Red Sox - TeamReport'
p799
sa(dp800
g2
S'http://www.reuters.com/article/bbo-orioles-teamreport-idUSMTZEB88RCCB6G20150808'
p801
sg4
S'20150809\xc2\xa05:43AM UTC'
p802
sg6
S'Baltimore Orioles - TeamReport'
p803
sa(dp804
g2
S'http://www.reuters.com/article/bbo-cubs-teamreport-idUSMTZEB88RCCB6F20150808'
p805
sg4
S'20150809\xc2\xa05:43AM UTC'
p806
sg6
S'Chicago Cubs - TeamReport'
p807
sa(dp808
g2
S'http://www.reuters.com/article/bbo-indians-teamreport-idUSMTZEB88RCCB6E20150808'
p809
sg4
S'20150809\xc2\xa05:43AM UTC'
p810
sg6
S'Cleveland Indians - TeamReport'
p811
sa(dp812
g2
S'http://www.reuters.com/article/bbo-whitesox-teamreport-idUSMTZEB88RCCB6M20150808'
p813
sg4
S'20150809\xc2\xa05:43AM UTC'
p814
sg6
S'Chicago White Sox - TeamReport'
p815
sa(dp816
g2
S'http://www.reuters.com/article/bbo-diamondbacks-teamreport-idUSMTZEB88RCCB6L20150808'
p817
sg4
S'20150809\xc2\xa05:43AM UTC'
p818
sg6
S'Arizona Diamondbacks - TeamReport'
p819
sa(dp820
g2
S'http://www.reuters.com/article/bbo-braves-teamreport-idUSMTZEB88RCCB6K20150808'
p821
sg4
S'20150809\xc2\xa05:43AM UTC'
p822
sg6
S'Atlanta Braves - TeamReport'
p823
sa(dp824
g2
S'http://www.reuters.com/article/bbo-rockies-teamreport-idUSMTZEB88RCCB6J20150808'
p825
sg4
S'20150809\xc2\xa05:43AM UTC'
p826
sg6
S'Colorado Rockies - TeamReport'
p827
sa(dp828
g2
S'http://www.reuters.com/article/bbo-reds-teamreport-idUSMTZEB88RCCB6I20150808'
p829
sg4
S'20150809\xc2\xa05:43AM UTC'
p830
sg6
S'Cincinnati Reds - TeamReport'
p831
sa(dp832
g2
S'http://www.reuters.com/article/us-afghanistan-blast-contractors-idUSKCN0QD09F20150808'
p833
sg4
S'20150809\xc2\xa05:23AM UTC'
p834
sg6
S'Eight contractors among dead in attack on NATO base in Kabul'
p835
sa(dp836
g2
S'http://www.reuters.com/article/india-hon-hai-foxconn-investment-idUSKCN0QD07620150808'
p837
sg4
S'20150809\xc2\xa05:18AM UTC'
p838
sg6
S'Foxconn plans $5 billion investment over 5 years in Maharashtra facility'
p839
sa(dp840
g2
S'http://www.reuters.com/article/us-india-hon-hai-idUSKCN0QD07A20150808'
p841
sg4
S'20150809\xc2\xa05:11AM UTC'
p842
sg6
S"Taiwan's Foxconn plans $5 billion investment over five years in Indian facility"
p843
sa(dp844
g2
S'http://www.reuters.com/article/hon-hai-india-idUSL3N10J06I20150808'
p845
sg4
S'20150809\xc2\xa05:09AM UTC'
p846
sg6
S"UPDATE 1-Taiwan's Foxconn plans $5 bln investment over 5 yrs in Indian facility"
p847
sa(dp848
g2
S'http://www.reuters.com/article/us-afghanistan-blast-toll-idUSKCN0QD08H20150808'
p849
sg4
S'20150809\xc2\xa04:46AM UTC'
p850
sg6
S"More than 40 killed, wounded in Friday's Afghan academy attack: ministry"
p851
sa(dp852
g2
S'http://www.reuters.com/article/us-suja-sale-coke-idUSKCN0QC1UR20150808'
p853
sg4
S'20150809\xc2\xa04:40AM UTC'
p854
sg6
S'Coca-Cola near deal for organic juice company Suja: sources'
p855
sa(dp856
g2
S'http://www.reuters.com/article/us-cambodia-protest-arrest-idUSKCN0QD08A20150808'
p857
sg4
S'20150809\xc2\xa04:34AM UTC'
p858
sg6
S'Cambodian governor caught over shooting after two years on the run'
p859
sa(dp860
g2
S'http://www.reuters.com/article/us-germany-economy-trade-idUSKCN0QD07V20150808'
p861
sg4
S'20150809\xc2\xa04:31AM UTC'
p862
sg6
S'German trade surplus to rise to new record in 2015 - magazine'
p863
sa(dp864
g2
S'http://www.reuters.com/article/germany-economy-trade-idUSL5N10J04J20150808'
p865
sg4
S'20150809\xc2\xa04:27AM UTC'
p866
sg6
S'German trade surplus to rise to new record in 2015 - magazine'
p867
sa(dp868
g2
S'http://www.reuters.com/article/india-hon-hai-idUSL3N10J06220150808'
p869
sg4
S'20150809\xc2\xa03:59AM UTC'
p870
sg6
S"Taiwan's Foxconn plans $5 bln investment over 5 yrs in Indian facility"
p871
sa(dp872
g2
S'http://www.reuters.com/article/bbo-phillies-padres-writethru-idUSMTZEB88R3YQ5Q20150808'
p873
sg4
S'20150809\xc2\xa03:51AM UTC'
p874
sg6
S"Rupp's homer in 12th helps Phillies win"
p875
sa(dp876
g2
S'http://www.reuters.com/article/us-japan-nuclear-idUSKCN0QD06Y20150808'
p877
sg4
S'20150809\xc2\xa03:33AM UTC'
p878
sg6
S"Japan's nuclear regulator says no repeat of Fukushima under new safety rules - media"
p879
sa(dp880
g2
S'http://www.reuters.com/article/japan-nuclear-idUSL3N10J06120150808'
p881
sg4
S'20150809\xc2\xa03:30AM UTC'
p882
sg6
S"Japan's nuclear regulator says no repeat of Fukushima under new safety rules - media"
p883
sa(dp884
g2
S'http://www.reuters.com/article/idUSnMKWf1DJFa+1ce+MKW20150808'
p885
sg4
S'20150809\xc2\xa03:18AM UTC'
p886
sg6
S"Food Recall Warning: Heinz Apple Broccoli, Pea & Brown Rice and Mott's Fruitsations Fruit Rockets-Unsweetened Strawberry Recalled Due to Potential for Spoilage"
p887
sa(dp888
g2
S'http://www.reuters.com/article/idUSnCCNbdgFxW+1c5+MKW20150808'
p889
sg4
S'20150809\xc2\xa03:18AM UTC'
p890
sg6
S"Food Recall Warning: Heinz Apple Broccoli, Pea & Brown Rice and Mott's Fruitsations Fruit Rockets-Unsweetened Strawberry Recalled Due to Potential for Spoilage"
p891
sa(dp892
g2
S'http://www.reuters.com/article/bbo-rangers-mariners-writethru-idUSMTZEB88R02S5I20150808'
p893
sg4
S'20150809\xc2\xa02:15AM UTC'
p894
sg6
S'Iwakuma outpitches Hamels as Mariners top Rangers'
p895
sa(dp896
g2
S'http://www.reuters.com/article/malaysia-1mdb-goldman-sachs-idUSL5N10I3MM20150808'
p897
sg4
S'20150809\xc2\xa01:53AM UTC'
p898
sg6
S'REPEAT-UPDATE 1-Malaysia officials visit Goldman office as part of 1MDB probe -sources'
p899
sa(dp900
g2
S'http://www.reuters.com/article/us-china-economy-trade-idUSKCN0QD03320150808'
p901
sg4
S'20150809\xc2\xa01:48AM UTC'
p902
sg6
S"China's July exports slump 8 percent, raises pressure for more stimulus "
p903
sa(dp904
g2
S'http://www.reuters.com/article/bbo-reds-diamondbacks-writethru-idUSMTZEB88QXKQ5420150808'
p905
sg4
S'20150809\xc2\xa01:48AM UTC'
p906
sg6
S'Castillo homer supports Anderson as D-backs blank Reds'
p907
sa(dp908
g2
S'http://www.reuters.com/article/china-economy-trade-idUSL3N10J03M20150808'
p909
sg4
S'20150809\xc2\xa01:46AM UTC'
p910
sg6
S"UPDATE 3-China's July exports slump 8 pct, raises pressure for more stimulus"
p911
sa(dp912
g2
S'http://www.reuters.com/article/us-usa-election-trump-redstate-idUSKCN0QD05K20150808'
p913
sg4
S'20150809\xc2\xa01:39AM UTC'
p914
sg6
S"Trump dumped from conservative event in Atlanta over 'inappropriate' comments"
p915
sa(dp916
g2
S'http://www.reuters.com/article/bbo-orioles-angels-recap-idUSMTZEB88R0G45M20150808'
p917
sg4
S'20150809\xc2\xa01:36AM UTC'
p918
sg6
S'Angels 8, Orioles 4'
p919
sa(dp920
g2
S'http://www.reuters.com/article/us-baseball-cardinals-idUSKCN0QD06320150808'
p921
sg4
S'20150809\xc2\xa01:35AM UTC'
p922
sg6
S'Lynn gets ninth win as Cardinals blank Brewers'
p923
sa(dp924
g2
S'http://www.reuters.com/article/us-tennis-women-stanford-idUSKCN0QD05M20150808'
p925
sg4
S'20150809\xc2\xa012:57AM UTC'
p926
sg6
S'Pliskova continues her ascent with semi berth at Stanford'
p927
sa(dp928
g2
S'http://www.reuters.com/article/bbo-astros-athletics-recap-idUSMTZEB88QYJT5C20150808'
p929
sg4
S'20150809\xc2\xa012:55AM UTC'
p930
sg6
S'Athletics 3, Astros 1'
p931
sa(dp932
g2
S'http://www.reuters.com/article/bbo-cardinals-brewers-writethru-idUSMTZEB88QUDS3Q20150808'
p933
sg4
S'20150809\xc2\xa012:52AM UTC'
p934
sg6
S'Lynn gets ninth win as Cardinals blank Brewers'
p935
sa(dp936
g2
S'http://www.reuters.com/article/bbo-dodgers-pirates-writethru-idUSMTZEB88QUAC3K20150808'
p937
sg4
S'20150809\xc2\xa012:46AM UTC'
p938
sg6
S"Pirates win on Alvarez's RBI in 10th"
p939
sa(dp940
g2
S'http://www.reuters.com/article/bbo-whitesox-royals-writethru-idUSMTZEB88QUSP3Z20150808'
p941
sg4
S'20150809\xc2\xa012:36AM UTC'
p942
sg6
S'Cain comes through again as Royals edge White Sox'
p943
sa(dp944
g2
S'http://www.reuters.com/article/us-golf-pga-reno-idUSKCN0QD05G20150808'
p945
sg4
S'20150809\xc2\xa012:33AM UTC'
p946
sg6
S'Gonzales shoots record round at Barracuda'
p947
sa(dp948
g2
S'http://www.reuters.com/article/us-baseball-yankees-idUSKCN0QD05E20150808'
p949
sg4
S'20150809\xc2\xa012:31AM UTC'
p950
sg6
S"Bautista's homer helps Blue Jays beat Yankees"
p951
sa(dp952
g2
S'http://www.reuters.com/article/us-chobani-m-a-idUSKCN0QD05C20150808'
p953
sg4
S'20150809\xc2\xa012:29AM UTC'
p954
sg6
S'Chobani looking to sell minority stake in the company - Bloomberg'
p955
sa(dp956
g2
S'http://www.reuters.com/article/chobani-ma-idUSL1N10J04E20150808'
p957
sg4
S'20150809\xc2\xa012:14AM UTC'
p958
sg6
S'UPDATE 1-Chobani looking to sell minority stake in the company- BBG'
p959
sa(dp960
g2
S'http://www.reuters.com/article/us-mongolia-cabinet-idUSKCN0QD05220150808'
p961
sg4
S'20150809\xc2\xa012:11AM UTC'
p962
sg6
S'Mongolian premier replaces cabinet members amid instability worries'
p963
sa(dp964
g2
S'http://www.reuters.com/article/mongolia-cabinet-idUSL1N10I0RT20150808'
p965
sg4
S'20150809\xc2\xa012:03AM UTC'
p966
sg6
S'Mongolian premier replaces cabinet members amid instability worries'
p967
sa(dp968
g2
S'http://www.reuters.com/article/bbo-twins-indians-writethru-idUSMTZEB88QT2ZYP20150808'
p969
sg4
S'20150809\xc2\xa012:02AM UTC'
p970
sg6
S"Hunter homer helps rescue Twins' win vs. Indians"
p971
sa(dp972
g2
S'http://www.reuters.com/article/census-daily-feature-idUSnPn1Hb4NN+93+PRN20150808'
p973
sg4
S'20150809\xc2\xa012:01AM UTC'
p974
sg6
S'U.S. Census Bureau Daily Feature for August 8'
p975
sa(dp976
g2
S'http://www.reuters.com/news/video/videoStory?storyID=110366655'
p977
sg4
S'20150809\xc2\xa09:38PM UTC'
p978
sg6
S'Obama plays golf with Larry David'
p979
sa(dp980
g2
S'http://www.reuters.com/news/video/videoStory?storyID=110366481'
p981
sg4
S'20150809\xc2\xa08:40PM UTC'
p982
sg6
S'Kurds clash with police in southeastern Turkey'
p983
sa(dp984
g2
S'http://www.reuters.com/news/video/videoStory?storyID=110365395'
p985
sg4
S'20150809\xc2\xa06:20PM UTC'
p986
sg6
S'At least 12 dead as Mali siege ends, some UN workers freed'
p987
sa(dp988
g2
S'http://www.reuters.com/news/video/videoStory?storyID=110365079'
p989
sg4
S'20150809\xc2\xa05:42PM UTC'
p990
sg6
S"U.S. candidate Trump defends 'blood' comment about debate moderator"
p991
sa(dp992
g2
S'http://www.reuters.com/news/video/videoStory?storyID=110364797'
p993
sg4
S'20150809\xc2\xa05:15PM UTC'
p994
sg6
S"Mike Brown's father: 'I'm not stopping'"
p995
sa(dp996
g2
S'http://www.reuters.com/news/video/videoStory?storyID=110364650'
p997
sg4
S'20150809\xc2\xa05:01PM UTC'
p998
sg6
S'Dogs befriend prisoners, reindeer herders celebrate'
p999
sa(dp1000
g2
S'http://www.reuters.com/news/video/videoStory?storyID=110364577'
p1001
sg4
S'20150809\xc2\xa04:38PM UTC'
p1002
sg6
S'Defiant Ugandans celebrate gay-pride'
p1003
sa(dp1004
g2
S'http://www.reuters.com/news/video/videoStory?storyID=110364411'
p1005
sg4
S'20150809\xc2\xa04:08PM UTC'
p1006
sg6
S'ICRC president visits Yemen amid ongoing conflict'
p1007
sa(dp1008
g2
S'http://www.reuters.com/news/video/videoStory?storyID=110363985'
p1009
sg4
S'20150809\xc2\xa02:53PM UTC'
p1010
sg6
S'Republican senator calls for thorough debate of Iran agreement'
p1011
sa(dp1012
g2
S'http://www.reuters.com/news/video/videoStory?storyID=110363827'
p1013
sg4
S'20150809\xc2\xa02:31PM UTC'
p1014
sg6
S'Father of Palestinian toddler killed in arson attack dies'
p1015
sa(dp1016
g2
S'http://www.reuters.com/news/video/videoStory?storyID=110363386'
p1017
sg4
S'20150809\xc2\xa01:26PM UTC'
p1018
sg6
S'Activists gather ahead of anniversary of Michael Brown shooting'
p1019
sa(dp1020
g2
S'http://www.reuters.com/news/video/videoStory?storyID=110363034'
p1021
sg4
S'20150809\xc2\xa01:15PM UTC'
p1022
sg6
S'Berlin presents "longest beer garden in the world"'
p1023
sa(dp1024
g2
S'http://www.reuters.com/news/video/videoStory?storyID=110362640'
p1025
sg4
S'20150809\xc2\xa012:32PM UTC'
p1026
sg6
S'Roughly 800 rescued migrants taken to port in southern Italy'
p1027
sa(dp1028
g2
S'http://www.reuters.com/news/video/videoStory?storyID=110362530'
p1029
sg4
S'20150809\xc2\xa012:22PM UTC'
p1030
sg6
S'Cops change tactics as Ferguson protests return'
p1031
sa(dp1032
g2
S'http://www.reuters.com/news/video/videoStory?storyID=110362586'
p1033
sg4
S'20150809\xc2\xa012:21PM UTC'
p1034
sg6
S'Texas officer shoots dead college football player after car dealership crash'
p1035
sa(dp1036
g2
S'http://www.reuters.com/news/video/videoStory?storyID=110362477'
p1037
sg4
S'20150809\xc2\xa012:17PM UTC'
p1038
sg6
S'Ferguson struggles to hire black cops'
p1039
sa(dp1040
g2
S'http://www.reuters.com/news/video/videoStory?storyID=110361053'
p1041
sg4
S'20150809\xc2\xa08:55AM UTC'
p1042
sg6
S'Georgia marks anniversary of 2008 war with Russia'
p1043
sa(dp1044
g2
S'http://www.reuters.com/news/video/videoStory?storyID=110360898'
p1045
sg4
S'20150809\xc2\xa08:11AM UTC'
p1046
sg6
S'Obama champions anniversary of Voting Rights Act in weekly address'
p1047
sa(dp1048
g2
S'http://www.reuters.com/news/video/videoStory?storyID=110360454'
p1049
sg4
S'20150809\xc2\xa06:35AM UTC'
p1050
sg6
S'Massive typhoon hits Taiwan'
p1051
sa(dp1052
g2
S'http://www.reuters.com/news/video/videoStory?storyID=110360276'
p1053
sg4
S'20150809\xc2\xa06:00AM UTC'
p1054
sg6
S'Three dead in Kabul overnight attack'
p1055
sa(dp1056
g2
S'http://www.reuters.com/news/video/videoStory?storyID=110359367'
p1057
sg4
S'20150809\xc2\xa04:53AM UTC'
p1058
sg6
S'Jury sentences Colorado gunman to life in prison'
p1059
sa(dp1060
g2
S'http://www.reuters.com/news/video/videoStory?storyID=110358698'
p1061
sg4
S'20150809\xc2\xa02:31AM UTC'
p1062
sg6
S'At least four dead as typhoon hits Taiwan'
p1063
sa(dp1064
g2
S'http://www.reuters.com/news/video/videoStory?storyID=110358614'
p1065
sg4
S'20150809\xc2\xa02:08AM UTC'
p1066
sg6
S'Multiple blasts kill dozens in Kabul'
p1067
sa.