(lp0
(dp1
S'href'
p2
S'http://www.reuters.com/article/bkn-76ers-heat-writethru-idUSMTZEBBM77G68420151122'
p3
sS'ts'
p4
S'20151122\xc2\xa011:55PM UTC'
p5
sS'title'
p6
S'Heat avoid stumble against lowly 76ers'
p7
sa(dp8
g2
S'http://www.reuters.com/article/bkc-nevada-pacific-writethru-idUSMTZEBBM7BX8E320151122'
p9
sg4
S'20151122\xc2\xa011:53PM UTC'
p10
sg6
S'Nevada 85, Pacific 82 (2 OT)'
p11
sa(dp12
g2
S'http://www.reuters.com/article/fbn-packers-playerwatch-idUSMTZEBBM7C71E420151122'
p13
sg4
S'20151122\xc2\xa011:49PM UTC'
p14
sg6
S'Green Bay Packers - PlayerWatch'
p15
sa(dp16
g2
S'http://www.reuters.com/article/hkn-predators-wild-writethru-idUSMTZEBBM77596Q20151122'
p17
sg4
S'20151122\xc2\xa011:41PM UTC'
p18
sg6
S'Dubnyk, Wild shut out Predators'
p19
sa(dp20
g2
S'http://www.reuters.com/article/hkn-sabres-stars-writethru-idUSMTZEBBM76TB4X20151122'
p21
sg4
S'20151122\xc2\xa011:25PM UTC'
p22
sg6
S"Stars' Niemi blanks Sabres"
p23
sa(dp24
g2
S'http://www.reuters.com/article/bkn-hawks-cavaliers-writethru-idUSMTZEBBM74R8YY20151122'
p25
sg4
S'20151122\xc2\xa011:12PM UTC'
p26
sg6
S'Love leads Cavaliers to win over Hawks'
p27
sa(dp28
g2
S'http://www.reuters.com/article/hkn-mapleleafs-bruins-writethru-idUSMTZEBBM74YCZ120151122'
p29
sg4
S'20151122\xc2\xa011:09PM UTC'
p30
sg6
S'Late goals lift Bruins over Maple Leafs'
p31
sa(dp32
g2
S'http://www.reuters.com/article/ukraine-crisis-crimea-electricity-idUSL8N13H00V20151122'
p33
sg4
S'20151122\xc2\xa011:07PM UTC'
p34
sg6
S'Electricity from Ukraine to Crimea shut off after power pylons blown up-Russian media'
p35
sa(dp36
g2
S'http://www.reuters.com/article/us-usa-race-minnesota-idUSKCN0TA0W720151122'
p37
sg4
S'20151122\xc2\xa011:04PM UTC'
p38
sg6
S'Protesters of Minneapolis police shooting press on in bitter cold'
p39
sa(dp40
g2
S'http://www.reuters.com/article/us-france-shooting-band-idUSKCN0TB02420151122'
p41
sg4
S'20151122\xc2\xa011:01PM UTC'
p42
sg6
S"Several killed in Paris attacks hid in U.S. band's dressing room: singer"
p43
sa(dp44
g2
S'http://www.reuters.com/article/hkn-avalanche-capitals-writethru-idUSMTZEBBM74B1Y720151122'
p45
sg4
S'20151122\xc2\xa010:52PM UTC'
p46
sg6
S'Capitals unload on Avalanche'
p47
sa(dp48
g2
S'http://www.reuters.com/article/hkn-coyotes-jets-writethru-idUSMTZEBBM74EAYG20151122'
p49
sg4
S'20151122\xc2\xa010:43PM UTC'
p50
sg6
S"Thorburn's late goal lifts Jets over Coyotes"
p51
sa(dp52
g2
S'http://www.reuters.com/article/asean-summit-idUSL3N13H02R20151122'
p53
sg4
S'20151122\xc2\xa010:42PM UTC'
p54
sg6
S"ASEAN creates 'Community' at summit shadowed by terrorism worries"
p55
sa(dp56
g2
S'http://www.reuters.com/article/fbc-mississippistate-arkansas-recap-idUSMTZEBBM78DGCF20151122'
p57
sg4
S'20151122\xc2\xa010:37PM UTC'
p58
sg6
S'Mississippi State 51, Arkansas 50'
p59
sa(dp60
g2
S'http://www.reuters.com/article/fbc-889-kentucky-writethru-idUSMTZEBBM78DGCG20151122'
p61
sg4
S'20151122\xc2\xa010:37PM UTC'
p62
sg6
S'Kentucky 58, Charlotte 10'
p63
sa(dp64
g2
S'http://www.reuters.com/article/fbc-louisianastate-mississippi-writethru-idUSMTZEBBM723YT720151122'
p65
sg4
S'20151122\xc2\xa010:35PM UTC'
p66
sg6
S'Mississippi State 51, Arkansas 50'
p67
sa(dp68
g2
S'http://www.reuters.com/article/bkc-mountstmarys-gonzaga-writethru-idUSMTZEBBM7809B120151122'
p69
sg4
S'20151122\xc2\xa010:29PM UTC'
p70
sg6
S"Gonzaga 101, Mount St. Mary's 56"
p71
sa(dp72
g2
S'http://www.reuters.com/article/bkn-wizards-pistons-recap-idUSMTZEBBM74Q9YU20151122'
p73
sg4
S'20151122\xc2\xa010:24PM UTC'
p74
sg6
S'Wizards 97, Pistons 95'
p75
sa(dp76
g2
S'http://www.reuters.com/article/us-louisiana-election-idUSKCN0TB01D20151122'
p77
sg4
S'20151122\xc2\xa010:23PM UTC'
p78
sg6
S'Democrat wins Louisiana governor election in upset for Republicans'
p79
sa(dp80
g2
S'http://www.reuters.com/article/us-asean-summit-obama-script-idUSKCN0TB01720151122'
p81
sg4
S'20151122\xc2\xa010:20PM UTC'
p82
sg6
S"Obama's four-summit trip did not always go according to script"
p83
sa(dp84
g2
S'http://www.reuters.com/article/nepal-protests-idUSKCN0TB01920151122'
p85
sg4
S'20151122\xc2\xa010:19PM UTC'
p86
sg6
S'Nepal police kill two charter protesters in fresh violence'
p87
sa(dp88
g2
S'http://www.reuters.com/article/bkn-knicks-rockets-recap-idUSMTZEBBM76UO5420151122'
p89
sg4
S'20151122\xc2\xa010:16PM UTC'
p90
sg6
S'Knicks 107, Rockets 102'
p91
sa(dp92
g2
S'http://www.reuters.com/article/nepal-protests-idUSL3N13H02S20151122'
p93
sg4
S'20151122\xc2\xa010:15PM UTC'
p94
sg6
S'Nepal police kill two charter protesters in fresh violence'
p95
sa(dp96
g2
S'http://www.reuters.com/article/mali-attacks-idUSKCN0T90SI20151122'
p97
sg4
S'20151122\xc2\xa010:10PM UTC'
p98
sg6
S'Putin says seeks global anti-terrorism fight after 19 killed in Mali attack'
p99
sa(dp100
g2
S'http://www.reuters.com/article/hkn-sharks-penguins-writethru-idUSMTZEBBM73WAXU20151122'
p101
sg4
S'20151122\xc2\xa010:05PM UTC'
p102
sg6
S"Marleau's 1,000th point helps Sharks beat Penguins"
p103
sa(dp104
g2
S'http://www.reuters.com/article/hkn-flyers-senators-recap-idUSMTZEBBM74D3YA20151122'
p105
sg4
S'20151122\xc2\xa09:55PM UTC'
p106
sg6
S'Senators 4, Flyers 0'
p107
sa(dp108
g2
S'http://www.reuters.com/article/fbc-tennessee-missouri-writethru-idUSMTZEBBM762G1G20151122'
p109
sg4
S'20151122\xc2\xa09:47PM UTC'
p110
sg6
S'Tennessee 19, Missouri 8'
p111
sa(dp112
g2
S'http://www.reuters.com/article/fbc-georgiasouthern-georgia-writethru-idUSMTZEBBM75YK1F20151122'
p113
sg4
S'20151122\xc2\xa09:45PM UTC'
p114
sg6
S'Georgia 23, Georgia Southern 17 (OT)'
p115
sa(dp116
g2
S'http://www.reuters.com/article/bkn-bucks-pacers-writethru-idUSMTZEBBM736IWP20151122'
p117
sg4
S'20151122\xc2\xa09:35PM UTC'
p118
sg6
S'Pacers pound Bucks'
p119
sa(dp120
g2
S'http://www.reuters.com/article/soccer-barcelona-realmadrid-clasico-idUSKCN0TB00P20151122'
p121
sg4
S'20151122\xc2\xa09:24PM UTC'
p122
sg6
S"Suarez, Neymar humiliate Real in 4-0 'Clasico' romp"
p123
sa(dp124
g2
S'http://www.reuters.com/article/hkn-ducks-lightning-recap-idUSMTZEBBM74D2Y920151122'
p125
sg4
S'20151122\xc2\xa09:10PM UTC'
p126
sg6
S'Lightning 5, Ducks 0'
p127
sa(dp128
g2
S'http://www.reuters.com/article/us-france-shooting-nurse-bomber-idUSKCN0TA00N20151122'
p129
sg4
S'20151122\xc2\xa09:05PM UTC'
p130
sg6
S'Exclusive: In Paris attack, nurse discovers the man he tried to save was bomber'
p131
sa(dp132
g2
S'http://www.reuters.com/article/ca-madame-tussauds-idUSnBw215029a+100+BSW20151122'
p133
sg4
S'20151122\xc2\xa09:04PM UTC'
p134
sg6
S'Zendaya Unveils Two Madame Tussauds Wax Figures'
p135
sa(dp136
g2
S'http://www.reuters.com/article/bkc-brown-providence-writethru-idUSMTZEBBM72FKUT20151122'
p137
sg4
S'20151122\xc2\xa08:57PM UTC'
p138
sg6
S'Providence 94, Brown 73'
p139
sa(dp140
g2
S'http://www.reuters.com/article/us-maryland-threat-idUSKCN0TB00H20151122'
p141
sg4
S'20151122\xc2\xa08:56PM UTC'
p142
sg6
S'Student who caused brief closure of Maryland college found dead'
p143
sa(dp144
g2
S'http://www.reuters.com/article/fbc-northwestern-wisconsin-writethru-idUSMTZEBBM72WLWN20151122'
p145
sg4
S'20151122\xc2\xa08:39PM UTC'
p146
sg6
S'No. 20 Northwestern gets first win at Wisconsin since 2000'
p147
sa(dp148
g2
S'http://www.reuters.com/article/bkn-kings-magic-writethru-idUSMTZEBBM6XT4MS20151122'
p149
sg4
S'20151122\xc2\xa08:34PM UTC'
p150
sg6
S'Cousins leads Kings past Magic'
p151
sa(dp152
g2
S'http://www.reuters.com/article/fbc-wakeforest-clemson-writethru-idUSMTZEBBM72N2VL20151122'
p153
sg4
S'20151122\xc2\xa08:33PM UTC'
p154
sg6
S'No. 1 Clemson stays perfect with 33-13 win'
p155
sa(dp156
g2
S'http://www.reuters.com/article/idUSnMKWRBYQ7a+1fc+MKW20151122'
p157
sg4
S'20151122\xc2\xa08:32PM UTC'
p158
sg6
S'Miners Center ofrece como regalo un monedero f\xc3\xadsico de bitcoins'
p159
sa(dp160
g2
S'http://www.reuters.com/article/idUSnCCN6TpcCt+1d2+MKW20151122'
p161
sg4
S'20151122\xc2\xa08:32PM UTC'
p162
sg6
S'Miners Center ofrece como regalo un monedero f\xc3\xadsico de bitcoins'
p163
sa(dp164
g2
S'http://www.reuters.com/article/us-golf-lpga-idUSKCN0TA0XR20151122'
p165
sg4
S'20151122\xc2\xa08:30PM UTC'
p166
sg6
S'Ko on verge of $1 million jackpot at LPGA finale'
p167
sa(dp168
g2
S'http://www.reuters.com/article/bkc-vmi-virginiatech-writethru-idUSMTZEBBM726RTO20151122'
p169
sg4
S'20151122\xc2\xa08:23PM UTC'
p170
sg6
S'Virginia Tech 76, VMI 52'
p171
sa(dp172
g2
S'http://www.reuters.com/article/idUSnMKW3X8yCa+1d2+MKW20151122'
p173
sg4
S'20151122\xc2\xa08:22PM UTC'
p174
sg6
S'Carteira para bitcoins presente da Miners Center'
p175
sa(dp176
g2
S'http://www.reuters.com/article/idUSnCCN17x48D+1c1+MKW20151122'
p177
sg4
S'20151122\xc2\xa08:22PM UTC'
p178
sg6
S'Carteira para bitcoins presente da Miners Center'
p179
sa(dp180
g2
S'http://www.reuters.com/article/ca-intel-corporation-idUSnBw215027a+100+BSW20151122'
p181
sg4
S'20151122\xc2\xa08:21PM UTC'
p182
sg6
S"Photo of Intel CEO Brian Krzanich Playing a Charity League of Legends Match Against Texas Technology Billionaire Mark Cuban at the Intel Extreme Masters eSports Tournament Available on Business Wire's Website and AP PhotoExp"
p183
sa(dp184
g2
S'http://www.reuters.com/article/bkc-bostonu-southflorida-recap-idUSMTZEBBM71Y8SU20151122'
p185
sg4
S'20151122\xc2\xa08:18PM UTC'
p186
sg6
S'Boston U. 78, South Florida 66'
p187
sa(dp188
g2
S'http://www.reuters.com/article/bkc-florida-stjosephs-writethru-idUSMTZEBBL6PXTI820151122'
p189
sg4
S'20151122\xc2\xa08:16PM UTC'
p190
sg6
S'Central Florida 65, North Carolina-Greensboro 54'
p191
sa(dp192
g2
S'http://www.reuters.com/article/bkc-elonuniversity-syracuse-writethru-idUSMTZEBBM71SVSH20151122'
p193
sg4
S'20151122\xc2\xa08:15PM UTC'
p194
sg6
S'Syracuse 66, Elon 55'
p195
sa(dp196
g2
S'http://www.reuters.com/article/fbc-michigan-pennstate-writethru-idUSMTZEBBL6SX0IY20151122'
p197
sg4
S'20151122\xc2\xa08:06PM UTC'
p198
sg6
S'Michigan State ends Ohio State win streak at 23'
p199
sa(dp200
g2
S'http://www.reuters.com/article/bkc-floridast-depaul-recap-idUSMTZEBBM70YLQV20151122'
p201
sg4
S'20151122\xc2\xa07:57PM UTC'
p202
sg6
S'Florida State 83, DePaul 67'
p203
sa(dp204
g2
S'http://www.reuters.com/article/idUSnMKW1RxQKa+1d6+MKW20151122'
p205
sg4
S'20151122\xc2\xa07:52PM UTC'
p206
sg6
S'MULTIMEDIA UPDATE - San Francisco General Hospital Foundation Celebrates Public-Private Partnership to Ensure High Quality Health Care for All San Franciscans'
p207
sa(dp208
g2
S'http://www.reuters.com/article/idUSnCCNH70fy+f0+MKW20151122'
p209
sg4
S'20151122\xc2\xa07:52PM UTC'
p210
sg6
S'MULTIMEDIA UPDATE - San Francisco General Hospital Foundation Celebrates Public-Private Partnership to Ensure High Quality Health Care for All San Franciscans'
p211
sa(dp212
g2
S'http://www.reuters.com/article/fbc-ucla-utah-writethru-idUSMTZEBBM70OPQI20151122'
p213
sg4
S'20151122\xc2\xa07:51PM UTC'
p214
sg6
S'UCLA keeps Pac-12 title hopes alive'
p215
sa(dp216
g2
S'http://www.reuters.com/article/fbc-charlestonsouthern-alabama-writethru-idUSMTZEBBM70HVQA20151122'
p217
sg4
S'20151122\xc2\xa07:47PM UTC'
p218
sg6
S'No. 2 Alabama blows out Charleston Southern'
p219
sa(dp220
g2
S'http://www.reuters.com/article/fbc-southerncalifornia-oregon-writethru-idUSMTZEBBM6ZJZNB20151122'
p221
sg4
S'20151122\xc2\xa07:26PM UTC'
p222
sg6
S'Adams (six TD passes), No. 23 Oregon too much No. 22 USC'
p223
sa(dp224
g2
S'http://www.reuters.com/article/idUSnMKWn2kVma+1c4+MKW20151122'
p225
sg4
S'20151122\xc2\xa07:18PM UTC'
p226
sg6
S'Minera IRL Limited Reports on Ollachea Community Announcement and Responds to Unauthorised Press Release'
p227
sa(dp228
g2
S'http://www.reuters.com/article/idUSnCCN5PzlXC+1d3+MKW20151122'
p229
sg4
S'20151122\xc2\xa07:18PM UTC'
p230
sg6
S'Minera IRL Limited Reports on Ollachea Community Announcement and Responds to Unauthorised Press Release'
p231
sa(dp232
g2
S'http://www.reuters.com/article/us-tennis-men-atp-federer-idUSKCN0TB00120151122'
p233
sg4
S'20151122\xc2\xa07:08PM UTC'
p234
sg6
S'Djokovic unbeatable? Federer eyes two wins in a week'
p235
sa(dp236
g2
S'http://www.reuters.com/article/fbc-idaho-auburn-writethru-idUSMTZEBBM6YLKMV20151122'
p237
sg4
S'20151122\xc2\xa07:06PM UTC'
p238
sg6
S'Auburn 56, Idaho 34'
p239
sa(dp240
g2
S'http://www.reuters.com/article/idUSnMKWQgsba+f0+MKW20151121'
p241
sg4
S'20151122\xc2\xa06:59PM UTC'
p242
sg6
S'Slim Trim 2000 Reviewed by Healthy Nutrition -- Pure Forskolin Formula Revealed'
p243
sa(dp244
g2
S'http://www.reuters.com/article/us-france-shooting-nurse-bomber-idUSKCN0TA00N20151121'
p245
sg4
S'20151122\xc2\xa06:55PM UTC'
p246
sg6
S'Exclusive: In Paris attack, nurse discovers the man he tried to save was bomber'
p247
sa(dp248
g2
S'http://www.reuters.com/article/us-france-shooting-idUSKCN0TA0T520151121'
p249
sg4
S'20151122\xc2\xa06:54PM UTC'
p250
sg6
S'French police release seven people picked up during raid last week'
p251
sa(dp252
g2
S'http://www.reuters.com/article/us-france-shooting-army-idUSKCN0TA0Z520151121'
p253
sg4
S'20151122\xc2\xa06:54PM UTC'
p254
sg6
S'French army chief sees no fast victory against Islamic State'
p255
sa(dp256
g2
S'http://www.reuters.com/article/bkn-kings-magic-recap-idUSMTZEBBM6XT4MS20151121'
p257
sg4
S'20151122\xc2\xa06:49PM UTC'
p258
sg6
S'Kings 97, Magic 91'
p259
sa(dp260
g2
S'http://www.reuters.com/article/us-golf-pga-idUSKCN0TA0YV20151121'
p261
sg4
S'20151122\xc2\xa06:47PM UTC'
p262
sg6
S'Kisner on verge of first PGA Tour victory with three-shot lead'
p263
sa(dp264
g2
S'http://www.reuters.com/article/fbc-louisville-pittsburgh-writethru-idUSMTZEBBM6XIUMR20151121'
p265
sg4
S'20151122\xc2\xa06:42PM UTC'
p266
sg6
S'Pittsburgh 45, Louisville 34'
p267
sa(dp268
g2
S'http://www.reuters.com/article/ca-exelixis-idUSnBw215025a+100+BSW20151121'
p269
sg4
S'20151122\xc2\xa06:40PM UTC'
p270
sg6
S'Exelixis Announces Presentation of Positive Overall Survival Results for COTELLIC\xe2\x84\xa2 in Combination with Vemurafenib in Advanced BRAF V600 Mutation-Positive Melanoma at Society for Melanoma Research 2015 International Congre'
p271
sa(dp272
g2
S'http://www.reuters.com/article/ca-genentech-idUSnBw215003a+100+BSW20151121'
p273
sg4
S'20151122\xc2\xa06:40PM UTC'
p274
sg6
S'UPDATED DATA SHOWED THAT COTELLIC\xe2\x84\xa2 (COBIMETINIB) IN COMBINATION WITH ZELBORAF\xc2\xae (VEMURAFENIB) HELPED PEOPLE WITH A SPECIFIC TYPE OF ADVANCED MELANOMA LIVE SIGNIFICANTLY LONGER THAN WITH ZELBORAF ALONE'
p275
sa(dp276
g2
S'http://www.reuters.com/article/us-chicago-fire-hancock-idUSKCN0TA0Y220151121'
p277
sg4
S'20151122\xc2\xa06:39PM UTC'
p278
sg6
S'Five injured in fire in famed Chicago skyscraper'
p279
sa(dp280
g2
S'http://www.reuters.com/article/us-chile-quake-idUSKCN0TA0YO20151121'
p281
sg4
S'20151122\xc2\xa06:34PM UTC'
p282
sg6
S'Magnitude 5.5 quake hits Chilean coast: USGS'
p283
sa(dp284
g2
S'http://www.reuters.com/article/chile-quake-idUSL1N13G0P920151121'
p285
sg4
S'20151122\xc2\xa06:32PM UTC'
p286
sg6
S'Magnitude 5.5 quake hits Chilean coast -USGS'
p287
sa(dp288
g2
S'http://www.reuters.com/article/bkc-centralarkansas-rutgers-writethru-idUSMTZEBBM6WVZMI20151121'
p289
sg4
S'20151122\xc2\xa06:29PM UTC'
p290
sg6
S'Rutgers 87, Central Arkansas 84'
p291
sa(dp292
g2
S'http://www.reuters.com/article/us-tennis-men-atp-doubles-idUSKCN0TA0YM20151121'
p293
sg4
S'20151122\xc2\xa06:26PM UTC'
p294
sg6
S'Roger and Tecau clinch year-end top doubles ranking'
p295
sa(dp296
g2
S'http://www.reuters.com/article/us-usa-race-brown-idUSKCN0TA0YK20151121'
p297
sg4
S'20151122\xc2\xa06:25PM UTC'
p298
sg6
S'Brown University unveils $100 million plan to address campus diversity'
p299
sa(dp300
g2
S'http://www.reuters.com/article/us-usa-georgia-security-idUSKCN0TA0YI20151121'
p301
sg4
S'20151122\xc2\xa06:20PM UTC'
p302
sg6
S'Reported plans of attack on Atlanta wrestling match not credible: FBI'
p303
sa(dp304
g2
S'http://www.reuters.com/article/usa-race-brown-idUSL1N13G0NL20151121'
p305
sg4
S'20151122\xc2\xa06:19PM UTC'
p306
sg6
S'Brown University unveils $100 million plan to address campus diversity'
p307
sa(dp308
g2
S'http://www.reuters.com/article/bangladesh-execution-idUSKCN0TA0VH20151121'
p309
sg4
S'20151122\xc2\xa06:17PM UTC'
p310
sg6
S'Bangladesh executes two opposition leaders for 1971 war crimes'
p311
sa(dp312
g2
S'http://www.reuters.com/article/us-soccer-spain-idUSKCN0TA0V420151121'
p313
sg4
S'20151122\xc2\xa06:10PM UTC'
p314
sg6
S"Suarez, Neymar humiliate Real in 4-0 'Clasico' romp"
p315
sa(dp316
g2
S'http://www.reuters.com/article/us-eu-russia-sanctions-idUSKCN0TA0XH20151121'
p317
sg4
S'20151122\xc2\xa06:09PM UTC'
p318
sg6
S'Western leaders agreed to extend Russia sanctions by six months: diplomat'
p319
sa(dp320
g2
S'http://www.reuters.com/article/us-volkswagen-emissions-soccer-idUSKCN0TA0YE20151121'
p321
sg4
S'20151122\xc2\xa06:07PM UTC'
p322
sg6
S'VW may drop sponsorship of Hannover 96, others: Bild am Sonntag'
p323
sa(dp324
g2
S'http://www.reuters.com/article/fbc-floridaatlantic-florida-writethru-idUSMTZEBBL6VQFKJ20151121'
p325
sg4
S'20151122\xc2\xa06:04PM UTC'
p326
sg6
S'No. 8 Florida slips past Florida Atlantic'
p327
sa(dp328
g2
S'http://www.reuters.com/article/volkswagen-emissions-soccer-idUSL8N13G0QS20151121'
p329
sg4
S'20151122\xc2\xa06:00PM UTC'
p330
sg6
S'Soccer-VW may drop sponsorship of Hannover 96, others -Bild am Sonntag'
p331
sa(dp332
g2
S'http://www.reuters.com/article/idUSnMKWflKBVa+1ce+MKW20151121'
p333
sg4
S'20151122\xc2\xa05:58PM UTC'
p334
sg6
S'San Francisco General Hospital Foundation Celebrates Public-Private Partnership to Ensure High Quality Health Care for All San Franciscans'
p335
sa(dp336
g2
S'http://www.reuters.com/article/idUSnCCN2JydKD+1d3+MKW20151121'
p337
sg4
S'20151122\xc2\xa05:58PM UTC'
p338
sg6
S'San Francisco General Hospital Foundation Celebrates Public-Private Partnership to Ensure High Quality Health Care for All San Franciscans'
p339
sa(dp340
g2
S'http://www.reuters.com/article/us-israel-palestinians-violence-idUSKCN0TA0W020151121'
p341
sg4
S'20151122\xc2\xa05:55PM UTC'
p342
sg6
S'Palestinian stabs four in attack in southern Israel: police'
p343
sa(dp344
g2
S'http://www.reuters.com/article/us-france-shooting-turkey-arrest-idUSKCN0TA07720151121'
p345
sg4
S'20151122\xc2\xa05:45PM UTC'
p346
sg6
S'Turkish police arrest suspected Islamic State scout in Paris attacks'
p347
sa(dp348
g2
S'http://www.reuters.com/article/us-france-shooting-idUSKCN0T90S520151121'
p349
sg4
S'20151122\xc2\xa05:45PM UTC'
p350
sg6
S'Tapped phone led Paris attack leader to his death'
p351
sa(dp352
g2
S'http://www.reuters.com/article/us-usa-race-minnesota-idUSKCN0TA0W720151121'
p353
sg4
S'20151122\xc2\xa05:44PM UTC'
p354
sg6
S'Protesters of Minneapolis police shooting press on in cold'
p355
sa(dp356
g2
S'http://www.reuters.com/article/us-usa-coastguard-drugs-idUSKCN0TA0Y020151121'
p357
sg4
S'20151122\xc2\xa05:41PM UTC'
p358
sg6
S'Lone U.S. Coast Guard vessel nabs nearly 15 tons of cocaine in 2015'
p359
sa(dp360
g2
S'http://www.reuters.com/article/us-usa-stocks-fed-leaks-idUSKCN0TA0XY20151121'
p361
sg4
S'20151122\xc2\xa05:39PM UTC'
p362
sg6
S'Pssst, want to play the market? Count the Fed leak weeks: study'
p363
sa(dp364
g2
S'http://www.reuters.com/article/usa-stocks-fed-leaks-idUSL1N13G0NB20151121'
p365
sg4
S'20151122\xc2\xa05:34PM UTC'
p366
sg6
S'Pssst, want to play the market? Count the Fed leak weeks -study'
p367
sa(dp368
g2
S'http://www.reuters.com/article/us-tennis-men-atp-idUSKCN0TA0VP20151121'
p369
sg4
S'20151122\xc2\xa05:32PM UTC'
p370
sg6
S'Sublime Djokovic crushes Nadal to set up Federer final'
p371
sa(dp372
g2
S'http://www.reuters.com/article/us-golf-lpga-idUSKCN0TA0XR20151121'
p373
sg4
S'20151122\xc2\xa05:27PM UTC'
p374
sg6
S'Jang, Kerr share 54-hole lead at season-ending tournament'
p375
sa(dp376
g2
S'http://www.reuters.com/article/dc-natl-press-club-idUSnPn9kJ4wj+88+PRN20151121'
p377
sg4
S'20151122\xc2\xa05:25PM UTC'
p378
sg6
S'National Press Club Statement On Death of Austin Kiplinger'
p379
sa(dp380
g2
S'http://www.reuters.com/article/lockheed-martin-ship-idUSnPncczCgV+85+PRN20151121'
p381
sg4
S'20151122\xc2\xa05:19PM UTC'
p382
sg6
S"Milwaukee's Finest: U.S. Navy Commissions Newest Littoral Combat Ship"
p383
sa(dp384
g2
S'http://www.reuters.com/article/kahn-swick-foti-lbmh-idUSnPn8pH0gf+88+PRN20151121'
p385
sg4
S'20151122\xc2\xa05:10PM UTC'
p386
sg6
S'LIBERATOR MEDICAL INVESTOR ALERT BY THE FORMER ATTORNEY GENERAL OF LOUISIANA: Kahn Swick & Foti, LLC Investigates Adequacy of Price and Process in Proposed Sale of Liberator Medical Holdings, Inc.'
p387
sa(dp388
g2
S'http://www.reuters.com/article/idUSnGNXbXRfNb+1da+GNW20151121'
p389
sg4
S'20151122\xc2\xa05:03PM UTC'
p390
sg6
S'Smithfield Foods Partners With Cheney Brothers to Donate $25,000 to Big Dog Ranch Rescue'
p391
sa(dp392
g2
S'http://www.reuters.com/article/fbc-michigan-pennstate-writethru-idUSMTZEBBL6SX0IY20151121'
p393
sg4
S'20151122\xc2\xa05:03PM UTC'
p394
sg6
S'No. 12 Michigan stymies Penn State'
p395
sa(dp396
g2
S'http://www.reuters.com/article/us-usa-fed-williams-rates-idUSKCN0TA0WZ20151121'
p397
sg4
S'20151122\xc2\xa04:48PM UTC'
p398
sg6
S"Fed's Williams sees strong case for December interest-rate hike"
p399
sa(dp400
g2
S'http://www.reuters.com/article/fbc-memphis-temple-writethru-idUSMTZEBBL6S82IN20151121'
p401
sg4
S'20151122\xc2\xa04:48PM UTC'
p402
sg6
S'Temple keeps No. 21 Memphis out of end zone'
p403
sa(dp404
g2
S'http://www.reuters.com/article/us-hondruas-arrest-migrants-idUSKCN0TA0SZ20151121'
p405
sg4
S'20151122\xc2\xa04:45PM UTC'
p406
sg6
S'Honduras detains Syrian, Pakistanis traveling illegally: police'
p407
sa(dp408
g2
S'http://www.reuters.com/article/idUSnGNX3lHkY4+1ca+GNW20151121'
p409
sg4
S'20151122\xc2\xa04:42PM UTC'
p410
sg6
S'Royal Financial, Inc. Announces Earnings for First Quarter of Fiscal Year 2016 and Finalization of PNA Bank Acquisition'
p411
sa(dp412
g2
S'http://www.reuters.com/article/honduras-arrests-immigrants-idUSL1N13G0H920151121'
p413
sg4
S'20151122\xc2\xa04:41PM UTC'
p414
sg6
S'OFFICIAL CORRECTION-UPDATE 2-Honduras detains Syrian, Pakistanis traveling illegally - police'
p415
sa(dp416
g2
S'http://www.reuters.com/article/usa-fed-williams-rates-idUSL1N13G0MI20151121'
p417
sg4
S'20151122\xc2\xa04:40PM UTC'
p418
sg6
S"UPDATE 1-U.S. Fed's Williams sees strong case for December interest-rate hike"
p419
sa(dp420
g2
S'http://www.reuters.com/article/us-chipotle-mexican-ecoli-customers-idUSKCN0TA0X720151121'
p421
sg4
S'20151122\xc2\xa04:39PM UTC'
p422
sg6
S'Some Chipotle customers say undeterred by E. coli outbreak'
p423
sa(dp424
g2
S'http://www.reuters.com/article/bkc-pennsylvania-washington-writethru-idUSMTZEBBL6RO2IF20151121'
p425
sg4
S'20151122\xc2\xa04:36PM UTC'
p426
sg6
S'Washington 104, Pennsylvania 67'
p427
sa(dp428
g2
S'http://www.reuters.com/article/nj-merck-idUSnBw215022a+100+BSW20151121'
p429
sg4
S'20151122\xc2\xa04:30PM UTC'
p430
sg6
S'Merck Announces Initial Results for KEYTRUDA\xc2\xae (pembrolizumab) with Novel Immunotherapy Combinations from Three Investigational Studies Presented at the Society for Melanoma Research International Congress'
p431
sa(dp432
g2
S'http://www.reuters.com/article/chipotle-mexican-ecoli-customers-idUSL1N13G0HF20151121'
p433
sg4
S'20151122\xc2\xa04:29PM UTC'
p434
sg6
S'Some U.S. Chipotle customers say undeterred by E. coli outbreak'
p435
sa(dp436
g2
S'http://www.reuters.com/article/us-hongkong-politics-election-idUSKCN0TA0WL20151121'
p437
sg4
S'20151122\xc2\xa04:25PM UTC'
p438
sg6
S'Hong Kong votes year after protests in test of appetite for democracy'
p439
sa(dp440
g2
S'http://www.reuters.com/article/usa-fed-williams-rates-idUSS8N10Z00Z20151121'
p441
sg4
S'20151122\xc2\xa04:23PM UTC'
p442
sg6
S"U.S. Fed's Williams sees strong case for December interest-rate hike"
p443
sa(dp444
g2
S'http://www.reuters.com/article/fbc-purdue-iowa-writethru-idUSMTZEBBL6R0BIE20151121'
p445
sg4
S'20151122\xc2\xa04:22PM UTC'
p446
sg6
S'No. 5 Iowa claims Big Ten West title'
p447
sa(dp448
g2
S'http://www.reuters.com/article/us-zimbabwe-drought-schools-idUSKCN0TA0WX20151121'
p449
sg4
S'20151122\xc2\xa04:17PM UTC'
p450
sg6
S'School dropout rate rising as drought boosts hunger in Zimbabwe'
p451
sa(dp452
g2
S'http://www.reuters.com/article/bkc-florida-stjosephs-writethru-idUSMTZEBBL6PXTI820151121'
p453
sg4
S'20151122\xc2\xa03:59PM UTC'
p454
sg6
S"Florida 74, St. Joseph's 63"
p455
sa(dp456
g2
S'http://www.reuters.com/article/nol-cma-cmg-idUSL8N13G0OF20151121'
p457
sg4
S'20151122\xc2\xa03:49PM UTC'
p458
sg6
S"Neptune Orient Lines says in exclusive talks with France's CMA CGM"
p459
sa(dp460
g2
S'http://www.reuters.com/article/aarp-ny-caregivers-idUSnPn2xx5Nv+82+PRN20151121'
p461
sg4
S'20151122\xc2\xa03:43PM UTC'
p462
sg6
S'AARP Recognizes Family Caregivers Across U.S.; Presents "Portrait of Care" to Editha Santiago from Queens, NY'
p463
sa(dp464
g2
S'http://www.reuters.com/article/us-bangladesh-execution-idUSKCN0TA0UO20151121'
p465
sg4
S'20151122\xc2\xa03:43PM UTC'
p466
sg6
S'Bangladesh executes two opposition leaders for 1971 war crimes'
p467
sa(dp468
g2
S'http://www.reuters.com/article/bangladesh-execution-idUSL3N13G09W20151121'
p469
sg4
S'20151122\xc2\xa03:42PM UTC'
p470
sg6
S'UPDATE 2-Bangladesh executes two opposition leaders for 1971 war crimes'
p471
sa(dp472
g2
S'http://www.reuters.com/article/fbc-rutgers-army-writethru-idUSMTZEBBL6P4GHF20151121'
p473
sg4
S'20151122\xc2\xa03:41PM UTC'
p474
sg6
S'Rutgers 31, Army 21'
p475
sa(dp476
g2
S'http://www.reuters.com/article/fbc-syracuse-northcarolinastate-writethr-idUSMTZEBBL6P03HE20151121'
p477
sg4
S'20151122\xc2\xa03:38PM UTC'
p478
sg6
S'North Carolina State 42, Syracuse 29'
p479
sa(dp480
g2
S'http://www.reuters.com/article/us-eurozone-economy-surplus-idUSKCN0TA0WB20151121'
p481
sg4
S'20151122\xc2\xa03:38PM UTC'
p482
sg6
S'Monetary policy risks becoming ineffective in low growth world: ECB Coeure'
p483
sa(dp484
g2
S'http://www.reuters.com/article/fbc-georgiatech-miami-writethru-idUSMTZEBBL6OWQHD20151121'
p485
sg4
S'20151122\xc2\xa03:36PM UTC'
p486
sg6
S'Miami 38, Georgia Tech 21'
p487
sa(dp488
g2
S'http://www.reuters.com/article/us-usa-weather-idUSKCN0TA0Q920151121'
p489
sg4
S'20151122\xc2\xa03:27PM UTC'
p490
sg6
S'Early season snowstorm coats Midwestern U.S., affects travel'
p491
sa(dp492
g2
S'http://www.reuters.com/article/us-mali-attacks-idUSKCN0T90SK20151121'
p493
sg4
S'20151122\xc2\xa03:22PM UTC'
p494
sg6
S'Putin says seeks global anti-terrorism fight after 19 killed in Mali attack'
p495
sa(dp496
g2
S'http://www.reuters.com/article/mali-attacks-idUSL8N13G0LM20151121'
p497
sg4
S'20151122\xc2\xa03:18PM UTC'
p498
sg6
S'WRAPUP 4-Putin says seeks global anti-terrorism fight after 19 killed in Mali attack'
p499
sa(dp500
g2
S'http://www.reuters.com/article/fbc-iowastate-kansasstate-recap-idUSMTZEBBL6NXAH220151121'
p501
sg4
S'20151122\xc2\xa03:15PM UTC'
p502
sg6
S'Kansas State 38, Iowa State 35'
p503
sa(dp504
g2
S'http://www.reuters.com/article/fbc-westvirginia-kansas-writethru-idUSMTZEBBL6MWLGP20151121'
p505
sg4
S'20151122\xc2\xa03:13PM UTC'
p506
sg6
S'Kansas State 38, Iowa State 35'
p507
sa(dp508
g2
S'http://www.reuters.com/article/fbc-indiana-maryland-writethru-idUSMTZEBBL6NO4GT20151121'
p509
sg4
S'20151122\xc2\xa03:10PM UTC'
p510
sg6
S'Indiana 47, Maryland 28'
p511
sa(dp512
g2
S'http://www.reuters.com/article/us-usa-fed-williams-naturalrate-idUSKCN0TA0TT20151121'
p513
sg4
S'20151122\xc2\xa03:09PM UTC'
p514
sg6
S'Fed may need permanently big balance sheet, Williams says'
p515
sa(dp516
g2
S'http://www.reuters.com/article/us-autos-uaw-idUSKCN0TA06J20151121'
p517
sg4
S'20151122\xc2\xa03:09PM UTC'
p518
sg6
S'Ford union workers ratify new four-year U.S. labor pact: UAW'
p519
sa(dp520
g2
S'http://www.reuters.com/article/us-nigeria-violence-cameroon-idUSKCN0TA0JR20151121'
p521
sg4
S'20151122\xc2\xa03:08PM UTC'
p522
sg6
S'Female suicide bombers in Cameroon attack that kills eight'
p523
sa(dp524
g2
S'http://www.reuters.com/article/usa-fed-williams-naturalrate-idUSL1N13G0HL20151121'
p525
sg4
S'20151122\xc2\xa03:03PM UTC'
p526
sg6
S'UPDATE 1-Fed may need permanently big balance sheet, Williams says'
p527
sa(dp528
g2
S'http://www.reuters.com/article/united-way-homewalk-idUSnPn24KgXv+8a+PRN20151121'
p529
sg4
S'20151122\xc2\xa02:51PM UTC'
p530
sg6
S'United Way Of Greater Los Angeles Hosts 9th Annual HomeWalk'
p531
sa(dp532
g2
S'http://www.reuters.com/article/us-people-austinkiplinger-idUSKCN0TA0VB20151121'
p533
sg4
S'20151122\xc2\xa02:42PM UTC'
p534
sg6
S'Personal finance publisher Austin Kiplinger dies at 97'
p535
sa(dp536
g2
S'http://www.reuters.com/article/bangladesh-execution-idUSL3N13G09I20151121'
p537
sg4
S'20151122\xc2\xa02:41PM UTC'
p538
sg6
S'UPDATE 1-Bangladesh executes two opposition leaders for 1971 war crimes'
p539
sa(dp540
g2
S'http://www.reuters.com/article/people-austinkiplinger-idUSL1N13G0I720151121'
p541
sg4
S'20151122\xc2\xa02:35PM UTC'
p542
sg6
S'Personal finance publisher Austin Kiplinger dies at 97'
p543
sa(dp544
g2
S'http://www.reuters.com/article/usa-fed-williams-yieldcurve-idUSS8N10Z00Y20151121'
p545
sg4
S'20151122\xc2\xa02:29PM UTC'
p546
sg6
S"Fed's Williams says long rates to rise when Fed tightens"
p547
sa(dp548
g2
S'http://www.reuters.com/article/us-italy-muslims-march-idUSKCN0TA0UC20151121'
p549
sg4
S'20151122\xc2\xa02:22PM UTC'
p550
sg6
S"'Not in my name' - Italy's Muslims rally against terrorism"
p551
sa(dp552
g2
S'http://www.reuters.com/article/us-music-mercury-idUSKCN0TA00120151121'
p553
sg4
S'20151122\xc2\xa02:20PM UTC'
p554
sg6
S"Britain's Benjamin Clementine wins Mercury music prize"
p555
sa(dp556
g2
S'http://www.reuters.com/article/bangladesh-execution-idUSL3N13G08220151121'
p557
sg4
S'20151122\xc2\xa02:14PM UTC'
p558
sg6
S'Bangladesh executes two opposition leaders for 1971 war crimes'
p559
sa(dp560
g2
S'http://www.reuters.com/article/idUSnCCN12GmDr+1ca+MKW20151121'
p561
sg4
S'20151122\xc2\xa02:13PM UTC'
p562
sg6
S'Physical Bitcoin Wallet Offered as Gift by MinersCenter'
p563
sa(dp564
g2
S'http://www.reuters.com/article/us-motor-racing-endurance-idUSKCN0TA0U420151121'
p565
sg4
S'20151122\xc2\xa01:59PM UTC'
p566
sg6
S'Webber a champion at last in world endurance series'
p567
sa(dp568
g2
S'http://www.reuters.com/article/bkc-furman-connecticut-writethru-idUSMTZEBBL6K7ZG020151121'
p569
sg4
S'20151122\xc2\xa01:55PM UTC'
p570
sg6
S'No. 19 UConn 83, Furman 58'
p571
sa(dp572
g2
S'http://www.reuters.com/article/usa-fed-williams-naturalrate-idUSS8N10Z00X20151121'
p573
sg4
S'20151122\xc2\xa01:51PM UTC'
p574
sg6
S"Fed's Williams says central banks need to consider new tools"
p575
sa(dp576
g2
S'http://www.reuters.com/article/us-italy-art-theft-idUSKCN0TA0TM20151121'
p577
sg4
S'20151122\xc2\xa01:51PM UTC'
p578
sg6
S'Italy art critics, politicians recriminate after $16 million paintings heist'
p579
sa(dp580
g2
S'http://www.reuters.com/article/us-tennis-davis-security-idUSKCN0TA0T320151121'
p581
sg4
S'20151122\xc2\xa01:44PM UTC'
p582
sg6
S"ITF 'greatly concerned' over Davis Cup security"
p583
sa(dp584
g2
S'http://www.reuters.com/article/france-shooting-idUSL1N13G09B20151121'
p585
sg4
S'20151122\xc2\xa01:32PM UTC'
p586
sg6
S'French police release seven people picked up during raid last week'
p587
sa(dp588
g2
S'http://www.reuters.com/article/idUSnMKWLLydYa+1f2+MKW20151121'
p589
sg4
S'20151122\xc2\xa01:32PM UTC'
p590
sg6
S'Updated Food Recall Warning: Inverloch Cheddar Cheese Recalled Due to Listeria Monocytogenes'
p591
sa(dp592
g2
S'http://www.reuters.com/article/idUSnCCN1pSTBh+1ce+MKW20151121'
p593
sg4
S'20151122\xc2\xa01:31PM UTC'
p594
sg6
S'Updated Food Recall Warning: Inverloch Cheddar Cheese Recalled Due to Listeria Monocytogenes'
p595
sa(dp596
g2
S'http://www.reuters.com/article/us-southkorea-president-idUSKCN0TA0SX20151121'
p597
sg4
S'20151122\xc2\xa01:24PM UTC'
p598
sg6
S'South Korea reformist and former president Kim Young-sam dies'
p599
sa(dp600
g2
S'http://www.reuters.com/article/bkc-northflorida-louisville-writethru-idUSMTZEBBL6I9AFT20151121'
p601
sg4
S'20151122\xc2\xa01:13PM UTC'
p602
sg6
S'Louisville 89, North Florida 61'
p603
sa(dp604
g2
S'http://www.reuters.com/article/us-germany-music-eurovision-idUSKCN0TA0OB20151121'
p605
sg4
S'20151122\xc2\xa01:09PM UTC'
p606
sg6
S'Germany withdraws Eurovision contender after lyrics uproar'
p607
sa(dp608
g2
S'http://www.reuters.com/article/us-israel-palestinians-kerry-idUSKCN0TA0OV20151121'
p609
sg4
S'20151122\xc2\xa01:07PM UTC'
p610
sg6
S'Kerry to meet Israeli, Palestinian leaders on ending violence'
p611
sa(dp612
g2
S'http://www.reuters.com/article/us-usa-canada-f-idUSKCN0TA0SE20151121'
p613
sg4
S'20151122\xc2\xa01:04PM UTC'
p614
sg6
S"U.S. expects F-35 to be part of Canada's next jet competition"
p615
sa(dp616
g2
S'http://www.reuters.com/article/us-film-creed-idUSKCN0TA0SA20151121'
p617
sg4
S'20151122\xc2\xa01:00PM UTC'
p618
sg6
S"Stallone admits he 'was wrong' to doubt 'Creed'"
p619
sa(dp620
g2
S'http://www.reuters.com/article/auction-movie-memorabilia-idUSKCN0TA0S520151121'
p621
sg4
S'20151122\xc2\xa012:58PM UTC'
p622
sg6
S"'Dorothy' dress up for grabs at auction"
p623
sa(dp624
g2
S'http://www.reuters.com/article/us-mideast-crisis-syria-villages-idUSKCN0TA0QB20151121'
p625
sg4
S'20151122\xc2\xa012:57PM UTC'
p626
sg6
S'Syrian rebels retake two villages in Aleppo from Islamic State'
p627
sa(dp628
g2
S'http://www.reuters.com/article/usa-canada-f-idUSL1N13G0FU20151121'
p629
sg4
S'20151122\xc2\xa012:53PM UTC'
p630
sg6
S"U.S. expects F-35 to be part of Canada's next jet competition"
p631
sa(dp632
g2
S'http://www.reuters.com/article/zimbabwe-drought-schools-idUSL8N13G0LK20151121'
p633
sg4
S'20151122\xc2\xa012:51PM UTC'
p634
sg6
S'School dropout rate rising as drought boosts hunger in Zimbabwe'
p635
sa(dp636
g2
S'http://www.reuters.com/article/us-bosnia-peace-anniversary-idUSKCN0TA0RG20151121'
p637
sg4
S'20151122\xc2\xa012:45PM UTC'
p638
sg6
S'Bosnia marks 20 years since a peace deal that still divides'
p639
sa(dp640
g2
S'http://www.reuters.com/article/us-france-shooting-finances-idUSKCN0TA0R120151121'
p641
sg4
S'20151122\xc2\xa012:36PM UTC'
p642
sg6
S'France will respect financial commitments: economy minister'
p643
sa(dp644
g2
S'http://www.reuters.com/article/us-france-shooting-belgium-idUSKCN0TA03H20151121'
p645
sg4
S'20151122\xc2\xa012:25PM UTC'
p646
sg6
S'Brussels put on maximum alert on risk of Paris-like attack'
p647
sa(dp648
g2
S'http://www.reuters.com/article/us-france-shooting-usa-idUSKCN0TA0DD20151121'
p649
sg4
S'20151122\xc2\xa012:24PM UTC'
p650
sg6
S'For response at home to attacks abroad, White House brings out Biden'
p651
sa(dp652
g2
S'http://www.reuters.com/article/us-pakistan-attacks-blasphemy-idUSKCN0TA0QD20151121'
p653
sg4
S'20151122\xc2\xa012:20PM UTC'
p654
sg6
S'Protesters seize Ahmadi mosque in Pakistan after blasphemy rumor'
p655
sa(dp656
g2
S'http://www.reuters.com/article/france-shooting-finances-idUSL8N13G0HP20151121'
p657
sg4
S'20151122\xc2\xa012:08PM UTC'
p658
sg6
S'France will respect financial commitments - economy minister'
p659
sa(dp660
g2
S'http://www.reuters.com/article/us-vatican-leaks-idUSKCN0TA0MP20151121'
p661
sg4
S'20151122\xc2\xa012:08PM UTC'
p662
sg6
S'Vatican to try five, including reporters, over leaks scandal'
p663
sa(dp664
g2
S'http://www.reuters.com/article/hkn-blackhawks-playerwatch-idUSMTZEBBL6FIPF520151121'
p665
sg4
S'20151122\xc2\xa012:04PM UTC'
p666
sg6
S'Chicago Blackhawks - PlayerWatch'
p667
sa(dp668
g2
S'http://www.reuters.com/article/hkn-hurricanes-playerwatch-idUSMTZEBBL6FIPF420151121'
p669
sg4
S'20151122\xc2\xa012:04PM UTC'
p670
sg6
S'Carolina Hurricanes - PlayerWatch'
p671
sa(dp672
g2
S'http://www.reuters.com/article/hkn-mapleleafs-playerwatch-idUSMTZEBBL6FIPF320151121'
p673
sg4
S'20151122\xc2\xa012:04PM UTC'
p674
sg6
S'Toronto Maple Leafs - PlayerWatch'
p675
sa(dp676
g2
S'http://www.reuters.com/article/hkn-predators-playerwatch-idUSMTZEBBL6FIPF920151121'
p677
sg4
S'20151122\xc2\xa012:04PM UTC'
p678
sg6
S'Nashville Predators - PlayerWatch'
p679
sa(dp680
g2
S'http://www.reuters.com/article/us-eurozone-greece-tranche-idUSKCN0TA0PP20151121'
p681
sg4
S'20151122\xc2\xa012:03PM UTC'
p682
sg6
S'Euro zone agrees Greece can get next loan tranche, cash for bank recap'
p683
sa(dp684
g2
S'http://www.reuters.com/article/hildebrandt-five-star-idUSnPn1ZGwrX+99+PRN20151121'
p685
sg4
S'20151122\xc2\xa012:03PM UTC'
p686
sg6
S'FIVE STAR Brand Meats Relocates to #TheHildebrandt Building'
p687
sa(dp688
g2
S'http://www.reuters.com/article/fbn-eagles-playerwatch-idUSMTZEBBL6FH1F020151121'
p689
sg4
S'20151122\xc2\xa012:03PM UTC'
p690
sg6
S'Philadelphia Eagles - PlayerWatch'
p691
sa(dp692
g2
S'http://www.reuters.com/article/bkn-rockets-playerwatch-idUSMTZEBBL6FFDEO20151121'
p693
sg4
S'20151122\xc2\xa012:02PM UTC'
p694
sg6
S'Houston Rockets - PlayerWatch'
p695
sa(dp696
g2
S'http://www.reuters.com/article/bkn-pistons-playerwatch-idUSMTZEBBL6FFDEJ20151121'
p697
sg4
S'20151122\xc2\xa012:02PM UTC'
p698
sg6
S'Detroit Pistons - PlayerWatch'
p699
sa(dp700
g2
S'http://www.reuters.com/article/bkn-knicks-playerwatch-idUSMTZEBBL6FFDEE20151121'
p701
sg4
S'20151122\xc2\xa012:02PM UTC'
p702
sg6
S'New York Knicks - PlayerWatch'
p703
sa(dp704
g2
S'http://www.reuters.com/article/idUSnMKWdDnX3a+1d4+MKW20151121'
p705
sg4
S'20151122\xc2\xa011:44AM UTC'
p706
sg6
S'Physical Bitcoin Wallet Offered as Gift by Miners Center'
p707
sa(dp708
g2
S'http://www.reuters.com/article/idUS202915287920151121'
p709
sg4
S'20151122\xc2\xa011:40AM UTC'
p710
sg6
S'From assaults to graffiti, French Muslims take hit after attacks'
p711
sa(dp712
g2
S'http://www.reuters.com/article/eurozone-greece-tranche-idUSL8N13G0J520151121'
p713
sg4
S'20151122\xc2\xa011:40AM UTC'
p714
sg6
S'Euro zone agrees Greece can get next loan tranche, cash for bank recap'
p715
sa(dp716
g2
S'http://www.reuters.com/article/idUS386865556420151121'
p717
sg4
S'20151122\xc2\xa011:35AM UTC'
p718
sg6
S'Vatican to try five, including reporters, over leaks scandal'
p719
sa(dp720
g2
S'http://www.reuters.com/article/us-bangladesh-warcrimes-idUSKCN0TA0DJ20151121'
p721
sg4
S'20151122\xc2\xa011:34AM UTC'
p722
sg6
S'Bangladesh President rejects clemency appeal by opposition leaders'
p723
sa(dp724
g2
S'http://www.reuters.com/article/us-france-shooting-rights-idUSKCN0TA0OG20151121'
p725
sg4
S'20151122\xc2\xa011:28AM UTC'
p726
sg6
S'Few dissenting voices as France curbs rights after massacre'
p727
sa(dp728
g2
S'http://www.reuters.com/article/us-mali-attacks-israel-idUSKCN0TA0OE20151121'
p729
sg4
S'20151122\xc2\xa011:23AM UTC'
p730
sg6
S'Israeli national killed in Mali hotel attack: Israeli media'
p731
sa(dp732
g2
S'http://www.reuters.com/article/climatechange-summit-india-france-idUSKCN0TA0MV20151121'
p733
sg4
S'20151122\xc2\xa011:09AM UTC'
p734
sg6
S'India backs two degree global warming limit - French ministry source'
p735
sa(dp736
g2
S'http://www.reuters.com/article/us-climatechange-summit-india-france-idUSKCN0TA0NL20151121'
p737
sg4
S'20151122\xc2\xa011:09AM UTC'
p738
sg6
S'India backs 2 degree global warming limit - French ministry source'
p739
sa(dp740
g2
S'http://www.reuters.com/article/germany-music-eurovision-idUSL8N13G0G620151121'
p741
sg4
S'20151122\xc2\xa011:00AM UTC'
p742
sg6
S'Germany withdraws Eurovision contender after lyrics uproar'
p743
sa(dp744
g2
S'http://www.reuters.com/article/us-mideast-crisis-usa-airstrikes-idUSKCN0TA0N620151121'
p745
sg4
S'20151122\xc2\xa010:55AM UTC'
p746
sg6
S'U.S., allies launch 42 strikes against Islamic State in Iraq and Syria:  military'
p747
sa(dp748
g2
S'http://www.reuters.com/article/vatican-leaks-idUSL8N13G0HD20151121'
p749
sg4
S'20151122\xc2\xa010:39AM UTC'
p750
sg6
S'Vatican to try five, including reporters, over leaks scandal'
p751
sa(dp752
g2
S'http://www.reuters.com/article/us-kenya-politics-idUSKCN0TA0MN20151121'
p753
sg4
S'20151122\xc2\xa010:37AM UTC'
p754
sg6
S'Kenyan minister quits, decries unsubstantiated graft allegations'
p755
sa(dp756
g2
S'http://www.reuters.com/article/us-iran-gas-summit-zanganeh-idUSKCN0TA0DB20151121'
p757
sg4
S'20151122\xc2\xa010:35AM UTC'
p758
sg6
S'Iran oil minister says does not expect OPEC policy change at December 4 meet'
p759
sa(dp760
g2
S'http://www.reuters.com/article/us-iran-gas-summit-opec-idUSKCN0TA0BZ20151121'
p761
sg4
S'20151122\xc2\xa010:35AM UTC'
p762
sg6
S'Iran says does not need OPEC permission to increase oil production'
p763
sa(dp764
g2
S'http://www.reuters.com/article/france-shooting-belgium-idUSL8N13G03020151121'
p765
sg4
S'20151122\xc2\xa010:30AM UTC'
p766
sg6
S'UPDATE 6-Brussels put on maximum alert on risk of Paris-like attack'
p767
sa(dp768
g2
S'http://www.reuters.com/article/us-lebanon-arrests-idUSKCN0TA0MH20151121'
p769
sg4
S'20151122\xc2\xa010:24AM UTC'
p770
sg6
S'Lebanon arrests six Palestinians leaving to fight in Syria: source'
p771
sa(dp772
g2
S'http://www.reuters.com/article/volkswagen-emissions-vehicleregistration-idUSKCN0TA0MB20151121'
p773
sg4
S'20151122\xc2\xa010:15AM UTC'
p774
sg6
S'Volkswagen denies German report of sales slump on CO2 confession'
p775
sa(dp776
g2
S'http://www.reuters.com/article/us-volkswagen-emissions-vehicleregistrat-idUSKCN0TA0LV20151121'
p777
sg4
S'20151122\xc2\xa010:08AM UTC'
p778
sg6
S'Volkswagen denies German report of sales slump on CO2 confession'
p779
sa(dp780
g2
S'http://www.reuters.com/article/volkswagen-emissions-vehicleregistration-idUSL8N13G0GQ20151121'
p781
sg4
S'20151122\xc2\xa010:02AM UTC'
p782
sg6
S'Volkswagen denies German report of sales slump on CO2 confession'
p783
sa(dp784
g2
S'http://www.reuters.com/article/us-afghanistan-attack-idUSKCN0TA0LC20151121'
p785
sg4
S'20151122\xc2\xa09:51AM UTC'
p786
sg6
S'Afghan inquiry says poor leadership let Taliban seize Kunduz'
p787
sa(dp788
g2
S'http://www.reuters.com/article/france-shooting-turkey-arrest-idUSL8N13G06N20151121'
p789
sg4
S'20151122\xc2\xa09:47AM UTC'
p790
sg6
S'UPDATE 2-Turkish police arrest suspected Islamic State scout in Paris attacks'
p791
sa(dp792
g2
S'http://www.reuters.com/article/golf-european-idUSKCN0TA0KL20151121'
p793
sg4
S'20151122\xc2\xa09:42AM UTC'
p794
sg6
S'McIlroy moves within a stroke of Dubai lead'
p795
sa(dp796
g2
S'http://www.reuters.com/article/iran-gas-summit-zanganeh-idUSL8N13G0EY20151121'
p797
sg4
S'20151122\xc2\xa09:27AM UTC'
p798
sg6
S'UPDATE 1-Iran oil minister says does not expect OPEC policy change at Dec 4 meet'
p799
sa(dp800
g2
S'http://www.reuters.com/article/ny-ajc-aaa-boycott-idUSnPn5T3s2l+90+PRN20151121'
p801
sg4
S'20151122\xc2\xa09:27AM UTC'
p802
sg6
S'AJC Deplores American Anthropologists Boycott of Israel'
p803
sa(dp804
g2
S'http://www.reuters.com/article/us-iran-nuclear-arak-idUSKCN0TA0IK20151121'
p805
sg4
S'20151122\xc2\xa09:24AM UTC'
p806
sg6
S'World powers to help Iran redesign reactor as part of nuclear deal'
p807
sa(dp808
g2
S'http://www.reuters.com/article/us-iran-military-drones-idUSKCN0TA0GI20151121'
p809
sg4
S'20151122\xc2\xa09:24AM UTC'
p810
sg6
S'Drone crashes in Iran near Iraqi border: agencies'
p811
sa(dp812
g2
S'http://www.reuters.com/article/iran-military-drones-idUSL8N13G0FO20151121'
p813
sg4
S'20151122\xc2\xa09:23AM UTC'
p814
sg6
S'UPDATE 1-Drone crashes in Iran near Iraqi border - agencies'
p815
sa(dp816
g2
S'http://www.reuters.com/article/china-hi-tech-fair-idUSnBw215005a+100+BSW20151121'
p817
sg4
S'20151122\xc2\xa09:00AM UTC'
p818
sg6
S'China Hi-Tech Fair (CHTF): a Feast of Technology Innovation'
p819
sa(dp820
g2
S'http://www.reuters.com/article/us-soccer-fifa-ethics-idUSKCN0TA08120151121'
p821
sg4
S'20151122\xc2\xa08:54AM UTC'
p822
sg6
S'FIFA ethics report calls for sanctions against Blatter, Platini'
p823
sa(dp824
g2
S'http://www.reuters.com/article/mali-attacks-idUSKCN0T90SI20151121'
p825
sg4
S'20151122\xc2\xa08:38AM UTC'
p826
sg6
S'Putin says seeks global anti-terrorism fight after 19 killed in Mali attack'
p827
sa(dp828
g2
S'http://www.reuters.com/article/mali-attacks-idUSL8N13G0DD20151121'
p829
sg4
S'20151122\xc2\xa08:35AM UTC'
p830
sg6
S'WRAPUP 3-Putin says seeks global anti-terrorism fight after 19 killed in Mali attack'
p831
sa(dp832
g2
S'http://www.reuters.com/article/us-russia-energy-discount-idUSKCN0TA0J420151121'
p833
sg4
S'20151122\xc2\xa08:33AM UTC'
p834
sg6
S'Russia ready to fight for oil market share in Europe by offering discounts:  source'
p835
sa(dp836
g2
S'http://www.reuters.com/article/greece-piraeusbank-idUSL8N13G0EP20151121'
p837
sg4
S'20151122\xc2\xa08:21AM UTC'
p838
sg6
S'Piraeus bank prices share issue to cover capital hole'
p839
sa(dp840
g2
S'http://www.reuters.com/article/iran-nuclear-arak-idUSL8N13G0D820151121'
p841
sg4
S'20151122\xc2\xa08:08AM UTC'
p842
sg6
S'World powers to help Iran redesign reactor as part of nuclear deal'
p843
sa(dp844
g2
S'http://www.reuters.com/article/us-mideast-crisis-britain-un-idUSKCN0TA0B720151121'
p845
sg4
S'20151122\xc2\xa08:06AM UTC'
p846
sg6
S"Britain's Cameron sees U.N. resolution on Syria action as key moment"
p847
sa(dp848
g2
S'http://www.reuters.com/article/us-britain-politics-idUSKCN0TA0I320151121'
p849
sg4
S'20151122\xc2\xa08:06AM UTC'
p850
sg6
S'Main UK opposition party will consider Syria air strike proposals'
p851
sa(dp852
g2
S'http://www.reuters.com/article/us-mali-attacks-russia-airline-idUSKCN0TA0FZ20151121'
p853
sg4
S'20151122\xc2\xa08:03AM UTC'
p854
sg6
S'Six employees of Russian airline killed in Mali attack '
p855
sa(dp856
g2
S'http://www.reuters.com/article/idUSnMKWN8mPsa+1e4+MKW20151121'
p857
sg4
S'20151122\xc2\xa08:00AM UTC'
p858
sg6
S'RBC and Vivo Join Forces to Get More Kids and Families More Active, More Often'
p859
sa(dp860
g2
S'http://www.reuters.com/article/mali-attacks-idUSL3N13G03K20151121'
p861
sg4
S'20151122\xc2\xa07:55AM UTC'
p862
sg6
S'REFILE-WRAPUP 2-Putin says wants global anti-terrorism fight after 19 killed in Mali attack'
p863
sa(dp864
g2
S'http://www.reuters.com/article/mali-attacks-russia-airline-idUSKCN0TA0G820151121'
p865
sg4
S'20151122\xc2\xa07:31AM UTC'
p866
sg6
S'Six employees of Russian airline killed in Mali attack '
p867
sa(dp868
g2
S'http://www.reuters.com/article/asean-summit-idUSKCN0TA0H320151121'
p869
sg4
S'20151122\xc2\xa07:30AM UTC'
p870
sg6
S'Obama urges halt to artificial islands in S.China Sea'
p871
sa(dp872
g2
S'http://www.reuters.com/article/idUSnGNXb1z65+e0+GNW20151121'
p873
sg4
S'20151122\xc2\xa07:27AM UTC'
p874
sg6
S"Invitation to the Special Shareholders' Meeting of Galapagos on 22 December 2015"
p875
sa(dp876
g2
S'http://www.reuters.com/article/us-asean-summit-idUSKCN0TA05S20151121'
p877
sg4
S'20151122\xc2\xa07:25AM UTC'
p878
sg6
S'Obama urges halt to artificial islands in South China Sea'
p879
sa(dp880
g2
S'http://www.reuters.com/article/idUSnGNX9Ns6bm+1d0+GNW20151121'
p881
sg4
S'20151122\xc2\xa07:22AM UTC'
p882
sg6
S'Celebrating the LIMITLESS Potential of Special Olympics Athletes at LIMITLESS: The Special Olympics Canada Gala'
p883
sa(dp884
g2
S'http://www.reuters.com/article/mali-attacks-russia-airline-idUSL8N13G0CO20151121'
p885
sg4
S'20151122\xc2\xa07:22AM UTC'
p886
sg6
S'UPDATE 1-Six employees of Russian airline killed in Mali attack'
p887
sa(dp888
g2
S'http://www.reuters.com/article/us-obama-refugees-idUSKCN0TA09Q20151121'
p889
sg4
S'20151122\xc2\xa07:20AM UTC'
p890
sg6
S'Obama visits refugees in Malaysia to highlight global crisis'
p891
sa(dp892
g2
S'http://www.reuters.com/article/us-oklahoma-crash-idUSKCN0TA04Y20151121'
p893
sg4
S'20151122\xc2\xa07:19AM UTC'
p894
sg6
S'Oklahoma woman who plowed into homecoming crowd was not drunk: court papers'
p895
sa(dp896
g2
S'http://www.reuters.com/article/asean-summit-idUSL3N13G02L20151121'
p897
sg4
S'20151122\xc2\xa07:19AM UTC'
p898
sg6
S'UPDATE 2-Obama urges halt to artificial islands in S.China Sea'
p899
sa(dp900
g2
S'http://www.reuters.com/article/iran-military-drones-idUSL8N13G0CI20151121'
p901
sg4
S'20151122\xc2\xa07:10AM UTC'
p902
sg6
S'Foreign drone crashes in southern Iran'
p903
sa(dp904
g2
S'http://www.reuters.com/article/us-mideast-crisis-russia-britain-idUSKCN0TA0E320151121'
p905
sg4
S'20151122\xc2\xa07:00AM UTC'
p906
sg6
S'Britain should cooperate with Russia over Syria strikes: Moscow'
p907
sa(dp908
g2
S'http://www.reuters.com/article/va-geico-idUSnBw215001a+100+BSW20151121'
p909
sg4
S'20151122\xc2\xa07:00AM UTC'
p910
sg6
S'GEICO names Nancy Pierce senior vice president'
p911
sa(dp912
g2
S'http://www.reuters.com/article/malaysia-indonesia-palmoil-idUSL3N13G06520151121'
p913
sg4
S'20151122\xc2\xa06:56AM UTC'
p914
sg6
S"UPDATE 1-Malaysia, Indonesia to spend $5 mln each on joint palm council's initial ops"
p915
sa(dp916
g2
S'http://www.reuters.com/article/france-shooting-moscovici-idUSL8N13G05G20151121'
p917
sg4
S'20151122\xc2\xa06:56AM UTC'
p918
sg6
S'EU economics commissioner says Paris attacks will not derail recovery'
p919
sa(dp920
g2
S'http://www.reuters.com/article/mali-attacks-russia-airline-idUSL8N13G0C520151121'
p921
sg4
S'20151122\xc2\xa06:53AM UTC'
p922
sg6
S'Six employees of Russian airline killed in Mali attack - Interfax'
p923
sa(dp924
g2
S'http://www.reuters.com/article/us-mali-attacks-china-xi-idUSKCN0TA07P20151121'
p925
sg4
S'20151122\xc2\xa06:41AM UTC'
p926
sg6
S'China condemns Mali attack with three Chinese among the dead'
p927
sa(dp928
g2
S'http://www.reuters.com/article/bangladesh-warcrimes-idUSKCN0TA0DL20151121'
p929
sg4
S'20151122\xc2\xa06:41AM UTC'
p930
sg6
S'ADVISORY: Bangladesh war crimes story withdrawn'
p931
sa(dp932
g2
S'http://www.reuters.com/article/idUSnGNX6pM0t8+1c8+GNW20151121'
p933
sg4
S'20151122\xc2\xa06:35AM UTC'
p934
sg6
S'Shaikh Holdings Award-Winning development Sanctuary Falls Welcomes First Residents'
p935
sa(dp936
g2
S'http://www.reuters.com/article/us-asean-summit-usa-southchinasea-idUSKCN0TA0F820151121'
p937
sg4
S'20151122\xc2\xa06:34AM UTC'
p938
sg6
S'Obama says South China Sea claimants should avoid militarising issue'
p939
sa(dp940
g2
S'http://www.reuters.com/article/asean-summit-usa-southchinasea-idUSL3N13G06D20151121'
p941
sg4
S'20151122\xc2\xa06:30AM UTC'
p942
sg6
S'Obama says S. China Sea claimants should avoid militarising issue'
p943
sa(dp944
g2
S'http://www.reuters.com/article/us-iran-gas-summit-contracts-idUSKCN0TA0EG20151121'
p945
sg4
S'20151122\xc2\xa06:22AM UTC'
p946
sg6
S"Iran's new oil and gas contracts terms flexible on oil price, risk - official"
p947
sa(dp948
g2
S'http://www.reuters.com/article/mali-attacks-china-idUSL3N13G04E20151121'
p949
sg4
S'20151122\xc2\xa06:18AM UTC'
p950
sg6
S'UPDATE 2-China condemns Mali attack with three Chinese among the dead'
p951
sa(dp952
g2
S'http://www.reuters.com/article/us-france-shooting-belgium-search-idUSKCN0TA0E720151121'
p953
sg4
S'20151122\xc2\xa06:18AM UTC'
p954
sg6
S'Weapons found at home of Paris attacks suspect: prosecutors'
p955
sa(dp956
g2
S'http://www.reuters.com/article/us-asean-summit-mh-idUSKCN0TA0DH20151121'
p957
sg4
S'20151122\xc2\xa06:06AM UTC'
p958
sg6
S'China to contribute A$20 million to MH370 search -government'
p959
sa(dp960
g2
S'http://www.reuters.com/article/asean-summit-mh-idUSL3N13G06320151121'
p961
sg4
S'20151122\xc2\xa06:02AM UTC'
p962
sg6
S'China to contribute A$20 million to MH370 search -government'
p963
sa(dp964
g2
S'http://www.reuters.com/article/fbc-baylor-oklahomastate-preview-idUSMTZEBBL5YRLCQ20151121'
p965
sg4
S'20151122\xc2\xa06:02AM UTC'
p966
sg6
S'Preview: Baylor at Oklahoma State'
p967
sa(dp968
g2
S'http://www.reuters.com/article/fbc-purdue-iowa-preview-idUSMTZEBBL5YRLCP20151121'
p969
sg4
S'20151122\xc2\xa06:02AM UTC'
p970
sg6
S'Preview: Purdue at Iowa'
p971
sa(dp972
g2
S'http://www.reuters.com/article/fbc-syracuse-northcarolinastate-preview-idUSMTZEBBL5YRLCO20151121'
p973
sg4
S'20151122\xc2\xa06:02AM UTC'
p974
sg6
S'Preview: Syracuse at North Carolina State'
p975
sa(dp976
g2
S'http://www.reuters.com/article/fbc-georgiatech-miami-preview-idUSMTZEBBL5YRKCN20151121'
p977
sg4
S'20151122\xc2\xa06:02AM UTC'
p978
sg6
S'Preview: Georgia Tech at Miami (Fla.)'
p979
sa(dp980
g2
S'http://www.reuters.com/article/bkc-centralarkansas-rutgers-preview-idUSMTZEBBL5YRKCM20151121'
p981
sg4
S'20151122\xc2\xa06:02AM UTC'
p982
sg6
S'Preview: Central Arkansas at Rutgers'
p983
sa(dp984
g2
S'http://www.reuters.com/article/hkn-flyers-senators-preview-idUSMTZEBBL5YRKCK20151121'
p985
sg4
S'20151122\xc2\xa06:02AM UTC'
p986
sg6
S'Preview: Flyers at Senators'
p987
sa(dp988
g2
S'http://www.reuters.com/article/fbc-ucla-utah-preview-idUSMTZEBBL5YRKCJ20151121'
p989
sg4
S'20151122\xc2\xa06:02AM UTC'
p990
sg6
S'Preview: UCLA at Utah'
p991
sa(dp992
g2
S'http://www.reuters.com/article/bkn-hawks-cavaliers-preview-idUSMTZEBBL5YRKCI20151121'
p993
sg4
S'20151122\xc2\xa06:02AM UTC'
p994
sg6
S'Preview: Hawks at Cavaliers'
p995
sa(dp996
g2
S'http://www.reuters.com/article/fbc-idaho-auburn-preview-idUSMTZEBBL5YRKCG20151121'
p997
sg4
S'20151122\xc2\xa06:02AM UTC'
p998
sg6
S'Preview: Idaho at Auburn'
p999
sa(dp1000
g2
S'http://www.reuters.com/article/bkn-kings-magic-preview-idUSMTZEBBL5YRKCE20151121'
p1001
sg4
S'20151122\xc2\xa06:02AM UTC'
p1002
sg6
S'Preview: Kings at Magic'
p1003
sa(dp1004
g2
S'http://www.reuters.com/article/bkc-vmi-virginiatech-preview-idUSMTZEBBL5YRJCD20151121'
p1005
sg4
S'20151122\xc2\xa06:02AM UTC'
p1006
sg6
S'Preview: VMI at Virginia Tech'
p1007
sa(dp1008
g2
S'http://www.reuters.com/article/fbc-washington-oregonstate-preview-idUSMTZEBBL5YRJCC20151121'
p1009
sg4
S'20151122\xc2\xa06:02AM UTC'
p1010
sg6
S'Preview: Washington at Oregon State'
p1011
sa(dp1012
g2
S'http://www.reuters.com/article/fbc-tennessee-missouri-preview-idUSMTZEBBL5YRJCB20151121'
p1013
sg4
S'20151122\xc2\xa06:02AM UTC'
p1014
sg6
S'Preview: Tennessee at Missouri'
p1015
sa(dp1016
g2
S'http://www.reuters.com/article/fbc-wakeforest-clemson-preview-idUSMTZEBBL5YRJCA20151121'
p1017
sg4
S'20151122\xc2\xa06:02AM UTC'
p1018
sg6
S'Preview: Wake Forest at Clemson'
p1019
sa(dp1020
g2
S'http://www.reuters.com/article/fbc-louisville-pittsburgh-preview-idUSMTZEBBL5YRJC920151121'
p1021
sg4
S'20151122\xc2\xa06:02AM UTC'
p1022
sg6
S'Preview: Louisville at Pittsburgh'
p1023
sa(dp1024
g2
S'http://www.reuters.com/article/fbc-indiana-maryland-preview-idUSMTZEBBL5YRJC820151121'
p1025
sg4
S'20151122\xc2\xa06:02AM UTC'
p1026
sg6
S'Preview: Indiana at Maryland'
p1027
sa(dp1028
g2
S'http://www.reuters.com/article/fbc-charlestonsouthern-alabama-preview-idUSMTZEBBL5YRJC720151121'
p1029
sg4
S'20151122\xc2\xa06:02AM UTC'
p1030
sg6
S'Preview: Charleston Southern at Alabama'
p1031
sa(dp1032
g2
S'http://www.reuters.com/article/fbc-california-stanford-preview-idUSMTZEBBL5YRJC520151121'
p1033
sg4
S'20151122\xc2\xa06:02AM UTC'
p1034
sg6
S'Preview: California at Stanford'
p1035
sa(dp1036
g2
S'http://www.reuters.com/article/fbc-floridaatlantic-florida-preview-idUSMTZEBBL5YRIC120151121'
p1037
sg4
S'20151122\xc2\xa06:02AM UTC'
p1038
sg6
S'Preview: Florida Atlantic at Florida'
p1039
sa(dp1040
g2
S'http://www.reuters.com/article/fbc-michigan-pennstate-preview-idUSMTZEBBL5YRIC020151121'
p1041
sg4
S'20151122\xc2\xa06:02AM UTC'
p1042
sg6
S'Preview: Michigan at Penn State'
p1043
sa(dp1044
g2
S'http://www.reuters.com/article/hkn-ducks-lightning-preview-idUSMTZEBBL5YRIBZ20151121'
p1045
sg4
S'20151122\xc2\xa06:02AM UTC'
p1046
sg6
S'Preview: Ducks at Lightning'
p1047
sa(dp1048
g2
S'http://www.reuters.com/article/fbc-georgiasouthern-georgia-preview-idUSMTZEBBL5YRIBY20151121'
p1049
sg4
S'20151122\xc2\xa06:02AM UTC'
p1050
sg6
S'Preview: Georgia Southern at Georgia'
p1051
sa(dp1052
g2
S'http://www.reuters.com/article/fbc-navy-tulsa-preview-idUSMTZEBBL5YRIBX20151121'
p1053
sg4
S'20151122\xc2\xa06:02AM UTC'
p1054
sg6
S'Preview: Navy at Tulsa'
p1055
sa(dp1056
g2
S'http://www.reuters.com/article/fbc-northwestern-wisconsin-preview-idUSMTZEBBL5YRIBW20151121'
p1057
sg4
S'20151122\xc2\xa06:02AM UTC'
p1058
sg6
S'Preview: Northwestern at Wisconsin'
p1059
sa(dp1060
g2
S'http://www.reuters.com/article/fbc-mississippistate-arkansas-preview-idUSMTZEBBL5YRIC320151121'
p1061
sg4
S'20151122\xc2\xa06:02AM UTC'
p1062
sg6
S'Preview: Mississippi State at Arkansas'
p1063
sa(dp1064
g2
S'http://www.reuters.com/article/bkn-bucks-pacers-preview-idUSMTZEBBL5YRIC220151121'
p1065
sg4
S'20151122\xc2\xa06:02AM UTC'
p1066
sg6
S'Preview: Bucks at Pacers'
p1067
sa(dp1068
g2
S'http://www.reuters.com/article/fbc-rutgers-army-preview-idUSMTZEBBL5YRHBU20151121'
p1069
sg4
S'20151122\xc2\xa06:02AM UTC'
p1070
sg6
S'Preview: Rutgers at Army'
p1071
sa(dp1072
g2
S'http://www.reuters.com/article/fbc-southerncalifornia-oregon-preview-idUSMTZEBBL5YRHBT20151121'
p1073
sg4
S'20151122\xc2\xa06:02AM UTC'
p1074
sg6
S'Preview: USC at Oregon'
p1075
sa(dp1076
g2
S'http://www.reuters.com/article/hkn-sabres-stars-preview-idUSMTZEBBL5YRHBR20151121'
p1077
sg4
S'20151122\xc2\xa06:02AM UTC'
p1078
sg6
S'Preview: Sabres at Stars'
p1079
sa(dp1080
g2
S'http://www.reuters.com/article/bkc-pennsylvania-washington-preview-idUSMTZEBBL5YRHBO20151121'
p1081
sg4
S'20151122\xc2\xa06:02AM UTC'
p1082
sg6
S'Preview: Pennsylvania at Washington'
p1083
sa(dp1084
g2
S'http://www.reuters.com/article/fbc-westvirginia-kansas-preview-idUSMTZEBBL5YRGBJ20151121'
p1085
sg4
S'20151122\xc2\xa06:02AM UTC'
p1086
sg6
S'Preview: West Virginia at Kansas'
p1087
sa(dp1088
g2
S'http://www.reuters.com/article/fbc-iowastate-kansasstate-preview-idUSMTZEBBL5YRGBG20151121'
p1089
sg4
S'20151122\xc2\xa06:02AM UTC'
p1090
sg6
S'Preview: Iowa State at Kansas State'
p1091
sa(dp1092
g2
S'http://www.reuters.com/article/fbc-colorado-washingtonstate-preview-idUSMTZEBBL5YRGBF20151121'
p1093
sg4
S'20151122\xc2\xa06:02AM UTC'
p1094
sg6
S'Preview: Colorado at Washington State'
p1095
sa(dp1096
g2
S'http://www.reuters.com/article/bkc-brown-providence-preview-idUSMTZEBBL5YRGBE20151121'
p1097
sg4
S'20151122\xc2\xa06:02AM UTC'
p1098
sg6
S'Preview: Brown at Providence'
p1099
sa(dp1100
g2
S'http://www.reuters.com/article/fbc-memphis-temple-preview-idUSMTZEBBL5YRGBC20151121'
p1101
sg4
S'20151122\xc2\xa06:02AM UTC'
p1102
sg6
S'Preview: Memphis at Temple'
p1103
sa(dp1104
g2
S'http://www.reuters.com/article/hkn-coyotes-jets-preview-idUSMTZEBBL5YRGBK20151121'
p1105
sg4
S'20151122\xc2\xa06:02AM UTC'
p1106
sg6
S'Preview: Coyotes at Jets'
p1107
sa(dp1108
g2
S'http://www.reuters.com/article/bkc-northflorida-louisville-preview-idUSMTZEBBL5YRFBB20151121'
p1109
sg4
S'20151122\xc2\xa06:02AM UTC'
p1110
sg6
S'Preview: North Florida at Louisville'
p1111
sa(dp1112
g2
S'http://www.reuters.com/article/idUSnMKWL9Z7Ka+1ea+MKW20151121'
p1113
sg4
S'20151122\xc2\xa06:00AM UTC'
p1114
sg6
S'Media Advisory: Health Care Advocates from Across Ontario Convene to Combat Health Cuts and Privatization'
p1115
sa(dp1116
g2
S'http://www.reuters.com/article/idUSnGNXfSPb0+ec+GNW20151121'
p1117
sg4
S'20151122\xc2\xa06:00AM UTC'
p1118
sg6
S'Upcoming Deadline Alert: Brower Piven Encourages Investors Who Have Losses in Excess of $100,000 From Investment in Sientra, Inc. to Contact Brower Piven Before the Lead Plaintiff Deadline in Class Action Lawsuit \xe2\x80\x93 SIEN'
p1119
sa(dp1120
g2
S'http://www.reuters.com/article/idUSnGNX9N9vxj+1d0+GNW20151121'
p1121
sg4
S'20151122\xc2\xa06:00AM UTC'
p1122
sg6
S'UPCOMING DEADLINE ALERT: Brower Piven Encourages Investors Who Have Losses in Excess of $100,000 From Investment in LSB Industries, Inc. to Contact Brower Piven Before the Lead Plaintiff Deadline in Class Action Lawsuit \xe2\x80\x93'
p1123
sa(dp1124
g2
S'http://www.reuters.com/article/idUSnGNX1jfy43+1c0+GNW20151121'
p1125
sg4
S'20151122\xc2\xa06:00AM UTC'
p1126
sg6
S'Upcoming Deadline Alert: Brower Piven Encourages Investors Who Have Losses in Excess of $100,000 From Investment in Qlogic Corp. to Contact Brower Piven for Additional Information \xe2\x80\x93 QLGC'
p1127
sa(dp1128
g2
S'http://www.reuters.com/article/iran-gas-summit-zanganeh-idUSL8N13G0AA20151121'
p1129
sg4
S'20151122\xc2\xa05:58AM UTC'
p1130
sg6
S'Iran oil minister says does not expect OPEC policy change at Dec 4 meet'
p1131
sa(dp1132
g2
S'http://www.reuters.com/article/safrica-drought-idUSL1N13G09L20151121'
p1133
sg4
S'20151122\xc2\xa05:56AM UTC'
p1134
sg6
S'South Africa considers more aid for farmers as drought bites'
p1135
sa(dp1136
g2
S'http://www.reuters.com/article/malaysia-indonesia-palmoil-idUSL3N13G04820151121'
p1137
sg4
S'20151122\xc2\xa05:49AM UTC'
p1138
sg6
S"Malaysia, Indonesia to spend $5 mln each on joint palm council's initial operations"
p1139
sa(dp1140
g2
S'http://www.reuters.com/article/idUSL3N13G05420151121'
p1141
sg4
S'20151122\xc2\xa05:36AM UTC'
p1142
sg6
S"ADB, Japan plan $16 bln program to support 'sustainable' Asia infrastructure"
p1143
sa(dp1144
g2
S'http://www.reuters.com/article/us-turkey-kurds-airstrikes-idUSKCN0TA0CE20151121'
p1145
sg4
S'20151122\xc2\xa05:33AM UTC'
p1146
sg6
S'Turkey launches air strikes on PKK in Iraq and southeast Turkey'
p1147
sa(dp1148
g2
S'http://www.reuters.com/article/us-siemens-charges-idUSKCN0TA0BR20151121'
p1149
sg4
S'20151122\xc2\xa05:22AM UTC'
p1150
sg6
S'Siemens gains control of costly project risks: CFO in paper'
p1151
sa(dp1152
g2
S'http://www.reuters.com/article/iran-gas-summit-opec-idUSL8N13G08Z20151121'
p1153
sg4
S'20151122\xc2\xa05:20AM UTC'
p1154
sg6
S'Iran says does not need OPEC permission to increase oil production'
p1155
sa(dp1156
g2
S'http://www.reuters.com/article/us-france-shooting-belgium-primeminister-idUSKCN0TA0BH20151121'
p1157
sg4
S'20151122\xc2\xa05:16AM UTC'
p1158
sg6
S'Belgium to review security status Sunday afternoon: Belgian PM '
p1159
sa(dp1160
g2
S'http://www.reuters.com/article/oman-debt-ratings-idUSL8N13G08K20151121'
p1161
sg4
S'20151122\xc2\xa05:11AM UTC'
p1162
sg6
S'S&P; cuts Oman credit rating as budget deficit widens'
p1163
sa(dp1164
g2
S'http://www.reuters.com/article/siemens-charges-idUSL8N13G08I20151121'
p1165
sg4
S'20151122\xc2\xa05:09AM UTC'
p1166
sg6
S'Siemens gains control of costly project risks - CFO in paper'
p1167
sa(dp1168
g2
S'http://www.reuters.com/article/us-bosnia-blast-idUSKCN0TA0AQ20151121'
p1169
sg4
S'20151122\xc2\xa05:07AM UTC'
p1170
sg6
S"Explosive device goes off near Bosnian army chief's car, no one hurt"
p1171
sa(dp1172
g2
S'http://www.reuters.com/article/hungary-banks-tax-idUSL8N13G08620151121'
p1173
sg4
S'20151122\xc2\xa05:05AM UTC'
p1174
sg6
S'Hungary will tweak bank tax legislation-economy minister'
p1175
sa(dp1176
g2
S'http://www.reuters.com/article/us-newzealand-helicopter-crash-idUSKCN0TA02O20151121'
p1177
sg4
S'20151122\xc2\xa05:03AM UTC'
p1178
sg6
S'Helicopter crashes at New Zealand glacier, killing all seven on board'
p1179
sa(dp1180
g2
S'http://www.reuters.com/article/us-france-shooting-azhar-idUSKCN0TA0AF20151121'
p1181
sg4
S'20151122\xc2\xa04:55AM UTC'
p1182
sg6
S"Egypt's top Muslim cleric says terrorism uses religion as front"
p1183
sa(dp1184
g2
S'http://www.reuters.com/article/gas-forum-russia-idUSR4N13B02F20151121'
p1185
sg4
S'20151122\xc2\xa04:25AM UTC'
p1186
sg6
S"Russian energy minister says gas exporters' forum supports long-term contracts - RIA"
p1187
sa(dp1188
g2
S'http://www.reuters.com/article/kingfisher-airl-assets-auction-idUSKCN0TA09C20151121'
p1189
sg4
S'20151122\xc2\xa04:11AM UTC'
p1190
sg6
S'Lenders to grounded Kingfisher Air to auction some assets'
p1191
sa(dp1192
g2
S'http://www.reuters.com/article/kingfisher-airl-assets-auction-idUSL3N13G05B20151121'
p1193
sg4
S'20151122\xc2\xa04:08AM UTC'
p1194
sg6
S"RPT-Lenders to India's grounded Kingfisher Air to auction some assets"
p1195
sa(dp1196
g2
S'http://www.reuters.com/article/kingfisher-airl-assets-auction-idUSL3N13G04V20151121'
p1197
sg4
S'20151122\xc2\xa04:01AM UTC'
p1198
sg6
S"Lenders to India's grounded Kingfisher Air to auction some assets"
p1199
sa(dp1200
g2
S'http://www.reuters.com/article/us-nba-warriors-idUSKCN0TA09620151121'
p1201
sg4
S'20151122\xc2\xa03:46AM UTC'
p1202
sg6
S'Warriors eye record after beating Bulls to stay perfect'
p1203
sa(dp1204
g2
S'http://www.reuters.com/article/us-golf-usa-dechambeau-idUSKCN0TA08Y20151121'
p1205
sg4
S'20151122\xc2\xa03:38AM UTC'
p1206
sg6
S'U.S. amateur champion DeChambeau on a higher plane'
p1207
sa(dp1208
g2
S'http://www.reuters.com/article/ca-warner-bros-pictures-idUSnBw215010a+100+BSW20151121'
p1209
sg4
S'20151122\xc2\xa03:20AM UTC'
p1210
sg6
S'Production Begins on Warner Bros. Pictures\xe2\x80\x99 Wonder Woman Feature Film'
p1211
sa(dp1212
g2
S'http://www.reuters.com/article/mali-attacks-russia-idUSL8N13G06220151121'
p1213
sg4
S'20151122\xc2\xa03:06AM UTC'
p1214
sg6
S'Russia says its citizens killed in Mali hotel attack-RIA'
p1215
sa(dp1216
g2
S'http://www.reuters.com/article/idUS228411288720151121'
p1217
sg4
S'20151122\xc2\xa02:46AM UTC'
p1218
sg6
S'In Iowa, candidates get personal'
p1219
sa(dp1220
g2
S'http://www.reuters.com/article/bkn-cavaliers-playerwatch-idUSMTZEBBL5P226820151121'
p1221
sg4
S'20151122\xc2\xa02:32AM UTC'
p1222
sg6
S'Cleveland Cavaliers - PlayerWatch'
p1223
sa(dp1224
g2
S'http://www.reuters.com/article/india-economy-tax-idUSKCN0TA07J20151121'
p1225
sg4
S'20151122\xc2\xa02:06AM UTC'
p1226
sg6
S'India unveils road map for phasing out corporate tax exemptions'
p1227
sa(dp1228
g2
S'http://www.reuters.com/article/hkn-wild-playerwatch-idUSMTZEBBL5NJS6020151121'
p1229
sg4
S'20151122\xc2\xa01:59AM UTC'
p1230
sg6
S'Minnesota Wild - PlayerWatch'
p1231
sa(dp1232
g2
S'http://www.reuters.com/article/france-shooting-turkey-arrest-idUSL8N13G04Y20151121'
p1233
sg4
S'20151122\xc2\xa01:41AM UTC'
p1234
sg6
S'Turkish police detain suspected Islamic State scout in Paris attacks -report'
p1235
sa(dp1236
g2
S'http://www.reuters.com/article/bkn-bulls-warriors-writethru-idUSMTZEBBL5M4L5920151121'
p1237
sg4
S'20151122\xc2\xa01:39AM UTC'
p1238
sg6
S'Warriors keep on winning, top Bulls'
p1239
sa(dp1240
g2
S'http://www.reuters.com/article/fbn-falcons-playerwatch-idUSMTZEBBL5MCP5G20151121'
p1241
sg4
S'20151122\xc2\xa01:34AM UTC'
p1242
sg6
S'Atlanta Falcons - PlayerWatch'
p1243
sa(dp1244
g2
S'http://www.reuters.com/article/fbn-lions-playerwatch-idUSMTZEBBL5MCP5B20151121'
p1245
sg4
S'20151122\xc2\xa01:34AM UTC'
p1246
sg6
S'Detroit Lions - PlayerWatch'
p1247
sa(dp1248
g2
S'http://www.reuters.com/article/bkn-raptors-lakers-writethru-idUSMTZEBBL5LN15820151121'
p1249
sg4
S'20151122\xc2\xa01:28AM UTC'
p1250
sg6
S'Raptors hand lowly Lakers another loss'
p1251
sa(dp1252
g2
S'http://www.reuters.com/article/us-new-york-stabbing-idUSKCN0TA07520151121'
p1253
sg4
S'20151122\xc2\xa01:06AM UTC'
p1254
sg6
S'Woman fatally stabbed in New York, baby born at the scene'
p1255
sa(dp1256
g2
S'http://www.reuters.com/article/ny-north-shore-animal-idUSnPn9MM3tk+98+PRN20151121'
p1257
sg4
S'20151122\xc2\xa01:00AM UTC'
p1258
sg6
S'North Shore Animal League America Celebrates Over 70 Years Of Saving Lives And The Launch Of Get Your Rescue On\xe2\x84\xa2 Campaign'
p1259
sa(dp1260
g2
S'http://www.reuters.com/article/bkn-clippers-blazers-writethru-idUSMTZEBBL5KBH5720151121'
p1261
sg4
S'20151122\xc2\xa01:00AM UTC'
p1262
sg6
S'Lillard leads Blazers past Clippers'
p1263
sa(dp1264
g2
S'http://www.reuters.com/article/autos-uaw-idUSL1N13G06820151121'
p1265
sg4
S'20151122\xc2\xa012:48AM UTC'
p1266
sg6
S'UPDATE 2-Ford union workers ratify new four-year U.S. labor pact - UAW'
p1267
sa(dp1268
g2
S'http://www.reuters.com/article/fortress-invest-japan-idUSL3N13F1V220151121'
p1269
sg4
S'20151122\xc2\xa012:37AM UTC'
p1270
sg6
S'REFILE-U.S. asset manager Fortress eyes higher exposure to Japan hotels'
p1271
sa(dp1272
g2
S'http://www.reuters.com/article/bkc-eastcarolina-california-writethru-idUSMTZEBBL5J1L3020151121'
p1273
sg4
S'20151122\xc2\xa012:32AM UTC'
p1274
sg6
S'No. 14 California 70, East Carolina 62'
p1275
sa(dp1276
g2
S'http://www.reuters.com/article/facebook-ceo-paternityleave-idUSKCN0T931D20151121'
p1277
sg4
S'20151122\xc2\xa012:31AM UTC'
p1278
sg6
S'Facebook CEO Zuckerberg to take two months of paternity leave'
p1279
sa(dp1280
g2
S'http://www.reuters.com/article/us-fortress-invest-japan-idUSKCN0T918S20151121'
p1281
sg4
S'20151122\xc2\xa012:29AM UTC'
p1282
sg6
S'U.S. asset manager Fortress eyes higher exposure to Japan hotels'
p1283
sa(dp1284
g2
S'http://www.reuters.com/article/fortress-invest-japan-idUS3N13F1V220151121'
p1285
sg4
S'20151122\xc2\xa012:24AM UTC'
p1286
sg6
S'REFILE-RPT-U.S. asset manager Fortress eyes higher exposure to Japan hotels'
p1287
sa(dp1288
g2
S'http://www.reuters.com/article/bkn-suns-nuggets-writethru-idUSMTZEBBL5ILE2W20151121'
p1289
sg4
S'20151122\xc2\xa012:22AM UTC'
p1290
sg6
S'Knight helps Suns burn Nuggets'
p1291
sa(dp1292
g2
S'http://www.reuters.com/article/us-minnesota-shooting-idUSKCN0T92FT20151121'
p1293
sg4
S'20151122\xc2\xa012:20AM UTC'
p1294
sg6
S'Protesters against Minneapolis police shooting ousted from city council meeting'
p1295
sa(dp1296
g2
S'http://www.reuters.com/article/us-mali-attacks-usa-recovered-idUSKCN0T91X220151121'
p1297
sg4
S'20151122\xc2\xa012:19AM UTC'
p1298
sg6
S'One American killed in attack on hotel in Mali: State Department'
p1299
sa(dp1300
g2
S'http://www.reuters.com/article/mali-attacks-china-idUSL3N13G03I20151121'
p1301
sg4
S'20151122\xc2\xa012:12AM UTC'
p1302
sg6
S'Three Chinese executives among dead as China condemns "savage" Mali attack'
p1303
sa(dp1304
g2
S'http://www.reuters.com/article/bkc-savannahstate-oregon-writethru-idUSMTZEBBL5HZD2G20151121'
p1305
sg4
S'20151122\xc2\xa012:09AM UTC'
p1306
sg6
S'No. 25 Oregon 77, Savannah State 59'
p1307
sa(dp1308
g2
S'http://www.reuters.com/article/us-nba-thunder-idUSKCN0TA06N20151121'
p1309
sg4
S'20151122\xc2\xa012:03AM UTC'
p1310
sg6
S'Knicks make key stop to quiet Thunder'
p1311
sa(dp1312
g2
S'http://www.reuters.com/article/asean-summit-idUSKCN0TA05U20151121'
p1313
sg4
S'20151122\xc2\xa012:02AM UTC'
p1314
sg6
S'Malaysian PM urges world leaders to confront Islamist extremists'
p1315
sa(dp1316
g2
S'http://www.reuters.com/article/census-daily-feature-idUSnPnbNJyG4+9a+PRN20151121'
p1317
sg4
S'20151122\xc2\xa012:01AM UTC'
p1318
sg6
S'U.S. Census Bureau Daily Feature for November 21: Direct Dialing'
p1319
sa(dp1320
g2
S'http://www.reuters.com/news/video/videoStory?storyID=113719692'
p1321
sg4
S'20151122\xc2\xa09:03PM UTC'
p1322
sg6
S'Closed for business in Brussels'
p1323
sa(dp1324
g2
S'http://www.reuters.com/news/video/videoStory?storyID=113718395'
p1325
sg4
S'20151122\xc2\xa07:15PM UTC'
p1326
sg6
S'Riot stops Athens soccer derby before it starts'
p1327
sa(dp1328
g2
S'http://www.reuters.com/news/video/videoStory?storyID=113718237'
p1329
sg4
S'20151122\xc2\xa06:47PM UTC'
p1330
sg6
S'Cries for help at the Macedonian border'
p1331
sa(dp1332
g2
S'http://www.reuters.com/news/video/videoStory?storyID=113718042'
p1333
sg4
S'20151122\xc2\xa06:22PM UTC'
p1334
sg6
S'Argentina readies for Sunday presidential run-off vote'
p1335
sa(dp1336
g2
S'http://www.reuters.com/news/video/videoStory?storyID=113717781'
p1337
sg4
S'20151122\xc2\xa05:50PM UTC'
p1338
sg6
S'Clinton speaks out against call to register Muslims'
p1339
sa(dp1340
g2
S'http://www.reuters.com/news/video/videoStory?storyID=113717641'
p1341
sg4
S'20151122\xc2\xa05:35PM UTC'
p1342
sg6
S'Early season snowstorm coats Midwestern U.S., affects travel'
p1343
sa(dp1344
g2
S'http://www.reuters.com/news/video/videoStory?storyID=113717509'
p1345
sg4
S'20151122\xc2\xa05:08PM UTC'
p1346
sg6
S'Four wounded in stabbing attack in Israel'
p1347
sa(dp1348
g2
S'http://www.reuters.com/news/video/videoStory?storyID=113716998'
p1349
sg4
S'20151122\xc2\xa04:08PM UTC'
p1350
sg6
S'Mastering self-defense with selfie sticks'
p1351
sa(dp1352
g2
S'http://www.reuters.com/news/video/videoStory?storyID=113716755'
p1353
sg4
S'20151122\xc2\xa03:32PM UTC'
p1354
sg6
S'Turkish police detain suspected IS scout in Paris attacks'
p1355
sa(dp1356
g2
S'http://www.reuters.com/news/video/videoStory?storyID=113716536'
p1357
sg4
S'20151122\xc2\xa02:53PM UTC'
p1358
sg6
S'Life goes on in Paris, but fear and shock linger'
p1359
sa(dp1360
g2
S'http://www.reuters.com/news/video/videoStory?storyID=113716271'
p1361
sg4
S'20151122\xc2\xa02:45PM UTC'
p1362
sg6
S'Mourning in Israel for killed American teenager'
p1363
sa(dp1364
g2
S'http://www.reuters.com/news/video/videoStory?storyID=113716276'
p1365
sg4
S'20151122\xc2\xa02:38PM UTC'
p1366
sg6
S'Protesters demand videos of fatal police shooting'
p1367
sa(dp1368
g2
S'http://www.reuters.com/news/video/videoStory?storyID=113715878'
p1369
sg4
S'20151122\xc2\xa01:54PM UTC'
p1370
sg6
S'Trump: "If I win, they are going back"'
p1371
sa(dp1372
g2
S'http://www.reuters.com/news/video/videoStory?storyID=113715708'
p1373
sg4
S'20151122\xc2\xa01:05PM UTC'
p1374
sg6
S'Benjamin Clementine wins Mercury Prize'
p1375
sa(dp1376
g2
S'http://www.reuters.com/news/video/videoStory?storyID=113715528'
p1377
sg4
S'20151122\xc2\xa012:47PM UTC'
p1378
sg6
S'President Keita: "Mali will not shut down"'
p1379
sa(dp1380
g2
S'http://www.reuters.com/news/video/videoStory?storyID=113715220'
p1381
sg4
S'20151122\xc2\xa012:15PM UTC'
p1382
sg6
S'Israeli forces shut down West Bank radio station'
p1383
sa(dp1384
g2
S'http://www.reuters.com/news/video/videoStory?storyID=113714581'
p1385
sg4
S'20151122\xc2\xa010:40AM UTC'
p1386
sg6
S'Protesters disrupt Republican campaign event in Iowa'
p1387
sa(dp1388
g2
S'http://www.reuters.com/news/video/videoStory?storyID=113714137'
p1389
sg4
S'20151122\xc2\xa010:01AM UTC'
p1390
sg6
S'Brussels put on maximum alert on risk of Paris-like attack'
p1391
sa(dp1392
g2
S'http://www.reuters.com/news/video/videoStory?storyID=113713975'
p1393
sg4
S'20151122\xc2\xa08:29AM UTC'
p1394
sg6
S"Biden says US will not 'betray our ideals' after IS attacks"
p1395
sa(dp1396
g2
S'http://www.reuters.com/news/video/videoStory?storyID=113713121'
p1397
sg4
S'20151122\xc2\xa07:56AM UTC'
p1398
sg6
S'Duke and Duchess of Cambridge try out abseiling during Welsh visit'
p1399
sa(dp1400
g2
S'http://www.reuters.com/news/video/videoStory?storyID=113713040'
p1401
sg4
S'20151122\xc2\xa07:56AM UTC'
p1402
sg6
S'Duke and Duchess of Cambridge try out abseiling during Welsh visit'
p1403
sa(dp1404
g2
S'http://www.reuters.com/news/video/videoStory?storyID=113712607'
p1405
sg4
S'20151122\xc2\xa06:04AM UTC'
p1406
sg6
S'Belgium alert status raised'
p1407
sa(dp1408
g2
S'http://www.reuters.com/news/video/videoStory?storyID=113712507'
p1409
sg4
S'20151122\xc2\xa05:30AM UTC'
p1410
sg6
S'Paris nurse performs CPR on suicide bomber'
p1411
sa(dp1412
g2
S'http://www.reuters.com/news/video/videoStory?storyID=113712159'
p1413
sg4
S'20151122\xc2\xa04:33AM UTC'
p1414
sg6
S'Obama meets refugees in Malaysia'
p1415
sa(dp1416
g2
S'http://www.reuters.com/news/video/videoStory?storyID=113711264'
p1417
sg4
S'20151122\xc2\xa01:51AM UTC'
p1418
sg6
S'India looks to double coal output by 2020'
p1419
sa(dp1420
g2
S'http://www.reuters.com/news/video/videoStory?storyID=113711157'
p1421
sg4
S'20151122\xc2\xa01:51AM UTC'
p1422
sg6
S'Veteran militant likely behind Mali attacks:French official'
p1423
sa.