(lp0
(dp1
S'href'
p2
S'http://www.reuters.com/article/bbo-indians-royals-writethru-idUSMTZEB9RBDGJ5820150927'
p3
sS'ts'
p4
S'20150927\xc2\xa011:58PM UTC'
p5
sS'title'
p6
S'Hats off: Ramirez leads Indians past Royals'
p7
sa(dp8
g2
S'http://www.reuters.com/article/bbo-twins-tigers-writethru-idUSMTZEB9RBDHK5F20150927'
p9
sg4
S'20150927\xc2\xa011:48PM UTC'
p10
sg6
S'Twins still alive and winning'
p11
sa(dp12
g2
S'http://www.reuters.com/article/us-australia-women-music-idUSKCN0RR03O20150927'
p13
sg4
S'20150927\xc2\xa011:45PM UTC'
p14
sg6
S'Australia set to refuse visa for singer Chris Brown'
p15
sa(dp16
g2
S'http://www.reuters.com/article/bbo-braves-marlins-writethru-idUSMTZEB9RBD5U4O20150927'
p17
sg4
S'20150927\xc2\xa011:35PM UTC'
p18
sg6
S'Playing for pride, Marlins win fourth straight'
p19
sa(dp20
g2
S'http://www.reuters.com/article/soccer-england-manchester-united-idUSKCN0RR03820150927'
p21
sg4
S'20150927\xc2\xa011:32PM UTC'
p22
sg6
S'Win takes United top after Spurs crush City'
p23
sa(dp24
g2
S'http://www.reuters.com/article/soccer-spain-messi-idUSKCN0RQ0GY20150927'
p25
sg4
S'20150927\xc2\xa011:31PM UTC'
p26
sg6
S'Villarreal top after toothless Real held by Malaga'
p27
sa(dp28
g2
S'http://www.reuters.com/article/un-assembly-refugees-idUSKCN0RR03020150927'
p29
sg4
S'20150927\xc2\xa011:21PM UTC'
p30
sg6
S'U.N. says world waited too long to act on refugee crisis'
p31
sa(dp32
g2
S'http://www.reuters.com/article/fbc-mississippistate-auburn-recap-idUSMTZEB9RBF3V8020150927'
p33
sg4
S'20150927\xc2\xa011:12PM UTC'
p34
sg6
S'Mississippi State 17, Auburn 9'
p35
sa(dp36
g2
S'http://www.reuters.com/article/bbo-brewers-cardinals-recap-idUSMTZEB9RBCBR4420150927'
p37
sg4
S'20150927\xc2\xa010:34PM UTC'
p38
sg6
S'Cardinals 5, Brewers 1'
p39
sa(dp40
g2
S'http://www.reuters.com/article/us-china-xinjiang-idUSKCN0RR02520150927'
p41
sg4
S'20150927\xc2\xa010:28PM UTC'
p42
sg6
S"In Uighur heartland, China vows 'heavy pressure' to defeat militants"
p43
sa(dp44
g2
S'http://www.reuters.com/article/people-fettywap-idUSKCN0RR02720150927'
p45
sg4
S'20150927\xc2\xa010:28PM UTC'
p46
sg6
S'Rapper Fetty Wap injured in New Jersey collision, TMZ reports'
p47
sa(dp48
g2
S'http://www.reuters.com/article/usa-election-clinton-idUSKCN0RR02320150927'
p49
sg4
S'20150927\xc2\xa010:26PM UTC'
p50
sg6
S"Bill Clinton: Controversy surrounding Hillary 'always going to happen'"
p51
sa(dp52
g2
S'http://www.reuters.com/article/ca-khang-khang-llp-idUSnBw265061a+100+BSW20150927'
p53
sg4
S'20150927\xc2\xa010:09PM UTC'
p54
sg6
S'IMPORTANT SHAREHOLDER NOTICE: Khang & Khang LLP Announces An Investigation Of Claims Against Sientra, Inc. On Behalf Of Investors'
p55
sa(dp56
g2
S'http://www.reuters.com/article/ca-goldberg-law-idUSnBw265060a+100+BSW20150927'
p57
sg4
S'20150927\xc2\xa010:02PM UTC'
p58
sg6
S'IMPORTANT INVESTOR ALERT: Goldberg Law PC Announces Securities Class Action Lawsuit Against Liquid Holdings Group, Inc. and Advises Shareholders to Contact the Firm Prior to the Lead Plaintiff Deadline'
p59
sa(dp60
g2
S'http://www.reuters.com/article/fbc-oklahomastate-texas-writethru-idUSMTZEB9RB5ZDUA20150927'
p61
sg4
S'20150927\xc2\xa09:49PM UTC'
p62
sg6
S"Grogan's field goal lifts No. 24 Oklahoma State over Texas"
p63
sa(dp64
g2
S'http://www.reuters.com/article/ca-goldberg-law-pc-idUSnBw265057a+100+BSW20150927'
p65
sg4
S'20150927\xc2\xa09:35PM UTC'
p66
sg6
S'IMPORTANT INVESTOR ALERT: Goldberg Law PC Announces Securities Class Action Lawsuit Against LSB Industries, Inc. and Advises Shareholders to Contact the Firm Prior to the Lead Plaintiff Deadline'
p67
sa(dp68
g2
S'http://www.reuters.com/article/us-china-corruption-official-idUSKCN0RR01820150927'
p69
sg4
S'20150927\xc2\xa09:28PM UTC'
p70
sg6
S'China opens way to prosecute another former top official for graft'
p71
sa(dp72
g2
S'http://www.reuters.com/article/us-usa-seattle-crash-idUSKCN0RP1WZ20150927'
p73
sg4
S'20150927\xc2\xa09:27PM UTC'
p74
sg6
S'Students killed in Seattle bus crash were from four countries'
p75
sa(dp76
g2
S'http://www.reuters.com/article/us-usa-seattle-crash-axle-idUSKCN0RR01620150927'
p77
sg4
S'20150927\xc2\xa09:27PM UTC'
p78
sg6
S'Axle of duck boat in deadly Seattle crash was sheared off: official'
p79
sa(dp80
g2
S'http://www.reuters.com/article/us-motor-racing-prix-engines-idUSKCN0RR00W20150927'
p81
sg4
S'20150927\xc2\xa09:25PM UTC'
p82
sg6
S'Mercedes wait for Red Bull and Renault engine news'
p83
sa(dp84
g2
S'http://www.reuters.com/article/china-corruption-official-idUSL3N11X00120150927'
p85
sg4
S'20150927\xc2\xa09:24PM UTC'
p86
sg6
S'China opens way to prosecute another former top official for graft'
p87
sa(dp88
g2
S'http://www.reuters.com/article/us-pope-usa-wahlberg-idUSKCN0RR01020150927'
p89
sg4
S'20150927\xc2\xa09:21PM UTC'
p90
sg6
S'Wahlberg raises eyebrows as host of Philadelphia Pope concert'
p91
sa(dp92
g2
S'http://www.reuters.com/article/bbo-phillies-nationals-writethru-idUSMTZEB9RB7A1VS20150927'
p93
sg4
S'20150927\xc2\xa09:21PM UTC'
p94
sg6
S'Nationals win in 12, but postseason hopes end'
p95
sa(dp96
g2
S'http://www.reuters.com/article/fbc-ulmonroe-alabama-writethru-idUSMTZEB9RB9WF1820150927'
p97
sg4
S'20150927\xc2\xa09:19PM UTC'
p98
sg6
S'Alabama fans get a kick out of 34-0 victory'
p99
sa(dp100
g2
S'http://www.reuters.com/article/usa-seattle-crash-idUSL1N11X01220150927'
p101
sg4
S'20150927\xc2\xa09:18PM UTC'
p102
sg6
S'Axle of duck boat in deadly Seattle crash was sheared off -official'
p103
sa(dp104
g2
S'http://www.reuters.com/article/us-japan-usa-navy-idUSKCN0RQ0SV20150927'
p105
sg4
S'20150927\xc2\xa09:17PM UTC'
p106
sg6
S'U.S. admiral signals wider role for powerful Third Fleet in Western Pacific'
p107
sa(dp108
g2
S'http://www.reuters.com/article/pope-usa-wahlberg-idUSL1N11X00I20150927'
p109
sg4
S'20150927\xc2\xa09:17PM UTC'
p110
sg6
S'Wahlberg raises eyebrows as host of Philadelphia Pope concert'
p111
sa(dp112
g2
S'http://www.reuters.com/article/fbc-middletennessee-illinois-recap-idUSMTZEB9RB9LH0E20150927'
p113
sg4
S'20150927\xc2\xa09:13PM UTC'
p114
sg6
S'Illinois 27, Middle Tennessee 25'
p115
sa(dp116
g2
S'http://www.reuters.com/article/us-india-modi-gandhis-idUSKCN0RR00P20150927'
p117
sg4
S'20150927\xc2\xa09:12PM UTC'
p118
sg6
S"India's Modi prises Gandhi family legacy from heirs"
p119
sa(dp120
g2
S'http://www.reuters.com/article/us-northkorea-missile-idUSKCN0RR00R20150927'
p121
sg4
S'20150927\xc2\xa09:08PM UTC'
p122
sg6
S'Satellite, missile test or space junk? North Korea readies launch'
p123
sa(dp124
g2
S'http://www.reuters.com/article/fbc-ohio-minnesota-writethru-idUSMTZEB9RB527TC20150927'
p125
sg4
S'20150927\xc2\xa09:08PM UTC'
p126
sg6
S'Jones coming along as top-ranked Ohio State rolls'
p127
sa(dp128
g2
S'http://www.reuters.com/article/fbc-california-washington-recap-idUSMTZEB9RB9C5ZS20150927'
p129
sg4
S'20150927\xc2\xa09:07PM UTC'
p130
sg6
S'California 30, Washington 24'
p131
sa(dp132
g2
S'http://www.reuters.com/article/bbo-mets-reds-writethru-idUSMTZEB9RB53OTE20150927'
p133
sg4
S'20150927\xc2\xa09:06PM UTC'
p134
sg6
S'Mets clinch first division title since 2006'
p135
sa(dp136
g2
S'http://www.reuters.com/article/fbc-massachusetts-notredame-writethru-idUSMTZEB9RB97EZ420150927'
p137
sg4
S'20150927\xc2\xa09:04PM UTC'
p138
sg6
S'No. 6 Notre Dame pulls away, blows out Massachusetts'
p139
sa(dp140
g2
S'http://www.reuters.com/article/northkorea-missile-idUSL4N11U18F20150927'
p141
sg4
S'20150927\xc2\xa09:00PM UTC'
p142
sg6
S'Satellite, missile test or space junk? North Korea readies launch'
p143
sa(dp144
g2
S'http://www.reuters.com/article/las-vegas-sands-idUSnPn1XqcNJ+93+PRN20150927'
p145
sg4
S'20150927\xc2\xa09:00PM UTC'
p146
sg6
S'Las Vegas Sands Builds 200,000 Hygiene Kits for Clean the World'
p147
sa(dp148
g2
S'http://www.reuters.com/article/or-gentle-barn-steer-idUSnPn420mQ0+82+PRN20150927'
p149
sg4
S'20150927\xc2\xa08:59PM UTC'
p150
sg6
S'National Nonprofit \'The Gentle Barn\' Denied Rescue of Well-Loved Steer "Red Box" From Slaughter in Oregon'
p151
sa(dp152
g2
S'http://www.reuters.com/article/us-mexico-violence-idUSKCN0RQ0SD20150927'
p153
sg4
S'20150927\xc2\xa08:48PM UTC'
p154
sg6
S'Mexico pressured for answers on missing students, one year on'
p155
sa(dp156
g2
S'http://www.reuters.com/article/us-mideast-crisis-syria-ceasefire-idUSKCN0RR00920150927'
p157
sg4
S'20150927\xc2\xa08:40PM UTC'
p158
sg6
S'Ceasefire broken in northwestern Syria, monitor says, rebels blame government'
p159
sa(dp160
g2
S'http://www.reuters.com/article/fbc-tennessee-florida-recap-idUSMTZEB9RB7GTVW20150927'
p161
sg4
S'20150927\xc2\xa08:27PM UTC'
p162
sg6
S'Florida 28, Tennessee 27'
p163
sa(dp164
g2
S'http://www.reuters.com/article/bbo-whitesox-yankees-writethru-idUSMTZEB9RB46GSC20150927'
p165
sg4
S'20150927\xc2\xa08:11PM UTC'
p166
sg6
S'Warren gives Yankees relief from the start'
p167
sa(dp168
g2
S'http://www.reuters.com/article/us-pope-usa-idUSKCN0RP11X20150926'
p169
sg4
S'20150927\xc2\xa07:59PM UTC'
p170
sg6
S"In America's birthplace, pope gives pep talk to immigrants   "
p171
sa(dp172
g2
S'http://www.reuters.com/article/us-saudi-haj-toll-idUSKCN0RQ0FB20150926'
p173
sg4
S'20150927\xc2\xa07:53PM UTC'
p174
sg6
S"Haj death toll rises to 769, Iran denounces 'crime'"
p175
sa(dp176
g2
S'http://www.reuters.com/article/fbc-rice-baylor-writethru-idUSMTZEB9QB3RYQD20150926'
p177
sg4
S'20150927\xc2\xa07:53PM UTC'
p178
sg6
S'Baylor shows hunger while stomping Rice'
p179
sa(dp180
g2
S'http://www.reuters.com/article/us-mexico-violence-idUSKCN0RQ0SD20150926'
p181
sg4
S'20150927\xc2\xa07:44PM UTC'
p182
sg6
S'Mexico pressured for answers on missing students, one year on'
p183
sa(dp184
g2
S'http://www.reuters.com/article/fbc-virginiatech-eastcarolina-recap-idUSMTZEB9RB5H6TH20150926'
p185
sg4
S'20150927\xc2\xa07:44PM UTC'
p186
sg6
S'East Carolina 35, Virginia Tech 28'
p187
sa(dp188
g2
S'http://www.reuters.com/article/us-baseball-mets-playoffs-idUSKCN0RQ0TG20150926'
p189
sg4
S'20150927\xc2\xa07:42PM UTC'
p190
sg6
S'Mets in playoffs after clinching NL East title'
p191
sa(dp192
g2
S'http://www.reuters.com/article/us-burkina-army-idUSKCN0RQ0B620150926'
p193
sg4
S'20150927\xc2\xa07:39PM UTC'
p194
sg6
S'Burkina Faso prosecutor freezes assets of leader of failed coup'
p195
sa(dp196
g2
S'http://www.reuters.com/article/us-usa-election-clinton-bill-idUSKCN0RQ0TC20150926'
p197
sg4
S'20150927\xc2\xa07:37PM UTC'
p198
sg6
S"Bill Clinton: Controversy surrounding Hillary 'always going to happen'"
p199
sa(dp200
g2
S'http://www.reuters.com/article/bbo-mets-reds-recap-idUSMTZEB9RB53OTE20150926'
p201
sg4
S'20150927\xc2\xa07:36PM UTC'
p202
sg6
S'Mets 10, Reds 2'
p203
sa(dp204
g2
S'http://www.reuters.com/article/fbc-sandiegostate-pennstate-recap-idUSMTZEB9RB527TD20150926'
p205
sg4
S'20150927\xc2\xa07:35PM UTC'
p206
sg6
S'Penn State 37, San Diego State 21'
p207
sa(dp208
g2
S'http://www.reuters.com/article/fbc-ohio-minnesota-recap-idUSMTZEB9RB527TC20150926'
p209
sg4
S'20150927\xc2\xa07:35PM UTC'
p210
sg6
S'Minnesota 27, Ohio 24'
p211
sa(dp212
g2
S'http://www.reuters.com/article/burkina-army-idUSL5N11W06R20150926'
p213
sg4
S'20150927\xc2\xa07:35PM UTC'
p214
sg6
S'UPDATE 2-Burkina Faso prosecutor freezes assets of leader of failed coup'
p215
sa(dp216
g2
S'http://www.reuters.com/article/us-people-fettywap-idUSKCN0RQ0TA20150926'
p217
sg4
S'20150927\xc2\xa07:34PM UTC'
p218
sg6
S'Rapper Fetty Wap injured in New Jersey collision, TMZ reports'
p219
sa(dp220
g2
S'http://www.reuters.com/article/fbc-westernmichigan-ohiostate-recap-idUSMTZEB9RB50ETB20150926'
p221
sg4
S'20150927\xc2\xa07:34PM UTC'
p222
sg6
S'Ohio State 38, Western Michigan 12'
p223
sa(dp224
g2
S'http://www.reuters.com/article/us-cycling-world-women-idUSKCN0RQ0Q320150926'
p225
sg4
S'20150927\xc2\xa07:33PM UTC'
p226
sg6
S"Armitstead wins women's road race in late sprint"
p227
sa(dp228
g2
S'http://www.reuters.com/article/us-cycling-worlds-armitstead-idUSKCN0RQ0T820150926'
p229
sg4
S'20150927\xc2\xa07:33PM UTC'
p230
sg6
S"No raining on Armitstead's party"
p231
sa(dp232
g2
S'http://www.reuters.com/article/usa-election-clinton-idUSL1N11W0P220150926'
p233
sg4
S'20150927\xc2\xa07:32PM UTC'
p234
sg6
S"Bill Clinton: Controversy surrounding Hillary 'always going to happen'"
p235
sa(dp236
g2
S'http://www.reuters.com/article/bbo-orioles-redsox-recap-idUSMTZEB9RB4TZST20150926'
p237
sg4
S'20150927\xc2\xa07:30PM UTC'
p238
sg6
S'Red Sox 8, Orioles 0'
p239
sa(dp240
g2
S'http://www.reuters.com/article/us-sprint-airwavesauction-idUSKCN0RQ0SR20150926'
p241
sg4
S'20150927\xc2\xa07:28PM UTC'
p242
sg6
S'Sprint says will sit out of 2016 airwaves auction'
p243
sa(dp244
g2
S'http://www.reuters.com/article/us-mideast-crisis-iraq-russia-idUSKCN0RQ0RY20150926'
p245
sg4
S'20150927\xc2\xa07:28PM UTC'
p246
sg6
S'Iraq says Russia, Iran, Syria cooperating on security issues in Baghdad'
p247
sa(dp248
g2
S'http://www.reuters.com/article/sprint-airwavesauction-idUSL1N11W0P720150926'
p249
sg4
S'20150927\xc2\xa07:25PM UTC'
p250
sg6
S'UPDATE 1-Sprint says will sit out of 2016 airwaves auction'
p251
sa(dp252
g2
S'http://www.reuters.com/article/us-golf-pga-idUSKCN0RQ0PW20150926'
p253
sg4
S'20150927\xc2\xa07:19PM UTC'
p254
sg6
S'Spieth leapfrogs Stenson for Tour Championship lead'
p255
sa(dp256
g2
S'http://www.reuters.com/article/us-golf-pga-spieth-cship-idUSKCN0RQ0SZ20150926'
p257
sg4
S'20150927\xc2\xa07:18PM UTC'
p258
sg6
S"Spieth getting that 'major' feeling at Tour Championship"
p259
sa(dp260
g2
S'http://www.reuters.com/article/bbo-whitesox-yankees-recap-idUSMTZEB9RB46GSC20150926'
p261
sg4
S'20150927\xc2\xa07:16PM UTC'
p262
sg6
S'Yankees 2, White Sox 1'
p263
sa(dp264
g2
S'http://www.reuters.com/article/us-japan-usa-navy-idUSKCN0RQ0SV20150926'
p265
sg4
S'20150927\xc2\xa07:16PM UTC'
p266
sg6
S'U.S. admiral signals wider role for powerful Third Fleet in Western Pacific'
p267
sa(dp268
g2
S'http://www.reuters.com/article/fbc-northtexas-iowa-recap-idUSMTZEB9RB44QSA20150926'
p269
sg4
S'20150927\xc2\xa07:15PM UTC'
p270
sg6
S'Iowa 62, North Texas 16'
p271
sa(dp272
g2
S'http://www.reuters.com/article/us-centralafrica-violence-toll-idUSKCN0RQ0OB20150926'
p273
sg4
S'20150927\xc2\xa07:08PM UTC'
p274
sg6
S'At least 21 killed in attacks in Central African Republic capital'
p275
sa(dp276
g2
S'http://www.reuters.com/article/us-colombia-rebels-idUSKCN0RQ0SP20150926'
p277
sg4
S'20150927\xc2\xa07:06PM UTC'
p278
sg6
S"Colombia's Santos faced 'difficult moment' in peace deal: NYT"
p279
sa(dp280
g2
S'http://www.reuters.com/article/us-usa-election-republicans-idUSKCN0RQ0SN20150926'
p281
sg4
S'20150927\xc2\xa07:04PM UTC'
p282
sg6
S"Republican 'Values' voters back Cruz-Carson presidential ticket"
p283
sa(dp284
g2
S'http://www.reuters.com/article/fbc-maryland-westvirginia-recap-idUSMTZEB9QB3JLQC20150926'
p285
sg4
S'20150927\xc2\xa07:02PM UTC'
p286
sg6
S'West Virginia 45, Maryland 6'
p287
sa(dp288
g2
S'http://www.reuters.com/article/us-bolivia-presidency-idUSKCN0RQ0SL20150926'
p289
sg4
S'20150927\xc2\xa07:00PM UTC'
p290
sg6
S'Bolivia passes law to allow Morales to run for fourth term'
p291
sa(dp292
g2
S'http://www.reuters.com/article/sprint-airwavesauction-idUSL1N11W0OC20150926'
p293
sg4
S'20150927\xc2\xa06:56PM UTC'
p294
sg6
S'Sprint says will sit out of 2016 airwaves auction'
p295
sa(dp296
g2
S'http://www.reuters.com/article/co-dish-network-idUSnBw265055a+100+BSW20150926'
p297
sg4
S'20150927\xc2\xa06:49PM UTC'
p298
sg6
S'DISH Urges TEGNA to Extend Contract; Potential TEGNA Blackout Would Impact Millions'
p299
sa(dp300
g2
S'http://www.reuters.com/article/us-un-assembly-liberia-idUSKCN0RQ0SB20150926'
p301
sg4
S'20150927\xc2\xa06:48PM UTC'
p302
sg6
S'Liberia struggles to regain economic footing after Ebola'
p303
sa(dp304
g2
S'http://www.reuters.com/article/bolivia-presidency-idUSL5N11W0L520150926'
p305
sg4
S'20150927\xc2\xa06:45PM UTC'
p306
sg6
S'Bolivia passes law to allow Morales to run for fourth term'
p307
sa(dp308
g2
S'http://www.reuters.com/article/us-un-assembly-usa-iran-idUSKCN0RQ0HG20150926'
p309
sg4
S'20150927\xc2\xa06:42PM UTC'
p310
sg6
S'Kerry says sees opportunity for progress on Syria as he meets Zarif'
p311
sa(dp312
g2
S'http://www.reuters.com/article/fbc-newmexico-wyoming-recap-idUSMTZEB9QB2IVQB20150926'
p313
sg4
S'20150927\xc2\xa06:40PM UTC'
p314
sg6
S'New Mexico 38, Wyoming 28'
p315
sa(dp316
g2
S'http://www.reuters.com/article/bbo-rangers-astros-writethru-idUSMTZEB9QAY1UIR20150926'
p317
sg4
S'20150927\xc2\xa06:31PM UTC'
p318
sg6
S'Homers help Astros hang on against Rangers'
p319
sa(dp320
g2
S'http://www.reuters.com/article/nj-novartis-afinitor-idUSnPn9mX6Vc+8a+PRN20150926'
p321
sg4
S'20150927\xc2\xa06:27PM UTC'
p322
sg6
S'Novartis drug Afinitor\xc2\xae significantly improves progression-free survival in advanced nonfunctional gastrointestinal and lung NET'
p323
sa(dp324
g2
S'http://www.reuters.com/article/idUSnHUG9LWb8f+1d8+ONE20150926'
p325
sg4
S'20150927\xc2\xa06:24PM UTC'
p326
sg6
S'Novartis drug Afinitor(R) significantly improves progression-free survival in advanced nonfunctional gastrointestinal and lung NET'
p327
sa(dp328
g2
S'http://www.reuters.com/article/us-fashion-milan-cavalli-idUSKCN0RQ0JD20150926'
p329
sg4
S'20150927\xc2\xa06:19PM UTC'
p330
sg6
S'Dundas brings fresh take on Cavalli in debut line'
p331
sa(dp332
g2
S'http://www.reuters.com/article/us-golf-pga-stenson-idUSKCN0RQ0RW20150926'
p333
sg4
S'20150927\xc2\xa06:17PM UTC'
p334
sg6
S'Stenson hopes for sunnier Sunday at East Lake'
p335
sa(dp336
g2
S'http://www.reuters.com/article/fashion-milan-cavalli-idUSL5N11W0JX20150926'
p337
sg4
S'20150927\xc2\xa06:16PM UTC'
p338
sg6
S'UPDATE 1-Dundas brings fresh take on Cavalli in debut line'
p339
sa(dp340
g2
S'http://www.reuters.com/article/us-un-assembly-refugees-idUSKCN0RQ0RJ20150926'
p341
sg4
S'20150927\xc2\xa06:12PM UTC'
p342
sg6
S'U.N. says world waited too long to act on refugee crisis'
p343
sa(dp344
g2
S'http://www.reuters.com/article/us-europe-migrants-germany-merkel-idUSKCN0RQ0ID20150926'
p345
sg4
S'20150927\xc2\xa06:12PM UTC'
p346
sg6
S'Support for Merkel falls over handling of refugee crisis'
p347
sa(dp348
g2
S'http://www.reuters.com/article/us-spain-catalonia-idUSKCN0RQ0RN20150926'
p349
sg4
S'20150927\xc2\xa06:06PM UTC'
p350
sg6
S'Catalan separatists eye election boost to defy Spain over independence'
p351
sa(dp352
g2
S'http://www.reuters.com/article/spain-catalonia-idUSL5N11W09X20150926'
p353
sg4
S'20150927\xc2\xa06:00PM UTC'
p354
sg6
S'Catalan separatists eye election boost to defy Spain over independence'
p355
sa(dp356
g2
S'http://www.reuters.com/article/bbo-pirates-cubs-writethru-idUSMTZEB9QAWPHI220150926'
p357
sg4
S'20150927\xc2\xa05:52PM UTC'
p358
sg6
S'Pirates win eighth straight as Cubs celebrate'
p359
sa(dp360
g2
S'http://www.reuters.com/article/abelsontaylor-awarded-idUSnPn8pVFPt+8e+PRN20150926'
p361
sg4
S'20150927\xc2\xa05:50PM UTC'
p362
sg6
S'Ronald McDonald Recognizes AbelsonTaylor Agency for Campaign to Collect Pop Tabs'
p363
sa(dp364
g2
S'http://www.reuters.com/article/us-baseball-cardinals-martinez-idUSKCN0RQ0RF20150926'
p365
sg4
S'20150927\xc2\xa05:47PM UTC'
p366
sg6
S'Injured St. Louis pitcher Martinez to miss playoffs'
p367
sa(dp368
g2
S'http://www.reuters.com/article/us-development-goals-finance-idUSKCN0RQ0RD20150926'
p369
sg4
S'20150927\xc2\xa05:46PM UTC'
p370
sg6
S"Who funds the trillion dollar plan of the U.N.'s new global goals?"
p371
sa(dp372
g2
S'http://www.reuters.com/article/us-development-goals-internet-idUSKCN0RQ0R920150926'
p373
sg4
S'20150927\xc2\xa05:45PM UTC'
p374
sg6
S'Facebook founder calls for universal Internet to help cure global ills '
p375
sa(dp376
g2
S'http://www.reuters.com/article/idUSnMKWW1zcsa+1e0+MKW20150926'
p377
sg4
S'20150927\xc2\xa05:43PM UTC'
p378
sg6
S'Gespeg Issues Shares Pursuant to an Option Agreement'
p379
sa(dp380
g2
S'http://www.reuters.com/article/idUSnCCN9wk7WJ+1c3+MKW20150926'
p381
sg4
S'20150927\xc2\xa05:43PM UTC'
p382
sg6
S'Gespeg Issues Shares Pursuant to an Option Agreement'
p383
sa(dp384
g2
S'http://www.reuters.com/article/us-pope-usa-abuse-idUSKCN0RQ0R520150926'
p385
sg4
S'20150927\xc2\xa05:43PM UTC'
p386
sg6
S'Catholic abuse victims ask for more from Pope Francis visit '
p387
sa(dp388
g2
S'http://www.reuters.com/article/bbo-rays-bluejays-recap-idUSMTZEB9QAXOKI820150926'
p389
sg4
S'20150927\xc2\xa05:23PM UTC'
p390
sg6
S'Blue Jays 10, Rays 8'
p391
sa(dp392
g2
S'http://www.reuters.com/article/canada-election-idUSL1N11W0MN20150926'
p393
sg4
S'20150927\xc2\xa05:20PM UTC'
p394
sg6
S'RPT-UPDATE 1-Canada opposition Liberals vow crackdown on tax loopholes'
p395
sa(dp396
g2
S'http://www.reuters.com/article/car-nascar-grandnational-writethru-idUSMTZEB9QAYOHKM20150926'
p397
sg4
S'20150927\xc2\xa05:17PM UTC'
p398
sg6
S'Dillon prevails as Truck Series reaches major milestone'
p399
sa(dp400
g2
S'http://www.reuters.com/article/pa-gov-wolf-remarks-idUSnPn73dlWB+83+PRN20150926'
p401
sg4
S'20150927\xc2\xa05:16PM UTC'
p402
sg6
S"Pennsylvania Governor Tom Wolf's Remarks at Independence Hall"
p403
sa(dp404
g2
S'http://www.reuters.com/article/fbc-northernillinois-bostoncollege-recap-idUSMTZEB9QAX2CI420150926'
p405
sg4
S'20150927\xc2\xa05:12PM UTC'
p406
sg6
S'Boston College 17, Northern Illinois 14'
p407
sa(dp408
g2
S'http://www.reuters.com/article/fbc-brighamyoung-michigan-writethru-idUSMTZEB9QAXK4I720150926'
p409
sg4
S'20150927\xc2\xa05:07PM UTC'
p410
sg6
S'No. 2 Michigan State pulls away from Central Michigan'
p411
sa(dp412
g2
S'http://www.reuters.com/article/fbc-nichollsstate-colorado-recap-idUSMTZEB9QAY2XIW20150926'
p413
sg4
S'20150927\xc2\xa05:04PM UTC'
p414
sg6
S'Colorado 48, Nicholls State 0'
p415
sa(dp416
g2
S'http://www.reuters.com/article/frc-action-poll-idUSnPn4B6zQL+93+PRN20150926'
p417
sg4
S'20150927\xc2\xa04:57PM UTC'
p418
sg6
S'Sen. Ted Cruz Wins Values Voter Summit Straw Poll for Third Year in a Row'
p419
sa(dp420
g2
S'http://www.reuters.com/article/fbc-georgiatech-duke-writethru-idUSMTZEB9QAXGQI620150926'
p421
sg4
S'20150927\xc2\xa04:51PM UTC'
p422
sg6
S'Physical Duke takes down No. 20 Georgia Tech'
p423
sa(dp424
g2
S'http://www.reuters.com/article/us-colombia-economy-peace-idUSKCN0RQ0Q520150926'
p425
sg4
S'20150927\xc2\xa04:42PM UTC'
p426
sg6
S'Colombia needs international money to fund peace deal: finance minister'
p427
sa(dp428
g2
S'http://www.reuters.com/article/colombia-economy-peace-idUSL1N11W0F120150926'
p429
sg4
S'20150927\xc2\xa04:41PM UTC'
p430
sg6
S'INTERVIEW-Colombia needs international money to fund peace deal -finance minister'
p431
sa(dp432
g2
S'http://www.reuters.com/article/us-usa-seattle-crash-idUSKCN0RP1WZ20150926'
p433
sg4
S'20150927\xc2\xa04:40PM UTC'
p434
sg6
S'Students killed in Seattle bus crash were from four countries'
p435
sa(dp436
g2
S'http://www.reuters.com/article/us-un-assembly-france-syria-idUSKCN0RQ0NX20150926'
p437
sg4
S'20150927\xc2\xa04:38PM UTC'
p438
sg6
S"France says Syria's Assad has no role in country's future"
p439
sa(dp440
g2
S'http://www.reuters.com/article/fbc-indiana-wakeforest-recap-idUSMTZEB9QAWQOI320150926'
p441
sg4
S'20150927\xc2\xa04:35PM UTC'
p442
sg6
S'Indiana 31, Wake Forest 24'
p443
sa(dp444
g2
S'http://www.reuters.com/article/kill-boehringer-ingelhei-idUSnBw255203a+100+BSW20150926'
p445
sg4
S'20150927\xc2\xa04:31PM UTC'
p446
sg6
S'KILL\xc2\xa0Extending overall survival is less important than quality of life and disease stability for the majority of physicians treating patients with advanced lung cancer following first-line chemotherapy'
p447
sa(dp448
g2
S'http://www.reuters.com/article/idUSnMKWwncBwa+1c4+MKW20150926'
p449
sg4
S'20150927\xc2\xa04:25PM UTC'
p450
sg6
S'YYC Navigators Program Takes Flight at Calgary International Airport'
p451
sa(dp452
g2
S'http://www.reuters.com/article/idUSnCCN1My5zS+1d1+MKW20150926'
p453
sg4
S'20150927\xc2\xa04:25PM UTC'
p454
sg6
S'YYC Navigators Program Takes Flight at Calgary International Airport'
p455
sa(dp456
g2
S'http://www.reuters.com/article/ca-puma-biotechnology-idUSnBw265004a+100+BSW20150926'
p457
sg4
S'20150927\xc2\xa04:20PM UTC'
p458
sg6
S'Puma Biotechnology Announces Presentation of Phase III Trial of PB272 in Extended Adjuvant Breast Cancer (ExteNET Trial) in Centrally Confirmed HER2-Positive Early Stage Breast Cancer Patients'
p459
sa(dp460
g2
S'http://www.reuters.com/article/us-volkswagen-emissions-germany-politics-idUSKCN0RQ0BU20150926'
p461
sg4
S'20150927\xc2\xa04:15PM UTC'
p462
sg6
S'VW scandal exposes cozy ties between industry and Berlin'
p463
sa(dp464
g2
S'http://www.reuters.com/article/development-goals-finance-idUSL5N11V3PB20150926'
p465
sg4
S'20150927\xc2\xa04:13PM UTC'
p466
sg6
S"Who funds the trillion dollar plan of the U.N.'s new global goals?"
p467
sa(dp468
g2
S'http://www.reuters.com/article/us-canada-election-idUSKCN0RQ0JX20150926'
p469
sg4
S'20150927\xc2\xa04:09PM UTC'
p470
sg6
S'Canada opposition Liberals vow crackdown on tax loopholes'
p471
sa(dp472
g2
S'http://www.reuters.com/article/us-un-assembly-cuba-idUSKCN0RQ0OR20150926'
p473
sg4
S'20150927\xc2\xa04:08PM UTC'
p474
sg6
S"Cuba's Castro slams U.S. trade embargo at United Nations "
p475
sa(dp476
g2
S'http://www.reuters.com/article/canada-election-idUSL1N11W0IL20150926'
p477
sg4
S'20150927\xc2\xa04:07PM UTC'
p478
sg6
S'UPDATE 1-Canada opposition Liberals vow crackdown on tax loopholes'
p479
sa(dp480
g2
S'http://www.reuters.com/article/fbc-southernmississippi-nebraska-recap-idUSMTZEB9QAVFWHQ20150926'
p481
sg4
S'20150927\xc2\xa04:07PM UTC'
p482
sg6
S'Nebraska 36, Southern Mississippi 28'
p483
sa(dp484
g2
S'http://www.reuters.com/article/us-un-assembly-merkel-idUSKCN0RQ0NC20150926'
p485
sg4
S'20150927\xc2\xa04:05PM UTC'
p486
sg6
S"Germany's Merkel says U.N. Security Council must be reformed"
p487
sa(dp488
g2
S'http://www.reuters.com/article/us-volkswagen-emissions-eu-idUSKCN0RQ0FL20150926'
p489
sg4
S'20150927\xc2\xa04:04PM UTC'
p490
sg6
S'EU could toughen car emission tests after VW scandal: officials'
p491
sa(dp492
g2
S'http://www.reuters.com/article/fbc-bowlinggreen-purdue-recap-idUSMTZEB9QAV49HP20150926'
p493
sg4
S'20150927\xc2\xa04:00PM UTC'
p494
sg6
S'Bowling Green 35, Purdue 28'
p495
sa(dp496
g2
S'http://www.reuters.com/article/us-usa-turtle-florida-idUSKCN0RQ0PD20150926'
p497
sg4
S'20150927\xc2\xa04:00PM UTC'
p498
sg6
S'Florida woman charged with felony for allegedly riding sea turtle'
p499
sa(dp500
g2
S'http://www.reuters.com/article/us-usa-new-york-parade-idUSKCN0RQ0L820150926'
p501
sg4
S'20150927\xc2\xa03:56PM UTC'
p502
sg6
S'New York governor calls for national gun control in eulogy for aide'
p503
sa(dp504
g2
S'http://www.reuters.com/article/development-goals-internet-idUSL1N11W0G020150926'
p505
sg4
S'20150927\xc2\xa03:50PM UTC'
p506
sg6
S'Facebook founder calls for universal Internet to help cure global ills'
p507
sa(dp508
g2
S'http://www.reuters.com/article/usa-turtle-florida-idUSL1N11W0HN20150926'
p509
sg4
S'20150927\xc2\xa03:49PM UTC'
p510
sg6
S'Florida woman charged with felony for allegedly riding sea turtle'
p511
sa(dp512
g2
S'http://www.reuters.com/article/fbc-kansas-rutgers-recap-idUSMTZEB9QAUIIHA20150926'
p513
sg4
S'20150927\xc2\xa03:47PM UTC'
p514
sg6
S'Rutgers 27, Kansas 14'
p515
sa(dp516
g2
S'http://www.reuters.com/article/fbc-navy-connecticut-recap-idUSMTZEB9QAUIHH920150926'
p517
sg4
S'20150927\xc2\xa03:47PM UTC'
p518
sg6
S'Navy 28, Connecticut 18'
p519
sa(dp520
g2
S'http://www.reuters.com/article/us-soccer-fifa-blatter-idUSKCN0RQ0OX20150926'
p521
sg4
S'20150927\xc2\xa03:46PM UTC'
p522
sg6
S'Blatter could face FIFA ethics investigation'
p523
sa(dp524
g2
S'http://www.reuters.com/article/fbc-centralflorida-southcarolina-recap-idUSMTZEB9QAUBVH820150926'
p525
sg4
S'20150927\xc2\xa03:43PM UTC'
p526
sg6
S'South Carolina 31, Central Florida 14'
p527
sa(dp528
g2
S'http://www.reuters.com/article/co-brewers-association-idUSnBw265047a+100+BSW20150926'
p529
sg4
S'20150927\xc2\xa03:41PM UTC'
p530
sg6
S'242 Breweries Take Home Medals at 2015 Great American Beer Festival\xc2\xae'
p531
sa(dp532
g2
S'http://www.reuters.com/article/az-barrett-jackson-idUSnBw265045a+100+BSW20150926'
p533
sg4
S'20150927\xc2\xa03:37PM UTC'
p534
sg6
S'Barrett-Jackson to Present Inaugural Northeast Auction in June 2016 at Mohegan Sun'
p535
sa(dp536
g2
S'http://www.reuters.com/article/us-usa-climatechange-finance-idUSKCN0RO11920150926'
p537
sg4
S'20150927\xc2\xa03:36PM UTC'
p538
sg6
S"U.S. climate finance in limbo, risking 'trust gap' before Paris"
p539
sa(dp540
g2
S'http://www.reuters.com/article/un-assembly-cuba-idUSL1N11W0HT20150926'
p541
sg4
S'20150927\xc2\xa03:29PM UTC'
p542
sg6
S"Cuba's Castro slams U.S. trade embargo at United Nations"
p543
sa(dp544
g2
S'http://www.reuters.com/article/fbc-centralmichigan-michiganstate-recap-idUSMTZEB9QATL9F620150926'
p545
sg4
S'20150927\xc2\xa03:27PM UTC'
p546
sg6
S'Michigan State 30, Central Michigan 10'
p547
sa(dp548
g2
S'http://www.reuters.com/article/usa-climatechange-finance-idUSL1N11O1FP20150926'
p549
sg4
S'20150927\xc2\xa03:26PM UTC'
p550
sg6
S"CORRECTED- U.S. climate finance in limbo, risking 'trust gap' before Paris"
p551
sa(dp552
g2
S'http://www.reuters.com/article/us-fashion-milan-scervino-idUSKCN0RQ0OF20150926'
p553
sg4
S'20150927\xc2\xa03:24PM UTC'
p554
sg6
S'Ermanno Scervino mixes lace and floral motifs for spring'
p555
sa(dp556
g2
S'http://www.reuters.com/article/us-fashion-milan-versace-idUSKCN0RQ08120150926'
p557
sg4
S'20150927\xc2\xa03:22PM UTC'
p558
sg6
S'Versace glams up camouflage with animal prints for next spring'
p559
sa(dp560
g2
S'http://www.reuters.com/article/us-brazil-real-rousseff-idUSKCN0RQ0OD20150926'
p561
sg4
S'20150927\xc2\xa03:14PM UTC'
p562
sg6
S"Brazil's Rousseff says reserves can counter currency swing"
p563
sa(dp564
g2
S'http://www.reuters.com/article/foresters-louisville-idUSnPn1hmNmj+84+PRN20150926'
p565
sg4
S'20150927\xc2\xa03:00PM UTC'
p566
sg6
S'Foresters, KaBOOM! and volunteers bring families together with new playground at Portland Promise Center'
p567
sa(dp568
g2
S'http://www.reuters.com/article/foresters-baltimore-idUSnPn2sVpPn+8a+PRN20150926'
p569
sg4
S'20150927\xc2\xa03:00PM UTC'
p570
sg6
S'Foresters, KaBOOM! and volunteers bring families together with new playground at Sinclair Lane Elementary'
p571
sa(dp572
g2
S'http://www.reuters.com/article/ca-johnson-weaver-llp-idUSnBw265044a+100+BSW20150926'
p573
sg4
S'20150927\xc2\xa02:58PM UTC'
p574
sg6
S'SIENTRA SHAREHOLDER ALERT: Johnson & Weaver, LLP Announces Filing of Class Action Complaint Against Certain Officers and Directors of Sientra, Inc.; Encourages Investors to Contact the Firm for Information'
p575
sa(dp576
g2
S'http://www.reuters.com/article/us-hilton-wrldwide-cybersecurity-idUSKCN0RQ0NQ20150926'
p577
sg4
S'20150927\xc2\xa02:37PM UTC'
p578
sg6
S'Hilton says checking claims of hacking at hotels'
p579
sa(dp580
g2
S'http://www.reuters.com/article/hilton-wrldwide-cybersecurity-idUSL1N11W0GG20150926'
p581
sg4
S'20150927\xc2\xa02:35PM UTC'
p582
sg6
S'Hilton says checking claims of hacking at hotels'
p583
sa(dp584
g2
S'http://www.reuters.com/article/us-autos-uaw-idUSKCN0RQ0NK20150926'
p585
sg4
S'20150927\xc2\xa02:32PM UTC'
p586
sg6
S'Fiat Chrysler U.S. labor deal meets opposition in early voting'
p587
sa(dp588
g2
S'http://www.reuters.com/article/us-volkswagen-emmissions-regulators-fact-idUSKCN0RQ0NE20150926'
p589
sg4
S'20150927\xc2\xa02:27PM UTC'
p590
sg6
S'Factbox: Response from national regulators on VW emissions tests'
p591
sa(dp592
g2
S'http://www.reuters.com/article/autos-uaw-idUSL1N11V1J820150926'
p593
sg4
S'20150927\xc2\xa02:25PM UTC'
p594
sg6
S'Fiat Chrysler U.S. labor deal meets opposition in early voting'
p595
sa(dp596
g2
S'http://www.reuters.com/article/us-un-assembly-iran-haj-idUSKCN0RQ0JV20150926'
p597
sg4
S'20150927\xc2\xa02:23PM UTC'
p598
sg6
S"At U.N., Iran's Rouhani calls for investigation into haj crush "
p599
sa(dp600
g2
S'http://www.reuters.com/article/us-tennis-itf-idUSKCN0RQ0MQ20150926'
p601
sg4
S'20150927\xc2\xa02:04PM UTC'
p602
sg6
S"India's Khanna named among three ITF vice presidents"
p603
sa(dp604
g2
S'http://www.reuters.com/article/soccer-spain-messi-idUSKCN0RQ0GY20150926'
p605
sg4
S'20150927\xc2\xa02:00PM UTC'
p606
sg6
S'Messi injured as Barca sink Las Palmas with Suarez double'
p607
sa(dp608
g2
S'http://www.reuters.com/article/un-assembly-usa-iran-idUSL1N11W0BM20150926'
p609
sg4
S'20150927\xc2\xa02:00PM UTC'
p610
sg6
S'UPDATE 2-Kerry says sees opportunity for progress on Syria as he meets Zarif'
p611
sa(dp612
g2
S'http://www.reuters.com/article/tennis-itf-anil-khanna-idUSKCN0RQ0MM20150926'
p613
sg4
S'20150927\xc2\xa01:59PM UTC'
p614
sg6
S'Anil Khanna named among three ITF vice presidents'
p615
sa(dp616
g2
S'http://www.reuters.com/article/us-armenia-azerbaijan-idUSKCN0RQ0MK20150926'
p617
sg4
S'20150927\xc2\xa01:57PM UTC'
p618
sg6
S'Five killed in clashes between Armenian-backed Karabakh troops and Azeri army'
p619
sa(dp620
g2
S'http://www.reuters.com/article/idUSnMKW693dJa+1c2+MKW20150926'
p621
sg4
S'20150927\xc2\xa01:45PM UTC'
p622
sg6
S'The New Ireland Fund, Inc. Releases the Third Quarter Shareholder Report'
p623
sa(dp624
g2
S'http://www.reuters.com/article/supp-oh-febreze-idUSnBw255868a+100+BSW20150926'
p625
sg4
S'20150927\xc2\xa01:37PM UTC'
p626
sg6
S'ADDING MULTIMEDIA Febreze\xc2\xae School of #Petiquette is Officially in Session for Pet Owners!'
p627
sa(dp628
g2
S'http://www.reuters.com/article/us-usa-new-jersey-football-idUSKCN0RQ0M720150926'
p629
sg4
S'20150927\xc2\xa01:36PM UTC'
p630
sg6
S'High school football player dies from injury in New Jersey'
p631
sa(dp632
g2
S'http://www.reuters.com/article/idUSnMKWx0VVVa+1ce+MKW20150926'
p633
sg4
S'20150927\xc2\xa01:16PM UTC'
p634
sg6
S'$2.2 Million Raised at the Canaccord Genuity Great Camp Adventure Walk'
p635
sa(dp636
g2
S'http://www.reuters.com/article/us-usa-election-clinton-idUSKCN0RP29820150926'
p637
sg4
S'20150927\xc2\xa01:07PM UTC'
p638
sg6
S'Government finds new emails Clinton did not hand over'
p639
sa(dp640
g2
S'http://www.reuters.com/article/us-mideast-crisis-airstrikes-idUSKCN0RQ0LK20150926'
p641
sg4
S'20150927\xc2\xa01:05PM UTC'
p642
sg6
S'U.S. reports 25 air strikes against Islamic State in Iraq and Syria'
p643
sa(dp644
g2
S'http://www.reuters.com/article/bbo-cardinals-playerwatch-idUSMTZEB9QAN9QBH20150926'
p645
sg4
S'20150927\xc2\xa01:01PM UTC'
p646
sg6
S'St. Louis Cardinals - PlayerWatch'
p647
sa(dp648
g2
S'http://www.reuters.com/article/bbo-redsox-playerwatch-idUSMTZEB9QAN9QBT20150926'
p649
sg4
S'20150927\xc2\xa01:01PM UTC'
p650
sg6
S'Boston Red Sox - PlayerWatch'
p651
sa(dp652
g2
S'http://www.reuters.com/article/bbo-astros-playerwatch-idUSMTZEB9QAN9QBG20150926'
p653
sg4
S'20150927\xc2\xa01:01PM UTC'
p654
sg6
S'Houston Astros - PlayerWatch'
p655
sa(dp656
g2
S'http://www.reuters.com/article/bbo-pirates-playerwatch-idUSMTZEB9QAN9QBR20150926'
p657
sg4
S'20150927\xc2\xa01:01PM UTC'
p658
sg6
S'Pittsburgh Pirates - PlayerWatch'
p659
sa(dp660
g2
S'http://www.reuters.com/article/bbo-mets-playerwatch-idUSMTZEB9QAN9QBF20150926'
p661
sg4
S'20150927\xc2\xa01:01PM UTC'
p662
sg6
S'New York Mets - PlayerWatch'
p663
sa(dp664
g2
S'http://www.reuters.com/article/bbo-padres-playerwatch-idUSMTZEB9QAN9QBQ20150926'
p665
sg4
S'20150927\xc2\xa01:01PM UTC'
p666
sg6
S'San Diego Padres - PlayerWatch'
p667
sa(dp668
g2
S'http://www.reuters.com/article/bbo-nationals-playerwatch-idUSMTZEB9QAN9QBE20150926'
p669
sg4
S'20150927\xc2\xa01:01PM UTC'
p670
sg6
S'Washington Nationals - PlayerWatch'
p671
sa(dp672
g2
S'http://www.reuters.com/article/bbo-rockies-playerwatch-idUSMTZEB9QAN9QBP20150926'
p673
sg4
S'20150927\xc2\xa01:01PM UTC'
p674
sg6
S'Colorado Rockies - PlayerWatch'
p675
sa(dp676
g2
S'http://www.reuters.com/article/bbo-marlins-playerwatch-idUSMTZEB9QAN9QBD20150926'
p677
sg4
S'20150927\xc2\xa01:01PM UTC'
p678
sg6
S'Miami Marlins - PlayerWatch'
p679
sa(dp680
g2
S'http://www.reuters.com/article/bbo-yankees-playerwatch-idUSMTZEB9QAN9QBO20150926'
p681
sg4
S'20150927\xc2\xa01:01PM UTC'
p682
sg6
S'New York Yankees - PlayerWatch'
p683
sa(dp684
g2
S'http://www.reuters.com/article/bbo-phillies-playerwatch-idUSMTZEB9QAN9QBC20150926'
p685
sg4
S'20150927\xc2\xa01:01PM UTC'
p686
sg6
S'Philadelphia Phillies - PlayerWatch'
p687
sa(dp688
g2
S'http://www.reuters.com/article/bbo-dodgers-playerwatch-idUSMTZEB9QAN9QBN20150926'
p689
sg4
S'20150927\xc2\xa01:01PM UTC'
p690
sg6
S'Los Angeles Dodgers - PlayerWatch'
p691
sa(dp692
g2
S'http://www.reuters.com/article/bbo-braves-playerwatch-idUSMTZEB9QAN9QBB20150926'
p693
sg4
S'20150927\xc2\xa01:01PM UTC'
p694
sg6
S'Atlanta Braves - PlayerWatch'
p695
sa(dp696
g2
S'http://www.reuters.com/article/bbo-whitesox-playerwatch-idUSMTZEB9QAN9QBY20150926'
p697
sg4
S'20150927\xc2\xa01:01PM UTC'
p698
sg6
S'Chicago White Sox - PlayerWatch'
p699
sa(dp700
g2
S'http://www.reuters.com/article/bbo-diamondbacks-playerwatch-idUSMTZEB9QAN9QBM20150926'
p701
sg4
S'20150927\xc2\xa01:01PM UTC'
p702
sg6
S'Arizona Diamondbacks - PlayerWatch'
p703
sa(dp704
g2
S'http://www.reuters.com/article/bbo-rangers-playerwatch-idUSMTZEB9QAN9QBA20150926'
p705
sg4
S'20150927\xc2\xa01:01PM UTC'
p706
sg6
S'Texas Rangers - PlayerWatch'
p707
sa(dp708
g2
S'http://www.reuters.com/article/bbo-royals-playerwatch-idUSMTZEB9QAN9QBX20150926'
p709
sg4
S'20150927\xc2\xa01:01PM UTC'
p710
sg6
S'Kansas City Royals - PlayerWatch'
p711
sa(dp712
g2
S'http://www.reuters.com/article/bbo-brewers-playerwatch-idUSMTZEB9QAN9QBK20150926'
p713
sg4
S'20150927\xc2\xa01:01PM UTC'
p714
sg6
S'Milwaukee Brewers - PlayerWatch'
p715
sa(dp716
g2
S'http://www.reuters.com/article/bbo-reds-playerwatch-idUSMTZEB9QAN9QBJ20150926'
p717
sg4
S'20150927\xc2\xa01:01PM UTC'
p718
sg6
S'Cincinnati Reds - PlayerWatch'
p719
sa(dp720
g2
S'http://www.reuters.com/article/bbo-rays-playerwatch-idUSMTZEB9QAN9QBW20150926'
p721
sg4
S'20150927\xc2\xa01:01PM UTC'
p722
sg6
S'Tampa Bay Rays - PlayerWatch'
p723
sa(dp724
g2
S'http://www.reuters.com/article/bbo-orioles-playerwatch-idUSMTZEB9QAN9QBV20150926'
p725
sg4
S'20150927\xc2\xa01:01PM UTC'
p726
sg6
S'Baltimore Orioles - PlayerWatch'
p727
sa(dp728
g2
S'http://www.reuters.com/article/bbo-cubs-playerwatch-idUSMTZEB9QAN9QBI20150926'
p729
sg4
S'20150927\xc2\xa01:01PM UTC'
p730
sg6
S'Chicago Cubs - PlayerWatch'
p731
sa(dp732
g2
S'http://www.reuters.com/article/bbo-bluejays-playerwatch-idUSMTZEB9QAN9QBU20150926'
p733
sg4
S'20150927\xc2\xa01:01PM UTC'
p734
sg6
S'Toronto Blue Jays - PlayerWatch'
p735
sa(dp736
g2
S'http://www.reuters.com/article/bbo-indians-playerwatch-idUSMTZEB9QAN9PB520150926'
p737
sg4
S'20150927\xc2\xa01:01PM UTC'
p738
sg6
S'Cleveland Indians - PlayerWatch'
p739
sa(dp740
g2
S'http://www.reuters.com/article/bbo-twins-playerwatch-idUSMTZEB9QAN9PB420150926'
p741
sg4
S'20150927\xc2\xa01:01PM UTC'
p742
sg6
S'Minnesota Twins - PlayerWatch'
p743
sa(dp744
g2
S'http://www.reuters.com/article/bbo-angels-playerwatch-idUSMTZEB9QAN9PB920150926'
p745
sg4
S'20150927\xc2\xa01:01PM UTC'
p746
sg6
S'Los Angeles Angels - PlayerWatch'
p747
sa(dp748
g2
S'http://www.reuters.com/article/bbo-mariners-playerwatch-idUSMTZEB9QAN9PB720150926'
p749
sg4
S'20150927\xc2\xa01:01PM UTC'
p750
sg6
S'Seattle Mariners - PlayerWatch'
p751
sa(dp752
g2
S'http://www.reuters.com/article/bbo-tigers-playerwatch-idUSMTZEB9QAN9PB620150926'
p753
sg4
S'20150927\xc2\xa01:01PM UTC'
p754
sg6
S'Detroit Tigers - PlayerWatch'
p755
sa(dp756
g2
S'http://www.reuters.com/article/cricket-australia-bangladesh-idUSKCN0RQ0CD20150926'
p757
sg4
S'20150927\xc2\xa01:00PM UTC'
p758
sg6
S'Australia delays Bangladesh tour over security risk'
p759
sa(dp760
g2
S'http://www.reuters.com/article/ut-salt-lake-comic-con-idUSnBw265038a+100+BSW20150926'
p761
sg4
S'20150927\xc2\xa012:49PM UTC'
p762
sg6
S'1784! Salt Lake Comic Con\xe2\x80\x99s Magic Number for New Guinness World Record'
p763
sa(dp764
g2
S'http://www.reuters.com/article/saudi-haj-toll-idUSKCN0RQ0FD20150926'
p765
sg4
S'20150927\xc2\xa012:46PM UTC'
p766
sg6
S'Haj death toll rises to 769, Iran denounces "crime"'
p767
sa(dp768
g2
S'http://www.reuters.com/article/fashion-milan-scervino-idUSL5N11W0CK20150926'
p769
sg4
S'20150927\xc2\xa012:44PM UTC'
p770
sg6
S'Ermanno Scervino mixes lace and floral motifs for spring'
p771
sa(dp772
g2
S'http://www.reuters.com/article/ca-ahf-billboard-idUSnBw265036a+100+BSW20150926'
p773
sg4
S'20150927\xc2\xa012:32PM UTC'
p774
sg6
S'AHF: Tinder Is Thin Skinned About Chlamydia Risks'
p775
sa(dp776
g2
S'http://www.reuters.com/article/us-russia-iran-contracts-idUSKCN0RQ0KX20150926'
p777
sg4
S'20150927\xc2\xa012:30PM UTC'
p778
sg6
S'Iran to buy $21 billion in Russian space equipment and aircraft: Sputnik'
p779
sa(dp780
g2
S'http://www.reuters.com/article/us-salzgitter-aurubis-idUSKCN0RQ0KV20150926'
p781
sg4
S'20150927\xc2\xa012:27PM UTC'
p782
sg6
S'Salzgitter CEO sees eventual merger with Aurubis'
p783
sa(dp784
g2
S'http://www.reuters.com/article/us-un-assembly-china-idUSKCN0RQ0HW20150926'
p785
sg4
S'20150927\xc2\xa012:24PM UTC'
p786
sg6
S'China pledges $2 billion to help poor states meet U.N. goals'
p787
sa(dp788
g2
S'http://www.reuters.com/article/bayer-covestro-idUSL5N11W0DR20150926'
p789
sg4
S'20150927\xc2\xa012:15PM UTC'
p790
sg6
S"Bayer's Covestro CFO says on course for flotation"
p791
sa(dp792
g2
S'http://www.reuters.com/article/angola-ratings-idUSL5N11W0C920150926'
p793
sg4
S'20150927\xc2\xa012:12PM UTC'
p794
sg6
S'Angola plays down Fitch downgrade, cites stable outlook'
p795
sa(dp796
g2
S'http://www.reuters.com/article/russia-iran-contracts-idUSL5N11W0DC20150926'
p797
sg4
S'20150927\xc2\xa012:05PM UTC'
p798
sg6
S'Iran to buy $21 bln in Russian space equipment and aircraft - Sputnik'
p799
sa(dp800
g2
S'http://www.reuters.com/article/un-assembly-china-idUSL1N11W0BE20150926'
p801
sg4
S'20150927\xc2\xa011:58AM UTC'
p802
sg6
S'UPDATE 1-China pledges $2 bln to help poor states meet U.N. goals'
p803
sa(dp804
g2
S'http://www.reuters.com/article/pope-usa-idUSL1N11W09B20150926'
p805
sg4
S'20150927\xc2\xa011:54AM UTC'
p806
sg6
S'UPDATE 1-Pope moved by impromptu flight over Statue of Liberty, Ellis Island'
p807
sa(dp808
g2
S'http://www.reuters.com/article/mn-unitedhealthcare-idUSnBw265034a+100+BSW20150926'
p809
sg4
S'20150927\xc2\xa011:53AM UTC'
p810
sg6
S'First UnitedHealthcare IRONKIDS\xc2\xae Augusta Fun Run Motivates Local Youth to Lead Active, Healthy Lifestyles'
p811
sa(dp812
g2
S'http://www.reuters.com/article/canada-election-idUSL1N11W09U20150926'
p813
sg4
S'20150927\xc2\xa011:49AM UTC'
p814
sg6
S'Canada opposition Liberals vow crackdown on tax loopholes'
p815
sa(dp816
g2
S'http://www.reuters.com/article/us-russia-poland-diplomacy-idUSKCN0RQ0EV20150926'
p817
sg4
S'20150927\xc2\xa011:39AM UTC'
p818
sg6
S'Poland to summon Russian envoy as diplomatic spat drags on'
p819
sa(dp820
g2
S'http://www.reuters.com/article/fashion-milan-cavalli-idUSL5N11W09V20150926'
p821
sg4
S'20150927\xc2\xa011:21AM UTC'
p822
sg6
S'Dundas brings fresh take on Cavalli womenswear in debut line'
p823
sa(dp824
g2
S'http://www.reuters.com/article/idUSnGNX4sP5hg+1c8+GNW20150926'
p825
sg4
S'20150927\xc2\xa011:15AM UTC'
p826
sg6
S'Aduro Biotech Announces Phase 1b Mesothelioma Trial Featured in Spotlight Poster at ESMO/ECC'
p827
sa(dp828
g2
S'http://www.reuters.com/article/un-assembly-china-idUSL1N11W0AY20150926'
p829
sg4
S'20150927\xc2\xa011:01AM UTC'
p830
sg6
S'China pledges $2 bln to help development of poor countries'
p831
sa(dp832
g2
S'http://www.reuters.com/article/us-soccer-fifa-ali-idUSKCN0RQ0E520150926'
p833
sg4
S'20150927\xc2\xa011:00AM UTC'
p834
sg6
S"FIFA has been 'decimated' by scandals, says Prince Ali"
p835
sa(dp836
g2
S'http://www.reuters.com/article/un-assembly-usa-iran-idUSL1N11W0AO20150926'
p837
sg4
S'20150927\xc2\xa010:56AM UTC'
p838
sg6
S"Kerry says sees chance for Syria progress as meets Iran's Zarif"
p839
sa(dp840
g2
S'http://www.reuters.com/article/idUSnGNX6RzXmJ+1d5+GNW20150926'
p841
sg4
S'20150927\xc2\xa010:45AM UTC'
p842
sg6
S'NewLink Genetics Corporation Announces Promising Phase 1b Data From the Combination of Indoximod and Ipilimumab in Melanoma at European Cancer Congress 2015 (ECC)'
p843
sa(dp844
g2
S'http://www.reuters.com/article/soccer-tottenham-manchestercity-idUSKCN0RQ0FQ20150926'
p845
sg4
S'20150927\xc2\xa010:38AM UTC'
p846
sg6
S'Tottenham put four past Man City in comeback win'
p847
sa(dp848
g2
S'http://www.reuters.com/article/us-russia-estonia-idUSKCN0RQ0GU20150926'
p849
sg4
S'20150927\xc2\xa010:35AM UTC'
p850
sg6
S'Russia and Estonia swap alleged spies'
p851
sa(dp852
g2
S'http://www.reuters.com/article/us-daimler-software-idUSKCN0RQ0GA20150926'
p853
sg4
S'20150927\xc2\xa010:15AM UTC'
p854
sg6
S'Daimler says German truck software update is no recall'
p855
sa(dp856
g2
S'http://www.reuters.com/article/us-usa-aids-africa-idUSKCN0RQ0G420150926'
p857
sg4
S'20150927\xc2\xa010:14AM UTC'
p858
sg6
S'U.S. says to spend $300 million to fight HIV in Africa'
p859
sa(dp860
g2
S'http://www.reuters.com/article/albania-eurobonds-roadshow-idUSL5N11W09B20150926'
p861
sg4
S'20150927\xc2\xa010:09AM UTC'
p862
sg6
S'Albania to start road show Monday for 300-500 mln euro Eurobond'
p863
sa(dp864
g2
S'http://www.reuters.com/article/us-saudi-security-idUSKCN0RQ0DW20150926'
p865
sg4
S'20150927\xc2\xa010:03AM UTC'
p866
sg6
S'Islamic State suspect, Saudi soldier killed in shoot-out in desert north'
p867
sa(dp868
g2
S'http://www.reuters.com/article/usa-aids-africa-idUSL1N11W0A520150926'
p869
sg4
S'20150927\xc2\xa010:02AM UTC'
p870
sg6
S'U.S. says to spend $300 mln to fight HIV in Africa'
p871
sa(dp872
g2
S'http://www.reuters.com/article/idUSnMKW8rwpJa+1c2+MKW20150926'
p873
sg4
S'20150927\xc2\xa010:00AM UTC'
p874
sg6
S"REMINDER/MEDIA ADVISORY: Construction Cranes to Dance Over Downtown, in Nuit Blanche Edmonton's Dance of the Cranes Presented by Ice District"
p875
sa(dp876
g2
S'http://www.reuters.com/article/daimler-software-idUSL5N11W0A720150926'
p877
sg4
S'20150927\xc2\xa09:57AM UTC'
p878
sg6
S'Daimler says German truck software update is no recall'
p879
sa(dp880
g2
S'http://www.reuters.com/article/volkswagen-emissions-eu-idUSL5N11W06S20150926'
p881
sg4
S'20150927\xc2\xa09:52AM UTC'
p882
sg6
S'EU could toughen car emission tests after VW scandal - officials'
p883
sa(dp884
g2
S'http://www.reuters.com/article/us-france-carfreeday-idUSKCN0RQ0F120150926'
p885
sg4
S'20150927\xc2\xa09:45AM UTC'
p886
sg6
S'Paris goes car-free for a day on Sunday'
p887
sa(dp888
g2
S'http://www.reuters.com/article/france-carfreeday-idUSL5N11W06V20150926'
p889
sg4
S'20150927\xc2\xa09:41AM UTC'
p890
sg6
S'Paris goes car-free for a day on Sunday'
p891
sa(dp892
g2
S'http://www.reuters.com/article/nsr-invest-monja-idUSnPn3BKtf6+98+PRN20150926'
p893
sg4
S'20150927\xc2\xa09:07AM UTC'
p894
sg6
S'NSR Invest and MonJa Announce Strategic Partnership'
p895
sa(dp896
g2
S'http://www.reuters.com/article/nepal-india-border-constitution-protests-idUSKCN0RQ0AI20150926'
p897
sg4
S'20150927\xc2\xa08:50AM UTC'
p898
sg6
S'Nepal considers fuel rationing as protesters block trucks'
p899
sa(dp900
g2
S'http://www.reuters.com/article/dc-anthonykearns-pope-idUSnPn3q2x7Y+81+PRN20150926'
p901
sg4
S'20150927\xc2\xa08:49AM UTC'
p902
sg6
S'Tenor Anthony Kearns to Perform at Pre-Mass Concert in Honor of His Holiness, Pope Francis, in Philadelphia on Sun., Sept. 27, 2015 at approx. 3:15 p.m.'
p903
sa(dp904
g2
S'http://www.reuters.com/article/us-nepal-india-border-idUSKCN0RQ0BD20150926'
p905
sg4
S'20150927\xc2\xa08:48AM UTC'
p906
sg6
S'Nepal considers fuel rationing as protesters block trucks'
p907
sa(dp908
g2
S'http://www.reuters.com/article/us-fsb-banks-reform-idUSKCN0RP2F020150926'
p909
sg4
S'20150927\xc2\xa08:36AM UTC'
p910
sg6
S'Global regulators reach agreement on bail-in bonds plan for top banks'
p911
sa(dp912
g2
S'http://www.reuters.com/article/fsb-banks-reform-idUSL1N11W08W20150926'
p913
sg4
S'20150927\xc2\xa08:34AM UTC'
p914
sg6
S'UPDATE 1-Global regulators reach agreement on bail-in bonds plan for top banks'
p915
sa(dp916
g2
S'http://www.reuters.com/article/us-usa-china-idUSKCN0RO2HQ20150926'
p917
sg4
S'20150927\xc2\xa08:19AM UTC'
p918
sg6
S"Obama announces 'understanding' with China's Xi on cyber theft but remains wary"
p919
sa(dp920
g2
S'http://www.reuters.com/article/us-usa-boehner-idUSKCN0RP1GT20150926'
p921
sg4
S'20150927\xc2\xa08:04AM UTC'
p922
sg6
S'Under pressure from the right, House Speaker Boehner quits'
p923
sa(dp924
g2
S'http://www.reuters.com/article/idUSnCCNbjJzHW+1cb+MKW20150926'
p925
sg4
S'20150927\xc2\xa08:01AM UTC'
p926
sg6
S'Visa and The Princess Margaret Cancer Foundation Set to Score With Future of Fundraising Pilot Project'
p927
sa(dp928
g2
S'http://www.reuters.com/article/fl-modernizing-medicine-idUSnBw265010a+100+BSW20150926'
p929
sg4
S'20150927\xc2\xa08:00AM UTC'
p930
sg6
S'Modernizing Medicine Showcases Latest Advancements to EMA Otolaryngology\xc2\xae at the American Academy of Otolaryngology-Head and Neck Surgery Meeting and OTO Expo 2015'
p931
sa(dp932
g2
S'http://www.reuters.com/article/us-telecomitalia-inwit-idUSKCN0RQ0C920150926'
p933
sg4
S'20150927\xc2\xa07:24AM UTC'
p934
sg6
S'Telecom Italia wants to close Inwit sale or merger by year-end: sources'
p935
sa(dp936
g2
S'http://www.reuters.com/article/iraq-oil-turkey-idUSL5N11W07Q20150926'
p937
sg4
S'20150927\xc2\xa07:23AM UTC'
p938
sg6
S'UPDATE 1-Oil exports from northern Iraq to Turkey restart - Kurdish ministry'
p939
sa(dp940
g2
S'http://www.reuters.com/article/us-usa-texas-judge-idUSKCN0RQ0C720150926'
p941
sg4
S'20150927\xc2\xa07:20AM UTC'
p942
sg6
S'Questions raised after shock belt used at Texas murder trial'
p943
sa(dp944
g2
S'http://www.reuters.com/article/idUSnGNX10Q1WS+1cb+GNW20150926'
p945
sg4
S'20150927\xc2\xa07:18AM UTC'
p946
sg6
S'INNATE PHARMA : Presentation of IPH4102 rationale and Phase I design at EORTC cutaneous lymphoma meeting'
p947
sa(dp948
g2
S'http://www.reuters.com/article/us-usa-education-sex-idUSKCN0RQ0C220150926'
p949
sg4
S'20150927\xc2\xa07:17AM UTC'
p950
sg6
S'New England prep schools overhaul sex ed programs after rape trial'
p951
sa(dp952
g2
S'http://www.reuters.com/article/telecomitalia-inwit-idUSL5N11W07D20150926'
p953
sg4
S'20150927\xc2\xa07:16AM UTC'
p954
sg6
S'Telecom Italia wants to close Inwit sale or merger by year-end -sources'
p955
sa(dp956
g2
S'http://www.reuters.com/article/fbc-ballstate-northwestern-preview-idUSMTZEB9QA6NMAX20150926'
p957
sg4
S'20150927\xc2\xa07:02AM UTC'
p958
sg6
S'Preview: Ball State at Northwestern'
p959
sa(dp960
g2
S'http://www.reuters.com/article/fbc-oklahomastate-texas-preview-idUSMTZEB9QA6NMAW20150926'
p961
sg4
S'20150927\xc2\xa07:02AM UTC'
p962
sg6
S'Preview: Oklahoma State at Texas'
p963
sa(dp964
g2
S'http://www.reuters.com/article/bbo-mariners-angels-preview-idUSMTZEB9QA6NMAV20150926'
p965
sg4
S'20150927\xc2\xa07:02AM UTC'
p966
sg6
S'Preview: Mariners at Angels'
p967
sa(dp968
g2
S'http://www.reuters.com/article/fbc-missouri-kentucky-preview-idUSMTZEB9QA6NMAU20150926'
p969
sg4
S'20150927\xc2\xa07:02AM UTC'
p970
sg6
S'Preview: Missouri at Kentucky'
p971
sa(dp972
g2
S'http://www.reuters.com/article/bbo-pirates-cubs-preview-idUSMTZEB9QA6NMAT20150926'
p973
sg4
S'20150927\xc2\xa07:02AM UTC'
p974
sg6
S'Preview: Pirates at Cubs'
p975
sa(dp976
g2
S'http://www.reuters.com/article/fbc-middletennessee-illinois-preview-idUSMTZEB9QA6NMAS20150926'
p977
sg4
S'20150927\xc2\xa07:02AM UTC'
p978
sg6
S'Preview: Middle Tennessee at Illinois'
p979
sa(dp980
g2
S'http://www.reuters.com/article/bbo-rays-bluejays-preview-idUSMTZEB9QA6NMAR20150926'
p981
sg4
S'20150927\xc2\xa07:02AM UTC'
p982
sg6
S'Preview: Rays at Blue Jays'
p983
sa(dp984
g2
S'http://www.reuters.com/article/fbc-tennessee-florida-preview-idUSMTZEB9QA6NLAQ20150926'
p985
sg4
S'20150927\xc2\xa07:02AM UTC'
p986
sg6
S'Preview: Tennessee at Florida'
p987
sa(dp988
g2
S'http://www.reuters.com/article/fbc-hawaii-wisconsin-preview-idUSMTZEB9QA6NLAP20150926'
p989
sg4
S'20150927\xc2\xa07:02AM UTC'
p990
sg6
S'Preview: Hawaii at Wisconsin'
p991
sa(dp992
g2
S'http://www.reuters.com/article/fbc-utah-oregon-preview-idUSMTZEB9QA6NLAO20150926'
p993
sg4
S'20150927\xc2\xa07:02AM UTC'
p994
sg6
S'Preview: Utah at Oregon'
p995
sa(dp996
g2
S'http://www.reuters.com/article/bbo-phillies-nationals-preview-idUSMTZEB9QA6NLAN20150926'
p997
sg4
S'20150927\xc2\xa07:02AM UTC'
p998
sg6
S'Preview: Phillies at Nationals'
p999
sa(dp1000
g2
S'http://www.reuters.com/article/fbc-rice-baylor-preview-idUSMTZEB9QA6NLAM20150926'
p1001
sg4
S'20150927\xc2\xa07:02AM UTC'
p1002
sg6
S'Preview: Rice at Baylor'
p1003
sa(dp1004
g2
S'http://www.reuters.com/article/fbc-centralflorida-southcarolina-preview-idUSMTZEB9QA6NLAL20150926'
p1005
sg4
S'20150927\xc2\xa07:02AM UTC'
p1006
sg6
S'Preview: UCF at South Carolina'
p1007
sa(dp1008
g2
S'http://www.reuters.com/article/fbc-northtexas-iowa-preview-idUSMTZEB9QA6NLAJ20150926'
p1009
sg4
S'20150927\xc2\xa07:02AM UTC'
p1010
sg6
S'Preview: North Texas at Iowa'
p1011
sa(dp1012
g2
S'http://www.reuters.com/article/fbc-sandiegostate-pennstate-preview-idUSMTZEB9QA6NKAI20150926'
p1013
sg4
S'20150927\xc2\xa07:02AM UTC'
p1014
sg6
S'Preview: San Diego State at Penn State'
p1015
sa(dp1016
g2
S'http://www.reuters.com/article/bbo-dodgers-rockies-preview-idUSMTZEB9QA6NKAE20150926'
p1017
sg4
S'20150927\xc2\xa07:02AM UTC'
p1018
sg6
S'Preview: Dodgers at Rockies'
p1019
sa(dp1020
g2
S'http://www.reuters.com/article/fbc-brighamyoung-michigan-preview-idUSMTZEB9QA6NKAD20150926'
p1021
sg4
S'20150927\xc2\xa07:02AM UTC'
p1022
sg6
S'Preview: BYU at Michigan'
p1023
sa(dp1024
g2
S'http://www.reuters.com/article/fbc-virginiatech-eastcarolina-preview-idUSMTZEB9QA6NKAC20150926'
p1025
sg4
S'20150927\xc2\xa07:02AM UTC'
p1026
sg6
S'Preview: Virginia Tech at East Carolina'
p1027
sa(dp1028
g2
S'http://www.reuters.com/article/bbo-rangers-astros-preview-idUSMTZEB9QA6NKAA20150926'
p1029
sg4
S'20150927\xc2\xa07:02AM UTC'
p1030
sg6
S'Preview: Rangers at Astros'
p1031
sa(dp1032
g2
S'http://www.reuters.com/article/bbo-diamondbacks-padres-preview-idUSMTZEB9QA6NKA920150926'
p1033
sg4
S'20150927\xc2\xa07:02AM UTC'
p1034
sg6
S'Preview: Diamondbacks at Padres'
p1035
sa(dp1036
g2
S'http://www.reuters.com/article/bbo-orioles-redsox-preview-idUSMTZEB9QA6NJA820150926'
p1037
sg4
S'20150927\xc2\xa07:02AM UTC'
p1038
sg6
S'Preview: Orioles at Red Sox'
p1039
sa(dp1040
g2
S'http://www.reuters.com/article/fbc-massachusetts-notredame-preview-idUSMTZEB9QA6NKAH20150926'
p1041
sg4
S'20150927\xc2\xa07:02AM UTC'
p1042
sg6
S'Preview: Massachusetts at Notre Dame'
p1043
sa(dp1044
g2
S'http://www.reuters.com/article/fbc-california-washington-preview-idUSMTZEB9QA6NKAG20150926'
p1045
sg4
S'20150927\xc2\xa07:02AM UTC'
p1046
sg6
S'Preview: California at Washington'
p1047
sa(dp1048
g2
S'http://www.reuters.com/article/fbc-ohio-minnesota-preview-idUSMTZEB9QA6NKAF20150926'
p1049
sg4
S'20150927\xc2\xa07:02AM UTC'
p1050
sg6
S'Preview: Ohio at Minnesota'
p1051
sa(dp1052
g2
S'http://www.reuters.com/article/bbo-whitesox-yankees-preview-idUSMTZEB9QA6NJA120150926'
p1053
sg4
S'20150927\xc2\xa07:02AM UTC'
p1054
sg6
S'Preview: White Sox at Yankees'
p1055
sa(dp1056
g2
S'http://www.reuters.com/article/fbc-centralmichigan-michiganstate-previe-idUSMTZEB9QA6NJ9Z20150926'
p1057
sg4
S'20150927\xc2\xa07:02AM UTC'
p1058
sg6
S'Preview: Central Michigan at Michigan State'
p1059
sa(dp1060
g2
S'http://www.reuters.com/article/fbc-bowlinggreen-purdue-preview-idUSMTZEB9QA6NI9Y20150926'
p1061
sg4
S'20150927\xc2\xa07:02AM UTC'
p1062
sg6
S'Preview: Bowling Green at Purdue'
p1063
sa(dp1064
g2
S'http://www.reuters.com/article/fbc-kansas-rutgers-preview-idUSMTZEB9QA6NJA720150926'
p1065
sg4
S'20150927\xc2\xa07:02AM UTC'
p1066
sg6
S'Preview: Kansas at Rutgers'
p1067
sa(dp1068
g2
S'http://www.reuters.com/article/bbo-indians-royals-preview-idUSMTZEB9QA6NJA620150926'
p1069
sg4
S'20150927\xc2\xa07:02AM UTC'
p1070
sg6
S'Preview: Indians at Royals'
p1071
sa(dp1072
g2
S'http://www.reuters.com/article/fbc-ulmonroe-alabama-preview-idUSMTZEB9QA6NJA520150926'
p1073
sg4
S'20150927\xc2\xa07:02AM UTC'
p1074
sg6
S'Preview: ULM at Alabama'
p1075
sa(dp1076
g2
S'http://www.reuters.com/article/bbo-twins-tigers-preview-idUSMTZEB9QA6NJA320150926'
p1077
sg4
S'20150927\xc2\xa07:02AM UTC'
p1078
sg6
S'Preview: Twins at Tigers'
p1079
sa(dp1080
g2
S'http://www.reuters.com/article/fbc-georgiatech-duke-preview-idUSMTZEB9QA6NJA220150926'
p1081
sg4
S'20150927\xc2\xa07:02AM UTC'
p1082
sg6
S'Preview: Georgia Tech at Duke'
p1083
sa(dp1084
g2
S'http://www.reuters.com/article/fbc-ucla-arizona-preview-idUSMTZEB9QA6NI9W20150926'
p1085
sg4
S'20150927\xc2\xa07:02AM UTC'
p1086
sg6
S'Preview: UCLA at Arizona'
p1087
sa(dp1088
g2
S'http://www.reuters.com/article/fbc-mississippistate-auburn-preview-idUSMTZEB9QA6NI9V20150926'
p1089
sg4
S'20150927\xc2\xa07:02AM UTC'
p1090
sg6
S'Preview: Mississippi State at Auburn'
p1091
sa(dp1092
g2
S'http://www.reuters.com/article/bbo-brewers-cardinals-preview-idUSMTZEB9QA6NI9T20150926'
p1093
sg4
S'20150927\xc2\xa07:02AM UTC'
p1094
sg6
S'Preview: Brewers at Cardinals'
p1095
sa(dp1096
g2
S'http://www.reuters.com/article/bbo-mets-reds-preview-idUSMTZEB9QA6NI9S20150926'
p1097
sg4
S'20150927\xc2\xa07:02AM UTC'
p1098
sg6
S'Preview: Mets at Reds'
p1099
sa(dp1100
g2
S'http://www.reuters.com/article/bbo-braves-marlins-preview-idUSMTZEB9QA6NI9R20150926'
p1101
sg4
S'20150927\xc2\xa07:02AM UTC'
p1102
sg6
S'Preview: Braves at Marlins'
p1103
sa(dp1104
g2
S'http://www.reuters.com/article/fbc-southernmississippi-nebraska-preview-idUSMTZEB9QA6NH9N20150926'
p1105
sg4
S'20150927\xc2\xa07:02AM UTC'
p1106
sg6
S'Preview: Southern Mississippi at Nebraska'
p1107
sa(dp1108
g2
S'http://www.reuters.com/article/fbc-northernillinois-bostoncollege-previ-idUSMTZEB9QA6NH9M20150926'
p1109
sg4
S'20150927\xc2\xa07:02AM UTC'
p1110
sg6
S'Preview: Northern Illinois at Boston College'
p1111
sa(dp1112
g2
S'http://www.reuters.com/article/fbc-maryland-westvirginia-preview-idUSMTZEB9QA6NH9J20150926'
p1113
sg4
S'20150927\xc2\xa07:02AM UTC'
p1114
sg6
S'Preview: Maryland at West Virginia'
p1115
sa(dp1116
g2
S'http://www.reuters.com/article/fbc-westernmichigan-ohiostate-preview-idUSMTZEB9QA6NH9P20150926'
p1117
sg4
S'20150927\xc2\xa07:02AM UTC'
p1118
sg6
S'Preview: Western Michigan at Ohio State'
p1119
sa(dp1120
g2
S'http://www.reuters.com/article/fbc-indiana-wakeforest-preview-idUSMTZEB9QA6NH9O20150926'
p1121
sg4
S'20150927\xc2\xa07:02AM UTC'
p1122
sg6
S'Preview: Indiana at Wake Forest'
p1123
sa(dp1124
g2
S'http://www.reuters.com/article/idUSnHUG9hNFr0+1cc+ONE20150926'
p1125
sg4
S'20150927\xc2\xa07:00AM UTC'
p1126
sg6
S'REG-INNATE PHARMA : Presentation of IPH4102 rationale and Phase I design at EORTC cutaneous lymphoma meeting'
p1127
sa(dp1128
g2
S'http://www.reuters.com/article/nj-merck-idUSnBw265018a+100+BSW20150926'
p1129
sg4
S'20150927\xc2\xa07:00AM UTC'
p1130
sg6
S'New Findings Show Anti-Tumor Activity of KEYTRUDA\xc2\xae (pembrolizumab) in Patients with Advanced Nasopharyngeal Carcinoma'
p1131
sa(dp1132
g2
S'http://www.reuters.com/article/ca-triphase-accelerator-idUSnBw265006a+100+BSW20150926'
p1133
sg4
S'20150927\xc2\xa07:00AM UTC'
p1134
sg6
S'Triphase Accelerator Corporation Announces Phase 1 Study Results with Marizomib in Combination with Pomalidomide and Dexamethasone in Patients with Relapsed and Refractory Multiple Myeloma'
p1135
sa(dp1136
g2
S'http://www.reuters.com/article/volkswagen-emissions-germany-politics-in-idUSL5N11V1Q120150926'
p1137
sg4
S'20150927\xc2\xa07:00AM UTC'
p1138
sg6
S'INSIGHT-VW scandal exposes cozy ties between industry and Berlin'
p1139
sa(dp1140
g2
S'http://www.reuters.com/article/us-pakistan-executions-idUSKCN0RQ0BF20150926'
p1141
sg4
S'20150927\xc2\xa06:55AM UTC'
p1142
sg6
S'Pakistan to hang man who claims he was 15 at time of crime'
p1143
sa(dp1144
g2
S'http://www.reuters.com/article/iraq-oil-turkey-idUSL5N11W06Z20150926'
p1145
sg4
S'20150927\xc2\xa06:54AM UTC'
p1146
sg6
S'RPT-Oil exports from northern Iraq to Turkey restart - Kurdistan resources ministry'
p1147
sa(dp1148
g2
S'http://www.reuters.com/article/us-mideast-crisis-usa-equipment-idUSKCN0RP2HO20150926'
p1149
sg4
S'20150927\xc2\xa06:49AM UTC'
p1150
sg6
S'U.S.-trained Syrian rebels gave equipment to Nusra: U.S. military'
p1151
sa(dp1152
g2
S'http://www.reuters.com/article/fast-retailing-china-idUSL4N11V1W720150926'
p1153
sg4
S'20150927\xc2\xa06:44AM UTC'
p1154
sg6
S'Uniqlo-owner Fast Retailing sees "absolutely" no impact from China slowdown - CEO'
p1155
sa(dp1156
g2
S'http://www.reuters.com/article/ma-polartec-idUSnBw265003a+100+BSW20150926'
p1157
sg4
S'20150927\xc2\xa06:35AM UTC'
p1158
sg6
S'Polartec Takes over Harvard Square to Showcase Recycled Materials in Eastern Mountain Sports Garments'
p1159
sa(dp1160
g2
S'http://www.reuters.com/article/ma-epizyme-idUSnBw265001a+100+BSW20150926'
p1161
sg4
S'20150927\xc2\xa06:35AM UTC'
p1162
sg6
S'Epizyme to Present Clinical Data from Ongoing Phase 1 Dose Escalation Trial of Tazemetostat (EPZ-6438) at the European Cancer Congress'
p1163
sa(dp1164
g2
S'http://www.reuters.com/article/us-yemen-security-saudi-idUSKCN0RQ0AH20150926'
p1165
sg4
S'20150927\xc2\xa06:32AM UTC'
p1166
sg6
S'Saudi border officers killed in attack from Yemen: Saudi ministry'
p1167
sa(dp1168
g2
S'http://www.reuters.com/article/russia-ukraine-gas-idUSL5N11W05A20150926'
p1169
sg4
S'20150927\xc2\xa06:31AM UTC'
p1170
sg6
S'UPDATE 1-Ukraine to pay around $230/tcm for gas in Q4 - Russian energy minister'
p1171
sa(dp1172
g2
S'http://www.reuters.com/article/us-yemen-saudi-security-idUSKCN0RQ09P20150926'
p1173
sg4
S'20150927\xc2\xa06:02AM UTC'
p1174
sg6
S'Saudi border guard officers killed in attack from Yemen - Saudi ministry'
p1175
sa(dp1176
g2
S'http://www.reuters.com/article/us-tennis-women-guangzhou-idUSKCN0RQ09E20150926'
p1177
sg4
S'20150927\xc2\xa05:54AM UTC'
p1178
sg6
S'Jankovic beats Allertova in Guangzhou final'
p1179
sa(dp1180
g2
S'http://www.reuters.com/article/bbo-nationals-teamreport-idUSMTZEB9QA3HI6B20150926'
p1181
sg4
S'20150927\xc2\xa05:53AM UTC'
p1182
sg6
S'Washington Nationals - TeamReport'
p1183
sa(dp1184
g2
S'http://www.reuters.com/article/bbo-rays-teamreport-idUSMTZEB9QA3HE6720150926'
p1185
sg4
S'20150927\xc2\xa05:53AM UTC'
p1186
sg6
S'Tampa Bay Rays - TeamReport'
p1187
sa(dp1188
g2
S'http://www.reuters.com/article/bbo-cardinals-teamreport-idUSMTZEB9QA3HE6620150926'
p1189
sg4
S'20150927\xc2\xa05:53AM UTC'
p1190
sg6
S'St. Louis Cardinals - TeamReport'
p1191
sa(dp1192
g2
S'http://www.reuters.com/article/bbo-rangers-teamreport-idUSMTZEB9QA3HE6520150926'
p1193
sg4
S'20150927\xc2\xa05:53AM UTC'
p1194
sg6
S'Texas Rangers - TeamReport'
p1195
sa(dp1196
g2
S'http://www.reuters.com/article/bbo-mariners-teamreport-idUSMTZEB9QA3HE6A20150926'
p1197
sg4
S'20150927\xc2\xa05:53AM UTC'
p1198
sg6
S'Seattle Mariners - TeamReport'
p1199
sa(dp1200
g2
S'http://www.reuters.com/article/bbo-bluejays-teamreport-idUSMTZEB9QA3HE6820150926'
p1201
sg4
S'20150927\xc2\xa05:53AM UTC'
p1202
sg6
S'Toronto Blue Jays - TeamReport'
p1203
sa(dp1204
g2
S'http://www.reuters.com/article/bbo-pirates-teamreport-idUSMTZEB9QA3H96420150926'
p1205
sg4
S'20150927\xc2\xa05:53AM UTC'
p1206
sg6
S'Pittsburgh Pirates - TeamReport'
p1207
sa(dp1208
g2
S'http://www.reuters.com/article/bbo-phillies-teamreport-idUSMTZEB9QA3H96320150926'
p1209
sg4
S'20150927\xc2\xa05:53AM UTC'
p1210
sg6
S'Philadelphia Phillies - TeamReport'
p1211
sa(dp1212
g2
S'http://www.reuters.com/article/bbo-padres-teamreport-idUSMTZEB9QA3H96120150926'
p1213
sg4
S'20150927\xc2\xa05:53AM UTC'
p1214
sg6
S'San Diego Padres - TeamReport'
p1215
sa(dp1216
g2
S'http://www.reuters.com/article/bbo-yankees-teamreport-idUSMTZEB9QA3H96020150926'
p1217
sg4
S'20150927\xc2\xa05:53AM UTC'
p1218
sg6
S'New York Yankees - TeamReport'
p1219
sa(dp1220
g2
S'http://www.reuters.com/article/bbo-angels-teamreport-idUSMTZEB9QA3H55V20150926'
p1221
sg4
S'20150927\xc2\xa05:53AM UTC'
p1222
sg6
S'Los Angeles Angels - TeamReport'
p1223
sa(dp1224
g2
S'http://www.reuters.com/article/bbo-mets-teamreport-idUSMTZEB9QA3H55U20150926'
p1225
sg4
S'20150927\xc2\xa05:53AM UTC'
p1226
sg6
S'New York Mets - TeamReport'
p1227
sa(dp1228
g2
S'http://www.reuters.com/article/bbo-marlins-teamreport-idUSMTZEB9QA3H55Z20150926'
p1229
sg4
S'20150927\xc2\xa05:53AM UTC'
p1230
sg6
S'Miami Marlins - TeamReport'
p1231
sa(dp1232
g2
S'http://www.reuters.com/article/bbo-twins-teamreport-idUSMTZEB9QA3H55Y20150926'
p1233
sg4
S'20150927\xc2\xa05:53AM UTC'
p1234
sg6
S'Minnesota Twins - TeamReport'
p1235
sa(dp1236
g2
S'http://www.reuters.com/article/bbo-dodgers-teamreport-idUSMTZEB9QA3H55X20150926'
p1237
sg4
S'20150927\xc2\xa05:53AM UTC'
p1238
sg6
S'Los Angeles Dodgers - TeamReport'
p1239
sa(dp1240
g2
S'http://www.reuters.com/article/bbo-brewers-teamreport-idUSMTZEB9QA3H55W20150926'
p1241
sg4
S'20150927\xc2\xa05:53AM UTC'
p1242
sg6
S'Milwaukee Brewers - TeamReport'
p1243
sa(dp1244
g2
S'http://www.reuters.com/article/bbo-rockies-teamreport-idUSMTZEB9QA3GY5T20150926'
p1245
sg4
S'20150927\xc2\xa05:53AM UTC'
p1246
sg6
S'Colorado Rockies - TeamReport'
p1247
sa(dp1248
g2
S'http://www.reuters.com/article/bbo-tigers-teamreport-idUSMTZEB9QA3GX5S20150926'
p1249
sg4
S'20150927\xc2\xa05:53AM UTC'
p1250
sg6
S'Detroit Tigers - TeamReport'
p1251
sa(dp1252
g2
S'http://www.reuters.com/article/bbo-whitesox-teamreport-idUSMTZEB9QA3GX5R20150926'
p1253
sg4
S'20150927\xc2\xa05:53AM UTC'
p1254
sg6
S'Chicago White Sox - TeamReport'
p1255
sa(dp1256
g2
S'http://www.reuters.com/article/bbo-royals-teamreport-idUSMTZEB9QA3GX5Q20150926'
p1257
sg4
S'20150927\xc2\xa05:53AM UTC'
p1258
sg6
S'Kansas City Royals - TeamReport'
p1259
sa(dp1260
g2
S'http://www.reuters.com/article/bbo-astros-teamreport-idUSMTZEB9QA3GX5P20150926'
p1261
sg4
S'20150927\xc2\xa05:53AM UTC'
p1262
sg6
S'Houston Astros - TeamReport'
p1263
sa(dp1264
g2
S'http://www.reuters.com/article/bbo-cubs-teamreport-idUSMTZEB9QA3GX5O20150926'
p1265
sg4
S'20150927\xc2\xa05:53AM UTC'
p1266
sg6
S'Chicago Cubs - TeamReport'
p1267
sa(dp1268
g2
S'http://www.reuters.com/article/bbo-reds-teamreport-idUSMTZEB9QA3GW5K20150926'
p1269
sg4
S'20150927\xc2\xa05:53AM UTC'
p1270
sg6
S'Cincinnati Reds - TeamReport'
p1271
sa(dp1272
g2
S'http://www.reuters.com/article/bbo-redsox-teamreport-idUSMTZEB9QA3GW5J20150926'
p1273
sg4
S'20150927\xc2\xa05:53AM UTC'
p1274
sg6
S'Boston Red Sox - TeamReport'
p1275
sa(dp1276
g2
S'http://www.reuters.com/article/bbo-braves-teamreport-idUSMTZEB9QA3GW5I20150926'
p1277
sg4
S'20150927\xc2\xa05:53AM UTC'
p1278
sg6
S'Atlanta Braves - TeamReport'
p1279
sa(dp1280
g2
S'http://www.reuters.com/article/bbo-diamondbacks-teamreport-idUSMTZEB9QA3GW5N20150926'
p1281
sg4
S'20150927\xc2\xa05:53AM UTC'
p1282
sg6
S'Arizona Diamondbacks - TeamReport'
p1283
sa(dp1284
g2
S'http://www.reuters.com/article/bbo-orioles-teamreport-idUSMTZEB9QA3GW5M20150926'
p1285
sg4
S'20150927\xc2\xa05:53AM UTC'
p1286
sg6
S'Baltimore Orioles - TeamReport'
p1287
sa(dp1288
g2
S'http://www.reuters.com/article/bbo-indians-teamreport-idUSMTZEB9QA3GW5L20150926'
p1289
sg4
S'20150927\xc2\xa05:53AM UTC'
p1290
sg6
S'Cleveland Indians - TeamReport'
p1291
sa(dp1292
g2
S'http://www.reuters.com/article/volvo-idUSnBw265031a+100+BSW20150926'
p1293
sg4
S'20150927\xc2\xa05:51AM UTC'
p1294
sg6
S'Volvo: Electric Buses Can Save Millions of Kronor for Society and the Environment'
p1295
sa(dp1296
g2
S'http://www.reuters.com/article/idUS376712931820150926'
p1297
sg4
S'20150927\xc2\xa05:50AM UTC'
p1298
sg6
S'Majority of Americans support Pope Francis\xe2\x80\x99s call for action on climate: poll'
p1299
sa(dp1300
g2
S'http://www.reuters.com/article/us-tennis-women-seoul-idUSKCN0RQ09420150926'
p1301
sg4
S'20150927\xc2\xa05:49AM UTC'
p1302
sg6
S'Begu and Sasnovich to meet in Korea Open final'
p1303
sa(dp1304
g2
S'http://www.reuters.com/article/idUS391325921320150926'
p1305
sg4
S'20150927\xc2\xa05:42AM UTC'
p1306
sg6
S'Dalai Lama cancels October U.S. visit on doctors\xe2\x80\x99 advice'
p1307
sa(dp1308
g2
S'http://www.reuters.com/article/us-thailand-blast-idUSKCN0RQ08T20150926'
p1309
sg4
S'20150927\xc2\xa05:41AM UTC'
p1310
sg6
S'Thai police lead key suspects to Bangkok bomb site for re-enactment'
p1311
sa(dp1312
g2
S'http://www.reuters.com/article/idUS399837512420150926'
p1313
sg4
S'20150927\xc2\xa05:33AM UTC'
p1314
sg6
S'\xe2\x80\x98Wake Up!\xe2\x80\x99 album mixes Pope Francis speeches with spiced-up hymns'
p1315
sa(dp1316
g2
S'http://www.reuters.com/article/us-zambia-mining-idUSKCN0RQ08B20150926'
p1317
sg4
S'20150927\xc2\xa05:25AM UTC'
p1318
sg6
S'Zambia government to meet mining firms over looming job cuts: minister'
p1319
sa(dp1320
g2
S'http://www.reuters.com/article/epizyme-idUSnBw265029a+100+BSW20150926'
p1321
sg4
S'20150927\xc2\xa05:25AM UTC'
p1322
sg6
S'Epizyme Announces Updated Tazemetostat Phase 1 Data Showing Clinical Activity in a Broader Range of Adults With INI1-Negative and SMARCA4-Negative Solid Tumors'
p1323
sa(dp1324
g2
S'http://www.reuters.com/article/nj-bristol-myers-squibb-idUSnBw265027a+100+BSW20150926'
p1325
sg4
S'20150927\xc2\xa05:24AM UTC'
p1326
sg6
S'Actor Jack Huston Challenges Europeans to Take ACTion Against Lung Cancer'
p1327
sa(dp1328
g2
S'http://www.reuters.com/article/idUS325601153420150926'
p1329
sg4
S'20150927\xc2\xa05:23AM UTC'
p1330
sg6
S'At U.N., Pope Francis condemns \xe2\x80\x9cboundless thirst\xe2\x80\x9d for wealth and power'
p1331
sa(dp1332
g2
S'http://www.reuters.com/article/grains-nidera-cofco-idUSL4N11W04120150926'
p1333
sg4
S'20150927\xc2\xa05:16AM UTC'
p1334
sg6
S"China's COFCO says Nidera biofuel losses won't impact firm's future"
p1335
sa(dp1336
g2
S'http://www.reuters.com/article/idUSnGNX6rQGxT+1cd+GNW20150926'
p1337
sg4
S'20150927\xc2\xa05:04AM UTC'
p1338
sg6
S"Handy Clip, World Patent Marketing's Snappy Handbag Invention, Makes The Rounds at Milan Fashion Week"
p1339
sa(dp1340
g2
S'http://www.reuters.com/article/fashion-milan-versace-idUSL5N11W03V20150926'
p1341
sg4
S'20150927\xc2\xa05:01AM UTC'
p1342
sg6
S'Versace glams up camouflage with animal prints for next spring'
p1343
sa(dp1344
g2
S'http://www.reuters.com/article/idUSnHUG555HJF+1c7+ONE20150926'
p1345
sg4
S'20150927\xc2\xa05:01AM UTC'
p1346
sg6
S"REG-Data Safety Monitoring Board Recommends Continuation of Nexstim Plc's Phase III Stroke Therapy Trial"
p1347
sa(dp1348
g2
S'http://www.reuters.com/article/idUSnMKWqTSgza+1d8+MKW20150926'
p1349
sg4
S'20150927\xc2\xa05:00AM UTC'
p1350
sg6
S'MEDIA ADVISORY/PHOTO OPPORTUNITY: More Than 2,900 Participants & 40 Dogs Walk to Support SickKids'
p1351
sa(dp1352
g2
S'http://www.reuters.com/article/idUSnMKWBhcqpa+1e0+MKW20150926'
p1353
sg4
S'20150927\xc2\xa05:00AM UTC'
p1354
sg6
S'Updated Enzalutamide Data in Triple-Negative Breast Cancer Presented at the 2015 European Cancer Congress'
p1355
sa(dp1356
g2
S'http://www.reuters.com/article/russia-ukraine-gas-idUSL5N11W04R20150926'
p1357
sg4
S'20150927\xc2\xa04:50AM UTC'
p1358
sg6
S'Ukraine to pay around $230/tcm for gas in Q4 - RIA cites Russian energy minister'
p1359
sa(dp1360
g2
S'http://www.reuters.com/article/myanmar-energy-idUSL4N11W03L20150926'
p1361
sg4
S'20150927\xc2\xa04:41AM UTC'
p1362
sg6
S'Myanmar firm and Puma Energy create jet fuel joint venture'
p1363
sa(dp1364
g2
S'http://www.reuters.com/article/us-baseball-cubs-idUSKCN0RQ07B20150926'
p1365
sg4
S'20150927\xc2\xa04:30AM UTC'
p1366
sg6
S'Cubs reach postseason despite losing to Pirates'
p1367
sa(dp1368
g2
S'http://www.reuters.com/article/china-entrepreneurs-financing-idUSL4N11W01D20150926'
p1369
sg4
S'20150927\xc2\xa04:21AM UTC'
p1370
sg6
S'China says to promote equity crowdfunding to support startups'
p1371
sa(dp1372
g2
S'http://www.reuters.com/article/us-warcrimes-mali-idUSKCN0RQ06Z20150926'
p1373
sg4
S'20150927\xc2\xa04:17AM UTC'
p1374
sg6
S'ICC arrests rebel accused of attacking ancient Timbuktu monuments'
p1375
sa(dp1376
g2
S'http://www.reuters.com/article/volkswagen-emissions-strategy-idUSL5N11W04A20150926'
p1377
sg4
S'20150927\xc2\xa04:13AM UTC'
p1378
sg6
S'RPT-New VW boss faces host of problems after emissions scandal'
p1379
sa(dp1380
g2
S'http://www.reuters.com/article/us-baseball-bluejays-idUSKCN0RQ06X20150926'
p1381
sg4
S'20150927\xc2\xa04:12AM UTC'
p1382
sg6
S"Dickey's 100th career win pads Jays' division lead"
p1383
sa(dp1384
g2
S'http://www.reuters.com/article/us-india-sun-pharma-idUSKCN0RQ04T20150926'
p1385
sg4
S'20150927\xc2\xa04:02AM UTC'
p1386
sg6
S"FDA revokes approval for Sun Pharma's seizure drug over compliance issues"
p1387
sa(dp1388
g2
S'http://www.reuters.com/article/us-baseball-mets-idUSKCN0RQ06Q20150926'
p1389
sg4
S'20150927\xc2\xa04:01AM UTC'
p1390
sg6
S'Mets close in on divisional title'
p1391
sa(dp1392
g2
S'http://www.reuters.com/article/motor-racing-japanese-grand-prix-nico-ro-idUSKCN0RQ05720150926'
p1393
sg4
S'20150927\xc2\xa04:01AM UTC'
p1394
sg6
S'Rosberg on pole in Japan after Kvyat crash'
p1395
sa(dp1396
g2
S'http://www.reuters.com/article/india-sun-pharma-idUSKCN0RQ04Z20150926'
p1397
sg4
S'20150927\xc2\xa04:00AM UTC'
p1398
sg6
S"FDA revokes approval for Sun Pharma's seizure drug over compliance issues"
p1399
sa(dp1400
g2
S'http://www.reuters.com/article/india-sun-pharma-idUSL4N11W03F20150926'
p1401
sg4
S'20150927\xc2\xa03:56AM UTC'
p1402
sg6
S"UPDATE 1-FDA revokes approval for Sun Pharma's seizure drug over compliance issues"
p1403
sa(dp1404
g2
S'http://www.reuters.com/article/us-vietnam-media-idUSKCN0RQ03N20150926'
p1405
sg4
S'20150927\xc2\xa03:45AM UTC'
p1406
sg6
S'Vietnam to undergo major state media shakeup by 2020'
p1407
sa(dp1408
g2
S'http://www.reuters.com/article/us-tennis-women-tokyo-idUSKCN0RQ05L20150926'
p1409
sg4
S'20150927\xc2\xa03:43AM UTC'
p1410
sg6
S'Bencic and Radwanska through to Tokyo final'
p1411
sa(dp1412
g2
S'http://www.reuters.com/article/us-volkswagen-emissions-idUSKCN0RP14U20150926'
p1413
sg4
S'20150927\xc2\xa03:34AM UTC'
p1414
sg6
S'Volkswagen picks company veteran to tackle emissions crisis'
p1415
sa(dp1416
g2
S'http://www.reuters.com/article/us-suzuki-motor-volkswagen-idUSKCN0RQ05E20150926'
p1417
sg4
S'20150927\xc2\xa03:33AM UTC'
p1418
sg6
S'Suzuki sells 1.5 percent VW stake to Porsche, to book $300 million gain'
p1419
sa(dp1420
g2
S'http://www.reuters.com/article/suzuki-motor-volkswagen-idUSL4N11W03420150926'
p1421
sg4
S'20150927\xc2\xa03:30AM UTC'
p1422
sg6
S'Suzuki sells 1.5 pct VW stake to Porsche, to book $300 mln gain'
p1423
sa(dp1424
g2
S'http://www.reuters.com/article/idUSnGNX5GmKXT+1d7+GNW20150926'
p1425
sg4
S'20150927\xc2\xa03:10AM UTC'
p1426
sg6
S"HCi Viocare's (OTCQB:VICA) health tech research centre and P&O; clinic opens in Glasgow, UK on the 25th September 2015."
p1427
sa(dp1428
g2
S'http://www.reuters.com/article/usa-india-narendra-modi-facebook-apple-g-idUSKCN0RQ05320150926'
p1429
sg4
S'20150927\xc2\xa03:05AM UTC'
p1430
sg6
S'Modi set to woo tech companies in Silicon Valley'
p1431
sa(dp1432
g2
S'http://www.reuters.com/article/us-usa-india-modi-idUSKCN0RQ05120150926'
p1433
sg4
S'20150927\xc2\xa03:02AM UTC'
p1434
sg6
S"India's Modi set to woo tech companies in Silicon Valley"
p1435
sa(dp1436
g2
S'http://www.reuters.com/article/usa-india-modi-idUSL1N11V1QS20150926'
p1437
sg4
S'20150927\xc2\xa03:00AM UTC'
p1438
sg6
S"India's Modi set to woo tech companies in Silicon Valley"
p1439
sa(dp1440
g2
S'http://www.reuters.com/article/fbc-stanford-oregonstate-writethru-idUSMTZEB9Q9UNO4V20150926'
p1441
sg4
S'20150927\xc2\xa02:52AM UTC'
p1442
sg6
S'No. 21 Stanford runs past Oregon State'
p1443
sa(dp1444
g2
S'http://www.reuters.com/article/us-usa-seaworld-california-idUSKCN0RQ00R20150926'
p1445
sg4
S'20150927\xc2\xa02:50AM UTC'
p1446
sg6
S'SeaWorld clears one California hurdle for expanded orca tanks'
p1447
sa(dp1448
g2
S'http://www.reuters.com/article/bbo-mariners-angels-writethru-idUSMTZEB9Q9RH84H20150926'
p1449
sg4
S'20150927\xc2\xa02:44AM UTC'
p1450
sg6
S'Pujols, Cron homers leads Angels over Mariners'
p1451
sa(dp1452
g2
S'http://www.reuters.com/article/india-sun-pharma-idUSL4N11W02Z20150926'
p1453
sg4
S'20150927\xc2\xa02:42AM UTC'
p1454
sg6
S"India's Sun Pharma says US FDA denies approval to sell epilepsy drug"
p1455
sa(dp1456
g2
S'http://www.reuters.com/article/bbo-giants-athletics-writethru-idUSMTZEB9Q9QET4820150926'
p1457
sg4
S'20150927\xc2\xa02:24AM UTC'
p1458
sg6
S"A's put Giants on brink of elimination"
p1459
sa(dp1460
g2
S'http://www.reuters.com/article/bbo-diamondbacks-padres-writethru-idUSMTZEB9Q9QOX4920150926'
p1461
sg4
S'20150927\xc2\xa02:16AM UTC'
p1462
sg6
S'Pollock powers D-backs past Padres'
p1463
sa(dp1464
g2
S'http://www.reuters.com/article/idUSL4N11W0220150926'
p1465
sg4
S'20150927\xc2\xa01:59AM UTC'
p1466
sg6
S'BRIEF-SPARC gets complete response letter from USFDA for Levetiracetam NDA'
p1467
sa(dp1468
g2
S'http://www.reuters.com/article/idUSnMKW15c2xa+1c0+MKW20150926'
p1469
sg4
S'20150927\xc2\xa01:44AM UTC'
p1470
sg6
S'Transeastern Power Trust and Mediterranean Resources Ltd. Announce Shareholders Approve Proposed Business Combination by Overwhelming Majority'
p1471
sa(dp1472
g2
S'http://www.reuters.com/article/idUSnCCN1MB1qW+1d9+MKW20150926'
p1473
sg4
S'20150927\xc2\xa01:44AM UTC'
p1474
sg6
S'Transeastern Power Trust and Mediterranean Resources Ltd. Announce Shareholders Approve Proposed Business Combination by Overwhelming Majority'
p1475
sa(dp1476
g2
S'http://www.reuters.com/article/bbo-rangers-astros-writethru-idUSMTZEB9Q9NRX2520150926'
p1477
sg4
S'20150927\xc2\xa01:33AM UTC'
p1478
sg6
S'Choo-powered Rangers extend hex over Astros'
p1479
sa(dp1480
g2
S'http://www.reuters.com/article/china-dalian-wanda-idUSL4N11W02J20150926'
p1481
sg4
S'20150927\xc2\xa01:16AM UTC'
p1482
sg6
S'Dalian Wanda opens $2.5 bln resort in southern China'
p1483
sa(dp1484
g2
S'http://www.reuters.com/article/us-usa-crime-boardwalk-idUSKCN0RQ04920150926'
p1485
sg4
S'20150927\xc2\xa01:04AM UTC'
p1486
sg6
S'Man sentenced to 42 years to life for deadly Los Angeles car rampage'
p1487
sa(dp1488
g2
S'http://www.reuters.com/article/us-soccer-mls-idUSKCN0RQ04720150926'
p1489
sg4
S'20150927\xc2\xa01:02AM UTC'
p1490
sg6
S'Orlando\xe2\x80\x99s Larin breaks MLS rookie goalscoring record'
p1491
sa(dp1492
g2
S'http://www.reuters.com/article/bbo-dodgers-rockies-writethru-idUSMTZEB9Q9M8W1520150926'
p1493
sg4
S'20150927\xc2\xa01:00AM UTC'
p1494
sg6
S'Rockies flex muscle, thump Dodgers'
p1495
sa(dp1496
g2
S'http://www.reuters.com/article/bbo-braves-marlins-writethru-idUSMTZEB9Q9JNLV820150926'
p1497
sg4
S'20150927\xc2\xa01:00AM UTC'
p1498
sg6
S'Marlins win offensive slugfest vs. Braves'
p1499
sa(dp1500
g2
S'http://www.reuters.com/article/nj-msd-idUSnBw255866a+100+BSW20150926'
p1501
sg4
S'20150927\xc2\xa01:00AM UTC'
p1502
sg6
S'New Findings Show Anti-Tumor Activity of KEYTRUDA\xc2\xae (pembrolizumab) in Patients with Advanced Nasopharyngeal Carcinoma'
p1503
sa(dp1504
g2
S'http://www.reuters.com/article/bbo-brewers-cardinals-writethru-idUSMTZEB9Q9MFJ1R20150926'
p1505
sg4
S'20150927\xc2\xa012:57AM UTC'
p1506
sg6
S'Brewers enjoy playing spolier to Cards'
p1507
sa(dp1508
g2
S'http://www.reuters.com/article/bbo-indians-royals-writethru-idUSMTZEB9Q9KUWYZ20150926'
p1509
sg4
S'20150927\xc2\xa012:48AM UTC'
p1510
sg6
S'Carrasco 1-hits Royals to keep Indians in hunt'
p1511
sa(dp1512
g2
S'http://www.reuters.com/article/us-usa-north-dakota-murder-idUSKCN0RQ03R20150926'
p1513
sg4
S'20150927\xc2\xa012:35AM UTC'
p1514
sg6
S'Man pleads guilty in North Dakota oil patch murder-for-hire plots'
p1515
sa(dp1516
g2
S'http://www.reuters.com/article/us-usa-sagegrouse-idUSKCN0RQ03A20150926'
p1517
sg4
S'20150927\xc2\xa012:28AM UTC'
p1518
sg6
S'Idaho sues U.S. over sage-grouse habitat restrictions'
p1519
sa(dp1520
g2
S'http://www.reuters.com/article/usa-sagegrouse-idUSL1N11V2NY20150926'
p1521
sg4
S'20150927\xc2\xa012:26AM UTC'
p1522
sg6
S'Idaho sues U.S. over sage-grouse habitat restrictions'
p1523
sa(dp1524
g2
S'http://www.reuters.com/article/vietnam-media-idUSL4N11W01U20150926'
p1525
sg4
S'20150927\xc2\xa012:22AM UTC'
p1526
sg6
S'Vietnam to undergo major state media shakeup by 2020'
p1527
sa(dp1528
g2
S'http://www.reuters.com/article/bbo-twins-tigers-writethru-idUSMTZEB9Q9JDKTX20150926'
p1529
sg4
S'20150927\xc2\xa012:19AM UTC'
p1530
sg6
S"Tigers rise to occasion in spoiler's role"
p1531
sa(dp1532
g2
S'http://www.reuters.com/article/ribose-idUSnBw255871a+100+BSW20150926'
p1533
sg4
S'20150927\xc2\xa012:16AM UTC'
p1534
sg6
S'Ribose becomes first organization outside UK to achieve new ISO 9001 and ISO 14001 certification'
p1535
sa(dp1536
g2
S'http://www.reuters.com/article/us-usa-miami-marijuana-idUSKCN0RP21P20150926'
p1537
sg4
S'20150927\xc2\xa012:14AM UTC'
p1538
sg6
S'Jury convicts Miami man who says he grew pot for cancer-stricken wife'
p1539
sa(dp1540
g2
S'http://www.reuters.com/article/usa-miami-marijuana-idUSL1N11V2M820150926'
p1541
sg4
S'20150927\xc2\xa012:11AM UTC'
p1542
sg6
S'UPDATE 2-Jury convicts Miami man who says he grew pot for cancer-stricken wife'
p1543
sa(dp1544
g2
S'http://www.reuters.com/article/soccer-fifa-blatter-idUSKCN0RP1NM20150926'
p1545
sg4
S'20150927\xc2\xa012:04AM UTC'
p1546
sg6
S'Swiss target world soccer chief Blatter in criminal probe'
p1547
sa(dp1548
g2
S'http://www.reuters.com/article/us-un-assembly-iran-idUSKCN0RP1KQ20150926'
p1549
sg4
S'20150927\xc2\xa012:01AM UTC'
p1550
sg6
S"Iran's Rouhani: U.S. ties better but 'still a long road to travel'"
p1551
sa(dp1552
g2
S'http://www.reuters.com/article/census-daily-feature-idUSnPn9dRx7Q+89+PRN20150926'
p1553
sg4
S'20150927\xc2\xa012:01AM UTC'
p1554
sg6
S'U.S. Census Bureau Daily Feature for September 26: Unhitched'
p1555
sa(dp1556
g2
S'http://www.reuters.com/news/video/videoStory?storyID=111899900'
p1557
sg4
S'20150927\xc2\xa010:02PM UTC'
p1558
sg6
S'Pope addresses Festival of Families'
p1559
sa(dp1560
g2
S'http://www.reuters.com/news/video/videoStory?storyID=111897683'
p1561
sg4
S'20150927\xc2\xa06:53PM UTC'
p1562
sg6
S'Pope applauds religious freedom at Independence Hall'
p1563
sa(dp1564
g2
S'http://www.reuters.com/news/video/videoStory?storyID=111897403'
p1565
sg4
S'20150927\xc2\xa05:59PM UTC'
p1566
sg6
S'Pope applauds religious freedom at Independence Hall'
p1567
sa(dp1568
g2
S'http://www.reuters.com/news/video/videoStory?storyID=111897150'
p1569
sg4
S'20150927\xc2\xa05:16PM UTC'
p1570
sg6
S"Mexicans march on anniversary of students' disappearance"
p1571
sa(dp1572
g2
S'http://www.reuters.com/news/video/videoStory?storyID=111896462'
p1573
sg4
S'20150927\xc2\xa04:41PM UTC'
p1574
sg6
S'Bear cubs released in Russia'
p1575
sa(dp1576
g2
S'http://www.reuters.com/news/video/videoStory?storyID=111896169'
p1577
sg4
S'20150927\xc2\xa04:21PM UTC'
p1578
sg6
S'Buffalo roundup draws spectators from around globe'
p1579
sa(dp1580
g2
S'http://www.reuters.com/news/video/videoStory?storyID=111896044'
p1581
sg4
S'20150927\xc2\xa04:13PM UTC'
p1582
sg6
S'Pope Francis gets cockpit tour on papal plane'
p1583
sa(dp1584
g2
S'http://www.reuters.com/news/video/videoStory?storyID=111895803'
p1585
sg4
S'20150927\xc2\xa04:04PM UTC'
p1586
sg6
S'Catalonia prepares for proxy vote on independence from Spain'
p1587
sa(dp1588
g2
S'http://www.reuters.com/news/video/videoStory?storyID=111895697'
p1589
sg4
S'20150927\xc2\xa03:47PM UTC'
p1590
sg6
S'Duck boats draw scrutiny following deadly Seattle crash'
p1591
sa(dp1592
g2
S'http://www.reuters.com/news/video/videoStory?storyID=111895640'
p1593
sg4
S'20150927\xc2\xa03:41PM UTC'
p1594
sg6
S'U.K. government will push to join plan to defeat IS in Syria'
p1595
sa(dp1596
g2
S'http://www.reuters.com/news/video/videoStory?storyID=111895560'
p1597
sg4
S'20150927\xc2\xa03:32PM UTC'
p1598
sg6
S'The ever-changing route of migrants into Europe'
p1599
sa(dp1600
g2
S'http://www.reuters.com/news/video/videoStory?storyID=111894757'
p1601
sg4
S'20150927\xc2\xa02:27PM UTC'
p1602
sg6
S'German Chancellor Merkel pays tribute to 9/11 victims'
p1603
sa(dp1604
g2
S'http://www.reuters.com/news/video/videoStory?storyID=111894543'
p1605
sg4
S'20150927\xc2\xa02:22PM UTC'
p1606
sg6
S'Switzerland suspends sales of VW diesel vehicles'
p1607
sa(dp1608
g2
S'http://www.reuters.com/news/video/videoStory?storyID=111894391'
p1609
sg4
S'20150927\xc2\xa02:10PM UTC'
p1610
sg6
S'Pope serenaded by seminarians'
p1611
sa(dp1612
g2
S'http://www.reuters.com/news/video/videoStory?storyID=111894285'
p1613
sg4
S'20150927\xc2\xa02:06PM UTC'
p1614
sg6
S"'Peace dividend' from Colombian truce could be massive, says finance minister"
p1615
sa(dp1616
g2
S'http://www.reuters.com/news/video/videoStory?storyID=111893884'
p1617
sg4
S'20150927\xc2\xa012:41PM UTC'
p1618
sg6
S'Ermanno Scervino eyes soft, feminine silhouettes for spring'
p1619
sa(dp1620
g2
S'http://www.reuters.com/news/video/videoStory?storyID=111893682'
p1621
sg4
S'20150927\xc2\xa012:33PM UTC'
p1622
sg6
S'Pope celebrates Mass in Philadelphia'
p1623
sa(dp1624
g2
S'http://www.reuters.com/news/video/videoStory?storyID=111893223'
p1625
sg4
S'20150927\xc2\xa012:24PM UTC'
p1626
sg6
S'Govt finds e-mails Clinton never turned over'
p1627
sa(dp1628
g2
S'http://www.reuters.com/news/video/videoStory?storyID=111893489'
p1629
sg4
S'20150927\xc2\xa012:17PM UTC'
p1630
sg6
S'Kerry sees opportunity for progress on Syria as he meets Zarif'
p1631
sa(dp1632
g2
S'http://www.reuters.com/news/video/videoStory?storyID=111892810'
p1633
sg4
S'20150927\xc2\xa011:40AM UTC'
p1634
sg6
S'Iran\xe2\x80\x99s Rouhani warns of \xe2\x80\x9cdual calamities\xe2\x80\x9d of terrorism, climate change'
p1635
sa(dp1636
g2
S'http://www.reuters.com/news/video/videoStory?storyID=111892815'
p1637
sg4
S'20150927\xc2\xa011:37AM UTC'
p1638
sg6
S'China pledges $2 bln to help development of poor countries'
p1639
sa(dp1640
g2
S'http://www.reuters.com/news/video/videoStory?storyID=111892476'
p1641
sg4
S'20150927\xc2\xa011:26AM UTC'
p1642
sg6
S'Pope arrives in Philadelphia'
p1643
sa(dp1644
g2
S'http://www.reuters.com/news/video/videoStory?storyID=111892295'
p1645
sg4
S'20150927\xc2\xa011:21AM UTC'
p1646
sg6
S'Peter Dundas presents debut Cavalli collection in Milan'
p1647
sa(dp1648
g2
S'http://www.reuters.com/news/video/videoStory?storyID=111892337'
p1649
sg4
S'20150927\xc2\xa011:15AM UTC'
p1650
sg6
S'U.S. embargo "main obstacle" to Cuba\'s development: Castro'
p1651
sa(dp1652
g2
S'http://www.reuters.com/news/video/videoStory?storyID=111892165'
p1653
sg4
S'20150927\xc2\xa010:46AM UTC'
p1654
sg6
S'Ukraine to beef up border with new U.S. radar technology'
p1655
sa(dp1656
g2
S'http://www.reuters.com/news/video/videoStory?storyID=111892006'
p1657
sg4
S'20150927\xc2\xa010:35AM UTC'
p1658
sg6
S"Philadelphia prepares for Pope's grand U.S. finale"
p1659
sa(dp1660
g2
S'http://www.reuters.com/news/video/videoStory?storyID=111891851'
p1661
sg4
S'20150927\xc2\xa010:10AM UTC'
p1662
sg6
S'Versace presents bold look fit for "urban jungle"'
p1663
sa(dp1664
g2
S'http://www.reuters.com/news/video/videoStory?storyID=111891203'
p1665
sg4
S'20150927\xc2\xa09:01AM UTC'
p1666
sg6
S'Pope departs NYC, heads to Philadelphia'
p1667
sa(dp1668
g2
S'http://www.reuters.com/news/video/videoStory?storyID=111891026'
p1669
sg4
S'20150927\xc2\xa08:25AM UTC'
p1670
sg6
S'Former Syrian athlete flees bombs of Aleppo'
p1671
sa(dp1672
g2
S'http://www.reuters.com/news/video/videoStory?storyID=111890526'
p1673
sg4
S'20150927\xc2\xa07:53AM UTC'
p1674
sg6
S'Obama talks about preventing substance abuse'
p1675
sa(dp1676
g2
S'http://www.reuters.com/news/video/videoStory?storyID=111890226'
p1677
sg4
S'20150927\xc2\xa06:42AM UTC'
p1678
sg6
S'Former Syrian pro basketball player amongst migrants'
p1679
sa(dp1680
g2
S'http://www.reuters.com/news/video/videoStory?storyID=111890142'
p1681
sg4
S'20150927\xc2\xa06:41AM UTC'
p1682
sg6
S'Haze worsens in parts of Indonesia'
p1683
sa(dp1684
g2
S'http://www.reuters.com/news/video/videoStory?storyID=111889652'
p1685
sg4
S'20150927\xc2\xa05:15AM UTC'
p1686
sg6
S'Trained military canines captivate civilians at Indian dog show'
p1687
sa(dp1688
g2
S'http://www.reuters.com/news/video/videoStory?storyID=111887389'
p1689
sg4
S'20150927\xc2\xa02:52AM UTC'
p1690
sg6
S'Pope wraps up visit to NYC'
p1691
sa(dp1692
g2
S'http://www.reuters.com/news/video/videoStory?storyID=111887066'
p1693
sg4
S'20150927\xc2\xa02:00AM UTC'
p1694
sg6
S'Zuckerberg attends White House state dinner'
p1695
sa.