(lp0
(dp1
S'href'
p2
S'http://www.reuters.com/article/idUSL4N11R1DV20150921'
p3
sS'ts'
p4
S'20150921\xc2\xa011:59PM UTC'
p5
sS'title'
p6
S'Morning News Call - India, September 21'
p7
sa(dp8
g2
S'http://www.reuters.com/article/cagamas-debt-bonds-idUSL4N11N33H20150921'
p9
sg4
S'20150921\xc2\xa011:58PM UTC'
p10
sg6
S'Cagamas debut keeps Singapore sukuk alive'
p11
sa(dp12
g2
S'http://www.reuters.com/article/idUSnGNXpvhQn+e2+GNW20150921'
p13
sg4
S'20150921\xc2\xa011:55PM UTC'
p14
sg6
S'Test Your Shark Knowledge With Costa Sunglasses and OCEARCH'
p15
sa(dp16
g2
S'http://www.reuters.com/article/idUSL4N11R1JI20150921'
p17
sg4
S'20150921\xc2\xa011:54PM UTC'
p18
sg6
S'BRIEF-Shenzhen Tianyuan plans 400 mln yuan worth of bonds issue'
p19
sa(dp20
g2
S'http://www.reuters.com/article/us-eurozone-greece-election-projection-idUSKCN0RK0Z220150921'
p21
sg4
S'20150921\xc2\xa011:53PM UTC'
p22
sg6
S"Greece's Syriza wins with 35.5 percent of vote - 99.4 percent counted"
p23
sa(dp24
g2
S'http://www.reuters.com/article/china-debt-bonds-idUSL4N11N3E720150921'
p25
sg4
S'20150921\xc2\xa011:51PM UTC'
p26
sg6
S'Panda bonds set to multiply, as China opens up market'
p27
sa(dp28
g2
S'http://www.reuters.com/article/india-cenbank-reverserepo-idUSL4N11R1IK20150921'
p29
sg4
S'20150921\xc2\xa011:51PM UTC'
p30
sg6
S"TABLE-India's cenbank says reverse repo bids rise to 118.94 bln rupees"
p31
sa(dp32
g2
S'http://www.reuters.com/article/us-markets-china-yuan-midday-idUSKCN0RL08520150921'
p33
sg4
S'20150921\xc2\xa011:51PM UTC'
p34
sg6
S"China's yuan eases vs dollar on weaker central bank midpoint"
p35
sa(dp36
g2
S'http://www.reuters.com/article/us-soccer-mls-idUSKCN0RL07Z20150921'
p37
sg4
S'20150921\xc2\xa011:50PM UTC'
p38
sg6
S'NY Red Bulls beat Timbers, clinch postseason berth'
p39
sa(dp40
g2
S'http://www.reuters.com/article/fbn-cowboys-eagles-writethru-idUSMTZEB9L02EF6T20150921'
p41
sg4
S'20150921\xc2\xa011:48PM UTC'
p42
sg6
S'Cowboys beat Eagles, lose another star (Romo)'
p43
sa(dp44
g2
S'http://www.reuters.com/article/idUSB9N11K02O20150921'
p45
sg4
S'20150921\xc2\xa011:48PM UTC'
p46
sg6
S'BRIEF-Terex China head expects half of Chinese machinery manufacturers to close'
p47
sa(dp48
g2
S'http://www.reuters.com/article/eurozone-greece-election-projection-idUSL5N11Q0RB20150921'
p49
sg4
S'20150921\xc2\xa011:48PM UTC'
p50
sg6
S"Greece's Syriza wins with 35.5 pct of vote - 99.4 pct counted"
p51
sa(dp52
g2
S'http://www.reuters.com/article/india-cenbank-refinance-idUSB8N11802B20150921'
p53
sg4
S'20150921\xc2\xa011:47PM UTC'
p54
sg6
S"TABLE-Indian banks' refinancing with RBI unchanged at 16.47 bln rupees"
p55
sa(dp56
g2
S'http://www.reuters.com/article/india-cenbank-msf-idUSB8N11802A20150921'
p57
sg4
S'20150921\xc2\xa011:46PM UTC'
p58
sg6
S'TABLE-Indian banks borrowed  81.80 bln rupees via MSF on Sept 18 - RBI'
p59
sa(dp60
g2
S'http://www.reuters.com/article/india-cenbank-govtcash-idUSB8N11802920150921'
p61
sg4
S'20150921\xc2\xa011:45PM UTC'
p62
sg6
S"TABLE-India govt's surplus cash with RBI for auction at 420.12 bln rupees on Sept 18"
p63
sa(dp64
g2
S'http://www.reuters.com/article/india-cenbank-reverserepo-idUSB8N11802620150921'
p65
sg4
S'20150921\xc2\xa011:42PM UTC'
p66
sg6
S"TABLE-India's cenbank says reverse repo bids fall to 37.25 bln rupees"
p67
sa(dp68
g2
S'http://www.reuters.com/article/india-cenbank-balances-idUSB8N11802C20150921'
p69
sg4
S'20150921\xc2\xa011:41PM UTC'
p70
sg6
S"TABLE-India cenbank says banks' cash balances rise to 3.65 trln rupees"
p71
sa(dp72
g2
S'http://www.reuters.com/article/mb-bank-shareissue-idUSL4N11R1DY20150921'
p73
sg4
S'20150921\xc2\xa011:38PM UTC'
p74
sg6
S"Vietnam's Military Bank raises $191 mln via share sale"
p75
sa(dp76
g2
S'http://www.reuters.com/article/platinum-jewelry-emmy-idUSnPn72C868+88+PRN20150921'
p77
sg4
S'20150921\xc2\xa011:34PM UTC'
p78
sg6
S'Platinum Jewelry Rules The Red Carpet At The The 67th Primetime Emmy Awards'
p79
sa(dp80
g2
S'http://www.reuters.com/article/jishou-drum-festival-idUSnPn86sPZL+87+PRN20150921'
p81
sg4
S'20150921\xc2\xa011:33PM UTC'
p82
sg6
S'Catch a Glimpse of Traditional Chinese Culture at the Jishou Drum Cultural Festival'
p83
sa(dp84
g2
S'http://www.reuters.com/article/us-china-reform-soe-idUSKCN0RL07720150921'
p85
sg4
S'20150921\xc2\xa011:28PM UTC'
p86
sg6
S'China state planner says oil, rail sectors next in reform line: China Securities Journal'
p87
sa(dp88
g2
S'http://www.reuters.com/article/morningcall-india-idUSL4N11R1FC20150921'
p89
sg4
S'20150921\xc2\xa011:23PM UTC'
p90
sg6
S'India Morning Call-Global Markets'
p91
sa(dp92
g2
S'http://www.reuters.com/article/us-nigeria-violence-cameroon-idUSKCN0RK0AU20150921'
p93
sg4
S'20150921\xc2\xa011:22PM UTC'
p94
sg6
S'At least five killed in suicide bomb attack in northern Cameroon'
p95
sa(dp96
g2
S'http://www.reuters.com/article/china-crude-licenses-idUSB9N11K02N20150921'
p97
sg4
S'20150921\xc2\xa011:22PM UTC'
p98
sg6
S'China grants two independent refineries crude oil import licenses - Ministry'
p99
sa(dp100
g2
S'http://www.reuters.com/article/us-awards-emmys-factbox-idUSKCN0RL07120150921'
p101
sg4
S'20150921\xc2\xa011:21PM UTC'
p102
sg6
S'Factbox: Key winners at the Primetime Emmy Awards'
p103
sa(dp104
g2
S'http://www.reuters.com/article/sahaviriya-steel-scb-idUSL4N11R1BB20150921'
p105
sg4
S'20150921\xc2\xa011:20PM UTC'
p106
sg6
S'Thai bank SCB says sets aside more provisions for loans to steel firm SSI'
p107
sa(dp108
g2
S'http://www.reuters.com/article/us-mexico-election-idUSKCN0RL06V20150921'
p109
sg4
S'20150921\xc2\xa011:19PM UTC'
p110
sg6
S'Mexico leftist party to consider tie-ups to challenge Pena Nieto'
p111
sa(dp112
g2
S'http://www.reuters.com/article/thailand-autos-idUSB7N0Z502620150921'
p113
sg4
S'20150921\xc2\xa011:13PM UTC'
p114
sg6
S'TABLE-Thai August auto sales fall 9.9 pct y/y - federation'
p115
sa(dp116
g2
S'http://www.reuters.com/article/forevermark-emmy-fash-idUSnPnbb2ckc+80+PRN20150921'
p117
sg4
S'20150921\xc2\xa011:09PM UTC'
p118
sg6
S'Gina Rodriguez, Sophie Turner, Laura Prepon, and Giuliana Rancic Shine in Forevermark Diamonds at the 67th Annual Emmy Awards'
p119
sa(dp120
g2
S'http://www.reuters.com/article/australia-stocks-idUSL4N11R11U20150921'
p121
sg4
S'20150921\xc2\xa011:06PM UTC'
p122
sg6
S'Australia shares fall over 2 pct on worries about global growth'
p123
sa(dp124
g2
S'http://www.reuters.com/article/tal-acquire-firstleap-idUSnPn1SdZkt+94+PRN20150921'
p125
sg4
S'20150921\xc2\xa011:00PM UTC'
p126
sg6
S'TAL Education Group to Acquire Firstleap Education'
p127
sa(dp128
g2
S'http://www.reuters.com/article/australia-7-eleven-idUSL4N11R13S20150921'
p129
sg4
S'20150921\xc2\xa010:45PM UTC'
p130
sg6
S'Australian 7-Eleven workers need visa amnesty - lawyers'
p131
sa(dp132
g2
S'http://www.reuters.com/article/hongkong-india-finmin-idUSL4N11R17A20150921'
p133
sg4
S'20150921\xc2\xa010:41PM UTC'
p134
sg6
S"India economic growth expected to outperform last year's rate - FinMin"
p135
sa(dp136
g2
S'http://www.reuters.com/article/us-sharp-hon-hai-idUSKCN0RL04Q20150921'
p137
sg4
S'20150921\xc2\xa010:39PM UTC'
p138
sg6
S"Taiwan's Hon Hai offers to buy Sharp's LCD business, wants Apple funds: Nikkei"
p139
sa(dp140
g2
S'http://www.reuters.com/article/philippines-san-miguel-idUSP9N0Z202120150921'
p141
sg4
S'20150921\xc2\xa010:37PM UTC'
p142
sg6
S"Philippines' San Miguel says investing nearly $1 bln in cement, adding 3 new plants"
p143
sa(dp144
g2
S'http://www.reuters.com/article/sharp-hon-hai-idUSL4N11R02N20150921'
p145
sg4
S'20150921\xc2\xa010:37PM UTC'
p146
sg6
S"UPDATE 2-Taiwan's Hon Hai offers to buy Sharp's LCD business, wants Apple funds-Nikkei"
p147
sa(dp148
g2
S'http://www.reuters.com/article/us-venezuela-colombia-idUSKCN0RL04A20150921'
p149
sg4
S'20150921\xc2\xa010:32PM UTC'
p150
sg6
S"Colombia's Santos goes to Venezuela meeting without 'great expectations'"
p151
sa(dp152
g2
S'http://www.reuters.com/article/us-philippines-elections-survey-idUSKCN0RL02P20150921'
p153
sg4
S'20150921\xc2\xa010:28PM UTC'
p154
sg6
S'New Philippine senator Poe widens lead in presidential opinion polls'
p155
sa(dp156
g2
S'http://www.reuters.com/article/golf-pga-jason-day-number-one-idUSKCN0RL04620150921'
p157
sg4
S'20150921\xc2\xa010:27PM UTC'
p158
sg6
S'Jason Day wins BMW, becomes world number one'
p159
sa(dp160
g2
S'http://www.reuters.com/article/us-baseball-mariners-idUSKCN0RL03U20150921'
p161
sg4
S'20150921\xc2\xa010:27PM UTC'
p162
sg6
S'Hernandez beats Texas, again'
p163
sa(dp164
g2
S'http://www.reuters.com/article/us-baseball-cardinals-idUSKCN0RL03H20150921'
p165
sg4
S'20150921\xc2\xa010:15PM UTC'
p166
sg6
S'Cardinals get by Cubs, avoid sweep'
p167
sa(dp168
g2
S'http://www.reuters.com/article/fbn-ravens-raiders-writethru-idUSMTZEB9L02LT6Z20150921'
p169
sg4
S'20150921\xc2\xa010:08PM UTC'
p170
sg6
S'Raiders rally past Ravens in final minute'
p171
sa(dp172
g2
S'http://www.reuters.com/article/fbn-dolphins-jaguars-writethru-idUSMTZEB9L029F6C20150921'
p173
sg4
S'20150921\xc2\xa010:06PM UTC'
p174
sg6
S'Jaguars beat Dolphins with late field goal'
p175
sa(dp176
g2
S'http://www.reuters.com/article/us-pope-cuba-dissidnets-idUSKCN0RL03F20150921'
p177
sg4
S'20150921\xc2\xa010:04PM UTC'
p178
sg6
S'Two Cuban dissidents say they were detained on way to see pope '
p179
sa(dp180
g2
S'http://www.reuters.com/article/us-golf-australia-day-factbox-idUSKCN0RL02X20150921'
p181
sg4
S'20150921\xc2\xa010:00PM UTC'
p182
sg6
S"Factbox: Australia's new world number one Jason Day"
p183
sa(dp184
g2
S'http://www.reuters.com/article/idUSFit93446020150921'
p185
sg4
S'20150921\xc2\xa09:59PM UTC'
p186
sg6
S"Fitch Assigns First-Time 'BBB+' Rating to Red Star Macalline"
p187
sa(dp188
g2
S'http://www.reuters.com/article/us-markets-china-yuan-open-idUSKCN0RL02N20150921'
p189
sg4
S'20150921\xc2\xa09:53PM UTC'
p190
sg6
S"China's yuan opens weaker in line with midpoint fix "
p191
sa(dp192
g2
S'http://www.reuters.com/article/markets-china-yuan-open-idUSZZN2WJX0020150921'
p193
sg4
S'20150921\xc2\xa09:48PM UTC'
p194
sg6
S"China's yuan opens weaker in line with midpoint fix"
p195
sa(dp196
g2
S'http://www.reuters.com/article/markets-taiwan-stocks-idUSL4N11R0DR20150921'
p197
sg4
S'20150921\xc2\xa09:39PM UTC'
p198
sg6
S'Taiwan stocks fall; Hon Hai down'
p199
sa(dp200
g2
S'http://www.reuters.com/article/bbo-pirates-dodgers-writethru-idUSMTZEB9L01DQ5B20150921'
p201
sg4
S'20150921\xc2\xa09:28PM UTC'
p202
sg6
S'Homers by Marte, Alvarez help Pirates win'
p203
sa(dp204
g2
S'http://www.reuters.com/article/philippines-coal-semirara-mining-idUSL4N11K1D220150921'
p205
sg4
S'20150921\xc2\xa09:22PM UTC'
p206
sg6
S'Philippines allows top coal producer Semirara to resume mining'
p207
sa(dp208
g2
S'http://www.reuters.com/article/markets-oil-idUSL4N11R08B20150921'
p209
sg4
S'20150921\xc2\xa09:12PM UTC'
p210
sg6
S'Oil prices edge up as U.S. drilling declines'
p211
sa(dp212
g2
S'http://www.reuters.com/article/philippines-press-idUSL4N11R0PZ20150921'
p213
sg4
S'20150921\xc2\xa09:11PM UTC'
p214
sg6
S'PHILIPPINES PRESS-Five groups qualify to bid for five airport projects - The Standard'
p215
sa(dp216
g2
S'http://www.reuters.com/article/markets-precious-idUSL4N11R07920150921'
p217
sg4
S'20150921\xc2\xa09:00PM UTC'
p218
sg6
S'PRECIOUS-Gold hovers near 3-week high as equities slip'
p219
sa(dp220
g2
S'http://www.reuters.com/article/bbo-padres-rockies-writethru-idUSMTZEB9L01IS5C20150921'
p221
sg4
S'20150921\xc2\xa08:57PM UTC'
p222
sg6
S"Padres hit 4 homers to back Shields' win vs. Rockies"
p223
sa(dp224
g2
S'http://www.reuters.com/article/idUSnMKWRFSBha+1fc+MKW20150921'
p225
sg4
S'20150921\xc2\xa08:52PM UTC'
p226
sg6
S'Sunshine Oilsands Ltd. Private Placement of HK$ 50 Million of Common Shares Under the General Mandate to Coherent Gallery International Limited'
p227
sa(dp228
g2
S'http://www.reuters.com/article/idUSnCCN87WPVF+1cf+MKW20150921'
p229
sg4
S'20150921\xc2\xa08:51PM UTC'
p230
sg6
S'Sunshine Oilsands Ltd. Private Placement of HK$ 50 Million of Common Shares Under the General Mandate to Coherent Gallery International Limited'
p231
sa(dp232
g2
S'http://www.reuters.com/article/us-bc-mining-denver-barrick-idUSKCN0RL01220150921'
p233
sg4
S'20150921\xc2\xa08:48PM UTC'
p234
sg6
S'Barrick says strong interest in U.S. gold asset sale '
p235
sa(dp236
g2
S'http://www.reuters.com/article/us-usa-election-republicans-idUSKCN0RK0ND20150921'
p237
sg4
S'20150921\xc2\xa08:45PM UTC'
p238
sg6
S'Republican candidate Carson says Muslims unfit to be U.S. president'
p239
sa(dp240
g2
S'http://www.reuters.com/article/us-nfl-cowboys-romo-idUSKCN0RK15R20150921'
p241
sg4
S'20150921\xc2\xa08:43PM UTC'
p242
sg6
S'Cowboys QB Romo out with a broken left clavicle'
p243
sa(dp244
g2
S'http://www.reuters.com/article/britain-press-ft-idUSL1N11R00K20150921'
p245
sg4
S'20150921\xc2\xa08:33PM UTC'
p246
sg6
S'PRESS DIGEST- Financial Times - Sept 21'
p247
sa(dp248
g2
S'http://www.reuters.com/article/us-china-economy-survey-idUSKCN0RL00N20150921'
p249
sg4
S'20150921\xc2\xa08:32PM UTC'
p250
sg6
S'Chinese firms show resilience in third quarter: private survey'
p251
sa(dp252
g2
S'http://www.reuters.com/article/sharp-hon-hai-idUSL4N11Q0PI20150921'
p253
sg4
S'20150921\xc2\xa08:16PM UTC'
p254
sg6
S"Taiwan's Hon Hai offers to buy Sharp's LCD business, wants Apple funds-Nikkei"
p255
sa(dp256
g2
S'http://www.reuters.com/article/us-nfl-vikings-peterson-idUSKCN0RL00620150921'
p257
sg4
S'20150921\xc2\xa08:16PM UTC'
p258
sg6
S'Peterson thanks fans for warm welcome with big game'
p259
sa(dp260
g2
S'http://www.reuters.com/article/us-nigeria-violence-blast-idUSKCN0RK12Z20150921'
p261
sg4
S'20150921\xc2\xa08:04PM UTC'
p262
sg6
S'Three blasts hit northeastern Nigerian city of Maiduguri: military'
p263
sa(dp264
g2
S'http://www.reuters.com/article/diary-emrg-econ-idUSL4N11O3I420150921'
p265
sg4
S'20150921\xc2\xa08:02PM UTC'
p266
sg6
S'DIARY-Emerging Markets Economic Events to Oct 2'
p267
sa(dp268
g2
S'http://www.reuters.com/article/us-markets-forex-idUSKCN0RK16120150921'
p269
sg4
S'20150921\xc2\xa08:02PM UTC'
p270
sg6
S'Dollar on the mend as bulls recover from Fed disappointment'
p271
sa(dp272
g2
S'http://www.reuters.com/article/diary-top-econ-idUSL4N11O3HH20150921'
p273
sg4
S'20150921\xc2\xa08:01PM UTC'
p274
sg6
S'DIARY-Top Economic Events to Oct 2'
p275
sa(dp276
g2
S'http://www.reuters.com/article/taisys-join-plan-idUSnPn7d0fQV+83+PRN20150921'
p277
sg4
S'20150921\xc2\xa08:00PM UTC'
p278
sg6
S'Taisys and JOIN Launch Ground-breaking Flat Rate Telecom Service in 39 European Countries'
p279
sa(dp280
g2
S'http://www.reuters.com/article/idUSnCCN19GqG3+1ca+MKW20150921'
p281
sg4
S'20150921\xc2\xa08:00PM UTC'
p282
sg6
S'Ben Taylor entra para o Projeto WorldWide como CEO Na APAC'
p283
sa(dp284
g2
S'http://www.reuters.com/article/idUSnMKWD9c6Ga+1e2+MKW20150921'
p285
sg4
S'20150921\xc2\xa08:00PM UTC'
p286
sg6
S'Ben Taylor entra para o Projeto WorldWide como CEO Na APAC'
p287
sa(dp288
g2
S'http://www.reuters.com/article/idUSnMKWs14Bqa+1c4+MKW20150921'
p289
sg4
S'20150921\xc2\xa08:00PM UTC'
p290
sg6
S'Ben Taylor se incorpora a Project: WorldWide como CEO de Asia-Pac\xc3\xadfico'
p291
sa(dp292
g2
S'http://www.reuters.com/article/idUSnMKWBNBC3a+1fc+MKW20150921'
p293
sg4
S'20150921\xc2\xa08:00PM UTC'
p294
sg6
S'Ben Taylor Joins Project: WorldWide as CEO APAC'
p295
sa(dp296
g2
S'http://www.reuters.com/article/idUSnCCNbd995r+1c0+MKW20150921'
p297
sg4
S'20150921\xc2\xa08:00PM UTC'
p298
sg6
S'Ben Taylor Joins Project: WorldWide as CEO APAC'
p299
sa(dp300
g2
S'http://www.reuters.com/article/idUSnCCN9tyjDJ+1c3+MKW20150921'
p301
sg4
S'20150921\xc2\xa08:00PM UTC'
p302
sg6
S'Ben Taylor se incorpora a Project: WorldWide como CEO de Asia-Pac\xc3\xadfico'
p303
sa(dp304
g2
S'http://www.reuters.com/article/global-forex-idUSL4N11Q0OH20150920'
p305
sg4
S'20150921\xc2\xa07:58PM UTC'
p306
sg6
S'FOREX-Dollar on the mend as bulls recover from Fed disappointment'
p307
sa(dp308
g2
S'http://www.reuters.com/article/britain-press-business-idUSL1N11Q0TG20150920'
p309
sg4
S'20150921\xc2\xa07:56PM UTC'
p310
sg6
S'PRESS DIGEST- British Business - Sept 21'
p311
sa(dp312
g2
S'http://www.reuters.com/article/us-nigeria-violence-blast-idUSKCN0RK12Z20150920'
p313
sg4
S'20150921\xc2\xa07:50PM UTC'
p314
sg6
S'Three blasts hit northeastern Nigerian city of Maiduguri: military'
p315
sa(dp316
g2
S'http://www.reuters.com/article/bbo-padres-rockies-writethru-idUSMTZEB9L01IS5C20150920'
p317
sg4
S'20150921\xc2\xa07:45PM UTC'
p318
sg6
S"Padres hit 4 homers to back Shields' win vs. Rockies"
p319
sa(dp320
g2
S'http://www.reuters.com/article/bbo-reds-brewers-writethru-idUSMTZEB9KZVZWHS20150920'
p321
sg4
S'20150921\xc2\xa07:44PM UTC'
p322
sg6
S'Brewers end eight-game losing streak'
p323
sa(dp324
g2
S'http://www.reuters.com/article/us-nfl-cowboys-romo-idUSKCN0RK15R20150920'
p325
sg4
S'20150921\xc2\xa07:40PM UTC'
p326
sg6
S'Cowboys quarterback Romo out with a broken left  clavicle'
p327
sa(dp328
g2
S'http://www.reuters.com/article/bbo-cardinals-cubs-writethru-idUSMTZEB9KZXI6PW20150920'
p329
sg4
S'20150921\xc2\xa07:38PM UTC'
p330
sg6
S'Cardinals get by Cubs, avoid sweep'
p331
sa(dp332
g2
S'http://www.reuters.com/article/influentialdayofpeace-idUSnPn5CKyYQ+9b+PRN20150920'
p333
sg4
S'20150921\xc2\xa07:30PM UTC'
p334
sg6
S'Influential Partners With The United Nations To Launch The #ForgiveForPeace Campaign'
p335
sa(dp336
g2
S'http://www.reuters.com/article/us-europe-migrants-idUSKCN0RK0H420150920'
p337
sg4
S'20150921\xc2\xa07:30PM UTC'
p338
sg6
S'Refugee crisis to test EU at summit of divided leaders'
p339
sa(dp340
g2
S'http://www.reuters.com/article/papros-speaker-idUSnPn2XKC0C+9d+PRN20150920'
p341
sg4
S'20150921\xc2\xa07:26PM UTC'
p342
sg6
S'Papros: Appeals Court Ruling Encourages Responsible Conflict Free Sourcing for Dodd-Frank'
p343
sa(dp344
g2
S'http://www.reuters.com/article/us-pope-cuba-idUSKCN0RK07X20150920'
p345
sg4
S'20150921\xc2\xa07:25PM UTC'
p346
sg6
S'Pope meets Fidel Castro, warns against ideology on Cuba trip'
p347
sa(dp348
g2
S'http://www.reuters.com/article/us-eurozone-greece-election-idUSKCN0RJ0US20150920'
p349
sg4
S'20150921\xc2\xa07:22PM UTC'
p350
sg6
S'Greek leftist Tsipras returns in unexpectedly decisive vote win'
p351
sa(dp352
g2
S'http://www.reuters.com/article/us-gopro-barron-s-stocks-idUSKCN0RK13G20150920'
p353
sg4
S'20150921\xc2\xa07:13PM UTC'
p354
sg6
S"GoPro shares could fall due strong competition: Barron's"
p355
sa(dp356
g2
S'http://www.reuters.com/article/us-southkorea-hyundai-motor-strike-idUSKCN0RK15D20150920'
p357
sg4
S'20150921\xc2\xa07:13PM UTC'
p358
sg6
S'Hyundai Motor South Korean workers plan partial strike: union'
p359
sa(dp360
g2
S'http://www.reuters.com/article/southkorea-hyundai-motor-strike-idUSL4N11K04920150920'
p361
sg4
S'20150921\xc2\xa07:10PM UTC'
p362
sg6
S'Hyundai Motor S.Korean workers plan partial strike-union'
p363
sa(dp364
g2
S'http://www.reuters.com/article/us-health-dementia-idUSKCN0RK15220150920'
p365
sg4
S'20150921\xc2\xa07:08PM UTC'
p366
sg6
S'A third of Britons born in 2015 will develop dementia: study'
p367
sa(dp368
g2
S'http://www.reuters.com/article/fbn-patriots-buffalo-recap-idUSMTZEB9KZUIMAJ20150920'
p369
sg4
S'20150921\xc2\xa07:08PM UTC'
p370
sg6
S'Patriots 40, Bills 32'
p371
sa(dp372
g2
S'http://www.reuters.com/article/us-iran-nuclear-rouhani-idUSKCN0RK14Q20150920'
p373
sg4
S'20150921\xc2\xa07:04PM UTC'
p374
sg6
S"Iran's Rouhani says U.S.-Iran enmity eased, but distrust will remain"
p375
sa(dp376
g2
S'http://www.reuters.com/article/fbn-buccaneers-saints-writethru-idUSMTZEB9KZTH84Z20150920'
p377
sg4
S'20150921\xc2\xa07:02PM UTC'
p378
sg6
S'Winston earns first win as Bucs stuff Saints'
p379
sa(dp380
g2
S'http://www.reuters.com/article/us-ukraine-crisis-nato-idUSKCN0RK14M20150920'
p381
sg4
S'20150921\xc2\xa07:01PM UTC'
p382
sg6
S'In first Ukraine trip, NATO chief tries balancing act on Russia'
p383
sa(dp384
g2
S'http://www.reuters.com/article/health-dementia-idUSL5N11Q0XQ20150920'
p385
sg4
S'20150921\xc2\xa07:01PM UTC'
p386
sg6
S'A third of Britons born in 2015 will develop dementia - study'
p387
sa(dp388
g2
S'http://www.reuters.com/article/copper-options-ahome-idUSL5N11O1LL20150920'
p389
sg4
S'20150921\xc2\xa07:01PM UTC'
p390
sg6
S'RPT-COLUMN-Beware the Christmas ghosts in the copper machine: Andy Home'
p391
sa(dp392
g2
S'http://www.reuters.com/article/ca-drivesavers-idUSnBw205023a+100+BSW20150920'
p393
sg4
S'20150921\xc2\xa07:00PM UTC'
p394
sg6
S'DriveSavers Offers Data Recovery Relief to Flood Victims in Joso, Japan'
p395
sa(dp396
g2
S'http://www.reuters.com/article/us-germany-economy-budget-idUSKCN0RK14420150920'
p397
sg4
S'20150921\xc2\xa06:57PM UTC'
p398
sg6
S'Still targeting balanced budget despite refugee costs: German finance ministry'
p399
sa(dp400
g2
S'http://www.reuters.com/article/us-baseball-astros-idUSKCN0RK14K20150920'
p401
sg4
S'20150921\xc2\xa06:55PM UTC'
p402
sg6
S"McHugh pitches Astros past A's"
p403
sa(dp404
g2
S'http://www.reuters.com/article/us-usa-volkswagen-ceo-idUSKCN0RK0IK20150920'
p405
sg4
S'20150921\xc2\xa06:53PM UTC'
p406
sg6
S'Volkswagen to halt U.S. sales of some 2015 diesel cars'
p407
sa(dp408
g2
S'http://www.reuters.com/article/idUSnMKWzsB0La+1ca+MKW20150920'
p409
sg4
S'20150921\xc2\xa06:52PM UTC'
p410
sg6
S'Painted Pony Presenting at the First Energy Global Energy Conference'
p411
sa(dp412
g2
S'http://www.reuters.com/article/idUSnCCN2FyB1h+1d4+MKW20150920'
p413
sg4
S'20150921\xc2\xa06:52PM UTC'
p414
sg6
S'Painted Pony Presenting at the First Energy Global Energy Conference'
p415
sa(dp416
g2
S'http://www.reuters.com/article/bbo-mariners-rangers-recap-idUSMTZEB9KZZ2VZB20150920'
p417
sg4
S'20150921\xc2\xa06:52PM UTC'
p418
sg6
S'Mariners 9, Rangers 2'
p419
sa(dp420
g2
S'http://www.reuters.com/article/usa-volkswagen-ceo-idUSL5N11Q0DO20150920'
p421
sg4
S'20150921\xc2\xa06:51PM UTC'
p422
sg6
S'UPDATE 3-Volkswagen to halt U.S. sales of some 2015 diesel cars'
p423
sa(dp424
g2
S'http://www.reuters.com/article/newzealand-internet-dotcom-idUSL4N11Q0J320150920'
p425
sg4
S'20150921\xc2\xa06:49PM UTC'
p426
sg6
S'RPT-After years of delay, Mega founder Kim Dotcom facing extradition'
p427
sa(dp428
g2
S'http://www.reuters.com/article/fbn-lions-vikings-writethru-idUSMTZEB9KZT763S20150920'
p429
sg4
S'20150921\xc2\xa06:48PM UTC'
p430
sg6
S"Peterson leads Vikings' attack in win vs. Lions"
p431
sa(dp432
g2
S'http://www.reuters.com/article/fbn-49ers-steelers-writethru-idUSMTZEB9KZSN72C20150920'
p433
sg4
S'20150921\xc2\xa06:45PM UTC'
p434
sg6
S'Steelers steamroll 49ers'
p435
sa(dp436
g2
S'http://www.reuters.com/article/fbn-rams-redskins-writethru-idUSMTZEB9KZRUU0T20150920'
p437
sg4
S'20150921\xc2\xa06:44PM UTC'
p438
sg6
S'Redskins ride rookie RB Jones, run over Rams 24-10'
p439
sa(dp440
g2
S'http://www.reuters.com/article/australia-politics-idUSL4N11Q0II20150920'
p441
sg4
S'20150921\xc2\xa06:39PM UTC'
p442
sg6
S'RPT-UPDATE 1-Australian PM appoints immigration hard-man Morrison as new treasurer'
p443
sa(dp444
g2
S'http://www.reuters.com/article/australia-stocks-idUSL4N11Q0HG20150920'
p445
sg4
S'20150921\xc2\xa06:38PM UTC'
p446
sg6
S'Australia shares set to fall for first time in four sessions'
p447
sa(dp448
g2
S'http://www.reuters.com/article/fbn-texans-panthers-writethru-idUSMTZEB9KZU4B8A20150920'
p449
sg4
S'20150921\xc2\xa06:37PM UTC'
p450
sg6
S'Newton flips into end zone, leads Panthers over Texans'
p451
sa(dp452
g2
S'http://www.reuters.com/article/fbn-titans-browns-writethru-idUSMTZEB9KZSJX2B20150920'
p453
sg4
S'20150921\xc2\xa06:37PM UTC'
p454
sg6
S'Manziel, Benjamin light up Mariota, Titans'
p455
sa(dp456
g2
S'http://www.reuters.com/article/fbn-chargers-bengals-writethru-idUSMTZEB9KZSJX2A20150920'
p457
sg4
S'20150921\xc2\xa06:29PM UTC'
p458
sg6
S'Bengals hold off Rivers, Chargers'
p459
sa(dp460
g2
S'http://www.reuters.com/article/bbo-redsox-bluejays-recap-idUSMTZEB9KZS351520150920'
p461
sg4
S'20150921\xc2\xa06:25PM UTC'
p462
sg6
S'Red Sox 4, Blue Jays 3'
p463
sa(dp464
g2
S'http://www.reuters.com/article/us-ukraine-crisis-blockade-idUSKCN0RK0PJ20150920'
p465
sg4
S'20150921\xc2\xa06:25PM UTC'
p466
sg6
S'Tatar activists block roads into Russia-annexed Crimea'
p467
sa(dp468
g2
S'http://www.reuters.com/article/us-golf-pga-idUSKCN0RK14G20150920'
p469
sg4
S'20150921\xc2\xa06:23PM UTC'
p470
sg6
S'Day wins BMW Championship, becomes world number one'
p471
sa(dp472
g2
S'http://www.reuters.com/article/us-apple-china-malware-idUSKCN0RK0ZB20150920'
p473
sg4
S'20150921\xc2\xa06:19PM UTC'
p474
sg6
S"Apple's iOS App Store suffers first major attack"
p475
sa(dp476
g2
S'http://www.reuters.com/article/bbo-whitesox-indians-writethru-idUSMTZEB9KZTH84X20150920'
p477
sg4
S'20150921\xc2\xa06:17PM UTC'
p478
sg6
S'Tomlin, Chisenhall help Indians beat White Sox'
p479
sa(dp480
g2
S'http://www.reuters.com/article/fbn-cardinals-bears-writethru-idUSMTZEB9KZT263H20150920'
p481
sg4
S'20150921\xc2\xa06:12PM UTC'
p482
sg6
S'Bears QB Cutler injured in loss to Cardinals'
p483
sa(dp484
g2
S'http://www.reuters.com/article/bbo-royals-tigers-writethru-idUSMTZEB9KZTUL6L20150920'
p485
sg4
S'20150921\xc2\xa06:04PM UTC'
p486
sg6
S"Morales' three homers send Royals over Tigers"
p487
sa(dp488
g2
S'http://www.reuters.com/article/fbn-falcons-giants-writethru-idUSMTZEB9KZT8S4220150920'
p489
sg4
S'20150921\xc2\xa06:03PM UTC'
p490
sg6
S'Jones leads Falcons to win over Giants'
p491
sa(dp492
g2
S'http://www.reuters.com/article/apple-china-malware-idUSL1N11Q0LT20150920'
p493
sg4
S'20150921\xc2\xa06:01PM UTC'
p494
sg6
S"UPDATE 1-Apple's iOS App Store suffers first major attack"
p495
sa(dp496
g2
S'http://www.reuters.com/article/us-canada-election-military-idUSKCN0RK0TE20150920'
p497
sg4
S'20150921\xc2\xa05:56PM UTC'
p498
sg6
S'Canada Liberal leader Trudeau says would scrap F-35 program'
p499
sa(dp500
g2
S'http://www.reuters.com/article/canada-election-military-idUSL1N11Q0Q020150920'
p501
sg4
S'20150921\xc2\xa05:53PM UTC'
p502
sg6
S'UPDATE 1-Canada Liberal leader Trudeau says would scrap F-35 program'
p503
sa(dp504
g2
S'http://www.reuters.com/article/us-warnerbrothers-chinaventure-idUSKCN0RK14020150920'
p505
sg4
S'20150921\xc2\xa05:52PM UTC'
p506
sg6
S'Warner Bros, CMC in joint venture to launch China movies'
p507
sa(dp508
g2
S'http://www.reuters.com/article/warnerbrothers-chinaventure-idUSL4N11Q0G420150920'
p509
sg4
S'20150921\xc2\xa05:47PM UTC'
p510
sg6
S'UPDATE 1-Warner Bros, CMC in joint venture to launch China movies'
p511
sa(dp512
g2
S'http://www.reuters.com/article/eurozone-greece-election-idUSL5N11Q00W20150920'
p513
sg4
S'20150921\xc2\xa05:42PM UTC'
p514
sg6
S'UPDATE 7-Greek leftist Tsipras returns in unexpectedly decisive vote win'
p515
sa(dp516
g2
S'http://www.reuters.com/article/bbo-angels-twins-recap-idUSMTZEB9KZVP5GA20150920'
p517
sg4
S'20150921\xc2\xa05:39PM UTC'
p518
sg6
S'Twins 8, Angels 1'
p519
sa(dp520
g2
S'http://www.reuters.com/article/bbo-orioles-rays-writethru-idUSMTZEB9KZU4J8C20150920'
p521
sg4
S'20150921\xc2\xa05:39PM UTC'
p522
sg6
S'Rays rally in 9th to beat Orioles'
p523
sa(dp524
g2
S'http://www.reuters.com/article/bbo-phillies-braves-recap-idUSMTZEB9KZSS82E20150920'
p525
sg4
S'20150921\xc2\xa05:37PM UTC'
p526
sg6
S'Braves 2, Phillies 1'
p527
sa(dp528
g2
S'http://www.reuters.com/article/schaeffler-ipo-idUSL1N11Q0OU20150920'
p529
sg4
S'20150921\xc2\xa05:27PM UTC'
p530
sg6
S"REFILE-Germany's Schaeffler planning Frankfurt listing - Bloomberg"
p531
sa(dp532
g2
S'http://www.reuters.com/article/il-aspendental-nascar-idUSnPn6Xhb6m+90+PRN20150920'
p533
sg4
S'20150921\xc2\xa05:25PM UTC'
p534
sg6
S'Aspen Dental Practices, Got Your 6 and Danica Patrick Pay Tribute to Veterans at Chicagoland Speedway'
p535
sa(dp536
g2
S'http://www.reuters.com/article/us-burkina-army-idUSKCN0RK0ED20150920'
p537
sg4
S'20150921\xc2\xa05:24PM UTC'
p538
sg6
S'Mediators announce deal to end Burkina coup crisis, questions remain'
p539
sa(dp540
g2
S'http://www.reuters.com/article/us-china-robots-idUSKCN0RK13720150920'
p541
sg4
S'20150921\xc2\xa05:21PM UTC'
p542
sg6
S'Technology gap gives foreign firms the edge in China robot wars'
p543
sa(dp544
g2
S'http://www.reuters.com/article/us-usa-indiana-coach-idUSKCN0RK13M20150920'
p545
sg4
S'20150921\xc2\xa05:19PM UTC'
p546
sg6
S'Award-winning gymnastics coach found dead in Indiana jail'
p547
sa(dp548
g2
S'http://www.reuters.com/article/thailand-politics-idUSL4N11Q0FO20150920'
p549
sg4
S'20150921\xc2\xa05:07PM UTC'
p550
sg6
S'RPT-UPDATE 1-Thaksin tells Thailand\'s red shirt opposition: "play dead"... for now'
p551
sa(dp552
g2
S'http://www.reuters.com/article/bbo-marlins-nationals-recap-idUSMTZEB9KZTY97A20150920'
p553
sg4
S'20150921\xc2\xa05:01PM UTC'
p554
sg6
S'Nationals 13, Marlins 3'
p555
sa(dp556
g2
S'http://www.reuters.com/article/us-climatechange-carbon-idUSKCN0RK12V20150920'
p557
sg4
S'20150921\xc2\xa05:00PM UTC'
p558
sg6
S'Carbon pricing schemes double since 2012 in climate fight: World Bank'
p559
sa(dp560
g2
S'http://www.reuters.com/article/china-robots-idUSL1N11N0C220150920'
p561
sg4
S'20150921\xc2\xa05:00PM UTC'
p562
sg6
S'Technology gap gives foreign firms the edge in China robot wars'
p563
sa(dp564
g2
S'http://www.reuters.com/article/japan-economy-boj-idUSL4N11O3FV20150920'
p565
sg4
S'20150921\xc2\xa05:00PM UTC'
p566
sg6
S'RPT-BOJ brainstorms stimulus overhaul as options dwindle -sources'
p567
sa(dp568
g2
S'http://www.reuters.com/article/us-usa-election-republicans-idUSKCN0RK0ND20150920'
p569
sg4
S'20150921\xc2\xa04:59PM UTC'
p570
sg6
S'Republican candidate Carson says Muslims unfit to be U.S. president'
p571
sa(dp572
g2
S'http://www.reuters.com/article/us-usa-boxoffice-idUSKCN0RK0PN20150920'
p573
sg4
S'20150921\xc2\xa04:50PM UTC'
p574
sg6
S"'Maze Runner 2' sprints past Johnny Depp's 'Black Mass' with $30.3 million"
p575
sa(dp576
g2
S'http://www.reuters.com/article/us-eurozone-greece-election-dijsselbloem-idUSKCN0RK12P20150920'
p577
sg4
S'20150921\xc2\xa04:50PM UTC'
p578
sg6
S'Eurogroup chief says ready to work closely with Greece in reform efforts'
p579
sa(dp580
g2
S'http://www.reuters.com/article/eurozone-greece-election-dijsselbloem-idUSB5N0OU00T20150920'
p581
sg4
S'20150921\xc2\xa04:48PM UTC'
p582
sg6
S'Eurogroup chief says ready to work closely with Greece in reform efforts'
p583
sa(dp584
g2
S'http://www.reuters.com/article/us-ralph-lauren-stocks-barrons-idUSKCN0RK12C20150920'
p585
sg4
S'20150921\xc2\xa04:38PM UTC'
p586
sg6
S"Ralph Lauren is trading at a discount: Barron's"
p587
sa(dp588
g2
S'http://www.reuters.com/article/us-yemen-security-usa-idUSKCN0RK0M520150920'
p589
sg4
S'20150921\xc2\xa04:36PM UTC'
p590
sg6
S'Two Americans, Briton, three Saudis released from Yemen: officials'
p591
sa(dp592
g2
S'http://www.reuters.com/article/us-golf-european-idUSKCN0RK12820150920'
p593
sg4
S'20150921\xc2\xa04:34PM UTC'
p594
sg6
S'Swede Karlberg beats Kaymer in Italian Open playoff'
p595
sa(dp596
g2
S'http://www.reuters.com/article/ralph-lauren-stocks-barrons-idUSL1N11Q0N420150920'
p597
sg4
S'20150921\xc2\xa04:32PM UTC'
p598
sg6
S"Ralph Lauren is trading at a discount - Barron's"
p599
sa(dp600
g2
S'http://www.reuters.com/article/us-nigeria-violence-idUSKCN0RK11Q20150920'
p601
sg4
S'20150921\xc2\xa04:27PM UTC'
p602
sg6
S'Message said to be from Boko Haram leader attacks Nigerian army'
p603
sa(dp604
g2
S'http://www.reuters.com/article/us-motor-racing-prix-intruder-idUSKCN0RK0TM20150920'
p605
sg4
S'20150921\xc2\xa04:25PM UTC'
p606
sg6
S'Track intruder sets pulses racing at Singapore GP'
p607
sa(dp608
g2
S'http://www.reuters.com/article/us-motor-racing-prix-idUSKCN0RK0MD20150920'
p609
sg4
S'20150921\xc2\xa04:25PM UTC'
p610
sg6
S'Vettel claims victory in Singapore Grand Prix'
p611
sa(dp612
g2
S'http://www.reuters.com/article/nauticamalibutri-idUSnPnv8tLd+42+PRN20150920'
p613
sg4
S'20150921\xc2\xa04:22PM UTC'
p614
sg6
S"The 29th Annual Nautica Malibu Triathlon Presented By Equinox Raised Over $1,317,000 To Benefit Children's Hospital Los Angeles"
p615
sa(dp616
g2
S'http://www.reuters.com/article/motor-racing-prix-intruder-idUSL4N11Q0C820150920'
p617
sg4
S'20150921\xc2\xa04:21PM UTC'
p618
sg6
S'UPDATE 2-Motor racing-Track intruder sets pulses racing at Singapore GP'
p619
sa(dp620
g2
S'http://www.reuters.com/article/us-eurozone-greece-election-tsipras-idUSKCN0RK11N20150920'
p621
sg4
S'20150921\xc2\xa04:16PM UTC'
p622
sg6
S"Greece's Tspiras says 'vindicated' by election victory"
p623
sa(dp624
g2
S'http://www.reuters.com/article/eurozone-greece-election-tsipras-idUSA8N10L02H20150920'
p625
sg4
S'20150921\xc2\xa04:15PM UTC'
p626
sg6
S"Greece's Tspiras says 'vindicated' by election victory"
p627
sa(dp628
g2
S'http://www.reuters.com/article/us-europe-migrants-france-idUSKCN0RK0M920150920'
p629
sg4
S'20150921\xc2\xa04:14PM UTC'
p630
sg6
S'France calls to solve refugee crisis sticking points before EU summit'
p631
sa(dp632
g2
S'http://www.reuters.com/article/us-cycling-world-timetrial-idUSKCN0RK11L20150920'
p633
sg4
S'20150921\xc2\xa04:13PM UTC'
p634
sg6
S'BMC Racing retain team time trial world title'
p635
sa(dp636
g2
S'http://www.reuters.com/article/us-golf-solheim-idUSKCN0RK0O220150920'
p637
sg4
S'20150921\xc2\xa04:10PM UTC'
p638
sg6
S'Controversy as U.S. battle back to win Solheim Cup'
p639
sa(dp640
g2
S'http://www.reuters.com/article/us-golf-solheim-americans-idUSKCN0RK11F20150920'
p641
sg4
S'20150921\xc2\xa04:09PM UTC'
p642
sg6
S'U.S. team put right a Solheim Cup wrong, says Lewis'
p643
sa(dp644
g2
S'http://www.reuters.com/article/us-filmfestival-toronto-idUSKCN0RK0WN20150920'
p645
sg4
S'20150921\xc2\xa04:01PM UTC'
p646
sg6
S"Kidnapping tale 'Room' takes top prize at Toronto film festival"
p647
sa(dp648
g2
S'http://www.reuters.com/article/climatechange-carbon-idUSL5N11Q0B420150920'
p649
sg4
S'20150921\xc2\xa04:00PM UTC'
p650
sg6
S'Carbon pricing schemes double since 2012 in climate fight - World Bank'
p651
sa(dp652
g2
S'http://www.reuters.com/article/us-motor-racing-lotus-maldonado-idUSKCN0RK11520150920'
p653
sg4
S'20150921\xc2\xa03:58PM UTC'
p654
sg6
S'Maldonado staying with Lotus in 2016'
p655
sa(dp656
g2
S'http://www.reuters.com/article/filmfestival-toronto-idUSL1N11Q0LD20150920'
p657
sg4
S'20150921\xc2\xa03:57PM UTC'
p658
sg6
S'UPDATE 1-Kidnapping tale "Room" takes top prize at Toronto film festival'
p659
sa(dp660
g2
S'http://www.reuters.com/article/us-tennis-davis-playoffs-idUSKCN0RK0LK20150920'
p661
sg4
S'20150921\xc2\xa03:56PM UTC'
p662
sg6
S'Federer helps Swiss win but coy on Davis Cup future'
p663
sa(dp664
g2
S'http://www.reuters.com/article/motor-racing-lotus-maldonado-idUSL4N11Q0EA20150920'
p665
sg4
S'20150921\xc2\xa03:55PM UTC'
p666
sg6
S'Motor racing-Maldonado staying with Lotus in 2016'
p667
sa(dp668
g2
S'http://www.reuters.com/article/us-golf-solheim-pettersen-idUSKCN0RK11120150920'
p669
sg4
S'20150921\xc2\xa03:54PM UTC'
p670
sg6
S'I would do same again, says unrepentant Pettersen'
p671
sa(dp672
g2
S'http://www.reuters.com/article/us-basketball-european-idUSKCN0RK0Y620150920'
p673
sg4
S'20150921\xc2\xa03:50PM UTC'
p674
sg6
S'Inspired Gasol propels Spain to European title'
p675
sa(dp676
g2
S'http://www.reuters.com/article/basketball-european-spain-idUSL4N11Q0DT20150920'
p677
sg4
S'20150921\xc2\xa03:49PM UTC'
p678
sg6
S'UPDATE 1-Basketball-Inspired Gasol propels Spain to European title'
p679
sa(dp680
g2
S'http://www.reuters.com/article/us-burkina-army-draft-idUSKCN0RK10Q20150920'
p681
sg4
S'20150921\xc2\xa03:46PM UTC'
p682
sg6
S'Mediators announce draft deal to end coup crisis in Burkina Faso'
p683
sa(dp684
g2
S'http://www.reuters.com/article/us-nepal-constitution-idUSKCN0RK0LU20150920'
p685
sg4
S'20150921\xc2\xa03:45PM UTC'
p686
sg6
S'Nepal adopts constitution born of bloodshed, compromise'
p687
sa(dp688
g2
S'http://www.reuters.com/article/us-usa-shooting-alabama-idUSKCN0RK10F20150920'
p689
sg4
S'20150921\xc2\xa03:34PM UTC'
p690
sg6
S'Suspect wounds three in shooting at Alabama church: prosecutor'
p691
sa(dp692
g2
S'http://www.reuters.com/article/bc-artprice-idUSnPn1l1NQX+87+PRN20150920'
p693
sg4
S'20150921\xc2\xa03:32PM UTC'
p694
sg6
S'After 10 Years of Publishing Free Ads for Clients, Artprice is Introducing Charges on the Fixed-Price Arm of its Online Marketplace'
p695
sa(dp696
g2
S'http://www.reuters.com/article/us-europe-migrants-kerry-idUSKCN0RK0RU20150920'
p697
sg4
S'20150921\xc2\xa03:30PM UTC'
p698
sg6
S'Kerry says U.S. ready to take more refugees'
p699
sa(dp700
g2
S'http://www.reuters.com/article/us-bnsf-derailment-idUSKCN0RK0WR20150920'
p701
sg4
S'20150921\xc2\xa03:29PM UTC'
p702
sg6
S'Part of BNSF South Dakota track out of service after derailment'
p703
sa(dp704
g2
S'http://www.reuters.com/article/us-rugby-union-world-idUSKCN0RK0ZT20150920'
p705
sg4
S'20150921\xc2\xa03:25PM UTC'
p706
sg6
S'All Blacks survive scare to beat Pumas, Samoa and Wales also win'
p707
sa(dp708
g2
S'http://www.reuters.com/article/us-pope-cuba-castro-idUSKCN0RK0U220150920'
p709
sg4
S'20150921\xc2\xa03:20PM UTC'
p710
sg6
S"Pope Francis meets Cuba's revolutionary leader Fidel Castro "
p711
sa(dp712
g2
S'http://www.reuters.com/article/us-eurozone-greece-france-idUSKCN0RK0Z420150920'
p713
sg4
S'20150921\xc2\xa03:20PM UTC'
p714
sg6
S"France calls Syriza's victory in Greece an 'important success' "
p715
sa(dp716
g2
S'http://www.reuters.com/article/us-eurozone-greece-election-kammenos-idUSKCN0RK0ZK20150920'
p717
sg4
S'20150921\xc2\xa03:20PM UTC'
p718
sg6
S'Independent Greeks party leader says will ally with Syriza'
p719
sa(dp720
g2
S'http://www.reuters.com/article/eurozone-greece-election-kammenos-idUSA8N10L02I20150920'
p721
sg4
S'20150921\xc2\xa03:17PM UTC'
p722
sg6
S'Independent Greeks party leader says will ally with Syriza'
p723
sa(dp724
g2
S'http://www.reuters.com/article/us-iran-nuclear-visit-idUSKCN0RK0RX20150920'
p725
sg4
S'20150921\xc2\xa03:15PM UTC'
p726
sg6
S'U.N. nuclear watchdog says its chief visited military site in Iran'
p727
sa(dp728
g2
S'http://www.reuters.com/article/idUSnGNX6mm2vF+1c1+GNW20150920'
p729
sg4
S'20150921\xc2\xa03:15PM UTC'
p730
sg6
S"Paratek's Omadacycline, Demonstrates Broad Spectrum Activity in Pathogens Relevant in Skin Infections, Community-acquired Pneumonia and Urinary Tract Infections"
p731
sa(dp732
g2
S'http://www.reuters.com/article/apple-china-malware-idUSL1N11Q0KV20150920'
p733
sg4
S'20150921\xc2\xa03:13PM UTC'
p734
sg6
S'Malware hits Chinese apps in Apple App Store -cyber security blog'
p735
sa(dp736
g2
S'http://www.reuters.com/article/us-eurozone-greece-election-projection-idUSKCN0RK0Z220150920'
p737
sg4
S'20150921\xc2\xa03:12PM UTC'
p738
sg6
S"Greece's Syriza leads with 35.5 percent of vote: 50 percent counted"
p739
sa(dp740
g2
S'http://www.reuters.com/article/us-yemen-security-houthi-idUSKCN0RK0YY20150920'
p741
sg4
S'20150921\xc2\xa03:11PM UTC'
p742
sg6
S"Leader says Yemen's Houthis to fight on, but political settlement possible"
p743
sa(dp744
g2
S'http://www.reuters.com/article/chile-quake-copper-idUSL1N11Q0L220150920'
p745
sg4
S'20150921\xc2\xa03:09PM UTC'
p746
sg6
S'Copper in Caserones warehouse in Chile safe after tsunami -company'
p747
sa(dp748
g2
S'http://www.reuters.com/article/idUSnMKWxnJJNa+1ce+MKW20150920'
p749
sg4
S'20150921\xc2\xa03:08PM UTC'
p750
sg6
S"Media Advisory: Sudbury paramedics to join rally Monday in Ottawa to protest risky proposal to water down paramedic services' response"
p751
sa(dp752
g2
S'http://www.reuters.com/article/us-nfl-cowboys-bryant-idUSKCN0RK0YW20150920'
p753
sg4
S'20150921\xc2\xa03:08PM UTC'
p754
sg6
S'Dallas receiver Bryant could be out longer with foot injury'
p755
sa(dp756
g2
S'http://www.reuters.com/article/idUSnGNX5lB3Pk+1ca+GNW20150920'
p757
sg4
S'20150921\xc2\xa03:08PM UTC'
p758
sg6
S'Alamo Capital Selected as Co-Manager on the Contra Costa Transportation Authority (CCTA) Sales Tax Revenue Bonds'
p759
sa(dp760
g2
S'http://www.reuters.com/article/eurozone-greece-election-projection-idUSL5N11Q0RB20150920'
p761
sg4
S'20150921\xc2\xa03:07PM UTC'
p762
sg6
S"Greece's Syriza leads with 35.5 pct of vote - 50 pct counted"
p763
sa(dp764
g2
S'http://www.reuters.com/article/us-fashion-london-business-idUSKCN0RK0YS20150920'
p765
sg4
S'20150921\xc2\xa03:06PM UTC'
p766
sg6
S'London designers blend creativity with commerce at fashion week'
p767
sa(dp768
g2
S'http://www.reuters.com/article/us-burkina-france-idUSKCN0RK0YQ20150920'
p769
sg4
S'20150921\xc2\xa03:04PM UTC'
p770
sg6
S"France issues 'strong warning' not to block mediation in Burkina Faso"
p771
sa(dp772
g2
S'http://www.reuters.com/article/newzealand-diary-idUSL4N11N5VR20150920'
p773
sg4
S'20150921\xc2\xa03:00PM UTC'
p774
sg6
S'DIARY-New Zealand Sept 21 - Sept 30'
p775
sa(dp776
g2
S'http://www.reuters.com/article/us-eurozone-greece-election-bailout-idUSKCN0RK0YM20150920'
p777
sg4
S'20150921\xc2\xa03:00PM UTC'
p778
sg6
S"Greece's Syriza will implement EU bailout agreement: party spokeswoman"
p779
sa(dp780
g2
S'http://www.reuters.com/article/idUSnMKW6s3t5a+1c0+MKW20150920'
p781
sg4
S'20150921\xc2\xa02:59PM UTC'
p782
sg6
S"Media Advisory: Renfrew paramedics to join rally Monday in Ottawa to protest risky proposal to water down paramedic services' response"
p783
sa(dp784
g2
S'http://www.reuters.com/article/us-autoshow-frankfurt-magna-idUSKCN0RK0YC20150920'
p785
sg4
S'20150921\xc2\xa02:58PM UTC'
p786
sg6
S'Cheap robots may shift car making from China to U.S.: Magna CEO'
p787
sa(dp788
g2
S'http://www.reuters.com/article/burkina-france-idUSL5N11Q0SN20150920'
p789
sg4
S'20150921\xc2\xa02:58PM UTC'
p790
sg6
S'France issues "strong warning" not to block mediation in Burkina Faso'
p791
sa(dp792
g2
S'http://www.reuters.com/article/eurozone-greece-election-bailout-idUSA8N10L02J20150920'
p793
sg4
S'20150921\xc2\xa02:57PM UTC'
p794
sg6
S"Greece's Syriza will implement EU bailout agreement - party spokeswoman"
p795
sa(dp796
g2
S'http://www.reuters.com/article/fashion-london-business-idUSL5N11N4G820150920'
p797
sg4
S'20150921\xc2\xa02:57PM UTC'
p798
sg6
S'London designers blend creativity with commerce at fashion week'
p799
sa(dp800
g2
S'http://www.reuters.com/article/autoshow-frankfurt-magna-idUSL5N11Q0S720150920'
p801
sg4
S'20150921\xc2\xa02:53PM UTC'
p802
sg6
S'Magna CEO: cheap robots may shift car making from China to U.S.'
p803
sa(dp804
g2
S'http://www.reuters.com/article/us-europe-migrants-poland-conditions-idUSKCN0RK0XV20150920'
p805
sg4
S'20150921\xc2\xa02:52PM UTC'
p806
sg6
S"Poland says it will accept only a 'symbolic' number of refugees"
p807
sa(dp808
g2
S'http://www.reuters.com/article/us-usa-wildfires-california-idUSKCN0RK0TU20150920'
p809
sg4
S'20150921\xc2\xa02:52PM UTC'
p810
sg6
S'Thousands of evacuees head home as California blazes near containment'
p811
sa(dp812
g2
S'http://www.reuters.com/article/us-kenya-president-idUSKCN0RK0XO20150920'
p813
sg4
S'20150921\xc2\xa02:43PM UTC'
p814
sg6
S"Kenyan president says striking teachers' pay demand unsustainable"
p815
sa(dp816
g2
S'http://www.reuters.com/article/us-tennis-davis-belgium-idUSKCN0RK0XI20150920'
p817
sg4
S'20150921\xc2\xa02:42PM UTC'
p818
sg6
S'Belgium back in Davis Cup final after 111 years'
p819
sa(dp820
g2
S'http://www.reuters.com/article/idUSnMKWV1wBza+1e4+MKW20150920'
p821
sg4
S'20150921\xc2\xa02:39PM UTC'
p822
sg6
S"Media Advisory: Paramedics rally Monday in Ottawa to protest risky proposal to water down paramedic services' response"
p823
sa(dp824
g2
S'http://www.reuters.com/article/motor-racing-prix-teams-idUSL4N11Q0DM20150920'
p825
sg4
S'20150921\xc2\xa02:38PM UTC'
p826
sg6
S'Motor racing-Team by team analysis of Singapore Grand Prix'
p827
sa(dp828
g2
S'http://www.reuters.com/article/us-eurozone-greece-election-goldendawn-idUSKCN0RK0XC20150920'
p829
sg4
S'20150921\xc2\xa02:35PM UTC'
p830
sg6
S"Greece's far right Golden Dawn makes modest gains"
p831
sa(dp832
g2
S'http://www.reuters.com/article/us-tennis-davis-britain-idUSKCN0RK0MF20150920'
p833
sg4
S'20150921\xc2\xa02:10PM UTC'
p834
sg6
S'Classy Murray sends Britain into Davis Cup final'
p835
sa(dp836
g2
S'http://www.reuters.com/article/filmfestival-toronto-idUSL1N11Q0IY20150920'
p837
sg4
S'20150921\xc2\xa02:09PM UTC'
p838
sg6
S'Kidnapping tale "Room" takes top prize at Toronto film festival'
p839
sa(dp840
g2
S'http://www.reuters.com/article/uk-eurozone-greece-election-defeat-idUSKCN0RK0VK20150920'
p841
sg4
S'20150921\xc2\xa02:09PM UTC'
p842
sg6
S'Greek conservative leader concedes election defeat'
p843
sa(dp844
g2
S'http://www.reuters.com/article/us-eurozone-greece-election-alliance-idUSKCN0RK0WH20150920'
p845
sg4
S'20150921\xc2\xa02:08PM UTC'
p846
sg6
S"Greece's Syriza to seek alliance with Independent Greeks: source"
p847
sa(dp848
g2
S'http://www.reuters.com/article/nigeria-oil-idUSL5N11Q0IY20150920'
p849
sg4
S'20150921\xc2\xa02:07PM UTC'
p850
sg6
S"OFFICIAL CORRECTION-Nigeria's state oil company secures $1.2 bln drilling financing package - NNPC"
p851
sa(dp852
g2
S'http://www.reuters.com/article/eurozone-greece-election-alliance-idUSA8N10L02G20150920'
p853
sg4
S'20150921\xc2\xa02:05PM UTC'
p854
sg6
S"Greece's Syriza to seek alliance with Independent Greeks -source"
p855
sa(dp856
g2
S'http://www.reuters.com/article/us-mexico-telecoms-idUSKCN0RK0W720150920'
p857
sg4
S'20150921\xc2\xa02:03PM UTC'
p858
sg6
S'Mexico to auction wireless spectrum in January'
p859
sa(dp860
g2
S'http://www.reuters.com/article/mexico-telecoms-idUSL1N11Q0I320150920'
p861
sg4
S'20150921\xc2\xa02:01PM UTC'
p862
sg6
S'Mexico to auction wireless spectrum in January'
p863
sa(dp864
g2
S'http://www.reuters.com/article/merlion-pharmaceuticals-idUSnBw205005a+100+BSW20150920'
p865
sg4
S'20150921\xc2\xa02:00PM UTC'
p866
sg6
S'MerLion\xe2\x80\x99s Finafloxacin Shown to be More Efficacious than Ciprofloxacin in the Treatment of Complicated Urinary Tract Infections'
p867
sa(dp868
g2
S'http://www.reuters.com/article/us-atmel-m-a-dialog-idUSKCN0RK0J420150920'
p869
sg4
S'20150921\xc2\xa01:58PM UTC'
p870
sg6
S'Dialog Semiconductor to buy U.S. peer Atmel for $4.6 billion'
p871
sa(dp872
g2
S'http://www.reuters.com/article/atmel-ma-dialog-idUSL5N11Q0FP20150920'
p873
sg4
S'20150921\xc2\xa01:57PM UTC'
p874
sg6
S'UPDATE 3-Dialog Semiconductor to buy U.S. peer Atmel for $4.6 bln'
p875
sa(dp876
g2
S'http://www.reuters.com/article/us-europe-migrants-croatia-slovenia-idUSKCN0RK05L20150920'
p877
sg4
S'20150921\xc2\xa01:56PM UTC'
p878
sg6
S'On a Balkan border: A Swedish chef and, perhaps, a foretaste of home'
p879
sa(dp880
g2
S'http://www.reuters.com/article/us-europe-migrants-austria-idUSKCN0RK0JK20150920'
p881
sg4
S'20150921\xc2\xa01:54PM UTC'
p882
sg6
S'Flow of migrants into Austria from Hungary increases'
p883
sa(dp884
g2
S'http://www.reuters.com/article/cair-call-to-carson-idUSnPn6mMXJ7+8e+PRN20150920'
p885
sg4
S'20150921\xc2\xa01:53PM UTC'
p886
sg6
S'CAIR to Call on Ben Carson to Withdraw from Presidential Race Over Anti-Islam Comments'
p887
sa(dp888
g2
S'http://www.reuters.com/article/europe-migrants-austria-idUSL5N11Q0G320150920'
p889
sg4
S'20150921\xc2\xa01:49PM UTC'
p890
sg6
S'UPDATE 2-Flow of migrants into Austria from Hungary increases'
p891
sa(dp892
g2
S'http://www.reuters.com/article/chaka-fattah-gear-up-idUSnPn5JltmG+91+PRN20150920'
p893
sg4
S'20150921\xc2\xa01:49PM UTC'
p894
sg6
S'MEDIA ADVISORY: Fattah to Speak to Roxborough High School Seniors and Kick Off National GEAR UP Week in Philadelphia'
p895
sa(dp896
g2
S'http://www.reuters.com/article/us-eurozone-greece-election-projection-idUSKCN0RK0VM20150920'
p897
sg4
S'20150921\xc2\xa01:48PM UTC'
p898
sg6
S'Greek leftist Syriza leads with 35.3 percent of vote in election: 25 percent counted'
p899
sa(dp900
g2
S'http://www.reuters.com/article/eurozone-greece-election-projection-idUSL5N11Q0PP20150920'
p901
sg4
S'20150921\xc2\xa01:47PM UTC'
p902
sg6
S'Greek leftist Syriza leads with 35.3 pct of vote in election - 25 pct counted'
p903
sa(dp904
g2
S'http://www.reuters.com/article/eurozone-greece-election-defeat-idUSA8N10L02520150920'
p905
sg4
S'20150921\xc2\xa01:45PM UTC'
p906
sg6
S'Greek conservative leader concedes election defeat'
p907
sa(dp908
g2
S'http://www.reuters.com/article/eurozone-greece-election-government-idUSA8N0Z302H20150920'
p909
sg4
S'20150921\xc2\xa01:38PM UTC'
p910
sg6
S'Greek leftist Syriza will form government within three days - party source'
p911
sa(dp912
g2
S'http://www.reuters.com/article/ca-imdb-room-idUSnBw205057a+100+BSW20150920'
p913
sg4
S'20150921\xc2\xa01:37PM UTC'
p914
sg6
S'IMDb Congratulates Brie Larson, Recipient of the IMDb STARmeter Award at the 2015 Toronto International Film Festival, on Room\xe2\x80\x99s Audience Award Win Today at TIFF'
p915
sa(dp916
g2
S'http://www.reuters.com/article/us-yemen-security-whitehouse-idUSKCN0RK0UY20150920'
p917
sg4
S'20150921\xc2\xa01:32PM UTC'
p918
sg6
S'White House says two U.S. citizens released in Yemen'
p919
sa(dp920
g2
S'http://www.reuters.com/article/us-europe-migrants-merkel-idUSKCN0RK0UW20150920'
p921
sg4
S'20150921\xc2\xa01:31PM UTC'
p922
sg6
S"Merkel tells Europe: Germany can't cope with migrants alone"
p923
sa(dp924
g2
S'http://www.reuters.com/article/mptf-emmy-event-idUSnPn99LKXs+8e+PRN20150920'
p925
sg4
S'20150921\xc2\xa01:24PM UTC'
p926
sg6
S'9th Annual "Evening Before" Benefitting Motion Picture & Television Fund'
p927
sa(dp928
g2
S'http://www.reuters.com/article/motor-racing-prix-idUSKCN0RK0MJ20150920'
p929
sg4
S'20150921\xc2\xa01:17PM UTC'
p930
sg6
S'Vettel wins dramatic Singapore GP'
p931
sa(dp932
g2
S'http://www.reuters.com/article/motor-racing-prix-idUSL1N11Q07Z20150920'
p933
sg4
S'20150921\xc2\xa01:17PM UTC'
p934
sg6
S'UPDATE 3-Motor racing-Vettel wins dramatic Singapore GP'
p935
sa(dp936
g2
S'http://www.reuters.com/article/eurozone-greece-election-projection-idUSA8N10L02C20150920'
p937
sg4
S'20150921\xc2\xa01:16PM UTC'
p938
sg6
S'Greek leftist Syriza to take 35 pct in election - 10 pct of vote counted'
p939
sa(dp940
g2
S'http://www.reuters.com/article/cricket-india-dalmiya-idUSKCN0RK0U420150920'
p941
sg4
S'20150921\xc2\xa01:10PM UTC'
p942
sg6
S'Former ICC chief Dalmiya dies at 75'
p943
sa(dp944
g2
S'http://www.reuters.com/article/fbn-cardinals-playerwatch-idUSMTZEB9KZJD18H20150920'
p945
sg4
S'20150921\xc2\xa01:03PM UTC'
p946
sg6
S'Arizona Cardinals - PlayerWatch'
p947
sa(dp948
g2
S'http://www.reuters.com/article/fbn-bears-playerwatch-idUSMTZEB9KZJD18Y20150920'
p949
sg4
S'20150921\xc2\xa01:03PM UTC'
p950
sg6
S'Chicago Bears - PlayerWatch'
p951
sa(dp952
g2
S'http://www.reuters.com/article/fbn-panthers-playerwatch-idUSMTZEB9KZJD18X20150920'
p953
sg4
S'20150921\xc2\xa01:03PM UTC'
p954
sg6
S'Carolina Panthers - PlayerWatch'
p955
sa(dp956
g2
S'http://www.reuters.com/article/fbn-buffalo-playerwatch-idUSMTZEB9KZJD18W20150920'
p957
sg4
S'20150921\xc2\xa01:03PM UTC'
p958
sg6
S'Buffalo Bills - PlayerWatch'
p959
sa(dp960
g2
S'http://www.reuters.com/article/fbn-redskins-playerwatch-idUSMTZEB9KZJD18U20150920'
p961
sg4
S'20150921\xc2\xa01:03PM UTC'
p962
sg6
S'Washington Redskins - PlayerWatch'
p963
sa(dp964
g2
S'http://www.reuters.com/article/fbn-buccaneers-playerwatch-idUSMTZEB9KZJD18S20150920'
p965
sg4
S'20150921\xc2\xa01:03PM UTC'
p966
sg6
S'Tampa Bay Buccaneers - PlayerWatch'
p967
sa(dp968
g2
S'http://www.reuters.com/article/fbn-rams-playerwatch-idUSMTZEB9KZJD18R20150920'
p969
sg4
S'20150921\xc2\xa01:03PM UTC'
p970
sg6
S'St. Louis Rams - PlayerWatch'
p971
sa(dp972
g2
S'http://www.reuters.com/article/fbn-49ers-playerwatch-idUSMTZEB9KZJD18Q20150920'
p973
sg4
S'20150921\xc2\xa01:03PM UTC'
p974
sg6
S'San Francisco 49ers - PlayerWatch'
p975
sa(dp976
g2
S'http://www.reuters.com/article/fbn-saints-playerwatch-idUSMTZEB9KZJD18M20150920'
p977
sg4
S'20150921\xc2\xa01:03PM UTC'
p978
sg6
S'New Orleans Saints - PlayerWatch'
p979
sa(dp980
g2
S'http://www.reuters.com/article/fbn-falcons-playerwatch-idUSMTZEB9KZJD18L20150920'
p981
sg4
S'20150921\xc2\xa01:03PM UTC'
p982
sg6
S'Atlanta Falcons - PlayerWatch'
p983
sa(dp984
g2
S'http://www.reuters.com/article/fbn-patriots-playerwatch-idUSMTZEB9KZJD18K20150920'
p985
sg4
S'20150921\xc2\xa01:03PM UTC'
p986
sg6
S'New England Patriots - PlayerWatch'
p987
sa(dp988
g2
S'http://www.reuters.com/article/fbn-browns-playerwatch-idUSMTZEB9KZJD18Z20150920'
p989
sg4
S'20150921\xc2\xa01:03PM UTC'
p990
sg6
S'Cleveland Browns - PlayerWatch'
p991
sa(dp992
g2
S'http://www.reuters.com/article/deutsche-wohnen-idUSL5N11Q0LD20150920'
p993
sg4
S'20150921\xc2\xa01:02PM UTC'
p994
sg6
S'UPDATE 2-Deutsche Wohnen offers to buy peer LEG Immobilien'
p995
sa(dp996
g2
S'http://www.reuters.com/article/bbo-reds-playerwatch-idUSMTZEB9KZJ9R8220150920'
p997
sg4
S'20150921\xc2\xa01:01PM UTC'
p998
sg6
S'Cincinnati Reds - PlayerWatch'
p999
sa(dp1000
g2
S'http://www.reuters.com/article/bbo-cubs-playerwatch-idUSMTZEB9KZJ9R8120150920'
p1001
sg4
S'20150921\xc2\xa01:01PM UTC'
p1002
sg6
S'Chicago Cubs - PlayerWatch'
p1003
sa(dp1004
g2
S'http://www.reuters.com/article/bbo-whitesox-playerwatch-idUSMTZEB9KZJ9R8G20150920'
p1005
sg4
S'20150921\xc2\xa01:01PM UTC'
p1006
sg6
S'Chicago White Sox - PlayerWatch'
p1007
sa(dp1008
g2
S'http://www.reuters.com/article/bbo-cardinals-playerwatch-idUSMTZEB9KZJ9R8020150920'
p1009
sg4
S'20150921\xc2\xa01:01PM UTC'
p1010
sg6
S'St. Louis Cardinals - PlayerWatch'
p1011
sa(dp1012
g2
S'http://www.reuters.com/article/bbo-royals-playerwatch-idUSMTZEB9KZJ9R8F20150920'
p1013
sg4
S'20150921\xc2\xa01:01PM UTC'
p1014
sg6
S'Kansas City Royals - PlayerWatch'
p1015
sa(dp1016
g2
S'http://www.reuters.com/article/bbo-mets-playerwatch-idUSMTZEB9KZJ9R7Y20150920'
p1017
sg4
S'20150921\xc2\xa01:01PM UTC'
p1018
sg6
S'New York Mets - PlayerWatch'
p1019
sa(dp1020
g2
S'http://www.reuters.com/article/bbo-rays-playerwatch-idUSMTZEB9KZJ9R8E20150920'
p1021
sg4
S'20150921\xc2\xa01:01PM UTC'
p1022
sg6
S'Tampa Bay Rays - PlayerWatch'
p1023
sa(dp1024
g2
S'http://www.reuters.com/article/bbo-nationals-playerwatch-idUSMTZEB9KZJ9R7X20150920'
p1025
sg4
S'20150921\xc2\xa01:01PM UTC'
p1026
sg6
S'Washington Nationals - PlayerWatch'
p1027
sa(dp1028
g2
S'http://www.reuters.com/article/bbo-orioles-playerwatch-idUSMTZEB9KZJ9R8D20150920'
p1029
sg4
S'20150921\xc2\xa01:01PM UTC'
p1030
sg6
S'Baltimore Orioles - PlayerWatch'
p1031
sa(dp1032
g2
S'http://www.reuters.com/article/bbo-marlins-playerwatch-idUSMTZEB9KZJ9R7W20150920'
p1033
sg4
S'20150921\xc2\xa01:01PM UTC'
p1034
sg6
S'Miami Marlins - PlayerWatch'
p1035
sa(dp1036
g2
S'http://www.reuters.com/article/bbo-bluejays-playerwatch-idUSMTZEB9KZJ9R8C20150920'
p1037
sg4
S'20150921\xc2\xa01:01PM UTC'
p1038
sg6
S'Toronto Blue Jays - PlayerWatch'
p1039
sa(dp1040
g2
S'http://www.reuters.com/article/bbo-phillies-playerwatch-idUSMTZEB9KZJ9R7V20150920'
p1041
sg4
S'20150921\xc2\xa01:01PM UTC'
p1042
sg6
S'Philadelphia Phillies - PlayerWatch'
p1043
sa(dp1044
g2
S'http://www.reuters.com/article/bbo-redsox-playerwatch-idUSMTZEB9KZJ9R8B20150920'
p1045
sg4
S'20150921\xc2\xa01:01PM UTC'
p1046
sg6
S'Boston Red Sox - PlayerWatch'
p1047
sa(dp1048
g2
S'http://www.reuters.com/article/bbo-pirates-playerwatch-idUSMTZEB9KZJ9R8A20150920'
p1049
sg4
S'20150921\xc2\xa01:01PM UTC'
p1050
sg6
S'Pittsburgh Pirates - PlayerWatch'
p1051
sa(dp1052
g2
S'http://www.reuters.com/article/bbo-yankees-playerwatch-idUSMTZEB9KZJ9R8720150920'
p1053
sg4
S'20150921\xc2\xa01:01PM UTC'
p1054
sg6
S'New York Yankees - PlayerWatch'
p1055
sa(dp1056
g2
S'http://www.reuters.com/article/bbo-padres-playerwatch-idUSMTZEB9KZJ9R8920150920'
p1057
sg4
S'20150921\xc2\xa01:01PM UTC'
p1058
sg6
S'San Diego Padres - PlayerWatch'
p1059
sa(dp1060
g2
S'http://www.reuters.com/article/bbo-dodgers-playerwatch-idUSMTZEB9KZJ9R8620150920'
p1061
sg4
S'20150921\xc2\xa01:01PM UTC'
p1062
sg6
S'Los Angeles Dodgers - PlayerWatch'
p1063
sa(dp1064
g2
S'http://www.reuters.com/article/bbo-rockies-playerwatch-idUSMTZEB9KZJ9R8820150920'
p1065
sg4
S'20150921\xc2\xa01:01PM UTC'
p1066
sg6
S'Colorado Rockies - PlayerWatch'
p1067
sa(dp1068
g2
S'http://www.reuters.com/article/bbo-brewers-playerwatch-idUSMTZEB9KZJ9R8320150920'
p1069
sg4
S'20150921\xc2\xa01:01PM UTC'
p1070
sg6
S'Milwaukee Brewers - PlayerWatch'
p1071
sa(dp1072
g2
S'http://www.reuters.com/article/bbo-tigers-playerwatch-idUSMTZEB9KZJ9Q7P20150920'
p1073
sg4
S'20150921\xc2\xa01:01PM UTC'
p1074
sg6
S'Detroit Tigers - PlayerWatch'
p1075
sa(dp1076
g2
S'http://www.reuters.com/article/bbo-indians-playerwatch-idUSMTZEB9KZJ9Q7O20150920'
p1077
sg4
S'20150921\xc2\xa01:01PM UTC'
p1078
sg6
S'Cleveland Indians - PlayerWatch'
p1079
sa(dp1080
g2
S'http://www.reuters.com/article/bbo-twins-playerwatch-idUSMTZEB9KZJ9P7N20150920'
p1081
sg4
S'20150921\xc2\xa01:01PM UTC'
p1082
sg6
S'Minnesota Twins - PlayerWatch'
p1083
sa(dp1084
g2
S'http://www.reuters.com/article/bbo-braves-playerwatch-idUSMTZEB9KZJ9Q7U20150920'
p1085
sg4
S'20150921\xc2\xa01:01PM UTC'
p1086
sg6
S'Atlanta Braves - PlayerWatch'
p1087
sa(dp1088
g2
S'http://www.reuters.com/article/bbo-rangers-playerwatch-idUSMTZEB9KZJ9Q7T20150920'
p1089
sg4
S'20150921\xc2\xa01:01PM UTC'
p1090
sg6
S'Texas Rangers - PlayerWatch'
p1091
sa(dp1092
g2
S'http://www.reuters.com/article/bbo-angels-playerwatch-idUSMTZEB9KZJ9Q7S20150920'
p1093
sg4
S'20150921\xc2\xa01:01PM UTC'
p1094
sg6
S'Los Angeles Angels - PlayerWatch'
p1095
sa(dp1096
g2
S'http://www.reuters.com/article/bbo-mariners-playerwatch-idUSMTZEB9KZJ9Q7Q20150920'
p1097
sg4
S'20150921\xc2\xa01:01PM UTC'
p1098
sg6
S'Seattle Mariners - PlayerWatch'
p1099
sa(dp1100
g2
S'http://www.reuters.com/article/markets-stocks-usa-weekahead-idUSL1N11O24620150920'
p1101
sg4
S'20150921\xc2\xa01:00PM UTC'
p1102
sg6
S'RPT-Wall St Week Ahead-Dividend payers get a break from Fed decision'
p1103
sa(dp1104
g2
S'http://www.reuters.com/article/us-motor-racing-prix-ferrari-idUSKCN0RK0RJ20150920'
p1105
sg4
S'20150921\xc2\xa012:59PM UTC'
p1106
sg6
S'Vettel praises team as Ferrari thrive in Singapore'
p1107
sa(dp1108
g2
S'http://www.reuters.com/article/us-motor-racing-prix-toro-rosso-idUSKCN0RK0TH20150920'
p1109
sg4
S'20150921\xc2\xa012:56PM UTC'
p1110
sg6
S'Toro Rosso glad I ignored orders, says Verstappen'
p1111
sa(dp1112
g2
S'http://www.reuters.com/article/us-health-merck-c-dif-idUSKCN0RK0TC20150920'
p1113
sg4
S'20150921\xc2\xa012:51PM UTC'
p1114
sg6
S'Merck antibody reduces risk of Clostridium difficile recurrence: study'
p1115
sa(dp1116
g2
S'http://www.reuters.com/article/motor-racing-prix-williams-idUSL4N11Q0C520150920'
p1117
sg4
S'20150921\xc2\xa012:49PM UTC'
p1118
sg6
S'Motor racing-Williams suffer setback in pursuit of Ferrari'
p1119
sa(dp1120
g2
S'http://www.reuters.com/article/us-libya-security-idUSKCN0RK0TA20150920'
p1121
sg4
S'20150921\xc2\xa012:47PM UTC'
p1122
sg6
S"Fighting in Libya's Benghazi raises U.N. talks tensions"
p1123
sa(dp1124
g2
S'http://www.reuters.com/article/us-eurozone-greece-election-exitpoll-idUSKCN0RK0RZ20150920'
p1125
sg4
S'20150921\xc2\xa012:39PM UTC'
p1126
sg6
S'Exit poll from Greek election shows leftists Syriza winning'
p1127
sa(dp1128
g2
S'http://www.reuters.com/article/us-eurozone-greece-election-macedoniapol-idUSKCN0RK0S920150920'
p1129
sg4
S'20150921\xc2\xa012:39PM UTC'
p1130
sg6
S"Greece's Syriza to have won 31-35 percent of election vote-University of Macedonia poll "
p1131
sa(dp1132
g2
S'http://www.reuters.com/article/us-tennis-davis-belgium-idUSKCN0RK0RS20150920'
p1133
sg4
S'20150921\xc2\xa012:37PM UTC'
p1134
sg6
S"Goffin keeps Belgium's Davis Cup hopes alive"
p1135
sa(dp1136
g2
S'http://www.reuters.com/article/motor-racing-prix-toro-rosso-idUSL4N11Q0BU20150920'
p1137
sg4
S'20150921\xc2\xa012:35PM UTC'
p1138
sg6
S'Motor racing-Toro Rosso glad I ignored orders, says Verstappen'
p1139
sa(dp1140
g2
S'http://www.reuters.com/article/libya-security-idUSL5N11Q0CY20150920'
p1141
sg4
S'20150921\xc2\xa012:31PM UTC'
p1142
sg6
S"Fighting in Libya's Benghazi raises UN talks tensions"
p1143
sa(dp1144
g2
S'http://www.reuters.com/article/nj-merck-idUSnBw205053a+100+BSW20150920'
p1145
sg4
S'20150921\xc2\xa012:30PM UTC'
p1146
sg6
S'Pivotal Phase 3 Studies of Bezlotoxumab, Merck\xe2\x80\x99s Investigational Antitoxin to Prevent Clostridium Difficile Infection Recurrence, Met Primary Endpoint'
p1147
sa(dp1148
g2
S'http://www.reuters.com/article/health-merck-c-dif-idUSL1N11O1NR20150920'
p1149
sg4
S'20150921\xc2\xa012:30PM UTC'
p1150
sg6
S'Merck antibody reduces risk of C. difficile recurrence - study'
p1151
sa(dp1152
g2
S'http://www.reuters.com/article/canada-election-military-idUSL1N11Q0FV20150920'
p1153
sg4
S'20150921\xc2\xa012:26PM UTC'
p1154
sg6
S'Canada Liberal leader Trudeau says would scrap F-35 program'
p1155
sa(dp1156
g2
S'http://www.reuters.com/article/world-bank-protest-idUSnBw205055a+100+BSW20150920'
p1157
sg4
S'20150921\xc2\xa012:23PM UTC'
p1158
sg6
S'Advocates to Press World Bank to Fix Faulty Middle Income Country Designations: $2.86 per day is Not Middle Income!'
p1159
sa(dp1160
g2
S'http://www.reuters.com/article/dialog-acquires-atmel-idUSnPn2LMJl5+9c+PRN20150920'
p1161
sg4
S'20150921\xc2\xa012:17PM UTC'
p1162
sg6
S'Dialog Semiconductor to acquire Atmel for $4.6 Billion'
p1163
sa(dp1164
g2
S'http://www.reuters.com/article/us-deutsche-wohnen-idUSKCN0RK0SJ20150920'
p1165
sg4
S'20150921\xc2\xa012:16PM UTC'
p1166
sg6
S'Deutsche Wohnen offers to buy peer LEG Immobilien in $5.2 billion deal'
p1167
sa(dp1168
g2
S'http://www.reuters.com/article/usa-boxoffice-idUSL4N11Q0BP20150920'
p1169
sg4
S'20150921\xc2\xa012:00PM UTC'
p1170
sg6
S"UPDATE 1-Box Office: 'Maze Runner 2' Sprints Past Johnny Depp's 'Black Mass' With $30.3 Million"
p1171
sa(dp1172
g2
S'http://www.reuters.com/article/us-golf-solheim-creamer-idUSKCN0RK0R020150920'
p1173
sg4
S'20150921\xc2\xa011:59AM UTC'
p1174
sg6
S'Creamer justifies wildcard pick with winning point for U.S.'
p1175
sa(dp1176
g2
S'http://www.reuters.com/article/deutsche-wohnen-idUSASN000A9J20150920'
p1177
sg4
S'20150921\xc2\xa011:54AM UTC'
p1178
sg6
S'Deutsche Wohnen offers to buy peer LEG Immobilien'
p1179
sa(dp1180
g2
S'http://www.reuters.com/article/europe-migrants-turkey-idUSKCN0RK0L320150920'
p1181
sg4
S'20150921\xc2\xa011:53AM UTC'
p1182
sg6
S'Thirteen migrants killed as boat is wrecked off Turkish coast'
p1183
sa(dp1184
g2
S'http://www.reuters.com/article/us-priceline-group-cuba-idUSKCN0RK0QC20150920'
p1185
sg4
S'20150921\xc2\xa011:48AM UTC'
p1186
sg6
S'Priceline Group looks at growing Cuba operation - spokeswoman'
p1187
sa(dp1188
g2
S'http://www.reuters.com/article/priceline-group-cuba-idUSL1N11Q0E220150920'
p1189
sg4
S'20150921\xc2\xa011:46AM UTC'
p1190
sg6
S'UPDATE 1-Priceline Group looks at growing Cuba operation - spokeswoman'
p1191
sa(dp1192
g2
S'http://www.reuters.com/article/us-yemen-security-hostages-idUSKCN0RK0QO20150920'
p1193
sg4
S'20150921\xc2\xa011:44AM UTC'
p1194
sg6
S'Yemen rebels release two U.S. hostages, one from UK: Washington Post, citing U.S. officials'
p1195
sa(dp1196
g2
S'http://www.reuters.com/article/ca-am-humane-hero-dog-idUSnPn12m5mj+80+PRN20150920'
p1197
sg4
S'20150921\xc2\xa011:40AM UTC'
p1198
sg6
S'Smallest Dog Wins Nation\'s Biggest Prize As Chihuahua Clinches Top Title Of "American Hero Dog" At The 2015 American Humane Association Hero Dog Awards\xc2\xae'
p1199
sa(dp1200
g2
S'http://www.reuters.com/article/us-russia-governor-corruption-idUSKCN0RK0P220150920'
p1201
sg4
S'20150921\xc2\xa011:34AM UTC'
p1202
sg6
S'Russian investigators announce jewelry haul in governor fraud case'
p1203
sa(dp1204
g2
S'http://www.reuters.com/article/priceline-group-cuba-idUSL1N11Q0DR20150920'
p1205
sg4
S'20150921\xc2\xa011:23AM UTC'
p1206
sg6
S'Priceline Group looks at growing Cuba operation - spokeswoman'
p1207
sa(dp1208
g2
S'http://www.reuters.com/article/us-pope-cuba-colombia-idUSKCN0RK0PH20150920'
p1209
sg4
S'20150921\xc2\xa011:22AM UTC'
p1210
sg6
S'Colombia peace talks must not fail, says Pope Francis'
p1211
sa(dp1212
g2
S'http://www.reuters.com/article/motor-racing-prix-hamilton-idUSL4N11Q09220150920'
p1213
sg4
S'20150921\xc2\xa011:20AM UTC'
p1214
sg6
S'UPDATE 2-Motor racing-Hamilton retirement caps poor Mercedes weekend'
p1215
sa(dp1216
g2
S'http://www.reuters.com/article/us-russia-moscow-rally-idUSKCN0RK0PL20150920'
p1217
sg4
S'20150921\xc2\xa011:18AM UTC'
p1218
sg6
S'Opposition rallies in Moscow to demand fair elections'
p1219
sa(dp1220
g2
S'http://www.reuters.com/article/usa-boxoffice-idUSL4N11Q0BA20150920'
p1221
sg4
S'20150921\xc2\xa011:13AM UTC'
p1222
sg6
S"Box Office: 'Maze Runner 2' Sprints Past Johnny Depp's 'Black Mass' With $30.3 Million"
p1223
sa(dp1224
g2
S'http://www.reuters.com/article/us-motor-racing-prix-hulkenberg-idUSKCN0RK0PB20150920'
p1225
sg4
S'20150921\xc2\xa011:09AM UTC'
p1226
sg6
S'Hulkenberg pays penalty for Singapore slam'
p1227
sa(dp1228
g2
S'http://www.reuters.com/article/russia-governor-corruption-idUSL5N11Q0G720150920'
p1229
sg4
S'20150921\xc2\xa010:50AM UTC'
p1230
sg6
S'Russian investigators announce jewellery haul in governor fraud case'
p1231
sa(dp1232
g2
S'http://www.reuters.com/article/us-usa-fed-williams-idUSKCN0RK0OE20150920'
p1233
sg4
S'20150921\xc2\xa010:46AM UTC'
p1234
sg6
S"Fed's Williams says decision not to raise rates was a 'close call'"
p1235
sa(dp1236
g2
S'http://www.reuters.com/article/ukraine-crisis-blockade-idUSL5N11Q0I620150920'
p1237
sg4
S'20150921\xc2\xa010:46AM UTC'
p1238
sg6
S'Tatar activists block roads into Russia-annexed Crimea'
p1239
sa(dp1240
g2
S'http://www.reuters.com/article/usa-fed-williams-idUSW1N0ZB02D20150920'
p1241
sg4
S'20150921\xc2\xa010:45AM UTC'
p1242
sg6
S"Fed's Williams says decision not to raise rates was a 'close call'"
p1243
sa(dp1244
g2
S'http://www.reuters.com/article/us-europe-migrants-croatia-idUSKCN0RK0NH20150920'
p1245
sg4
S'20150921\xc2\xa010:41AM UTC'
p1246
sg6
S'Hungary moves to close off migrant crossing from Croatia'
p1247
sa(dp1248
g2
S'http://www.reuters.com/article/us-europe-migrants-germany-idUSKCN0RK0EF20150920'
p1249
sg4
S'20150921\xc2\xa010:41AM UTC'
p1250
sg6
S'Planned German migration center hit by arson attack'
p1251
sa(dp1252
g2
S'http://www.reuters.com/article/united-poultry-stmnt-idUSnPn8RkL80+94+PRN20150920'
p1253
sg4
S'20150921\xc2\xa010:36AM UTC'
p1254
sg6
S'Statement from the Alliance to End Chickens as Kaporos'
p1255
sa(dp1256
g2
S'http://www.reuters.com/article/us-russia-poland-statue-idUSKCN0RK0NJ20150920'
p1257
sg4
S'20150921\xc2\xa010:35AM UTC'
p1258
sg6
S"Poland answers Kremlin anger over Soviet general's statue"
p1259
sa(dp1260
g2
S'http://www.reuters.com/article/us-migrants-europe-greece-missing-idUSKCN0RK05H20150920'
p1261
sg4
S'20150921\xc2\xa010:28AM UTC'
p1262
sg6
S'Thirteen migrants killed as boat is wrecked off Turkish coast'
p1263
sa(dp1264
g2
S'http://www.reuters.com/article/us-europe-migrants-idUSKCN0RJ0LT20150920'
p1265
sg4
S'20150921\xc2\xa010:28AM UTC'
p1266
sg6
S'East European leaders in war of words as migrants pour across borders'
p1267
sa(dp1268
g2
S'http://www.reuters.com/article/us-motor-racing-prix-hamilton-idUSKCN0RK0N820150920'
p1269
sg4
S'20150921\xc2\xa010:27AM UTC'
p1270
sg6
S"Hamilton's lead cut after Singapore retirement"
p1271
sa(dp1272
g2
S'http://www.reuters.com/article/russia-poland-statue-idUSL5N11Q0EX20150920'
p1273
sg4
S'20150921\xc2\xa010:27AM UTC'
p1274
sg6
S"Poland answers Kremlin anger over Soviet general's statue"
p1275
sa(dp1276
g2
S'http://www.reuters.com/article/bangladesh-infrastructure-idUSKCN0RK0N620150920'
p1277
sg4
S'20150921\xc2\xa010:23AM UTC'
p1278
sg6
S'Bangladesh central bank to mobilise $7 billion for infrastructure '
p1279
sa(dp1280
g2
S'http://www.reuters.com/article/us-basketball-european-france-idUSKCN0RK0N020150920'
p1281
sg4
S'20150921\xc2\xa010:23AM UTC'
p1282
sg6
S'France sink Serbia to win European bronze medal'
p1283
sa(dp1284
g2
S'http://www.reuters.com/article/motor-racing-prix-hulkenberg-idUSL4N11Q09O20150920'
p1285
sg4
S'20150921\xc2\xa010:22AM UTC'
p1286
sg6
S'UPDATE 1-Motor racing-Hulkenberg pays penalty for Singapore slam'
p1287
sa(dp1288
g2
S'http://www.reuters.com/article/us-mideast-crisis-syria-battle-idUSKCN0RK06920150920'
p1289
sg4
S'20150921\xc2\xa010:19AM UTC'
p1290
sg6
S'Warring sides in Syria agree local ceasefire: monitor, al-Manar'
p1291
sa(dp1292
g2
S'http://www.reuters.com/article/us-portugal-election-idUSKCN0RK0M320150920'
p1293
sg4
S'20150921\xc2\xa010:13AM UTC'
p1294
sg6
S'Risk of instability haunts Portugal cliff-hanger election race'
p1295
sa(dp1296
g2
S'http://www.reuters.com/article/idUSL4N11Q09W20150920'
p1297
sg4
S'20150921\xc2\xa010:07AM UTC'
p1298
sg6
S'Bangladesh central bank to mobilise $7 billion for infrastructure'
p1299
sa(dp1300
g2
S'http://www.reuters.com/article/us-nepal-constitution-factbox-idUSKCN0RK0LQ20150920'
p1301
sg4
S'20150921\xc2\xa010:01AM UTC'
p1302
sg6
S'Factbox: Nepal adopts constitution'
p1303
sa(dp1304
g2
S'http://www.reuters.com/article/idUSnMKW7ND19a+1d8+MKW20150920'
p1305
sg4
S'20150921\xc2\xa010:00AM UTC'
p1306
sg6
S'Reminder: Ice District Hosts Media for Exclusive Preview of Nuit Blanche Edmonton\'s "Dance of the Cranes Presented by Ice District"'
p1307
sa(dp1308
g2
S'http://www.reuters.com/article/idUSnGNXbMN01z+1d8+GNW20150920'
p1309
sg4
S'20150921\xc2\xa010:00AM UTC'
p1310
sg6
S'Hendersonville Eye Care Welcomes New Optometrist to Practice'
p1311
sa(dp1312
g2
S'http://www.reuters.com/article/idUSnGNXdxPFl+e6+GNW20150920'
p1313
sg4
S'20150921\xc2\xa010:00AM UTC'
p1314
sg6
S'Southglen Veterinary Hospital Welcomes New Veterinarian to Practice'
p1315
sa(dp1316
g2
S'http://www.reuters.com/article/idUSnGNX6Y02fq+1d0+GNW20150920'
p1317
sg4
S'20150921\xc2\xa010:00AM UTC'
p1318
sg6
S"Breton Veterinary Hospital's Founding Veterinarian Celebrates 25th Anniversary"
p1319
sa(dp1320
g2
S'http://www.reuters.com/article/idUSnGNX2rbFnF+1c5+GNW20150920'
p1321
sg4
S'20150921\xc2\xa010:00AM UTC'
p1322
sg6
S'Back on Track Chiropractic and Wellness Center Seeks to Raise Awareness About Importance of Custom Orthotics'
p1323
sa(dp1324
g2
S'http://www.reuters.com/article/idUSnGNX3Rpq7v+1d0+GNW20150920'
p1325
sg4
S'20150921\xc2\xa010:00AM UTC'
p1326
sg6
S'Michaux Family Chiropractic Seeks to Stress Health Benefits of Chiropractic Care for Children and Families'
p1327
sa(dp1328
g2
S'http://www.reuters.com/article/idUSnGNX99tjfh+1c0+GNW20150920'
p1329
sg4
S'20150921\xc2\xa010:00AM UTC'
p1330
sg6
S'Noblesville Gets New Veterinarian Practice With Noblesville Pet Wellness Clinic'
p1331
sa(dp1332
g2
S'http://www.reuters.com/article/us-europe-migrants-romania-idUSKCN0RK0KG20150920'
p1333
sg4
S'20150921\xc2\xa09:55AM UTC'
p1334
sg6
S'Romania sets up temporary refugee camps for practice drill'
p1335
sa(dp1336
g2
S'http://www.reuters.com/article/us-europe-migrants-turkey-idUSKCN0RK0KE20150920'
p1337
sg4
S'20150921\xc2\xa09:55AM UTC'
p1338
sg6
S'Thirteen migrants killed off Turkey coast en route to Greece'
p1339
sa(dp1340
g2
S'http://www.reuters.com/article/nepal-constitution-idUSKCN0RK03P20150920'
p1341
sg4
S'20150921\xc2\xa09:49AM UTC'
p1342
sg6
S'Nepal adopts constitution born of bloodshed, compromise'
p1343
sa(dp1344
g2
S'http://www.reuters.com/article/us-usa-election-poll-idUSKCN0RK0JM20150920'
p1345
sg4
S'20150921\xc2\xa09:36AM UTC'
p1346
sg6
S'Trump down but still No.1 in Republican race, Fiorina at No.2: CNN/ORC poll'
p1347
sa(dp1348
g2
S'http://www.reuters.com/article/europe-migrants-turkey-idUSL5N11Q0ES20150920'
p1349
sg4
S'20150921\xc2\xa09:36AM UTC'
p1350
sg6
S'Thirteen migrants killed off Turkey coast en route to Greece'
p1351
sa(dp1352
g2
S'http://www.reuters.com/article/us-awards-emmys-idUSKCN0RK0IQ20150920'
p1353
sg4
S'20150921\xc2\xa09:21AM UTC'
p1354
sg6
S"Upstarts challenge old favorites at TV's Emmy Awards"
p1355
sa(dp1356
g2
S'http://www.reuters.com/article/kuwait-stocks-listing-idUSL5N1171KC20150920'
p1357
sg4
S'20150921\xc2\xa09:17AM UTC'
p1358
sg6
S"MIDEAST WEEKAHEAD-Kuwait stock delistings threaten market's status"
p1359
sa(dp1360
g2
S'http://www.reuters.com/article/nepal-constitution-idUSL4N11Q08Q20150920'
p1361
sg4
S'20150921\xc2\xa09:17AM UTC'
p1362
sg6
S'FACTBOX-Nepal adopts constitution'
p1363
sa(dp1364
g2
S'http://www.reuters.com/article/mideast-markets-wrap-idUSL5N11Q0BF20150920'
p1365
sg4
S'20150921\xc2\xa09:00AM UTC'
p1366
sg6
S'MIDEAST STOCKS-Saudi underperforms Gulf as Fed decision hits banks'
p1367
sa(dp1368
g2
S'http://www.reuters.com/article/ca-humane-assoc-award-idUSnPn4GfvMC+93+PRN20150920'
p1369
sg4
S'20150921\xc2\xa09:00AM UTC'
p1370
sg6
S'American Humane Association Honors Winners Of American Humane Association Hero Veterinarian And Hero Veterinary Technician Awards\xe2\x84\xa2, Presented By Zoetis'
p1371
sa(dp1372
g2
S'http://www.reuters.com/article/awards-emmys-idUSL1N11N20U20150920'
p1373
sg4
S'20150921\xc2\xa09:00AM UTC'
p1374
sg6
S"Upstarts challenge old favorites at TV's Emmy Awards"
p1375
sa(dp1376
g2
S'http://www.reuters.com/article/atmel-ma-dialog-idUSASN000A9H20150920'
p1377
sg4
S'20150921\xc2\xa08:51AM UTC'
p1378
sg6
S'Dialog Semiconductor to buy Atmel for $4.6 billion'
p1379
sa(dp1380
g2
S'http://www.reuters.com/article/mideast-migrants-food-idUSL1N11P0K120150920'
p1381
sg4
S'20150921\xc2\xa08:49AM UTC'
p1382
sg6
S'RPT--U.N. refugee hunger-relief fundraiser gets boost from U.S. brands'
p1383
sa(dp1384
g2
S'http://www.reuters.com/article/usa-volkswagen-ceo-idUSL5N11Q0BX20150920'
p1385
sg4
S'20150921\xc2\xa08:48AM UTC'
p1386
sg6
S'Volkswagen to investigate breach of U.S. environment rules'
p1387
sa(dp1388
g2
S'http://www.reuters.com/article/us-eurozone-greece-election-rebels-idUSKCN0RK0IA20150920'
p1389
sg4
S'20150921\xc2\xa08:47AM UTC'
p1390
sg6
S"Greece's Varoufakis turns on former party and leader during vote"
p1391
sa(dp1392
g2
S'http://www.reuters.com/article/eurozone-greece-election-rebels-idUSL5N11Q0BW20150920'
p1393
sg4
S'20150921\xc2\xa08:44AM UTC'
p1394
sg6
S"Greece's Varoufakis turns on former party and leader during vote"
p1395
sa(dp1396
g2
S'http://www.reuters.com/article/azerbaijan-oil-bp-idUSL5N11Q0CO20150920'
p1397
sg4
S'20150921\xc2\xa08:41AM UTC'
p1398
sg6
S'BP to suspend operations at Caspian Sea platform'
p1399
sa(dp1400
g2
S'http://www.reuters.com/article/getty-personnel-ceo-idUSnPn45jy84+80+PRN20150920'
p1401
sg4
S'20150921\xc2\xa08:36AM UTC'
p1402
sg6
S'Getty Images appoints Dawn Airey as Chief Executive Officer'
p1403
sa(dp1404
g2
S'http://www.reuters.com/article/us-france-lepen-poll-idUSKCN0RK0HL20150920'
p1405
sg4
S'20150921\xc2\xa08:24AM UTC'
p1406
sg6
S"Poll sees rising support for France's Le Pen in northern local election"
p1407
sa(dp1408
g2
S'http://www.reuters.com/article/us-thailand-politics-protests-idUSKCN0RK0HD20150920'
p1409
sg4
S'20150921\xc2\xa08:19AM UTC'
p1410
sg6
S'Thai activists plan to defy junta ban with more marches'
p1411
sa(dp1412
g2
S'http://www.reuters.com/article/us-britain-labour-syria-idUSKCN0RK0HF20150920'
p1413
sg4
S'20150921\xc2\xa08:17AM UTC'
p1414
sg6
S"Britain's opposition Labour split on Syria air strikes "
p1415
sa(dp1416
g2
S'http://www.reuters.com/article/us-mideast-migrants-food-idUSKCN0RK0GT20150920'
p1417
sg4
S'20150921\xc2\xa08:17AM UTC'
p1418
sg6
S'U.N. refugee hunger-relief fundraiser gets boost from U.S. brands'
p1419
sa(dp1420
g2
S'http://www.reuters.com/article/beijing-intl-triathlon-idUSnBw205051a+100+BSW20150920'
p1421
sg4
S'20150921\xc2\xa08:16AM UTC'
p1422
sg6
S'USA Dominates with Eric Lagerstrom and Lauren Goss Winning 2015 Beijing International Triathlon'
p1423
sa(dp1424
g2
S'http://www.reuters.com/article/idUSnCCN9mknCf+1c2+MKW20150920'
p1425
sg4
S'20150921\xc2\xa08:00AM UTC'
p1426
sg6
S'Global Brands Rally Public Support to World Food Programme and Families Affected by War'
p1427
sa(dp1428
g2
S'http://www.reuters.com/article/usa-fed-bonds-idUSL1N11O2NC20150920'
p1429
sg4
S'20150921\xc2\xa08:00AM UTC'
p1430
sg6
S"RPT - INSIGHT-Yellen's rate blink shows green light for bond buyers"
p1431
sa(dp1432
g2
S'http://www.reuters.com/article/idUSnMKWnXRSfa+1dc+MKW20150920'
p1433
sg4
S'20150921\xc2\xa08:00AM UTC'
p1434
sg6
S'Global Brands Rally Public Support to World Food Programme and Families Affected by War'
p1435
sa(dp1436
g2
S'http://www.reuters.com/article/ny-iona-college-idUSnBw205039a+100+BSW20150920'
p1437
sg4
S'20150921\xc2\xa08:00AM UTC'
p1438
sg6
S'Iona College Announces Launch of $150 Million Campaign'
p1439
sa(dp1440
g2
S'http://www.reuters.com/article/ma-tyrogenex-idUSnBw205021a+100+BSW20150920'
p1441
sg4
S'20150921\xc2\xa08:00AM UTC'
p1442
sg6
S'Tyrogenex Presents Final Results from Phase 1 Study of X-82 for Wet AMD at the 15th EURETINA Congress'
p1443
sa(dp1444
g2
S'http://www.reuters.com/article/us-soccer-fifa-switzerland-idUSKCN0RK08T20150920'
p1445
sg4
S'20150921\xc2\xa07:50AM UTC'
p1446
sg6
S"KPMG reviews Swiss unit's auditing of FIFA"
p1447
sa(dp1448
g2
S'http://www.reuters.com/article/soccer-fifa-switzerland-idUSL5N11Q07U20150920'
p1449
sg4
S'20150921\xc2\xa07:48AM UTC'
p1450
sg6
S"UPDATE 1-KPMG reviews Swiss unit's auditing of FIFA"
p1451
sa(dp1452
g2
S'http://www.reuters.com/article/us-mideast-crisis-syria-rebels-idUSKCN0RK07520150920'
p1453
sg4
S'20150921\xc2\xa07:48AM UTC'
p1454
sg6
S'Syrian monitor: 75 U.S.-trained Syrian rebels enter Syria from Turkey'
p1455
sa(dp1456
g2
S'http://www.reuters.com/article/us-spain-catalonia-poll-idUSKCN0RK0GH20150920'
p1457
sg4
S'20150921\xc2\xa07:45AM UTC'
p1458
sg6
S'Spain newspaper polls give Catalonia separatists slight lead'
p1459
sa(dp1460
g2
S'http://www.reuters.com/article/us-switzerland-crash-airplane-idUSKCN0RK0FZ20150920'
p1461
sg4
S'20150921\xc2\xa07:29AM UTC'
p1462
sg6
S'Small plane crashes, hits car; two injured taken to hospital: Swiss police'
p1463
sa(dp1464
g2
S'http://www.reuters.com/article/us-pope-usa-idUSKCN0RK0F920150920'
p1465
sg4
S'20150921\xc2\xa07:25AM UTC'
p1466
sg6
S'U.S. Catholics expected to turn out in force for Pope Francis'
p1467
sa(dp1468
g2
S'http://www.reuters.com/article/us-eurozone-greece-election-voters-idUSKCN0RK0F020150920'
p1469
sg4
S'20150921\xc2\xa07:06AM UTC'
p1470
sg6
S'Initial turnout in election seen low among weary Greeks '
p1471
sa(dp1472
g2
S'http://www.reuters.com/article/bbo-orioles-rays-preview-idUSMTZEB9KZ2NJ4O20150920'
p1473
sg4
S'20150921\xc2\xa07:02AM UTC'
p1474
sg6
S'Preview: Orioles at Rays'
p1475
sa(dp1476
g2
S'http://www.reuters.com/article/bbo-padres-rockies-preview-idUSMTZEB9KZ2NI4N20150920'
p1477
sg4
S'20150921\xc2\xa07:02AM UTC'
p1478
sg6
S'Preview: Padres at Rockies'
p1479
sa(dp1480
g2
S'http://www.reuters.com/article/fbn-texans-panthers-preview-idUSMTZEB9KZ2NJ4Q20150920'
p1481
sg4
S'20150921\xc2\xa07:02AM UTC'
p1482
sg6
S'Preview: Texans at Panthers'
p1483
sa(dp1484
g2
S'http://www.reuters.com/article/bbo-mariners-rangers-preview-idUSMTZEB9KZ2NJ4P20150920'
p1485
sg4
S'20150921\xc2\xa07:02AM UTC'
p1486
sg6
S'Preview: Mariners at Rangers'
p1487
sa(dp1488
g2
S'http://www.reuters.com/article/fbn-chargers-bengals-preview-idUSMTZEB9KZ2NI4M20150920'
p1489
sg4
S'20150921\xc2\xa07:02AM UTC'
p1490
sg6
S'Preview: Chargers at Bengals'
p1491
sa(dp1492
g2
S'http://www.reuters.com/article/bbo-marlins-nationals-preview-idUSMTZEB9KZ2NI4L20150920'
p1493
sg4
S'20150921\xc2\xa07:02AM UTC'
p1494
sg6
S'Preview: Marlins at Nationals'
p1495
sa(dp1496
g2
S'http://www.reuters.com/article/bbo-cardinals-cubs-preview-idUSMTZEB9KZ2NI4K20150920'
p1497
sg4
S'20150921\xc2\xa07:02AM UTC'
p1498
sg6
S'Preview: Cardinals at Cubs'
p1499
sa(dp1500
g2
S'http://www.reuters.com/article/fbn-ravens-raiders-preview-idUSMTZEB9KZ2NI4J20150920'
p1501
sg4
S'20150921\xc2\xa07:02AM UTC'
p1502
sg6
S'Preview: Ravens at Raiders'
p1503
sa(dp1504
g2
S'http://www.reuters.com/article/bbo-royals-tigers-preview-idUSMTZEB9KZ2NI4I20150920'
p1505
sg4
S'20150921\xc2\xa07:02AM UTC'
p1506
sg6
S'Preview: Royals at Tigers'
p1507
sa(dp1508
g2
S'http://www.reuters.com/article/fbn-falcons-giants-preview-idUSMTZEB9KZ2NI4H20150920'
p1509
sg4
S'20150921\xc2\xa07:02AM UTC'
p1510
sg6
S'Preview: Falcons at Giants'
p1511
sa(dp1512
g2
S'http://www.reuters.com/article/bbo-phillies-braves-preview-idUSMTZEB9KZ2NI4G20150920'
p1513
sg4
S'20150921\xc2\xa07:02AM UTC'
p1514
sg6
S'Preview: Phillies at Braves'
p1515
sa(dp1516
g2
S'http://www.reuters.com/article/fbn-titans-browns-preview-idUSMTZEB9KZ2NI4F20150920'
p1517
sg4
S'20150921\xc2\xa07:02AM UTC'
p1518
sg6
S'Preview: Titans at Browns'
p1519
sa(dp1520
g2
S'http://www.reuters.com/article/fbn-rams-redskins-preview-idUSMTZEB9KZ2NH4E20150920'
p1521
sg4
S'20150921\xc2\xa07:02AM UTC'
p1522
sg6
S'Preview: Rams at Redskins'
p1523
sa(dp1524
g2
S'http://www.reuters.com/article/bbo-angels-twins-preview-idUSMTZEB9KZ2NH4D20150920'
p1525
sg4
S'20150921\xc2\xa07:02AM UTC'
p1526
sg6
S'Preview: Angels at Twins'
p1527
sa(dp1528
g2
S'http://www.reuters.com/article/fbn-patriots-buffalo-preview-idUSMTZEB9KZ2NH4C20150920'
p1529
sg4
S'20150921\xc2\xa07:02AM UTC'
p1530
sg6
S'Preview: Patriots at Bills'
p1531
sa(dp1532
g2
S'http://www.reuters.com/article/bbo-whitesox-indians-preview-idUSMTZEB9KZ2NH4B20150920'
p1533
sg4
S'20150921\xc2\xa07:02AM UTC'
p1534
sg6
S'Preview: White Sox at Indians'
p1535
sa(dp1536
g2
S'http://www.reuters.com/article/fbn-cowboys-eagles-preview-idUSMTZEB9KZ2NH4A20150920'
p1537
sg4
S'20150921\xc2\xa07:02AM UTC'
p1538
sg6
S'Preview: Cowboys at Eagles'
p1539
sa(dp1540
g2
S'http://www.reuters.com/article/fbn-lions-vikings-preview-idUSMTZEB9KZ2NH4920150920'
p1541
sg4
S'20150921\xc2\xa07:02AM UTC'
p1542
sg6
S'Preview: Lions at Vikings'
p1543
sa(dp1544
g2
S'http://www.reuters.com/article/fbn-dolphins-jaguars-preview-idUSMTZEB9KZ2NH4820150920'
p1545
sg4
S'20150921\xc2\xa07:02AM UTC'
p1546
sg6
S'Preview: Dolphins at Jaguars'
p1547
sa(dp1548
g2
S'http://www.reuters.com/article/fbn-buccaneers-saints-preview-idUSMTZEB9KZ2NH4720150920'
p1549
sg4
S'20150921\xc2\xa07:02AM UTC'
p1550
sg6
S'Preview: Buccaneers at Saints'
p1551
sa(dp1552
g2
S'http://www.reuters.com/article/bbo-reds-brewers-preview-idUSMTZEB9KZ2NH4620150920'
p1553
sg4
S'20150921\xc2\xa07:02AM UTC'
p1554
sg6
S'Preview: Reds at Brewers'
p1555
sa(dp1556
g2
S'http://www.reuters.com/article/fbn-cardinals-bears-preview-idUSMTZEB9KZ2NH4520150920'
p1557
sg4
S'20150921\xc2\xa07:02AM UTC'
p1558
sg6
S'Preview: Cardinals at Bears'
p1559
sa(dp1560
g2
S'http://www.reuters.com/article/bbo-redsox-bluejays-preview-idUSMTZEB9KZ2NH4420150920'
p1561
sg4
S'20150921\xc2\xa07:02AM UTC'
p1562
sg6
S'Preview: Red Sox at Blue Jays'
p1563
sa(dp1564
g2
S'http://www.reuters.com/article/fbn-seahawks-packers-preview-idUSMTZEB9KZ2NG4020150920'
p1565
sg4
S'20150921\xc2\xa07:02AM UTC'
p1566
sg6
S'Preview: Seahawks at Packers'
p1567
sa(dp1568
g2
S'http://www.reuters.com/article/bbo-yankees-mets-preview-idUSMTZEB9KZ2NG3Z20150920'
p1569
sg4
S'20150921\xc2\xa07:02AM UTC'
p1570
sg6
S'Preview: Yankees at Mets'
p1571
sa(dp1572
g2
S'http://www.reuters.com/article/bbo-pirates-dodgers-preview-idUSMTZEB9KZ2NG4320150920'
p1573
sg4
S'20150921\xc2\xa07:02AM UTC'
p1574
sg6
S'Preview: Pirates at Dodgers'
p1575
sa(dp1576
g2
S'http://www.reuters.com/article/plan-norway-idUSnBw205012a+100+BSW20150920'
p1577
sg4
S'20150921\xc2\xa07:00AM UTC'
p1578
sg6
S'Plan Norway: Flooding the Internet with More Than 300,000 Assaults in 24 Hours'
p1579
sa(dp1580
g2
S'http://www.reuters.com/article/warnerbrothers-chinaventure-idUSL4N11Q08320150920'
p1581
sg4
S'20150921\xc2\xa06:49AM UTC'
p1582
sg6
S'Warner Bros, CMC in joint venture to launch China movies'
p1583
sa(dp1584
g2
S'http://www.reuters.com/article/us-golf-solheim-lee-quotes-idUSKCN0RK0DX20150920'
p1585
sg4
S'20150921\xc2\xa06:39AM UTC'
p1586
sg6
S'Lee made a mistake, says Europe captain Koch'
p1587
sa(dp1588
g2
S'http://www.reuters.com/article/europe-migrants-germany-idUSL5N11Q06J20150920'
p1589
sg4
S'20150921\xc2\xa06:39AM UTC'
p1590
sg6
S'Planned German migration centre hit by arson attack'
p1591
sa(dp1592
g2
S'http://www.reuters.com/article/us-golf-solheim-lee-idUSKCN0RK0A920150920'
p1593
sg4
S'20150921\xc2\xa06:32AM UTC'
p1594
sg6
S'Players in tears after Solheim Cup controversy'
p1595
sa(dp1596
g2
S'http://www.reuters.com/article/us-golf-solheim-lee-inkster-idUSKCN0RK0DV20150920'
p1597
sg4
S'20150921\xc2\xa06:29AM UTC'
p1598
sg6
S'Angry Inkster hits out at European team over non-concession'
p1599
sa(dp1600
g2
S'http://www.reuters.com/article/us-europe-migrants-turkey-coastguard-idUSKCN0RK08R20150920'
p1601
sg4
S'20150921\xc2\xa06:27AM UTC'
p1602
sg6
S'Migrants brave deadly dinghies, Turkish coastguard for new life'
p1603
sa(dp1604
g2
S'http://www.reuters.com/article/us-rugby-union-world-samoa-usa-scene-idUSKCN0RK0E420150920'
p1605
sg4
S'20150921\xc2\xa06:24AM UTC'
p1606
sg6
S'Samoa, U.S. looking to keep up Brighton rugby fever'
p1607
sa(dp1608
g2
S'http://www.reuters.com/article/idUSL4N11Q07W20150920'
p1609
sg4
S'20150921\xc2\xa06:23AM UTC'
p1610
sg6
S'China investigates head of a regional bank'
p1611
sa(dp1612
g2
S'http://www.reuters.com/article/us-golf-solheim-lee-quotes-idUSKCN0RK0DN20150920'
p1613
sg4
S'20150921\xc2\xa06:20AM UTC'
p1614
sg6
S'Lee made a mistake, says Europe captain Koch'
p1615
sa(dp1616
g2
S'http://www.reuters.com/article/us-europe-migrants-journey-idUSKCN0RK0DE20150920'
p1617
sg4
S'20150921\xc2\xa06:14AM UTC'
p1618
sg6
S'Refugee journey: Reunited at last, a long way from home'
p1619
sa(dp1620
g2
S'http://www.reuters.com/article/vietnam-economy-rates-idUSL4N11Q07X20150920'
p1621
sg4
S'20150921\xc2\xa06:09AM UTC'
p1622
sg6
S"Any Fed rate move won't change Vietnam's forex stance-cbank"
p1623
sa(dp1624
g2
S'http://www.reuters.com/article/us-vietnam-dissident-idUSKCN0RK0D320150920'
p1625
sg4
S'20150921\xc2\xa06:08AM UTC'
p1626
sg6
S'Vietnam frees anti-state blogger, U.S. calls for more releases'
p1627
sa(dp1628
g2
S'http://www.reuters.com/article/us-china-britain-idUSKCN0RK0CX20150920'
p1629
sg4
S'20150921\xc2\xa06:05AM UTC'
p1630
sg6
S'British finance minister upbeat on slowing China economy'
p1631
sa(dp1632
g2
S'http://www.reuters.com/article/us-nigeria-violence-cameroon-idUSKCN0RK0AU20150920'
p1633
sg4
S'20150921\xc2\xa05:53AM UTC'
p1634
sg6
S'At least five killed in suicide bomb attack in northern Cameroon'
p1635
sa(dp1636
g2
S'http://www.reuters.com/article/vietnam-dissident-idUSL4N11Q07N20150920'
p1637
sg4
S'20150921\xc2\xa05:51AM UTC'
p1638
sg6
S'Vietnam frees anti-state blogger, U.S. calls for more releases'
p1639
sa(dp1640
g2
S'http://www.reuters.com/article/us-yemen-security-oman-idUSKCN0RK0CE20150920'
p1641
sg4
S'20150921\xc2\xa05:49AM UTC'
p1642
sg6
S'Saudi-led coalition denies attacking home of Oman envoy to Yemen'
p1643
sa(dp1644
g2
S'http://www.reuters.com/article/markets-stocks-saudi-egypt-idUSL5N11Q06420150920'
p1645
sg4
S'20150921\xc2\xa05:07AM UTC'
p1646
sg6
S'MIDEAST STOCKS-Saudi shares slide on oil, Fed; Egypt also weak'
p1647
sa(dp1648
g2
S'http://www.reuters.com/article/europe-migrants-croatia-slovenia-idUSL5N11P0J820150920'
p1649
sg4
S'20150921\xc2\xa04:46AM UTC'
p1650
sg6
S'CORRECTED-On a Balkan border: A Swedish chef and, perhaps, a foretaste of home'
p1651
sa(dp1652
g2
S'http://www.reuters.com/article/porteamedical-funding-idUSL4N11Q06K20150920'
p1653
sg4
S'20150921\xc2\xa04:27AM UTC'
p1654
sg6
S'Indian home healthcare provider Portea gets $37.5 mln funding'
p1655
sa(dp1656
g2
S'http://www.reuters.com/article/ca-warner-bros-cmc-idUSnBw205047a+100+BSW20150920'
p1657
sg4
S'20150921\xc2\xa04:00AM UTC'
p1658
sg6
S'China Media Capital (CMC) and Warner Bros. Entertainment Enter Into Agreement to Form an International Production and Distribution Joint Venture, Flagship Entertainment Group Limited'
p1659
sa(dp1660
g2
S'http://www.reuters.com/article/europe-migrants-turkey-coastguard-idUSL5N11P0L120150920'
p1661
sg4
S'20150921\xc2\xa04:00AM UTC'
p1662
sg6
S'Migrants brave deadly dinghies, Turkish coastguard for new life'
p1663
sa(dp1664
g2
S'http://www.reuters.com/article/soccer-fifa-switzerland-idUSL5N11Q04A20150920'
p1665
sg4
S'20150921\xc2\xa03:55AM UTC'
p1666
sg6
S'KPMG reviews Swiss auditing unit over FIFA - newspaper'
p1667
sa(dp1668
g2
S'http://www.reuters.com/article/fbc-utah-fresnostate-writethru-idUSMTZEB9KYTDG3220150920'
p1669
sg4
S'20150921\xc2\xa03:51AM UTC'
p1670
sg6
S'No. 21 Utah rolls past Fresno State'
p1671
sa(dp1672
g2
S'http://www.reuters.com/article/saudi-binladin-insurance-idUSL5N11Q02Y20150920'
p1673
sg4
S'20150921\xc2\xa03:49AM UTC'
p1674
sg6
S"Saudi's United Cooperative Assurance says gets Mecca crane claim"
p1675
sa(dp1676
g2
S'http://www.reuters.com/article/portea-medical-idUSnBw205045a+100+BSW20150920'
p1677
sg4
S'20150921\xc2\xa03:44AM UTC'
p1678
sg6
S'Portea Medical Announces US$37.5 Million Series B Funding Led by Accel'
p1679
sa(dp1680
g2
S'http://www.reuters.com/article/fbc-brighamyoung-ucla-writethru-idUSMTZEB9KYSXP3120150920'
p1681
sg4
S'20150921\xc2\xa03:42AM UTC'
p1682
sg6
S'No. 10 UCLA rallies past No. 19 BYU'
p1683
sa(dp1684
g2
S'http://www.reuters.com/article/fbc-northernarizona-arizona-writethru-idUSMTZEB9KYSG73020150920'
p1685
sg4
S'20150921\xc2\xa03:31AM UTC'
p1686
sg6
S'No. 20 Arizona buries Northern Arizona 77-13'
p1687
sa(dp1688
g2
S'http://www.reuters.com/article/us-usa-election-trump-idUSKCN0RJ0KT20150920'
p1689
sg4
S'20150921\xc2\xa03:24AM UTC'
p1690
sg6
S"Trump defend Obama? 'I don't think so!'"
p1691
sa(dp1692
g2
S'http://www.reuters.com/article/us-eurozone-greece-election-parties-fact-idUSKCN0RK06U20150920'
p1693
sg4
S'20150921\xc2\xa03:22AM UTC'
p1694
sg6
S"Factbox: Parties running in Sunday's Greek elections"
p1695
sa(dp1696
g2
S'http://www.reuters.com/article/us-eurozone-greece-election-scenarios-fa-idUSKCN0RK06R20150920'
p1697
sg4
S'20150921\xc2\xa03:21AM UTC'
p1698
sg6
S"Factbox: Greece's possible post-election scenarios"
p1699
sa(dp1700
g2
S'http://www.reuters.com/article/markets-stocks-gulf-idUSL5N11Q03A20150920'
p1701
sg4
S'20150921\xc2\xa03:19AM UTC'
p1702
sg6
S'MIDEAST STOCKS-Most Gulf markets edge up after Fed keeps rates on hold'
p1703
sa(dp1704
g2
S'http://www.reuters.com/article/fbc-mississippi-alabama-writethru-idUSMTZEB9KYR3H1W20150920'
p1705
sg4
S'20150921\xc2\xa03:02AM UTC'
p1706
sg6
S'No. 15 Ole Miss knocks off No. 2 Alabama'
p1707
sa(dp1708
g2
S'http://www.reuters.com/article/us-australia-politics-morrison-idUSKCN0RK06B20150920'
p1709
sg4
S'20150921\xc2\xa02:57AM UTC'
p1710
sg6
S'Australia drafts ruthless Mr Fix-it to tackle budget as economy slows'
p1711
sa(dp1712
g2
S'http://www.reuters.com/article/people-jackiecollins-idUSKCN0RK02G20150920'
p1713
sg4
S'20150921\xc2\xa02:47AM UTC'
p1714
sg6
S'Jackie Collins, doyenne of the steamy Hollywood novel, dies at 77'
p1715
sa(dp1716
g2
S'http://www.reuters.com/article/us-australia-politics-idUSKCN0RK06320150920'
p1717
sg4
S'20150921\xc2\xa02:43AM UTC'
p1718
sg6
S'Australian PM appoints immigration hard-man Morrison as new treasurer'
p1719
sa(dp1720
g2
S'http://www.reuters.com/article/australia-politics-idUSL4N11Q05P20150920'
p1721
sg4
S'20150921\xc2\xa02:35AM UTC'
p1722
sg6
S'UPDATE 1-Australian PM appoints immigration hard-man Morrison as new treasurer'
p1723
sa(dp1724
g2
S'http://www.reuters.com/article/leelaventure-hotel-sale-idUSKCN0RK05U20150920'
p1725
sg4
S'20150921\xc2\xa02:16AM UTC'
p1726
sg6
S'Leelaventure to sell Goa hotel for $111 million '
p1727
sa(dp1728
g2
S'http://www.reuters.com/article/us-people-jackiecollins-idUSKCN0RK01E20150920'
p1729
sg4
S'20150921\xc2\xa02:14AM UTC'
p1730
sg6
S'Jackie Collins, doyenne of the steamy Hollywood novel, dies at 77'
p1731
sa(dp1732
g2
S'http://www.reuters.com/article/leelaventure-hotel-sale-idUSL4N11Q05S20150920'
p1733
sg4
S'20150921\xc2\xa02:13AM UTC'
p1734
sg6
S"India's Leelaventure to sell Goa hotel for $111 mln"
p1735
sa(dp1736
g2
S'http://www.reuters.com/article/australia-politics-idUSS9N11400120150920'
p1737
sg4
S'20150921\xc2\xa01:52AM UTC'
p1738
sg6
S'Australian PM appoints immigration hard-man Morrison as new treasurer'
p1739
sa(dp1740
g2
S'http://www.reuters.com/article/fbc-stanford-southerncalifornia-writethr-idUSMTZEB9KYNBD1S20150920'
p1741
sg4
S'20150921\xc2\xa01:40AM UTC'
p1742
sg6
S'Stanford punishes No. 6 USC'
p1743
sa(dp1744
g2
S'http://www.reuters.com/article/idUS252149882920150920'
p1745
sg4
S'20150921\xc2\xa01:40AM UTC'
p1746
sg6
S'India Markets Weekahead: Mid-caps will be in action amid consolidation'
p1747
sa(dp1748
g2
S'http://www.reuters.com/article/bbo-pirates-dodgers-writethru-idUSMTZEB9KYJG61920150920'
p1749
sg4
S'20150921\xc2\xa01:34AM UTC'
p1750
sg6
S'Pirates beat Kershaw, snap losing streak'
p1751
sa(dp1752
g2
S'http://www.reuters.com/article/us-usa-boat-maryland-idUSKCN0RK05320150920'
p1753
sg4
S'20150921\xc2\xa01:24AM UTC'
p1754
sg6
S'Three girls injured when boat explodes in Maryland'
p1755
sa(dp1756
g2
S'http://www.reuters.com/article/fbc-california-texas-recap-idUSMTZEB9KYIFIZS20150920'
p1757
sg4
S'20150921\xc2\xa01:21AM UTC'
p1758
sg6
S'Cal 45, Texas 44'
p1759
sa(dp1760
g2
S'http://www.reuters.com/article/fbc-sanjosestate-oregonstate-recap-idUSMTZEB9KYM501O20150920'
p1761
sg4
S'20150921\xc2\xa01:15AM UTC'
p1762
sg6
S'Oregon State 35, San Jose State 21'
p1763
sa(dp1764
g2
S'http://www.reuters.com/article/stocks-mideast-idUSL5N11Q01E20150920'
p1765
sg4
S'20150921\xc2\xa01:07AM UTC'
p1766
sg6
S"MIDEAST STOCKS-Weak oil may weigh on Gulf, offset Fed's decision to hold fire"
p1767
sa(dp1768
g2
S'http://www.reuters.com/article/us-australia-politics-cabinet-defence-idUSKCN0RK04N20150920'
p1769
sg4
S'20150921\xc2\xa01:06AM UTC'
p1770
sg6
S'Australian defense minister says loses portfolio under new PM'
p1771
sa(dp1772
g2
S'http://www.reuters.com/article/australia-politics-cabinet-defence-idUSS9N11400220150920'
p1773
sg4
S'20150921\xc2\xa012:59AM UTC'
p1774
sg6
S'Australian defence min says loses portfolio under new PM'
p1775
sa(dp1776
g2
S'http://www.reuters.com/article/fbc-rutgers-pennstate-recap-idUSMTZEB9KYIW80Y20150920'
p1777
sg4
S'20150921\xc2\xa012:56AM UTC'
p1778
sg6
S'Penn State 28, Rutgers 3'
p1779
sa(dp1780
g2
S'http://www.reuters.com/article/bbo-padres-rockies-writethru-idUSMTZEB9KYI5FZQ20150920'
p1781
sg4
S'20150921\xc2\xa012:52AM UTC'
p1782
sg6
S'Murphy leads Rockies to rout of Padres'
p1783
sa(dp1784
g2
S'http://www.reuters.com/article/bbo-royals-tigers-writethru-idUSMTZEB9KYHVJZP20150920'
p1785
sg4
S'20150921\xc2\xa012:51AM UTC'
p1786
sg6
S"Kinsler's walk-off HR gives Tigers 11-inning win"
p1787
sa(dp1788
g2
S'http://www.reuters.com/article/fbc-wyoming-washingtonstate-recap-idUSMTZEB9KYK591L20150920'
p1789
sg4
S'20150921\xc2\xa012:32AM UTC'
p1790
sg6
S'Washington State 31, Wyoming 14'
p1791
sa(dp1792
g2
S'http://www.reuters.com/article/us-hockey-nhl-ewen-idUSKCN0RK04F20150920'
p1793
sg4
S'20150921\xc2\xa012:29AM UTC'
p1794
sg6
S'Former NHL enforcer Todd Ewen dies at 49'
p1795
sa(dp1796
g2
S'http://www.reuters.com/article/bbo-mariners-rangers-writethru-idUSMTZEB9KYHTUZO20150920'
p1797
sg4
S'20150921\xc2\xa012:28AM UTC'
p1798
sg6
S'Hamels dominates as Rangers down Mariners'
p1799
sa(dp1800
g2
S'http://www.reuters.com/article/bbo-athletics-astros-writethru-idUSMTZEB9KYGUXYY20150920'
p1801
sg4
S'20150921\xc2\xa012:26AM UTC'
p1802
sg6
S"Astros rally vs. A's, end five-game skid"
p1803
sa(dp1804
g2
S'http://www.reuters.com/article/us-soccer-mls-idUSKCN0RK04D20150920'
p1805
sg4
S'20150921\xc2\xa012:26AM UTC'
p1806
sg6
S'Drogba continues to make Impact with Montreal'
p1807
sa(dp1808
g2
S'http://www.reuters.com/article/us-baseball-brewers-idUSKCN0RK04B20150920'
p1809
sg4
S'20150921\xc2\xa012:20AM UTC'
p1810
sg6
S'Brewers lose eighth straight, two players'
p1811
sa(dp1812
g2
S'http://www.reuters.com/article/fbc-iowastate-toledo-recap-idUSMTZEB9KYJ9L1620150920'
p1813
sg4
S'20150921\xc2\xa012:13AM UTC'
p1814
sg6
S'Toledo 30, Iowa State 23 (2 OT)'
p1815
sa(dp1816
g2
S'http://www.reuters.com/article/fbc-southalabama-sandiegostate-recap-idUSMTZEB9KYJ9L1720150920'
p1817
sg4
S'20150921\xc2\xa012:13AM UTC'
p1818
sg6
S'South Alabama 34, San Diego State 27 (OT)'
p1819
sa(dp1820
g2
S'http://www.reuters.com/article/bbo-reds-brewers-writethru-idUSMTZEB9KYGO9YX20150920'
p1821
sg4
S'20150921\xc2\xa012:10AM UTC'
p1822
sg6
S'Brewers lose eighth straight, two players'
p1823
sa(dp1824
g2
S'http://www.reuters.com/article/fbc-pittsburgh-iowa-recap-idUSMTZEB9KYIXX1520150920'
p1825
sg4
S'20150921\xc2\xa012:06AM UTC'
p1826
sg6
S'Iowa 27, Pitt 24'
p1827
sa(dp1828
g2
S'http://www.reuters.com/article/census-daily-feature-idUSnPn7Z50nk+90+PRN20150920'
p1829
sg4
S'20150921\xc2\xa012:01AM UTC'
p1830
sg6
S'U.S. Census Bureau Daily Feature for September 20: Purifying Water'
p1831
sa(dp1832
g2
S'http://www.reuters.com/news/video/videoStory?storyID=111636792'
p1833
sg4
S'20150921\xc2\xa011:54PM UTC'
p1834
sg6
S'Afghan surgeon takes up scalpel for the poor'
p1835
sa(dp1836
g2
S'http://www.reuters.com/news/video/videoStory?storyID=111636666'
p1837
sg4
S'20150921\xc2\xa011:21PM UTC'
p1838
sg6
S'Stars in classic black gowns on Emmys red carpet'
p1839
sa(dp1840
g2
S'http://www.reuters.com/news/video/videoStory?storyID=111636120'
p1841
sg4
S'20150921\xc2\xa010:37PM UTC'
p1842
sg6
S'Pope meets Fidel Castro in Cuba'
p1843
sa(dp1844
g2
S'http://www.reuters.com/news/video/videoStory?storyID=111634784'
p1845
sg4
S'20150921\xc2\xa07:55PM UTC'
p1846
sg6
S'At least five dead in suicide attack in Cameroon'
p1847
sa(dp1848
g2
S'http://www.reuters.com/news/video/videoStory?storyID=111633235'
p1849
sg4
S'20150921\xc2\xa06:01PM UTC'
p1850
sg6
S'Boston demonstrators demand more help for Syrians'
p1851
sa(dp1852
g2
S'http://www.reuters.com/news/video/videoStory?storyID=111631643'
p1853
sg4
S'20150921\xc2\xa05:23PM UTC'
p1854
sg6
S'Activists block roads into Crimea'
p1855
sa(dp1856
g2
S'http://www.reuters.com/news/video/videoStory?storyID=111631505'
p1857
sg4
S'20150921\xc2\xa04:50PM UTC'
p1858
sg6
S'European leaders hope for common ground on migrant crisis'
p1859
sa(dp1860
g2
S'http://www.reuters.com/news/video/videoStory?storyID=111630990'
p1861
sg4
S'20150921\xc2\xa03:21PM UTC'
p1862
sg6
S"'Maze Runner 2' weaves it way to box office top spot"
p1863
sa(dp1864
g2
S'http://www.reuters.com/news/video/videoStory?storyID=111630723'
p1865
sg4
S'20150921\xc2\xa03:09PM UTC'
p1866
sg6
S'Tensions run high at a Croatia, Slovenia border crossing'
p1867
sa(dp1868
g2
S'http://www.reuters.com/news/video/videoStory?storyID=111630634'
p1869
sg4
S'20150921\xc2\xa02:52PM UTC'
p1870
sg6
S'Nepal adopts constitution born of bloodshed, compromise'
p1871
sa(dp1872
g2
S'http://www.reuters.com/news/video/videoStory?storyID=111630423'
p1873
sg4
S'20150921\xc2\xa02:25PM UTC'
p1874
sg6
S'Kerry says U.S. ready to take more refugees'
p1875
sa(dp1876
g2
S'http://www.reuters.com/news/video/videoStory?storyID=111630169'
p1877
sg4
S'20150921\xc2\xa02:01PM UTC'
p1878
sg6
S'Thousands of Cubans pack papal Mass'
p1879
sa(dp1880
g2
S'http://www.reuters.com/news/video/videoStory?storyID=111629671'
p1881
sg4
S'20150921\xc2\xa01:02PM UTC'
p1882
sg6
S'Google helps elephants, volunteers help stranded pets'
p1883
sa(dp1884
g2
S'http://www.reuters.com/news/video/videoStory?storyID=111629413'
p1885
sg4
S'20150921\xc2\xa012:50PM UTC'
p1886
sg6
S'Clinton: US should admit 65,000 Syrian refugees'
p1887
sa(dp1888
g2
S'http://www.reuters.com/news/video/videoStory?storyID=111629220'
p1889
sg4
S'20150921\xc2\xa011:45AM UTC'
p1890
sg6
S'Middletown residents return to fire-ravaged homes'
p1891
sa(dp1892
g2
S'http://www.reuters.com/news/video/videoStory?storyID=111629097'
p1893
sg4
S'20150921\xc2\xa011:08AM UTC'
p1894
sg6
S'Manila racers tackle history of martial law by running'
p1895
sa(dp1896
g2
S'http://www.reuters.com/news/video/videoStory?storyID=111628455'
p1897
sg4
S'20150921\xc2\xa010:09AM UTC'
p1898
sg6
S'Obama pays tribute to black women at event'
p1899
sa(dp1900
g2
S'http://www.reuters.com/news/video/videoStory?storyID=111625914'
p1901
sg4
S'20150921\xc2\xa09:09AM UTC'
p1902
sg6
S'U.N. nuclear head visits Iran'
p1903
sa(dp1904
g2
S'http://www.reuters.com/news/video/videoStory?storyID=111625833'
p1905
sg4
S'20150921\xc2\xa08:56AM UTC'
p1906
sg6
S'Police search for woman who plunged into Niagara Falls'
p1907
sa(dp1908
g2
S'http://www.reuters.com/news/video/videoStory?storyID=111624457'
p1909
sg4
S'20150921\xc2\xa08:46AM UTC'
p1910
sg6
S'Pope arrives for first official Mass in Havana'
p1911
sa(dp1912
g2
S'http://www.reuters.com/news/video/videoStory?storyID=111617931'
p1913
sg4
S'20150921\xc2\xa05:28AM UTC'
p1914
sg6
S'Scientists use brainwaves to help disabled gain mobility'
p1915
sa(dp1916
g2
S'http://www.reuters.com/news/video/videoStory?storyID=111617870'
p1917
sg4
S'20150921\xc2\xa05:26AM UTC'
p1918
sg6
S'Balkan nations trade insults over migrants'
p1919
sa(dp1920
g2
S'http://www.reuters.com/news/video/videoStory?storyID=111617760'
p1921
sg4
S'20150921\xc2\xa05:23AM UTC'
p1922
sg6
S'Fashion you can print at home'
p1923
sa(dp1924
g2
S'http://www.reuters.com/news/video/videoStory?storyID=111617351'
p1925
sg4
S'20150921\xc2\xa04:36AM UTC'
p1926
sg6
S"Japan's joy at surprise rugby win"
p1927
sa(dp1928
g2
S'http://www.reuters.com/news/video/videoStory?storyID=111615966'
p1929
sg4
S'20150921\xc2\xa02:20AM UTC'
p1930
sg6
S"Trump hits back in 'Obama' row"
p1931
sa(dp1932
g2
S'http://www.reuters.com/news/video/videoStory?storyID=111615660'
p1933
sg4
S'20150921\xc2\xa01:24AM UTC'
p1934
sg6
S'Stardom calls for Chinese Obama lookalike'
p1935
sa(dp1936
g2
S'http://www.reuters.com/news/video/videoStory?storyID=111614841'
p1937
sg4
S'20150921\xc2\xa012:17AM UTC'
p1938
sg6
S'Meccano bridge sets world record'
p1939
sa.