(lp0
(dp1
S'href'
p2
S'http://www.reuters.com/article/2015/06/08/india-cenbank-balances-idUSS8N0XC01420150608'
p3
sS'ts'
p4
S'20150608\xc2\xa011:48PM UTC'
p5
sS'title'
p6
S"TABLE-India cbank says banks' cash balances at 3.63 trln rupees"
p7
sa(dp8
g2
S'http://www.reuters.com/article/2015/06/08/idUSL3N0YU1VY20150608'
p9
sg4
S'20150608\xc2\xa011:46PM UTC'
p10
sg6
S'BRIEF-Southwest Securities plans 4 bln yuan worth of 3-yr bonds'
p11
sa(dp12
g2
S'http://www.reuters.com/article/2015/06/08/india-cenbank-refinance-idUSS8N0XC01320150608'
p13
sg4
S'20150608\xc2\xa011:45PM UTC'
p14
sg6
S"TABLE-Indian banks' refinancing with RBI falls to 53.91 bln rupees"
p15
sa(dp16
g2
S'http://www.reuters.com/article/2015/06/08/india-cenbank-govtcash-idUSS8N0XC01520150608'
p17
sg4
S'20150608\xc2\xa011:43PM UTC'
p18
sg6
S"TABLE-India govt's cash with RBI for auction falls to 345.62 bln rupees"
p19
sa(dp20
g2
S'http://www.reuters.com/article/2015/06/08/superblock-solar-idUSL3N0YU1TD20150608'
p21
sg4
S'20150608\xc2\xa011:41PM UTC'
p22
sg6
S'Thai Superblock to invest $884 mln in 2015 on expanding solar farm business'
p23
sa(dp24
g2
S'http://www.reuters.com/article/2015/06/08/india-cenbank-msf-idUSS8N0XC01220150608'
p25
sg4
S'20150608\xc2\xa011:39PM UTC'
p26
sg6
S'TABLE-Indian banks borrowed 7.05 bln rupees via MSF on June 5 - RBI'
p27
sa(dp28
g2
S'http://www.reuters.com/article/2015/06/08/idUSnMKWPS5Tma+1f4+MKW20150608'
p29
sg4
S'20150608\xc2\xa011:39PM UTC'
p30
sg6
S"Food Recall Warning: Champ's Mushrooms Brand Sliced Mini Bella Mushrooms Recalled Due to Listeria Monocytogenes"
p31
sa(dp32
g2
S'http://www.reuters.com/article/2015/06/08/idUSnCCN2DMb6l+1d8+MKW20150608'
p33
sg4
S'20150608\xc2\xa011:39PM UTC'
p34
sg6
S"Food Recall Warning: Champ's Mushrooms Brand Sliced Mini Bella Mushrooms Recalled Due to Listeria Monocytogenes"
p35
sa(dp36
g2
S'http://www.reuters.com/article/2015/06/08/idUSL3N0YU1UE20150608'
p37
sg4
S'20150608\xc2\xa011:36PM UTC'
p38
sg6
S'BRIEF-Property developer Zhejiang Guangsha plans to scrap bond issue plans'
p39
sa(dp40
g2
S'http://www.reuters.com/article/2015/06/08/idUSL3N0YU1U520150608'
p41
sg4
S'20150608\xc2\xa011:35PM UTC'
p42
sg6
S'Morning News Call - India, June 8'
p43
sa(dp44
g2
S'http://www.reuters.com/article/2015/06/08/us-deals-privateequity-ge-canadapension-idUSKBN0ON0X720150608'
p45
sg4
S'20150608\xc2\xa011:34PM UTC'
p46
sg6
S'GE close to selling private equity lender to top Canada pension fund'
p47
sa(dp48
g2
S'http://www.reuters.com/article/2015/06/08/india-cenbank-reverserepo-idUSS8N0XC01120150608'
p49
sg4
S'20150608\xc2\xa011:32PM UTC'
p50
sg6
S'TABLE-India cbank says reverse repo bids fall to 190 mln rupees'
p51
sa(dp52
g2
S'http://www.reuters.com/article/2015/06/08/deals-privateequity-ge-canadapension-upd-idUSL1N0YT0EK20150608'
p53
sg4
S'20150608\xc2\xa011:31PM UTC'
p54
sg6
S'UPDATE 4-GE close to selling private equity lender to top Canada pension fund'
p55
sa(dp56
g2
S'http://www.reuters.com/article/2015/06/08/gem-fair-2015-app-idUSnPn85d1yW+81+PRN20150608'
p57
sg4
S'20150608\xc2\xa011:31PM UTC'
p58
sg6
S'Mobile App Optimised to Connect Exhibitors and Visitors to Hong Kong Jewellery and Gem Fair'
p59
sa(dp60
g2
S'http://www.reuters.com/article/2015/06/08/synopsys-atrenta-idUSnPnblSbY5+8a+PRN20150608'
p61
sg4
S'20150608\xc2\xa011:30PM UTC'
p62
sg6
S'Synopsys to Acquire Atrenta'
p63
sa(dp64
g2
S'http://www.reuters.com/article/2015/06/08/us-mexico-election-education-idUSKBN0OO06P20150608'
p65
sg4
S'20150608\xc2\xa011:18PM UTC'
p66
sg6
S'Mexico to restate support for education reform: sources'
p67
sa(dp68
g2
S'http://www.reuters.com/article/2015/06/08/bank-bri-insurance-idUSL3N0YU15F20150608'
p69
sg4
S'20150608\xc2\xa011:11PM UTC'
p70
sg6
S'UPDATE 1-Indonesia Bank Rakyat invites Cardif, Ageas to bid for insurance unit-sources'
p71
sa(dp72
g2
S'http://www.reuters.com/article/2015/06/08/aag-energy-hold-ipo-idUSL3N0YU1MT20150608'
p73
sg4
S'20150608\xc2\xa011:08PM UTC'
p74
sg6
S'Warburg Pincus-backed AAG Energy launches up to $364 mln HK IPO-IFR'
p75
sa(dp76
g2
S'http://www.reuters.com/article/2015/06/08/health-mers-southkorea-airlines-idUSL1N0YU00Y20150608'
p77
sg4
S'20150608\xc2\xa011:05PM UTC'
p78
sg6
S'Korean Air sees no drop in U.S. bookings because of MERS'
p79
sa(dp80
g2
S'http://www.reuters.com/article/2015/06/08/awards-tony-idUSL1N0YT0CX20150608'
p81
sg4
S'20150608\xc2\xa011:04PM UTC'
p82
sg6
S"UPDATE 1-Broadway's 2015 Tony Awards winners"
p83
sa(dp84
g2
S'http://www.reuters.com/article/2015/06/08/prn-test-idUSnPn7XGsly+98+PRN20150608'
p85
sg4
S'20150608\xc2\xa011:00PM UTC'
p86
sg6
S'This is a test from PR Newswire-Test 1'
p87
sa(dp88
g2
S'http://www.reuters.com/article/2015/06/08/health-mers-southkorea-economy-idUSL3N0YU1CH20150608'
p89
sg4
S'20150608\xc2\xa011:00PM UTC'
p90
sg6
S'S.Korea fin min: concerned about MERS impact on economy'
p91
sa(dp92
g2
S'http://www.reuters.com/article/2015/06/08/markets-japan-stocks-idUSL3N0YU1H420150608'
p93
sg4
S'20150608\xc2\xa010:48PM UTC'
p94
sg6
S'Nikkei falls as U.S. job data stokes concern Fed could hike in Sept'
p95
sa(dp96
g2
S'http://www.reuters.com/article/2015/06/08/computex-idUSnBw075069a+100+BSW20150608'
p97
sg4
S'20150608\xc2\xa010:43PM UTC'
p98
sg6
S'Global ICT Comes Together in Taipei for COMPUTEX'
p99
sa(dp100
g2
S'http://www.reuters.com/article/2015/06/08/idUSFit92479220150608'
p101
sg4
S'20150608\xc2\xa010:34PM UTC'
p102
sg6
S"Fitch Rates Astra Sedaya Finance's Senior Bond 'AAA(idn)'"
p103
sa(dp104
g2
S'http://www.reuters.com/article/2015/06/08/tennis-open-men-idUSKBN0ON0SJ20150608'
p105
sg4
S'20150608\xc2\xa010:30PM UTC'
p106
sg6
S"Triumphant Wawrinka dashes Djokovic's Paris dream"
p107
sa(dp108
g2
S'http://www.reuters.com/article/2015/06/08/asia-bonds-idUSL3N0YQ38S20150608'
p109
sg4
S'20150608\xc2\xa010:12PM UTC'
p110
sg6
S'Woori Bank drives hard bargain in debut AT1 capital deal'
p111
sa(dp112
g2
S'http://www.reuters.com/article/2015/06/08/asia-bonds-idUSL3N0YU17P20150608'
p113
sg4
S'20150608\xc2\xa010:05PM UTC'
p114
sg6
S'Busan Bank narrows guidance for three-year Samurai'
p115
sa(dp116
g2
S'http://www.reuters.com/article/2015/06/08/press-digest-hongkong-idUSL3N0YU17R20150608'
p117
sg4
S'20150608\xc2\xa010:01PM UTC'
p118
sg6
S'PRESS DIGEST - Hong Kong - June 8'
p119
sa(dp120
g2
S'http://www.reuters.com/article/2015/06/08/us-iceland-capitalcontrols-vote-idUSKBN0ON10T20150608'
p121
sg4
S'20150608\xc2\xa09:58PM UTC'
p122
sg6
S'Iceland paves way for lifting of capital controls'
p123
sa(dp124
g2
S'http://www.reuters.com/article/2015/06/08/us-syngenta-ag-m-a-monsanto-consolation-idUSKBN0OO00T20150608'
p125
sg4
S'20150608\xc2\xa09:53PM UTC'
p126
sg6
S'Monsanto offers $2 billion fee to Syngenta as it pursues takeover'
p127
sa(dp128
g2
S'http://www.reuters.com/article/2015/06/08/bbo-marlins-rockies-writethru-idUSMTZEB68LLI6D820150608'
p129
sg4
S'20150608\xc2\xa09:50PM UTC'
p130
sg6
S"Marlins ride Hechavarria's homer to 10-inning win"
p131
sa(dp132
g2
S'http://www.reuters.com/article/2015/06/08/idUS112736061220150608'
p133
sg4
S'20150608\xc2\xa09:40PM UTC'
p134
sg6
S'Caitlyn Jenner: From 70s sex symbol to 2015 sex object'
p135
sa(dp136
g2
S'http://www.reuters.com/article/2015/06/08/ca-napa-valley-vintners-idUSnBw075067a+100+BSW20150608'
p137
sg4
S'20150608\xc2\xa09:40PM UTC'
p138
sg6
S'Auction Napa Valley Raises $15.8 Million for Community Health and Children\xe2\x80\x99s Education'
p139
sa(dp140
g2
S'http://www.reuters.com/article/2015/06/08/indonesia-press-bii-idUSL3N0YU17720150608'
p141
sg4
S'20150608\xc2\xa09:36PM UTC'
p142
sg6
S'INDONESIA PRESS-Bank Internasional considers 1.5 trln rph bond issue- Investor Daily'
p143
sa(dp144
g2
S'http://www.reuters.com/article/2015/06/08/iceland-capitalcontrols-vote-idUSL5N0YT11W20150608'
p145
sg4
S'20150608\xc2\xa09:34PM UTC'
p146
sg6
S'UPDATE 2-Iceland paves way for lifting of capital controls'
p147
sa(dp148
g2
S'http://www.reuters.com/article/2015/06/08/hoifuenergy-brief-idUSL3N0YU17620150608'
p149
sg4
S'20150608\xc2\xa09:33PM UTC'
p150
sg6
S'CORRECTED-BRIEF-Hoifu Energy seeks trading halt'
p151
sa(dp152
g2
S'http://www.reuters.com/article/2015/06/08/bbo-cubs-nationals-writethru-idUSMTZEB68LLD6D420150608'
p153
sg4
S'20150608\xc2\xa09:32PM UTC'
p154
sg6
S'Bryant leads Cubs past Nationals'
p155
sa(dp156
g2
S'http://www.reuters.com/article/2015/06/08/energy-southkorea-nuclear-idUSL3N0YU0AJ20150608'
p157
sg4
S'20150608\xc2\xa09:32PM UTC'
p158
sg6
S'UPDATE 1-S.Korea axes four coal plants, plans two new nuclear units'
p159
sa(dp160
g2
S'http://www.reuters.com/article/2015/06/08/philbeauty-idUSnPnJQYXc+5e+PRN20150608'
p161
sg4
S'20150608\xc2\xa09:30PM UTC'
p162
sg6
S'Philbeauty 2015 Announces Nine International Pavilions Joining, Unveils Business Matching Programme'
p163
sa(dp164
g2
S'http://www.reuters.com/article/2015/06/08/hoifuenergy-brief-idUSWNAS00V1920150608'
p165
sg4
S'20150608\xc2\xa09:27PM UTC'
p166
sg6
S'CORRECTED-BRIEF-Hoifu Energy seeks trading halt'
p167
sa(dp168
g2
S'http://www.reuters.com/article/2015/06/08/us-japan-economy-gdp-idUSKBN0ON18K20150608'
p169
sg4
S'20150608\xc2\xa09:25PM UTC'
p170
sg6
S'Japan GDP hits annualized 3.9 percent growth in first-quarter as firms ramp up capex '
p171
sa(dp172
g2
S'http://www.reuters.com/article/2015/06/08/indonesia-press-bank-bni-idUSL3N0YU12F20150608'
p173
sg4
S'20150608\xc2\xa09:23PM UTC'
p174
sg6
S'INDONESIA PRESS-Bank Negara, Antam plans to invest in Myanmar - Investor Daily'
p175
sa(dp176
g2
S'http://www.reuters.com/article/2015/06/08/bank-bri-insurance-idUSL3N0YU0YZ20150608'
p177
sg4
S'20150608\xc2\xa09:23PM UTC'
p178
sg6
S'Indonesia Bank Rakyat invites Cardif, Ageas to bid for insurance unit-sources'
p179
sa(dp180
g2
S'http://www.reuters.com/article/2015/06/08/malaysia-1mdb-idUSL3N0YU05I20150608'
p181
sg4
S'20150608\xc2\xa09:23PM UTC'
p182
sg6
S'REFILE-Board of troubled Malaysian state fund 1MDB set to step down - The Edge'
p183
sa(dp184
g2
S'http://www.reuters.com/article/2015/06/08/philippines-economy-rates-idUSL3N0YU08J20150608'
p185
sg4
S'20150608\xc2\xa09:18PM UTC'
p186
sg6
S'Philippine central bank says monetary support for growth not needed'
p187
sa(dp188
g2
S'http://www.reuters.com/article/2015/06/08/us-health-mers-southkorea-death-idUSKBN0OO02720150608'
p189
sg4
S'20150608\xc2\xa09:17PM UTC'
p190
sg6
S'South Korean man with MERS virus sixth to die in outbreak: officials'
p191
sa(dp192
g2
S'http://www.reuters.com/article/2015/06/08/press-digest-china-idUSL3N0YU09D20150608'
p193
sg4
S'20150608\xc2\xa09:16PM UTC'
p194
sg6
S'PRESS DIGEST - China - June 8'
p195
sa(dp196
g2
S'http://www.reuters.com/article/2015/06/08/carnegie-mellon-tonys-idUSnPn5s8YL1+86+PRN20150608'
p197
sg4
S'20150608\xc2\xa09:11PM UTC'
p198
sg6
S'Carnegie Mellon Congratulates Christian Borle on Tony Award Win'
p199
sa(dp200
g2
S'http://www.reuters.com/article/2015/06/08/fca-mopar-nhra-idUSnPn3JQByF+9d+PRN20150608'
p201
sg4
S'20150608\xc2\xa09:00PM UTC'
p202
sg6
S'Successful Drive for Mopar at NHRA Summernationals with Hagan Funny Car National Title Win and Johnson Runner-up Finish in Pro Stock'
p203
sa(dp204
g2
S'http://www.reuters.com/article/2015/06/08/aliyun-idUSnBw075063a+100+BSW20150608'
p205
sg4
S'20150608\xc2\xa09:00PM UTC'
p206
sg6
S'Aliyun Announces Global Partnership Program to Boost Public Cloud Services Worldwide'
p207
sa(dp208
g2
S'http://www.reuters.com/article/2015/06/08/iron-ore-ahome-idUSL5N0YR1XU20150608'
p209
sg4
S'20150608\xc2\xa09:00PM UTC'
p210
sg6
S'RPT-COLUMN-Beware false dawns in the iron ore market: Andy Home'
p211
sa(dp212
g2
S'http://www.reuters.com/article/2015/06/08/usa-election-clinton-addiction-insight-p-idUSL1N0YN2LX20150608'
p213
sg4
S'20150608\xc2\xa09:00PM UTC'
p214
sg6
S'INSIGHT-In discussing U.S. overdose deaths, Clinton downplays personal ties'
p215
sa(dp216
g2
S'http://www.reuters.com/article/2015/06/08/us-golf-pga-idUSKBN0ON17420150608'
p217
sg4
S'20150608\xc2\xa08:53PM UTC'
p218
sg6
S'Unheralded Lingmerth wins Memorial in playoff with Rose'
p219
sa(dp220
g2
S'http://www.reuters.com/article/2015/06/08/us-southkorea-imf-rates-idUSKBN0OO00920150608'
p221
sg4
S'20150608\xc2\xa08:52PM UTC'
p222
sg6
S'IMF official warns of market disorder from Fed rate hike'
p223
sa(dp224
g2
S'http://www.reuters.com/article/2015/06/08/us-usa-japan-missiledefense-idUSKBN0ON0M520150608'
p225
sg4
S'20150608\xc2\xa08:49PM UTC'
p226
sg6
S"U.S., Japan say first test of Raytheon's new SM-3 missile a success"
p227
sa(dp228
g2
S'http://www.reuters.com/article/2015/06/08/japan-economy-gdp-idUST9N0Y302J20150608'
p229
sg4
S'20150608\xc2\xa08:38PM UTC'
p230
sg6
S'RPT-Japan Q1 GDP revised up to annualised 3.9 pct growth - govt'
p231
sa(dp232
g2
S'http://www.reuters.com/article/2015/06/08/usa-japan-missiledefense-idUSL1N0YU00F20150608'
p233
sg4
S'20150608\xc2\xa08:37PM UTC'
p234
sg6
S"UPDATE 1-U.S., Japan say first test of Raytheon's new SM-3 missile a success"
p235
sa(dp236
g2
S'http://www.reuters.com/article/2015/06/08/us-tennis-open-men-idUSKBN0ON0SP20150608'
p237
sg4
S'20150608\xc2\xa08:33PM UTC'
p238
sg6
S"Triumphant Wawrinka dashes Djokovic's Paris dream"
p239
sa(dp240
g2
S'http://www.reuters.com/article/2015/06/08/markets-asia-idUSL3N0YU02I20150608'
p241
sg4
S'20150608\xc2\xa08:30PM UTC'
p242
sg6
S'Oil prices fall after OPEC keeps production high'
p243
sa(dp244
g2
S'http://www.reuters.com/article/2015/06/08/xilinx-openpowerchina-idUSnPn4L453L+91+PRN20150608'
p245
sg4
S'20150608\xc2\xa08:30PM UTC'
p246
sg6
S'Xilinx Joins Global Leaders at the 2015 OpenPOWER Foundation China Summit to Accelerate Next Generation Data Center Innovation'
p247
sa(dp248
g2
S'http://www.reuters.com/article/2015/06/08/markets-forex-idUSL3N0YT0PU20150608'
p249
sg4
S'20150608\xc2\xa08:29PM UTC'
p250
sg6
S'REFILE-FOREX-Dollar shines as jobs report supports case for Fed hike in Sept'
p251
sa(dp252
g2
S'http://www.reuters.com/article/2015/06/08/us-motor-racing-prix-idUSKBN0ON10D20150608'
p253
sg4
S'20150608\xc2\xa08:27PM UTC'
p254
sg6
S'Hamilton savors Canada win after Monaco blow'
p255
sa(dp256
g2
S'http://www.reuters.com/article/2015/06/08/syngenta-ag-ma-monsanto-consolation-idUSL1N0YT0L920150608'
p257
sg4
S'20150608\xc2\xa08:25PM UTC'
p258
sg6
S'Monsanto offers $2 billion fee to Syngenta as it pursues takeover'
p259
sa(dp260
g2
S'http://www.reuters.com/article/2015/06/08/motor-racing-prix-idUSL3N0YT0AV20150608'
p261
sg4
S'20150608\xc2\xa08:25PM UTC'
p262
sg6
S'UPDATE 2-Motor racing-Hamilton savours Canada win after Monaco blow'
p263
sa(dp264
g2
S'http://www.reuters.com/article/2015/06/08/markets-precious-idUSL3N0YU02520150608'
p265
sg4
S'20150608\xc2\xa08:23PM UTC'
p266
sg6
S'PRECIOUS-Gold near 11-week low on US jobs report, rate outlook'
p267
sa(dp268
g2
S'http://www.reuters.com/article/2015/06/08/us-samsung-elec-smartwatch-idUSKBN0OO00H20150608'
p269
sg4
S'20150608\xc2\xa08:15PM UTC'
p270
sg6
S"Samsung Elec's new smartwatch to offer mobile payments: Electronic Times"
p271
sa(dp272
g2
S'http://www.reuters.com/article/2015/06/08/samsung-elec-smartwatch-idUSL3N0YU00P20150608'
p273
sg4
S'20150608\xc2\xa08:14PM UTC'
p274
sg6
S"Samsung Elec's new smartwatch to offer mobile payments - Electronic Times"
p275
sa(dp276
g2
S'http://www.reuters.com/article/2015/06/08/bbo-mets-diamondbacks-writethru-idUSMTZEB68LKE3BU20150608'
p277
sg4
S'20150608\xc2\xa08:11PM UTC'
p278
sg6
S'Granderson goes deep twice as Mets down D-backs'
p279
sa(dp280
g2
S'http://www.reuters.com/article/2015/06/08/rugby-sevens-olympics-latam-idUSL3N0YU00520150608'
p281
sg4
S'20150608\xc2\xa08:09PM UTC'
p282
sg6
S"Rugby Sevens-Argentina's men, Colombian women win Olympic berths"
p283
sa(dp284
g2
S'http://www.reuters.com/article/2015/06/08/us-motor-racing-prix-mclaren-idUSKBN0OO00320150608'
p285
sg4
S'20150608\xc2\xa08:08PM UTC'
p286
sg6
S"Alonso vents frustration with 'amateur' jibe"
p287
sa(dp288
g2
S'http://www.reuters.com/article/2015/06/08/us-tennis-open-wawrinka-shorts-idUSKBN0ON13P20150608'
p289
sg4
S'20150608\xc2\xa08:07PM UTC'
p290
sg6
S"Great shots, crazy shorts -- Wawrinka's Roland Garros legacy"
p291
sa(dp292
g2
S'http://www.reuters.com/article/2015/06/08/bbo-astros-bluejays-recap-idUSMTZEB67LDF42V20150608'
p293
sg4
S'20150608\xc2\xa08:04PM UTC'
p294
sg6
S'Blue Jays 7, Astros 6'
p295
sa(dp296
g2
S'http://www.reuters.com/article/2015/06/08/get-new-skin-korea-corp-idUSnBw075065a+100+BSW20150608'
p297
sg4
S'20150608\xc2\xa08:04PM UTC'
p298
sg6
S"Get New Skin Korea: 'Steam 107' Cream, Keeps You Moisturized for 107 Hours"
p299
sa(dp300
g2
S'http://www.reuters.com/article/2015/06/08/diary-top-econ-idUSL3N0YR49420150608'
p301
sg4
S'20150608\xc2\xa08:01PM UTC'
p302
sg6
S'DIARY- Top Economic Events to June 18'
p303
sa(dp304
g2
S'http://www.reuters.com/article/2015/06/08/idUSnMKWl52vDa+1c2+MKW20150608'
p305
sg4
S'20150608\xc2\xa08:00PM UTC'
p306
sg6
S'Prime Focus Technologies Signs Deal With HOOQ, a Joint Venture Between Singtel, Sony Pictures Television and Warner Bros. Entertainment for Over-the-Top Video in Asia'
p307
sa(dp308
g2
S'http://www.reuters.com/article/2015/06/08/nv-fore-support-services-idUSnBw075028a+100+BSW20150608'
p309
sg4
S'20150608\xc2\xa08:00PM UTC'
p310
sg6
S'FORE Support Services Launches Breakthrough Automated Prior Authorization Software for Imaging Centers at RBMA 2015 Summit'
p311
sa(dp312
g2
S'http://www.reuters.com/article/2015/06/07/us-japan-economy-gdp-idUSKBN0ON18K20150607'
p313
sg4
S'20150608\xc2\xa07:57PM UTC'
p314
sg6
S'Japan first-quarter GDP revised up to annualized 3.9 pct growth: govt'
p315
sa(dp316
g2
S'http://www.reuters.com/article/2015/06/07/bbo-rays-mariners-writethru-idUSMTZEB68LKKRBV20150607'
p317
sg4
S'20150608\xc2\xa07:56PM UTC'
p318
sg6
S"Rays' Archer extends roll in win over Mariners"
p319
sa(dp320
g2
S'http://www.reuters.com/article/2015/06/07/japan-economy-gdp-idUST9N0Y302620150607'
p321
sg4
S'20150608\xc2\xa07:56PM UTC'
p322
sg6
S'Japan Q1 GDP revised up to annualised 3.9 pct growth - govt'
p323
sa(dp324
g2
S'http://www.reuters.com/article/2015/06/07/bbo-mets-diamondbacks-writethru-idUSMTZEB68LKE3BU20150607'
p325
sg4
S'20150608\xc2\xa07:50PM UTC'
p326
sg6
S'Granderson goes deep twice as Mets down D-backs'
p327
sa(dp328
g2
S'http://www.reuters.com/article/2015/06/07/us-chile-politics-minister-idUSKBN0ON18620150607'
p329
sg4
S'20150608\xc2\xa07:50PM UTC'
p330
sg6
S'Chilean minister steps down in fresh setback for Bachelet'
p331
sa(dp332
g2
S'http://www.reuters.com/article/2015/06/07/chile-politics-minister-idUSL1N0YT0L320150607'
p333
sg4
S'20150608\xc2\xa07:48PM UTC'
p334
sg6
S'Chilean minister steps down in fresh setback for Bachelet'
p335
sa(dp336
g2
S'http://www.reuters.com/article/2015/06/07/us-soccer-women-idUSKBN0ON17W20150607'
p337
sg4
S'20150608\xc2\xa07:46PM UTC'
p338
sg6
S'Europeans make World Cup arrivals with thrashings'
p339
sa(dp340
g2
S'http://www.reuters.com/article/2015/06/07/bbo-marlins-rockies-recap-idUSMTZEB68LLI6D820150607'
p341
sg4
S'20150608\xc2\xa07:44PM UTC'
p342
sg6
S'Marlins 3, Rockies 2 (10 innings)'
p343
sa(dp344
g2
S'http://www.reuters.com/article/2015/06/07/us-motor-racing-prix-williams-idUSKBN0ON17Q20150607'
p345
sg4
S'20150608\xc2\xa07:42PM UTC'
p346
sg6
S'Bottas puts Williams back on the podium'
p347
sa(dp348
g2
S'http://www.reuters.com/article/2015/06/07/bbo-cubs-nationals-recap-idUSMTZEB68LLD6D420150607'
p349
sg4
S'20150608\xc2\xa07:41PM UTC'
p350
sg6
S'Cubs 6, Nationals 3'
p351
sa(dp352
g2
S'http://www.reuters.com/article/2015/06/07/britain-press-ft-idUSL1N0YT0LP20150607'
p353
sg4
S'20150608\xc2\xa07:40PM UTC'
p354
sg6
S'PRESS DIGEST- Financial Times - June 8'
p355
sa(dp356
g2
S'http://www.reuters.com/article/2015/06/07/ca-alcatraz-triathlon-idUSnBw075061a+100+BSW20150607'
p357
sg4
S'20150608\xc2\xa07:36PM UTC'
p358
sg6
S'Professional Triathlete Eric Lagerstrom Wins 2015 Escape from Alcatraz\xe2\x84\xa2 Triathlon'
p359
sa(dp360
g2
S'http://www.reuters.com/article/2015/06/07/us-libya-talks-idUSKBN0ON17I20150607'
p361
sg4
S'20150608\xc2\xa07:35PM UTC'
p362
sg6
S'U.N. to host new rounds of Libya talks in Morocco'
p363
sa(dp364
g2
S'http://www.reuters.com/article/2015/06/07/us-golf-pga-idUSKBN0ON17420150607'
p365
sg4
S'20150608\xc2\xa07:27PM UTC'
p366
sg6
S'Unheralded Lingmerth wins Memorial in playoff with Rose'
p367
sa(dp368
g2
S'http://www.reuters.com/article/2015/06/07/us-soccer-women-u-s-idUSKBN0ON16W20150607'
p369
sg4
S'20150608\xc2\xa07:20PM UTC'
p370
sg6
S"Soccer-U.S. face Australia as 'Group of Death' comes to life"
p371
sa(dp372
g2
S'http://www.reuters.com/article/2015/06/07/us-usa-brother-walk-idUSKBN0ON16S20150607'
p373
sg4
S'20150608\xc2\xa07:19PM UTC'
p374
sg6
S'Michigan boy, 15, completes 57-mile walk with brother on his back'
p375
sa(dp376
g2
S'http://www.reuters.com/article/2015/06/07/us-wal-mart-stores-theft-idUSKBN0OK2NQ20150607'
p377
sg4
S'20150608\xc2\xa07:16PM UTC'
p378
sg6
S"Wal-Mart's U.S. chief takes aim at urgent item: theft"
p379
sa(dp380
g2
S'http://www.reuters.com/article/2015/06/07/us-wal-mart-stores-shareholders-idUSKBN0OK2DK20150607'
p381
sg4
S'20150608\xc2\xa07:16PM UTC'
p382
sg6
S'Wal-Mart resists investor pressure on independent chairman'
p383
sa(dp384
g2
S'http://www.reuters.com/article/2015/06/07/wal-mart-stores-theft-idUSL1N0YQ2N120150607'
p385
sg4
S'20150608\xc2\xa07:12PM UTC'
p386
sg6
S"CORRECTED-Wal-Mart's U.S. chief takes aim at urgent item: theft"
p387
sa(dp388
g2
S'http://www.reuters.com/article/2015/06/07/britain-press-business-idUSL3N0YT0II20150607'
p389
sg4
S'20150608\xc2\xa07:07PM UTC'
p390
sg6
S'PRESS DIGEST- British Business - June 8'
p391
sa(dp392
g2
S'http://www.reuters.com/article/2015/06/07/mo-monsanto-idUSnBw075058a+100+BSW20150607'
p393
sg4
S'20150608\xc2\xa07:05PM UTC'
p394
sg6
S'Seeking Constructive Engagement with Syngenta, Monsanto Reaffirms Highly Compelling Proposal and Underscores Confidence in Obtaining Regulatory Approvals with New $2 Billion Reverse Break-up Fee'
p395
sa(dp396
g2
S'http://www.reuters.com/article/2015/06/07/bbo-orioles-indians-writethru-idUSMTZEB67LEAT3620150607'
p397
sg4
S'20150608\xc2\xa07:04PM UTC'
p398
sg6
S'Jones, Wieters, Norris lift Orioles to series win'
p399
sa(dp400
g2
S'http://www.reuters.com/article/2015/06/07/us-britain-economy-cbi-idUSKBN0ON15Y20150607'
p401
sg4
S'20150608\xc2\xa07:03PM UTC'
p402
sg6
S'UK employers group cuts growth outlook, urges Osborne to stick to austerity'
p403
sa(dp404
g2
S'http://www.reuters.com/article/2015/06/07/us-britain-eu-cameron-idUSKBN0ON15W20150607'
p405
sg4
S'20150608\xc2\xa07:02PM UTC'
p406
sg6
S'Cameron tells ministers: Back me on EU referendum or quit'
p407
sa(dp408
g2
S'http://www.reuters.com/article/2015/06/07/us-investment-survey-coller-idUSKBN0ON15R20150607'
p409
sg4
S'20150608\xc2\xa07:02PM UTC'
p410
sg6
S'Nearly half of U.S. private equity investors eyeing oil, gas funds - survey'
p411
sa(dp412
g2
S'http://www.reuters.com/article/2015/06/07/bc-robotics-award-uae-idUSnPn4HtCkr+94+PRN20150607'
p413
sg4
S'20150608\xc2\xa07:01PM UTC'
p414
sg6
S'US$ 1 Million Award for Civilian Application of Robotics and Artificial Intelligence Ready to Accept Entries'
p415
sa(dp416
g2
S'http://www.reuters.com/article/2015/06/07/us-turkey-election-idUSKBN0OM0WF20150607'
p417
sg4
S'20150608\xc2\xa07:01PM UTC'
p418
sg6
S"Kurdish party thwarts Erdogan's ambitions with Turkish election advance"
p419
sa(dp420
g2
S'http://www.reuters.com/article/2015/06/07/investment-reporting-lgim-idUSL5N0YR36320150607'
p421
sg4
S'20150608\xc2\xa07:01PM UTC'
p422
sg6
S'British investor LGIM says quarterly reporting not necessary'
p423
sa(dp424
g2
S'http://www.reuters.com/article/2015/06/07/warcrimes-apps-idUSL5N0YQ19J20150607'
p425
sg4
S'20150608\xc2\xa07:00PM UTC'
p426
sg6
S'App empowers civilians to capture evidence of war crimes on smartphones'
p427
sa(dp428
g2
S'http://www.reuters.com/article/2015/06/07/financials-employment-london-idUSL5N0YR2O420150607'
p429
sg4
S'20150608\xc2\xa07:00PM UTC'
p430
sg6
S'New financial jobs in London up 52 pct year/year in May'
p431
sa(dp432
g2
S'http://www.reuters.com/article/2015/06/07/bbo-brewers-twins-writethru-idUSMTZEB67LFI86A20150607'
p433
sg4
S'20150608\xc2\xa06:54PM UTC'
p434
sg6
S'Pelfrey, Twins shut out Brewers'
p435
sa(dp436
g2
S'http://www.reuters.com/article/2015/06/07/us-motor-racing-prix-idUSKBN0ON10D20150607'
p437
sg4
S'20150608\xc2\xa06:54PM UTC'
p438
sg6
S'Hamilton savors Canada win after Monaco blow'
p439
sa(dp440
g2
S'http://www.reuters.com/article/2015/06/07/us-motor-racing-prix-hamilton-idUSKBN0ON15J20150607'
p441
sg4
S'20150608\xc2\xa06:54PM UTC'
p442
sg6
S'Canada comes good for Hamilton'
p443
sa(dp444
g2
S'http://www.reuters.com/article/2015/06/07/us-soccer-women-germany-idUSKBN0ON14H20150607'
p445
sg4
S'20150608\xc2\xa06:53PM UTC'
p446
sg6
S'Sasic, Mittag both net three as Germany rout Ivory Coast'
p447
sa(dp448
g2
S'http://www.reuters.com/article/2015/06/07/us-storm-blanca-mexico-idUSKBN0ON0OA20150607'
p449
sg4
S'20150608\xc2\xa06:47PM UTC'
p450
sg6
S"Blanca weakens as it approaches Mexico's Pacific coast"
p451
sa(dp452
g2
S'http://www.reuters.com/article/2015/06/07/us-airlines-iata-lufthansa-idUSKBN0ON12D20150607'
p453
sg4
S'20150608\xc2\xa06:47PM UTC'
p454
sg6
S'Lufthansa CEO sees good May traffic as new seats lure fliers'
p455
sa(dp456
g2
S'http://www.reuters.com/article/2015/06/07/us-airlines-iata-american-idUSKBN0ON0YC20150607'
p457
sg4
S'20150608\xc2\xa06:47PM UTC'
p458
sg6
S'American Airlines CEO cites capacity growth risks'
p459
sa(dp460
g2
S'http://www.reuters.com/article/2015/06/07/storm-blanca-mexico-idUSL1N0YT0FF20150607'
p461
sg4
S'20150608\xc2\xa06:47PM UTC'
p462
sg6
S"UPDATE 2-Blanca weakens as it approaches Mexico's Pacific coast"
p463
sa(dp464
g2
S'http://www.reuters.com/article/2015/06/07/airlines-iata-lufthansa-idUSL5N0YT12320150607'
p465
sg4
S'20150608\xc2\xa06:46PM UTC'
p466
sg6
S'UPDATE 1-Lufthansa CEO sees good May traffic as new seats lure fliers'
p467
sa(dp468
g2
S'http://www.reuters.com/article/2015/06/07/us-airlines-iata-traffic-idUSKBN0ON14R20150607'
p469
sg4
S'20150608\xc2\xa06:43PM UTC'
p470
sg6
S"U.S. air traffic control system to mimic Canada's system, A4A says"
p471
sa(dp472
g2
S'http://www.reuters.com/article/2015/06/07/airlines-iata-traffic-idUSL5N0YT14H20150607'
p473
sg4
S'20150608\xc2\xa06:42PM UTC'
p474
sg6
S"UPDATE 1-U.S. air traffic control system to mimic Canada's system, A4A says"
p475
sa(dp476
g2
S'http://www.reuters.com/article/2015/06/07/us-soccer-fifa-worldcup-egypt-idUSKBN0ON15720150607'
p477
sg4
S'20150608\xc2\xa06:41PM UTC'
p478
sg6
S"Egypt ex-official says FIFA's Warner sought money, citing influence in World Cup selection"
p479
sa(dp480
g2
S'http://www.reuters.com/article/2015/06/07/us-golf-lpga-idUSKBN0ON15320150607'
p481
sg4
S'20150608\xc2\xa06:29PM UTC'
p482
sg6
S'Pettersen birdies 16 and 17 to win Manulife LPGA Classic'
p483
sa(dp484
g2
S'http://www.reuters.com/article/2015/06/07/airlines-iata-etihad-idUSL1N0YT0IF20150607'
p485
sg4
S'20150608\xc2\xa06:27PM UTC'
p486
sg6
S'UPDATE 1-Etihad Airways CEO says in expanded codeshare deal with Air France-KLM'
p487
sa(dp488
g2
S'http://www.reuters.com/article/2015/06/07/uk-deutschebank-ceo-jain-idUSKBN0ON0U520150607'
p489
sg4
S'20150608\xc2\xa06:25PM UTC'
p490
sg6
S'Jain puts Deutsche Bank on world stage but leaves it in limbo'
p491
sa(dp492
g2
S'http://www.reuters.com/article/2015/06/07/us-deutschebank-ceo-resignation-idUSKBN0ON0JH20150607'
p493
sg4
S'20150608\xc2\xa06:25PM UTC'
p494
sg6
S'Deutsche Bank appoints new CEO in latest post-crisis shake-up'
p495
sa(dp496
g2
S'http://www.reuters.com/article/2015/06/07/deutschebank-ceo-resignation-idUSL5N0YT0DS20150607'
p497
sg4
S'20150608\xc2\xa06:23PM UTC'
p498
sg6
S'UPDATE 9-Deutsche Bank appoints new CEO in latest post-crisis shake-up'
p499
sa(dp500
g2
S'http://www.reuters.com/article/2015/06/07/us-health-mers-southkorea-idUSKBN0ON14T20150607'
p501
sg4
S'20150608\xc2\xa06:18PM UTC'
p502
sg6
S'South Korea reports 23 new cases of MERS virus, total rises to 87'
p503
sa(dp504
g2
S'http://www.reuters.com/article/2015/06/07/health-mers-southkorea-idUSL3N0YT0DI20150607'
p505
sg4
S'20150608\xc2\xa06:17PM UTC'
p506
sg6
S'South Korea reports 23 new cases of MERS virus, total rises to 87'
p507
sa(dp508
g2
S'http://www.reuters.com/article/2015/06/07/us-saintgobain-verallia-idUSKBN0ON11X20150607'
p509
sg4
S'20150608\xc2\xa06:15PM UTC'
p510
sg6
S"Apollo wins auction for St-Gobain's Verallia: source"
p511
sa(dp512
g2
S'http://www.reuters.com/article/2015/06/07/us-golf-pga-playoff-idUSKBN0ON14P20150607'
p513
sg4
S'20150608\xc2\xa06:14PM UTC'
p514
sg6
S'Rose, Lingmerth in Memorial playoff'
p515
sa(dp516
g2
S'http://www.reuters.com/article/2015/06/07/airlines-iata-traffic-idUSL1N0YT0JA20150607'
p517
sg4
S'20150608\xc2\xa06:13PM UTC'
p518
sg6
S"U.S. air traffic control system to mimic Canada's system, A4A says"
p519
sa(dp520
g2
S'http://www.reuters.com/article/2015/06/07/us-turkey-election-mhp-idUSKBN0ON14L20150607'
p521
sg4
S'20150608\xc2\xa06:12PM UTC'
p522
sg6
S"Turkey's MHP wants early election if coalition efforts fail"
p523
sa(dp524
g2
S'http://www.reuters.com/article/2015/06/07/bbo-rangers-royals-writethru-idUSMTZEB67LEJB4820150607'
p525
sg4
S'20150608\xc2\xa06:10PM UTC'
p526
sg6
S'Perez homer pushes Royals over Rangers'
p527
sa(dp528
g2
S'http://www.reuters.com/article/2015/06/07/us-pope-vibrations-idUSKBN0ON14D20150607'
p529
sg4
S'20150608\xc2\xa06:09PM UTC'
p530
sg6
S"Pope to reporters: 'Send me good vibrations'"
p531
sa(dp532
g2
S'http://www.reuters.com/article/2015/06/07/us-eurotunnel-myferrylink-idUSKBN0ON14B20150607'
p533
sg4
S'20150608\xc2\xa06:08PM UTC'
p534
sg6
S"Eurotunnel reluctantly sells its ferries to Denmark's DFDS"
p535
sa(dp536
g2
S'http://www.reuters.com/article/2015/06/07/ca-guidewire-software-idUSnBw075051a+100+BSW20150607'
p537
sg4
S'20150608\xc2\xa06:00PM UTC'
p538
sg6
S'Guidewire Software Extends Digital Portfolio With New Portal for Property/Casualty Insurance Agents and Brokers'
p539
sa(dp540
g2
S'http://www.reuters.com/article/2015/06/07/kcr-inc-idUSnBw075057a+100+BSW20150607'
p541
sg4
S'20150608\xc2\xa05:53PM UTC'
p542
sg6
S'KCR Inc. Announces Investment Opinion: KCR Inc. Issues Report on VT Holdings Reviewing Its Business Strategies and Earnings'
p543
sa(dp544
g2
S'http://www.reuters.com/article/2015/06/07/bbo-giants-phillies-recap-idUSMTZEB67LEHH3T20150607'
p545
sg4
S'20150608\xc2\xa05:52PM UTC'
p546
sg6
S'Phillies 6, Giants 4'
p547
sa(dp548
g2
S'http://www.reuters.com/article/2015/06/07/saintgobain-verallia-idUSL5N0YT11M20150607'
p549
sg4
S'20150608\xc2\xa05:49PM UTC'
p550
sg6
S"UPDATE 2-Apollo wins auction for St-Gobain's Verallia -source"
p551
sa(dp552
g2
S'http://www.reuters.com/article/2015/06/07/bbo-tigers-whitesox-recap-idUSMTZEB67LF3Q5R20150607'
p553
sg4
S'20150608\xc2\xa05:49PM UTC'
p554
sg6
S'Tigers 6, White Sox 4'
p555
sa(dp556
g2
S'http://www.reuters.com/article/2015/06/07/car-nascar-sprint-writethru-idUSMTZEB67LDI32W20150607'
p557
sg4
S'20150608\xc2\xa05:47PM UTC'
p558
sg6
S'Truex beaks drought with win at Pocono'
p559
sa(dp560
g2
S'http://www.reuters.com/article/2015/06/07/eurotunnel-myferrylink-idUSL5N0YT13J20150607'
p561
sg4
S'20150608\xc2\xa05:41PM UTC'
p562
sg6
S"Eurotunnel reluctantly sells its ferries to Denmark's DFDS"
p563
sa(dp564
g2
S'http://www.reuters.com/article/2015/06/07/bbo-astros-bluejays-recap-idUSMTZEB67LDF42V20150607'
p565
sg4
S'20150608\xc2\xa05:36PM UTC'
p566
sg6
S'Blue Jays 7, Astros 6'
p567
sa(dp568
g2
S'http://www.reuters.com/article/2015/06/07/bbo-athletics-redsox-recap-idUSMTZEB67LFEW6920150607'
p569
sg4
S'20150608\xc2\xa05:33PM UTC'
p570
sg6
S'Red Sox 7, Athletics 4'
p571
sa(dp572
g2
S'http://www.reuters.com/article/2015/06/07/ca-ligand-pharm-idUSnBw075055a+100+BSW20150607'
p573
sg4
S'20150608\xc2\xa05:30PM UTC'
p574
sg6
S'Ligand Announces Favorable Results From Phase 1b Trial With LGD-6972 in Type 2 Diabetes and Plans to Initiate a Phase 2 Trial'
p575
sa(dp576
g2
S'http://www.reuters.com/article/2015/06/07/us-iceland-capitalcontrols-vote-idUSKBN0ON10T20150607'
p577
sg4
S'20150608\xc2\xa05:28PM UTC'
p578
sg6
S'Iceland parliament summoned for capital controls vote'
p579
sa(dp580
g2
S'http://www.reuters.com/article/2015/06/07/us-tennis-open-wawrinka-shorts-idUSKBN0ON13P20150607'
p581
sg4
S'20150608\xc2\xa05:27PM UTC'
p582
sg6
S"Great shots, crazy shorts -- Wawrinka's Roland Garros legacy"
p583
sa(dp584
g2
S'http://www.reuters.com/article/2015/06/07/bbo-angels-yankees-writethru-idUSMTZEB67LATW0F20150607'
p585
sg4
S'20150608\xc2\xa05:26PM UTC'
p586
sg6
S'Sabathia gets ejected as Yankees sweep Angels'
p587
sa(dp588
g2
S'http://www.reuters.com/article/2015/06/07/iceland-capitalcontrols-vote-idUSL5N0YT11W20150607'
p589
sg4
S'20150608\xc2\xa05:26PM UTC'
p590
sg6
S'UPDATE 1-Iceland parliament summoned for capital controls vote'
p591
sa(dp592
g2
S'http://www.reuters.com/article/2015/06/07/bbo-pirates-braves-recap-idUSMTZEB67LDXJ2X20150607'
p593
sg4
S'20150608\xc2\xa05:26PM UTC'
p594
sg6
S'Pirates 3, Braves 0'
p595
sa(dp596
g2
S'http://www.reuters.com/article/2015/06/07/idUSL1N0YT0IG20150607'
p597
sg4
S'20150608\xc2\xa05:25PM UTC'
p598
sg6
S"Corning's stock could jump 40 pct over next 18 months - Barron's"
p599
sa(dp600
g2
S'http://www.reuters.com/article/2015/06/07/us-usa-newyork-prisoners-idUSKBN0ON0LY20150607'
p601
sg4
S'20150608\xc2\xa05:24PM UTC'
p602
sg6
S'Murderers who escaped from New York prison may have had help'
p603
sa(dp604
g2
S'http://www.reuters.com/article/2015/06/07/idUSnGNX4b27Jn+1c2+GNW20150607'
p605
sg4
S'20150608\xc2\xa05:22PM UTC'
p606
sg6
S"Owens Realty Mortgage, Inc. to Present at NAREIT'S REITWeek 2015"
p607
sa(dp608
g2
S'http://www.reuters.com/article/2015/06/07/us-bahrain-security-idUSKBN0ON13L20150607'
p609
sg4
S'20150608\xc2\xa05:22PM UTC'
p610
sg6
S"Bahrain says it has broken up Shi'ite group involved in terrorism"
p611
sa(dp612
g2
S'http://www.reuters.com/article/2015/06/07/us-markets-turkey-idUSKBN0ON10F20150607'
p613
sg4
S'20150608\xc2\xa05:12PM UTC'
p614
sg6
S"Turkey's lira hits record low after election jolt for ruling AKP"
p615
sa(dp616
g2
S'http://www.reuters.com/article/2015/06/07/us-turkey-election-davutoglu-idUSKBN0ON13F20150607'
p617
sg4
S'20150608\xc2\xa05:12PM UTC'
p618
sg6
S'Turkish PM says AK Party clear winner in parliament election'
p619
sa(dp620
g2
S'http://www.reuters.com/article/2015/06/07/us-autos-hyundai-suv-idUSKBN0ON13420150607'
p621
sg4
S'20150608\xc2\xa05:04PM UTC'
p622
sg6
S'Better late than never? Hyundai seeks to plug SUV gap'
p623
sa(dp624
g2
S'http://www.reuters.com/article/2015/06/07/us-japan-economy-yen-idUSKBN0ON13220150607'
p625
sg4
S'20150608\xc2\xa05:03PM UTC'
p626
sg6
S'Japan business lobby: more yen declines undesirable for small firms-Nikkei'
p627
sa(dp628
g2
S'http://www.reuters.com/article/2015/06/07/airlines-iata-etihad-idUSL1N0YT0FG20150607'
p629
sg4
S'20150608\xc2\xa05:02PM UTC'
p630
sg6
S'Etihad Airways CEO says in expanded codeshare deal with Air France-KLM'
p631
sa(dp632
g2
S'http://www.reuters.com/article/2015/06/07/bbo-padres-reds-writethru-idUSMTZEB67LAX70U20150607'
p633
sg4
S'20150608\xc2\xa05:00PM UTC'
p634
sg6
S'Cueto, Bruce lead Reds over Padres'
p635
sa(dp636
g2
S'http://www.reuters.com/article/2015/06/07/markets-turkey-idUSL5N0YT10620150607'
p637
sg4
S'20150608\xc2\xa05:00PM UTC'
p638
sg6
S"UPDATE 1-Turkey's lira hits record low after election jolt for ruling AKP"
p639
sa(dp640
g2
S'http://www.reuters.com/article/2015/06/07/us-asia-migrants-camps-idUSKBN0ON06M20150607'
p641
sg4
S'20150608\xc2\xa05:00PM UTC'
p642
sg6
S"Closed for business: Asia's human smugglers go to ground"
p643
sa(dp644
g2
S'http://www.reuters.com/article/2015/06/07/indonesia-economy-idUSL3N0YT08F20150607'
p645
sg4
S'20150608\xc2\xa05:00PM UTC'
p646
sg6
S"RPT-Not so fast: Thrifty consumers put brakes on Indonesia's economy"
p647
sa(dp648
g2
S'http://www.reuters.com/article/2015/06/07/autos-hyundai-suv-idUSL3N0YP1QA20150607'
p649
sg4
S'20150608\xc2\xa05:00PM UTC'
p650
sg6
S'Better late than never? Hyundai seeks to plug SUV gap'
p651
sa(dp652
g2
S'http://www.reuters.com/article/2015/06/07/china-flashboys-idUSL5N0YR1PV20150607'
p653
sg4
S'20150608\xc2\xa05:00PM UTC'
p654
sg6
S"RPT-New toys for flash boys in China's fledgling derivatives market"
p655
sa(dp656
g2
S'http://www.reuters.com/article/2015/06/07/rentrakboxofficejune-idUSnPn8Yq1vy+90+PRN20150607'
p657
sg4
S'20150608\xc2\xa04:58PM UTC'
p658
sg6
S'Rentrak Announces Official Worldwide Box Office Results for Weekend of June 7, 2015'
p659
sa(dp660
g2
S'http://www.reuters.com/article/2015/06/07/laboratory-corp-stocks-idUSL1N0YT0H720150607'
p661
sg4
S'20150608\xc2\xa04:57PM UTC'
p662
sg6
S"LabCorp's shares could rise 20 pct in the next year -Barron's"
p663
sa(dp664
g2
S'http://www.reuters.com/article/2015/06/07/idUSnMKWVF7Bma+1f4+MKW20150607'
p665
sg4
S'20150608\xc2\xa04:55PM UTC'
p666
sg6
S"Maropost Is the Title Sponsor of MediaPost's Email Insider Summit"
p667
sa(dp668
g2
S'http://www.reuters.com/article/2015/06/07/idUSnCCN7wTx2+e4+MKW20150607'
p669
sg4
S'20150608\xc2\xa04:55PM UTC'
p670
sg6
S"Maropost Is the Title Sponsor of MediaPost's Email Insider Summit"
p671
sa(dp672
g2
S'http://www.reuters.com/article/2015/06/07/us-orange-israel-idUSKBN0ON12Y20150607'
p673
sg4
S'20150608\xc2\xa04:52PM UTC'
p674
sg6
S"Israel talks tough in row over 'hostile' remarks by Orange CEO"
p675
sa(dp676
g2
S'http://www.reuters.com/article/2015/06/07/us-g7-summit-japan-aibb-idUSKBN0ON12W20150607'
p677
sg4
S'20150608\xc2\xa04:51PM UTC'
p678
sg6
S"Japan says won't decide on AIIB until corruption addressed"
p679
sa(dp680
g2
S'http://www.reuters.com/article/2015/06/07/orange-israel-idUSL5N0YT11E20150607'
p681
sg4
S'20150608\xc2\xa04:46PM UTC'
p682
sg6
S"Israel talks tough in row over 'hostile' remarks by Orange CEO"
p683
sa(dp684
g2
S'http://www.reuters.com/article/2015/06/07/g7-summit-japan-aibb-idUSL1N0YT0HC20150607'
p685
sg4
S'20150608\xc2\xa04:43PM UTC'
p686
sg6
S"Japan says won't decide on AIIB until corruption addressed"
p687
sa(dp688
g2
S'http://www.reuters.com/article/2015/06/07/us-tennis-open-men-idUSKBN0ON0SP20150607'
p689
sg4
S'20150608\xc2\xa04:38PM UTC'
p690
sg6
S"Triumphant Wawrinka dashes Djokovic's Paris dream"
p691
sa(dp692
g2
S'http://www.reuters.com/article/2015/06/07/deutsche-bank-strategy-idUSL5N0XJ0R820150607'
p693
sg4
S'20150608\xc2\xa04:32PM UTC'
p694
sg6
S'TIMELINE-Milestones in the reshaping of Deutsche Bank'
p695
sa(dp696
g2
S'http://www.reuters.com/article/2015/06/07/airlines-iata-lufthansa-idUSL5N0YT0ZZ20150607'
p697
sg4
S'20150608\xc2\xa04:25PM UTC'
p698
sg6
S'Lufthansa CEO says positive traffic trend continued in May'
p699
sa(dp700
g2
S'http://www.reuters.com/article/2015/06/07/us-horseracing-belmont-pharoah-idUSKBN0ON12320150607'
p701
sg4
S'20150608\xc2\xa04:20PM UTC'
p702
sg6
S'Triple Crown winner American Pharoah gets deserved rest'
p703
sa(dp704
g2
S'http://www.reuters.com/article/2015/06/07/us-usa-yale-race-idUSKBN0ON11S20150607'
p705
sg4
S'20150608\xc2\xa04:17PM UTC'
p706
sg6
S'Yale beats Harvard in 150th regatta for first victory since 2007'
p707
sa(dp708
g2
S'http://www.reuters.com/article/2015/06/07/saintgobain-verallia-idUSL5N0YT11320150607'
p709
sg4
S'20150608\xc2\xa04:12PM UTC'
p710
sg6
S"Apollo wins St-Gobain's Verallia with 2.95 bln euro bid -Le Figaro"
p711
sa(dp712
g2
S'http://www.reuters.com/article/2015/06/07/us-soccer-fifa-paraguay-idUSKBN0ON11E20150607'
p713
sg4
S'20150608\xc2\xa04:12PM UTC'
p714
sg6
S'South American soccer HQ could face raids if new law passes'
p715
sa(dp716
g2
S'http://www.reuters.com/article/2015/06/07/motor-racing-prix-idUSL3N0YT0AV20150607'
p717
sg4
S'20150608\xc2\xa04:11PM UTC'
p718
sg6
S'UPDATE 1-Motor racing-Hamilton savours Canada win after Monaco blow'
p719
sa(dp720
g2
S'http://www.reuters.com/article/2015/06/07/business-news-schedule-at-2000-gmt-idUSL1N0YT0GV20150607'
p721
sg4
S'20150608\xc2\xa04:10PM UTC'
p722
sg6
S'REUTERS BUSINESS NEWS SCHEDULE AT 2000 GMT/4 PM ET'
p723
sa(dp724
g2
S'http://www.reuters.com/article/2015/06/07/us-mexico-election-idUSKBN0ON0MR20150607'
p725
sg4
S'20150608\xc2\xa04:10PM UTC'
p726
sg6
S'Test for Pena Nieto as Mexicans vote in shadow of gang murders'
p727
sa(dp728
g2
S'http://www.reuters.com/article/2015/06/07/airlines-iata-american-idUSL1N0YT0GB20150607'
p729
sg4
S'20150608\xc2\xa03:57PM UTC'
p730
sg6
S'UPDATE 1-American Airlines CEO cites capacity growth risks'
p731
sa(dp732
g2
S'http://www.reuters.com/article/2015/06/07/idUSnHUG3rTwX+e5+ONE20150607'
p733
sg4
S'20150608\xc2\xa03:56PM UTC'
p734
sg6
S'REG-Hofseth Biocare ASA :CLOSING OF BOND LOAN AND PRIVATE PLACEMENT - CANCELLATION OF REPAIR OFFERING'
p735
sa(dp736
g2
S'http://www.reuters.com/article/2015/06/07/us-deutschebank-ceo-cryan-idUSKBN0ON10N20150607'
p737
sg4
S'20150608\xc2\xa03:55PM UTC'
p738
sg6
S"Deutsche task to test Cryan's strategic credentials"
p739
sa(dp740
g2
S'http://www.reuters.com/article/2015/06/07/iceland-capitalcontrols-vote-idUSL5N0YT0YF20150607'
p741
sg4
S'20150608\xc2\xa03:54PM UTC'
p742
sg6
S'Iceland parliament summoned for Sunday night capital controls vote'
p743
sa(dp744
g2
S'http://www.reuters.com/article/2015/06/07/us-g7-summit-cameron-obama-idUSKBN0ON0Z320150607'
p745
sg4
S'20150608\xc2\xa03:53PM UTC'
p746
sg6
S"Obama uses G7 to press UK's Cameron on defense spending"
p747
sa(dp748
g2
S'http://www.reuters.com/article/2015/06/07/us-g7-summit-idUSKBN0OM0I320150607'
p749
sg4
S'20150608\xc2\xa03:53PM UTC'
p750
sg6
S'G7 leaders urge tough line on Russia at Alpine summit'
p751
sa(dp752
g2
S'http://www.reuters.com/article/2015/06/07/us-ukraine-crisis-boat-idUSKBN0ON0O620150607'
p753
sg4
S'20150608\xc2\xa03:52PM UTC'
p754
sg6
S"One dead after patrol boat blows up and sinks off Ukraine's Mariupol"
p755
sa(dp756
g2
S'http://www.reuters.com/article/2015/06/07/newzealand-press-idUSL3N0YT0B120150607'
p757
sg4
S'20150608\xc2\xa03:50PM UTC'
p758
sg6
S'PRESS DIGEST-New Zealand newspapers - June 8'
p759
sa(dp760
g2
S'http://www.reuters.com/article/2015/06/07/groupe-eurotunnel-idUSnBw075054a+100+BSW20150607'
p761
sg4
S'20150608\xc2\xa03:50PM UTC'
p762
sg6
S'Groupe Eurotunnel SE completes the sale of its main maritime assets'
p763
sa(dp764
g2
S'http://www.reuters.com/article/2015/06/07/us-cycling-hour-wiggins-idUSKBN0ON0YM20150607'
p765
sg4
S'20150608\xc2\xa03:47PM UTC'
p766
sg6
S'Wiggins smashes UCI world hour record'
p767
sa(dp768
g2
S'http://www.reuters.com/article/2015/06/07/deutschebank-ceo-resignation-idUSL1N0YT0FX20150607'
p769
sg4
S'20150608\xc2\xa03:45PM UTC'
p770
sg6
S'UPDATE 7-Deutsche Bank appoints new CEO in latest post-crisis shakeup'
p771
sa(dp772
g2
S'http://www.reuters.com/article/2015/06/07/airlines-iata-air-canada-idUSL5N0YT0YR20150607'
p773
sg4
S'20150608\xc2\xa03:39PM UTC'
p774
sg6
S'Air Canada CEO says considering more A321s for Rouge unit'
p775
sa(dp776
g2
S'http://www.reuters.com/article/2015/06/07/brazil-investment-idUSL1N0YT0FR20150607'
p777
sg4
S'20150608\xc2\xa03:36PM UTC'
p778
sg6
S'Top investor Stuhlberger predicts new Brazilian lost decade'
p779
sa(dp780
g2
S'http://www.reuters.com/article/2015/06/07/markets-turkey-idUSL5N0YT0YO20150607'
p781
sg4
S'20150608\xc2\xa03:35PM UTC'
p782
sg6
S"Turkey's lira hits record low after election jolt for ruling AKP"
p783
sa(dp784
g2
S'http://www.reuters.com/article/2015/06/07/deutschebank-ceo-cryan-idUSL5N0YT0X520150607'
p785
sg4
S'20150608\xc2\xa03:33PM UTC'
p786
sg6
S"NEWSMAKER-Deutsche task to test Cryan's strategic credentials"
p787
sa(dp788
g2
S'http://www.reuters.com/article/2015/06/07/us-deals-privateequity-ge-canadapension-idUSKBN0ON0X720150607'
p789
sg4
S'20150608\xc2\xa03:31PM UTC'
p790
sg6
S'GE close to selling private equity lender to top Canada pension fund'
p791
sa(dp792
g2
S'http://www.reuters.com/article/2015/06/07/deals-privateequity-ge-canadapension-upd-idUSL1N0YT0EK20150607'
p793
sg4
S'20150608\xc2\xa03:24PM UTC'
p794
sg6
S'UPDATE 2-GE close to selling private equity lender to top Canada pension fund'
p795
sa(dp796
g2
S'http://www.reuters.com/article/2015/06/07/us-turkey-election-kurds-idUSKBN0ON0ZZ20150607'
p797
sg4
S'20150608\xc2\xa03:24PM UTC'
p798
sg6
S"Turkey's pro-Kurdish HDP leader rules out coalition with AK Party"
p799
sa(dp800
g2
S'http://www.reuters.com/article/2015/06/07/us-turkey-election-results-kurds-idUSKBN0ON0ZX20150607'
p801
sg4
S'20150608\xc2\xa03:23PM UTC'
p802
sg6
S"Joy and pistol fire in Turkey's Kurdish southeast after vote"
p803
sa(dp804
g2
S'http://www.reuters.com/article/2015/06/07/us-apple-music-streaming-idUSKBN0ON0ZT20150607'
p805
sg4
S'20150608\xc2\xa03:17PM UTC'
p806
sg6
S"Sony Music CEO confirms launch of Apple's music streaming Monday: VentureBeat"
p807
sa(dp808
g2
S'http://www.reuters.com/article/2015/06/07/apple-music-streaming-idUSL1N0YT0E520150607'
p809
sg4
S'20150608\xc2\xa03:10PM UTC'
p810
sg6
S"Sony Music CEO confirms launch of Apple's music streaming Monday -VentureBeat"
p811
sa(dp812
g2
S'http://www.reuters.com/article/2015/06/07/us-britain-eu-exit-idUSKBN0OM0XW20150607'
p813
sg4
S'20150608\xc2\xa02:59PM UTC'
p814
sg6
S'Obama says stay, but some Cameron MPs prepare to back UK exit from EU'
p815
sa(dp816
g2
S'http://www.reuters.com/article/2015/06/07/us-g7-summit-climate-japan-idUSKBN0ON0ZG20150607'
p817
sg4
S'20150608\xc2\xa02:58PM UTC'
p818
sg6
S'Japan says open to G7 carbon emissions target'
p819
sa(dp820
g2
S'http://www.reuters.com/article/2015/06/07/ca-kaiser-permanente-idUSnPnGhx4g+50+PRN20150607'
p821
sg4
S'20150608\xc2\xa02:55PM UTC'
p822
sg6
S'Kaiser Permanente and the Coalition of Kaiser Permanente Unions Reach Unique 3-Year Contract Agreement'
p823
sa(dp824
g2
S'http://www.reuters.com/article/2015/06/07/us-usa-police-texas-idUSKBN0ON0ZB20150607'
p825
sg4
S'20150608\xc2\xa02:54PM UTC'
p826
sg6
S'Texas policeman suspended after pulling gun on teen at pool party'
p827
sa(dp828
g2
S'http://www.reuters.com/article/2015/06/07/us-turkey-election-chp-idUSKBN0ON0Z920150607'
p829
sg4
S'20150608\xc2\xa02:54PM UTC'
p830
sg6
S"Main opposition party says Turkey rejected Erdogan's presidential system demand"
p831
sa(dp832
g2
S'http://www.reuters.com/article/2015/06/07/us-airlines-iata-avianca-holding-tap-idUSKBN0ON0Z520150607'
p833
sg4
S'20150608\xc2\xa02:53PM UTC'
p834
sg6
S'Avianca owner Efromovich eyes synergies as bids for TAP '
p835
sa(dp836
g2
S'http://www.reuters.com/article/2015/06/07/us-usa-rowing-journey-idUSKBN0ON0YI20150607'
p837
sg4
S'20150608\xc2\xa02:48PM UTC'
p838
sg6
S'U.S. woman sets out to become first to row across Pacific alone'
p839
sa(dp840
g2
S'http://www.reuters.com/article/2015/06/07/airlines-iata-avianca-holding-tap-idUSL5N0YT0XH20150607'
p841
sg4
S'20150608\xc2\xa02:46PM UTC'
p842
sg6
S'Avianca owner Efromovich eyes synergies as bids for TAP'
p843
sa(dp844
g2
S'http://www.reuters.com/article/2015/06/07/us-britain-charts-idUSKBN0ON0XF20150607'
p845
sg4
S'20150608\xc2\xa02:46PM UTC'
p846
sg6
S'Florence and the Machine land third UK No.1 album'
p847
sa(dp848
g2
S'http://www.reuters.com/article/2015/06/07/us-europe-migrants-britain-idUSKBN0ON08520150607'
p849
sg4
S'20150608\xc2\xa02:44PM UTC'
p850
sg6
S'International flotilla rescues 5,900 from Mediterranean in a weekend'
p851
sa(dp852
g2
S'http://www.reuters.com/article/2015/06/07/deutschebank-ceo-jain-idUSKBN0ON0UV20150607'
p853
sg4
S'20150608\xc2\xa02:43PM UTC'
p854
sg6
S'Jain puts Deutsche Bank on world stage but leaves it in limbo'
p855
sa(dp856
g2
S'http://www.reuters.com/article/2015/06/07/us-olympics-sportaccord-idUSKBN0ON0YQ20150607'
p857
sg4
S'20150608\xc2\xa02:42PM UTC'
p858
sg6
S'IOC suspends recognition of SportAccord'
p859
sa(dp860
g2
S'http://www.reuters.com/article/2015/06/07/tennis-open-men-idUSKBN0ON0SJ20150607'
p861
sg4
S'20150608\xc2\xa02:39PM UTC'
p862
sg6
S'Inspired Wawrinka tames Djokovic to win French Open'
p863
sa(dp864
g2
S'http://www.reuters.com/article/2015/06/07/us-g7-summit-japan-economy-idUSKBN0ON0XZ20150607'
p865
sg4
S'20150608\xc2\xa02:33PM UTC'
p866
sg6
S"Japan economy returning to 'growth orbit': PM's spokesman"
p867
sa(dp868
g2
S'http://www.reuters.com/article/2015/06/07/olympics-sportaccord-idUSL3N0YT0A720150607'
p869
sg4
S'20150608\xc2\xa02:32PM UTC'
p870
sg6
S'Olympics-IOC suspends recognition of SportAccord'
p871
sa(dp872
g2
S'http://www.reuters.com/article/2015/06/07/deutschebank-ceo-resignation-idUSKBN0ON0GZ20150607'
p873
sg4
S'20150608\xc2\xa02:28PM UTC'
p874
sg6
S'Deutsche Bank appoints new CEO in latest post-crisis shakeup'
p875
sa(dp876
g2
S'http://www.reuters.com/article/2015/06/07/airlines-iata-american-idUSL5N0YT0VK20150607'
p877
sg4
S'20150608\xc2\xa02:27PM UTC'
p878
sg6
S'UPDATE 1-American Airlines CEO cites capacity growth risks'
p879
sa(dp880
g2
S'http://www.reuters.com/article/2015/06/07/g7-summit-japan-economy-idUSF9N0WW00920150607'
p881
sg4
S'20150608\xc2\xa02:25PM UTC'
p882
sg6
S'Japan economy returning to "growth orbit" - PM\'s spokesman'
p883
sa(dp884
g2
S'http://www.reuters.com/article/2015/06/07/deals-privateequity-ge-canadapension-urg-idUSL1N0YT0DZ20150607'
p885
sg4
S'20150608\xc2\xa02:19PM UTC'
p886
sg6
S"RPT-GE nears deal to sell private-equity lending unit to Canada's biggest pension fund - WSJ"
p887
sa(dp888
g2
S'http://www.reuters.com/article/2015/06/07/ny-republic-of-turkey-idUSnBw075049a+100+BSW20150607'
p889
sg4
S'20150608\xc2\xa02:10PM UTC'
p890
sg6
S'Republic of Turkey, Directorate General of Press & Information Together with\xc2\xa0Anadolu Agency Present\xc2\xa0Turkey Votes: What Does This Mean for the Middle East & the West?'
p891
sa(dp892
g2
S'http://www.reuters.com/article/2015/06/07/us-mexico-violence-idUSKBN0ON0R220150607'
p893
sg4
S'20150608\xc2\xa02:08PM UTC'
p894
sg6
S'Vigilante battle kills 13 near Mexican beach resort'
p895
sa(dp896
g2
S'http://www.reuters.com/article/2015/06/07/us-commodities-regulation-idUSKBN0ON0X120150607'
p897
sg4
S'20150608\xc2\xa02:04PM UTC'
p898
sg6
S'Mars joins BP and Shell in opposing European financial market regs: FT'
p899
sa(dp900
g2
S'http://www.reuters.com/article/2015/06/07/deals-privateequity-ge-canadapension-idUSL1N0YT0DI20150607'
p901
sg4
S'20150608\xc2\xa02:03PM UTC'
p902
sg6
S"GE nears deal to sell private-equity lending unit to Canada's biggest pension fund - WSJ"
p903
sa(dp904
g2
S'http://www.reuters.com/article/2015/06/07/deutschebank-ceo-jain-idUSL5N0YT0VD20150607'
p905
sg4
S'20150608\xc2\xa02:02PM UTC'
p906
sg6
S'RPT-NEWSMAKER-Jain puts Deutsche Bank on world stage but leaves it in limbo'
p907
sa(dp908
g2
S'http://www.reuters.com/article/2015/06/07/commodities-regulation-idUSL1N0YT0CI20150607'
p909
sg4
S'20150608\xc2\xa02:01PM UTC'
p910
sg6
S'Mars joins BP and Shell in opposing European financial market regs - FT'
p911
sa(dp912
g2
S'http://www.reuters.com/article/2015/06/07/hanmi-pharmaceutical-idUSnBw075009a+100+BSW20150607'
p913
sg4
S'20150608\xc2\xa02:00PM UTC'
p914
sg6
S'Hanmi Pharmaceutical : Once-Weekly Insulin Combination, \xe2\x80\x98LAPSInsulin Combo\xe2\x80\x99, Suggests a New Diabetes Therapeutic Option<128940.KS>'
p915
sa(dp916
g2
S'http://www.reuters.com/article/2015/06/07/britain-charts-idUSL5N0YT0NF20150607'
p917
sg4
S'20150608\xc2\xa02:00PM UTC'
p918
sg6
S'Florence and the Machine land third UK No.1 album'
p919
sa(dp920
g2
S'http://www.reuters.com/article/2015/06/07/us-turkey-election-mhp-idUSKBN0ON0WT20150607'
p921
sg4
S'20150608\xc2\xa01:56PM UTC'
p922
sg6
S"Turkey's nationalist MHP says too soon to consider coalition role"
p923
sa(dp924
g2
S'http://www.reuters.com/article/2015/06/07/deutschebank-ceo-resignation-idUSL5N0YT0VQ20150607'
p925
sg4
S'20150608\xc2\xa01:56PM UTC'
p926
sg6
S'UPDATE 7-Deutsche Bank appoints new CEO in latest post-crisis shakeup'
p927
sa(dp928
g2
S'http://www.reuters.com/article/2015/06/07/us-soccer-world-leroux-idUSKBN0ON0WK20150607'
p929
sg4
S'20150608\xc2\xa01:55PM UTC'
p930
sg6
S'Leroux prepared for stormy World Cup reception in Canada'
p931
sa(dp932
g2
S'http://www.reuters.com/article/2015/06/07/us-luxembourg-foreigners-idUSKBN0ON0PH20150607'
p933
sg4
S'20150608\xc2\xa01:55PM UTC'
p934
sg6
S'Luxembourg votes not to give foreigners national voting rights'
p935
sa(dp936
g2
S'http://www.reuters.com/article/2015/06/07/us-athletics-diamond-idUSKBN0ON0WE20150607'
p937
sg4
S'20150608\xc2\xa01:51PM UTC'
p938
sg6
S'Olympic champion Felix beaten on a photo finish in Birmingham'
p939
sa(dp940
g2
S'http://www.reuters.com/article/2015/06/07/us-tennis-open-men-statistics-factbox-idUSKBN0ON0W720150607'
p941
sg4
S'20150608\xc2\xa01:48PM UTC'
p942
sg6
S'Factbox: French Open final statistics'
p943
sa(dp944
g2
S'http://www.reuters.com/article/2015/06/07/us-tennis-open-wawrinka-factbox-idUSKBN0ON0VZ20150607'
p945
sg4
S'20150608\xc2\xa01:47PM UTC'
p946
sg6
S'Factbox: French Open champion Stanislas Wawrinka'
p947
sa(dp948
g2
S'http://www.reuters.com/article/2015/06/07/us-ukraine-crisis-g7-merkel-idUSKBN0ON0VV20150607'
p949
sg4
S'20150608\xc2\xa01:45PM UTC'
p950
sg6
S'Merkel says largely up to Russia whether EU sanctions eased'
p951
sa(dp952
g2
S'http://www.reuters.com/article/2015/06/07/airlines-iata-american-idUSL1N0YT0D320150607'
p953
sg4
S'20150608\xc2\xa01:43PM UTC'
p954
sg6
S'American Airlines CEO cites capacity growth risks'
p955
sa(dp956
g2
S'http://www.reuters.com/article/2015/06/07/israel-palestinians-rockets-idUSKBN0ON05F20150607'
p957
sg4
S'20150608\xc2\xa01:35PM UTC'
p958
sg6
S'Israeli aircraft strike, PM accuses world of ignoring Gaza rockets'
p959
sa(dp960
g2
S'http://www.reuters.com/article/2015/06/07/us-actelion-m-a-shire-idUSKBN0ON0VH20150607'
p961
sg4
S'20150608\xc2\xa01:34PM UTC'
p962
sg6
S'Shire considers takeover of Swiss biotech group Actelion: Sunday Times'
p963
sa(dp964
g2
S'http://www.reuters.com/article/2015/06/07/us-turkey-election-hdp-idUSKBN0ON0VB20150607'
p965
sg4
S'20150608\xc2\xa01:31PM UTC'
p966
sg6
S"Turkey's pro-Kurdish opposition says expects to win 80 parliament seats"
p967
sa(dp968
g2
S'http://www.reuters.com/article/2015/06/07/us-china-usa-investment-idUSKBN0ON0V520150607'
p969
sg4
S'20150608\xc2\xa01:29PM UTC'
p970
sg6
S'Souring China business climate risks U.S. investment treaty talks'
p971
sa(dp972
g2
S'http://www.reuters.com/article/2015/06/07/us-mideast-crisis-britain-idUSKBN0ON0RE20150607'
p973
sg4
S'20150608\xc2\xa01:25PM UTC'
p974
sg6
S'Britain to expand Iraq training mission to counter IS: Cameron'
p975
sa(dp976
g2
S'http://www.reuters.com/article/2015/06/07/us-mideast-crisis-airstrikes-idUSKBN0ON0UX20150607'
p977
sg4
S'20150608\xc2\xa01:25PM UTC'
p978
sg6
S'U.S. reports 22 air strikes against Islamic State in Syria and Iraq'
p979
sa(dp980
g2
S'http://www.reuters.com/article/2015/06/07/us-usa-election-iowa-idUSKBN0OM0YI20150607'
p981
sg4
S'20150608\xc2\xa01:23PM UTC'
p982
sg6
S'Republican Walker is leader of 2016 election pack in Iowa'
p983
sa(dp984
g2
S'http://www.reuters.com/article/2015/06/07/us-g7-summit-obama-cameron-idUSKBN0ON0UF20150607'
p985
sg4
S'20150608\xc2\xa01:15PM UTC'
p986
sg6
S'Obama: U.S. looks forward to Britain staying in the EU'
p987
sa(dp988
g2
S'http://www.reuters.com/article/2015/06/07/us-turkey-election-akp-idUSKBN0ON0UD20150607'
p989
sg4
S'20150608\xc2\xa01:13PM UTC'
p990
sg6
S'Turkish AKP official sees minority government, early election'
p991
sa(dp992
g2
S'http://www.reuters.com/article/2015/06/07/us-eurozone-greece-idUSKBN0ON0MZ20150607'
p993
sg4
S'20150608\xc2\xa01:11PM UTC'
p994
sg6
S'EU chief rebukes Greece, demands swift debt plan'
p995
sa(dp996
g2
S'http://www.reuters.com/article/2015/06/07/us-russia-iran-oil-idUSKBN0ON06O20150607'
p997
sg4
S'20150608\xc2\xa01:08PM UTC'
p998
sg6
S'Iran hopes to begin Russia oil-for-goods exports this week: report'
p999
sa(dp1000
g2
S'http://www.reuters.com/article/2015/06/07/bangladesh-india-modi-investment-idUSKBN0ON0TX20150607'
p1001
sg4
S'20150608\xc2\xa01:05PM UTC'
p1002
sg6
S'PM Modi promises support for Bangladeshi investment in Gujarat'
p1003
sa(dp1004
g2
S'http://www.reuters.com/article/2015/06/07/eurozone-greece-idUSL5N0YT0HP20150607'
p1005
sg4
S'20150608\xc2\xa01:05PM UTC'
p1006
sg6
S'WRAPUP 2-EU chief rebukes Greece, demands swift debt plan'
p1007
sa(dp1008
g2
S'http://www.reuters.com/article/2015/06/07/idUSnMKW3H13ta+1d0+MKW20150607'
p1009
sg4
S'20150608\xc2\xa01:05PM UTC'
p1010
sg6
S'As provincial funding for hospitals hits new low, hospital workers rally tomorrow in Hamilton against "closed-door" contract deals and service cuts'
p1011
sa(dp1012
g2
S'http://www.reuters.com/article/2015/06/07/us-israel-palestinians-rockets-idUSKBN0ON05820150607'
p1013
sg4
S'20150608\xc2\xa01:04PM UTC'
p1014
sg6
S'Israeli aircraft strike, PM accuses world of ignoring Gaza rockets'
p1015
sa(dp1016
g2
S'http://www.reuters.com/article/2015/06/07/us-deutschebank-cryan-strategy-idUSKBN0ON0U120150607'
p1017
sg4
S'20150608\xc2\xa01:03PM UTC'
p1018
sg6
S"Deutsche Bank's new CEO unlikely to force major strategy shift: source"
p1019
sa(dp1020
g2
S'http://www.reuters.com/article/2015/06/07/us-usa-boxoffice-idUSKBN0ON0PU20150607'
p1021
sg4
S'20150608\xc2\xa01:02PM UTC'
p1022
sg6
S"Box Office: 'Spy' Tops With $30 Million, 'Entourage' Cools Off"
p1023
sa(dp1024
g2
S'http://www.reuters.com/article/2015/06/07/motor-racing-walsh-ecclestone-idUSL3N0YT09E20150607'
p1025
sg4
S'20150608\xc2\xa01:01PM UTC'
p1026
sg6
S'Motor racing-Walsh was not offered F1 role, says Ecclestone'
p1027
sa(dp1028
g2
S'http://www.reuters.com/article/2015/06/07/bbo-whitesox-playerwatch-idUSMTZEB67L39QUN20150607'
p1029
sg4
S'20150608\xc2\xa01:01PM UTC'
p1030
sg6
S'Chicago White Sox - PlayerWatch'
p1031
sa(dp1032
g2
S'http://www.reuters.com/article/2015/06/07/bbo-redsox-playerwatch-idUSMTZEB67L39QUI20150607'
p1033
sg4
S'20150608\xc2\xa01:01PM UTC'
p1034
sg6
S'Boston Red Sox - PlayerWatch'
p1035
sa(dp1036
g2
S'http://www.reuters.com/article/2015/06/07/bbo-pirates-playerwatch-idUSMTZEB67L39QUG20150607'
p1037
sg4
S'20150608\xc2\xa01:01PM UTC'
p1038
sg6
S'Pittsburgh Pirates - PlayerWatch'
p1039
sa(dp1040
g2
S'http://www.reuters.com/article/2015/06/07/bbo-royals-playerwatch-idUSMTZEB67L39QUM20150607'
p1041
sg4
S'20150608\xc2\xa01:01PM UTC'
p1042
sg6
S'Kansas City Royals - PlayerWatch'
p1043
sa(dp1044
g2
S'http://www.reuters.com/article/2015/06/07/bbo-padres-playerwatch-idUSMTZEB67L39QUF20150607'
p1045
sg4
S'20150608\xc2\xa01:01PM UTC'
p1046
sg6
S'San Diego Padres - PlayerWatch'
p1047
sa(dp1048
g2
S'http://www.reuters.com/article/2015/06/07/bbo-rays-playerwatch-idUSMTZEB67L39QUL20150607'
p1049
sg4
S'20150608\xc2\xa01:01PM UTC'
p1050
sg6
S'Tampa Bay Rays - PlayerWatch'
p1051
sa(dp1052
g2
S'http://www.reuters.com/article/2015/06/07/bbo-rockies-playerwatch-idUSMTZEB67L39QUE20150607'
p1053
sg4
S'20150608\xc2\xa01:01PM UTC'
p1054
sg6
S'Colorado Rockies - PlayerWatch'
p1055
sa(dp1056
g2
S'http://www.reuters.com/article/2015/06/07/bbo-orioles-playerwatch-idUSMTZEB67L39QUK20150607'
p1057
sg4
S'20150608\xc2\xa01:01PM UTC'
p1058
sg6
S'Baltimore Orioles - PlayerWatch'
p1059
sa(dp1060
g2
S'http://www.reuters.com/article/2015/06/07/bbo-yankees-playerwatch-idUSMTZEB67L39QUD20150607'
p1061
sg4
S'20150608\xc2\xa01:01PM UTC'
p1062
sg6
S'New York Yankees - PlayerWatch'
p1063
sa(dp1064
g2
S'http://www.reuters.com/article/2015/06/07/bbo-dodgers-playerwatch-idUSMTZEB67L39PUC20150607'
p1065
sg4
S'20150608\xc2\xa01:01PM UTC'
p1066
sg6
S'Los Angeles Dodgers - PlayerWatch'
p1067
sa(dp1068
g2
S'http://www.reuters.com/article/2015/06/07/bbo-bluejays-playerwatch-idUSMTZEB67L39QUJ20150607'
p1069
sg4
S'20150608\xc2\xa01:01PM UTC'
p1070
sg6
S'Toronto Blue Jays - PlayerWatch'
p1071
sa(dp1072
g2
S'http://www.reuters.com/article/2015/06/07/bbo-tigers-playerwatch-idUSMTZEB67L39PTW20150607'
p1073
sg4
S'20150608\xc2\xa01:01PM UTC'
p1074
sg6
S'Detroit Tigers - PlayerWatch'
p1075
sa(dp1076
g2
S'http://www.reuters.com/article/2015/06/07/bbo-cardinals-playerwatch-idUSMTZEB67L39PU620150607'
p1077
sg4
S'20150608\xc2\xa01:01PM UTC'
p1078
sg6
S'St. Louis Cardinals - PlayerWatch'
p1079
sa(dp1080
g2
S'http://www.reuters.com/article/2015/06/07/bbo-indians-playerwatch-idUSMTZEB67L39PTV20150607'
p1081
sg4
S'20150608\xc2\xa01:01PM UTC'
p1082
sg6
S'Cleveland Indians - PlayerWatch'
p1083
sa(dp1084
g2
S'http://www.reuters.com/article/2015/06/07/bbo-astros-playerwatch-idUSMTZEB67L39PU520150607'
p1085
sg4
S'20150608\xc2\xa01:01PM UTC'
p1086
sg6
S'Houston Astros - PlayerWatch'
p1087
sa(dp1088
g2
S'http://www.reuters.com/article/2015/06/07/bbo-twins-playerwatch-idUSMTZEB67L39PTU20150607'
p1089
sg4
S'20150608\xc2\xa01:01PM UTC'
p1090
sg6
S'Minnesota Twins - PlayerWatch'
p1091
sa(dp1092
g2
S'http://www.reuters.com/article/2015/06/07/bbo-mets-playerwatch-idUSMTZEB67L39PU420150607'
p1093
sg4
S'20150608\xc2\xa01:01PM UTC'
p1094
sg6
S'New York Mets - PlayerWatch'
p1095
sa(dp1096
g2
S'http://www.reuters.com/article/2015/06/07/bbo-marlins-playerwatch-idUSMTZEB67L39PU320150607'
p1097
sg4
S'20150608\xc2\xa01:01PM UTC'
p1098
sg6
S'Miami Marlins - PlayerWatch'
p1099
sa(dp1100
g2
S'http://www.reuters.com/article/2015/06/07/bbo-phillies-playerwatch-idUSMTZEB67L39PU220150607'
p1101
sg4
S'20150608\xc2\xa01:01PM UTC'
p1102
sg6
S'Philadelphia Phillies - PlayerWatch'
p1103
sa(dp1104
g2
S'http://www.reuters.com/article/2015/06/07/bbo-braves-playerwatch-idUSMTZEB67L39PU120150607'
p1105
sg4
S'20150608\xc2\xa01:01PM UTC'
p1106
sg6
S'Atlanta Braves - PlayerWatch'
p1107
sa(dp1108
g2
S'http://www.reuters.com/article/2015/06/07/bbo-diamondbacks-playerwatch-idUSMTZEB67L39PUB20150607'
p1109
sg4
S'20150608\xc2\xa01:01PM UTC'
p1110
sg6
S'Arizona Diamondbacks - PlayerWatch'
p1111
sa(dp1112
g2
S'http://www.reuters.com/article/2015/06/07/bbo-rangers-playerwatch-idUSMTZEB67L39PU020150607'
p1113
sg4
S'20150608\xc2\xa01:01PM UTC'
p1114
sg6
S'Texas Rangers - PlayerWatch'
p1115
sa(dp1116
g2
S'http://www.reuters.com/article/2015/06/07/bbo-giants-playerwatch-idUSMTZEB67L39PUA20150607'
p1117
sg4
S'20150608\xc2\xa01:01PM UTC'
p1118
sg6
S'San Francisco Giants - PlayerWatch'
p1119
sa(dp1120
g2
S'http://www.reuters.com/article/2015/06/07/bbo-angels-playerwatch-idUSMTZEB67L39PTZ20150607'
p1121
sg4
S'20150608\xc2\xa01:01PM UTC'
p1122
sg6
S'Los Angeles Angels - PlayerWatch'
p1123
sa(dp1124
g2
S'http://www.reuters.com/article/2015/06/07/bbo-brewers-playerwatch-idUSMTZEB67L39PU920150607'
p1125
sg4
S'20150608\xc2\xa01:01PM UTC'
p1126
sg6
S'Milwaukee Brewers - PlayerWatch'
p1127
sa(dp1128
g2
S'http://www.reuters.com/article/2015/06/07/bbo-athletics-playerwatch-idUSMTZEB67L39PTY20150607'
p1129
sg4
S'20150608\xc2\xa01:01PM UTC'
p1130
sg6
S'Oakland Athletics - PlayerWatch'
p1131
sa(dp1132
g2
S'http://www.reuters.com/article/2015/06/07/bbo-reds-playerwatch-idUSMTZEB67L39PU820150607'
p1133
sg4
S'20150608\xc2\xa01:01PM UTC'
p1134
sg6
S'Cincinnati Reds - PlayerWatch'
p1135
sa(dp1136
g2
S'http://www.reuters.com/article/2015/06/07/bbo-mariners-playerwatch-idUSMTZEB67L39PTX20150607'
p1137
sg4
S'20150608\xc2\xa01:01PM UTC'
p1138
sg6
S'Seattle Mariners - PlayerWatch'
p1139
sa(dp1140
g2
S'http://www.reuters.com/article/2015/06/07/bbo-cubs-playerwatch-idUSMTZEB67L39PU720150607'
p1141
sg4
S'20150608\xc2\xa01:01PM UTC'
p1142
sg6
S'Chicago Cubs - PlayerWatch'
p1143
sa(dp1144
g2
S'http://www.reuters.com/article/2015/06/07/idUSnMKWnhMJfa+1cc+MKW20150607'
p1145
sg4
S'20150608\xc2\xa01:00PM UTC'
p1146
sg6
S"Government of Canada Strengthens Western Canada's Media Industry"
p1147
sa(dp1148
g2
S'http://www.reuters.com/article/2015/06/07/deutschebank-ceo-jain-idUSL5N0YT0Q920150607'
p1149
sg4
S'20150608\xc2\xa01:00PM UTC'
p1150
sg6
S'NEWSMAKER-Jain puts Deutsche Bank on world stage but leaves it in limbo'
p1151
sa(dp1152
g2
S'http://www.reuters.com/article/2015/06/07/bangladesh-india-modi-idUSL3N0YT08T20150607'
p1153
sg4
S'20150608\xc2\xa012:56PM UTC'
p1154
sg6
S"India's Modi promises support for Bangladeshi investment in Gujarat"
p1155
sa(dp1156
g2
S'http://www.reuters.com/article/2015/06/07/usa-boxoffice-idUSL1N0YT0CA20150607'
p1157
sg4
S'20150608\xc2\xa012:54PM UTC'
p1158
sg6
S"UPDATE 1-Box Office: 'Spy' Tops With $30 Million, 'Entourage' Cools Off"
p1159
sa(dp1160
g2
S'http://www.reuters.com/article/2015/06/07/russia-iran-oil-idUSL5N0YT03D20150607'
p1161
sg4
S'20150608\xc2\xa012:53PM UTC'
p1162
sg6
S'CORRECTED-Iran hopes to begin Russia oil-for-goods exports this week -report'
p1163
sa(dp1164
g2
S'http://www.reuters.com/article/2015/06/07/deutschebank-cryan-strategy-idUSL5N0YT0OT20150607'
p1165
sg4
S'20150608\xc2\xa012:45PM UTC'
p1166
sg6
S"Deutsche Bank's new CEO unlikely to force major strategy shift -source"
p1167
sa(dp1168
g2
S'http://www.reuters.com/article/2015/06/07/us-airbus-a400m-idUSKBN0ON0SY20150607'
p1169
sg4
S'20150608\xc2\xa012:44PM UTC'
p1170
sg6
S'Airbus says hopes to resume A400M pre-delivery test flights soon'
p1171
sa(dp1172
g2
S'http://www.reuters.com/article/2015/06/07/cybersecurity-usa-idUSL1N0YT0AH20150607'
p1173
sg4
S'20150608\xc2\xa012:37PM UTC'
p1174
sg6
S'U.S. lawmaker blames China for cyber attack against U.S. government'
p1175
sa(dp1176
g2
S'http://www.reuters.com/article/2015/06/07/slovenia-telekom-idUSL5N0YT0PZ20150607'
p1177
sg4
S'20150608\xc2\xa012:36PM UTC'
p1178
sg6
S'UPDATE 1-Slovenian PM says expects state firm SDH to approve Telekom sale'
p1179
sa(dp1180
g2
S'http://www.reuters.com/article/2015/06/07/brazil-investment-idUSL5N0YT0PM20150607'
p1181
sg4
S'20150608\xc2\xa012:28PM UTC'
p1182
sg6
S'Top investor Stuhlberger predicts new Brazilian lost decade'
p1183
sa(dp1184
g2
S'http://www.reuters.com/article/2015/06/07/us-israel-gaza-whitehouse-idUSKBN0ON0RZ20150607'
p1185
sg4
S'20150608\xc2\xa012:20PM UTC'
p1186
sg6
S'White House backs Israel over air strike on Gaza'
p1187
sa(dp1188
g2
S'http://www.reuters.com/article/2015/06/07/us-eurozone-greece-debt-idUSKBN0ON0QW20150607'
p1189
sg4
S'20150608\xc2\xa012:18PM UTC'
p1190
sg6
S'Greek bid for debt relief faces euro zone skepticism '
p1191
sa(dp1192
g2
S'http://www.reuters.com/article/2015/06/07/us-g7-summit-greece-usa-idUSKBN0ON0RS20150607'
p1193
sg4
S'20150608\xc2\xa012:17PM UTC'
p1194
sg6
S'Obama and Merkel agree Greece must reform, White House says '
p1195
sa(dp1196
g2
S'http://www.reuters.com/article/2015/06/07/g7-summit-greece-usa-idUSB4N0VQ00620150607'
p1197
sg4
S'20150608\xc2\xa012:14PM UTC'
p1198
sg6
S'Obama and Merkel agree Greece must reform, White House says'
p1199
sa(dp1200
g2
S'http://www.reuters.com/article/2015/06/07/us-golf-pga-woods-idUSKBN0ON0RI20150607'
p1201
sg4
S'20150608\xc2\xa012:13PM UTC'
p1202
sg6
S'Tiger still bad, but better'
p1203
sa(dp1204
g2
S'http://www.reuters.com/article/2015/06/07/airbus-a400m-idUSL5N0YT0OQ20150607'
p1205
sg4
S'20150608\xc2\xa012:07PM UTC'
p1206
sg6
S'Airbus says hopes to resume A400M pre-delivery test flights soon'
p1207
sa(dp1208
g2
S'http://www.reuters.com/article/2015/06/07/slovenia-telekom-idUSL5N0YT0Q720150607'
p1209
sg4
S'20150608\xc2\xa012:01PM UTC'
p1210
sg6
S'Slovenian PM Cerar expects Telekom Slovenia to be sold'
p1211
sa(dp1212
g2
S'http://www.reuters.com/article/2015/06/07/ca-homeadvisor-apple-idUSnPn6QDKr2+9c+PRN20150607'
p1213
sg4
S'20150608\xc2\xa012:00PM UTC'
p1214
sg6
S'HomeAdvisor Announces First Apple Watch App for Digital Home Services Market'
p1215
sa(dp1216
g2
S'http://www.reuters.com/article/2015/06/07/awards-tony-idUSL1N0YP2S820150607'
p1217
sg4
S'20150608\xc2\xa012:00PM UTC'
p1218
sg6
S'And the winner is ... Tony Awards honor finest in theater'
p1219
sa(dp1220
g2
S'http://www.reuters.com/article/2015/06/07/slovenia-telekom-idUSL5N0YT0PH20150607'
p1221
sg4
S'20150608\xc2\xa011:49AM UTC'
p1222
sg6
S'Slovenian PM says state firm SDH to decide on Telekom sale'
p1223
sa(dp1224
g2
S'http://www.reuters.com/article/2015/06/07/egypt-bonds-idUSL5N0YT04620150607'
p1225
sg4
S'20150608\xc2\xa011:48AM UTC'
p1226
sg6
S"MIDEAST DEBT-Egypt's comeback bond should pave way for future deals"
p1227
sa(dp1228
g2
S'http://www.reuters.com/article/2015/06/07/eurozone-greece-debt-idUSL5N0YR2J520150607'
p1229
sg4
S'20150608\xc2\xa011:45AM UTC'
p1230
sg6
S'Greek bid for debt relief faces euro zone scepticism'
p1231
sa(dp1232
g2
S'http://www.reuters.com/article/2015/06/07/us-golf-european-idUSKBN0ON0QS20150607'
p1233
sg4
S'20150608\xc2\xa011:45AM UTC'
p1234
sg6
S'Swede Noren seals Scandinavian Masters title'
p1235
sa(dp1236
g2
S'http://www.reuters.com/article/2015/06/07/us-algeria-security-idUSKBN0ON0QL20150607'
p1237
sg4
S'20150608\xc2\xa011:42AM UTC'
p1238
sg6
S"Al Qaeda's North African wing claims two Algerian attacks"
p1239
sa(dp1240
g2
S'http://www.reuters.com/article/2015/06/07/us-syria-crisis-israel-golan-idUSKBN0ON0QE20150607'
p1241
sg4
S'20150608\xc2\xa011:40AM UTC'
p1242
sg6
S"Netanyahu ally urges world to accept Israel's hold on Golan"
p1243
sa(dp1244
g2
S'http://www.reuters.com/article/2015/06/07/usa-boxoffice-idUSL1N0YT0AL20150607'
p1245
sg4
S'20150608\xc2\xa011:31AM UTC'
p1246
sg6
S"Box Office: 'Spy' Tops With $30 Million, 'Entourage' Cools Off"
p1247
sa(dp1248
g2
S'http://www.reuters.com/article/2015/06/07/us-usa-baseball-boston-idUSKBN0ON0PD20150607'
p1249
sg4
S'20150608\xc2\xa011:17AM UTC'
p1250
sg6
S'Woman struck by baseball bat at Red Sox game in serious condition'
p1251
sa(dp1252
g2
S'http://www.reuters.com/article/2015/06/07/us-eurozone-greece-negotiations-idUSKBN0ON0LN20150607'
p1253
sg4
S'20150608\xc2\xa011:16AM UTC'
p1254
sg6
S'Greece says wants to keep seeking common ground with lenders'
p1255
sa(dp1256
g2
S'http://www.reuters.com/article/2015/06/07/us-eurozone-greece-varoufakis-idUSKBN0ON0LG20150607'
p1257
sg4
S'20150608\xc2\xa011:16AM UTC'
p1258
sg6
S"Greece needs 'Speech of Hope' from German leader: Varoufakis"
p1259
sa(dp1260
g2
S'http://www.reuters.com/article/2015/06/07/games-sea-schooling-idUSL3N0YT08X20150607'
p1261
sg4
S'20150608\xc2\xa011:11AM UTC'
p1262
sg6
S'Games-Schooling too classy for rivals at SEA Games'
p1263
sa(dp1264
g2
S'http://www.reuters.com/article/2015/06/07/eurozone-greece-varoufakis-idUSL5N0YT0N920150607'
p1265
sg4
S'20150608\xc2\xa011:08AM UTC'
p1266
sg6
S'UPDATE 1-Greece needs "Speech of Hope" from German leader - Varoufakis'
p1267
sa(dp1268
g2
S'http://www.reuters.com/article/2015/06/07/sahara-grosvenor-sale-reubens-subrataroy-idUSKBN0ON0OZ20150607'
p1269
sg4
S'20150608\xc2\xa011:06AM UTC'
p1270
sg6
S'Sahara says avoids forced sale of Grosvenor House '
p1271
sa(dp1272
g2
S'http://www.reuters.com/article/2015/06/07/ca-childrens-hospital-la-idUSnBw075041a+100+BSW20150607'
p1273
sg4
S'20150608\xc2\xa011:00AM UTC'
p1274
sg6
S'Children\xe2\x80\x99s Hospital Los Angeles to Hold Press Conference to Discuss CHLA Surgical Team\xe2\x80\x99s Role in Separation of Conjoined Twins in Haiti'
p1275
sa(dp1276
g2
S'http://www.reuters.com/article/2015/06/07/us-health-mers-southkorea-budget-idUSKBN0ON03420150607'
p1277
sg4
S'20150608\xc2\xa010:58AM UTC'
p1278
sg6
S'South Korea sees no extra budget for economy after MERS outbreak'
p1279
sa(dp1280
g2
S'http://www.reuters.com/article/2015/06/07/us-health-mers-southkorea-idUSKBN0OM0YG20150607'
p1281
sg4
S'20150608\xc2\xa010:58AM UTC'
p1282
sg6
S'South Korea to track cellphones to prevent MERS spread; fifth person dies'
p1283
sa(dp1284
g2
S'http://www.reuters.com/article/2015/06/07/india-sahara-sale-idUSL3N0YT08C20150607'
p1285
sg4
S'20150608\xc2\xa010:58AM UTC'
p1286
sg6
S"India's Sahara group says avoids forced sale of Grosvenor House"
p1287
sa(dp1288
g2
S'http://www.reuters.com/article/2015/06/07/storm-blanca-mexico-idUSL1N0YT09S20150607'
p1289
sg4
S'20150608\xc2\xa010:48AM UTC'
p1290
sg6
S"Hurricane Blanca downgraded as it nears Mexico's Baja California"
p1291
sa(dp1292
g2
S'http://www.reuters.com/article/2015/06/07/us-motor-racing-prix-button-idUSKBN0ON0NY20150607'
p1293
sg4
S'20150608\xc2\xa010:45AM UTC'
p1294
sg6
S'Drive through penalty for Button'
p1295
sa(dp1296
g2
S'http://www.reuters.com/article/2015/06/07/us-soccer-fifa-worldcup-idUSKBN0ON0IP20150607'
p1297
sg4
S'20150608\xc2\xa010:42AM UTC'
p1298
sg6
S'Russia, Qatar might lose their World Cups: paper'
p1299
sa(dp1300
g2
S'http://www.reuters.com/article/2015/06/07/safrica-mining-labour-idUSL5N0YT0H020150607'
p1301
sg4
S'20150608\xc2\xa010:41AM UTC'
p1302
sg6
S'UPDATE 2-S.African mining union threatens strike over extension of wage deal'
p1303
sa(dp1304
g2
S'http://www.reuters.com/article/2015/06/07/yemen-security-idUSKBN0ON0AL20150607'
p1305
sg4
S'20150608\xc2\xa010:40AM UTC'
p1306
sg6
S'Saudi-led air strikes kill 44 in attack on Yemeni army HQ - agency'
p1307
sa(dp1308
g2
S'http://www.reuters.com/article/2015/06/07/health-mers-southkorea-idUSKBN0ON02D20150607'
p1309
sg4
S'20150608\xc2\xa010:37AM UTC'
p1310
sg6
S'S.Korea to track cellphones to prevent MERS spread; 5th person dies'
p1311
sa(dp1312
g2
S'http://www.reuters.com/article/2015/06/07/adidasoutdoor-rower-idUSnPn1XQ13z+98+PRN20150607'
p1313
sg4
S'20150608\xc2\xa010:36AM UTC'
p1314
sg6
S'adidas Outdoor Athlete Sonya Baumstein Begins Attempt To Become First Female To Solo Row Nonstop Across Pacific Ocean'
p1315
sa(dp1316
g2
S'http://www.reuters.com/article/2015/06/07/us-g7-summit-obama-lederhosen-idUSKBN0ON0IF20150607'
p1317
sg4
S'20150608\xc2\xa010:35AM UTC'
p1318
sg6
S'Obama jokes, swigs beer with Bavarians at start of G7 trip'
p1319
sa(dp1320
g2
S'http://www.reuters.com/article/2015/06/07/ca-aimmune-therapeutics-idUSnBw075045a+100+BSW20150607'
p1321
sg4
S'20150608\xc2\xa010:07AM UTC'
p1322
sg6
S'Aimmune Therapeutics Announces Positive Phase 2 Study Results of AR101 for the Treatment of Peanut Allergy'
p1323
sa(dp1324
g2
S'http://www.reuters.com/article/2015/06/07/nigeria-bonds-index-idUSL5N0YT0GS20150607'
p1325
sg4
S'20150608\xc2\xa010:06AM UTC'
p1326
sg6
S'JPMorgan says may eject Nigeria from key bond index by year-end'
p1327
sa(dp1328
g2
S'http://www.reuters.com/article/2015/06/07/china-usa-investment-idUSL3N0YT08D20150607'
p1329
sg4
S'20150608\xc2\xa010:03AM UTC'
p1330
sg6
S'Souring China business climate risks U.S. investment treaty talks'
p1331
sa(dp1332
g2
S'http://www.reuters.com/article/2015/06/07/idUSnGNX8WnH9B+1d5+GNW20150607'
p1333
sg4
S'20150608\xc2\xa010:01AM UTC'
p1334
sg6
S'Alta Rancho Pet & Bird Hospital Introduces Cold Laser Therapy to Practice'
p1335
sa(dp1336
g2
S'http://www.reuters.com/article/2015/06/07/idUSnGNX7GzbpX+1d1+GNW20150607'
p1337
sg4
S'20150608\xc2\xa010:01AM UTC'
p1338
sg6
S'Solomons Veterinary Medical Center Announces Extended Weekend Hours and Emergency Pet Care'
p1339
sa(dp1340
g2
S'http://www.reuters.com/article/2015/06/07/idUSnGNX36cnhM+1c1+GNW20150607'
p1341
sg4
S'20150608\xc2\xa010:01AM UTC'
p1342
sg6
S'Cross Creek Animal Medical Centre Seeks to Spread the Word About Flea and Tick Season'
p1343
sa(dp1344
g2
S'http://www.reuters.com/article/2015/06/07/idUSnGNX1w5YgL+1c5+GNW20150607'
p1345
sg4
S'20150608\xc2\xa010:01AM UTC'
p1346
sg6
S'Lake Worth Chiropractic & Wellness Celebrates "Men\'s Health Month" With Focus on Wellness, Disease Prevention'
p1347
sa(dp1348
g2
S'http://www.reuters.com/article/2015/06/07/us-usa-japan-missiledefense-idUSKBN0ON0M520150607'
p1349
sg4
S'20150608\xc2\xa010:01AM UTC'
p1350
sg6
S"U.S., Japan say first test of Raytheon's new SM-3 missile a success"
p1351
sa(dp1352
g2
S'http://www.reuters.com/article/2015/06/07/idUSnMKW5jxH8a+1c4+MKW20150607'
p1353
sg4
S'20150608\xc2\xa010:00AM UTC'
p1354
sg6
S"World Ocean's Day"
p1355
sa(dp1356
g2
S'http://www.reuters.com/article/2015/06/07/idUSnGNX49q70l+1c0+GNW20150607'
p1357
sg4
S'20150608\xc2\xa010:00AM UTC'
p1358
sg6
S'Century Veterinary Group Shows Customer Appreciation With Rewards Program'
p1359
sa(dp1360
g2
S'http://www.reuters.com/article/2015/06/07/idUSnGNX5Jbhzy+1d0+GNW20150607'
p1361
sg4
S'20150608\xc2\xa010:00AM UTC'
p1362
sg6
S"Doctor's Weight Loss Solution Set to Revolutionize Weight Loss at Advanced Physical Medicine of Yorkville"
p1363
sa(dp1364
g2
S'http://www.reuters.com/article/2015/06/07/idUSnGNX3csm1t+1c0+GNW20150607'
p1365
sg4
S'20150608\xc2\xa010:00AM UTC'
p1366
sg6
S'Back and Neck Care Chiropractic Announces Complementary Massages for Community Outreach Program'
p1367
sa(dp1368
g2
S'http://www.reuters.com/article/2015/06/07/idUSnGNX6zlFxW+1c5+GNW20150607'
p1369
sg4
S'20150608\xc2\xa010:00AM UTC'
p1370
sg6
S"June is Men's Health Month and Advanced Chiropractic Wellness Wants to Get the Word Out"
p1371
sa(dp1372
g2
S'http://www.reuters.com/article/2015/06/07/idUSnGNX5DczL3+1d2+GNW20150607'
p1373
sg4
S'20150608\xc2\xa010:00AM UTC'
p1374
sg6
S'New Pain Management Book From Dr. Brian Dower, Chiropractor, Hits Amazon Bestseller List'
p1375
sa(dp1376
g2
S'http://www.reuters.com/article/2015/06/07/idUSnGNX4Mq2DC+1d3+GNW20150607'
p1377
sg4
S'20150608\xc2\xa010:00AM UTC'
p1378
sg6
S'Oakland Park Animal Hospital Announces Hurricane Preparedness Tips for Pets'
p1379
sa(dp1380
g2
S'http://www.reuters.com/article/2015/06/07/idUSnGNX7Pdjrx+1d0+GNW20150607'
p1381
sg4
S'20150608\xc2\xa010:00AM UTC'
p1382
sg6
S'White Oaks Veterinary Clinic Urges Pet Owners to Take Storm Safety for Pets Seriously'
p1383
sa(dp1384
g2
S'http://www.reuters.com/article/2015/06/07/idUSnGNX18SBQm+1ce+GNW20150607'
p1385
sg4
S'20150608\xc2\xa010:00AM UTC'
p1386
sg6
S'Obesity Linked to Increased Risk for Pancreatitis in Cats, Reports a Cat Hospital'
p1387
sa(dp1388
g2
S'http://www.reuters.com/article/2015/06/07/idUSnGNX4Kql1F+1d1+GNW20150607'
p1389
sg4
S'20150608\xc2\xa010:00AM UTC'
p1390
sg6
S'Rutherford Clinic of Chiropractic Announces New Approach to Treating Allergies'
p1391
sa(dp1392
g2
S'http://www.reuters.com/article/2015/06/07/idUSnGNX1cVV2S+1cd+GNW20150607'
p1393
sg4
S'20150608\xc2\xa010:00AM UTC'
p1394
sg6
S'Spring Allergy Relief Available Now at Lynch Chiropractic Center'
p1395
sa(dp1396
g2
S'http://www.reuters.com/article/2015/06/07/idUSnGNX64cJcT+1c5+GNW20150607'
p1397
sg4
S'20150608\xc2\xa010:00AM UTC'
p1398
sg6
S'Freedman Chiropractic Center, LLC Raises Awareness of Good Health and Peak Performance Thanks to Chiropractic Care in the 2015 Masters Tournament'
p1399
sa(dp1400
g2
S'http://www.reuters.com/article/2015/06/07/idUSnGNXbpV0DH+1cb+GNW20150607'
p1401
sg4
S'20150608\xc2\xa010:00AM UTC'
p1402
sg6
S'Native Daughter "Comes Home" to Join Durham Veterinary Practice'
p1403
sa(dp1404
g2
S'http://www.reuters.com/article/2015/06/07/idUSnGNX4HMV27+1dc+GNW20150607'
p1405
sg4
S'20150608\xc2\xa010:00AM UTC'
p1406
sg6
S'New Massage Therapist Joins Raveling Chiropractic Center P.A.'
p1407
sa(dp1408
g2
S'http://www.reuters.com/article/2015/06/07/idUSnGNX3zPy6B+1c9+GNW20150607'
p1409
sg4
S'20150608\xc2\xa010:00AM UTC'
p1410
sg6
S'Premier Family Chiropractic Announces Chiropractic Headache Treatment'
p1411
sa(dp1412
g2
S'http://www.reuters.com/article/2015/06/07/idUSnCCN2BL6Q6+1da+MKW20150607'
p1413
sg4
S'20150608\xc2\xa010:00AM UTC'
p1414
sg6
S"World Ocean's Day"
p1415
sa(dp1416
g2
S'http://www.reuters.com/article/2015/06/07/us-tennis-open-women-doubles-idUSKBN0ON0LR20150607'
p1417
sg4
S'20150608\xc2\xa09:54AM UTC'
p1418
sg6
S'Safarova teams up with Mattek-Sands to win doubles'
p1419
sa(dp1420
g2
S'http://www.reuters.com/article/2015/06/07/health-mers-southkorea-idUSL3N0YS0AU20150607'
p1421
sg4
S'20150608\xc2\xa09:51AM UTC'
p1422
sg6
S'UPDATE 4-S.Korea to track cellphones to prevent MERS spread; 5th person dies'
p1423
sa(dp1424
g2
S'http://www.reuters.com/article/2015/06/07/eurozone-greece-negotiations-idUSR1N0QW02520150607'
p1425
sg4
S'20150608\xc2\xa09:45AM UTC'
p1426
sg6
S'Greece says wants to keep seeking common ground with lenders'
p1427
sa(dp1428
g2
S'http://www.reuters.com/article/2015/06/07/usa-japan-missiledefense-idUSL1N0YT08K20150607'
p1429
sg4
S'20150608\xc2\xa09:35AM UTC'
p1430
sg6
S"US, Japan say first test of Raytheon's new SM-3 missile a success"
p1431
sa(dp1432
g2
S'http://www.reuters.com/article/2015/06/07/actelion-ma-shire-idUSL5N0YT0HL20150607'
p1433
sg4
S'20150608\xc2\xa09:22AM UTC'
p1434
sg6
S'UPDATE 1-Shire considers takeover of Swiss biotech group Actelion -Sunday Times'
p1435
sa(dp1436
g2
S'http://www.reuters.com/article/2015/06/07/mideast-markets-wrap-idUSL5N0YT0CY20150607'
p1437
sg4
S'20150608\xc2\xa09:21AM UTC'
p1438
sg6
S'MIDEAST STOCKS-Gulf markets fall as OPEC maintains output, Yemen fighting escalates'
p1439
sa(dp1440
g2
S'http://www.reuters.com/article/2015/06/07/deutschebank-ceo-urgent-idUSFWN0YT00020150607'
p1441
sg4
S'20150608\xc2\xa09:17AM UTC'
p1442
sg6
S'Deutsche Bank says John Cryan to become co-CEO of Deutsche Bank July 1, 2015'
p1443
sa(dp1444
g2
S'http://www.reuters.com/article/2015/06/07/eurozone-greece-varoufakis-idUSL5N0YT0FJ20150607'
p1445
sg4
S'20150608\xc2\xa09:16AM UTC'
p1446
sg6
S'Greece needs "Speech of Hope" from German leader - Varoufakis'
p1447
sa(dp1448
g2
S'http://www.reuters.com/article/2015/06/07/us-tennis-open-ysern-idUSKBN0ON0KJ20150607'
p1449
sg4
S'20150608\xc2\xa09:10AM UTC'
p1450
sg6
S'French Open crowds must be educated'
p1451
sa(dp1452
g2
S'http://www.reuters.com/article/2015/06/07/idUSnMKWYtq5ra+1e0+MKW20150607'
p1453
sg4
S'20150608\xc2\xa09:00AM UTC'
p1454
sg6
S'Top Canadian Equestrian Athletes Ride Into Final Event Before Toronto 2015 Games'
p1455
sa(dp1456
g2
S'http://www.reuters.com/article/2015/06/07/idUSnMKWb4Wc8a+1c8+MKW20150607'
p1457
sg4
S'20150608\xc2\xa09:00AM UTC'
p1458
sg6
S'The loss of a child - persevering from tragedy to hope'
p1459
sa(dp1460
g2
S'http://www.reuters.com/article/2015/06/07/britain-banks-idUSL5N0YT0G920150607'
p1461
sg4
S'20150608\xc2\xa08:56AM UTC'
p1462
sg6
S'Britain prepares to review bank tax to stop potential exodus -report'
p1463
sa(dp1464
g2
S'http://www.reuters.com/article/2015/06/07/idUSnGNX36LSr+e6+GNW20150607'
p1465
sg4
S'20150608\xc2\xa08:30AM UTC'
p1466
sg6
S'PhaseBio Pharmaceuticals Announces Positive Data for Type 2 Diabetes Treatments PE0139 and PB1023'
p1467
sa(dp1468
g2
S'http://www.reuters.com/article/2015/06/07/us-libya-security-idUSKBN0ON0J520150607'
p1469
sg4
S'20150608\xc2\xa08:22AM UTC'
p1470
sg6
S'Islamic State kills three Libyan soldiers: state agency'
p1471
sa(dp1472
g2
S'http://www.reuters.com/article/2015/06/07/us-nigeria-insurgency-idUSKBN0ON0FQ20150607'
p1473
sg4
S'20150608\xc2\xa08:21AM UTC'
p1474
sg6
S"Bomb blast hits market in Nigeria's Borno State, 16 dead"
p1475
sa(dp1476
g2
S'http://www.reuters.com/article/2015/06/07/algeria-corruption-idUSL5N0YT0C720150607'
p1477
sg4
S'20150608\xc2\xa08:20AM UTC'
p1478
sg6
S'Algeria arrests importers, bank officials in graft crackdown - state radio'
p1479
sa(dp1480
g2
S'http://www.reuters.com/article/2015/06/07/us-mideast-crisis-idUSKBN0ON0AX20150607'
p1481
sg4
S'20150608\xc2\xa08:07AM UTC'
p1482
sg6
S'Syrian army regains ground against Islamic State in Hasaka city'
p1483
sa(dp1484
g2
S'http://www.reuters.com/article/2015/06/07/actelion-ma-shire-idUSL5N0YT0B920150607'
p1485
sg4
S'20150608\xc2\xa08:03AM UTC'
p1486
sg6
S'Shire considers takeover of Swiss biotech group Actelion- Sunday Times'
p1487
sa(dp1488
g2
S'http://www.reuters.com/article/2015/06/07/ukraine-crisis-cameron-idUSL5N0YT0CN20150607'
p1489
sg4
S'20150608\xc2\xa08:02AM UTC'
p1490
sg6
S"UPDATE 1-UK's Cameron: Europe must take pain to stay united on Russia sanctions"
p1491
sa(dp1492
g2
S'http://www.reuters.com/article/2015/06/07/bc-novo-nordisk-idUSnPn3HMDWk+9e+PRN20150607'
p1493
sg4
S'20150608\xc2\xa08:00AM UTC'
p1494
sg6
S'New IDegLira Phase 3b Study Showed Statistically Significant HbA1c Reduction, Body Weight Change, and Lower Rate of Hypoglycaemia Versus Insulin Glargine'
p1495
sa(dp1496
g2
S'http://www.reuters.com/article/2015/06/07/diabetes-novonordisk-idUSL1N0YR1KM20150607'
p1497
sg4
S'20150608\xc2\xa08:00AM UTC'
p1498
sg6
S"Novo Nordisk type 2 diabetes combo drug tops Sanofi's Lantus -study"
p1499
sa(dp1500
g2
S'http://www.reuters.com/article/2015/06/07/us-g7-summit-usa-germany-idUSKBN0ON0I920150607'
p1501
sg4
S'20150608\xc2\xa07:59AM UTC'
p1502
sg6
S'Obama and Merkel reaffirm U.S.-German friendship at G7 summit'
p1503
sa(dp1504
g2
S'http://www.reuters.com/article/2015/06/07/us-quake-malaysia-idUSKBN0ON0GP20150607'
p1505
sg4
S'20150608\xc2\xa07:35AM UTC'
p1506
sg6
S'Malaysia quake death toll at 16, search continues'
p1507
sa(dp1508
g2
S'http://www.reuters.com/article/2015/06/07/deutschebank-ceo-resignation-idUSL5N0YT0D520150607'
p1509
sg4
S'20150608\xc2\xa07:34AM UTC'
p1510
sg6
S'Deutsche Bank co-CEOs have offered to resign -source'
p1511
sa(dp1512
g2
S'http://www.reuters.com/article/2015/06/07/deutsche-bank-ceo-idUSL5N0YT0CP20150607'
p1513
sg4
S'20150608\xc2\xa07:26AM UTC'
p1514
sg6
S'Deutsche Bank co-CEOs plan to resign -Wall Street Journal'
p1515
sa(dp1516
g2
S'http://www.reuters.com/article/2015/06/07/czech-cenbank-wages-idUSL5N0YT0AR20150607'
p1517
sg4
S'20150608\xc2\xa07:14AM UTC'
p1518
sg6
S'Czech cbanker Singer says latest wage data confirms expectations'
p1519
sa(dp1520
g2
S'http://www.reuters.com/article/2015/06/07/carrefour-management-idUSL5N0YT0AS20150607'
p1521
sg4
S'20150608\xc2\xa07:14AM UTC'
p1522
sg6
S"Carrefour boss says 'low cost' retail push a damaging trend"
p1523
sa(dp1524
g2
S'http://www.reuters.com/article/2015/06/07/us-ukraine-crisis-cameron-idUSKBN0ON0F520150607'
p1525
sg4
S'20150608\xc2\xa07:07AM UTC'
p1526
sg6
S"UK's Cameron: Europe must stay united on Russia sanctions over Ukraine "
p1527
sa(dp1528
g2
S'http://www.reuters.com/article/2015/06/07/bbo-marlins-rockies-preview-idUSMTZEB67KMNITS20150607'
p1529
sg4
S'20150608\xc2\xa07:02AM UTC'
p1530
sg6
S'Preview: Marlins at Rockies'
p1531
sa(dp1532
g2
S'http://www.reuters.com/article/2015/06/07/bbo-brewers-twins-preview-idUSMTZEB67KMNHTP20150607'
p1533
sg4
S'20150608\xc2\xa07:02AM UTC'
p1534
sg6
S'Preview: Brewers at Twins'
p1535
sa(dp1536
g2
S'http://www.reuters.com/article/2015/06/07/bkn-cavaliers-warriors-preview-idUSMTZEB67KMNHTO20150607'
p1537
sg4
S'20150608\xc2\xa07:02AM UTC'
p1538
sg6
S'Preview: Cavaliers at Warriors'
p1539
sa(dp1540
g2
S'http://www.reuters.com/article/2015/06/07/bbo-giants-phillies-preview-idUSMTZEB67KMNHTN20150607'
p1541
sg4
S'20150608\xc2\xa07:02AM UTC'
p1542
sg6
S'Preview: Giants at Phillies'
p1543
sa(dp1544
g2
S'http://www.reuters.com/article/2015/06/07/bbo-astros-bluejays-preview-idUSMTZEB67KMNHTM20150607'
p1545
sg4
S'20150608\xc2\xa07:02AM UTC'
p1546
sg6
S'Preview: Astros at Blue Jays'
p1547
sa(dp1548
g2
S'http://www.reuters.com/article/2015/06/07/bbo-cardinals-dodgers-preview-idUSMTZEB67KMNHTL20150607'
p1549
sg4
S'20150608\xc2\xa07:02AM UTC'
p1550
sg6
S'Preview: Cardinals at Dodgers'
p1551
sa(dp1552
g2
S'http://www.reuters.com/article/2015/06/07/bbo-tigers-whitesox-preview-idUSMTZEB67KMNHTK20150607'
p1553
sg4
S'20150608\xc2\xa07:02AM UTC'
p1554
sg6
S'Preview: Tigers at White Sox'
p1555
sa(dp1556
g2
S'http://www.reuters.com/article/2015/06/07/bbo-cubs-nationals-preview-idUSMTZEB67KMNHTR20150607'
p1557
sg4
S'20150608\xc2\xa07:02AM UTC'
p1558
sg6
S'Preview: Cubs at Nationals'
p1559
sa(dp1560
g2
S'http://www.reuters.com/article/2015/06/07/bbo-mets-diamondbacks-preview-idUSMTZEB67KMNHTJ20150607'
p1561
sg4
S'20150608\xc2\xa07:02AM UTC'
p1562
sg6
S'Preview: Mets at Diamondbacks'
p1563
sa(dp1564
g2
S'http://www.reuters.com/article/2015/06/07/bbo-rays-mariners-preview-idUSMTZEB67KMNHTQ20150607'
p1565
sg4
S'20150608\xc2\xa07:02AM UTC'
p1566
sg6
S'Preview: Rays at Mariners'
p1567
sa(dp1568
g2
S'http://www.reuters.com/article/2015/06/07/bbo-pirates-braves-preview-idUSMTZEB67KMNGTH20150607'
p1569
sg4
S'20150608\xc2\xa07:02AM UTC'
p1570
sg6
S'Preview: Pirates at Braves'
p1571
sa(dp1572
g2
S'http://www.reuters.com/article/2015/06/07/bbo-rangers-royals-preview-idUSMTZEB67KMNGTG20150607'
p1573
sg4
S'20150608\xc2\xa07:02AM UTC'
p1574
sg6
S'Preview: Rangers at Royals'
p1575
sa(dp1576
g2
S'http://www.reuters.com/article/2015/06/07/bbo-angels-yankees-preview-idUSMTZEB67KMNGTF20150607'
p1577
sg4
S'20150608\xc2\xa07:02AM UTC'
p1578
sg6
S'Preview: Angels at Yankees'
p1579
sa(dp1580
g2
S'http://www.reuters.com/article/2015/06/07/bbo-orioles-indians-preview-idUSMTZEB67KMNGTE20150607'
p1581
sg4
S'20150608\xc2\xa07:02AM UTC'
p1582
sg6
S'Preview: Orioles at Indians'
p1583
sa(dp1584
g2
S'http://www.reuters.com/article/2015/06/07/bbo-athletics-redsox-preview-idUSMTZEB67KMNGTD20150607'
p1585
sg4
S'20150608\xc2\xa07:02AM UTC'
p1586
sg6
S'Preview: Athletics at Red Sox'
p1587
sa(dp1588
g2
S'http://www.reuters.com/article/2015/06/07/bbo-padres-reds-preview-idUSMTZEB67KMNGTI20150607'
p1589
sg4
S'20150608\xc2\xa07:02AM UTC'
p1590
sg6
S'Preview: Padres at Reds'
p1591
sa(dp1592
g2
S'http://www.reuters.com/article/2015/06/07/ukraine-crisis-cameron-idUSL5N0YT0AV20150607'
p1593
sg4
S'20150608\xc2\xa07:01AM UTC'
p1594
sg6
S"UK's Cameron: Europe must stay united on Russia sanctions over Ukraine"
p1595
sa(dp1596
g2
S'http://www.reuters.com/article/2015/06/07/india-transgender-idUSKBN0ON0EQ20150607'
p1597
sg4
S'20150608\xc2\xa06:49AM UTC'
p1598
sg6
S"India's first transgender college principal overcomes taunts and abuse"
p1599
sa(dp1600
g2
S'http://www.reuters.com/article/2015/06/07/us-fencing-sharikov-idUSKBN0ON0EL20150607'
p1601
sg4
S'20150608\xc2\xa06:43AM UTC'
p1602
sg6
S'Fencing-Russian Sharikov dies in car accident'
p1603
sa(dp1604
g2
S'http://www.reuters.com/article/2015/06/07/bangladesh-budget-idUSL3N0YQ3Z320150607'
p1605
sg4
S'20150608\xc2\xa06:35AM UTC'
p1606
sg6
S'UPDATE 1-Bangladesh budget takes aim at energy shortages'
p1607
sa(dp1608
g2
S'http://www.reuters.com/article/2015/06/07/us-yemen-security-idUSKBN0ON0A420150607'
p1609
sg4
S'20150608\xc2\xa06:19AM UTC'
p1610
sg6
S'Saudi-led air strikes kill 44 in attack on Yemeni army compound: agency'
p1611
sa(dp1612
g2
S'http://www.reuters.com/article/2015/06/07/us-g7-summit-obama-russia-idUSKBN0ON0C320150607'
p1613
sg4
S'20150608\xc2\xa06:14AM UTC'
p1614
sg6
S'Obama says G7 to discuss Russian aggression in Ukraine'
p1615
sa(dp1616
g2
S'http://www.reuters.com/article/2015/06/07/yemen-security-idUSL5N0YT07Q20150607'
p1617
sg4
S'20150608\xc2\xa06:11AM UTC'
p1618
sg6
S'UPDATE 1-Saudi-led air strikes kill 44 in attack on Yemeni army compound - agency'
p1619
sa(dp1620
g2
S'http://www.reuters.com/article/2015/06/07/us-g7-summit-russia-eu-idUSKBN0ON0DV20150607'
p1621
sg4
S'20150608\xc2\xa06:11AM UTC'
p1622
sg6
S"EU's Tusk says will only discuss tougher sanctions on Russia"
p1623
sa(dp1624
g2
S'http://www.reuters.com/article/2015/06/07/us-eurozone-greece-juncker-idUSKBN0ON0DQ20150607'
p1625
sg4
S'20150608\xc2\xa06:07AM UTC'
p1626
sg6
S"EU's Juncker rebukes Greece's Tsipras, urges swift proposals"
p1627
sa(dp1628
g2
S'http://www.reuters.com/article/2015/06/07/eurozone-greece-juncker-idUSL5N0YT08J20150607'
p1629
sg4
S'20150608\xc2\xa06:02AM UTC'
p1630
sg6
S"EU's Juncker rebukes Greece's Tsipras, urges swift proposals"
p1631
sa(dp1632
g2
S'http://www.reuters.com/article/2015/06/07/us-usa-newyork-prisoners-idUSKBN0OM0P720150607'
p1633
sg4
S'20150608\xc2\xa05:48AM UTC'
p1634
sg6
S'Search on for two murderers in New York maximum security prison break'
p1635
sa(dp1636
g2
S'http://www.reuters.com/article/2015/06/07/us-china-ship-deaths-idUSKBN0OM00L20150607'
p1637
sg4
S'20150608\xc2\xa05:48AM UTC'
p1638
sg6
S'China cruise ship death toll exceeds 400, victims mourned'
p1639
sa(dp1640
g2
S'http://www.reuters.com/article/2015/06/07/us-horseracing-belmont-idUSKBN0OM0Y820150607'
p1641
sg4
S'20150608\xc2\xa05:46AM UTC'
p1642
sg6
S'American Pharoah captures U.S. Triple Crown'
p1643
sa(dp1644
g2
S'http://www.reuters.com/article/2015/06/07/markets-stocks-saudi-egypt-idUSL5N0YT08M20150607'
p1645
sg4
S'20150608\xc2\xa05:38AM UTC'
p1646
sg6
S'MIDEAST STOCKS-Saudi Arabia slips alongside oil, Egypt down after weak data'
p1647
sa(dp1648
g2
S'http://www.reuters.com/article/2015/06/07/emirates-drilling-idUSL5N0YT05Z20150607'
p1649
sg4
S'20150608\xc2\xa05:30AM UTC'
p1650
sg6
S"UPDATE 1-UAE's National Drilling Company to buy 14 new rigs for $543 mln"
p1651
sa(dp1652
g2
S'http://www.reuters.com/article/2015/06/07/g7-summit-obama-russia-idUSB4N0VQ00420150607'
p1653
sg4
S'20150608\xc2\xa05:14AM UTC'
p1654
sg6
S'Obama says G7 to discuss Russian aggression in Ukraine'
p1655
sa(dp1656
g2
S'http://www.reuters.com/article/2015/06/07/china-ship-idUSKBN0ON02520150607'
p1657
sg4
S'20150608\xc2\xa05:07AM UTC'
p1658
sg6
S'China cruise ship death toll exceeds 400, victims mourned'
p1659
sa(dp1660
g2
S'http://www.reuters.com/article/2015/06/07/us-soccer-world-asia-guam-idUSKBN0ON0AS20150607'
p1661
sg4
S'20150608\xc2\xa05:06AM UTC'
p1662
sg6
S'Guam find their voice ahead of first home World Cup qualifier'
p1663
sa(dp1664
g2
S'http://www.reuters.com/article/2015/06/07/china-ship-idUSL3N0YT01420150607'
p1665
sg4
S'20150608\xc2\xa05:06AM UTC'
p1666
sg6
S'UPDATE 3-China cruise ship death toll exceeds 400, victims mourned'
p1667
sa(dp1668
g2
S'http://www.reuters.com/article/2015/06/07/idUSnHUG9PDR3g+1dc+ONE20150607'
p1669
sg4
S'20150608\xc2\xa04:59AM UTC'
p1670
sg6
S'Gazit Brasil Acquires Shopping Light, an Iconic Property in the Heart of Downtown Sao Paulo, for R$ 150M (US$ 48M)'
p1671
sa(dp1672
g2
S'http://www.reuters.com/article/2015/06/07/us-india-nestle-idUSKBN0ON0AF20150607'
p1673
sg4
S'20150608\xc2\xa04:58AM UTC'
p1674
sg6
S'India seeks damages from Nestle after noodle scare: government sources'
p1675
sa(dp1676
g2
S'http://www.reuters.com/article/2015/06/07/india-nestle-idUSKBN0ON0AB20150607'
p1677
sg4
S'20150608\xc2\xa04:58AM UTC'
p1678
sg6
S'India seeks damages from Nestle after noodle scare - govt sources'
p1679
sa(dp1680
g2
S'http://www.reuters.com/article/2015/06/07/india-nestle-idUSL5N0YT02K20150607'
p1681
sg4
S'20150608\xc2\xa04:53AM UTC'
p1682
sg6
S'India seeks damages from Nestle after noodle scare - govt sources'
p1683
sa(dp1684
g2
S'http://www.reuters.com/article/2015/06/07/us-germany-politics-eurosceptics-idUSKBN0ON09W20150607'
p1685
sg4
S'20150608\xc2\xa04:49AM UTC'
p1686
sg6
S"Germany's bickering Eurosceptics squander chance to cash in on Greek crisis"
p1687
sa(dp1688
g2
S'http://www.reuters.com/article/2015/06/07/strauss-group-haier-elec-water-idUSL5N0YT06220150607'
p1689
sg4
S'20150608\xc2\xa04:47AM UTC'
p1690
sg6
S"Israel's Strauss, Haier expand water joint venture in China"
p1691
sa(dp1692
g2
S'http://www.reuters.com/article/2015/06/07/us-hungary-eu-analysis-idUSKBN0ON09P20150607'
p1693
sg4
S'20150608\xc2\xa04:44AM UTC'
p1694
sg6
S"Despite 'hello dictator', EU struggles to curb Hungary's Orban"
p1695
sa(dp1696
g2
S'http://www.reuters.com/article/2015/06/07/yemen-security-idUSL5N0YT04220150607'
p1697
sg4
S'20150608\xc2\xa04:37AM UTC'
p1698
sg6
S'Saudi-led air strikes kill 20 Yemeni soldiers - residents'
p1699
sa(dp1700
g2
S'http://www.reuters.com/article/2015/06/07/us-tokio-marine-management-idUSKBN0ON09D20150607'
p1701
sg4
S'20150608\xc2\xa04:37AM UTC'
p1702
sg6
S'Japanese firms pay high price for Asia M&A; spree: Tokio Marine president '
p1703
sa(dp1704
g2
S'http://www.reuters.com/article/2015/06/07/us-boe-markets-regulations-idUSKBN0ON09320150607'
p1705
sg4
S'20150608\xc2\xa04:32AM UTC'
p1706
sg6
S'Britain to unveil plans to clean up markets hit by rigging scandals'
p1707
sa(dp1708
g2
S'http://www.reuters.com/article/2015/06/07/us-soccer-fifa-bbc-idUSKBN0ON08J20150607'
p1709
sg4
S'20150608\xc2\xa04:21AM UTC'
p1710
sg6
S'BBC says it has seen documents detailing Warner transactions'
p1711
sa(dp1712
g2
S'http://www.reuters.com/article/2015/06/07/us-g7-summit-protest-idUSKBN0ON08H20150607'
p1713
sg4
S'20150608\xc2\xa04:16AM UTC'
p1714
sg6
S'Protesters block road to G7 summit site'
p1715
sa(dp1716
g2
S'http://www.reuters.com/article/2015/06/07/soccer-fifa-bbc-idUSL5N0YT03X20150607'
p1717
sg4
S'20150608\xc2\xa04:12AM UTC'
p1718
sg6
S'Soccer-BBC says seen documents detailing Warner transactions'
p1719
sa(dp1720
g2
S'http://www.reuters.com/article/2015/06/07/delek-noble-cyprus-idUSL5N0YT03C20150607'
p1721
sg4
S'20150608\xc2\xa04:08AM UTC'
p1722
sg6
S'Cyprus gas field to produce 8 bcm a year with pipeline to Egypt'
p1723
sa(dp1724
g2
S'http://www.reuters.com/article/2015/06/07/us-global-economy-weekahead-idUSKBN0ON08220150607'
p1725
sg4
S'20150608\xc2\xa04:05AM UTC'
p1726
sg6
S'Pick-up continues as Greek drama plays on'
p1727
sa(dp1728
g2
S'http://www.reuters.com/article/2015/06/07/boe-markets-regulations-idUSL5N0YQ1WE20150607'
p1729
sg4
S'20150608\xc2\xa04:00AM UTC'
p1730
sg6
S'Britain to unveil plans to clean up markets hit by rigging scandals'
p1731
sa(dp1732
g2
S'http://www.reuters.com/article/2015/06/07/markets-stocks-gulf-idUSL5N0YT03R20150607'
p1733
sg4
S'20150608\xc2\xa03:48AM UTC'
p1734
sg6
S"MIDEAST STOCKS-Gulf markets pull back; Dubai's Amlak rises in catch-up rally"
p1735
sa(dp1736
g2
S'http://www.reuters.com/article/2015/06/07/bbo-nationals-playerwatch-idUSMTZEB67KCP2SA20150607'
p1737
sg4
S'20150608\xc2\xa03:27AM UTC'
p1738
sg6
S'Washington Nationals - PlayerWatch'
p1739
sa(dp1740
g2
S'http://www.reuters.com/article/2015/06/07/us-eurozone-greece-schulz-idUSKBN0ON06920150607'
p1741
sg4
S'20150608\xc2\xa03:17AM UTC'
p1742
sg6
S'EU Parliament president warns Athens of dramatic consequences if talks fail'
p1743
sa(dp1744
g2
S'http://www.reuters.com/article/2015/06/07/eurozone-greece-schulz-idUSL5N0YT03M20150607'
p1745
sg4
S'20150608\xc2\xa03:16AM UTC'
p1746
sg6
S'RPT-EU Parliament president warns Athens of dramatic consequences if talks fail'
p1747
sa(dp1748
g2
S'http://www.reuters.com/article/2015/06/07/uk-health-mers-southkorea-idUSKBN0ON04S20150607'
p1749
sg4
S'20150608\xc2\xa03:10AM UTC'
p1750
sg6
S'South Korea to track cellphones to prevent MERS spread; fifth patient dies'
p1751
sa(dp1752
g2
S'http://www.reuters.com/article/2015/06/07/eurozone-greece-schulz-idUSL5N0YT02W20150607'
p1753
sg4
S'20150608\xc2\xa03:06AM UTC'
p1754
sg6
S'EU Parliament president warns Athens of dramatic consequences if talks fail'
p1755
sa(dp1756
g2
S'http://www.reuters.com/article/2015/06/07/bbo-mets-diamondbacks-writethru-idUSMTZEB67K64CQG20150607'
p1757
sg4
S'20150608\xc2\xa02:22AM UTC'
p1758
sg6
S"Castillo's blast boosts D-backs past Mets"
p1759
sa(dp1760
g2
S'http://www.reuters.com/article/2015/06/07/us-soccer-mls-idUSKBN0ON05X20150607'
p1761
sg4
S'20150608\xc2\xa02:22AM UTC'
p1762
sg6
S'Feilhaber penalty ends Sporting KC drought against Sounders'
p1763
sa(dp1764
g2
S'http://www.reuters.com/article/2015/06/07/us-nhl-stanley-idUSKBN0ON02B20150607'
p1765
sg4
S'20150608\xc2\xa02:19AM UTC'
p1766
sg6
S'Lightning hit back to level Stanley Cup Final'
p1767
sa(dp1768
g2
S'http://www.reuters.com/article/2015/06/07/us-nhl-stanley-lightning-idUSKBN0ON05R20150607'
p1769
sg4
S'20150608\xc2\xa02:18AM UTC'
p1770
sg6
S"Lightning silent on goaltender Bishop's replacement"
p1771
sa(dp1772
g2
S'http://www.reuters.com/article/2015/06/07/bbo-cardinals-dodgers-writethru-idUSMTZEB67K5AFQE20150607'
p1773
sg4
S'20150608\xc2\xa02:15AM UTC'
p1774
sg6
S'Kershaw strikes out 11 as Dodgers blank Cards'
p1775
sa(dp1776
g2
S'http://www.reuters.com/article/2015/06/07/bbo-rays-mariners-writethru-idUSMTZEB67K67OQH20150607'
p1777
sg4
S'20150608\xc2\xa02:06AM UTC'
p1778
sg6
S'Hernandez helps Mariners end seven-game skid'
p1779
sa(dp1780
g2
S'http://www.reuters.com/article/2015/06/07/idUSnGNX9Vm41w+1d0+GNW20150607'
p1781
sg4
S'20150608\xc2\xa02:01AM UTC'
p1782
sg6
S'Aerojet Rocketdyne Propulsion Critical to Inaugural SM-3 Block IIA Flight Test'
p1783
sa(dp1784
g2
S'http://www.reuters.com/article/2015/06/07/raytheon-missile-idUSnPn80s7hC+81+PRN20150607'
p1785
sg4
S'20150608\xc2\xa01:57AM UTC'
p1786
sg6
S'U.S. begins flight testing advanced missile defense interceptor'
p1787
sa(dp1788
g2
S'http://www.reuters.com/article/2015/06/07/us-apple-britain-applepay-idUSKBN0OM0YU20150607'
p1789
sg4
S'20150608\xc2\xa01:53AM UTC'
p1790
sg6
S'Apple set to introduce Apple Pay in Britain: Telegraph'
p1791
sa(dp1792
g2
S'http://www.reuters.com/article/2015/06/07/cricket-india-dravid-idUSKBN0ON05N20150607'
p1793
sg4
S'20150608\xc2\xa01:52AM UTC'
p1794
sg6
S'Dravid to shape next generation of Indian cricketers'
p1795
sa(dp1796
g2
S'http://www.reuters.com/article/2015/06/07/stocks-mideast-idUSL5N0YT02220150607'
p1797
sg4
S'20150608\xc2\xa01:44AM UTC'
p1798
sg6
S'MIDEAST STOCKS-Gulf markets may move sideways, lacking catalysts'
p1799
sa(dp1800
g2
S'http://www.reuters.com/article/2015/06/07/us-athletics-jamaica-blake-idUSKBN0ON04M20150607'
p1801
sg4
S'20150608\xc2\xa01:30AM UTC'
p1802
sg6
S'Blake relieved after safe return in 200 meters'
p1803
sa(dp1804
g2
S'http://www.reuters.com/article/2015/06/07/idUS67855263120150607'
p1805
sg4
S'20150608\xc2\xa01:26AM UTC'
p1806
sg6
S'India Markets Weekahead: Get ready for a fire sale'
p1807
sa(dp1808
g2
S'http://www.reuters.com/article/2015/06/07/us-g7-summit-cameron-trade-idUSKBN0OM0Y420150607'
p1809
sg4
S'20150608\xc2\xa01:23AM UTC'
p1810
sg6
S"UK's Cameron to vent dismay over EU-U.S. trade deal delay at G7  "
p1811
sa(dp1812
g2
S'http://www.reuters.com/article/2015/06/07/us-soccer-women-idUSKBN0ON05120150607'
p1813
sg4
S'20150608\xc2\xa01:02AM UTC'
p1814
sg6
S'Canada, Dutch win openers but fans the big winners'
p1815
sa(dp1816
g2
S'http://www.reuters.com/article/2015/06/07/us-soccer-women-netherlands-idUSKBN0ON02W20150607'
p1817
sg4
S'20150608\xc2\xa012:40AM UTC'
p1818
sg6
S'Netherlands edge New Zealand in World Cup debut'
p1819
sa(dp1820
g2
S'http://www.reuters.com/article/2015/06/07/us-soccer-women-opener-idUSKBN0ON00D20150607'
p1821
sg4
S'20150608\xc2\xa012:40AM UTC'
p1822
sg6
S'Sinclair saves the day for Canada with late winner'
p1823
sa(dp1824
g2
S'http://www.reuters.com/article/2015/06/07/us-china-defence-idUSKBN0ON04B20150607'
p1825
sg4
S'20150608\xc2\xa012:32AM UTC'
p1826
sg6
S"China military stresses Party control in face of 'liberal' enemies"
p1827
sa(dp1828
g2
S'http://www.reuters.com/article/2015/06/07/bbo-angels-yankees-writethru-idUSMTZEB67K0H0O920150607'
p1829
sg4
S'20150608\xc2\xa012:11AM UTC'
p1830
sg6
S'Warren helps Yankees win fifth straight'
p1831
sa(dp1832
g2
S'http://www.reuters.com/article/2015/06/07/us-cybersecurity-usa-china-idUSKBN0OM0N920150607'
p1833
sg4
S'20150608\xc2\xa012:07AM UTC'
p1834
sg6
S'Big U.S. data breaches offer treasure trove for hackers'
p1835
sa(dp1836
g2
S'http://www.reuters.com/article/2015/06/07/cybersecurity-usa-china-idUSL1N0YT03420150607'
p1837
sg4
S'20150608\xc2\xa012:03AM UTC'
p1838
sg6
S'UPDATE 1-Big U.S. data breaches offer treasure trove for hackers'
p1839
sa(dp1840
g2
S'http://www.reuters.com/article/2015/06/07/census-daily-feature-idUSnPn1qW1gh+88+PRN20150607'
p1841
sg4
S'20150608\xc2\xa012:01AM UTC'
p1842
sg6
S'U.S. Census Bureau Daily Feature for June 7'
p1843
sa(dp1844
g2
S'http://www.reuters.com/news/video/videoStory?storyID=108596460'
p1845
sg4
S'20150608\xc2\xa09:05PM UTC'
p1846
sg6
S'Fans celebrate new Triple Crown winner'
p1847
sa(dp1848
g2
S'http://www.reuters.com/news/video/videoStory?storyID=108594723'
p1849
sg4
S'20150608\xc2\xa06:05PM UTC'
p1850
sg6
S'Pena Nieto casts vote in Mexico election as protesters burn ballot papers'
p1851
sa(dp1852
g2
S'http://www.reuters.com/news/video/videoStory?storyID=108593789'
p1853
sg4
S'20150608\xc2\xa05:42PM UTC'
p1854
sg6
S'"I have nothing to regret in my life." -Putin to Italian newspaper'
p1855
sa(dp1856
g2
S'http://www.reuters.com/news/video/videoStory?storyID=108593724'
p1857
sg4
S'20150608\xc2\xa05:27PM UTC'
p1858
sg6
S"Kurds celebrate HDP's success"
p1859
sa(dp1860
g2
S'http://www.reuters.com/news/video/videoStory?storyID=108593583'
p1861
sg4
S'20150608\xc2\xa04:56PM UTC'
p1862
sg6
S'Pope meets with Argentine President Kirchner at Vatican'
p1863
sa(dp1864
g2
S'http://www.reuters.com/news/video/videoStory?storyID=108593457'
p1865
sg4
S'20150608\xc2\xa04:33PM UTC'
p1866
sg6
S'Ohio teens arrested after alleged three-state crime spree'
p1867
sa(dp1868
g2
S'http://www.reuters.com/news/video/videoStory?storyID=108593265'
p1869
sg4
S'20150608\xc2\xa04:09PM UTC'
p1870
sg6
S'G7 leaders attend concert in Alpine castle'
p1871
sa(dp1872
g2
S'http://www.reuters.com/news/video/videoStory?storyID=108592871'
p1873
sg4
S'20150608\xc2\xa03:03PM UTC'
p1874
sg6
S'"Spy" topples "San Andreas" at the box office'
p1875
sa(dp1876
g2
S'http://www.reuters.com/news/video/videoStory?storyID=108592778'
p1877
sg4
S'20150608\xc2\xa03:00PM UTC'
p1878
sg6
S'Daring prison escape puts New York on alert'
p1879
sa(dp1880
g2
S'http://www.reuters.com/news/video/videoStory?storyID=108592520'
p1881
sg4
S'20150608\xc2\xa02:15PM UTC'
p1882
sg6
S"Cameron: 'need to deal with causes of migration, not just consequences'"
p1883
sa(dp1884
g2
S'http://www.reuters.com/news/video/videoStory?storyID=108592478'
p1885
sg4
S'20150608\xc2\xa02:03PM UTC'
p1886
sg6
S'Florence and the Machine land third UK No.1 album'
p1887
sa(dp1888
g2
S'http://www.reuters.com/news/video/videoStory?storyID=108592054'
p1889
sg4
S'20150608\xc2\xa012:53PM UTC'
p1890
sg6
S'Nevada town cleans up after rare tornado'
p1891
sa(dp1892
g2
S'http://www.reuters.com/news/video/videoStory?storyID=108591992'
p1893
sg4
S'20150608\xc2\xa012:46PM UTC'
p1894
sg6
S"EU's Juncker rebukes Greece's Tsipras, urges swift proposals"
p1895
sa(dp1896
g2
S'http://www.reuters.com/news/video/videoStory?storyID=108591843'
p1897
sg4
S'20150608\xc2\xa012:39PM UTC'
p1898
sg6
S'Iraqi troops recapture key areas near Baghdad from IS militants'
p1899
sa(dp1900
g2
S'http://www.reuters.com/news/video/videoStory?storyID=108591736'
p1901
sg4
S'20150608\xc2\xa012:15PM UTC'
p1902
sg6
S'GOP heavyweights sound off in Iowa'
p1903
sa(dp1904
g2
S'http://www.reuters.com/news/video/videoStory?storyID=108591220'
p1905
sg4
S'20150608\xc2\xa010:49AM UTC'
p1906
sg6
S'African leaders arrive in Germany for G7 outreach meeting'
p1907
sa(dp1908
g2
S'http://www.reuters.com/news/video/videoStory?storyID=108590901'
p1909
sg4
S'20150608\xc2\xa010:07AM UTC'
p1910
sg6
S'Animals make the news around the globe'
p1911
sa(dp1912
g2
S'http://www.reuters.com/news/video/videoStory?storyID=108590741'
p1913
sg4
S'20150608\xc2\xa09:48AM UTC'
p1914
sg6
S'Pope says he visited Sarajevo to encourage ethnic and religious peace'
p1915
sa(dp1916
g2
S'http://www.reuters.com/news/video/videoStory?storyID=108590504'
p1917
sg4
S'20150608\xc2\xa09:27AM UTC'
p1918
sg6
S'Obama: G7 to stand up to Russian aggression in Ukraine'
p1919
sa(dp1920
g2
S'http://www.reuters.com/news/video/videoStory?storyID=108589896'
p1921
sg4
S'20150608\xc2\xa08:48AM UTC'
p1922
sg6
S'South Korea reports 14 more MERS cases, fifth death'
p1923
sa(dp1924
g2
S'http://www.reuters.com/news/video/videoStory?storyID=108589445'
p1925
sg4
S'20150608\xc2\xa08:01AM UTC'
p1926
sg6
S'"Gruess Gott!"-Obama in Bavaria'
p1927
sa(dp1928
g2
S'http://www.reuters.com/news/video/videoStory?storyID=108589171'
p1929
sg4
S'20150608\xc2\xa07:35AM UTC'
p1930
sg6
S'Turkish president casts his vote in general election'
p1931
sa(dp1932
g2
S'http://www.reuters.com/news/video/videoStory?storyID=108588519'
p1933
sg4
S'20150608\xc2\xa06:24AM UTC'
p1934
sg6
S'Melbourne Zoo shows off baby pygmy hippo'
p1935
sa(dp1936
g2
S'http://www.reuters.com/news/video/videoStory?storyID=108588419'
p1937
sg4
S'20150608\xc2\xa06:06AM UTC'
p1938
sg6
S'Climbers die in Malaysia quake'
p1939
sa(dp1940
g2
S'http://www.reuters.com/news/video/videoStory?storyID=108588228'
p1941
sg4
S'20150608\xc2\xa05:20AM UTC'
p1942
sg6
S"NY governor's plea over escaped killers"
p1943
sa(dp1944
g2
S'http://www.reuters.com/news/video/videoStory?storyID=108587534'
p1945
sg4
S'20150608\xc2\xa04:16AM UTC'
p1946
sg6
S'American Pharoah scoops Triple'
p1947
sa(dp1948
g2
S'http://www.reuters.com/news/video/videoStory?storyID=108587348'
p1949
sg4
S'20150608\xc2\xa03:30AM UTC'
p1950
sg6
S"China ship disaster: survivor's agony"
p1951
sa(dp1952
g2
S'http://www.reuters.com/news/video/videoStory?storyID=108586894'
p1953
sg4
S'20150608\xc2\xa02:15AM UTC'
p1954
sg6
S'NY state on alert after jailbreak'
p1955
sa(dp1956
g2
S'http://www.reuters.com/news/video/videoStory?storyID=108586765'
p1957
sg4
S'20150608\xc2\xa012:33AM UTC'
p1958
sg6
S'China mourns cruise ship dead'
p1959
sa.