(lp0
(dp1
S'href'
p2
S'http://www.reuters.com/article/2015/04/13/india-cenbank-refinance-idUSS8N0WM01F20150413'
p3
sS'ts'
p4
S'20150413\xc2\xa011:59PM UTC'
p5
sS'title'
p6
S"TABLE-Indian banks' refinancing with RBI flat at 65.13 bln rupees"
p7
sa(dp8
g2
S'http://www.reuters.com/article/2015/04/13/india-cenbank-balances-idUSS8N0WM01H20150413'
p9
sg4
S'20150413\xc2\xa011:55PM UTC'
p10
sg6
S"TABLE-India cbank says banks' cash balances fall to 3.49 trln rupees"
p11
sa(dp12
g2
S'http://www.reuters.com/article/2015/04/13/idUSL4N0XA1WD20150413'
p13
sg4
S'20150413\xc2\xa011:54PM UTC'
p14
sg6
S'BRIEF-Laobaixing Pharmacy announces pricing for its Shanghai IPO'
p15
sa(dp16
g2
S'http://www.reuters.com/article/2015/04/13/india-cenbank-msf-idUSS8N0WM01E20150413'
p17
sg4
S'20150413\xc2\xa011:53PM UTC'
p18
sg6
S'TABLE-Indian banks borrowed 26.31 bln rupees via MSF on April 10 - RBI'
p19
sa(dp20
g2
S'http://www.reuters.com/article/2015/04/13/india-cenbank-govtcash-idUSS8N0WM01G20150413'
p21
sg4
S'20150413\xc2\xa011:52PM UTC'
p22
sg6
S'TABLE-Indian govt cash with RBI for auction falls to 457.69 bln rupees on April 10'
p23
sa(dp24
g2
S'http://www.reuters.com/article/2015/04/13/asia-aiib-taiwan-idUSL4N0XA1TR20150413'
p25
sg4
S'20150413\xc2\xa011:52PM UTC'
p26
sg6
S'China rejects Taiwan as founding member of policy bank'
p27
sa(dp28
g2
S'http://www.reuters.com/article/2015/04/13/bbo-nationals-teamreport-idUSMTZEB4DQ81GCY20150413'
p29
sg4
S'20150413\xc2\xa011:51PM UTC'
p30
sg6
S'Washington Nationals - TeamReport'
p31
sa(dp32
g2
S'http://www.reuters.com/article/2015/04/13/bbo-cardinals-teamreport-idUSMTZEB4DQ81GCX20150413'
p33
sg4
S'20150413\xc2\xa011:51PM UTC'
p34
sg6
S'St. Louis Cardinals - TeamReport'
p35
sa(dp36
g2
S'http://www.reuters.com/article/2015/04/13/bbo-reds-teamreport-idUSMTZEB4DQ81GCW20150413'
p37
sg4
S'20150413\xc2\xa011:51PM UTC'
p38
sg6
S'Cincinnati Reds - TeamReport'
p39
sa(dp40
g2
S'http://www.reuters.com/article/2015/04/13/bbo-phillies-teamreport-idUSMTZEB4DQ81GCV20150413'
p41
sg4
S'20150413\xc2\xa011:51PM UTC'
p42
sg6
S'Philadelphia Phillies - TeamReport'
p43
sa(dp44
g2
S'http://www.reuters.com/article/2015/04/13/idUSnMKWWf6ZMa+1e6+MKW20150413'
p45
sg4
S'20150413\xc2\xa011:40PM UTC'
p46
sg6
S"Axwave's Unique Viewership Numbers Show That Nearly 30% of All TV Content Watched in the U.S. Is via Streaming Over-the-Top Services"
p47
sa(dp48
g2
S'http://www.reuters.com/article/2015/04/13/idUSnCCN3WYFKB+1df+MKW20150413'
p49
sg4
S'20150413\xc2\xa011:40PM UTC'
p50
sg6
S"Axwave's Unique Viewership Numbers Show That Nearly 30% of All TV Content Watched in the U.S. Is via Streaming Over-the-Top Services"
p51
sa(dp52
g2
S'http://www.reuters.com/article/2015/04/13/accenture-rio-tinto-idUSnBw125069a+100+BSW20150413'
p53
sg4
S'20150413\xc2\xa011:39PM UTC'
p54
sg6
S'Rio Tinto Teams with Accenture to Move to Ground Breaking \xe2\x80\x9cAs-a-Service\xe2\x80\x9d Model in the Cloud'
p55
sa(dp56
g2
S'http://www.reuters.com/article/2015/04/13/bbo-braves-teamreport-idUSMTZEB4DQ7FICO20150413'
p57
sg4
S'20150413\xc2\xa011:38PM UTC'
p58
sg6
S'Atlanta Braves - TeamReport'
p59
sa(dp60
g2
S'http://www.reuters.com/article/2015/04/13/bbo-tigers-teamreport-idUSMTZEB4DQ7FICN20150413'
p61
sg4
S'20150413\xc2\xa011:38PM UTC'
p62
sg6
S'Detroit Tigers - TeamReport'
p63
sa(dp64
g2
S'http://www.reuters.com/article/2015/04/13/bbo-mets-teamreport-idUSMTZEB4DQ7FICP20150413'
p65
sg4
S'20150413\xc2\xa011:38PM UTC'
p66
sg6
S'New York Mets - TeamReport'
p67
sa(dp68
g2
S'http://www.reuters.com/article/2015/04/13/idUS16854230820150413'
p69
sg4
S'20150413\xc2\xa011:31PM UTC'
p70
sg6
S'An ancient imam at the center of Iran nuclear deal'
p71
sa(dp72
g2
S'http://www.reuters.com/article/2015/04/13/india-cenbank-reverserepo-idUSS8N0WM01D20150413'
p73
sg4
S'20150413\xc2\xa011:29PM UTC'
p74
sg6
S'TABLE-India cbank says reverse repo bids rise to 45.22 bln rupees'
p75
sa(dp76
g2
S'http://www.reuters.com/article/2015/04/13/us-china-economy-trade-imports-idUSKBN0N408V20150413'
p77
sg4
S'20150413\xc2\xa011:28PM UTC'
p78
sg6
S'China customs: downward pressure on economy weakened imports '
p79
sa(dp80
g2
S'http://www.reuters.com/article/2015/04/13/chile-copper-water-idUSL2N0X80UT20150413'
p81
sg4
S'20150413\xc2\xa011:27PM UTC'
p82
sg6
S'REFILE-As rivers dry up, Chile copper mines turn to the Pacific for water'
p83
sa(dp84
g2
S'http://www.reuters.com/article/2015/04/13/us-cuba-usa-miami-idUSKBN0N400720150413'
p85
sg4
S'20150413\xc2\xa011:24PM UTC'
p86
sg6
S"Obama's Miami connections helped smooth path to meeting with Castro"
p87
sa(dp88
g2
S'http://www.reuters.com/article/2015/04/13/us-cuba-usa-idUSKBN0N116V20150413'
p89
sg4
S'20150413\xc2\xa011:24PM UTC'
p90
sg6
S'History now made, U.S. and Cuba face bumpy road ahead'
p91
sa(dp92
g2
S'http://www.reuters.com/article/2015/04/13/fl-new-world-gold-idUSnBw125067a+100+BSW20150413'
p93
sg4
S'20150413\xc2\xa011:24PM UTC'
p94
sg6
S'New World Gold Corporation Continues to Increase Production Capability'
p95
sa(dp96
g2
S'http://www.reuters.com/article/2015/04/13/china-economy-trade-coal-idUSL4N0X73JB20150413'
p97
sg4
S'20150413\xc2\xa011:22PM UTC'
p98
sg6
S"REFILE-UPDATE 1-China's Q1 coal imports fall 42 pct year on year -customs"
p99
sa(dp100
g2
S'http://www.reuters.com/article/2015/04/13/indonesia-economy-motorbike-idUSJ9N0VK00520150413'
p101
sg4
S'20150413\xc2\xa011:15PM UTC'
p102
sg6
S'Indonesia March motorbike sales fall 24.7 pct y/y'
p103
sa(dp104
g2
S'http://www.reuters.com/article/2015/04/13/china-economy-trade-copper-idUSL4N0X733G20150413'
p105
sg4
S'20150413\xc2\xa011:06PM UTC'
p106
sg6
S'UPDATE 1-China copper imports climb over 46 pct in March vs Feb'
p107
sa(dp108
g2
S'http://www.reuters.com/article/2015/04/13/markets-southkorea-idUSL4N0XA1E020150413'
p109
sg4
S'20150413\xc2\xa011:06PM UTC'
p110
sg6
S'S.Korean shares touch near 4-yr high on fund inflows; won falls'
p111
sa(dp112
g2
S'http://www.reuters.com/article/2015/04/13/markets-japan-stocks-idUSL4N0XA1IK20150413'
p113
sg4
S'20150413\xc2\xa011:04PM UTC'
p114
sg6
S'Nikkei steady as investors pause after rally; automakers, insurers down'
p115
sa(dp116
g2
S'http://www.reuters.com/article/2015/04/13/e-tech-machinery-inc-idUSnBw125065a+100+BSW20150413'
p117
sg4
S'20150413\xc2\xa011:04PM UTC'
p118
sg6
S'E-tech Machinery, Inc. Launching CNC Conversational Cylindrical Grinders'
p119
sa(dp120
g2
S'http://www.reuters.com/article/2015/04/13/am-best-idUSnBw125023a+100+BSW20150413'
p121
sg4
S'20150413\xc2\xa011:03PM UTC'
p122
sg6
S'A.M. Best Special Report: Takaful Operators Struggle with Growth and Profitability'
p123
sa(dp124
g2
S'http://www.reuters.com/article/2015/04/13/southkorea-economy-foreignflows-idUSL4N0XA0E920150413'
p125
sg4
S'20150413\xc2\xa011:00PM UTC'
p126
sg6
S'Foreigners snap up S.Korea stocks, bonds for 2nd straight mth in March'
p127
sa(dp128
g2
S'http://www.reuters.com/article/2015/04/13/saudiministryofdefens-idUSnPn6zzPNg+86+PRN20150413'
p129
sg4
S'20150413\xc2\xa010:51PM UTC'
p130
sg6
S'Saudi Ministry of Defense Briefing: Operation Decisive Storm - April 12'
p131
sa(dp132
g2
S'http://www.reuters.com/article/2015/04/13/usa-mtvmovieawards-idUSL2N0XA03320150413'
p133
sg4
S'20150413\xc2\xa010:48PM UTC'
p134
sg6
S"UPDATE 1-'Fault' wins big at MTV Movie Awards filled with naughty humor"
p135
sa(dp136
g2
S'http://www.reuters.com/article/2015/04/13/southkorea-stocks-idUSL4N0XA0PM20150413'
p137
sg4
S'20150413\xc2\xa010:43PM UTC'
p138
sg6
S'Financial industry lobby seeks longer Seoul bourse trading hours'
p139
sa(dp140
g2
S'http://www.reuters.com/article/2015/04/13/japan-economy-machinery-idUSL4N0X721I20150413'
p141
sg4
S'20150413\xc2\xa010:40PM UTC'
p142
sg6
S'UPDATE 2-Japan machinery orders fall, uncertain outlook keeps BOJ on edge'
p143
sa(dp144
g2
S'http://www.reuters.com/article/2015/04/13/usa-clinton-socialmedia-idUSL2N0XA02O20150413'
p145
sg4
S'20150413\xc2\xa010:39PM UTC'
p146
sg6
S'Clinton wins high marks for social-media launch'
p147
sa(dp148
g2
S'http://www.reuters.com/article/2015/04/13/bbo-pirates-teamreport-idUSMTZEB4DQ4OEBK20150413'
p149
sg4
S'20150413\xc2\xa010:38PM UTC'
p150
sg6
S'Pittsburgh Pirates - TeamReport'
p151
sa(dp152
g2
S'http://www.reuters.com/article/2015/04/13/bbo-rays-teamreport-idUSMTZEB4DQ4ODBJ20150413'
p153
sg4
S'20150413\xc2\xa010:38PM UTC'
p154
sg6
S'Tampa Bay Rays - TeamReport'
p155
sa(dp156
g2
S'http://www.reuters.com/article/2015/04/13/bbo-marlins-teamreport-idUSMTZEB4DQ4O9BI20150413'
p157
sg4
S'20150413\xc2\xa010:38PM UTC'
p158
sg6
S'Miami Marlins - TeamReport'
p159
sa(dp160
g2
S'http://www.reuters.com/article/2015/04/13/bbo-brewers-teamreport-idUSMTZEB4DQ4O9BH20150413'
p161
sg4
S'20150413\xc2\xa010:38PM UTC'
p162
sg6
S'Milwaukee Brewers - TeamReport'
p163
sa(dp164
g2
S'http://www.reuters.com/article/2015/04/13/china-economy-trade-idUSL4N0XA09920150413'
p165
sg4
S'20150413\xc2\xa010:37PM UTC'
p166
sg6
S'China March exports fall 15 pct, badly missing forecasts'
p167
sa(dp168
g2
S'http://www.reuters.com/article/2015/04/13/us-theatre-olivier-idUSKBN0N30WJ20150413'
p169
sg4
S'20150413\xc2\xa010:35PM UTC'
p170
sg6
S'Kinks musical, Miller play are big winners at Oliviers'
p171
sa(dp172
g2
S'http://www.reuters.com/article/2015/04/13/asia-bonds-idUSL4N0XA1JH20150413'
p173
sg4
S'20150413\xc2\xa010:33PM UTC'
p174
sg6
S'Asian bond defaults set to beat 2014 total'
p175
sa(dp176
g2
S'http://www.reuters.com/article/2015/04/13/idUSnMKWQ0lCca+1e4+MKW20150413'
p177
sg4
S'20150413\xc2\xa010:28PM UTC'
p178
sg6
S'Mirae Asset Funds Win 2015 Lipper Fund Awards'
p179
sa(dp180
g2
S'http://www.reuters.com/article/2015/04/13/asia-bonds-idUSL4N0XA1H920150413'
p181
sg4
S'20150413\xc2\xa010:21PM UTC'
p182
sg6
S'Thai bonds set for boost from guarantee cut'
p183
sa(dp184
g2
S'http://www.reuters.com/article/2015/04/13/bkn-hornets-rockets-recap-idUSMTZEB4CPRWBR920150413'
p185
sg4
S'20150413\xc2\xa010:18PM UTC'
p186
sg6
S'Pistons 116, Hornets 77'
p187
sa(dp188
g2
S'http://www.reuters.com/article/2015/04/13/us-worldbank-asia-idUSKBN0N404O20150413'
p189
sg4
S'20150413\xc2\xa010:17PM UTC'
p190
sg6
S'World Bank cuts East Asia growth forecast, warns of risks to outlook'
p191
sa(dp192
g2
S'http://www.reuters.com/article/2015/04/13/markets-australia-stocks-idUSL4N0XA1C420150413'
p193
sg4
S'20150413\xc2\xa010:10PM UTC'
p194
sg6
S'Australia shares rise on global cues but miners cap gains'
p195
sa(dp196
g2
S'http://www.reuters.com/article/2015/04/13/bkn-hawks-wizards-writethru-idUSMTZEB4DPZ8R7F20150413'
p197
sg4
S'20150413\xc2\xa010:09PM UTC'
p198
sg6
S'Wall, Wizards beat Hawks, avoid sweep'
p199
sa(dp200
g2
S'http://www.reuters.com/article/2015/04/13/us-japan-politics-idUSKBN0N30HK20150413'
p201
sg4
S'20150413\xc2\xa010:08PM UTC'
p202
sg6
S"Japan PM Abe's bloc wins two key governor races, bolstering policy push"
p203
sa(dp204
g2
S'http://www.reuters.com/article/2015/04/13/asia-bonds-idUSL4N0XA1DV20150413'
p205
sg4
S'20150413\xc2\xa010:06PM UTC'
p206
sg6
S"Australia's high-yield bond market coming to life"
p207
sa(dp208
g2
S'http://www.reuters.com/article/2015/04/13/mbsb-sukuk-idUSL5N0XA01Y20150413'
p209
sg4
S'20150413\xc2\xa010:06PM UTC'
p210
sg6
S"Malaysia's MBSB plans 900 mln ringgit covered sukuk issuance"
p211
sa(dp212
g2
S'http://www.reuters.com/article/2015/04/13/china-economy-trade-commodities-idUSB9N0WZ01B20150413'
p213
sg4
S'20150413\xc2\xa010:06PM UTC'
p214
sg6
S'China Q1 crude oil imports rise 7.5 pct to 80.34 mln tonnes - customs'
p215
sa(dp216
g2
S'http://www.reuters.com/article/2015/04/13/bkn-thunder-pacers-writethru-idUSMTZEB4DQ02T8K20150413'
p217
sg4
S'20150413\xc2\xa010:05PM UTC'
p218
sg6
S'Pacers remain in playoff hunt with win over Thunder'
p219
sa(dp220
g2
S'http://www.reuters.com/article/2015/04/13/sino-agro-food-call-idUSnPn8qPJkW+8d+PRN20150413'
p221
sg4
S'20150413\xc2\xa010:00PM UTC'
p222
sg6
S'Sino Agro Food, Inc. Reschedules Conference Call'
p223
sa(dp224
g2
S'http://www.reuters.com/article/2015/04/13/indonesia-press-barito-pacific-idUSL4N0XA1A420150413'
p225
sg4
S'20150413\xc2\xa09:58PM UTC'
p226
sg6
S'INDONESIA PRESS- GTA to finish Jakarta industrial park development this year-Investor Daily'
p227
sa(dp228
g2
S'http://www.reuters.com/article/2015/04/13/press-digest-hongkong-idUSL4N0XA18G20150413'
p229
sg4
S'20150413\xc2\xa09:57PM UTC'
p230
sg6
S'PRESS DIGEST-Hong Kong - April 13'
p231
sa(dp232
g2
S'http://www.reuters.com/article/2015/04/13/usa-mtvmovieawards-idUSL2N0XA01620150413'
p233
sg4
S'20150413\xc2\xa09:57PM UTC'
p234
sg6
S"Downey Jr, Woodley impart 'wise words' at irreverent MTV Movie Awards"
p235
sa(dp236
g2
S'http://www.reuters.com/article/2015/04/13/korea-intl-boat-show-idUSnPn3pMKfn+8c+PRN20150413'
p237
sg4
S'20150413\xc2\xa09:55PM UTC'
p238
sg6
S'[KIBS 2015] World-class Boat Show to be Held in Korea'
p239
sa(dp240
g2
S'http://www.reuters.com/article/2015/04/13/us-mexico-drugs-idUSKBN0N30RL20150413'
p241
sg4
S'20150413\xc2\xa09:46PM UTC'
p242
sg6
S'Troops arrest top Mexican cocaine trafficker in Cancun'
p243
sa(dp244
g2
S'http://www.reuters.com/article/2015/04/13/us-nhl-mapleleafs-idUSKBN0N403S20150413'
p245
sg4
S'20150413\xc2\xa09:39PM UTC'
p246
sg6
S'Toronto, Buffalo begin end of season sackings'
p247
sa(dp248
g2
S'http://www.reuters.com/article/2015/04/13/indonesia-press-bank-bni-idUSL4N0XA18P20150413'
p249
sg4
S'20150413\xc2\xa09:39PM UTC'
p250
sg6
S'INDONESIA PRESS-BNI Syariah to get up to 1 trln rupiah capital injection in 2017-Investor Daily'
p251
sa(dp252
g2
S'http://www.reuters.com/article/2015/04/13/idUSFit91940520150413'
p253
sg4
S'20150413\xc2\xa09:36PM UTC'
p254
sg6
S'\xc3\xa6\xc6\x92'
p255
sa(dp256
g2
S'http://www.reuters.com/article/2015/04/13/us-soccer-mls-idUSKBN0N403O20150413'
p257
sg4
S'20150413\xc2\xa09:34PM UTC'
p258
sg6
S'Gordon gives Galaxy win over Seattle, Orlando shine'
p259
sa(dp260
g2
S'http://www.reuters.com/article/2015/04/13/usa-election-clinton-idUSL2N0X90D020150413'
p261
sg4
S'20150413\xc2\xa09:33PM UTC'
p262
sg6
S"UPDATE 8-Clinton's 2016 White House launch contrasts with her 2008 bid"
p263
sa(dp264
g2
S'http://www.reuters.com/article/2015/04/13/us-southkorea-russia-anniversary-idUSKBN0N403K20150413'
p265
sg4
S'20150413\xc2\xa09:32PM UTC'
p266
sg6
S"South Korea's Park to skip Russia World War Two event that North's Kim will attend"
p267
sa(dp268
g2
S'http://www.reuters.com/article/2015/04/13/bbo-cubs-rockies-writethru-idUSMTZEB4DPW511O20150413'
p269
sg4
S'20150413\xc2\xa09:29PM UTC'
p270
sg6
S'Fowler powers Cubs to comeback win at Colorado'
p271
sa(dp272
g2
S'http://www.reuters.com/article/2015/04/13/us-libya-bomb-idUSKBN0N401L20150413'
p273
sg4
S'20150413\xc2\xa09:26PM UTC'
p274
sg6
S'Islamic State militants claim attacks on embassies in Libya'
p275
sa(dp276
g2
S'http://www.reuters.com/article/2015/04/13/bbo-dodgers-diamondbacks-writethru-idUSMTZEB4DPX5O2O20150413'
p277
sg4
S'20150413\xc2\xa09:21PM UTC'
p278
sg6
S"Greinke's strong outing leads Dodgers past Diamondbacks"
p279
sa(dp280
g2
S'http://www.reuters.com/article/2015/04/13/bkn-kings-nuggets-writethru-idUSMTZEB4DPWID2620150413'
p281
sg4
S'20150413\xc2\xa09:20PM UTC'
p282
sg6
S"Faried's 30 paces Nuggets in win vs. Kings"
p283
sa(dp284
g2
S'http://www.reuters.com/article/2015/04/13/us-gm-tech-idUSKBN0N402W20150413'
p285
sg4
S'20150413\xc2\xa09:20PM UTC'
p286
sg6
S'GM mulls $1 billion renovation of technical center near Detroit: Bloomberg'
p287
sa(dp288
g2
S'http://www.reuters.com/article/2015/04/13/hondaracing-win-idUSnPn1wLplk+88+PRN20150413'
p289
sg4
S'20150413\xc2\xa09:15PM UTC'
p290
sg6
S'Hinchcliffe and Honda Win in New Orleans'
p291
sa(dp292
g2
S'http://www.reuters.com/article/2015/04/13/malaysia-press-penang-idUSL4N0XA09O20150413'
p293
sg4
S'20150413\xc2\xa09:15PM UTC'
p294
sg6
S'MALAYSIA PRESS-Two Hong Kong investors propose concrete deck island in Malaysia- Edge Financial Daily'
p295
sa(dp296
g2
S'http://www.reuters.com/article/2015/04/13/press-digest-china-idUSL4N0XA08U20150413'
p297
sg4
S'20150413\xc2\xa09:14PM UTC'
p298
sg6
S'PRESS DIGEST-China - April 13'
p299
sa(dp300
g2
S'http://www.reuters.com/article/2015/04/13/malaysia-press-epf-idUSL4N0XA0BC20150413'
p301
sg4
S'20150413\xc2\xa09:12PM UTC'
p302
sg6
S"MALAYSIA PRESS-Malaysia's EPF in talks to divest UK assets-The Sun"
p303
sa(dp304
g2
S'http://www.reuters.com/article/2015/04/13/bbo-mariners-athletics-writethru-idUSMTZEB4DPWF02220150413'
p305
sg4
S'20150413\xc2\xa09:11PM UTC'
p306
sg6
S'Cruz belts homer in 10th as Mariners defeat Athletics'
p307
sa(dp308
g2
S'http://www.reuters.com/article/2015/04/13/gm-tech-idUSL2N0XA00I20150413'
p309
sg4
S'20150413\xc2\xa09:00PM UTC'
p310
sg6
S'GM mulls $1 bln renovation of technical center near Detroit -Bloomberg'
p311
sa(dp312
g2
S'http://www.reuters.com/article/2015/04/13/id-hecla-mining-company-idUSnBw125039a+100+BSW20150413'
p313
sg4
S'20150413\xc2\xa09:00PM UTC'
p314
sg6
S'Hecla Reports Preliminary First Quarter 2015 Production Results of 2.9 Million Ounces of Silver and 40,651 Ounces of Gold'
p315
sa(dp316
g2
S'http://www.reuters.com/article/2015/04/13/recall-holdings-idUSnBw125003a+100+BSW20150413'
p317
sg4
S'20150413\xc2\xa09:00PM UTC'
p318
sg6
S'Recall Awarded Highest Level of Safety Certification'
p319
sa(dp320
g2
S'http://www.reuters.com/article/2015/04/13/indonesia-tin-ahome-idUSL5N0X71VH20150413'
p321
sg4
S'20150413\xc2\xa08:59PM UTC'
p322
sg6
S'RPT-COLUMN-Indonesian tin cartel flexes muscles; market yawns: Andy Home'
p323
sa(dp324
g2
S'http://www.reuters.com/article/2015/04/13/bbo-giants-padres-writethru-idUSMTZEB4DPVTB1K20150413'
p325
sg4
S'20150413\xc2\xa08:58PM UTC'
p326
sg6
S"Nieves' slam leads Padres over Giants"
p327
sa(dp328
g2
S'http://www.reuters.com/article/2015/04/13/markets-forex-idUSL4N0XA05X20150413'
p329
sg4
S'20150413\xc2\xa08:57PM UTC'
p330
sg6
S'FOREX-Euro on defensive on yield pressure, Greece concerns'
p331
sa(dp332
g2
S'http://www.reuters.com/article/2015/04/13/philippines-press-infrastructure-idUSL4N0XA07820150413'
p333
sg4
S'20150413\xc2\xa08:57PM UTC'
p334
sg6
S'PHILIPPINES PRESS-Megawide, San Miguel, MTD eye $382 mln port project - BusinessWorld'
p335
sa(dp336
g2
S'http://www.reuters.com/article/2015/04/13/bbo-royals-angels-writethru-idUSMTZEB4CPU26WO20150413'
p337
sg4
S'20150413\xc2\xa08:54PM UTC'
p338
sg6
S'Ventura stifles Angels as Royals stay undefeated'
p339
sa(dp340
g2
S'http://www.reuters.com/article/2015/04/13/britain-press-ft-idUSL4N0XA05H20150413'
p341
sg4
S'20150413\xc2\xa08:54PM UTC'
p342
sg6
S'PRESS DIGEST- Financial Times - April 13'
p343
sa(dp344
g2
S'http://www.reuters.com/article/2015/04/13/travelodge-sale-idUSL4N0XA00F20150413'
p345
sg4
S'20150413\xc2\xa08:50PM UTC'
p346
sg6
S'UK hotel chain Travelodge explores sale option  -the Times'
p347
sa(dp348
g2
S'http://www.reuters.com/article/2015/04/13/britain-press-business-idUSL2N0XA01120150413'
p349
sg4
S'20150413\xc2\xa08:38PM UTC'
p350
sg6
S'PRESS DIGEST- British Business - April 13'
p351
sa(dp352
g2
S'http://www.reuters.com/article/2015/04/13/bbo-astros-rangers-writethru-idUSMTZEB4DPX5N2N20150413'
p353
sg4
S'20150413\xc2\xa08:29PM UTC'
p354
sg6
S'Conger homer in 14th gives Astros win over Rangers'
p355
sa(dp356
g2
S'http://www.reuters.com/article/2015/04/13/markets-precious-idUSL4N0XA03D20150413'
p357
sg4
S'20150413\xc2\xa08:27PM UTC'
p358
sg6
S'PRECIOUS-Gold holds above $1,200, but U.S. rate hike worries weigh'
p359
sa(dp360
g2
S'http://www.reuters.com/article/2015/04/13/united-company-rusal-plc-idUSnBw125051a+100+BSW20150413'
p361
sg4
S'20150413\xc2\xa08:20PM UTC'
p362
sg6
S'United Company RUSAL Plc: Update on the Annual Results Announcement for the Year Ended 31 December 2014 and Inside Information<0486.HK>'
p363
sa(dp364
g2
S'http://www.reuters.com/article/2015/04/13/us-china-regulations-idUSKBN0N400B20150413'
p365
sg4
S'20150413\xc2\xa08:12PM UTC'
p366
sg6
S'China allows mainland investors to open multiple A-share accounts'
p367
sa(dp368
g2
S'http://www.reuters.com/article/2015/04/13/china-regulations-idUSL4N0XA01A20150413'
p369
sg4
S'20150413\xc2\xa08:09PM UTC'
p370
sg6
S'China allows mainland investors to open multiple A-share accounts'
p371
sa(dp372
g2
S'http://www.reuters.com/article/2015/04/13/us-tennis-men-houston-idUSKBN0N400320150413'
p373
sg4
S'20150413\xc2\xa08:08PM UTC'
p374
sg6
S'Sock sinks Querrey in Houston for maiden title'
p375
sa(dp376
g2
S'http://www.reuters.com/article/2015/04/13/diary-emrg-econ-idUSL4N0X74Z720150413'
p377
sg4
S'20150413\xc2\xa08:02PM UTC'
p378
sg6
S'DIARY- Emerging Markets Economic Events to April 23'
p379
sa(dp380
g2
S'http://www.reuters.com/article/2015/04/13/idUSnGNX8BxmSX+1d3+GNW20150413'
p381
sg4
S'20150413\xc2\xa08:02PM UTC'
p382
sg6
S'Celgene And Mesoblast Enter Into Equity Placement and Right of First Refusal Agreement To Certain Disease Fields'
p383
sa(dp384
g2
S'http://www.reuters.com/article/2015/04/13/diary-top-econ-idUSL4N0X74Z520150413'
p385
sg4
S'20150413\xc2\xa08:01PM UTC'
p386
sg6
S'DIARY- Top Economic Events to April 21'
p387
sa(dp388
g2
S'http://www.reuters.com/article/2015/04/12/us-usa-election-clinton-idUSKBN0N305B20150412'
p389
sg4
S'20150413\xc2\xa07:58PM UTC'
p390
sg6
S"Clinton's 2016 White House launch contrasts with her 2008 bid"
p391
sa(dp392
g2
S'http://www.reuters.com/article/2015/04/12/us-usa-election-clinton-buzz-idUSKBN0N30YE20150412'
p393
sg4
S'20150413\xc2\xa07:58PM UTC'
p394
sg6
S'As an instant target for foes, Clinton may struggle to get message heard'
p395
sa(dp396
g2
S'http://www.reuters.com/article/2015/04/12/us-japan-economy-machinery-idUSKBN0N30ZI20150412'
p397
sg4
S'20150413\xc2\xa07:57PM UTC'
p398
sg6
S'Japan February core machinery orders fall 0.4 percent month-on-month: government'
p399
sa(dp400
g2
S'http://www.reuters.com/article/2015/04/12/us-japan-economy-wholesale-idUSKBN0N30ZG20150412'
p401
sg4
S'20150413\xc2\xa07:56PM UTC'
p402
sg6
S'Japan March wholesale prices rise 0.7 percent year-on-year'
p403
sa(dp404
g2
S'http://www.reuters.com/article/2015/04/12/us-usa-election-clinton-world-idUSKBN0N30W620150412'
p405
sg4
S'20150413\xc2\xa07:54PM UTC'
p406
sg6
S'Hillary Clinton: hard to be low-key when the world knows your face'
p407
sa(dp408
g2
S'http://www.reuters.com/article/2015/04/12/bbo-cubs-rockies-recap-idUSMTZEB4DPW511O20150412'
p409
sg4
S'20150413\xc2\xa07:54PM UTC'
p410
sg6
S'Cubs 6, Rockies 5'
p411
sa(dp412
g2
S'http://www.reuters.com/article/2015/04/12/btcgaw-buying-bitcoin-idUSnPnbDvCqc+94+PRN20150412'
p413
sg4
S'20150413\xc2\xa07:53PM UTC'
p414
sg6
S'BTCGaw is buying Bitcoin Above market price!'
p415
sa(dp416
g2
S'http://www.reuters.com/article/2015/04/12/japan-economy-machinery-idUST9N0X303O20150412'
p417
sg4
S'20150413\xc2\xa07:53PM UTC'
p418
sg6
S'Japan Feb core machinery orders fall 0.4 pct mth/mth -govt'
p419
sa(dp420
g2
S'http://www.reuters.com/article/2015/04/12/bkn-kings-nuggets-recap-idUSMTZEB4DPWID2620150412'
p421
sg4
S'20150413\xc2\xa07:52PM UTC'
p422
sg6
S'Nuggets 122, Kings 111'
p423
sa(dp424
g2
S'http://www.reuters.com/article/2015/04/12/bbo-mariners-athletics-recap-idUSMTZEB4DPWF02220150412'
p425
sg4
S'20150413\xc2\xa07:50PM UTC'
p426
sg6
S'Mariners 8, Athletics 7'
p427
sa(dp428
g2
S'http://www.reuters.com/article/2015/04/12/bkn-hornets-rockets-recap-idUSMTZEB4CPRWBR920150412'
p429
sg4
S'20150413\xc2\xa07:46PM UTC'
p430
sg6
S'Pistons 116, Hornets 77'
p431
sa(dp432
g2
S'http://www.reuters.com/article/2015/04/12/oradhitecsystems-deals-idUSL4N0X90O020150412'
p433
sg4
S'20150413\xc2\xa07:43PM UTC'
p434
sg6
S'Avid Technology to buy Orad Hi-Tec Systems for 5.67 euros per share'
p435
sa(dp436
g2
S'http://www.reuters.com/article/2015/04/12/orvana-q2-production-idUSnPn4PGHCn+9e+PRN20150412'
p437
sg4
S'20150413\xc2\xa07:42PM UTC'
p438
sg6
S'Orvana Reports Production for Second Quarter 2015 and Updates Guidance'
p439
sa(dp440
g2
S'http://www.reuters.com/article/2015/04/12/seven-group-ceo-idUSL4N0X90P020150412'
p441
sg4
S'20150413\xc2\xa07:41PM UTC'
p442
sg6
S"Australia's Seven Group names Ryan Stokes as new CEO"
p443
sa(dp444
g2
S'http://www.reuters.com/article/2015/04/12/idUSnGNX48LqnH+1c9+GNW20150412'
p445
sg4
S'20150413\xc2\xa07:38PM UTC'
p446
sg6
S'Avid Enters Into a Definitive Agreement to Acquire Orad Hi-Tec Systems for EUR5.67 Per Share'
p447
sa(dp448
g2
S'http://www.reuters.com/article/2015/04/12/bbo-giants-padres-recap-idUSMTZEB4DPVTB1K20150412'
p449
sg4
S'20150413\xc2\xa07:37PM UTC'
p450
sg6
S'Padres 6, Giants 4'
p451
sa(dp452
g2
S'http://www.reuters.com/article/2015/04/12/us-golf-masters-idUSKBN0N30SV20150412'
p453
sg4
S'20150413\xc2\xa07:36PM UTC'
p454
sg6
S'Spieth claims wire-to-wire victory at Masters'
p455
sa(dp456
g2
S'http://www.reuters.com/article/2015/04/12/bkn-bobcats-pistons-writethru-idUSMTZEB4DPVCB0720150412'
p457
sg4
S'20150413\xc2\xa07:27PM UTC'
p458
sg6
S'Meeks guides Pistons past Hornets'
p459
sa(dp460
g2
S'http://www.reuters.com/article/2015/04/12/bbo-nationals-phillies-writethru-idUSMTZEB4DPV6U0020150412'
p461
sg4
S'20150413\xc2\xa07:23PM UTC'
p462
sg6
S'Nationals grind out win over Phillies to avoid sweep'
p463
sa(dp464
g2
S'http://www.reuters.com/article/2015/04/12/bbo-royals-angels-recap-idUSMTZEB4CPU26WO20150412'
p465
sg4
S'20150413\xc2\xa07:22PM UTC'
p466
sg6
S'Royals 9, Angels 2'
p467
sa(dp468
g2
S'http://www.reuters.com/article/2015/04/12/us-usa-election-clinton-logo-idUSKBN0N30XF20150412'
p469
sg4
S'20150413\xc2\xa07:14PM UTC'
p470
sg6
S"Twitter turns Clinton's 'H' logo into target for ridicule"
p471
sa(dp472
g2
S'http://www.reuters.com/article/2015/04/12/us-gabon-politics-idUSKBN0N30SM20150412'
p473
sg4
S'20150413\xc2\xa07:12PM UTC'
p474
sg6
S'Leading Gabonese opposition figure dies, supporters riot'
p475
sa(dp476
g2
S'http://www.reuters.com/article/2015/04/12/bkn-nets-bucks-writethru-idUSMTZEB4CPQI9O720150412'
p477
sg4
S'20150413\xc2\xa07:10PM UTC'
p478
sg6
S'Bucks beat Nets to clinch playoff berth'
p479
sa(dp480
g2
S'http://www.reuters.com/article/2015/04/12/bbo-twins-whitesox-writethru-idUSMTZEB4CPPZJNE20150412'
p481
sg4
S'20150413\xc2\xa07:05PM UTC'
p482
sg6
S"White Sox's Sale stymies Twins in season debut"
p483
sa(dp484
g2
S'http://www.reuters.com/article/2015/04/12/us-golf-masters-champions-idUSKBN0N30YC20150412'
p485
sg4
S'20150413\xc2\xa07:03PM UTC'
p486
sg6
S'Masters champions at Augusta National'
p487
sa(dp488
g2
S'http://www.reuters.com/article/2015/04/12/usa-election-clinton-logo-idUSL2N0X90QL20150412'
p489
sg4
S'20150413\xc2\xa07:02PM UTC'
p490
sg6
S'UPDATE 1-Twitter turns Clinton\'s "H" logo into target for ridicule'
p491
sa(dp492
g2
S'http://www.reuters.com/article/2015/04/12/eisai-idUSnBw125018a+100+BSW20150412'
p493
sg4
S'20150413\xc2\xa07:01PM UTC'
p494
sg6
S'Eisai and Genomics plc to Collaborate in Analyses of Large-Scale Genotype/Phenotype Data to Inform Drug Development'
p495
sa(dp496
g2
S'http://www.reuters.com/article/2015/04/12/britain-election-labour-idUSL5N0X90WS20150412'
p497
sg4
S'20150413\xc2\xa07:01PM UTC'
p498
sg6
S"UPDATE 1-Britain's Miliband seeks to bolster economic credentials in bid to win power"
p499
sa(dp500
g2
S'http://www.reuters.com/article/2015/04/12/chile-copper-water-idUSL2N0X80UT20150412'
p501
sg4
S'20150413\xc2\xa07:00PM UTC'
p502
sg6
S'As rivers dry up, Chile copper mines turn to the Pacific for water'
p503
sa(dp504
g2
S'http://www.reuters.com/article/2015/04/12/us-golf-masters-youngest-idUSKBN0N30Y420150412'
p505
sg4
S'20150413\xc2\xa06:59PM UTC'
p506
sg6
S'Youngest Masters winners'
p507
sa(dp508
g2
S'http://www.reuters.com/article/2015/04/12/us-brazil-rousseff-protests-idUSKBN0N30XX20150412'
p509
sg4
S'20150413\xc2\xa06:57PM UTC'
p510
sg6
S'Brazilians protest Rousseff in second big demonstration of 2015'
p511
sa(dp512
g2
S'http://www.reuters.com/article/2015/04/12/bkn-cavaliers-celtics-writethru-idUSMTZEB4CPQZBOH20150412'
p513
sg4
S'20150413\xc2\xa06:54PM UTC'
p514
sg6
S'Celtics trounce undermanned Cavaliers'
p515
sa(dp516
g2
S'http://www.reuters.com/article/2015/04/12/bbo-cardinals-reds-writethru-idUSMTZEB4CPQEKO120150412'
p517
sg4
S'20150413\xc2\xa06:43PM UTC'
p518
sg6
S"Cardinals upend Reds on Carpenter's 11th inning homer"
p519
sa(dp520
g2
S'http://www.reuters.com/article/2015/04/12/bbo-pirates-brewers-writethru-idUSMTZEB4CPQB4NZ20150412'
p521
sg4
S'20150413\xc2\xa06:40PM UTC'
p522
sg6
S'McCutchen jump-starts Pirates in won over Brewers'
p523
sa(dp524
g2
S'http://www.reuters.com/article/2015/04/12/markets-australia-stocks-idUSL4N0X90GJ20150412'
p525
sg4
S'20150413\xc2\xa06:30PM UTC'
p526
sg6
S'Australia shares seen holding short of 6,000'
p527
sa(dp528
g2
S'http://www.reuters.com/article/2015/04/12/usa-election-clinton-logo-idUSL2N0X90P120150412'
p529
sg4
S'20150413\xc2\xa06:28PM UTC'
p530
sg6
S'Twitter turns Clinton\'s "H" logo into target for ridicule'
p531
sa(dp532
g2
S'http://www.reuters.com/article/2015/04/12/us-germanwings-evacuation-idUSKBN0N30UB20150412'
p533
sg4
S'20150413\xc2\xa06:28PM UTC'
p534
sg6
S'Germanwings plane evacuated after bomb scare'
p535
sa(dp536
g2
S'http://www.reuters.com/article/2015/04/12/us-usa-politics-barber-idUSKBN0N30XB20150412'
p537
sg4
S'20150413\xc2\xa06:27PM UTC'
p538
sg6
S"Former Gabrielle Giffords aide won't run for Congress in 2016"
p539
sa(dp540
g2
S'http://www.reuters.com/article/2015/04/12/germanwings-evacuation-idUSL5N0X90W120150412'
p541
sg4
S'20150413\xc2\xa06:26PM UTC'
p542
sg6
S'UPDATE 1-Germanwings plane evacuated after bomb scare'
p543
sa(dp544
g2
S'http://www.reuters.com/article/2015/04/12/us-usa-election-clinton-republicans-fact-idUSKBN0N30X920150412'
p545
sg4
S'20150413\xc2\xa06:21PM UTC'
p546
sg6
S'Factbox: Republicans launch opening salvos against Hillary Clinton'
p547
sa(dp548
g2
S'http://www.reuters.com/article/2015/04/12/bbo-bluejays-orioles-writethru-idUSMTZEB4CPPKLN520150412'
p549
sg4
S'20150413\xc2\xa06:19PM UTC'
p550
sg6
S'Bautista lifts Blue Jays over Orioles with homer'
p551
sa(dp552
g2
S'http://www.reuters.com/article/2015/04/12/us-usa-abandonment-pennsylvania-idUSKBN0N30X320150412'
p553
sg4
S'20150413\xc2\xa06:16PM UTC'
p554
sg6
S'Police in Maryland find woman accused of leaving quadriplegic son in woods'
p555
sa(dp556
g2
S'http://www.reuters.com/article/2015/04/12/atlas-australia-idUSL4N0X90G420150412'
p557
sg4
S'20150413\xc2\xa06:14PM UTC'
p558
sg6
S"RPT-UPDATE 1-Australia's Atlas to suspend mining due to low iron ore price"
p559
sa(dp560
g2
S'http://www.reuters.com/article/2015/04/12/us-motorcycling-americas-idUSKBN0N30VS20150412'
p561
sg4
S'20150413\xc2\xa06:14PM UTC'
p562
sg6
S'Marquez completes hat-trick of wins in Austin'
p563
sa(dp564
g2
S'http://www.reuters.com/article/2015/04/12/britain-election-labour-idUSL5N0X90VZ20150412'
p565
sg4
S'20150413\xc2\xa06:11PM UTC'
p566
sg6
S"Britain's Miliband seeks to bolster economic credentials in bid to win power"
p567
sa(dp568
g2
S'http://www.reuters.com/article/2015/04/12/chile-copper-mines-idUSL2N0X90PA20150412'
p569
sg4
S'20150413\xc2\xa06:08PM UTC'
p570
sg6
S'RPT-New reckoning for copper miners now running in the red'
p571
sa(dp572
g2
S'http://www.reuters.com/article/2015/04/12/us-yemen-security-idUSKBN0N308K20150412'
p573
sg4
S'20150413\xc2\xa06:04PM UTC'
p574
sg6
S"Yemen's exiled president appoints conciliatory figure as deputy"
p575
sa(dp576
g2
S'http://www.reuters.com/article/2015/04/12/us-yemen-security-saudi-spending-idUSKBN0N30WV20150412'
p577
sg4
S'20150413\xc2\xa06:03PM UTC'
p578
sg6
S'Saudi military spending rose 17 percent in 2014: study'
p579
sa(dp580
g2
S'http://www.reuters.com/article/2015/04/12/ny-pingmd-idUSnBw125057a+100+BSW20150412'
p581
sg4
S'20150413\xc2\xa06:03PM UTC'
p582
sg6
S'pingmd Announces Partnership with Greenway Medical Technologies to Provide Certified API Solutions'
p583
sa(dp584
g2
S'http://www.reuters.com/article/2015/04/12/us-tennis-india-mirza-rankings-idUSKBN0N30WR20150412'
p585
sg4
S'20150413\xc2\xa06:02PM UTC'
p586
sg6
S"India's Mirza climbs to top of doubles ranking"
p587
sa(dp588
g2
S'http://www.reuters.com/article/2015/04/12/ny-pingmd-idUSnBw125055a+100+BSW20150412'
p589
sg4
S'20150413\xc2\xa06:02PM UTC'
p590
sg6
S'Pingmd Announces Achieving SOC 2 Type 2 Certification Assurance'
p591
sa(dp592
g2
S'http://www.reuters.com/article/2015/04/12/bbo-rays-marlins-writethru-idUSMTZEB4CPODALD20150412'
p593
sg4
S'20150413\xc2\xa05:59PM UTC'
p594
sg6
S'DeJesus saves Rays vs. Marlins'
p595
sa(dp596
g2
S'http://www.reuters.com/article/2015/04/12/germanwings-evacuation-idUSL5N0X90SZ20150412'
p597
sg4
S'20150413\xc2\xa05:56PM UTC'
p598
sg6
S'CORRECTED-Germanwings plane evacuated after bomb scare'
p599
sa(dp600
g2
S'http://www.reuters.com/article/2015/04/12/bbo-tigers-indians-writethru-idUSMTZEB4CPNY9KK20150412'
p601
sg4
S'20150413\xc2\xa05:53PM UTC'
p602
sg6
S'Cabrera homers twice, as Tigers sweep Indians'
p603
sa(dp604
g2
S'http://www.reuters.com/article/2015/04/12/us-usa-election-clinton-iowa-idUSKBN0N30WN20150412'
p605
sg4
S'20150413\xc2\xa05:53PM UTC'
p606
sg6
S'Clinton to campaign in Iowa on Tuesday and Wednesday'
p607
sa(dp608
g2
S'http://www.reuters.com/article/2015/04/12/usa-election-clinton-iowa-idUSL2N0X90O320150412'
p609
sg4
S'20150413\xc2\xa05:52PM UTC'
p610
sg6
S'Clinton to campaign in Iowa on Tuesday and Wednesday'
p611
sa(dp612
g2
S'http://www.reuters.com/article/2015/04/12/us-anglogold-ashnti-m-a-idUSKBN0N30WD20150412'
p613
sg4
S'20150413\xc2\xa05:51PM UTC'
p614
sg6
S'AngloGold in talks to sell part, all of U.S. mine'
p615
sa(dp616
g2
S'http://www.reuters.com/article/2015/04/12/us-cuba-usa-idUSKBN0N116V20150412'
p617
sg4
S'20150413\xc2\xa05:49PM UTC'
p618
sg6
S'History now made, U.S. and Cuba face bumpy road ahead'
p619
sa(dp620
g2
S'http://www.reuters.com/article/2015/04/12/theatre-olivier-idUSL5N0X90RY20150412'
p621
sg4
S'20150413\xc2\xa05:47PM UTC'
p622
sg6
S'Kinks musical, Miller play are big winners at Oliviers'
p623
sa(dp624
g2
S'http://www.reuters.com/article/2015/04/12/anglogold-ashnti-ma-idUSL2N0X90NT20150412'
p625
sg4
S'20150413\xc2\xa05:47PM UTC'
p626
sg6
S'AngloGold in talks to sell part, all of U.S. mine'
p627
sa(dp628
g2
S'http://www.reuters.com/article/2015/04/12/bbo-mets-braves-writethru-idUSMTZEB4CPNWPKF20150412'
p629
sg4
S'20150413\xc2\xa05:45PM UTC'
p630
sg6
S'Mets hand Braves first loss of season'
p631
sa(dp632
g2
S'http://www.reuters.com/article/2015/04/12/portugal-banks-idUSL5N0X90VW20150412'
p633
sg4
S'20150413\xc2\xa05:35PM UTC'
p634
sg6
S'Dos Santos still pushing for Millennium, BPI merger -executive'
p635
sa(dp636
g2
S'http://www.reuters.com/article/2015/04/12/idUSnMKWVg9wSa+1e2+MKW20150412'
p637
sg4
S'20150413\xc2\xa05:30PM UTC'
p638
sg6
S'Advantech Joins Sony IP Live Production System Alliance'
p639
sa(dp640
g2
S'http://www.reuters.com/article/2015/04/12/idUSnMKWtSvCYa+1d6+MKW20150412'
p641
sg4
S'20150413\xc2\xa05:30PM UTC'
p642
sg6
S'Advantech Introduces PCI Express Accelerators for 4Kp60 HEVC Broadcast Video Encoding<2395.TW>'
p643
sa(dp644
g2
S'http://www.reuters.com/article/2015/04/12/idUSnMKWKKgdZa+1f2+MKW20150412'
p645
sg4
S'20150413\xc2\xa05:30PM UTC'
p646
sg6
S'Advantech Partners With Socionext to Accelerate Next-Generation Professional Video Solutions<2395.TW>'
p647
sa(dp648
g2
S'http://www.reuters.com/article/2015/04/12/idUSnCCN8bdDsg+1c4+MKW20150412'
p649
sg4
S'20150413\xc2\xa05:30PM UTC'
p650
sg6
S'Advantech Introduces PCI Express Accelerators for 4Kp60 HEVC Broadcast Video Encoding<2395.TW>'
p651
sa(dp652
g2
S'http://www.reuters.com/article/2015/04/12/us-usa-wisconsin-bigtreat-idUSKBN0N30VO20150412'
p653
sg4
S'20150413\xc2\xa05:21PM UTC'
p654
sg6
S"Wisconsin students' Rice Krispies treat a snap, crackle, colossus"
p655
sa(dp656
g2
S'http://www.reuters.com/article/2015/04/12/vopak-strike-idUSL5N0X90V720150412'
p657
sg4
S'20150413\xc2\xa05:20PM UTC'
p658
sg6
S'Unions call for strike at Dutch oil storage firm Vopak'
p659
sa(dp660
g2
S'http://www.reuters.com/article/2015/04/12/us-sudan-election-idUSKBN0N30VE20150412'
p661
sg4
S'20150413\xc2\xa05:05PM UTC'
p662
sg6
S'Sudan votes in elections boycotted by opposition groups'
p663
sa(dp664
g2
S'http://www.reuters.com/article/2015/04/12/us-southkorea-economy-prices-idUSKBN0N30VA20150412'
p665
sg4
S'20150413\xc2\xa05:03PM UTC'
p666
sg6
S'South Korea import prices fall at slower pace for second month in March'
p667
sa(dp668
g2
S'http://www.reuters.com/article/2015/04/12/sudan-election-idUSL5N0X90NH20150412'
p669
sg4
S'20150413\xc2\xa05:01PM UTC'
p670
sg6
S'Sudan votes in elections boycotted by opposition groups'
p671
sa(dp672
g2
S'http://www.reuters.com/article/2015/04/12/yum-china-idUSL4N0X907L20150412'
p673
sg4
S'20150413\xc2\xa05:00PM UTC'
p674
sg6
S"RPT-Yum's upmarket China diner seeks recipe for revival"
p675
sa(dp676
g2
S'http://www.reuters.com/article/2015/04/12/grass-valley-idUSnBw125028a+100+BSW20150412'
p677
sg4
S'20150413\xc2\xa05:00PM UTC'
p678
sg6
S'Grass Valley and Cisco Demonstrate Remote IP Workflow Live at NAB 2015'
p679
sa(dp680
g2
S'http://www.reuters.com/article/2015/04/12/evergrande-debt-idUSL4N0X805O20150412'
p681
sg4
S'20150413\xc2\xa05:00PM UTC'
p682
sg6
S'RPT-China developer Evergrande classifies debt as equity, cuts leverage'
p683
sa(dp684
g2
S'http://www.reuters.com/article/2015/04/12/us-usa-alaska-road-idUSKBN0N30V820150412'
p685
sg4
S'20150413\xc2\xa04:58PM UTC'
p686
sg6
S'Alaska road to oilfield operations opens for limited traffic'
p687
sa(dp688
g2
S'http://www.reuters.com/article/2015/04/12/czech-pribor-idUSL5N0X90GA20150412'
p689
sg4
S'20150413\xc2\xa04:58PM UTC'
p690
sg6
S'UPDATE 2-Czech central banker says deputy finmin attacking banking sector'
p691
sa(dp692
g2
S'http://www.reuters.com/article/2015/04/12/us-hungary-election-idUSKBN0N30V020150412'
p693
sg4
S'20150413\xc2\xa04:42PM UTC'
p694
sg6
S'Hungary far-right snatches ruling party seat in by-election'
p695
sa(dp696
g2
S'http://www.reuters.com/article/2015/04/12/us-gabon-politics-embassy-idUSKBN0N30UV20150412'
p697
sg4
S'20150413\xc2\xa04:41PM UTC'
p698
sg6
S'Gabon opposition supporters burn Benin embassy after leader dies'
p699
sa(dp700
g2
S'http://www.reuters.com/article/2015/04/12/hungary-election-idUSL5N0X90TH20150412'
p701
sg4
S'20150413\xc2\xa04:39PM UTC'
p702
sg6
S'Hungary far-right snatches ruling party seat in by-election'
p703
sa(dp704
g2
S'http://www.reuters.com/article/2015/04/12/us-southkorea-libya-idUSKBN0N307V20150412'
p705
sg4
S'20150413\xc2\xa04:36PM UTC'
p706
sg6
S'Gunmen attack South Korea embassy in Tripoli, two guards killed'
p707
sa(dp708
g2
S'http://www.reuters.com/article/2015/04/12/us-nigeria-election-governors-idUSKBN0N30H420150412'
p709
sg4
S'20150413\xc2\xa04:31PM UTC'
p710
sg6
S"Buhari's party wins Lagos vote, shoring up Nigeria rule"
p711
sa(dp712
g2
S'http://www.reuters.com/article/2015/04/12/nigeria-election-governors-idUSL5N0X90L920150412'
p713
sg4
S'20150413\xc2\xa04:25PM UTC'
p714
sg6
S"UPDATE 2-Buhari's party wins Lagos vote, shoring up Nigeria rule"
p715
sa(dp716
g2
S'http://www.reuters.com/article/2015/04/12/circle-of-protection-idUSnPn3ZjrC4+92+PRN20150412'
p717
sg4
S'20150413\xc2\xa04:17PM UTC'
p718
sg6
S'Religious Leaders Urge Hillary Rodham Clinton to Make Hunger and Poverty a Priority'
p719
sa(dp720
g2
S'http://www.reuters.com/article/2015/04/12/us-tennis-women-charleston-kerber-idUSKBN0N30UF20150412'
p721
sg4
S'20150413\xc2\xa04:10PM UTC'
p722
sg6
S'Kerber beats Keys in gripping Charleston final'
p723
sa(dp724
g2
S'http://www.reuters.com/article/2015/04/12/us-usa-boxoffice-idUSKBN0N30MW20150412'
p725
sg4
S'20150413\xc2\xa04:08PM UTC'
p726
sg6
S"Box office: 'Furious 7' dominates competition with $60.6 million"
p727
sa(dp728
g2
S'http://www.reuters.com/article/2015/04/12/idUSnHUG4wKW8s+1cc+ONE20150412'
p729
sg4
S'20150413\xc2\xa04:06PM UTC'
p730
sg6
S'UN Secretary-General Asks to Remake the World in the Image of Justice and Equality at 13th Crime Congress'
p731
sa(dp732
g2
S'http://www.reuters.com/article/2015/04/12/ut-tcn-idUSnBw125021a+100+BSW20150412'
p733
sg4
S'20150413\xc2\xa04:00PM UTC'
p734
sg6
S'TCN to Exhibit at Australian Buyers and Debt Collection Association\xe2\x80\x99s Consumer Debt Forum'
p735
sa(dp736
g2
S'http://www.reuters.com/article/2015/04/12/dc-npa-bmpea-ban-idUSnPn4ZQwfh+98+PRN20150412'
p737
sg4
S'20150413\xc2\xa03:55PM UTC'
p738
sg6
S'NPA CEO Calls Proposed BMPEA Ban Wasteful'
p739
sa(dp740
g2
S'http://www.reuters.com/article/2015/04/12/us-france-lepen-analysis-idUSKBN0N30BM20150412'
p741
sg4
S'20150413\xc2\xa03:41PM UTC'
p742
sg6
S"What to do with Dad: A dilemma for France's Le Pen"
p743
sa(dp744
g2
S'http://www.reuters.com/article/2015/04/12/us-hungary-rally-idUSKBN0N30TZ20150412'
p745
sg4
S'20150413\xc2\xa03:36PM UTC'
p746
sg6
S"Far-right Jobbik party hurting Hungary's image: Jewish leader"
p747
sa(dp748
g2
S'http://www.reuters.com/article/2015/04/12/robert-weiner-assoc-idUSnPnb9sgH6+82+PRN20150412'
p749
sg4
S'20150413\xc2\xa03:31PM UTC'
p750
sg6
S'"Fracking\'s Joy Ride Will End" ex-White House Spokesman Bob Weiner And Policy Analyst Hannah Coombs Say'
p751
sa(dp752
g2
S'http://www.reuters.com/article/2015/04/12/ca-rentrak-box-office-idUSnPn1gFn5c+88+PRN20150412'
p753
sg4
S'20150413\xc2\xa03:30PM UTC'
p754
sg6
S'Rentrak Announces Official Worldwide Box Office Results for Weekend of April 12, 2015'
p755
sa(dp756
g2
S'http://www.reuters.com/article/2015/04/12/us-usa-election-clinton-podesta-idUSKBN0N30T720150412'
p757
sg4
S'20150413\xc2\xa03:10PM UTC'
p758
sg6
S"Hillary Clinton aide told donors and supporters she's running for president: NY Times"
p759
sa(dp760
g2
S'http://www.reuters.com/article/2015/04/12/us-usa-police-idUSKBN0N30M820150412'
p761
sg4
S'20150413\xc2\xa03:05PM UTC'
p762
sg6
S'Sharpton praises South Carolina mayor where officer shot black man'
p763
sa(dp764
g2
S'http://www.reuters.com/article/2015/04/12/us-airbus-group-a-idUSKBN0N30T920150412'
p765
sg4
S'20150413\xc2\xa03:03PM UTC'
p766
sg6
S'Airbus needs more time to decide on A380 changes: paper'
p767
sa(dp768
g2
S'http://www.reuters.com/article/2015/04/12/nv-t2-computing-idUSnBw125022a+100+BSW20150412'
p769
sg4
S'20150413\xc2\xa03:00PM UTC'
p770
sg6
S'T2 Computing Named Panasas Reseller at the 2015 NAB Show'
p771
sa(dp772
g2
S'http://www.reuters.com/article/2015/04/12/us-yemen-security-pakistan-idUSKBN0N30SG20150412'
p773
sg4
S'20150413\xc2\xa02:47PM UTC'
p774
sg6
S'Saudi minister in Pakistan after lawmakers reject troop request'
p775
sa(dp776
g2
S'http://www.reuters.com/article/2015/04/12/us-egypt-court-brotherhood-idUSKBN0N30RF20150412'
p777
sg4
S'20150413\xc2\xa02:42PM UTC'
p778
sg6
S"Egypt Muslim Brotherhood verdicts 'blatantly unjust': Human Rights Watch"
p779
sa(dp780
g2
S'http://www.reuters.com/article/2015/04/12/us-russia-crisis-nato-idUSKBN0N30D220150412'
p781
sg4
S'20150413\xc2\xa02:40PM UTC'
p782
sg6
S'Russia says concerned by Finland, Sweden moves toward closer ties with NATO'
p783
sa(dp784
g2
S'http://www.reuters.com/article/2015/04/12/yemen-security-pakistan-idUSL4N0X909O20150412'
p785
sg4
S'20150413\xc2\xa02:38PM UTC'
p786
sg6
S'Saudi minister in Pakistan after lawmakers reject troop request'
p787
sa(dp788
g2
S'http://www.reuters.com/article/2015/04/12/russia-crisis-nato-idUSL5N0X90Q520150412'
p789
sg4
S'20150413\xc2\xa02:34PM UTC'
p790
sg6
S'UPDATE 1-Russia says concerned by Finland, Sweden moves towards closer ties with NATO'
p791
sa(dp792
g2
S'http://www.reuters.com/article/2015/04/12/us-refinery-labor-lyondell-strike-idUSKBN0N30RN20150412'
p793
sg4
S'20150413\xc2\xa02:25PM UTC'
p794
sg6
S'Striking Lyondell Houston refinery workers to weigh final offer'
p795
sa(dp796
g2
S'http://www.reuters.com/article/2015/04/12/us-mexico-drugs-idUSKBN0N30RL20150412'
p797
sg4
S'20150413\xc2\xa02:23PM UTC'
p798
sg6
S'Troops arrest top Mexican cocaine trafficker in Cancun'
p799
sa(dp800
g2
S'http://www.reuters.com/article/2015/04/12/us-egypt-sinai-tunnels-idUSKBN0N30RH20150412'
p801
sg4
S'20150413\xc2\xa02:20PM UTC'
p802
sg6
S'Egypt imposes life jail penalty for cross-border tunnel use'
p803
sa(dp804
g2
S'http://www.reuters.com/article/2015/04/12/refinery-labor-lyondell-strike-idUSL2N0X90IC20150412'
p805
sg4
S'20150413\xc2\xa02:19PM UTC'
p806
sg6
S'Striking Lyondell Houston refinery workers to weigh final offer'
p807
sa(dp808
g2
S'http://www.reuters.com/article/2015/04/12/egypt-sinai-tunnels-idUSL5N0X90O220150412'
p809
sg4
S'20150413\xc2\xa02:16PM UTC'
p810
sg6
S'Egypt imposes life jail penalty for cross-border tunnel use'
p811
sa(dp812
g2
S'http://www.reuters.com/article/2015/04/12/us-iran-nuclear-kerry-idUSKBN0N30QT20150412'
p813
sg4
S'20150413\xc2\xa02:07PM UTC'
p814
sg6
S'Kerry says he stands by presentation of Iran nuclear deal'
p815
sa(dp816
g2
S'http://www.reuters.com/article/2015/04/12/us-iran-oil-iea-idUSKBN0N30RD20150412'
p817
sg4
S'20150413\xc2\xa02:06PM UTC'
p818
sg6
S'IEA sees sharp rise in Iran oil output in 3-5 years post nuclear deal'
p819
sa(dp820
g2
S'http://www.reuters.com/article/2015/04/12/us-britain-charts-idUSKBN0N30R920150412'
p821
sg4
S'20150413\xc2\xa02:02PM UTC'
p822
sg6
S'UK singer Glynne tops singles chart for third successive week'
p823
sa(dp824
g2
S'http://www.reuters.com/article/2015/04/12/britain-charts-idUSL5N0X90PG20150412'
p825
sg4
S'20150413\xc2\xa02:00PM UTC'
p826
sg6
S'UK singer Glynne tops singles chart for third successive week'
p827
sa(dp828
g2
S'http://www.reuters.com/article/2015/04/12/us-nigeria-election-lagos-idUSKBN0N30QZ20150412'
p829
sg4
S'20150413\xc2\xa01:44PM UTC'
p830
sg6
S"Nigeria's All Progressive Congress wins Lagos state governorship"
p831
sa(dp832
g2
S'http://www.reuters.com/article/2015/04/12/nigeria-election-lagos-idUSL5N0X90Q620150412'
p833
sg4
S'20150413\xc2\xa01:42PM UTC'
p834
sg6
S"Nigeria's All Progressive Congress wins Lagos state governorship"
p835
sa(dp836
g2
S'http://www.reuters.com/article/2015/04/12/usa-boxoffice-idUSL4N0X909X20150412'
p837
sg4
S'20150413\xc2\xa01:41PM UTC'
p838
sg6
S"UPDATE 1-Box Office: 'Furious 7' Dominates Competition With $60.6 Million"
p839
sa(dp840
g2
S'http://www.reuters.com/article/2015/04/12/us-russia-fires-idUSKBN0N30KN20150412'
p841
sg4
S'20150413\xc2\xa01:32PM UTC'
p842
sg6
S"Four killed by wildfires in Russia's Siberia: TASS"
p843
sa(dp844
g2
S'http://www.reuters.com/article/2015/04/12/us-kenya-security-idUSKBN0N30A320150412'
p845
sg4
S'20150413\xc2\xa01:31PM UTC'
p846
sg6
S'Kenyan student dies, more than 100 injured in campus stampede'
p847
sa(dp848
g2
S'http://www.reuters.com/article/2015/04/12/us-pope-armenia-genocide-idUSKBN0N307820150412'
p849
sg4
S'20150413\xc2\xa01:20PM UTC'
p850
sg6
S'Pope sparks row with Turkey by calling Armenian massacre genocide'
p851
sa(dp852
g2
S'http://www.reuters.com/article/2015/04/12/elemental-redbullmedi-idUSnPn7fp2gl+80+PRN20150412'
p853
sg4
S'20150413\xc2\xa01:14PM UTC'
p854
sg6
S'Red Bull Media Entrusts Elemental and Akamai with Iconic Content in Ultra HD'
p855
sa(dp856
g2
S'http://www.reuters.com/article/2015/04/12/us-cayman-lionfish-idUSKBN0N30GY20150412'
p857
sg4
S'20150413\xc2\xa01:02PM UTC'
p858
sg6
S"Cayman Islands take 'can't beat 'em, eat 'em' stance on lionfish"
p859
sa(dp860
g2
S'http://www.reuters.com/article/2015/04/12/bbo-padres-playerwatch-idUSMTZEB4CPDXQCR20150412'
p861
sg4
S'20150413\xc2\xa01:01PM UTC'
p862
sg6
S'San Diego Padres - PlayerWatch'
p863
sa(dp864
g2
S'http://www.reuters.com/article/2015/04/12/bbo-rockies-playerwatch-idUSMTZEB4CPDXQCQ20150412'
p865
sg4
S'20150413\xc2\xa01:01PM UTC'
p866
sg6
S'Colorado Rockies - PlayerWatch'
p867
sa(dp868
g2
S'http://www.reuters.com/article/2015/04/12/bbo-yankees-playerwatch-idUSMTZEB4CPDXQCP20150412'
p869
sg4
S'20150413\xc2\xa01:01PM UTC'
p870
sg6
S'New York Yankees - PlayerWatch'
p871
sa(dp872
g2
S'http://www.reuters.com/article/2015/04/12/bbo-dodgers-playerwatch-idUSMTZEB4CPDXQCO20150412'
p873
sg4
S'20150413\xc2\xa01:01PM UTC'
p874
sg6
S'Los Angeles Dodgers - PlayerWatch'
p875
sa(dp876
g2
S'http://www.reuters.com/article/2015/04/12/bbo-whitesox-playerwatch-idUSMTZEB4CPDXQCZ20150412'
p877
sg4
S'20150413\xc2\xa01:01PM UTC'
p878
sg6
S'Chicago White Sox - PlayerWatch'
p879
sa(dp880
g2
S'http://www.reuters.com/article/2015/04/12/bbo-diamondbacks-playerwatch-idUSMTZEB4CPDXQCN20150412'
p881
sg4
S'20150413\xc2\xa01:01PM UTC'
p882
sg6
S'Arizona Diamondbacks - PlayerWatch'
p883
sa(dp884
g2
S'http://www.reuters.com/article/2015/04/12/bbo-royals-playerwatch-idUSMTZEB4CPDXQCY20150412'
p885
sg4
S'20150413\xc2\xa01:01PM UTC'
p886
sg6
S'Kansas City Royals - PlayerWatch'
p887
sa(dp888
g2
S'http://www.reuters.com/article/2015/04/12/bbo-giants-playerwatch-idUSMTZEB4CPDXPCM20150412'
p889
sg4
S'20150413\xc2\xa01:01PM UTC'
p890
sg6
S'San Francisco Giants - PlayerWatch'
p891
sa(dp892
g2
S'http://www.reuters.com/article/2015/04/12/bbo-rays-playerwatch-idUSMTZEB4CPDXQCX20150412'
p893
sg4
S'20150413\xc2\xa01:01PM UTC'
p894
sg6
S'Tampa Bay Rays - PlayerWatch'
p895
sa(dp896
g2
S'http://www.reuters.com/article/2015/04/12/bbo-orioles-playerwatch-idUSMTZEB4CPDXQCW20150412'
p897
sg4
S'20150413\xc2\xa01:01PM UTC'
p898
sg6
S'Baltimore Orioles - PlayerWatch'
p899
sa(dp900
g2
S'http://www.reuters.com/article/2015/04/12/bbo-bluejays-playerwatch-idUSMTZEB4CPDXQCV20150412'
p901
sg4
S'20150413\xc2\xa01:01PM UTC'
p902
sg6
S'Toronto Blue Jays - PlayerWatch'
p903
sa(dp904
g2
S'http://www.reuters.com/article/2015/04/12/bbo-redsox-playerwatch-idUSMTZEB4CPDXQCU20150412'
p905
sg4
S'20150413\xc2\xa01:01PM UTC'
p906
sg6
S'Boston Red Sox - PlayerWatch'
p907
sa(dp908
g2
S'http://www.reuters.com/article/2015/04/12/bbo-pirates-playerwatch-idUSMTZEB4CPDXQCS20150412'
p909
sg4
S'20150413\xc2\xa01:01PM UTC'
p910
sg6
S'Pittsburgh Pirates - PlayerWatch'
p911
sa(dp912
g2
S'http://www.reuters.com/article/2015/04/12/bbo-marlins-playerwatch-idUSMTZEB4CPDXPCG20150412'
p913
sg4
S'20150413\xc2\xa01:01PM UTC'
p914
sg6
S'Miami Marlins - PlayerWatch'
p915
sa(dp916
g2
S'http://www.reuters.com/article/2015/04/12/bbo-phillies-playerwatch-idUSMTZEB4CPDXPCF20150412'
p917
sg4
S'20150413\xc2\xa01:01PM UTC'
p918
sg6
S'Philadelphia Phillies - PlayerWatch'
p919
sa(dp920
g2
S'http://www.reuters.com/article/2015/04/12/bbo-braves-playerwatch-idUSMTZEB4CPDXPCE20150412'
p921
sg4
S'20150413\xc2\xa01:01PM UTC'
p922
sg6
S'Atlanta Braves - PlayerWatch'
p923
sa(dp924
g2
S'http://www.reuters.com/article/2015/04/12/bbo-rangers-playerwatch-idUSMTZEB4CPDXPCD20150412'
p925
sg4
S'20150413\xc2\xa01:01PM UTC'
p926
sg6
S'Texas Rangers - PlayerWatch'
p927
sa(dp928
g2
S'http://www.reuters.com/article/2015/04/12/bbo-angels-playerwatch-idUSMTZEB4CPDXPCC20150412'
p929
sg4
S'20150413\xc2\xa01:01PM UTC'
p930
sg6
S'Los Angeles Angels - PlayerWatch'
p931
sa(dp932
g2
S'http://www.reuters.com/article/2015/04/12/bbo-athletics-playerwatch-idUSMTZEB4CPDXPCB20150412'
p933
sg4
S'20150413\xc2\xa01:01PM UTC'
p934
sg6
S'Oakland Athletics - PlayerWatch'
p935
sa(dp936
g2
S'http://www.reuters.com/article/2015/04/12/bbo-tigers-playerwatch-idUSMTZEB4CPDXPC920150412'
p937
sg4
S'20150413\xc2\xa01:01PM UTC'
p938
sg6
S'Detroit Tigers - PlayerWatch'
p939
sa(dp940
g2
S'http://www.reuters.com/article/2015/04/12/bbo-brewers-playerwatch-idUSMTZEB4CPDXPCL20150412'
p941
sg4
S'20150413\xc2\xa01:01PM UTC'
p942
sg6
S'Milwaukee Brewers - PlayerWatch'
p943
sa(dp944
g2
S'http://www.reuters.com/article/2015/04/12/bbo-mariners-playerwatch-idUSMTZEB4CPDXPCA20150412'
p945
sg4
S'20150413\xc2\xa01:01PM UTC'
p946
sg6
S'Seattle Mariners - PlayerWatch'
p947
sa(dp948
g2
S'http://www.reuters.com/article/2015/04/12/bbo-indians-playerwatch-idUSMTZEB4CPDXPC820150412'
p949
sg4
S'20150413\xc2\xa01:01PM UTC'
p950
sg6
S'Cleveland Indians - PlayerWatch'
p951
sa(dp952
g2
S'http://www.reuters.com/article/2015/04/12/bbo-cubs-playerwatch-idUSMTZEB4CPDXPCK20150412'
p953
sg4
S'20150413\xc2\xa01:01PM UTC'
p954
sg6
S'Chicago Cubs - PlayerWatch'
p955
sa(dp956
g2
S'http://www.reuters.com/article/2015/04/12/bbo-twins-playerwatch-idUSMTZEB4CPDXPC720150412'
p957
sg4
S'20150413\xc2\xa01:01PM UTC'
p958
sg6
S'Minnesota Twins - PlayerWatch'
p959
sa(dp960
g2
S'http://www.reuters.com/article/2015/04/12/bbo-astros-playerwatch-idUSMTZEB4CPDXPCJ20150412'
p961
sg4
S'20150413\xc2\xa01:01PM UTC'
p962
sg6
S'Houston Astros - PlayerWatch'
p963
sa(dp964
g2
S'http://www.reuters.com/article/2015/04/12/bbo-mets-playerwatch-idUSMTZEB4CPDXPCI20150412'
p965
sg4
S'20150413\xc2\xa01:01PM UTC'
p966
sg6
S'New York Mets - PlayerWatch'
p967
sa(dp968
g2
S'http://www.reuters.com/article/2015/04/12/bbo-nationals-playerwatch-idUSMTZEB4CPDXPCH20150412'
p969
sg4
S'20150413\xc2\xa01:01PM UTC'
p970
sg6
S'Washington Nationals - PlayerWatch'
p971
sa(dp972
g2
S'http://www.reuters.com/article/2015/04/12/americanlegion-awards-idUSnPn3P5Yq8+94+PRN20150412'
p973
sg4
S'20150413\xc2\xa012:59PM UTC'
p974
sg6
S'Ocala, Fla., High School Senior Sweeps to Victory, Earns $18K Scholarship in American Legion Oratorical Contest'
p975
sa(dp976
g2
S'http://www.reuters.com/article/2015/04/12/us-tennis-women-katowice-idUSKBN0N30PN20150412'
p977
sg4
S'20150413\xc2\xa012:44PM UTC'
p978
sg6
S'Schmiedlova claims first WTA title'
p979
sa(dp980
g2
S'http://www.reuters.com/article/2015/04/12/us-mideast-crisis-airstrikes-idUSKBN0N30PH20150412'
p981
sg4
S'20150413\xc2\xa012:39PM UTC'
p982
sg6
S'U.S., allies conduct 13 air strikes in Syria, Iraq: military'
p983
sa(dp984
g2
S'http://www.reuters.com/article/2015/04/12/us-usa-election-clinton-germany-idUSKBN0N30ON20150412'
p985
sg4
S'20150413\xc2\xa012:34PM UTC'
p986
sg6
S'German Foreign Minister backs Clinton for U.S. President'
p987
sa(dp988
g2
S'http://www.reuters.com/article/2015/04/12/us-egypt-security-blast-idUSKBN0N309N20150412'
p989
sg4
S'20150413\xc2\xa012:27PM UTC'
p990
sg6
S"Two bomb attacks in Egypt's Sinai kill 13, wound dozens"
p991
sa(dp992
g2
S'http://www.reuters.com/article/2015/04/12/us-italy-expo-idUSKBN0N30NB20150412'
p993
sg4
S'20150413\xc2\xa012:25PM UTC'
p994
sg6
S'Italy pins hopes on Milan Expo after corruption, delays'
p995
sa(dp996
g2
S'http://www.reuters.com/article/2015/04/12/us-turkey-armenia-diplomacy-idUSKBN0N30OT20150412'
p997
sg4
S'20150413\xc2\xa012:17PM UTC'
p998
sg6
S"Turkey recalls Vatican ambassador after pope's genocide comments"
p999
sa(dp1000
g2
S'http://www.reuters.com/article/2015/04/12/us-mideast-crisis-syria-idUSKBN0N30I020150412'
p1001
sg4
S'20150413\xc2\xa012:17PM UTC'
p1002
sg6
S'Monitor says Syrian army bombs Aleppo school'
p1003
sa(dp1004
g2
S'http://www.reuters.com/article/2015/04/12/usa-election-clinton-germany-idUSL5N0X90M420150412'
p1005
sg4
S'20150413\xc2\xa012:03PM UTC'
p1006
sg6
S'German Foreign Minister backs Clinton for U.S. President'
p1007
sa(dp1008
g2
S'http://www.reuters.com/article/2015/04/12/britain-election-idUSL5N0X90JR20150412'
p1009
sg4
S'20150413\xc2\xa012:00PM UTC'
p1010
sg6
S"PM Cameron's inheritance tax cut will help only a few - Labour"
p1011
sa(dp1012
g2
S'http://www.reuters.com/article/2015/04/12/rmhcsc-walkforkids-5k-idUSnPn1C1PvL+95+PRN20150412'
p1013
sg4
S'20150413\xc2\xa012:00PM UTC'
p1014
sg6
S'Southern California Laces Up As Walk For Kids Returns, Benefitting Ronald McDonald House Charities Of Southern California'
p1015
sa(dp1016
g2
S'http://www.reuters.com/article/2015/04/12/betterinvesting-bixx-idUSnPndNT8v+4c+PRN20150412'
p1017
sg4
S'20150413\xc2\xa012:00PM UTC'
p1018
sg6
S'BetterInvesting Top 100 Index, Representing Main Street Portfolios, Gained 16.7% Over 5 Years and 5% in February'
p1019
sa(dp1020
g2
S'http://www.reuters.com/article/2015/04/12/kpmg-llp-acquiresfirm-idUSnPn8l3L1R+85+PRN20150412'
p1021
sg4
S'20150413\xc2\xa012:00PM UTC'
p1022
sg6
S'KPMG To Acquire Healthcare Consulting Firm Beacon Partners, Inc.'
p1023
sa(dp1024
g2
S'http://www.reuters.com/article/2015/04/12/us-cbs-idUSKBN0N30O920150412'
p1025
sg4
S'20150413\xc2\xa011:58AM UTC'
p1026
sg6
S'John Dickerson to inherit Face the Nation spot from Schieffer: CBS'
p1027
sa(dp1028
g2
S'http://www.reuters.com/article/2015/04/12/idUSnMKW3JjxZa+1d2+MKW20150412'
p1029
sg4
S'20150413\xc2\xa011:57AM UTC'
p1030
sg6
S'Statement by Jody Thomas, Commissioner of the Canadian Coast Guard - Marathassa Oil Spill'
p1031
sa(dp1032
g2
S'http://www.reuters.com/article/2015/04/12/idUSnCCNrv5hK+e1+MKW20150412'
p1033
sg4
S'20150413\xc2\xa011:57AM UTC'
p1034
sg6
S'Statement by Jody Thomas, Commissioner of the Canadian Coast Guard - Marathassa Oil Spill'
p1035
sa(dp1036
g2
S'http://www.reuters.com/article/2015/04/12/us-cbs-idUSL2N0X90EM20150412'
p1037
sg4
S'20150413\xc2\xa011:57AM UTC'
p1038
sg6
S'John Dickerson to inherit Face the Nation spot from Schieffer - CBS'
p1039
sa(dp1040
g2
S'http://www.reuters.com/article/2015/04/12/us-volkswagen-porsche-hldg-idUSKBN0N30FY20150412'
p1041
sg4
S'20150413\xc2\xa011:53AM UTC'
p1042
sg6
S'Volkswagen chairman appears isolated on board after CEO criticism'
p1043
sa(dp1044
g2
S'http://www.reuters.com/article/2015/04/12/volkswagen-porsche-hldg-idUSL5N0X90G020150412'
p1045
sg4
S'20150413\xc2\xa011:51AM UTC'
p1046
sg6
S'UPDATE 2-VW chairman appears isolated on board after CEO criticism'
p1047
sa(dp1048
g2
S'http://www.reuters.com/article/2015/04/12/us-mideast-crisis-syria-yarmouk-idUSKBN0N30D620150412'
p1049
sg4
S'20150413\xc2\xa011:41AM UTC'
p1050
sg6
S'U.N. calls for safe passage from Damascus refugee camp under Islamic State attack'
p1051
sa(dp1052
g2
S'http://www.reuters.com/article/2015/04/12/us-usa-election-clinton-idUSKBN0N02KZ20150412'
p1053
sg4
S'20150413\xc2\xa011:39AM UTC'
p1054
sg6
S"Clinton tries again to crack 'highest glass ceiling' with White House bid"
p1055
sa(dp1056
g2
S'http://www.reuters.com/article/2015/04/12/us-safrica-opposition-idUSKBN0N30DQ20150412'
p1057
sg4
S'20150413\xc2\xa011:33AM UTC'
p1058
sg6
S'South African opposition leader Zille to stand down'
p1059
sa(dp1060
g2
S'http://www.reuters.com/article/2015/04/12/idUSnMKWq22pTa+1c2+MKW20150412'
p1061
sg4
S'20150413\xc2\xa011:22AM UTC'
p1062
sg6
S'Media Advisory: Humane Society International on Location to Document Commercial Seal Hunt'
p1063
sa(dp1064
g2
S'http://www.reuters.com/article/2015/04/12/idUSnCCN5qjjg2+1c0+MKW20150412'
p1065
sg4
S'20150413\xc2\xa011:22AM UTC'
p1066
sg6
S'Media Advisory: Humane Society International on Location to Document Commercial Seal Hunt'
p1067
sa(dp1068
g2
S'http://www.reuters.com/article/2015/04/12/usa-boxoffice-idUSL4N0X908S20150412'
p1069
sg4
S'20150413\xc2\xa011:07AM UTC'
p1070
sg6
S"Box Office: 'Furious 7' Dominates Competition With $60.6 Million"
p1071
sa(dp1072
g2
S'http://www.reuters.com/article/2015/04/12/us-yemen-security-iran-idUSKBN0N30MS20150412'
p1073
sg4
S'20150413\xc2\xa011:07AM UTC'
p1074
sg6
S'Iran denies military advisors captured in Yemen'
p1075
sa(dp1076
g2
S'http://www.reuters.com/article/2015/04/12/yemen-security-iran-idUSL5N0X90L120150412'
p1077
sg4
S'20150413\xc2\xa011:05AM UTC'
p1078
sg6
S'Iran denies military advisors captured in Yemen'
p1079
sa(dp1080
g2
S'http://www.reuters.com/article/2015/04/12/us-egypt-security-police-idUSKBN0N30MI20150412'
p1081
sg4
S'20150413\xc2\xa011:03AM UTC'
p1082
sg6
S"Bomb targeting police station in Egypt's Sinai kills two: sources"
p1083
sa(dp1084
g2
S'http://www.reuters.com/article/2015/04/12/ca-axwave-idUSnBw125036a+100+BSW20150412'
p1085
sg4
S'20150413\xc2\xa011:00AM UTC'
p1086
sg6
S'Axwave\xe2\x80\x99s Unique Viewership Numbers Show That Nearly 30% of All TV Content Watched in the U.S. is via Streaming Over-the-Top Services'
p1087
sa(dp1088
g2
S'http://www.reuters.com/article/2015/04/12/idUSnMKW25F7pa+1c8+MKW20150412'
p1089
sg4
S'20150413\xc2\xa010:59AM UTC'
p1090
sg6
S'Media Advisory: Canadian Food Inspection Agency'
p1091
sa(dp1092
g2
S'http://www.reuters.com/article/2015/04/12/idUSnCCN5HxVq3+1d4+MKW20150412'
p1093
sg4
S'20150413\xc2\xa010:59AM UTC'
p1094
sg6
S'Media Advisory: Canadian Food Inspection Agency'
p1095
sa(dp1096
g2
S'http://www.reuters.com/article/2015/04/12/us-mali-army-blast-idUSKBN0N30LY20150412'
p1097
sg4
S'20150413\xc2\xa010:56AM UTC'
p1098
sg6
S'Two Mali soldiers killed, others injured in landmine explosion'
p1099
sa(dp1100
g2
S'http://www.reuters.com/article/2015/04/12/us-yemen-security-vice-president-idUSKBN0N30LS20150412'
p1101
sg4
S'20150413\xc2\xa010:53AM UTC'
p1102
sg6
S'Yemen president appoints former PM Khaled Bahah as vice president: officials'
p1103
sa(dp1104
g2
S'http://www.reuters.com/article/2015/04/12/yemen-security-idUSL5N0X90K420150412'
p1105
sg4
S'20150413\xc2\xa010:52AM UTC'
p1106
sg6
S'Yemen president appoints former PM Khaled Bahah as vice president - officials'
p1107
sa(dp1108
g2
S'http://www.reuters.com/article/2015/04/12/us-usa-election-clinton-paul-idUSKBN0N30IY20150412'
p1109
sg4
S'20150413\xc2\xa010:49AM UTC'
p1110
sg6
S'Republican hopeful Paul opens criticism ahead of Clinton announcement'
p1111
sa(dp1112
g2
S'http://www.reuters.com/article/2015/04/12/us-italy-migrants-idUSKBN0N30LK20150412'
p1113
sg4
S'20150413\xc2\xa010:43AM UTC'
p1114
sg6
S'Italy picks up 700 boat migrants, says rescue operations ongoing'
p1115
sa(dp1116
g2
S'http://www.reuters.com/article/2015/04/12/italy-migrants-idUSL5N0X90JN20150412'
p1117
sg4
S'20150413\xc2\xa010:41AM UTC'
p1118
sg6
S'Italy picks up 700 boat migrants, says rescue operations ongoing'
p1119
sa(dp1120
g2
S'http://www.reuters.com/article/2015/04/12/us-motor-racing-prix-idUSKBN0N306F20150412'
p1121
sg4
S'20150413\xc2\xa010:36AM UTC'
p1122
sg6
S"'Selfish' Hamilton leads Mercedes one-two in China"
p1123
sa(dp1124
g2
S'http://www.reuters.com/article/2015/04/12/us-motor-racing-prix-renault-idUSKBN0N30KV20150412'
p1125
sg4
S'20150413\xc2\xa010:35AM UTC'
p1126
sg6
S'Renault braced for more pain in Bahrain'
p1127
sa(dp1128
g2
S'http://www.reuters.com/article/2015/04/12/us-eurozone-greece-report-idUSKBN0N30KR20150412'
p1129
sg4
S'20150413\xc2\xa010:34AM UTC'
p1130
sg6
S'Greek finance ministry hits back at German newspaper report'
p1131
sa(dp1132
g2
S'http://www.reuters.com/article/2015/04/12/idUSnMKWvPPb0a+1d8+MKW20150412'
p1133
sg4
S'20150413\xc2\xa010:34AM UTC'
p1134
sg6
S'Media Advisory: Commercial Seal Hunt Opens Today'
p1135
sa(dp1136
g2
S'http://www.reuters.com/article/2015/04/12/idUSnCCN14c5YL+1c3+MKW20150412'
p1137
sg4
S'20150413\xc2\xa010:33AM UTC'
p1138
sg6
S'Media Advisory: Commercial Seal Hunt Opens Today'
p1139
sa(dp1140
g2
S'http://www.reuters.com/article/2015/04/12/motor-racing-prix-renault-idUSL4N0X908120150412'
p1141
sg4
S'20150413\xc2\xa010:32AM UTC'
p1142
sg6
S'Motor racing-Renault braced for more pain in Bahrain'
p1143
sa(dp1144
g2
S'http://www.reuters.com/article/2015/04/12/eurozone-greece-report-idUSL5N0X90HH20150412'
p1145
sg4
S'20150413\xc2\xa010:30AM UTC'
p1146
sg6
S'Greek finance ministry hits back at German newspaper report'
p1147
sa(dp1148
g2
S'http://www.reuters.com/article/2015/04/12/us-germany-buchenwald-idUSKBN0N30K420150412'
p1149
sg4
S'20150413\xc2\xa010:30AM UTC'
p1150
sg6
S'Fight racist demons, top EU lawmaker says at Nazi camp ceremony'
p1151
sa(dp1152
g2
S'http://www.reuters.com/article/2015/04/12/mideast-markets-wrap-idUSL5N0X90HA20150412'
p1153
sg4
S'20150413\xc2\xa010:24AM UTC'
p1154
sg6
S'MIDEAST STOCKS-Most Gulf markets narrowly mixed but Dubai rises'
p1155
sa(dp1156
g2
S'http://www.reuters.com/article/2015/04/12/us-finland-election-idUSKBN0N30JK20150412'
p1157
sg4
S'20150413\xc2\xa010:22AM UTC'
p1158
sg6
S'Taste of its own medicine? Austerity overshadows Finland vote'
p1159
sa(dp1160
g2
S'http://www.reuters.com/article/2015/04/12/finland-election-idUSL4N0X543V20150412'
p1161
sg4
S'20150413\xc2\xa010:04AM UTC'
p1162
sg6
S'Taste of its own medicine? Austerity overshadows Finland vote'
p1163
sa(dp1164
g2
S'http://www.reuters.com/article/2015/04/12/idUSnGNX8W1fGv+1d2+GNW20150412'
p1165
sg4
S'20150413\xc2\xa010:00AM UTC'
p1166
sg6
S'Yarmouth Veterinary Center Urges Warm Weather Preparation for Pets'
p1167
sa(dp1168
g2
S'http://www.reuters.com/article/2015/04/12/idUSnGNX5BKYGG+1df+GNW20150412'
p1169
sg4
S'20150413\xc2\xa010:00AM UTC'
p1170
sg6
S'Vancouver Acupuncturist Denise DuPree Joins Back and Neck Chiropractic'
p1171
sa(dp1172
g2
S'http://www.reuters.com/article/2015/04/12/idUSnGNX3NTXW0+1de+GNW20150412'
p1173
sg4
S'20150413\xc2\xa010:00AM UTC'
p1174
sg6
S'Dental Radiography Improves Pet Oral Health, Says Firth Veterinary Hospital'
p1175
sa(dp1176
g2
S'http://www.reuters.com/article/2015/04/12/idUSnGNX7NXRYF+1df+GNW20150412'
p1177
sg4
S'20150413\xc2\xa010:00AM UTC'
p1178
sg6
S'Southglen Veterinary Hospital Aims Laser Therapy at Pet Ailments'
p1179
sa(dp1180
g2
S'http://www.reuters.com/article/2015/04/12/idUSnGNX1MSwQT+1db+GNW20150412'
p1181
sg4
S'20150413\xc2\xa010:00AM UTC'
p1182
sg6
S'Cornerstone Chiropractic Recommends Extremity Adjusting to Improve Range of Motion'
p1183
sa(dp1184
g2
S'http://www.reuters.com/article/2015/04/12/microsoft-kuka-robots-idUSnPn2jswPQ+83+PRN20150412'
p1185
sg4
S'20150413\xc2\xa010:00AM UTC'
p1186
sg6
S'Microsoft and KUKA present intelligent future generation of robotics'
p1187
sa(dp1188
g2
S'http://www.reuters.com/article/2015/04/12/microsoft-miele-idUSnPn9Dy76X+91+PRN20150412'
p1189
sg4
S'20150413\xc2\xa010:00AM UTC'
p1190
sg6
S'Miele and Microsoft collaborate to create smarter home appliances'
p1191
sa(dp1192
g2
S'http://www.reuters.com/article/2015/04/12/microsoft-fujitsu-iot-idUSnPn4S1HfM+95+PRN20150412'
p1193
sg4
S'20150413\xc2\xa010:00AM UTC'
p1194
sg6
S'Fujitsu and Microsoft collaborate to transform manufacturing processes through IoT innovation'
p1195
sa(dp1196
g2
S'http://www.reuters.com/article/2015/04/12/idUSnGNXDxdxK+f1+GNW20150412'
p1197
sg4
S'20150413\xc2\xa010:00AM UTC'
p1198
sg6
S"Dr. Lee's Spine Center Announces New Tips to Prevent and Treat Low Back Pain"
p1199
sa(dp1200
g2
S'http://www.reuters.com/article/2015/04/12/grass-valley-idUSnBw125027a+100+BSW20150412'
p1201
sg4
S'20150413\xc2\xa010:00AM UTC'
p1202
sg6
S'Sinclair Broadcast Group Selects Grass Valley\xe2\x80\x99s Integrated Solution for Next-Generation Playout and Ad Localization'
p1203
sa(dp1204
g2
S'http://www.reuters.com/article/2015/04/12/us-turkey-armenia-ambassador-protest-idUSKBN0N30IU20150412'
p1205
sg4
S'20150413\xc2\xa09:53AM UTC'
p1206
sg6
S"Turkey says deeply disappointed by pope's comments on Armenian killings"
p1207
sa(dp1208
g2
S'http://www.reuters.com/article/2015/04/12/us-yemen-security-aden-idUSKBN0N30IP20150412'
p1209
sg4
S'20150413\xc2\xa09:52AM UTC'
p1210
sg6
S'Retrieving dead and wounded can be fatal in Yemen conflict'
p1211
sa(dp1212
g2
S'http://www.reuters.com/article/2015/04/12/us-afghanistan-casualties-idUSKBN0N30IG20150412'
p1213
sg4
S'20150413\xc2\xa09:50AM UTC'
p1214
sg6
S'Clashes with Taliban take growing toll on Afghan civilians in 2015'
p1215
sa(dp1216
g2
S'http://www.reuters.com/article/2015/04/12/bc-rshs-idUSnPnM1dds+50+PRN20150412'
p1217
sg4
S'20150413\xc2\xa09:49AM UTC'
p1218
sg6
S'Red Sea Housing Appoints New CFO'
p1219
sa(dp1220
g2
S'http://www.reuters.com/article/2015/04/12/us-japan-politics-idUSKBN0N30HK20150412'
p1221
sg4
S'20150413\xc2\xa09:19AM UTC'
p1222
sg6
S"Japan Abe's bloc wins two key governor races, bolstering policy push"
p1223
sa(dp1224
g2
S'http://www.reuters.com/article/2015/04/12/idUSnGNXbsVczT+1c9+GNW20150412'
p1225
sg4
S'20150413\xc2\xa09:07AM UTC'
p1226
sg6
S"Nineteen Hospitals Reach HIMSS Analytics Stage 7 Using MEDITECH's EHR"
p1227
sa(dp1228
g2
S'http://www.reuters.com/article/2015/04/12/capsuletech-meddevice-idUSnPnzYTdF+4d+PRN20150412'
p1229
sg4
S'20150413\xc2\xa09:06AM UTC'
p1230
sg6
S"Capsule Introduces Healthcare's First Analytics Solution to Utilize Data Across All Connected Medical Devices"
p1231
sa(dp1232
g2
S'http://www.reuters.com/article/2015/04/12/nigeria-election-governors-idUSL5N0X90EM20150412'
p1233
sg4
S'20150413\xc2\xa09:04AM UTC'
p1234
sg6
S"Governorship vote extended in Nigeria's oil hub, other states"
p1235
sa(dp1236
g2
S'http://www.reuters.com/article/2015/04/12/idUSnMKWTshYta+1e4+MKW20150412'
p1237
sg4
S'20150413\xc2\xa09:04AM UTC'
p1238
sg6
S'Viztek Brings Its IT-Enabled Exa PACS Platform to HIMSS 2015'
p1239
sa(dp1240
g2
S'http://www.reuters.com/article/2015/04/12/tableau-data-himss-idUSnPnbc83Qz+82+PRN20150412'
p1241
sg4
S'20150413\xc2\xa09:00AM UTC'
p1242
sg6
S'Tableau to Showcase Healthcare Data Analytics at the 2015 HIMSS National Conference'
p1243
sa(dp1244
g2
S'http://www.reuters.com/article/2015/04/12/cayman-lionfish-idUSL2N0WW1HP20150412'
p1245
sg4
S'20150413\xc2\xa09:00AM UTC'
p1246
sg6
S"FEATURE-Cayman Islands take 'can't beat 'em, eat 'em' stance on lionfish"
p1247
sa(dp1248
g2
S'http://www.reuters.com/article/2015/04/12/co-icat-idUSnBw125034a+100+BSW20150412'
p1249
sg4
S'20150413\xc2\xa09:00AM UTC'
p1250
sg6
S'ICAT Named One of Top 100 Workplaces in Denver Metro Area'
p1251
sa(dp1252
g2
S'http://www.reuters.com/article/2015/04/12/us-swimming-world-asia-idUSKBN0N30GQ20150412'
p1253
sg4
S'20150413\xc2\xa08:54AM UTC'
p1254
sg6
S"Japan's ironman Hagino wins fourth national title"
p1255
sa(dp1256
g2
S'http://www.reuters.com/article/2015/04/12/us-united-parcel-investment-idUSKBN0N30GC20150412'
p1257
sg4
S'20150413\xc2\xa08:50AM UTC'
p1258
sg6
S'UPS to invest $1.06 billion in Europe: Wirtschaftswoche'
p1259
sa(dp1260
g2
S'http://www.reuters.com/article/2015/04/12/india-canada-modi-idUSL4N0X906O20150412'
p1261
sg4
S'20150413\xc2\xa08:48AM UTC'
p1262
sg6
S'India rushes to break impasse on Canada investment pact - source'
p1263
sa(dp1264
g2
S'http://www.reuters.com/article/2015/04/12/us-credit-suisse-gp-julius-baer-idUSKBN0N30G220150412'
p1265
sg4
S'20150413\xc2\xa08:46AM UTC'
p1266
sg6
S'Julius Baer CEO says has not held deal talks with Credit Suisse: paper'
p1267
sa(dp1268
g2
S'http://www.reuters.com/article/2015/04/12/united-parcel-investment-idUSL5N0X80EW20150412'
p1269
sg4
S'20150413\xc2\xa08:46AM UTC'
p1270
sg6
S'UPS to invest 1 bln euros in Europe -Wirtschaftswoche'
p1271
sa(dp1272
g2
S'http://www.reuters.com/article/2015/04/12/czech-pribor-idUSL5N0X90EQ20150412'
p1273
sg4
S'20150413\xc2\xa08:45AM UTC'
p1274
sg6
S'Czech central banker says deputy finmin attacking banking sector'
p1275
sa(dp1276
g2
S'http://www.reuters.com/article/2015/04/12/credit-suisse-gp-julius-baer-idUSL5N0X90CX20150412'
p1277
sg4
S'20150413\xc2\xa08:39AM UTC'
p1278
sg6
S'Julius Baer CEO says has not held deal talks with C.Suisse -paper'
p1279
sa(dp1280
g2
S'http://www.reuters.com/article/2015/04/12/volkswagen-porsche-hldg-idUSB4N0WT00620150412'
p1281
sg4
S'20150413\xc2\xa08:33AM UTC'
p1282
sg6
S"Piech's VW CEO comment doesn't reflect family view -spokesman"
p1283
sa(dp1284
g2
S'http://www.reuters.com/article/2015/04/12/us-motor-racing-prix-mercedes-idUSKBN0N30FK20150412'
p1285
sg4
S'20150413\xc2\xa08:25AM UTC'
p1286
sg6
S'Rosberg accuses Hamilton of selfish behavior'
p1287
sa(dp1288
g2
S'http://www.reuters.com/article/2015/04/12/us-pakistan-drones-idUSKBN0N30FE20150412'
p1289
sg4
S'20150413\xc2\xa08:22AM UTC'
p1290
sg6
S'Drone strike in northwest Pakistan kills four suspected militants'
p1291
sa(dp1292
g2
S'http://www.reuters.com/article/2015/04/12/us-motor-racing-prix-button-idUSKBN0N30F620150412'
p1293
sg4
S'20150413\xc2\xa08:20AM UTC'
p1294
sg6
S'Button handed time penalty for Maldonado collision'
p1295
sa(dp1296
g2
S'http://www.reuters.com/article/2015/04/12/motor-racing-prix-button-idUSL4N0X907220150412'
p1297
sg4
S'20150413\xc2\xa08:18AM UTC'
p1298
sg6
S'Motor racing-Button handed time penalty for Maldonado collision'
p1299
sa(dp1300
g2
S'http://www.reuters.com/article/2015/04/12/us-saudi-iran-yemen-idUSKBN0N30F220150412'
p1301
sg4
S'20150413\xc2\xa08:16AM UTC'
p1302
sg6
S'Saudi Arabia dismisses Iran calls for Yemen ceasefire'
p1303
sa(dp1304
g2
S'http://www.reuters.com/article/2015/04/12/us-usa-games-tabletop-idUSKBN0N30EW20150412'
p1305
sg4
S'20150413\xc2\xa08:13AM UTC'
p1306
sg6
S'Tabletop games gain new fans in backlash against video culture'
p1307
sa(dp1308
g2
S'http://www.reuters.com/article/2015/04/12/us-turkey-armenia-ambassador-idUSKBN0N30ES20150412'
p1309
sg4
S'20150413\xc2\xa08:10AM UTC'
p1310
sg6
S"Turkey summons Vatican ambassador over pope's genocide comment: official"
p1311
sa(dp1312
g2
S'http://www.reuters.com/article/2015/04/12/saudi-iran-yemen-idUSL5N0X90E920150412'
p1313
sg4
S'20150413\xc2\xa08:09AM UTC'
p1314
sg6
S'Saudi Arabia dismisses Iran calls for Yemen ceasefire'
p1315
sa(dp1316
g2
S'http://www.reuters.com/article/2015/04/12/usa-games-tabletop-idUSL2N0X80QJ20150412'
p1317
sg4
S'20150413\xc2\xa08:00AM UTC'
p1318
sg6
S'Tabletop games gain new fans in backlash against video culture'
p1319
sa(dp1320
g2
S'http://www.reuters.com/article/2015/04/12/usa-healthcare-cancer-idUSL2N0X41CY20150412'
p1321
sg4
S'20150413\xc2\xa08:00AM UTC'
p1322
sg6
S'INSIGHT-Aetna, Cigna balk as Angelina effect spurs genetic cancer testing'
p1323
sa(dp1324
g2
S'http://www.reuters.com/article/2015/04/12/us-poland-vote-poll-idUSKBN0N30EC20150412'
p1325
sg4
S'20150413\xc2\xa07:55AM UTC'
p1326
sg6
S"Poland's President Komorowski edges up in poll as election looms"
p1327
sa(dp1328
g2
S'http://www.reuters.com/article/2015/04/12/us-egypt-court-brotherhood-idUSKBN0N30E620150412'
p1329
sg4
S'20150413\xc2\xa07:52AM UTC'
p1330
sg6
S'Egypt sentences Muslim Brotherhood leader, others to death'
p1331
sa(dp1332
g2
S'http://www.reuters.com/article/2015/04/12/us-g7-germany-russia-idUSKBN0N30DK20150412'
p1333
sg4
S'20150413\xc2\xa07:34AM UTC'
p1334
sg6
S'German foreign minister rejects calls to invite Putin to G7 talks'
p1335
sa(dp1336
g2
S'http://www.reuters.com/article/2015/04/12/g7-germany-russia-idUSL5N0X90BX20150412'
p1337
sg4
S'20150413\xc2\xa07:30AM UTC'
p1338
sg6
S'German foreign minister rejects calls to invite Putin to G7 talks'
p1339
sa(dp1340
g2
S'http://www.reuters.com/article/2015/04/12/us-japan-hiroshima-idUSKBN0N303R20150412'
p1341
sg4
S'20150413\xc2\xa07:22AM UTC'
p1342
sg6
S'Hiroshima survivors: haunted 70 years on, determined to remember'
p1343
sa(dp1344
g2
S'http://www.reuters.com/article/2015/04/12/us-emirates-dubai-court-china-idUSKBN0N30CW20150412'
p1345
sg4
S'20150413\xc2\xa07:16AM UTC'
p1346
sg6
S"Dubai's financial court system seeking ties with China"
p1347
sa(dp1348
g2
S'http://www.reuters.com/article/2015/04/12/russia-crisis-nato-idUSL5N0X90BE20150412'
p1349
sg4
S'20150413\xc2\xa07:11AM UTC'
p1350
sg6
S'Russia says concerned by Finland, Sweden moves towards closer ties with NATO'
p1351
sa(dp1352
g2
S'http://www.reuters.com/article/2015/04/12/us-usa-nelly-idUSKBN0N305720150412'
p1353
sg4
S'20150413\xc2\xa07:09AM UTC'
p1354
sg6
S'Rapper Nelly arrested on felony drug charges in Tennessee'
p1355
sa(dp1356
g2
S'http://www.reuters.com/article/2015/04/12/us-spain-poll-idUSKBN0N30C220150412'
p1357
sg4
S'20150413\xc2\xa07:08AM UTC'
p1358
sg6
S"Spain's anti-austerity Podemos neck-to-neck with mainstream parties: poll"
p1359
sa(dp1360
g2
S'http://www.reuters.com/article/2015/04/12/us-chile-copper-mines-idUSKBN0N30BO20150412'
p1361
sg4
S'20150413\xc2\xa07:03AM UTC'
p1362
sg6
S'New reckoning for copper miners now running in the red'
p1363
sa(dp1364
g2
S'http://www.reuters.com/article/2015/04/12/bkn-thunder-pacers-preview-idUSMTZEB4COXBHC520150412'
p1365
sg4
S'20150413\xc2\xa07:02AM UTC'
p1366
sg6
S'Preview: Thunder at Pacers'
p1367
sa(dp1368
g2
S'http://www.reuters.com/article/2015/04/12/bbo-tigers-indians-preview-idUSMTZEB4COXBHC420150412'
p1369
sg4
S'20150413\xc2\xa07:02AM UTC'
p1370
sg6
S'Preview: Tigers at Indians'
p1371
sa(dp1372
g2
S'http://www.reuters.com/article/2015/04/12/bbo-mets-braves-preview-idUSMTZEB4COXBHC320150412'
p1373
sg4
S'20150413\xc2\xa07:02AM UTC'
p1374
sg6
S'Preview: Mets at Braves'
p1375
sa(dp1376
g2
S'http://www.reuters.com/article/2015/04/12/bbo-twins-whitesox-preview-idUSMTZEB4COXBHC220150412'
p1377
sg4
S'20150413\xc2\xa07:02AM UTC'
p1378
sg6
S'Preview: Twins at White Sox'
p1379
sa(dp1380
g2
S'http://www.reuters.com/article/2015/04/12/bkn-mavericks-lakers-preview-idUSMTZEB4COXBHC120150412'
p1381
sg4
S'20150413\xc2\xa07:02AM UTC'
p1382
sg6
S'Preview: Mavericks at Lakers'
p1383
sa(dp1384
g2
S'http://www.reuters.com/article/2015/04/12/bbo-nationals-phillies-preview-idUSMTZEB4COXBHC020150412'
p1385
sg4
S'20150413\xc2\xa07:02AM UTC'
p1386
sg6
S'Preview: Nationals at Phillies'
p1387
sa(dp1388
g2
S'http://www.reuters.com/article/2015/04/12/bbo-pirates-brewers-preview-idUSMTZEB4COXBHBZ20150412'
p1389
sg4
S'20150413\xc2\xa07:02AM UTC'
p1390
sg6
S'Preview: Pirates at Brewers'
p1391
sa(dp1392
g2
S'http://www.reuters.com/article/2015/04/12/bbo-astros-rangers-preview-idUSMTZEB4COXBHBY20150412'
p1393
sg4
S'20150413\xc2\xa07:02AM UTC'
p1394
sg6
S'Preview: Astros at Rangers'
p1395
sa(dp1396
g2
S'http://www.reuters.com/article/2015/04/12/bkn-hawks-wizards-preview-idUSMTZEB4COXBHBX20150412'
p1397
sg4
S'20150413\xc2\xa07:02AM UTC'
p1398
sg6
S'Preview: Hawks at Wizards'
p1399
sa(dp1400
g2
S'http://www.reuters.com/article/2015/04/12/bbo-royals-angels-preview-idUSMTZEB4COXBGBV20150412'
p1401
sg4
S'20150413\xc2\xa07:02AM UTC'
p1402
sg6
S'Preview: Royals at Angels'
p1403
sa(dp1404
g2
S'http://www.reuters.com/article/2015/04/12/bkn-cavaliers-celtics-preview-idUSMTZEB4COXBGBU20150412'
p1405
sg4
S'20150413\xc2\xa07:02AM UTC'
p1406
sg6
S'Preview: Cavaliers at Celtics'
p1407
sa(dp1408
g2
S'http://www.reuters.com/article/2015/04/12/bbo-mariners-athletics-preview-idUSMTZEB4COXBGBS20150412'
p1409
sg4
S'20150413\xc2\xa07:02AM UTC'
p1410
sg6
S'Preview: Mariners at Athletics'
p1411
sa(dp1412
g2
S'http://www.reuters.com/article/2015/04/12/bkn-kings-nuggets-preview-idUSMTZEB4COXBGBR20150412'
p1413
sg4
S'20150413\xc2\xa07:02AM UTC'
p1414
sg6
S'Preview: Kings at Nuggets'
p1415
sa(dp1416
g2
S'http://www.reuters.com/article/2015/04/12/bkn-bobcats-pistons-preview-idUSMTZEB4COXBGBQ20150412'
p1417
sg4
S'20150413\xc2\xa07:02AM UTC'
p1418
sg6
S'Preview: Hornets at Pistons'
p1419
sa(dp1420
g2
S'http://www.reuters.com/article/2015/04/12/bbo-giants-padres-preview-idUSMTZEB4COXBGBP20150412'
p1421
sg4
S'20150413\xc2\xa07:02AM UTC'
p1422
sg6
S'Preview: Giants at Padres'
p1423
sa(dp1424
g2
S'http://www.reuters.com/article/2015/04/12/bbo-dodgers-diamondbacks-preview-idUSMTZEB4COXBGBO20150412'
p1425
sg4
S'20150413\xc2\xa07:02AM UTC'
p1426
sg6
S'Preview: Dodgers at Diamondbacks'
p1427
sa(dp1428
g2
S'http://www.reuters.com/article/2015/04/12/bkn-nets-bucks-preview-idUSMTZEB4COXBGBW20150412'
p1429
sg4
S'20150413\xc2\xa07:02AM UTC'
p1430
sg6
S'Preview: Nets at Bucks'
p1431
sa(dp1432
g2
S'http://www.reuters.com/article/2015/04/12/bbo-cubs-rockies-preview-idUSMTZEB4COXBFBJ20150412'
p1433
sg4
S'20150413\xc2\xa07:02AM UTC'
p1434
sg6
S'Preview: Cubs at Rockies'
p1435
sa(dp1436
g2
S'http://www.reuters.com/article/2015/04/12/bbo-rays-marlins-preview-idUSMTZEB4COXBFBN20150412'
p1437
sg4
S'20150413\xc2\xa07:02AM UTC'
p1438
sg6
S'Preview: Rays at Marlins'
p1439
sa(dp1440
g2
S'http://www.reuters.com/article/2015/04/12/bbo-cardinals-reds-preview-idUSMTZEB4COXBFBM20150412'
p1441
sg4
S'20150413\xc2\xa07:02AM UTC'
p1442
sg6
S'Preview: Cardinals at Reds'
p1443
sa(dp1444
g2
S'http://www.reuters.com/article/2015/04/12/bbo-redsox-yankees-preview-idUSMTZEB4COXBFBL20150412'
p1445
sg4
S'20150413\xc2\xa07:02AM UTC'
p1446
sg6
S'Preview: Red Sox at Yankees'
p1447
sa(dp1448
g2
S'http://www.reuters.com/article/2015/04/12/bbo-bluejays-orioles-preview-idUSMTZEB4COXBFBK20150412'
p1449
sg4
S'20150413\xc2\xa07:02AM UTC'
p1450
sg6
S'Preview: Blue Jays at Orioles'
p1451
sa(dp1452
g2
S'http://www.reuters.com/article/2015/04/12/chile-copper-mines-idUSL2N0WZ28R20150412'
p1453
sg4
S'20150413\xc2\xa07:00AM UTC'
p1454
sg6
S'New reckoning for copper miners now running in the red'
p1455
sa(dp1456
g2
S'http://www.reuters.com/article/2015/04/12/us-china-environment-protest-idUSKBN0N30BK20150412'
p1457
sg4
S'20150413\xc2\xa06:59AM UTC'
p1458
sg6
S'Hundreds protest against pollution from south China coal plant'
p1459
sa(dp1460
g2
S'http://www.reuters.com/article/2015/04/12/emirates-dubai-court-china-idUSL5N0X908G20150412'
p1461
sg4
S'20150413\xc2\xa06:49AM UTC'
p1462
sg6
S"Dubai's financial court system seeking ties with China"
p1463
sa(dp1464
g2
S'http://www.reuters.com/article/2015/04/12/us-kuka-m-a-idUSKBN0N30B420150412'
p1465
sg4
S'20150413\xc2\xa06:38AM UTC'
p1466
sg6
S"Germany's Kuka open to more purchases after Swisslog deal: Welt am Sonntag"
p1467
sa(dp1468
g2
S'http://www.reuters.com/article/2015/04/12/us-germany-economy-growth-idUSKBN0N30AZ20150412'
p1469
sg4
S'20150413\xc2\xa06:34AM UTC'
p1470
sg6
S'BDI industry group sees German growth of 2 percent in 2015'
p1471
sa(dp1472
g2
S'http://www.reuters.com/article/2015/04/12/kuka-ma-idUSL5N0X90AK20150412'
p1473
sg4
S'20150413\xc2\xa06:34AM UTC'
p1474
sg6
S"Germany's Kuka open to more purchases after Swisslog deal -Welt am Sonntag"
p1475
sa(dp1476
g2
S'http://www.reuters.com/article/2015/04/12/us-athletics-marathon-paris-idUSKBN0N30AB20150412'
p1477
sg4
S'20150413\xc2\xa05:56AM UTC'
p1478
sg6
S'Kenyan Korir wins Paris marathon'
p1479
sa(dp1480
g2
S'http://www.reuters.com/article/2015/04/12/us-usa-iraq-exclusive-idUSKBN0N20LQ20150412'
p1481
sg4
S'20150413\xc2\xa05:52AM UTC'
p1482
sg6
S"Exclusive: Iraq's leader to seek arms with deferred payment on U.S. visit"
p1483
sa(dp1484
g2
S'http://www.reuters.com/article/2015/04/12/us-bangladesh-execution-idUSKBN0N20I420150412'
p1485
sg4
S'20150413\xc2\xa05:50AM UTC'
p1486
sg6
S'Bangladesh hangs Islamist leader for 1971 war crimes'
p1487
sa(dp1488
g2
S'http://www.reuters.com/article/2015/04/12/us-emirates-dubai-design-idUSKBN0N309F20150412'
p1489
sg4
S'20150413\xc2\xa05:37AM UTC'
p1490
sg6
S'From film to fashion, Dubai bids to be creative capital for Arab world'
p1491
sa(dp1492
g2
S'http://www.reuters.com/article/2015/04/12/us-malta-referendum-birdhunting-idUSKBN0N309D20150412'
p1493
sg4
S'20150413\xc2\xa05:34AM UTC'
p1494
sg6
S'Malta referendum extends spring bird hunting exception'
p1495
sa(dp1496
g2
S'http://www.reuters.com/article/2015/04/12/us-siemens-russia-idUSKBN0N308T20150412'
p1497
sg4
S'20150413\xc2\xa05:20AM UTC'
p1498
sg6
S'Siemens CEO says Russia sales have halved: newspaper'
p1499
sa(dp1500
g2
S'http://www.reuters.com/article/2015/04/12/emirates-dubai-design-idUSL6N0WH0OG20150412'
p1501
sg4
S'20150413\xc2\xa05:13AM UTC'
p1502
sg6
S'From film to fashion, Dubai bids to be creative capital for Arab world'
p1503
sa(dp1504
g2
S'http://www.reuters.com/article/2015/04/12/us-tennis-women-charleston-idUSKBN0N20OE20150412'
p1505
sg4
S'20150413\xc2\xa05:07AM UTC'
p1506
sg6
S'Kerber defeats Petkovic, to face Keys in Charleston final'
p1507
sa(dp1508
g2
S'http://www.reuters.com/article/2015/04/12/emirates-realestate-regulations-idUSL5N0X902920150412'
p1509
sg4
S'20150413\xc2\xa04:34AM UTC'
p1510
sg6
S'Rules needed on yacht gimmicks to investors in Dubai property - Emaar chair'
p1511
sa(dp1512
g2
S'http://www.reuters.com/article/2015/04/12/stocks-mideast-idUSL5N0X906520150412'
p1513
sg4
S'20150413\xc2\xa04:23AM UTC'
p1514
sg6
S'UPDATE 2-MIDEAST STOCKS-Oil, earnings lift Saudi Arabia'
p1515
sa(dp1516
g2
S'http://www.reuters.com/article/2015/04/12/us-global-economy-idUSKBN0N307020150412'
p1517
sg4
S'20150413\xc2\xa04:10AM UTC'
p1518
sg6
S'United States loses sparkle as Europe shows signs of hope'
p1519
sa(dp1520
g2
S'http://www.reuters.com/article/2015/04/12/us-eurozone-greece-deal-analysis-idUSKBN0N306W20150412'
p1521
sg4
S'20150413\xc2\xa04:05AM UTC'
p1522
sg6
S'Greece may have blown best hope of debt deal'
p1523
sa(dp1524
g2
S'http://www.reuters.com/article/2015/04/12/turkey-investment-idUSL5N0X640O20150412'
p1525
sg4
S'20150413\xc2\xa04:00AM UTC'
p1526
sg6
S"Istanbul's financial hub goal hampered by lightweight stock market"
p1527
sa(dp1528
g2
S'http://www.reuters.com/article/2015/04/12/bbo-reds-playerwatch-idUSMTZEB4COOALAE20150412'
p1529
sg4
S'20150413\xc2\xa03:47AM UTC'
p1530
sg6
S'Cincinnati Reds - PlayerWatch'
p1531
sa(dp1532
g2
S'http://www.reuters.com/article/2015/04/12/bbo-cardinals-playerwatch-idUSMTZEB4COOALAC20150412'
p1533
sg4
S'20150413\xc2\xa03:47AM UTC'
p1534
sg6
S'St. Louis Cardinals - PlayerWatch'
p1535
sa(dp1536
g2
S'http://www.reuters.com/article/2015/04/12/nbad-wealth-idUSL5N0X624A20150412'
p1537
sg4
S'20150413\xc2\xa03:28AM UTC'
p1538
sg6
S'UAE bank NBAD targets Africa, Asia for wealth management growth'
p1539
sa(dp1540
g2
S'http://www.reuters.com/article/2015/04/12/us-iran-television-cybercrime-idUSKBN0N306520150412'
p1541
sg4
S'20150413\xc2\xa03:22AM UTC'
p1542
sg6
S"Iran's state TV social media accounts hacked "
p1543
sa(dp1544
g2
S'http://www.reuters.com/article/2015/04/12/iran-television-cybercrime-idUSL5N0X902720150412'
p1545
sg4
S'20150413\xc2\xa03:20AM UTC'
p1546
sg6
S"Iran's state TV social media accounts hacked"
p1547
sa(dp1548
g2
S'http://www.reuters.com/article/2015/04/12/bbo-cubs-rockies-writethru-idUSMTZEB4COD6O0X20150412'
p1549
sg4
S'20150413\xc2\xa03:11AM UTC'
p1550
sg6
S"Cubs' bats come alive in win over Rockies"
p1551
sa(dp1552
g2
S'http://www.reuters.com/article/2015/04/12/stocks-mideast-idUSL5N0X902E20150412'
p1553
sg4
S'20150413\xc2\xa02:57AM UTC'
p1554
sg6
S'UPDATE 1-MIDEAST STOCKS-Gulf markets edge up on positive news, background'
p1555
sa(dp1556
g2
S'http://www.reuters.com/article/2015/04/12/bbo-dodgers-diamondbacks-writethru-idUSMTZEB4COBUTWS20150412'
p1557
sg4
S'20150413\xc2\xa02:24AM UTC'
p1558
sg6
S'Bradley wins big league debut for Diamondbacks'
p1559
sa(dp1560
g2
S'http://www.reuters.com/article/2015/04/12/bkn-grizzlies-clippers-writethru-idUSMTZEB4COG5L5A20150412'
p1561
sg4
S'20150413\xc2\xa02:19AM UTC'
p1562
sg6
S'Clippers pull into tie for second in West with win'
p1563
sa(dp1564
g2
S'http://www.reuters.com/article/2015/04/12/bkn-timberwolves-warriors-writethru-idUSMTZEB4COH196W20150412'
p1565
sg4
S'20150413\xc2\xa02:14AM UTC'
p1566
sg6
S'Curry leads Warriors to record 37th home win'
p1567
sa(dp1568
g2
S'http://www.reuters.com/article/2015/04/12/idUS240869323420150412'
p1569
sg4
S'20150413\xc2\xa02:07AM UTC'
p1570
sg6
S'Markets Weekahead: Don\xe2\x80\x99t get swayed by the small-cap rally'
p1571
sa(dp1572
g2
S'http://www.reuters.com/article/2015/04/12/emaar-properties-chairman-idUSL5N0X901S20150412'
p1573
sg4
S'20150413\xc2\xa02:01AM UTC'
p1574
sg6
S'Emaar chairman insists Dubai developer still his focus -media'
p1575
sa(dp1576
g2
S'http://www.reuters.com/article/2015/04/12/china-rice-idUSL4N0X903620150412'
p1577
sg4
S'20150413\xc2\xa01:55AM UTC'
p1578
sg6
S'China super-rice grower blames weather, fungus for harvest failure'
p1579
sa(dp1580
g2
S'http://www.reuters.com/article/2015/04/12/stocks-mideast-idUSL5N0X901P20150412'
p1581
sg4
S'20150413\xc2\xa01:44AM UTC'
p1582
sg6
S'MIDEAST STOCKS-Gulf stocks may rise on oil, earnings expectations'
p1583
sa(dp1584
g2
S'http://www.reuters.com/article/2015/04/12/bbo-giants-padres-writethru-idUSMTZEB4COEA12820150412'
p1585
sg4
S'20150413\xc2\xa01:32AM UTC'
p1586
sg6
S'Padres rough up Giants, Bumgarner'
p1587
sa(dp1588
g2
S'http://www.reuters.com/article/2015/04/12/hkn-oilers-canucks-recap-idUSMTZEB4COGUE6J20150412'
p1589
sg4
S'20150413\xc2\xa01:26AM UTC'
p1590
sg6
S'Canucks 6, Oilers 5 (OT)'
p1591
sa(dp1592
g2
S'http://www.reuters.com/article/2015/04/12/bbo-royals-angels-writethru-idUSMTZEB4COE401W20150412'
p1593
sg4
S'20150413\xc2\xa01:26AM UTC'
p1594
sg6
S'Morales, Royals win fifth straight'
p1595
sa(dp1596
g2
S'http://www.reuters.com/article/2015/04/12/us-saudi-minister-health-idUSKBN0N305J20150412'
p1597
sg4
S'20150413\xc2\xa01:22AM UTC'
p1598
sg6
S'Saudi king relieves health minister, second in a month'
p1599
sa(dp1600
g2
S'http://www.reuters.com/article/2015/04/12/us-golf-australia-norman-idUSKBN0N305D20150412'
p1601
sg4
S'20150413\xc2\xa01:16AM UTC'
p1602
sg6
S'Norman feels sorry for fallen Woods'
p1603
sa(dp1604
g2
S'http://www.reuters.com/article/2015/04/12/golf-australia-norman-idUSL4N0X902X20150412'
p1605
sg4
S'20150413\xc2\xa01:11AM UTC'
p1606
sg6
S'Golf-Norman feels sorry for fallen Woods'
p1607
sa(dp1608
g2
S'http://www.reuters.com/article/2015/04/12/car-nascar-sprint-writethru-idUSMTZEB4CODFL0Y20150412'
p1609
sg4
S'20150413\xc2\xa01:10AM UTC'
p1610
sg6
S'Johnson wins Duck Commander 500 in Texas'
p1611
sa(dp1612
g2
S'http://www.reuters.com/article/2015/04/12/hkn-blackhawks-avalanche-writethru-idUSMTZEB4COCYI0U20150412'
p1613
sg4
S'20150413\xc2\xa01:03AM UTC'
p1614
sg6
S'Blackhawks shrug off loss, focus on postseason'
p1615
sa(dp1616
g2
S'http://www.reuters.com/article/2015/04/12/us-soccer-mls-idUSKBN0N301P20150412'
p1617
sg4
S'20150413\xc2\xa01:00AM UTC'
p1618
sg6
S'Red Bulls battle back for draw at D.C, Union get first win'
p1619
sa(dp1620
g2
S'http://www.reuters.com/article/2015/04/12/kpmg-student-survey-idUSnPn2KQp57+98+PRN20150412'
p1621
sg4
S'20150413\xc2\xa01:00AM UTC'
p1622
sg6
S'Leading business students looking worldwide for job opportunities amid concern about global economic instability'
p1623
sa(dp1624
g2
S'http://www.reuters.com/article/2015/04/12/hkn-ducks-coyotes-writethru-idUSMTZEB4CODLO1320150412'
p1625
sg4
S'20150413\xc2\xa012:49AM UTC'
p1626
sg6
S'Ducks roll into playoffs; Coyotes end rough season'
p1627
sa(dp1628
g2
S'http://www.reuters.com/article/2015/04/12/bbo-nationals-phillies-writethru-idUSMTZEB4COC2AXB20150412'
p1629
sg4
S'20150413\xc2\xa012:30AM UTC'
p1630
sg6
S"Herrera's 10th-inning hit lifts Phillies"
p1631
sa(dp1632
g2
S'http://www.reuters.com/article/2015/04/12/hkn-predators-stars-writethru-idUSMTZEB4COB22SR20150412'
p1633
sg4
S'20150413\xc2\xa012:27AM UTC'
p1634
sg6
S"Stars' Benn nets hat-trick in win over Predators"
p1635
sa(dp1636
g2
S'http://www.reuters.com/article/2015/04/12/us-china-usa-corruption-idUSKBN0N20AI20150412'
p1637
sg4
S'20150413\xc2\xa012:21AM UTC'
p1638
sg6
S'China says U.S. backs its campaign to hunt down "economic fugitives"'
p1639
sa(dp1640
g2
S'http://www.reuters.com/article/2015/04/12/bbo-astros-rangers-writethru-idUSMTZEB4COCQ10120150412'
p1641
sg4
S'20150413\xc2\xa012:19AM UTC'
p1642
sg6
S"Rangers beat Astros behind Gallardo's solid outing"
p1643
sa(dp1644
g2
S'http://www.reuters.com/article/2015/04/12/us-athletics-jamaica-bolt-idUSKBN0N304T20150412'
p1645
sg4
S'20150413\xc2\xa012:09AM UTC'
p1646
sg6
S'Bolt keen on Gatlin showdown, any time'
p1647
sa(dp1648
g2
S'http://www.reuters.com/article/2015/04/12/bkn-76ers-bulls-writethru-idUSMTZEB4COAOXRR20150412'
p1649
sg4
S'20150413\xc2\xa012:09AM UTC'
p1650
sg6
S'Rose lifts Bulls over 76ers in home return'
p1651
sa(dp1652
g2
S'http://www.reuters.com/article/2015/04/12/bkn-raptors-heat-writethru-idUSMTZEB4CO9RJPR20150412'
p1653
sg4
S'20150413\xc2\xa012:06AM UTC'
p1654
sg6
S"Raptors clinch home court; Heat's postseason slipping"
p1655
sa(dp1656
g2
S'http://www.reuters.com/article/2015/04/12/census-daily-feature-idUSnPn6GgwZq+92+PRN20150412'
p1657
sg4
S'20150413\xc2\xa012:01AM UTC'
p1658
sg6
S'U.S. Census Bureau Daily Feature for April 12'
p1659
sa(dp1660
g2
S'http://www.reuters.com/news/video/videoStory?storyID=106706938'
p1661
sg4
S'20150413\xc2\xa011:14PM UTC'
p1662
sg6
S'Scarlett Johansson, Jennifer Lopez and Shailene Woodley hit the carpet at the MTV Movie Awards'
p1663
sa(dp1664
g2
S'http://www.reuters.com/news/video/videoStory?storyID=106705641'
p1665
sg4
S'20150413\xc2\xa09:19PM UTC'
p1666
sg6
S'Kanye West mobbed by fans after jumping into lake in Armenia'
p1667
sa(dp1668
g2
S'http://www.reuters.com/news/video/videoStory?storyID=106704718'
p1669
sg4
S'20150413\xc2\xa08:29PM UTC'
p1670
sg6
S'Spacey and the Kinks walk out big winners at Oliviers'
p1671
sa(dp1672
g2
S'http://www.reuters.com/news/video/videoStory?storyID=106704432'
p1673
sg4
S'20150413\xc2\xa08:17PM UTC'
p1674
sg6
S'Oklahoma officer kills suspect after mixing up gun with Taser: officials'
p1675
sa(dp1676
g2
S'http://www.reuters.com/news/video/videoStory?storyID=106702748'
p1677
sg4
S'20150413\xc2\xa06:55PM UTC'
p1678
sg6
S'Republicans sound off against Hillary in race for the White House'
p1679
sa(dp1680
g2
S'http://www.reuters.com/news/video/videoStory?storyID=106701461'
p1681
sg4
S'20150413\xc2\xa06:05PM UTC'
p1682
sg6
S'Police shooting of black man brings raw emotions to country'
p1683
sa(dp1684
g2
S'http://www.reuters.com/news/video/videoStory?storyID=106699662'
p1685
sg4
S'20150413\xc2\xa05:37PM UTC'
p1686
sg6
S'U.S. set to mark 150 years since Lincoln assassination'
p1687
sa(dp1688
g2
S'http://www.reuters.com/news/video/videoStory?storyID=106698870'
p1689
sg4
S'20150413\xc2\xa05:09PM UTC'
p1690
sg6
S'North Korea and the arts'
p1691
sa(dp1692
g2
S'http://www.reuters.com/news/video/videoStory?storyID=106698596'
p1693
sg4
S'20150413\xc2\xa05:03PM UTC'
p1694
sg6
S'More desperate migrants arrive on Italian shores'
p1695
sa(dp1696
g2
S'http://www.reuters.com/news/video/videoStory?storyID=106698284'
p1697
sg4
S'20150413\xc2\xa04:46PM UTC'
p1698
sg6
S"A look at Clinton's lighter side, family life"
p1699
sa(dp1700
g2
S'http://www.reuters.com/news/video/videoStory?storyID=106698082'
p1701
sg4
S'20150413\xc2\xa04:43PM UTC'
p1702
sg6
S"Countdown to cherry blossoms' peak"
p1703
sa(dp1704
g2
S'http://www.reuters.com/news/video/videoStory?storyID=106697500'
p1705
sg4
S'20150413\xc2\xa04:19PM UTC'
p1706
sg6
S'Easter in the trenches for Ukrainian troops'
p1707
sa(dp1708
g2
S'http://www.reuters.com/news/video/videoStory?storyID=106696665'
p1709
sg4
S'20150413\xc2\xa03:38PM UTC'
p1710
sg6
S'Armenian fans mob US reality star Kim Kardashian'
p1711
sa(dp1712
g2
S'http://www.reuters.com/news/video/videoStory?storyID=106696544'
p1713
sg4
S'20150413\xc2\xa03:37PM UTC'
p1714
sg6
S'Hillary Clinton announces presidential run'
p1715
sa(dp1716
g2
S'http://www.reuters.com/news/video/videoStory?storyID=106696823'
p1717
sg4
S'20150413\xc2\xa03:32PM UTC'
p1718
sg6
S'Clinton announces she is running for president'
p1719
sa(dp1720
g2
S'http://www.reuters.com/news/video/videoStory?storyID=106695843'
p1721
sg4
S'20150413\xc2\xa02:50PM UTC'
p1722
sg6
S'"Furious 7" races to top of the box office'
p1723
sa(dp1724
g2
S'http://www.reuters.com/news/video/videoStory?storyID=106695476'
p1725
sg4
S'20150413\xc2\xa02:39PM UTC'
p1726
sg6
S"Ahead of anniversary of girls' abduction, Nigerians put faith in prayers"
p1727
sa(dp1728
g2
S'http://www.reuters.com/news/video/videoStory?storyID=106694976'
p1729
sg4
S'20150413\xc2\xa02:05PM UTC'
p1730
sg6
S"Orthodox Christians hold Easter procession in Jerusalem's Old City"
p1731
sa(dp1732
g2
S'http://www.reuters.com/news/video/videoStory?storyID=106694520'
p1733
sg4
S'20150413\xc2\xa01:46PM UTC'
p1734
sg6
S'Roasted lamb for the city\xe2\x80\x99s poor in Athens on Easter'
p1735
sa(dp1736
g2
S'http://www.reuters.com/news/video/videoStory?storyID=106694280'
p1737
sg4
S'20150413\xc2\xa01:18PM UTC'
p1738
sg6
S'Israel\'s Netanyahu warns against "bad deal" with Iran'
p1739
sa(dp1740
g2
S'http://www.reuters.com/news/video/videoStory?storyID=106694171'
p1741
sg4
S'20150413\xc2\xa01:15PM UTC'
p1742
sg6
S'Baby orangutan dazzles Utah zoo'
p1743
sa(dp1744
g2
S'http://www.reuters.com/news/video/videoStory?storyID=106693354'
p1745
sg4
S'20150413\xc2\xa012:41PM UTC'
p1746
sg6
S'Haunting footage as fires burn in a remote Siberian republic'
p1747
sa(dp1748
g2
S'http://www.reuters.com/news/video/videoStory?storyID=106693358'
p1749
sg4
S'20150413\xc2\xa012:35PM UTC'
p1750
sg6
S'Electrical explosion causes chaotic campus stampede in Nairobi'
p1751
sa(dp1752
g2
S'http://www.reuters.com/news/video/videoStory?storyID=106692556'
p1753
sg4
S'20150413\xc2\xa011:38AM UTC'
p1754
sg6
S"Republican hopeful Paul criticizes Clinton on women's rights"
p1755
sa(dp1756
g2
S'http://www.reuters.com/news/video/videoStory?storyID=106691710'
p1757
sg4
S'20150413\xc2\xa010:59AM UTC'
p1758
sg6
S'Jeb Bush takes stab at "Obama/Clinton" foreign policy'
p1759
sa(dp1760
g2
S'http://www.reuters.com/news/video/videoStory?storyID=106691140'
p1761
sg4
S'20150413\xc2\xa010:37AM UTC'
p1762
sg6
S'Insurers hamper wider DNA testing for cancer'
p1763
sa(dp1764
g2
S'http://www.reuters.com/news/video/videoStory?storyID=106691351'
p1765
sg4
S'20150413\xc2\xa010:36AM UTC'
p1766
sg6
S'UN to help refugees leave Yarmouk camp as fighting intensifies'
p1767
sa(dp1768
g2
S'http://www.reuters.com/news/video/videoStory?storyID=106691043'
p1769
sg4
S'20150413\xc2\xa09:59AM UTC'
p1770
sg6
S'Gunmen attack South Korea embassy in Tripoli, two guards killed'
p1771
sa(dp1772
g2
S'http://www.reuters.com/news/video/videoStory?storyID=106690371'
p1773
sg4
S'20150413\xc2\xa09:30AM UTC'
p1774
sg6
S'Joy and skepticism in Miami after Castro-Obama meeting'
p1775
sa(dp1776
g2
S'http://www.reuters.com/news/video/videoStory?storyID=106690273'
p1777
sg4
S'20150413\xc2\xa09:29AM UTC'
p1778
sg6
S'Joy and skepticism in Miami after Castro-Obama meeting'
p1779
sa(dp1780
g2
S'http://www.reuters.com/news/video/videoStory?storyID=106689697'
p1781
sg4
S'20150413\xc2\xa09:18AM UTC'
p1782
sg6
S"Pope Francis calls Armenian massacre 'first genocide of 20th century'"
p1783
sa(dp1784
g2
S'http://www.reuters.com/news/video/videoStory?storyID=106687391'
p1785
sg4
S'20150413\xc2\xa06:15AM UTC'
p1786
sg6
S'Rapper Nelly arrested'
p1787
sa(dp1788
g2
S'http://www.reuters.com/news/video/videoStory?storyID=106686722'
p1789
sg4
S'20150413\xc2\xa05:51AM UTC'
p1790
sg6
S'Pope marks Armenia massacre'
p1791
sa(dp1792
g2
S'http://www.reuters.com/news/video/videoStory?storyID=106685984'
p1793
sg4
S'20150413\xc2\xa05:11AM UTC'
p1794
sg6
S"Video: 'IS destruction of Nimrud'"
p1795
sa(dp1796
g2
S'http://www.reuters.com/news/video/videoStory?storyID=106685615'
p1797
sg4
S'20150413\xc2\xa04:38AM UTC'
p1798
sg6
S"'IS destruction of Nimrud' on video"
p1799
sa(dp1800
g2
S'http://www.reuters.com/news/video/videoStory?storyID=106684884'
p1801
sg4
S'20150413\xc2\xa03:44AM UTC'
p1802
sg6
S'UN pledges action over Syria camp'
p1803
sa(dp1804
g2
S'http://www.reuters.com/news/video/videoStory?storyID=106683677'
p1805
sg4
S'20150413\xc2\xa01:45AM UTC'
p1806
sg6
S'Bangladesh hangs war crimes convict'
p1807
sa(dp1808
g2
S'http://www.reuters.com/news/video/videoStory?storyID=106682748'
p1809
sg4
S'20150413\xc2\xa012:28AM UTC'
p1810
sg6
S'Indian fury over bailed attack suspect'
p1811
sa.