(lp0
(dp1
S'href'
p2
S'http://www.reuters.com/article/2015/05/10/us-cuba-gay-idUSKBN0NU0P320150510'
p3
sS'ts'
p4
S'20150510\xc2\xa011:59PM UTC'
p5
sS'title'
p6
S'Cuban gays show pride in march and mass symbolic wedding'
p7
sa(dp8
g2
S'http://www.reuters.com/article/2015/05/10/us-usa-california-plastics-idUSKBN0NT2F220150510'
p9
sg4
S'20150510\xc2\xa011:55PM UTC'
p10
sg6
S'California may require warnings on products containing chemical BPA'
p11
sa(dp12
g2
S'http://www.reuters.com/article/2015/05/10/bbo-mets-phillies-writethru-idUSMTZEB5A4315LB20150510'
p13
sg4
S'20150510\xc2\xa011:48PM UTC'
p14
sg6
S'Lagares breaks out of slump, rescues Mets'
p15
sa(dp16
g2
S'http://www.reuters.com/article/2015/05/10/us-nba-playoffs-grizzlies-idUSKBN0NV03320150510'
p17
sg4
S'20150510\xc2\xa011:48PM UTC'
p18
sg6
S'Memphis wins at home to take series lead'
p19
sa(dp20
g2
S'http://www.reuters.com/article/2015/05/10/us-yemen-security-saleh-idUSKBN0NV02V20150510'
p21
sg4
S'20150510\xc2\xa011:42PM UTC'
p22
sg6
S"Saudi-led forces target former Yemeni president's house in Sanaa"
p23
sa(dp24
g2
S'http://www.reuters.com/article/2015/05/10/us-usa-texas-cemetary-idUSKBN0NV02K20150510'
p25
sg4
S'20150510\xc2\xa011:38PM UTC'
p26
sg6
S'Falling cemetery headstone kills toddler in Texas'
p27
sa(dp28
g2
S'http://www.reuters.com/article/2015/05/10/bbo-cubs-brewers-writethru-idUSMTZEB5A443EOV20150510'
p29
sg4
S'20150510\xc2\xa011:33PM UTC'
p30
sg6
S'Brewers bust out the sticks, whip Cubs'
p31
sa(dp32
g2
S'http://www.reuters.com/article/2015/05/10/us-china-japan-ww2-anniversary-idUSKBN0NV02D20150510'
p33
sg4
S'20150510\xc2\xa011:28PM UTC'
p34
sg6
S'China paper slams Japan for lack of WW2 contrition'
p35
sa(dp36
g2
S'http://www.reuters.com/article/2015/05/10/bbo-cardinals-pirates-writethru-idUSMTZEB5A42R5JR20150510'
p37
sg4
S'20150510\xc2\xa011:17PM UTC'
p38
sg6
S"Triple play highlights Pirates' win vs. Cardinals"
p39
sa(dp40
g2
S'http://www.reuters.com/article/2015/05/10/idUSnMKWPPKHSa+1fe+MKW20150510'
p41
sg4
S'20150510\xc2\xa011:15PM UTC'
p42
sg6
S'First World War: Remembering those who never came home'
p43
sa(dp44
g2
S'http://www.reuters.com/article/2015/05/10/hkn-lightning-canadiens-writethru-idUSMTZEB5A42XXKY20150510'
p45
sg4
S'20150510\xc2\xa011:12PM UTC'
p46
sg6
S'Canadiens stay alive with 2-1 win'
p47
sa(dp48
g2
S'http://www.reuters.com/article/2015/05/10/us-nhl-playoffs-canadiens-idUSKBN0NV01J20150510'
p49
sg4
S'20150510\xc2\xa010:47PM UTC'
p50
sg6
S'Canadiens force Game Six with late goal'
p51
sa(dp52
g2
S'http://www.reuters.com/article/2015/05/10/bbo-rangers-rays-writethru-idUSMTZEB5A423RJ220150510'
p53
sg4
S'20150510\xc2\xa010:35PM UTC'
p54
sg6
S"Rays' Longoria, Souza rip Rangers"
p55
sa(dp56
g2
S'http://www.reuters.com/article/2015/05/10/bkn-hawks-wizards-writethru-idUSMTZEB5A3Y379I20150510'
p57
sg4
S'20150510\xc2\xa010:20PM UTC'
p58
sg6
S"Wizards win on Pierce's shot at buzzer"
p59
sa(dp60
g2
S'http://www.reuters.com/article/2015/05/10/car-nascar-sprint-writethru-idUSMTZEB593RRR1W20150510'
p61
sg4
S'20150510\xc2\xa010:09PM UTC'
p62
sg6
S'Allmendinger confirms contract extension with JTG Daugherty Racing'
p63
sa(dp64
g2
S'http://www.reuters.com/article/2015/05/10/indonesia-economy-idUSL4N0XX2JC20150510'
p65
sg4
S'20150510\xc2\xa010:01PM UTC'
p66
sg6
S"Political tensions mount for Indonesia's Widodo as economy skids"
p67
sa(dp68
g2
S'http://www.reuters.com/article/2015/05/10/us-ww2-anniversary-russia-idUSKBN0NU0A920150510'
p69
sg4
S'20150510\xc2\xa09:56PM UTC'
p70
sg6
S'Russia stages WW2 victory parade as Ukraine bristles'
p71
sa(dp72
g2
S'http://www.reuters.com/article/2015/05/10/us-usa-nuclearplant-incident-regulator-idUSKBN0NV00A20150510'
p73
sg4
S'20150510\xc2\xa09:51PM UTC'
p74
sg6
S'Indian point nuclear plant fire not a high risk: nuclear regulator'
p75
sa(dp76
g2
S'http://www.reuters.com/article/2015/05/10/us-usa-nuclearplant-incident-idUSKBN0NU0RN20150510'
p77
sg4
S'20150510\xc2\xa09:51PM UTC'
p78
sg6
S'Transformer fire causes shut-down of nuclear reactor north of New York City'
p79
sa(dp80
g2
S'http://www.reuters.com/article/2015/05/10/usa-nuclearplant-incident-idUSL1N0Y00OG20150510'
p81
sg4
S'20150510\xc2\xa09:47PM UTC'
p82
sg6
S'UPDATE 5-Transformer fire causes shut-down of nuclear reactor north of New York City'
p83
sa(dp84
g2
S'http://www.reuters.com/article/2015/05/10/dc-ncagc-awards-idUSnPn4X5kX0+92+PRN20150510'
p85
sg4
S'20150510\xc2\xa09:43PM UTC'
p86
sg6
S'At National Commemoration of the Armenian Genocide Centennial Banquet, 29 Heroes Recognized for Contributions to the Armenian Community'
p87
sa(dp88
g2
S'http://www.reuters.com/article/2015/05/10/philippines-typhoon-idUSL3N0Y100F20150510'
p89
sg4
S'20150510\xc2\xa09:42PM UTC'
p90
sg6
S'REFILE-Thousands stranded as strong typhoon nears Philippines'
p91
sa(dp92
g2
S'http://www.reuters.com/article/2015/05/10/us-nba-playoffs-wizards-idUSKBN0NV00W20150510'
p93
sg4
S'20150510\xc2\xa09:28PM UTC'
p94
sg6
S'Pierce buzzer-beater lifts Wizards past Hawks'
p95
sa(dp96
g2
S'http://www.reuters.com/article/2015/05/10/us-soccer-pele-idUSKBN0NV00U20150510'
p97
sg4
S'20150510\xc2\xa09:21PM UTC'
p98
sg6
S'Brazil soccer legend Pel\xc3\xa9 leaves hospital after prostate surgery'
p99
sa(dp100
g2
S'http://www.reuters.com/article/2015/05/10/soccer-pele-idUSL1N0Y100U20150510'
p101
sg4
S'20150510\xc2\xa08:55PM UTC'
p102
sg6
S'Brazil soccer legend Pel\xc3\xa9 leaves hospital after prostate surgery'
p103
sa(dp104
g2
S'http://www.reuters.com/article/2015/05/10/bbo-braves-nationals-writethru-idUSMTZEB5A3WGA7N20150510'
p105
sg4
S'20150510\xc2\xa08:48PM UTC'
p106
sg6
S"Nationals' Harper does it again: walk-off homer beats Braves"
p107
sa(dp108
g2
S'http://www.reuters.com/article/2015/05/10/idUSnMKWGDz4la+1f0+MKW20150510'
p109
sg4
S'20150510\xc2\xa08:46PM UTC'
p110
sg6
S'Des Hague Welcomed as Latest Member of DVEtelepresence Board'
p111
sa(dp112
g2
S'http://www.reuters.com/article/2015/05/10/bbo-twins-indians-writethru-idUSMTZEB5A3VRE6U20150510'
p113
sg4
S'20150510\xc2\xa08:35PM UTC'
p114
sg6
S'Red-hot Twins ride Hunter, Dozier to win'
p115
sa(dp116
g2
S'http://www.reuters.com/article/2015/05/10/usa-nuclearplant-incident-regulator-idUSL1N0Y100620150510'
p117
sg4
S'20150510\xc2\xa08:27PM UTC'
p118
sg6
S'Indian point nuclear plant fire not a high risk -U.S. nuclear regulator'
p119
sa(dp120
g2
S'http://www.reuters.com/article/2015/05/10/bbo-reds-whitesox-recap-idUSMTZEB5A3XR38E20150510'
p121
sg4
S'20150510\xc2\xa08:19PM UTC'
p122
sg6
S'Reds 10, White Sox 4'
p123
sa(dp124
g2
S'http://www.reuters.com/article/2015/05/10/us-eurozone-greece-eu-timmermans-idUSKBN0NV00520150510'
p125
sg4
S'20150510\xc2\xa08:17PM UTC'
p126
sg6
S"No 'Plan B' for Greece in debt talks, top EU official says"
p127
sa(dp128
g2
S'http://www.reuters.com/article/2015/05/10/us-golf-pga-idUSKBN0NU0R920150510'
p129
sg4
S'20150510\xc2\xa08:10PM UTC'
p130
sg6
S'Kirk surges to Players lead, McIlroy lurking'
p131
sa(dp132
g2
S'http://www.reuters.com/article/2015/05/09/bbo-braves-nationals-recap-idUSMTZEB5A3WGA7N20150509'
p133
sg4
S'20150510\xc2\xa07:50PM UTC'
p134
sg6
S'Nationals 8, Braves 6'
p135
sa(dp136
g2
S'http://www.reuters.com/article/2015/05/09/usa-nuclearplant-incident-nuclear-idUSL1N0Y00P720150509'
p137
sg4
S'20150510\xc2\xa07:44PM UTC'
p138
sg6
S'Transformer fire at NY nuclear plant is out, reactor undamaged - spokesman'
p139
sa(dp140
g2
S'http://www.reuters.com/article/2015/05/09/car-nascar-sprint-writethru-idUSMTZEB593RRR1W20150509'
p141
sg4
S'20150510\xc2\xa07:39PM UTC'
p142
sg6
S'Allmendinger confirms contract extension with JTG Daugherty Racing'
p143
sa(dp144
g2
S'http://www.reuters.com/article/2015/05/09/bbo-twins-indians-recap-idUSMTZEB5A3VRE6U20150509'
p145
sg4
S'20150510\xc2\xa07:36PM UTC'
p146
sg6
S'Twins 7, Indians 4'
p147
sa(dp148
g2
S'http://www.reuters.com/article/2015/05/09/us-usa-nuclearplant-incident-idUSKBN0NU0RN20150509'
p149
sg4
S'20150510\xc2\xa07:29PM UTC'
p150
sg6
S'Nuclear plant unit north of New York City shuts down after transformer failure'
p151
sa(dp152
g2
S'http://www.reuters.com/article/2015/05/09/usa-nuclearplant-incident-idUSL1N0Y00OG20150509'
p153
sg4
S'20150510\xc2\xa07:28PM UTC'
p154
sg6
S'UPDATE 2-Nuclear plant unit north of New York City shuts down after transformer failure'
p155
sa(dp156
g2
S'http://www.reuters.com/article/2015/05/09/uk-poland-vote-president-idUSKBN0NU0RX20150509'
p157
sg4
S'20150510\xc2\xa07:20PM UTC'
p158
sg6
S'Polish President Komorowski the front-runner in election'
p159
sa(dp160
g2
S'http://www.reuters.com/article/2015/05/09/colombia-coca-fumigation-idUSL1N0Y00OD20150509'
p161
sg4
S'20150510\xc2\xa07:17PM UTC'
p162
sg6
S'Colombia president to call for suspension of coca plant spraying'
p163
sa(dp164
g2
S'http://www.reuters.com/article/2015/05/09/idUSnMKW4DzzWa+1d2+MKW20150509'
p165
sg4
S'20150510\xc2\xa07:14PM UTC'
p166
sg6
S'Diamond Resorts - Vacations for Life - Williamsburg, VA - A Trip Back in Time'
p167
sa(dp168
g2
S'http://www.reuters.com/article/2015/05/09/us-turkey-evren-idUSKBN0NU0QQ20150509'
p169
sg4
S'20150510\xc2\xa07:04PM UTC'
p170
sg6
S'Former Turkish President Evren, symbol of military era, dies at 97'
p171
sa(dp172
g2
S'http://www.reuters.com/article/2015/05/09/eckrich-honors-family-idUSnPn1HwRt5+94+PRN20150509'
p173
sg4
S'20150510\xc2\xa06:57PM UTC'
p174
sg6
S'Kansas City Military Family Honored by Eckrich, Hy-Vee and NASCAR Driver Aric Almirola'
p175
sa(dp176
g2
S'http://www.reuters.com/article/2015/05/09/us-weather-storm-ana-idUSKBN0NT1R420150509'
p177
sg4
S'20150510\xc2\xa06:53PM UTC'
p178
sg6
S'Tropical Storm Ana threatens Carolinas with rough surf, rain'
p179
sa(dp180
g2
S'http://www.reuters.com/article/2015/05/09/ca-commercewest-bank-idUSnPn2hgFrq+84+PRN20150509'
p181
sg4
S'20150510\xc2\xa06:33PM UTC'
p182
sg6
S'CommerceWest Bank and Local Businesses Combine Their Efforts to Fight Child Abuse and Hunger'
p183
sa(dp184
g2
S'http://www.reuters.com/article/2015/05/09/us-fiat-chrysler-marchionne-tech-idUSKBN0NU0RD20150509'
p185
sg4
S'20150510\xc2\xa06:28PM UTC'
p186
sg6
S'Fiat Chrysler CEO says met with Tesla, Apple CEOs'
p187
sa(dp188
g2
S'http://www.reuters.com/article/2015/05/09/fiat-chrysler-marchionne-tech-idUSL1N0Y00NA20150509'
p189
sg4
S'20150510\xc2\xa06:26PM UTC'
p190
sg6
S'UPDATE 1-Fiat Chrysler CEO says met with Tesla, Apple CEOs'
p191
sa(dp192
g2
S'http://www.reuters.com/article/2015/05/09/us-usa-michigan-airport-idUSKBN0NU0RJ20150509'
p193
sg4
S'20150510\xc2\xa06:16PM UTC'
p194
sg6
S'Detroit airport terminal evacuated for 2 hours, man detained'
p195
sa(dp196
g2
S'http://www.reuters.com/article/2015/05/09/us-britain-election-protest-idUSKBN0NU0OX20150509'
p197
sg4
S'20150510\xc2\xa06:14PM UTC'
p198
sg6
S'Anti-Cameron protesters scuffle with London police, 17 arrested'
p199
sa(dp200
g2
S'http://www.reuters.com/article/2015/05/09/us-macedonia-police-idUSKBN0NU06X20150509'
p201
sg4
S'20150510\xc2\xa06:14PM UTC'
p202
sg6
S"Gunfire, explosions in Macedonia as police battle 'armed group'"
p203
sa(dp204
g2
S'http://www.reuters.com/article/2015/05/09/us-britain-election-voting-idUSKBN0NR2LU20150509'
p205
sg4
S'20150510\xc2\xa06:13PM UTC'
p206
sg6
S'Cameron savors shock triumph in British election'
p207
sa(dp208
g2
S'http://www.reuters.com/article/2015/05/09/us-britain-election-cameron-idUSKBN0NT21V20150509'
p209
sg4
S'20150510\xc2\xa06:13PM UTC'
p210
sg6
S"Britain's Cameron won big by selling stability over fear"
p211
sa(dp212
g2
S'http://www.reuters.com/article/2015/05/09/us-britain-politics-cabinet-idUSKBN0NU0RH20150509'
p213
sg4
S'20150510\xc2\xa06:12PM UTC'
p214
sg6
S'Cameron to restore outspoken ally Gove to cabinet front line'
p215
sa(dp216
g2
S'http://www.reuters.com/article/2015/05/09/world-news-schedule-at-2200-gmt-6-pm-et-idUSL5N0Y00NV20150509'
p217
sg4
S'20150510\xc2\xa06:01PM UTC'
p218
sg6
S'WORLD NEWS SCHEDULE AT 2200 GMT/6 PM ET'
p219
sa(dp220
g2
S'http://www.reuters.com/article/2015/05/09/idUSnHUG8yvPHx+1c6+ONE20150509'
p221
sg4
S'20150510\xc2\xa06:00PM UTC'
p222
sg6
S'Photo Release -- ArKay is Launching a Collection of 16 Halal Drinks Created Especially for Our Muslim Friends.'
p223
sa(dp224
g2
S'http://www.reuters.com/article/2015/05/09/idUSnGNX5ZlLSW+1d7+GNW20150509'
p225
sg4
S'20150510\xc2\xa06:00PM UTC'
p226
sg6
S'Photo Release -- ArKay is Launching a Collection of 16 Halal Drinks Created Especially for Our Muslim Friends.'
p227
sa(dp228
g2
S'http://www.reuters.com/article/2015/05/09/bbo-orioles-yankees-writethru-idUSMTZEB593MVWZ120150509'
p229
sg4
S'20150510\xc2\xa05:53PM UTC'
p230
sg6
S'Orioles hit three homers in win over Yankees'
p231
sa(dp232
g2
S'http://www.reuters.com/article/2015/05/09/us-golf-pga-idUSKBN0NU0R920150509'
p233
sg4
S'20150510\xc2\xa05:46PM UTC'
p234
sg6
S'Kisner and Martin lead Players on another bad day for Woods'
p235
sa(dp236
g2
S'http://www.reuters.com/article/2015/05/09/bbo-royals-tigers-writethru-idUSMTZEB593M72YJ20150509'
p237
sg4
S'20150510\xc2\xa05:43PM UTC'
p238
sg6
S'Guthrie helps Royals beat Tigers'
p239
sa(dp240
g2
S'http://www.reuters.com/article/2015/05/09/us-tennis-men-madrid-idUSKBN0NU0K820150509'
p241
sg4
S'20150510\xc2\xa05:42PM UTC'
p242
sg6
S'Nadal to face Murray in heavyweight Madrid final'
p243
sa(dp244
g2
S'http://www.reuters.com/article/2015/05/09/fiat-chrysler-marchionne-tech-idUSL1N0XZ2GM20150509'
p245
sg4
S'20150510\xc2\xa05:40PM UTC'
p246
sg6
S'Fiat Chrysler CEO says met with Tesla, Apple CEOs'
p247
sa(dp248
g2
S'http://www.reuters.com/article/2015/05/09/us-exor-cushman-sale-idUSKBN0NU0R320150509'
p249
sg4
S'20150510\xc2\xa05:39PM UTC'
p250
sg6
S'TPG Capital looking to buy Cushman & Wakefield for $2 billion: Bloomberg'
p251
sa(dp252
g2
S'http://www.reuters.com/article/2015/05/09/us-cuba-gay-idUSKBN0NU0P320150509'
p253
sg4
S'20150510\xc2\xa05:14PM UTC'
p254
sg6
S'Cuban gays show pride in march and mass symbolic wedding'
p255
sa(dp256
g2
S'http://www.reuters.com/article/2015/05/09/us-nba-playoffs-rivers-idUSKBN0NU0QU20150509'
p257
sg4
S'20150510\xc2\xa05:10PM UTC'
p258
sg6
S"To Clippers' delight, Rivers more than just coach's kid"
p259
sa(dp260
g2
S'http://www.reuters.com/article/2015/05/09/us-yemen-security-saudi-un-idUSKBN0NU0PN20150509'
p261
sg4
S'20150510\xc2\xa05:03PM UTC'
p262
sg6
S'Saudi-led strikes in Yemen break international law: U.N. coordinator'
p263
sa(dp264
g2
S'http://www.reuters.com/article/2015/05/09/us-yemen-security-saudi-strikes-idUSKBN0NU0BF20150509'
p265
sg4
S'20150510\xc2\xa05:03PM UTC'
p266
sg6
S'Saudi-led coalition launches wave of air strikes on Yemen'
p267
sa(dp268
g2
S'http://www.reuters.com/article/2015/05/09/us-usa-nebraska-murder-idUSKBN0NU0QO20150509'
p269
sg4
S'20150510\xc2\xa05:01PM UTC'
p270
sg6
S'Nebraska police search for missing boy after mother found slain'
p271
sa(dp272
g2
S'http://www.reuters.com/article/2015/05/09/us-spain-crash-idUSKBN0NU0GK20150509'
p273
sg4
S'20150510\xc2\xa04:58PM UTC'
p274
sg6
S'Airbus A400M military transporter crashes on test flight, killing four'
p275
sa(dp276
g2
S'http://www.reuters.com/article/2015/05/09/bbo-redsox-bluejays-recap-idUSMTZEB593NWKZG20150509'
p277
sg4
S'20150510\xc2\xa04:58PM UTC'
p278
sg6
S'Blue Jays 7, Red Sox 1'
p279
sa(dp280
g2
S'http://www.reuters.com/article/2015/05/09/us-tennis-raonic-idUSKBN0NU0Q720150509'
p281
sg4
S'20150510\xc2\xa04:57PM UTC'
p282
sg6
S'Raonic to undergo surgery, out of Rome Masters'
p283
sa(dp284
g2
S'http://www.reuters.com/article/2015/05/09/idUSnMKWJjYkHa+1ea+MKW20150509'
p285
sg4
S'20150510\xc2\xa04:48PM UTC'
p286
sg6
S'Food Recall Warning: Killarney Market Brand Ground Beef Recalled Due to E. coli O157:H7'
p287
sa(dp288
g2
S'http://www.reuters.com/article/2015/05/09/exor-cushman-sale-idUSL1N0Y00LJ20150509'
p289
sg4
S'20150510\xc2\xa04:45PM UTC'
p290
sg6
S'TPG Capital looking to buy Cushman & Wakefield for $2 bln-Bloomberg'
p291
sa(dp292
g2
S'http://www.reuters.com/article/2015/05/09/spain-crash-idUSL5N0Y009720150509'
p293
sg4
S'20150510\xc2\xa04:38PM UTC'
p294
sg6
S'UPDATE 5-Airbus A400M military transporter crashes on test flight, killing four'
p295
sa(dp296
g2
S'http://www.reuters.com/article/2015/05/09/us-trade-obama-warren-idUSKBN0NU0Q520150509'
p297
sg4
S'20150510\xc2\xa04:36PM UTC'
p298
sg6
S"Warren 'absolutely wrong' on trade pact threat to Dodd-Frank: Obama"
p299
sa(dp300
g2
S'http://www.reuters.com/article/2015/05/09/us-usa-california-plastics-idUSKBN0NT2F220150509'
p301
sg4
S'20150510\xc2\xa04:33PM UTC'
p302
sg6
S'California may require warnings on products containing chemical BPA'
p303
sa(dp304
g2
S'http://www.reuters.com/article/2015/05/09/trade-obama-warren-idUSL1N0Y00K320150509'
p305
sg4
S'20150510\xc2\xa04:19PM UTC'
p306
sg6
S"Obama: Warren 'absolutely wrong' on trade pact threat to Dodd-Frank"
p307
sa(dp308
g2
S'http://www.reuters.com/article/2015/05/09/usa-california-plastics-idUSL1N0XZ2NS20150509'
p309
sg4
S'20150510\xc2\xa04:03PM UTC'
p310
sg6
S'CORRECTED-California may require warnings on products containing chemical BPA'
p311
sa(dp312
g2
S'http://www.reuters.com/article/2015/05/09/idUSnGNX4MpL8x+1d4+GNW20150509'
p313
sg4
S'20150510\xc2\xa04:00PM UTC'
p314
sg6
S'RESONANT INVESTOR ALERT: Faruqi & Faruqi, LLP Reminds Investors With Losses in Excess of $100,000 to Contact the Firm Regarding the Imminent Lead Plaintiff Deadline in Class Action Against Resonant, Inc. (RESN)'
p315
sa(dp316
g2
S'http://www.reuters.com/article/2015/05/09/us-libya-oil-idUSKBN0NU0PF20150509'
p317
sg4
S'20150510\xc2\xa03:52PM UTC'
p318
sg6
S"Tanker at Libya's Zueitina port lifting oil; new crude flows still blocked"
p319
sa(dp320
g2
S'http://www.reuters.com/article/2015/05/09/macedonia-police-idUSL5N0Y003N20150509'
p321
sg4
S'20150510\xc2\xa03:42PM UTC'
p322
sg6
S'UPDATE 5-Gunfire, explosions in Macedonia as police battle "armed group"'
p323
sa(dp324
g2
S'http://www.reuters.com/article/2015/05/09/us-ww2-anniversary-russia-idUSKBN0NU0A920150509'
p325
sg4
S'20150510\xc2\xa03:42PM UTC'
p326
sg6
S'Russia stages WW2 victory parade as Ukraine bristles'
p327
sa(dp328
g2
S'http://www.reuters.com/article/2015/05/09/idUSL1N0Y00K620150509'
p329
sg4
S'20150510\xc2\xa03:41PM UTC'
p330
sg6
S'MEDIA-Charter seeking at least $25 bln in financing for Time Warner merger -WSJ'
p331
sa(dp332
g2
S'http://www.reuters.com/article/2015/05/09/idUSnMKWY6K6ma+1e8+MKW20150509'
p333
sg4
S'20150510\xc2\xa03:23PM UTC'
p334
sg6
S'Three Steps to Digging Safely This Long Weekend'
p335
sa(dp336
g2
S'http://www.reuters.com/article/2015/05/09/cuba-gay-idUSL1N0Y00E520150509'
p337
sg4
S'20150510\xc2\xa03:08PM UTC'
p338
sg6
S'Cuban gays show pride in march and mass symbolic wedding'
p339
sa(dp340
g2
S'http://www.reuters.com/article/2015/05/09/us-alibaba-zulily-idUSKBN0NU0ON20150509'
p341
sg4
S'20150510\xc2\xa03:04PM UTC'
p342
sg6
S'Alibaba sweeps up shares of retailer Zulily, now holds 9.2 percent stake'
p343
sa(dp344
g2
S'http://www.reuters.com/article/2015/05/09/idUSnGNX7byhC8+1c2+GNW20150509'
p345
sg4
S'20150510\xc2\xa03:00PM UTC'
p346
sg6
S'ACCELERATE INVESTOR ALERT: Faruqi & Faruqi, LLP Encourages Investors Who Suffered Losses in Excess of $100,000 Investing in Accelerate Diagnostics, Inc. (AXDX) to Contact the Firm Ahead of Imminent Lead Plaintiff Deadline'
p347
sa(dp348
g2
S'http://www.reuters.com/article/2015/05/09/us-iraq-security-idUSKBN0NU07H20150509'
p349
sg4
S'20150510\xc2\xa03:00PM UTC'
p350
sg6
S'Fifty inmates and 12 police killed in Iraq prison break: officials'
p351
sa(dp352
g2
S'http://www.reuters.com/article/2015/05/09/alibaba-zulily-idUSL1N0Y00IR20150509'
p353
sg4
S'20150510\xc2\xa02:55PM UTC'
p354
sg6
S'Alibaba sweeps up shares of retailer Zulily, now holds 9.2 pct stake'
p355
sa(dp356
g2
S'http://www.reuters.com/article/2015/05/09/us-spain-crash-a400m-facts-factbox-idUSKBN0NU0OB20150509'
p357
sg4
S'20150510\xc2\xa02:44PM UTC'
p358
sg6
S'Facbox: Airbus A400M military transport plane'
p359
sa(dp360
g2
S'http://www.reuters.com/article/2015/05/09/us-spain-crash-germany-idUSKBN0NU0NU20150509'
p361
sg4
S'20150510\xc2\xa02:21PM UTC'
p362
sg6
S'Germany grounds Airbus A400M after Spain crash'
p363
sa(dp364
g2
S'http://www.reuters.com/article/2015/05/09/spain-crash-germany-idUSL5N0Y00J120150509'
p365
sg4
S'20150510\xc2\xa02:20PM UTC'
p366
sg6
S'Germany grounds Airbus A400M after Spain crash'
p367
sa(dp368
g2
S'http://www.reuters.com/article/2015/05/09/us-eurozone-crisis-talks-idUSKBN0NU0NO20150509'
p369
sg4
S'20150510\xc2\xa02:20PM UTC'
p370
sg6
S'Greece calls on EU/IMF lenders to show political will for deal '
p371
sa(dp372
g2
S'http://www.reuters.com/article/2015/05/09/us-russia-czech-idUSKBN0NU0NM20150509'
p373
sg4
S'20150510\xc2\xa02:16PM UTC'
p374
sg6
S'On Kremlin visit, Czech president is among friends'
p375
sa(dp376
g2
S'http://www.reuters.com/article/2015/05/09/eurozone-crisis-talks-idUSL5N0Y00I520150509'
p377
sg4
S'20150510\xc2\xa02:13PM UTC'
p378
sg6
S'Greece calls on EU/IMF lenders to show political will for deal'
p379
sa(dp380
g2
S'http://www.reuters.com/article/2015/05/09/idUSnGNX83Sn3k+1c8+GNW20150509'
p381
sg4
S'20150510\xc2\xa02:00PM UTC'
p382
sg6
S'ACADIA INVESTOR ALERT: Faruqi & Faruqi, LLP Encourages Investors Who Suffered Losses in Excess of $100,000 Investing in Acadia Pharmaceuticals, Inc. (ACAD) to Contact the Firm Before the Imminent Lead Plaintiff Deadline'
p383
sa(dp384
g2
S'http://www.reuters.com/article/2015/05/09/us-refinery-strike-bp-whiting-idUSKBN0NU0N820150509'
p385
sg4
S'20150510\xc2\xa01:48PM UTC'
p386
sg6
S"Union, BP agree terms for workers' return to Whiting oil refinery"
p387
sa(dp388
g2
S'http://www.reuters.com/article/2015/05/09/us-usa-security-nuclear-idUSKBN0NT21P20150509'
p389
sg4
S'20150510\xc2\xa01:41PM UTC'
p390
sg6
S'Nun, activists did not sabotage Tennessee nuclear site: appeals court'
p391
sa(dp392
g2
S'http://www.reuters.com/article/2015/05/09/us-southsudan-unrest-idUSKBN0NU0N020150509'
p393
sg4
S'20150510\xc2\xa01:37PM UTC'
p394
sg6
S'Tens of thousands flee fighting in South Sudan, aid groups withdraw'
p395
sa(dp396
g2
S'http://www.reuters.com/article/2015/05/09/us-tennis-women-madrid-idUSKBN0NU0MY20150509'
p397
sg4
S'20150510\xc2\xa01:33PM UTC'
p398
sg6
S'Kvitova downs ailing Kuznetsova for second Madrid title'
p399
sa(dp400
g2
S'http://www.reuters.com/article/2015/05/09/us-peru-southern-copper-protests-idUSKBN0NU0MW20150509'
p401
sg4
S'20150510\xc2\xa01:31PM UTC'
p402
sg6
S'Peru sends in army to control clashes over copper project'
p403
sa(dp404
g2
S'http://www.reuters.com/article/2015/05/09/us-usa-weather-oklahoma-idUSKBN0NU0MM20150509'
p405
sg4
S'20150510\xc2\xa01:23PM UTC'
p406
sg6
S'Severe storms, possible tornadoes to batter Great Plains'
p407
sa(dp408
g2
S'http://www.reuters.com/article/2015/05/09/ny-end-gun-violence-idUSnPn1syQNR+87+PRN20150509'
p409
sg4
S'20150510\xc2\xa01:15PM UTC'
p410
sg6
S'Hundreds Join Everytown And Moms Demand Action Today For Third Annual Brooklyn Bridge March And Rally To End Gun Violence'
p411
sa(dp412
g2
S'http://www.reuters.com/article/2015/05/09/motor-racing-prix-raikkonen-idUSL3N0Y000B20150509'
p413
sg4
S'20150510\xc2\xa01:06PM UTC'
p414
sg6
S'Motor racing-Burning blanket costs Raikkonen a set of tyres'
p415
sa(dp416
g2
S'http://www.reuters.com/article/2015/05/09/peru-southern-copper-protests-idUSL5N0Y00HA20150509'
p417
sg4
S'20150510\xc2\xa01:05PM UTC'
p418
sg6
S'Peru sends in army to control clashes over copper project'
p419
sa(dp420
g2
S'http://www.reuters.com/article/2015/05/09/usa-weather-oklahoma-idUSL1N0Y00FA20150509'
p421
sg4
S'20150510\xc2\xa01:02PM UTC'
p422
sg6
S'Severe storms, possible tornadoes to batter Great Plains'
p423
sa(dp424
g2
S'http://www.reuters.com/article/2015/05/09/bbo-rays-playerwatch-idUSMTZEB593DXPV920150509'
p425
sg4
S'20150510\xc2\xa01:01PM UTC'
p426
sg6
S'Tampa Bay Rays - PlayerWatch'
p427
sa(dp428
g2
S'http://www.reuters.com/article/2015/05/09/bbo-cardinals-playerwatch-idUSMTZEB593DXPUV20150509'
p429
sg4
S'20150510\xc2\xa01:01PM UTC'
p430
sg6
S'St. Louis Cardinals - PlayerWatch'
p431
sa(dp432
g2
S'http://www.reuters.com/article/2015/05/09/bbo-nationals-playerwatch-idUSMTZEB593DXPUS20150509'
p433
sg4
S'20150510\xc2\xa01:01PM UTC'
p434
sg6
S'Washington Nationals - PlayerWatch'
p435
sa(dp436
g2
S'http://www.reuters.com/article/2015/05/09/bbo-orioles-playerwatch-idUSMTZEB593DXPV820150509'
p437
sg4
S'20150510\xc2\xa01:01PM UTC'
p438
sg6
S'Baltimore Orioles - PlayerWatch'
p439
sa(dp440
g2
S'http://www.reuters.com/article/2015/05/09/bbo-astros-playerwatch-idUSMTZEB593DXPUU20150509'
p441
sg4
S'20150510\xc2\xa01:01PM UTC'
p442
sg6
S'Houston Astros - PlayerWatch'
p443
sa(dp444
g2
S'http://www.reuters.com/article/2015/05/09/bbo-phillies-playerwatch-idUSMTZEB593DXPUQ20150509'
p445
sg4
S'20150510\xc2\xa01:01PM UTC'
p446
sg6
S'Philadelphia Phillies - PlayerWatch'
p447
sa(dp448
g2
S'http://www.reuters.com/article/2015/05/09/bbo-bluejays-playerwatch-idUSMTZEB593DXPV720150509'
p449
sg4
S'20150510\xc2\xa01:01PM UTC'
p450
sg6
S'Toronto Blue Jays - PlayerWatch'
p451
sa(dp452
g2
S'http://www.reuters.com/article/2015/05/09/bbo-braves-playerwatch-idUSMTZEB593DXPUP20150509'
p453
sg4
S'20150510\xc2\xa01:01PM UTC'
p454
sg6
S'Atlanta Braves - PlayerWatch'
p455
sa(dp456
g2
S'http://www.reuters.com/article/2015/05/09/bbo-redsox-playerwatch-idUSMTZEB593DXPV620150509'
p457
sg4
S'20150510\xc2\xa01:01PM UTC'
p458
sg6
S'Boston Red Sox - PlayerWatch'
p459
sa(dp460
g2
S'http://www.reuters.com/article/2015/05/09/bbo-rangers-playerwatch-idUSMTZEB593DXPUO20150509'
p461
sg4
S'20150510\xc2\xa01:01PM UTC'
p462
sg6
S'Texas Rangers - PlayerWatch'
p463
sa(dp464
g2
S'http://www.reuters.com/article/2015/05/09/bbo-pirates-playerwatch-idUSMTZEB593DXPV520150509'
p465
sg4
S'20150510\xc2\xa01:01PM UTC'
p466
sg6
S'Pittsburgh Pirates - PlayerWatch'
p467
sa(dp468
g2
S'http://www.reuters.com/article/2015/05/09/bbo-angels-playerwatch-idUSMTZEB593DXPUN20150509'
p469
sg4
S'20150510\xc2\xa01:01PM UTC'
p470
sg6
S'Los Angeles Angels - PlayerWatch'
p471
sa(dp472
g2
S'http://www.reuters.com/article/2015/05/09/bbo-padres-playerwatch-idUSMTZEB593DXPV420150509'
p473
sg4
S'20150510\xc2\xa01:01PM UTC'
p474
sg6
S'San Diego Padres - PlayerWatch'
p475
sa(dp476
g2
S'http://www.reuters.com/article/2015/05/09/bbo-athletics-playerwatch-idUSMTZEB593DXPUM20150509'
p477
sg4
S'20150510\xc2\xa01:01PM UTC'
p478
sg6
S'Oakland Athletics - PlayerWatch'
p479
sa(dp480
g2
S'http://www.reuters.com/article/2015/05/09/bbo-yankees-playerwatch-idUSMTZEB593DXPV220150509'
p481
sg4
S'20150510\xc2\xa01:01PM UTC'
p482
sg6
S'New York Yankees - PlayerWatch'
p483
sa(dp484
g2
S'http://www.reuters.com/article/2015/05/09/bbo-mariners-playerwatch-idUSMTZEB593DXPUL20150509'
p485
sg4
S'20150510\xc2\xa01:01PM UTC'
p486
sg6
S'Seattle Mariners - PlayerWatch'
p487
sa(dp488
g2
S'http://www.reuters.com/article/2015/05/09/bbo-diamondbacks-playerwatch-idUSMTZEB593DXPV020150509'
p489
sg4
S'20150510\xc2\xa01:01PM UTC'
p490
sg6
S'Arizona Diamondbacks - PlayerWatch'
p491
sa(dp492
g2
S'http://www.reuters.com/article/2015/05/09/bbo-tigers-playerwatch-idUSMTZEB593DXPUK20150509'
p493
sg4
S'20150510\xc2\xa01:01PM UTC'
p494
sg6
S'Detroit Tigers - PlayerWatch'
p495
sa(dp496
g2
S'http://www.reuters.com/article/2015/05/09/bbo-brewers-playerwatch-idUSMTZEB593DXPUY20150509'
p497
sg4
S'20150510\xc2\xa01:01PM UTC'
p498
sg6
S'Milwaukee Brewers - PlayerWatch'
p499
sa(dp500
g2
S'http://www.reuters.com/article/2015/05/09/bbo-indians-playerwatch-idUSMTZEB593DXPUJ20150509'
p501
sg4
S'20150510\xc2\xa01:01PM UTC'
p502
sg6
S'Cleveland Indians - PlayerWatch'
p503
sa(dp504
g2
S'http://www.reuters.com/article/2015/05/09/bbo-whitesox-playerwatch-idUSMTZEB593DXPVB20150509'
p505
sg4
S'20150510\xc2\xa01:01PM UTC'
p506
sg6
S'Chicago White Sox - PlayerWatch'
p507
sa(dp508
g2
S'http://www.reuters.com/article/2015/05/09/bbo-reds-playerwatch-idUSMTZEB593DXPUX20150509'
p509
sg4
S'20150510\xc2\xa01:01PM UTC'
p510
sg6
S'Cincinnati Reds - PlayerWatch'
p511
sa(dp512
g2
S'http://www.reuters.com/article/2015/05/09/bbo-twins-playerwatch-idUSMTZEB593DXPUI20150509'
p513
sg4
S'20150510\xc2\xa01:01PM UTC'
p514
sg6
S'Minnesota Twins - PlayerWatch'
p515
sa(dp516
g2
S'http://www.reuters.com/article/2015/05/09/bbo-royals-playerwatch-idUSMTZEB593DXPVA20150509'
p517
sg4
S'20150510\xc2\xa01:01PM UTC'
p518
sg6
S'Kansas City Royals - PlayerWatch'
p519
sa(dp520
g2
S'http://www.reuters.com/article/2015/05/09/bbo-cubs-playerwatch-idUSMTZEB593DXPUW20150509'
p521
sg4
S'20150510\xc2\xa01:01PM UTC'
p522
sg6
S'Chicago Cubs - PlayerWatch'
p523
sa(dp524
g2
S'http://www.reuters.com/article/2015/05/09/bbo-mets-playerwatch-idUSMTZEB593DXPUT20150509'
p525
sg4
S'20150510\xc2\xa01:01PM UTC'
p526
sg6
S'New York Mets - PlayerWatch'
p527
sa(dp528
g2
S'http://www.reuters.com/article/2015/05/09/us-spain-crash-raf-a400m-idUSKBN0NU0M620150509'
p529
sg4
S'20150510\xc2\xa01:00PM UTC'
p530
sg6
S"Britain's RAF suspends A400M flights after Spain crash"
p531
sa(dp532
g2
S'http://www.reuters.com/article/2015/05/09/idUSnGNX9b5pq4+1c0+GNW20150509'
p533
sg4
S'20150510\xc2\xa01:00PM UTC'
p534
sg6
S'INVESTOR ALERT: Faruqi & Faruqi, LLP Notifies Investors Who Suffered Losses in Excess of $100,000 Investing in Chemical & Mining Co. of Chile Inc. (SQM) to Contact the Firm Before the Imminent Lead Plaintiff Deadline'
p535
sa(dp536
g2
S'http://www.reuters.com/article/2015/05/09/us-usa-election-bush-idUSKBN0NU0L820150509'
p537
sg4
S'20150510\xc2\xa012:48PM UTC'
p538
sg6
S'At Christian University, Jeb Bush seeks support from evangelicals'
p539
sa(dp540
g2
S'http://www.reuters.com/article/2015/05/09/idUSnMKWg1GhKa+1ca+MKW20150509'
p541
sg4
S'20150510\xc2\xa012:30PM UTC'
p542
sg6
S'Celebrating Arts and Heritage in Trent Hills'
p543
sa(dp544
g2
S'http://www.reuters.com/article/2015/05/09/us-northkorea-submarine-idUSKBN0NU02V20150509'
p545
sg4
S'20150510\xc2\xa012:18PM UTC'
p546
sg6
S'North Korea boasts of firing ballistic missile from submarine'
p547
sa(dp548
g2
S'http://www.reuters.com/article/2015/05/09/northkorea-submarine-idUSL4N0Y005V20150509'
p549
sg4
S'20150510\xc2\xa012:17PM UTC'
p550
sg6
S'UPDATE 3-N.Korea boasts of firing ballistic missile from submarine'
p551
sa(dp552
g2
S'http://www.reuters.com/article/2015/05/09/us-health-ebola-liberia-idUSKBN0NT28J20150509'
p553
sg4
S'20150510\xc2\xa012:04PM UTC'
p554
sg6
S'Liberia declared Ebola-free, but outbreak continues over border'
p555
sa(dp556
g2
S'http://www.reuters.com/article/2015/05/09/us-bmw-succession-agm-idUSKBN0NU0LJ20150509'
p557
sg4
S'20150510\xc2\xa012:02PM UTC'
p558
sg6
S'ISS recommends BMW shareholders vote against Reithofer appointment: FAS'
p559
sa(dp560
g2
S'http://www.reuters.com/article/2015/05/09/wa-energy-northwest-idUSnBw095012a+100+BSW20150509'
p561
sg4
S'20150510\xc2\xa012:01PM UTC'
p562
sg6
S'Columbia Generating Station Sets Longest Run Record; Energy Northwest Begins Refueling and Maintenance Outage'
p563
sa(dp564
g2
S'http://www.reuters.com/article/2015/05/09/us-egypt-mubarak-idUSKBN0NU0D620150509'
p565
sg4
S'20150510\xc2\xa012:00PM UTC'
p566
sg6
S'Egyptian court sentences Mubarak and sons to three years in jail for corruption '
p567
sa(dp568
g2
S'http://www.reuters.com/article/2015/05/09/health-ebola-liberia-idUSL5N0Y004U20150509'
p569
sg4
S'20150510\xc2\xa012:00PM UTC'
p570
sg6
S'UPDATE 3-Liberia declared Ebola-free, but outbreak continues over border'
p571
sa(dp572
g2
S'http://www.reuters.com/article/2015/05/09/idUSnGNX84lYgZ+1c5+GNW20150509'
p573
sg4
S'20150510\xc2\xa012:00PM UTC'
p574
sg6
S'INVESTOR ALERT: Faruqi & Faruqi, LLP Encourages Investors Who Suffered Losses in Excess of $100,000 Investing in Lentuo International, Inc. (LAS) to Contact the Firm Before the Imminent Lead Plaintiff Deadline'
p575
sa(dp576
g2
S'http://www.reuters.com/article/2015/05/09/bmw-succession-agm-idUSL5N0Y00EK20150509'
p577
sg4
S'20150510\xc2\xa011:58AM UTC'
p578
sg6
S'ISS recommends BMW shareholders vote against Reithofer appointment -FAS'
p579
sa(dp580
g2
S'http://www.reuters.com/article/2015/05/09/us-quake-nepal-survivors-idUSKBN0NT0QF20150509'
p581
sg4
S'20150510\xc2\xa011:54AM UTC'
p582
sg6
S'Nepal earthquake survivors turn to rebuilding homes and lives'
p583
sa(dp584
g2
S'http://www.reuters.com/article/2015/05/09/india-economy-idUSL4N0Y007320150509'
p585
sg4
S'20150510\xc2\xa011:53AM UTC'
p586
sg6
S'Indian GDP to grow further after 7-7.5 pct last year-Jaitley'
p587
sa(dp588
g2
S'http://www.reuters.com/article/2015/05/09/us-egypt-television-idUSKBN0NU0KS20150509'
p589
sg4
S'20150510\xc2\xa011:52AM UTC'
p590
sg6
S"Egypt's state television channels resume broadcasting"
p591
sa(dp592
g2
S'http://www.reuters.com/article/2015/05/09/idUSL1N0Y00ET20150509'
p593
sg4
S'20150510\xc2\xa011:49AM UTC'
p594
sg6
S'MEDIA-Uber plans to raise up to $2 billion in new funding - WSJ'
p595
sa(dp596
g2
S'http://www.reuters.com/article/2015/05/09/us-burundi-politics-idUSKBN0NT0V520150509'
p597
sg4
S'20150510\xc2\xa011:43AM UTC'
p598
sg6
S'Burundi opposition leader to run for presidency; protests pause'
p599
sa(dp600
g2
S'http://www.reuters.com/article/2015/05/09/mideast-crisis-airstrikes-idUSKBN0NU0KE20150509'
p601
sg4
S'20150510\xc2\xa011:21AM UTC'
p602
sg6
S'U.S., allies conduct 28 air strikes against Islamic State: U.S. military'
p603
sa(dp604
g2
S'http://www.reuters.com/article/2015/05/09/china-russia-hydro-power-idUSL4N0Y007J20150509'
p605
sg4
S'20150510\xc2\xa011:00AM UTC'
p606
sg6
S'China, Russia agree to jointly build hydropower plant -Xinhua'
p607
sa(dp608
g2
S'http://www.reuters.com/article/2015/05/09/idUSnMKWyCx4fa+1d0+MKW20150509'
p609
sg4
S'20150510\xc2\xa011:00AM UTC'
p610
sg6
S'Announcement: McEwen Mining Q1 2015 Conference Call Monday May 11, 2 PM EDT'
p611
sa(dp612
g2
S'http://www.reuters.com/article/2015/05/09/idUSnGNX5XHRVc+1de+GNW20150509'
p613
sg4
S'20150510\xc2\xa011:00AM UTC'
p614
sg6
S'INVESTOR ALERT: Faruqi & Faruqi, LLP Reminds Investors Who Suffered Losses in Excess of $100,000 Investing in Omnicell, Inc. (OMCL) to Contact the Firm Ahead of the Imminent Lead Plaintiff Deadline'
p615
sa(dp616
g2
S'http://www.reuters.com/article/2015/05/09/idUSnCCN2pMCBX+1cf+MKW20150509'
p617
sg4
S'20150510\xc2\xa011:00AM UTC'
p618
sg6
S'Announcement: McEwen Mining Q1 2015 Conference Call Monday May 11, 2 PM EDT'
p619
sa(dp620
g2
S'http://www.reuters.com/article/2015/05/09/dc-susan-g-komen-idUSnBw095009a+100+BSW20150509'
p621
sg4
S'20150510\xc2\xa010:55AM UTC'
p622
sg6
S'Susan G. Komen Washington D.C. Race for the Cure\xc2\xae Commemorates 26Th Year Supporting Breast Health Progams in National Capital Region'
p623
sa(dp624
g2
S'http://www.reuters.com/article/2015/05/09/us-britain-election-scotland-idUSKBN0NU0JN20150509'
p625
sg4
S'20150510\xc2\xa010:54AM UTC'
p626
sg6
S'Scottish nationalists tell PM Cameron: Ignore Scottish landslide at your peril'
p627
sa(dp628
g2
S'http://www.reuters.com/article/2015/05/09/us-hongkong-china-us-congress-idUSKBN0NU0JF20150509'
p629
sg4
S'20150510\xc2\xa010:52AM UTC'
p630
sg6
S'U.S. Congressman says engagement with China has diminished under Xi'
p631
sa(dp632
g2
S'http://www.reuters.com/article/2015/05/09/fred-jordan-poor-moms-idUSnPn8qJlY8+8a+PRN20150509'
p633
sg4
S'20150510\xc2\xa010:50AM UTC'
p634
sg6
S"Today, Sat., May 9, LA's Homeless & Poorest Moms Celebrate Mother's Day at The Fred Jordan Mission On Skid Row"
p635
sa(dp636
g2
S'http://www.reuters.com/article/2015/05/09/us-spain-crash-casualties-idUSKBN0NU0IF20150509'
p637
sg4
S'20150510\xc2\xa010:43AM UTC'
p638
sg6
S'At least three dead in Seville plane crash: official '
p639
sa(dp640
g2
S'http://www.reuters.com/article/2015/05/09/hongkong-china-us-congress-idUSL1N0Y00AG20150509'
p641
sg4
S'20150510\xc2\xa010:39AM UTC'
p642
sg6
S'US Congressman says engagement with China has diminished under Xi'
p643
sa(dp644
g2
S'http://www.reuters.com/article/2015/05/09/us-usa-security-idUSKBN0NT1X720150509'
p645
sg4
S'20150510\xc2\xa010:25AM UTC'
p646
sg6
S'Pentagon says security at bases in U.S. highest in four years'
p647
sa(dp648
g2
S'http://www.reuters.com/article/2015/05/09/us-usa-defense-china-idUSKBN0NT25420150509'
p649
sg4
S'20150510\xc2\xa010:25AM UTC'
p650
sg6
S'China accelerates land reclamation in disputed islands: Pentagon'
p651
sa(dp652
g2
S'http://www.reuters.com/article/2015/05/09/usa-defense-china-idUSL1N0XZ20020150509'
p653
sg4
S'20150510\xc2\xa010:10AM UTC'
p654
sg6
S'REFILE-UPDATE 3-China accelerates land reclamation in disputed islands - Pentagon'
p655
sa(dp656
g2
S'http://www.reuters.com/article/2015/05/09/spain-crash-casualties-idUSS8N0VZ00720150509'
p657
sg4
S'20150510\xc2\xa010:04AM UTC'
p658
sg6
S'At least three dead in Seville plane crash - official'
p659
sa(dp660
g2
S'http://www.reuters.com/article/2015/05/09/idUSnGNX4dP6Fs+1ca+GNW20150509'
p661
sg4
S'20150510\xc2\xa010:00AM UTC'
p662
sg6
S'INVESTOR ALERT: Faruqi & Faruqi, LLP Encourages Investors Who Suffered Losses in Excess of $100,000 Investing in Inogen, Inc. (INGN) to Contact the Firm Before the Imminent Lead Plaintiff Deadline'
p663
sa(dp664
g2
S'http://www.reuters.com/article/2015/05/09/us-spain-crash-airbus-turkey-idUSKBN0NU0IC20150509'
p665
sg4
S'20150510\xc2\xa09:57AM UTC'
p666
sg6
S'Airbus says crashed A400M plane was for Turkey'
p667
sa(dp668
g2
S'http://www.reuters.com/article/2015/05/09/us-china-corruption-idUSKBN0NU0I620150509'
p669
sg4
S'20150510\xc2\xa09:56AM UTC'
p670
sg6
S'China brings former official suspected of graft back from Singapore'
p671
sa(dp672
g2
S'http://www.reuters.com/article/2015/05/09/us-eurozone-greece-germany-schaeuble-idUSKBN0NU0FL20150509'
p673
sg4
S'20150510\xc2\xa09:46AM UTC'
p674
sg6
S'Germany sees no Greek debt deal on Monday, warns against default'
p675
sa(dp676
g2
S'http://www.reuters.com/article/2015/05/09/us-usa-shooting-businessman-exclusive-idUSKBN0NU0G620150509'
p677
sg4
S'20150510\xc2\xa09:44AM UTC'
p678
sg6
S'Exclusive: Why a company chairman supported a Prophet Mohammad cartoon event'
p679
sa(dp680
g2
S'http://www.reuters.com/article/2015/05/09/eurozone-greece-germany-schaeuble-idUSL5N0Y008A20150509'
p681
sg4
S'20150510\xc2\xa09:43AM UTC'
p682
sg6
S'UPDATE 1-Germany sees no Greek debt deal on Monday, warns against default'
p683
sa(dp684
g2
S'http://www.reuters.com/article/2015/05/09/us-spain-crash-airbus-workers-idUSKBN0NU0HS20150509'
p685
sg4
S'20150510\xc2\xa09:36AM UTC'
p686
sg6
S'Spain PM says appears all on board crashed plane were Airbus staff'
p687
sa(dp688
g2
S'http://www.reuters.com/article/2015/05/09/spain-crash-airbus-workers-idUSS8N0VZ00620150509'
p689
sg4
S'20150510\xc2\xa09:33AM UTC'
p690
sg6
S'Spain PM says appears all on board crashed plane were Airbus staff'
p691
sa(dp692
g2
S'http://www.reuters.com/article/2015/05/09/us-pakistan-crash-idUSKBN0NT0O920150509'
p693
sg4
S'20150510\xc2\xa09:33AM UTC'
p694
sg6
S'Pakistan helicopter crash kills Norwegian, Philippine ambassadors'
p695
sa(dp696
g2
S'http://www.reuters.com/article/2015/05/09/us-eurozone-crisis-reforms-idUSKBN0NU0GY20150509'
p697
sg4
S'20150510\xc2\xa09:30AM UTC'
p698
sg6
S'Greece slashes economic growth forecast again in latest reform plan'
p699
sa(dp700
g2
S'http://www.reuters.com/article/2015/05/09/us-eurozone-crisis-cash-idUSKBN0NU0HE20150509'
p701
sg4
S'20150510\xc2\xa09:29AM UTC'
p702
sg6
S'Greek municipalities leave room to review refusal to lend cash to government'
p703
sa(dp704
g2
S'http://www.reuters.com/article/2015/05/09/us-spain-crash-passengers-idUSKBN0NU0HC20150509'
p705
sg4
S'20150510\xc2\xa09:18AM UTC'
p706
sg6
S'Spain PM Rajoy says up to 10 people on board crashed plane'
p707
sa(dp708
g2
S'http://www.reuters.com/article/2015/05/09/eurozone-crisis-cash-idUSL5N0XZ3QK20150509'
p709
sg4
S'20150510\xc2\xa09:11AM UTC'
p710
sg6
S'Greek municipalities leave room to review refusal to lend cash to government'
p711
sa(dp712
g2
S'http://www.reuters.com/article/2015/05/09/spain-crash-passengers-idUSS8N0VZ00520150509'
p713
sg4
S'20150510\xc2\xa09:10AM UTC'
p714
sg6
S'Spain PM Rajoy says up to 10 people on board crashed plane'
p715
sa(dp716
g2
S'http://www.reuters.com/article/2015/05/09/us-northkorea-submarine-usa-idUSKBN0NU0H420150509'
p717
sg4
S'20150510\xc2\xa09:05AM UTC'
p718
sg6
S'U.S. calls for North Korean restraint after missile test report'
p719
sa(dp720
g2
S'http://www.reuters.com/article/2015/05/09/us-olympics-federations-sportaccord-idUSKBN0NU0H220150509'
p721
sg4
S'20150510\xc2\xa09:03AM UTC'
p722
sg6
S'Federations consider SportAccord position after IOC row'
p723
sa(dp724
g2
S'http://www.reuters.com/article/2015/05/09/idUSnGNX8L3nGx+1d2+GNW20150509'
p725
sg4
S'20150510\xc2\xa08:54AM UTC'
p726
sg6
S'Chairman & CEO of Ogilvy and Head of Enterprise Strategy for Amazon Web Services Headline Avasant CIO Digital Connect in New York'
p727
sa(dp728
g2
S'http://www.reuters.com/article/2015/05/09/northkorea-submarine-usa-idUSL1N0Y00BO20150509'
p729
sg4
S'20150510\xc2\xa08:52AM UTC'
p730
sg6
S'U.S. calls for North Korean restraint after missile test report'
p731
sa(dp732
g2
S'http://www.reuters.com/article/2015/05/09/olympics-federations-sportaccord-idUSL5N0Y002J20150509'
p733
sg4
S'20150510\xc2\xa08:44AM UTC'
p734
sg6
S'Olympics-Federations consider SportAccord position after IOC row'
p735
sa(dp736
g2
S'http://www.reuters.com/article/2015/05/09/fengtao-software-idUSnBw095002a+100+BSW20150509'
p737
sg4
S'20150510\xc2\xa08:43AM UTC'
p738
sg6
S'Save up to 40%: DVDFab \xe2\x80\x9cReady for the Summer\xe2\x80\x9d Themed Promotion Goes Online'
p739
sa(dp740
g2
S'http://www.reuters.com/article/2015/05/09/eurozone-crisis-reforms-idUSL5N0Y006V20150509'
p741
sg4
S'20150510\xc2\xa08:39AM UTC'
p742
sg6
S'Greece slashes economic growth forecast again in latest reform plan'
p743
sa(dp744
g2
S'http://www.reuters.com/article/2015/05/09/us-iraq-prison-toll-idUSKBN0NU0GO20150509'
p745
sg4
S'20150510\xc2\xa08:35AM UTC'
p746
sg6
S'Death toll from Iraq prison break rises to 62: officials'
p747
sa(dp748
g2
S'http://www.reuters.com/article/2015/05/09/us-morocco-cybersecurity-rights-idUSKBN0NU0G220150509'
p749
sg4
S'20150510\xc2\xa08:21AM UTC'
p750
sg6
S'Moroccan government sues authors of report accusing it of spying: state news agency'
p751
sa(dp752
g2
S'http://www.reuters.com/article/2015/05/09/spain-crash-idUSS8N0PX02M20150509'
p753
sg4
S'20150510\xc2\xa08:07AM UTC'
p754
sg6
S'Military plane crashes at Seville airport, government says'
p755
sa(dp756
g2
S'http://www.reuters.com/article/2015/05/09/ww2-anniversary-russia-idUSKBN0NU0B020150509'
p757
sg4
S'20150510\xc2\xa07:46AM UTC'
p758
sg6
S'Russia stages WW2 victory parade, draws rebuke from Ukraine'
p759
sa(dp760
g2
S'http://www.reuters.com/article/2015/05/09/eurozone-greece-germany-schaeuble-idUSL5N0Y007N20150509'
p761
sg4
S'20150510\xc2\xa07:34AM UTC'
p762
sg6
S"Germany does not expect Greek debt deal at Monday's Eurogroup meeting - FAS"
p763
sa(dp764
g2
S'http://www.reuters.com/article/2015/05/09/britain-election-idUSKBN0NR2M720150509'
p765
sg4
S'20150510\xc2\xa07:30AM UTC'
p766
sg6
S'Cameron savours shock triumph in British election'
p767
sa(dp768
g2
S'http://www.reuters.com/article/2015/05/09/britain-election-cameron-idUSL5N0Y005220150509'
p769
sg4
S'20150510\xc2\xa07:08AM UTC'
p770
sg6
S"UPDATE 1-Britain's Cameron won big by selling stability over fear"
p771
sa(dp772
g2
S'http://www.reuters.com/article/2015/05/09/adecco-managementchanges-idUSL5N0Y006R20150509'
p773
sg4
S'20150510\xc2\xa07:03AM UTC'
p774
sg6
S'Adecco investor Harris Associates critical of management changes'
p775
sa(dp776
g2
S'http://www.reuters.com/article/2015/05/09/bkn-hawks-wizards-preview-idUSMTZEB592XBIU720150509'
p777
sg4
S'20150510\xc2\xa07:02AM UTC'
p778
sg6
S'Preview: Hawks at Wizards'
p779
sa(dp780
g2
S'http://www.reuters.com/article/2015/05/09/bbo-redsox-bluejays-preview-idUSMTZEB592XBIU620150509'
p781
sg4
S'20150510\xc2\xa07:02AM UTC'
p782
sg6
S'Preview: Red Sox at Blue Jays'
p783
sa(dp784
g2
S'http://www.reuters.com/article/2015/05/09/bbo-rangers-rays-preview-idUSMTZEB592XBIU520150509'
p785
sg4
S'20150510\xc2\xa07:02AM UTC'
p786
sg6
S'Preview: Rangers at Rays'
p787
sa(dp788
g2
S'http://www.reuters.com/article/2015/05/09/bbo-athletics-mariners-preview-idUSMTZEB592XBIUC20150509'
p789
sg4
S'20150510\xc2\xa07:02AM UTC'
p790
sg6
S'Preview: Athletics at Mariners'
p791
sa(dp792
g2
S'http://www.reuters.com/article/2015/05/09/bbo-reds-whitesox-preview-idUSMTZEB592XBHTY20150509'
p793
sg4
S'20150510\xc2\xa07:02AM UTC'
p794
sg6
S'Preview: Reds at White Sox (Game 1)'
p795
sa(dp796
g2
S'http://www.reuters.com/article/2015/05/09/bbo-astros-angels-preview-idUSMTZEB592XBIUA20150509'
p797
sg4
S'20150510\xc2\xa07:02AM UTC'
p798
sg6
S'Preview: Astros at Angels'
p799
sa(dp800
g2
S'http://www.reuters.com/article/2015/05/09/bbo-orioles-yankees-preview-idUSMTZEB592XBIU920150509'
p801
sg4
S'20150510\xc2\xa07:02AM UTC'
p802
sg6
S'Preview: Orioles at Yankees'
p803
sa(dp804
g2
S'http://www.reuters.com/article/2015/05/09/hkn-lightning-canadiens-preview-idUSMTZEB592XBIU820150509'
p805
sg4
S'20150510\xc2\xa07:02AM UTC'
p806
sg6
S'Preview: Lightning at Canadiens'
p807
sa(dp808
g2
S'http://www.reuters.com/article/2015/05/09/bbo-mets-phillies-preview-idUSMTZEB592XBHTW20150509'
p809
sg4
S'20150510\xc2\xa07:02AM UTC'
p810
sg6
S'Preview: Mets at Phillies'
p811
sa(dp812
g2
S'http://www.reuters.com/article/2015/05/09/bbo-cubs-brewers-preview-idUSMTZEB592XBHTV20150509'
p813
sg4
S'20150510\xc2\xa07:02AM UTC'
p814
sg6
S'Preview: Cubs at Brewers'
p815
sa(dp816
g2
S'http://www.reuters.com/article/2015/05/09/bbo-royals-tigers-preview-idUSMTZEB592XBHU420150509'
p817
sg4
S'20150510\xc2\xa07:02AM UTC'
p818
sg6
S'Preview: Royals at Tigers'
p819
sa(dp820
g2
S'http://www.reuters.com/article/2015/05/09/bbo-twins-indians-preview-idUSMTZEB592XBHU320150509'
p821
sg4
S'20150510\xc2\xa07:02AM UTC'
p822
sg6
S'Preview: Twins at Indians'
p823
sa(dp824
g2
S'http://www.reuters.com/article/2015/05/09/bbo-cardinals-pirates-preview-idUSMTZEB592XBHU120150509'
p825
sg4
S'20150510\xc2\xa07:02AM UTC'
p826
sg6
S'Preview: Cardinals at Pirates'
p827
sa(dp828
g2
S'http://www.reuters.com/article/2015/05/09/bkn-warriors-grizzlies-preview-idUSMTZEB592XBHU020150509'
p829
sg4
S'20150510\xc2\xa07:02AM UTC'
p830
sg6
S'Preview: Warriors at Grizzlies'
p831
sa(dp832
g2
S'http://www.reuters.com/article/2015/05/09/bbo-braves-nationals-preview-idUSMTZEB592XBHTZ20150509'
p833
sg4
S'20150510\xc2\xa07:02AM UTC'
p834
sg6
S'Preview: Braves at Nationals'
p835
sa(dp836
g2
S'http://www.reuters.com/article/2015/05/09/bbo-padres-diamondbacks-preview-idUSMTZEB592XBHTX20150509'
p837
sg4
S'20150510\xc2\xa07:02AM UTC'
p838
sg6
S'Preview: Padres at Diamondbacks'
p839
sa(dp840
g2
S'http://www.reuters.com/article/2015/05/09/us-burundi-politics-usa-idUSKBN0NT1WZ20150509'
p841
sg4
S'20150510\xc2\xa06:58AM UTC'
p842
sg6
S'U.S. warns of possible Burundi sanctions, alarmed at arms reports'
p843
sa(dp844
g2
S'http://www.reuters.com/article/2015/05/09/us-burundi-politics-president-idUSKBN0NT19U20150509'
p845
sg4
S'20150510\xc2\xa06:58AM UTC'
p846
sg6
S'Burundi president registers to run for third term: spokesman'
p847
sa(dp848
g2
S'http://www.reuters.com/article/2015/05/09/egypt-mubarak-idUSKBN0NU0D420150509'
p849
sg4
S'20150510\xc2\xa06:54AM UTC'
p850
sg6
S'Egypt court sentences Mubarak, sons to three years in jail'
p851
sa(dp852
g2
S'http://www.reuters.com/article/2015/05/09/motor-racing-prix-practice-idUSKBN0NU0DC20150509'
p853
sg4
S'20150510\xc2\xa06:34AM UTC'
p854
sg6
S'Formula One - Rosberg fastest in final Spanish practice '
p855
sa(dp856
g2
S'http://www.reuters.com/article/2015/05/09/us-weather-storm-ana-transition-idUSKBN0NU0BT20150509'
p857
sg4
S'20150510\xc2\xa06:27AM UTC'
p858
sg6
S"'Ana' becomes tropical storm as it moves toward Carolinas"
p859
sa(dp860
g2
S'http://www.reuters.com/article/2015/05/09/safrica-power-blackouts-idUSL5N0Y006I20150509'
p861
sg4
S'20150510\xc2\xa06:26AM UTC'
p862
sg6
S"South Africa's Eskom expands rolling power cuts on Saturday"
p863
sa(dp864
g2
S'http://www.reuters.com/article/2015/05/09/bkn-rockets-clippers-writethru-idUSMTZEB592I3CKV20150509'
p865
sg4
S'20150510\xc2\xa06:18AM UTC'
p866
sg6
S'Redick, Rivers carry Clippers past Rockets'
p867
sa(dp868
g2
S'http://www.reuters.com/article/2015/05/09/us-usa-sports-homophobia-idUSKBN0NU0C920150509'
p869
sg4
S'20150510\xc2\xa06:03AM UTC'
p870
sg6
S'U.S. sports rank most homophobic among six English-speaking countries: survey'
p871
sa(dp872
g2
S'http://www.reuters.com/article/2015/05/09/neighborsemergency-tx-idUSnPn1HYm7K+99+PRN20150509'
p873
sg4
S'20150510\xc2\xa06:00AM UTC'
p874
sg6
S'Neighbors Emergency Center Opens New Location in Crosby, TX'
p875
sa(dp876
g2
S'http://www.reuters.com/article/2015/05/09/usa-sports-homophobia-idUSL1N0XZ2NY20150509'
p877
sg4
S'20150510\xc2\xa06:00AM UTC'
p878
sg6
S'U.S. sports rank most homophobic among six English-speaking countries- survey'
p879
sa(dp880
g2
S'http://www.reuters.com/article/2015/05/09/us-ahold-m-a-delhaize-group-idUSKBN0NU0BX20150509'
p881
sg4
S'20150510\xc2\xa05:51AM UTC'
p882
sg6
S'Ahold and Delhaize in preliminary merger talks: Belgian media'
p883
sa(dp884
g2
S'http://www.reuters.com/article/2015/05/09/us-tanzania-gas-idUSKBN0NU0BV20150509'
p885
sg4
S'20150510\xc2\xa05:49AM UTC'
p886
sg6
S'Tanzania to finalize land acquisition for LNG project'
p887
sa(dp888
g2
S'http://www.reuters.com/article/2015/05/09/ahold-ma-delhaize-group-idUSL5N0Y005B20150509'
p889
sg4
S'20150510\xc2\xa05:38AM UTC'
p890
sg6
S'Ahold and Delhaize in preliminary merger talks -Belgian media'
p891
sa(dp892
g2
S'http://www.reuters.com/article/2015/05/09/pakistan-crash-idUSKBN0NU06O20150509'
p893
sg4
S'20150510\xc2\xa05:38AM UTC'
p894
sg6
S'Bodies of Pakistan crash victims brought to capital'
p895
sa(dp896
g2
S'http://www.reuters.com/article/2015/05/09/tanzania-gas-idUSL1N0Y009220150509'
p897
sg4
S'20150510\xc2\xa05:33AM UTC'
p898
sg6
S'Tanzania to finalise land acquisition for LNG project'
p899
sa(dp900
g2
S'http://www.reuters.com/article/2015/05/09/bbo-padres-diamondbacks-writethru-idUSMTZEB592H7LKK20150509'
p901
sg4
S'20150510\xc2\xa05:30AM UTC'
p902
sg6
S'Venable leads Padres over D-backs'
p903
sa(dp904
g2
S'http://www.reuters.com/article/2015/05/09/us-usa-new-york-idUSKBN0NT27B20150509'
p905
sg4
S'20150510\xc2\xa05:27AM UTC'
p906
sg6
S'NYC judge declares mistrial in 1979 Etan Patz murder case'
p907
sa(dp908
g2
S'http://www.reuters.com/article/2015/05/09/cricket-bangladesh-pakistan-idUSKBN0NU0B420150509'
p909
sg4
S'20150510\xc2\xa05:25AM UTC'
p910
sg6
S'Pakistan win final test to clinch series'
p911
sa(dp912
g2
S'http://www.reuters.com/article/2015/05/09/us-motor-racing-prix-hamilton-idUSKBN0NU09V20150509'
p913
sg4
S'20150510\xc2\xa05:11AM UTC'
p914
sg6
S'Hamilton at peak of his powers, says Lowe'
p915
sa(dp916
g2
S'http://www.reuters.com/article/2015/05/09/reliance-spectrum-auditor-idUSKBN0NU09L20150509'
p917
sg4
S'20150510\xc2\xa05:02AM UTC'
p918
sg6
S'Reliance Jio got $530 mln undue benefit - CAG'
p919
sa(dp920
g2
S'http://www.reuters.com/article/2015/05/09/us-reliance-spectrum-auditor-idUSKBN0NU09B20150509'
p921
sg4
S'20150510\xc2\xa04:55AM UTC'
p922
sg6
S"India's Reliance Jio got $530 million undue benefit: government auditor"
p923
sa(dp924
g2
S'http://www.reuters.com/article/2015/05/09/reliance-spectrum-auditor-idUSL4N0Y005K20150509'
p925
sg4
S'20150510\xc2\xa04:52AM UTC'
p926
sg6
S"India's Reliance Jio got $530 mln undue benefit - govt auditor"
p927
sa(dp928
g2
S'http://www.reuters.com/article/2015/05/09/bbo-padres-playerwatch-idUSMTZEB592RBDSB20150509'
p929
sg4
S'20150510\xc2\xa04:52AM UTC'
p930
sg6
S'San Diego Padres - PlayerWatch'
p931
sa(dp932
g2
S'http://www.reuters.com/article/2015/05/09/bbo-diamondbacks-playerwatch-idUSMTZEB592RBDS720150509'
p933
sg4
S'20150510\xc2\xa04:52AM UTC'
p934
sg6
S'Arizona Diamondbacks - PlayerWatch'
p935
sa(dp936
g2
S'http://www.reuters.com/article/2015/05/09/bbo-rangers-teamreport-idUSMTZEB592R81RO20150509'
p937
sg4
S'20150510\xc2\xa04:50AM UTC'
p938
sg6
S'Texas Rangers - TeamReport'
p939
sa(dp940
g2
S'http://www.reuters.com/article/2015/05/09/bbo-nationals-teamreport-idUSMTZEB592R81RN20150509'
p941
sg4
S'20150510\xc2\xa04:50AM UTC'
p942
sg6
S'Washington Nationals - TeamReport'
p943
sa(dp944
g2
S'http://www.reuters.com/article/2015/05/09/bbo-cardinals-teamreport-idUSMTZEB592R80RM20150509'
p945
sg4
S'20150510\xc2\xa04:50AM UTC'
p946
sg6
S'St. Louis Cardinals - TeamReport'
p947
sa(dp948
g2
S'http://www.reuters.com/article/2015/05/09/bbo-bluejays-teamreport-idUSMTZEB592R80RL20150509'
p949
sg4
S'20150510\xc2\xa04:50AM UTC'
p950
sg6
S'Toronto Blue Jays - TeamReport'
p951
sa(dp952
g2
S'http://www.reuters.com/article/2015/05/09/bbo-rays-teamreport-idUSMTZEB592R80RK20150509'
p953
sg4
S'20150510\xc2\xa04:50AM UTC'
p954
sg6
S'Tampa Bay Rays - TeamReport'
p955
sa(dp956
g2
S'http://www.reuters.com/article/2015/05/09/bbo-brewers-teamreport-idUSMTZEB592R7MRI20150509'
p957
sg4
S'20150510\xc2\xa04:50AM UTC'
p958
sg6
S'Milwaukee Brewers - TeamReport'
p959
sa(dp960
g2
S'http://www.reuters.com/article/2015/05/09/bbo-angels-teamreport-idUSMTZEB592R7LRF20150509'
p961
sg4
S'20150510\xc2\xa04:50AM UTC'
p962
sg6
S'Los Angeles Angels - TeamReport'
p963
sa(dp964
g2
S'http://www.reuters.com/article/2015/05/09/bbo-astros-teamreport-idUSMTZEB592R7GRE20150509'
p965
sg4
S'20150510\xc2\xa04:50AM UTC'
p966
sg6
S'Houston Astros - TeamReport'
p967
sa(dp968
g2
S'http://www.reuters.com/article/2015/05/09/bbo-royals-teamreport-idUSMTZEB592R7GRD20150509'
p969
sg4
S'20150510\xc2\xa04:50AM UTC'
p970
sg6
S'Kansas City Royals - TeamReport'
p971
sa(dp972
g2
S'http://www.reuters.com/article/2015/05/09/bbo-whitesox-teamreport-idUSMTZEB592R7CRB20150509'
p973
sg4
S'20150510\xc2\xa04:50AM UTC'
p974
sg6
S'Chicago White Sox - TeamReport'
p975
sa(dp976
g2
S'http://www.reuters.com/article/2015/05/09/bbo-tigers-teamreport-idUSMTZEB592R7CRA20150509'
p977
sg4
S'20150510\xc2\xa04:50AM UTC'
p978
sg6
S'Detroit Tigers - TeamReport'
p979
sa(dp980
g2
S'http://www.reuters.com/article/2015/05/09/bbo-cubs-teamreport-idUSMTZEB592R7BR920150509'
p981
sg4
S'20150510\xc2\xa04:49AM UTC'
p982
sg6
S'Chicago Cubs - TeamReport'
p983
sa(dp984
g2
S'http://www.reuters.com/article/2015/05/09/bbo-indians-teamreport-idUSMTZEB592R6YR820150509'
p985
sg4
S'20150510\xc2\xa04:49AM UTC'
p986
sg6
S'Cleveland Indians - TeamReport'
p987
sa(dp988
g2
S'http://www.reuters.com/article/2015/05/09/bbo-mariners-teamreport-idUSMTZEB592R6RR720150509'
p989
sg4
S'20150510\xc2\xa04:49AM UTC'
p990
sg6
S'Seattle Mariners - TeamReport'
p991
sa(dp992
g2
S'http://www.reuters.com/article/2015/05/09/bbo-padres-teamreport-idUSMTZEB592R6KR620150509'
p993
sg4
S'20150510\xc2\xa04:49AM UTC'
p994
sg6
S'San Diego Padres - TeamReport'
p995
sa(dp996
g2
S'http://www.reuters.com/article/2015/05/09/bbo-athletics-teamreport-idUSMTZEB592R6JR520150509'
p997
sg4
S'20150510\xc2\xa04:49AM UTC'
p998
sg6
S'Oakland Athletics - TeamReport'
p999
sa(dp1000
g2
S'http://www.reuters.com/article/2015/05/09/bbo-pirates-teamreport-idUSMTZEB592R6JR420150509'
p1001
sg4
S'20150510\xc2\xa04:49AM UTC'
p1002
sg6
S'Pittsburgh Pirates - TeamReport'
p1003
sa(dp1004
g2
S'http://www.reuters.com/article/2015/05/09/bbo-phillies-teamreport-idUSMTZEB592R6JR320150509'
p1005
sg4
S'20150510\xc2\xa04:49AM UTC'
p1006
sg6
S'Philadelphia Phillies - TeamReport'
p1007
sa(dp1008
g2
S'http://www.reuters.com/article/2015/05/09/bbo-twins-teamreport-idUSMTZEB592R6FR220150509'
p1009
sg4
S'20150510\xc2\xa04:49AM UTC'
p1010
sg6
S'Minnesota Twins - TeamReport'
p1011
sa(dp1012
g2
S'http://www.reuters.com/article/2015/05/09/bbo-mets-teamreport-idUSMTZEB592R6FR120150509'
p1013
sg4
S'20150510\xc2\xa04:49AM UTC'
p1014
sg6
S'New York Mets - TeamReport'
p1015
sa(dp1016
g2
S'http://www.reuters.com/article/2015/05/09/bbo-yankees-teamreport-idUSMTZEB592R6FR020150509'
p1017
sg4
S'20150510\xc2\xa04:49AM UTC'
p1018
sg6
S'New York Yankees - TeamReport'
p1019
sa(dp1020
g2
S'http://www.reuters.com/article/2015/05/09/bbo-diamondbacks-teamreport-idUSMTZEB592R0KQX20150509'
p1021
sg4
S'20150510\xc2\xa04:45AM UTC'
p1022
sg6
S'Arizona Diamondbacks - TeamReport'
p1023
sa(dp1024
g2
S'http://www.reuters.com/article/2015/05/09/bbo-orioles-teamreport-idUSMTZEB592R0JQW20150509'
p1025
sg4
S'20150510\xc2\xa04:45AM UTC'
p1026
sg6
S'Baltimore Orioles - TeamReport'
p1027
sa(dp1028
g2
S'http://www.reuters.com/article/2015/05/09/bbo-reds-teamreport-idUSMTZEB592R0JQV20150509'
p1029
sg4
S'20150510\xc2\xa04:45AM UTC'
p1030
sg6
S'Cincinnati Reds - TeamReport'
p1031
sa(dp1032
g2
S'http://www.reuters.com/article/2015/05/09/bbo-redsox-teamreport-idUSMTZEB592R0JQU20150509'
p1033
sg4
S'20150510\xc2\xa04:45AM UTC'
p1034
sg6
S'Boston Red Sox - TeamReport'
p1035
sa(dp1036
g2
S'http://www.reuters.com/article/2015/05/09/bbo-braves-teamreport-idUSMTZEB592R0FQS20150509'
p1037
sg4
S'20150510\xc2\xa04:45AM UTC'
p1038
sg6
S'Atlanta Braves - TeamReport'
p1039
sa(dp1040
g2
S'http://www.reuters.com/article/2015/05/09/us-sharp-capital-idUSKBN0NU08V20150509'
p1041
sg4
S'20150510\xc2\xa04:40AM UTC'
p1042
sg6
S'Sharp plans to use capital to wipe out past losses: source'
p1043
sa(dp1044
g2
S'http://www.reuters.com/article/2015/05/09/us-china-healthcare-idUSKBN0NU08T20150509'
p1045
sg4
S'20150510\xc2\xa04:37AM UTC'
p1046
sg6
S'China to increase health care subsidies, deepen reform'
p1047
sa(dp1048
g2
S'http://www.reuters.com/article/2015/05/09/sharp-capital-idUSL4N0Y005820150509'
p1049
sg4
S'20150510\xc2\xa04:36AM UTC'
p1050
sg6
S'UPDATE 1-Sharp plans to use capital to wipe out past losses-source'
p1051
sa(dp1052
g2
S'http://www.reuters.com/article/2015/05/09/china-healthcare-idUSL4N0Y005L20150509'
p1053
sg4
S'20150510\xc2\xa04:25AM UTC'
p1054
sg6
S'China to increase health care subsidies, deepen reform'
p1055
sa(dp1056
g2
S'http://www.reuters.com/article/2015/05/09/poland-banking-results-idUSL5N0Y004320150509'
p1057
sg4
S'20150510\xc2\xa04:13AM UTC'
p1058
sg6
S'Polish banks Q1 profit up despite record-low rates-c.bank'
p1059
sa(dp1060
g2
S'http://www.reuters.com/article/2015/05/09/quake-nepal-reconstruction-idUSKBN0NT1ZZ20150509'
p1061
sg4
S'20150510\xc2\xa03:58AM UTC'
p1062
sg6
S'Nepal pledges to rebuild schools and roads within two years of quake'
p1063
sa(dp1064
g2
S'http://www.reuters.com/article/2015/05/09/us-pakistan-crash-victims-idUSKBN0NU06M20150509'
p1065
sg4
S'20150510\xc2\xa03:32AM UTC'
p1066
sg6
S'Bodies of Pakistan crash victims brought to capital'
p1067
sa(dp1068
g2
S'http://www.reuters.com/article/2015/05/09/pakistan-crash-idUSL4N0Y005620150509'
p1069
sg4
S'20150510\xc2\xa03:25AM UTC'
p1070
sg6
S'UPDATE 1-Bodies of Pakistan crash victims brought to capital'
p1071
sa(dp1072
g2
S'http://www.reuters.com/article/2015/05/09/us-toyotamotor-mazda-idUSKBN0NU07420150509'
p1073
sg4
S'20150510\xc2\xa03:20AM UTC'
p1074
sg6
S'Toyota, Mazda in talks on expanding partnership: sources'
p1075
sa(dp1076
g2
S'http://www.reuters.com/article/2015/05/09/toyotamotor-mazda-idUSL4N0Y004X20150509'
p1077
sg4
S'20150510\xc2\xa03:16AM UTC'
p1078
sg6
S'UPDATE 1-Toyota, Mazda in talks on expanding partnership-sources'
p1079
sa(dp1080
g2
S'http://www.reuters.com/article/2015/05/09/bbo-athletics-mariners-writethru-idUSMTZEB592JFNMK20150509'
p1081
sg4
S'20150510\xc2\xa02:54AM UTC'
p1082
sg6
S"Morrison homer propels Mariners past A's in extras"
p1083
sa(dp1084
g2
S'http://www.reuters.com/article/2015/05/09/us-australia-plot-police-idUSKBN0NU03V20150509'
p1085
sg4
S'20150510\xc2\xa02:44AM UTC'
p1086
sg6
S'Australian police thwart imminent bomb attack, teen charged'
p1087
sa(dp1088
g2
S'http://www.reuters.com/article/2015/05/09/pakistan-crash-idUSL4N0Y004H20150509'
p1089
sg4
S'20150510\xc2\xa02:39AM UTC'
p1090
sg6
S'Bodies of Pakistan crash victims brought to capital'
p1091
sa(dp1092
g2
S'http://www.reuters.com/article/2015/05/09/us-china-economy-inflation-idUSKBN0NU01T20150509'
p1093
sg4
S'20150510\xc2\xa02:35AM UTC'
p1094
sg6
S'China April inflation muted, fuels calls for more easing'
p1095
sa(dp1096
g2
S'http://www.reuters.com/article/2015/05/09/china-economy-inflation-idUSL4N0Y002E20150509'
p1097
sg4
S'20150510\xc2\xa02:34AM UTC'
p1098
sg6
S'UPDATE 2-China April inflation muted, fuels calls for more easing'
p1099
sa(dp1100
g2
S'http://www.reuters.com/article/2015/05/09/bbo-dodgers-rockies-writethru-idUSMTZEB592HFUKN20150509'
p1101
sg4
S'20150510\xc2\xa02:32AM UTC'
p1102
sg6
S'Dodgers defeat Rockies in rain-shortened contest'
p1103
sa(dp1104
g2
S'http://www.reuters.com/article/2015/05/09/us-nba-playoffs-clippers-idUSKBN0NU06I20150509'
p1105
sg4
S'20150510\xc2\xa02:21AM UTC'
p1106
sg6
S'Clippers rout Rockets to win Game Three'
p1107
sa(dp1108
g2
S'http://www.reuters.com/article/2015/05/09/hkn-ducks-flames-writethru-idUSMTZEB592FL9ID20150509'
p1109
sg4
S'20150510\xc2\xa02:02AM UTC'
p1110
sg6
S"Ducks capitalize on Flames' mistakes in win"
p1111
sa(dp1112
g2
S'http://www.reuters.com/article/2015/05/09/us-people-bobbikristinabrown-idUSKBN0NU06420150509'
p1113
sg4
S'20150510\xc2\xa01:50AM UTC'
p1114
sg6
S'Father, aunt of Bobbi Kristina Brown named co-guardians'
p1115
sa(dp1116
g2
S'http://www.reuters.com/article/2015/05/09/safrica-power-idUSL5N0Y002M20150509'
p1117
sg4
S'20150510\xc2\xa01:46AM UTC'
p1118
sg6
S"South Africa's Eskom to impose rolling power cuts"
p1119
sa(dp1120
g2
S'http://www.reuters.com/article/2015/05/09/us-nhl-playoffs-flames-idUSKBN0NU05T20150509'
p1121
sg4
S'20150510\xc2\xa01:26AM UTC'
p1122
sg6
S'Flames in danger of going out after Ducks win Game Four'
p1123
sa(dp1124
g2
S'http://www.reuters.com/article/2015/05/09/us-usa-football-winston-idUSKBN0NU05R20150509'
p1125
sg4
S'20150510\xc2\xa01:23AM UTC'
p1126
sg6
S'Quarterback Winston files counterclaim against rape accuser'
p1127
sa(dp1128
g2
S'http://www.reuters.com/article/2015/05/09/us-gasoline-prices-california-idUSKBN0NU00N20150509'
p1129
sg4
S'20150510\xc2\xa01:15AM UTC'
p1130
sg6
S'Labor dispute at Tesoro refinery boosted margins: CEO'
p1131
sa(dp1132
g2
S'http://www.reuters.com/article/2015/05/09/gasoline-prices-california-idUSL1N0XZ2SC20150509'
p1133
sg4
S'20150510\xc2\xa01:13AM UTC'
p1134
sg6
S'REFILE-Labor dispute at Tesoro refinery boosted margins -CEO'
p1135
sa(dp1136
g2
S'http://www.reuters.com/article/2015/05/09/us-philippines-typhoon-idUSKBN0NU05H20150509'
p1137
sg4
S'20150510\xc2\xa01:10AM UTC'
p1138
sg6
S'Thousands evacuated in Philippines as powerful typhoon nears'
p1139
sa(dp1140
g2
S'http://www.reuters.com/article/2015/05/09/us-thailand-rohingya-trafficking-idUSKBN0NU05D20150509'
p1141
sg4
S'20150510\xc2\xa01:08AM UTC'
p1142
sg6
S'Thailand questions 117 migrants as it races to meet crackdown deadline'
p1143
sa(dp1144
g2
S'http://www.reuters.com/article/2015/05/09/us-usa-election-bush-idUSKBN0NU05B20150509'
p1145
sg4
S'20150510\xc2\xa01:05AM UTC'
p1146
sg6
S'At Christian University, Jeb Bush will seek support from evangelicals'
p1147
sa(dp1148
g2
S'http://www.reuters.com/article/2015/05/09/thailand-rohingya-trafficking-idUSL4N0Y003320150509'
p1149
sg4
S'20150510\xc2\xa01:03AM UTC'
p1150
sg6
S'Thailand questions 117 migrants as it races to meet crackdown deadline'
p1151
sa(dp1152
g2
S'http://www.reuters.com/article/2015/05/09/us-china-japan-diplomacy-idUSKBN0NU04W20150509'
p1153
sg4
S'20150510\xc2\xa012:57AM UTC'
p1154
sg6
S"China must guard against Japan's denial of history: army paper"
p1155
sa(dp1156
g2
S'http://www.reuters.com/article/2015/05/09/bbo-cubs-brewers-writethru-idUSMTZEB592CKWCC20150509'
p1157
sg4
S'20150510\xc2\xa012:55AM UTC'
p1158
sg6
S'Cubs hang on for 7-6 win over Brewers'
p1159
sa(dp1160
g2
S'http://www.reuters.com/article/2015/05/09/bbo-astros-angels-recap-idUSMTZEB592F7XHP20150509'
p1161
sg4
S'20150510\xc2\xa012:41AM UTC'
p1162
sg6
S'Angels 2, Astros 0'
p1163
sa(dp1164
g2
S'http://www.reuters.com/article/2015/05/09/bkn-cavaliers-bulls-writethru-idUSMTZEB592AV88H20150509'
p1165
sg4
S'20150510\xc2\xa012:33AM UTC'
p1166
sg6
S'Rose 3-pointer gives Bulls win over Cavaliers'
p1167
sa(dp1168
g2
S'http://www.reuters.com/article/2015/05/09/us-usa-georgia-police-idUSKBN0NU04O20150509'
p1169
sg4
S'20150510\xc2\xa012:15AM UTC'
p1170
sg6
S"Nine Georgia deputies fired over black inmate's death"
p1171
sa(dp1172
g2
S'http://www.reuters.com/article/2015/05/09/car-nascar-truck-writethru-idUSMTZEB592BET9P20150509'
p1173
sg4
S'20150510\xc2\xa012:13AM UTC'
p1174
sg6
S'Crafton has enough fuel in tank for Trucks win'
p1175
sa(dp1176
g2
S'http://www.reuters.com/article/2015/05/09/bbo-royals-tigers-writethru-idUSMTZEB592A7S6P20150509'
p1177
sg4
S'20150510\xc2\xa012:05AM UTC'
p1178
sg6
S'Tigers beat Royals, regain first place'
p1179
sa(dp1180
g2
S'http://www.reuters.com/article/2015/05/09/census-daily-feature-idUSnPn788L4g+84+PRN20150509'
p1181
sg4
S'20150510\xc2\xa012:01AM UTC'
p1182
sg6
S'U.S. Census Bureau Daily Feature for May 9'
p1183
sa(dp1184
g2
S'http://www.reuters.com/news/video/videoStory?storyID=107793991'
p1185
sg4
S'20150510\xc2\xa011:22PM UTC'
p1186
sg6
S"Pakistan heli crash: survivors' stories"
p1187
sa(dp1188
g2
S'http://www.reuters.com/news/video/videoStory?storyID=107793743'
p1189
sg4
S'20150510\xc2\xa010:49PM UTC'
p1190
sg6
S'Cuban gays stage mass wedding'
p1191
sa(dp1192
g2
S'http://www.reuters.com/news/video/videoStory?storyID=107792685'
p1193
sg4
S'20150510\xc2\xa08:28PM UTC'
p1194
sg6
S'London protesters scuffle with police at anti-Cameron rally'
p1195
sa(dp1196
g2
S'http://www.reuters.com/news/video/videoStory?storyID=107790938'
p1197
sg4
S'20150510\xc2\xa07:28PM UTC'
p1198
sg6
S'Five Macedonian police killed in armed clashes in north'
p1199
sa(dp1200
g2
S'http://www.reuters.com/news/video/videoStory?storyID=107789659'
p1201
sg4
S'20150510\xc2\xa05:32PM UTC'
p1202
sg6
S'German ships rescue more migrants in Mediterranean'
p1203
sa(dp1204
g2
S'http://www.reuters.com/news/video/videoStory?storyID=107788961'
p1205
sg4
S'20150510\xc2\xa04:53PM UTC'
p1206
sg6
S'Russian Seal team takes up arms for WW2 celebrations'
p1207
sa(dp1208
g2
S'http://www.reuters.com/news/video/videoStory?storyID=107788575'
p1209
sg4
S'20150510\xc2\xa04:50PM UTC'
p1210
sg6
S'At least three killed in military plane crash in Spain'
p1211
sa(dp1212
g2
S'http://www.reuters.com/news/video/videoStory?storyID=107788583'
p1213
sg4
S'20150510\xc2\xa04:50PM UTC'
p1214
sg6
S'Liberia declared Ebola-free, but outbreak continues over border'
p1215
sa(dp1216
g2
S'http://www.reuters.com/news/video/videoStory?storyID=107788579'
p1217
sg4
S'20150510\xc2\xa04:50PM UTC'
p1218
sg6
S'Ukraine marks end of WWII, rebels remember Soviet victory'
p1219
sa(dp1220
g2
S'http://www.reuters.com/news/video/videoStory?storyID=107788587'
p1221
sg4
S'20150510\xc2\xa04:49PM UTC'
p1222
sg6
S'Russia stages WWII victory parade as West stays away'
p1223
sa(dp1224
g2
S'http://www.reuters.com/news/video/videoStory?storyID=107788595'
p1225
sg4
S'20150510\xc2\xa04:49PM UTC'
p1226
sg6
S'Fireworks illuminate Moscow sky at climax of WWII celebrations'
p1227
sa(dp1228
g2
S'http://www.reuters.com/news/video/videoStory?storyID=107788591'
p1229
sg4
S'20150510\xc2\xa04:49PM UTC'
p1230
sg6
S'Police rescue man from lynching mob in La Paz'
p1231
sa(dp1232
g2
S'http://www.reuters.com/news/video/videoStory?storyID=107788264'
p1233
sg4
S'20150510\xc2\xa04:08PM UTC'
p1234
sg6
S"Marco Rubio on terrorists: 'We will find you and we will kill you'"
p1235
sa(dp1236
g2
S'http://www.reuters.com/news/video/videoStory?storyID=107788310'
p1237
sg4
S'20150510\xc2\xa04:07PM UTC'
p1238
sg6
S"Donald Trump: 'Politicians are all talk, no action'"
p1239
sa(dp1240
g2
S'http://www.reuters.com/news/video/videoStory?storyID=107787777'
p1241
sg4
S'20150510\xc2\xa02:54PM UTC'
p1242
sg6
S"Trayvon Martin's mother lends voice to art exhibit"
p1243
sa(dp1244
g2
S'http://www.reuters.com/news/video/videoStory?storyID=107787735'
p1245
sg4
S'20150510\xc2\xa02:44PM UTC'
p1246
sg6
S'Michelle Obama on being first African American First Lady'
p1247
sa(dp1248
g2
S'http://www.reuters.com/news/video/videoStory?storyID=107786977'
p1249
sg4
S'20150510\xc2\xa01:36PM UTC'
p1250
sg6
S'Franchises set to rule summer box office'
p1251
sa(dp1252
g2
S'http://www.reuters.com/news/video/videoStory?storyID=107786935'
p1253
sg4
S'20150510\xc2\xa01:34PM UTC'
p1254
sg6
S"Underwater skeleton 'tea party' discovered in Arizona"
p1255
sa(dp1256
g2
S'http://www.reuters.com/news/video/videoStory?storyID=107786699'
p1257
sg4
S'20150510\xc2\xa012:48PM UTC'
p1258
sg6
S"Scott Walker: 'We need a president who will back away from that deal in Iran'"
p1259
sa(dp1260
g2
S'http://www.reuters.com/news/video/videoStory?storyID=107786205'
p1261
sg4
S'20150510\xc2\xa011:59AM UTC'
p1262
sg6
S'Jeb Bush seeks support from evangelicals at Liberty University'
p1263
sa(dp1264
g2
S'http://www.reuters.com/news/video/videoStory?storyID=107785740'
p1265
sg4
S'20150510\xc2\xa011:33AM UTC'
p1266
sg6
S'Elephants make a splash in western India'
p1267
sa(dp1268
g2
S'http://www.reuters.com/news/video/videoStory?storyID=107785543'
p1269
sg4
S'20150510\xc2\xa011:12AM UTC'
p1270
sg6
S'New York man pleads guilty to sexually exploiting Amish sisters'
p1271
sa(dp1272
g2
S'http://www.reuters.com/news/video/videoStory?storyID=107785488'
p1273
sg4
S'20150510\xc2\xa011:08AM UTC'
p1274
sg6
S'Orthopedic hospital in Nepal overflowing with quake-hit patients'
p1275
sa(dp1276
g2
S'http://www.reuters.com/news/video/videoStory?storyID=107785162'
p1277
sg4
S'20150510\xc2\xa010:40AM UTC'
p1278
sg6
S"Bells toll as Britain's cathedrals mark 70th anniversary of VE Day"
p1279
sa(dp1280
g2
S'http://www.reuters.com/news/video/videoStory?storyID=107784828'
p1281
sg4
S'20150510\xc2\xa010:13AM UTC'
p1282
sg6
S'Georgia plane crash victims on way to college graduation'
p1283
sa(dp1284
g2
S'http://www.reuters.com/news/video/videoStory?storyID=107784561'
p1285
sg4
S'20150510\xc2\xa09:58AM UTC'
p1286
sg6
S'Military plane crashes outside Seville airport'
p1287
sa(dp1288
g2
S'http://www.reuters.com/news/video/videoStory?storyID=107784565'
p1289
sg4
S'20150510\xc2\xa09:56AM UTC'
p1290
sg6
S'Egyptian court sentences Mubarak, sons to 3 years in jail'
p1291
sa(dp1292
g2
S'http://www.reuters.com/news/video/videoStory?storyID=107783983'
p1293
sg4
S'20150510\xc2\xa09:06AM UTC'
p1294
sg6
S'Putin hosts Kremlin reception to celebrate WW2 anniversary'
p1295
sa(dp1296
g2
S'http://www.reuters.com/news/video/videoStory?storyID=107783798'
p1297
sg4
S'20150510\xc2\xa08:48AM UTC'
p1298
sg6
S'Pakistan crash injured arrive in Islamabad'
p1299
sa(dp1300
g2
S'http://www.reuters.com/news/video/videoStory?storyID=107783737'
p1301
sg4
S'20150510\xc2\xa08:44AM UTC'
p1302
sg6
S'Severe weather pounds Southern Plains again'
p1303
sa(dp1304
g2
S'http://www.reuters.com/news/video/videoStory?storyID=107783483'
p1305
sg4
S'20150510\xc2\xa08:26AM UTC'
p1306
sg6
S'Putin greets global leaders arriving for Victory Day parade on Red Square'
p1307
sa(dp1308
g2
S'http://www.reuters.com/news/video/videoStory?storyID=107782828'
p1309
sg4
S'20150510\xc2\xa06:38AM UTC'
p1310
sg6
S'Prince starts New Zealand trip'
p1311
sa(dp1312
g2
S'http://www.reuters.com/news/video/videoStory?storyID=107782625'
p1313
sg4
S'20150510\xc2\xa06:11AM UTC'
p1314
sg6
S'Funeral for second executed Australian'
p1315
sa(dp1316
g2
S'http://www.reuters.com/news/video/videoStory?storyID=107781850'
p1317
sg4
S'20150510\xc2\xa04:46AM UTC'
p1318
sg6
S'Two held over boy in suitcase'
p1319
sa(dp1320
g2
S'http://www.reuters.com/news/video/videoStory?storyID=107781526'
p1321
sg4
S'20150510\xc2\xa04:13AM UTC'
p1322
sg6
S'(UPDATE) North Korea tests sub missile; U.S. later says it\xe2\x80\x99s fake'
p1323
sa(dp1324
g2
S'http://www.reuters.com/news/video/videoStory?storyID=107781530'
p1325
sg4
S'20150510\xc2\xa04:06AM UTC'
p1326
sg6
S'Patz jurors explain verdict problem'
p1327
sa(dp1328
g2
S'http://www.reuters.com/news/video/videoStory?storyID=107780874'
p1329
sg4
S'20150510\xc2\xa02:00AM UTC'
p1330
sg6
S'Teen held on plot charges in Australia'
p1331
sa(dp1332
g2
S'http://www.reuters.com/news/video/videoStory?storyID=107780470'
p1333
sg4
S'20150510\xc2\xa012:37AM UTC'
p1334
sg6
S'Nepalis join forces to save history'
p1335
sa.