(lp0
(dp1
S'href'
p2
S'http://www.reuters.com/article/2015/04/26/us-usa-california-firebomb-idUSKBN0NH02320150426'
p3
sS'ts'
p4
S'20150426\xc2\xa011:40PM UTC'
p5
sS'title'
p6
S'Three people dead in possible Molotov cocktail attack in California'
p7
sa(dp8
g2
S'http://www.reuters.com/article/2015/04/26/bbo-cardinals-brewers-writethru-idUSMTZEB4QE78A2O20150426'
p9
sg4
S'20150426\xc2\xa011:37PM UTC'
p10
sg6
S'Cardinals win, but might lose Wainwright'
p11
sa(dp12
g2
S'http://www.reuters.com/article/2015/04/26/us-golf-lpga-henderson-idUSKBN0NH01X20150426'
p13
sg4
S'20150426\xc2\xa011:25PM UTC'
p14
sg6
S'Canadian teenager Henderson leads LPGA by one stroke'
p15
sa(dp16
g2
S'http://www.reuters.com/article/2015/04/26/bbo-braves-phillies-writethru-idUSMTZEB4QE57RY920150426'
p17
sg4
S'20150426\xc2\xa011:07PM UTC'
p18
sg6
S'Braves beat Phillies to snap 4-game skid'
p19
sa(dp20
g2
S'http://www.reuters.com/article/2015/04/26/us-quake-nepal-everest-idUSKBN0NG0AJ20150426'
p21
sg4
S'20150426\xc2\xa011:02PM UTC'
p22
sg6
S'Bad weather hampers search for avalanche survivors on Everest'
p23
sa(dp24
g2
S'http://www.reuters.com/article/2015/04/26/china-banks-pay-idUSL4N0XD3H420150426'
p25
sg4
S'20150426\xc2\xa011:00PM UTC'
p26
sg6
S"Cuts to pay and perks trigger flight from China's state banks"
p27
sa(dp28
g2
S'http://www.reuters.com/article/2015/04/26/bbo-bluejays-rays-writethru-idUSMTZEB4QE30MR320150426'
p29
sg4
S'20150426\xc2\xa010:48PM UTC'
p30
sg6
S'Three-run eighth carries Rays past Jays'
p31
sa(dp32
g2
S'http://www.reuters.com/article/2015/04/26/bkn-bulls-bucks-writethru-idUSMTZEB4QE1Y8P420150426'
p33
sg4
S'20150426\xc2\xa010:10PM UTC'
p34
sg6
S'Buzzer-beater keeps Bucks alive vs. Bulls'
p35
sa(dp36
g2
S'http://www.reuters.com/article/2015/04/26/hkn-redwings-lightning-recap-idUSMTZEB4QE2X7R220150426'
p37
sg4
S'20150426\xc2\xa09:46PM UTC'
p38
sg6
S'Red Wings 4, Lightning 0'
p39
sa(dp40
g2
S'http://www.reuters.com/article/2015/04/26/us-usa-cybersecurity-whitehouse-idUSKBN0NG0Z920150426'
p41
sg4
S'20150426\xc2\xa09:40PM UTC'
p42
sg6
S"Russian hackers read Obama's unclassified emails last year: NYT"
p43
sa(dp44
g2
S'http://www.reuters.com/article/2015/04/26/idUSnMKWWqcRda+1e4+MKW20150426'
p45
sg4
S'20150426\xc2\xa09:19PM UTC'
p46
sg6
S'Central GoldTrust to Evaluate Sprott Offer And Sets The Record Straight'
p47
sa(dp48
g2
S'http://www.reuters.com/article/2015/04/26/idUSnCCN1NxVx1+1d4+MKW20150426'
p49
sg4
S'20150426\xc2\xa09:18PM UTC'
p50
sg6
S'Central GoldTrust to Evaluate Sprott Offer And Sets The Record Straight'
p51
sa(dp52
g2
S'http://www.reuters.com/article/2015/04/26/us-quake-nepal-toll-idUSKBN0NH00W20150426'
p53
sg4
S'20150426\xc2\xa09:15PM UTC'
p54
sg6
S'Nepal earthquake death toll jumps to 1,805: home ministry'
p55
sa(dp56
g2
S'http://www.reuters.com/article/2015/04/26/hkn-capitals-islanders-writethru-idUSMTZEB4PDV8QCH20150426'
p57
sg4
S'20150426\xc2\xa09:13PM UTC'
p58
sg6
S'Islanders not ready to quit Coliseum just yet'
p59
sa(dp60
g2
S'http://www.reuters.com/article/2015/04/26/us-golf-pga-idUSKBN0NH00R20150426'
p61
sg4
S'20150426\xc2\xa09:13PM UTC'
p62
sg6
S'Day and Compton share lead at weather-hit PGA Tour event'
p63
sa(dp64
g2
S'http://www.reuters.com/article/2015/04/26/us-energy-solar-power-idUSKBN0NH00H20150426'
p65
sg4
S'20150426\xc2\xa09:02PM UTC'
p66
sg6
S'Like shale oil, solar power is shaking up global energy'
p67
sa(dp68
g2
S'http://www.reuters.com/article/2015/04/26/energy-solar-power-idUSL5N0X51O120150426'
p69
sg4
S'20150426\xc2\xa09:00PM UTC'
p70
sg6
S'Like shale oil, solar power is shaking up global energy'
p71
sa(dp72
g2
S'http://www.reuters.com/article/2015/04/26/bbo-astros-athletics-writethru-idUSMTZEB4QDY8NI320150426'
p73
sg4
S'20150426\xc2\xa08:46PM UTC'
p74
sg6
S"Altuve powers Astros to 9-3 win over A's"
p75
sa(dp76
g2
S'http://www.reuters.com/article/2015/04/26/bbo-nationals-marlins-writethru-idUSMTZEB4QDX9SGW20150426'
p77
sg4
S'20150426\xc2\xa08:35PM UTC'
p78
sg6
S'Marlins blank Nats for fourth straight win'
p79
sa(dp80
g2
S'http://www.reuters.com/article/2015/04/26/flw-tour-update-idUSnPnbC8WQx+96+PRN20150426'
p81
sg4
S'20150426\xc2\xa08:09PM UTC'
p82
sg6
S'Morgan Retains Lead at Walmart FLW Tour on Beaver Lake Presented by Rayovac'
p83
sa(dp84
g2
S'http://www.reuters.com/article/2015/04/26/deutsche-bank-restructuring-idUSL8N0XM0KU20150426'
p85
sg4
S'20150426\xc2\xa08:01PM UTC'
p86
sg6
S'Deutsche Bank to keep 500 German retail branches - Welt am Sonntag'
p87
sa(dp88
g2
S'http://www.reuters.com/article/2015/04/26/pa-hj-heinz-company-idUSnBw255021a+100+BSW20150426'
p89
sg4
S'20150426\xc2\xa08:00PM UTC'
p90
sg6
S'Junior Sweet Potato & Beef Medley Food Notification'
p91
sa(dp92
g2
S'http://www.reuters.com/article/2015/04/25/idUSnMKW4BSGfa+1dc+MKW20150425'
p93
sg4
S'20150426\xc2\xa07:55PM UTC'
p94
sg6
S'Updated Food Recall Warning: Heinz Brand Sweet Potato & Beef Medley Infant Food Recalled Due to Potential for Spoilage'
p95
sa(dp96
g2
S'http://www.reuters.com/article/2015/04/25/idUSnCCNJWXmC+fd+MKW20150425'
p97
sg4
S'20150426\xc2\xa07:55PM UTC'
p98
sg6
S'Updated Food Recall Warning: Heinz Brand Sweet Potato & Beef Medley Infant Food Recalled Due to Potential for Spoilage'
p99
sa(dp100
g2
S'http://www.reuters.com/article/2015/04/25/bbo-nationals-marlins-recap-idUSMTZEB4QDX9SGW20150425'
p101
sg4
S'20150426\xc2\xa07:52PM UTC'
p102
sg6
S'Marlins 8, Nationals 0'
p103
sa(dp104
g2
S'http://www.reuters.com/article/2015/04/25/bbo-mets-yankees-recap-idUSMTZEB4QDXX6HK20150425'
p105
sg4
S'20150426\xc2\xa07:48PM UTC'
p106
sg6
S'Mets 8, Yankees 2'
p107
sa(dp108
g2
S'http://www.reuters.com/article/2015/04/25/hkn-capitals-islanders-recap-idUSMTZEB4PDV8QCH20150425'
p109
sg4
S'20150426\xc2\xa07:44PM UTC'
p110
sg6
S'Islanders 3, Capitals 1'
p111
sa(dp112
g2
S'http://www.reuters.com/article/2015/04/25/us-ivorycoast-politics-idUSKBN0NG10420150425'
p113
sg4
S'20150426\xc2\xa07:36PM UTC'
p114
sg6
S'Ivory Coast coalition names Ouattara as candidate for October election'
p115
sa(dp116
g2
S'http://www.reuters.com/article/2015/04/25/ivorycoast-politics-idUSL8N0XM0TF20150425'
p117
sg4
S'20150426\xc2\xa07:33PM UTC'
p118
sg6
S'Ivory Coast coalition names Ouattara as candidate for October election'
p119
sa(dp120
g2
S'http://www.reuters.com/article/2015/04/25/bbo-astros-athletics-recap-idUSMTZEB4QDY8NI320150425'
p121
sg4
S'20150426\xc2\xa07:32PM UTC'
p122
sg6
S'Astros 9, Athletics 3'
p123
sa(dp124
g2
S'http://www.reuters.com/article/2015/04/25/us-usa-cybersecurity-whitehouse-idUSKBN0NG0Z920150425'
p125
sg4
S'20150426\xc2\xa07:30PM UTC'
p126
sg6
S"Russian hackers read Obama's unclassified emails last year: NYT"
p127
sa(dp128
g2
S'http://www.reuters.com/article/2015/04/25/bkn-hawks-nets-writethru-idUSMTZEB4PDV69CG20150425'
p129
sg4
S'20150426\xc2\xa07:30PM UTC'
p130
sg6
S'Defense keeps Nets in series vs. Hawks'
p131
sa(dp132
g2
S'http://www.reuters.com/article/2015/04/25/us-quake-nepal-collapse-idUSKBN0NG07B20150425'
p133
sg4
S'20150426\xc2\xa07:30PM UTC'
p134
sg6
S'Nepal seeks help, death toll seen rising after devastating quake'
p135
sa(dp136
g2
S'http://www.reuters.com/article/2015/04/25/us-quake-nepal-usa-climbers-idUSKBN0NG0ZW20150425'
p137
sg4
S'20150426\xc2\xa07:29PM UTC'
p138
sg6
S'U.S. mountaineering companies scramble to keep in touch with Everest climbers'
p139
sa(dp140
g2
S'http://www.reuters.com/article/2015/04/25/quake-nepal-usa-climbers-idUSL1N0XM0QZ20150425'
p141
sg4
S'20150426\xc2\xa07:28PM UTC'
p142
sg6
S'U.S. mountaineering companies scramble to keep in touch with Everest climbers'
p143
sa(dp144
g2
S'http://www.reuters.com/article/2015/04/25/us-earthquake-nepal-google-idUSKBN0NG0ZU20150425'
p145
sg4
S'20150426\xc2\xa07:25PM UTC'
p146
sg6
S'Google executive killed in Mount Everest avalanche after quake'
p147
sa(dp148
g2
S'http://www.reuters.com/article/2015/04/25/earthquake-nepal-google-idUSL1N0XM0OE20150425'
p149
sg4
S'20150426\xc2\xa07:21PM UTC'
p150
sg6
S'Google executive killed in Mount Everest avalanche after quake'
p151
sa(dp152
g2
S'http://www.reuters.com/article/2015/04/25/nathans-famous-grant-idUSnPnN5mdl+50+PRN20150425'
p153
sg4
S'20150426\xc2\xa07:19PM UTC'
p154
sg6
S"United Methodist Family Services Honored by Nathan's Famous, MARTIN'S and NASCAR Driver Aric Almirola"
p155
sa(dp156
g2
S'http://www.reuters.com/article/2015/04/25/us-burundi-politics-idUSKBN0NG09Y20150425'
p157
sg4
S'20150426\xc2\xa07:10PM UTC'
p158
sg6
S'Burundi ruling party nominates president for third term, risking unrest'
p159
sa(dp160
g2
S'http://www.reuters.com/article/2015/04/25/us-usa-security-plot-idUSKBN0NG0Y720150425'
p161
sg4
S'20150426\xc2\xa07:07PM UTC'
p162
sg6
S'FBI investigating possible Islamic State terrorism plot in U.S.: CNN'
p163
sa(dp164
g2
S'http://www.reuters.com/article/2015/04/25/us-health-birdflu-virus-insight-idUSKBN0NG0ZJ20150425'
p165
sg4
S'20150426\xc2\xa07:06PM UTC'
p166
sg6
S'New avian flu viruses send U.S. scientists scrambling'
p167
sa(dp168
g2
S'http://www.reuters.com/article/2015/04/25/usa-security-plot-idUSL1N0XM0P420150425'
p169
sg4
S'20150426\xc2\xa07:04PM UTC'
p170
sg6
S'UPDATE 2-FBI investigating possible Islamic State terrorism plot in U.S. -CNN'
p171
sa(dp172
g2
S'http://www.reuters.com/article/2015/04/25/us-quake-nepal-everest-idUSKBN0NG0AJ20150425'
p173
sg4
S'20150426\xc2\xa07:02PM UTC'
p174
sg6
S'Quake triggers Everest avalanche, reports say 18 killed'
p175
sa(dp176
g2
S'http://www.reuters.com/article/2015/04/25/us-volkswagen-ceo-chairman-idUSKBN0NG0N720150425'
p177
sg4
S'20150426\xc2\xa06:56PM UTC'
p178
sg6
S'Ferdinand Piech resigns, ending an era at Volkswagen'
p179
sa(dp180
g2
S'http://www.reuters.com/article/2015/04/25/us-volkswagen-ceo-piech-newsmaker-idUSKBN0NG0Z720150425'
p181
sg4
S'20150426\xc2\xa06:56PM UTC'
p182
sg6
S'Ruthless VW patriarch Piech overplays last hand  '
p183
sa(dp184
g2
S'http://www.reuters.com/article/2015/04/25/health-birdflu-virus-idUSL1N0XM0K620150425'
p185
sg4
S'20150426\xc2\xa06:55PM UTC'
p186
sg6
S'INSIGHT-New avian flu viruses send U.S. scientists scrambling'
p187
sa(dp188
g2
S'http://www.reuters.com/article/2015/04/25/usa-cybersecurity-whitehouse-idUSL1N0XM0Q120150425'
p189
sg4
S'20150426\xc2\xa06:53PM UTC'
p190
sg6
S"Russian hackers read Obama's unclassified emails last year -NYT"
p191
sa(dp192
g2
S'http://www.reuters.com/article/2015/04/25/volkswagen-ceo-piech-idUSL8N0XM0NT20150425'
p193
sg4
S'20150426\xc2\xa06:53PM UTC'
p194
sg6
S'NEWSMAKER-Ruthless VW patriarch Piech overplays last hand'
p195
sa(dp196
g2
S'http://www.reuters.com/article/2015/04/25/us-sweden-syria-idUSKBN0NG0XO20150425'
p197
sg4
S'20150426\xc2\xa06:31PM UTC'
p198
sg6
S'Two Swedes abducted by Nusfra Front in Syria freed: TT news agency'
p199
sa(dp200
g2
S'http://www.reuters.com/article/2015/04/25/commercewest-bank-csr-idUSnPn6Bk4Q9+92+PRN20150425'
p201
sg4
S'20150426\xc2\xa06:31PM UTC'
p202
sg6
S'CommerceWest Bank and United Cerebral Palsy Combine Efforts to Empower People With Disabilities'
p203
sa(dp204
g2
S'http://www.reuters.com/article/2015/04/25/us-usa-police-baltimore-protest-idUSKBN0NG0RQ20150425'
p205
sg4
S'20150426\xc2\xa06:30PM UTC'
p206
sg6
S"Thousands march in Baltimore to protest black man's death"
p207
sa(dp208
g2
S'http://www.reuters.com/article/2015/04/25/wa-wsu-college-business-idUSnBw255019a+100+BSW20150425'
p209
sg4
S'20150426\xc2\xa06:28PM UTC'
p210
sg6
S'Experience, Adventure and Technology Combine to Win Washington State University Business Plan Completion'
p211
sa(dp212
g2
S'http://www.reuters.com/article/2015/04/25/idUSnGNX84XP2V+1cd+GNW20150425'
p213
sg4
S'20150426\xc2\xa06:03PM UTC'
p214
sg6
S'Statement of Hon. Ellen Tauscher, Independent Chair of The Alliance for Bangladesh Worker Safety on the Tragic Earthquake in Nepal.'
p215
sa(dp216
g2
S'http://www.reuters.com/article/2015/04/25/bbo-indians-tigers-writethru-idUSMTZEB4PDQ426L20150425'
p217
sg4
S'20150426\xc2\xa06:01PM UTC'
p218
sg6
S'Simon (4-0) pitches Tigers over Indians'
p219
sa(dp220
g2
S'http://www.reuters.com/article/2015/04/25/us-togo-election-idUSKBN0NG0BH20150425'
p221
sg4
S'20150426\xc2\xa05:54PM UTC'
p222
sg6
S'Togolese leader set to extend rule in presidential election'
p223
sa(dp224
g2
S'http://www.reuters.com/article/2015/04/25/us-indonesia-executions-idUSKBN0NG0F820150425'
p225
sg4
S'20150426\xc2\xa05:53PM UTC'
p226
sg6
S'Indonesia informs death row convicts execution just days away'
p227
sa(dp228
g2
S'http://www.reuters.com/article/2015/04/25/us-indonesia-executions-un-idUSKBN0NG0YK20150425'
p229
sg4
S'20150426\xc2\xa05:53PM UTC'
p230
sg6
S'U.N. chief appeals to Indonesia not to carry out executions'
p231
sa(dp232
g2
S'http://www.reuters.com/article/2015/04/25/idUSnMKWp0TYfa+1cc+MKW20150425'
p233
sg4
S'20150426\xc2\xa05:45PM UTC'
p234
sg6
S'Lutheran World Relief Readies Response Following Deadly Earthquake in Nepal'
p235
sa(dp236
g2
S'http://www.reuters.com/article/2015/04/25/idUSnCCNc8Kjcs+1c8+MKW20150425'
p237
sg4
S'20150426\xc2\xa05:45PM UTC'
p238
sg6
S'Lutheran World Relief Readies Response Following Deadly Earthquake in Nepal'
p239
sa(dp240
g2
S'http://www.reuters.com/article/2015/04/25/us-eurozone-greece-dragasakis-idUSKBN0NG0T020150425'
p241
sg4
S'20150426\xc2\xa05:31PM UTC'
p242
sg6
S'Greece, lenders must reach deal by early May, Deputy PM tells paper'
p243
sa(dp244
g2
S'http://www.reuters.com/article/2015/04/25/us-israel-palestinians-idUSKBN0NF2F520150425'
p245
sg4
S'20150426\xc2\xa05:30PM UTC'
p246
sg6
S'Israeli forces kill two knife-wielding Palestinians - police'
p247
sa(dp248
g2
S'http://www.reuters.com/article/2015/04/25/us-motorcycling-marquez-idUSKBN0NG0Y120150425'
p249
sg4
S'20150426\xc2\xa05:28PM UTC'
p250
sg6
S'Marquez has hand surgery after training accident'
p251
sa(dp252
g2
S'http://www.reuters.com/article/2015/04/25/us-ghana-ivorycoast-oil-idUSKBN0NG0IX20150425'
p253
sg4
S'20150426\xc2\xa05:26PM UTC'
p254
sg6
S'Ghana can continue development in Ivory Coast oil dispute: tribunal'
p255
sa(dp256
g2
S'http://www.reuters.com/article/2015/04/25/ghana-ivorycoast-oil-idUSL8N0XM0HS20150425'
p257
sg4
S'20150426\xc2\xa05:24PM UTC'
p258
sg6
S'UPDATE 2-Ghana can continue development in Ivory Coast oil dispute -tribunal'
p259
sa(dp260
g2
S'http://www.reuters.com/article/2015/04/25/volkswagen-ceo-chairman-idUSL8N0XM0JG20150425'
p261
sg4
S'20150426\xc2\xa05:05PM UTC'
p262
sg6
S'UPDATE 4-Ferdinand Piech resigns, ending an era at Volkswagen'
p263
sa(dp264
g2
S'http://www.reuters.com/article/2015/04/25/us-bristolmyers-hepatitis-c-idUSKBN0NG0XM20150425'
p265
sg4
S'20150426\xc2\xa05:04PM UTC'
p266
sg6
S'Bristol-Myers says hepatitis C drug combination succeeds in study'
p267
sa(dp268
g2
S'http://www.reuters.com/article/2015/04/25/us-usa-explosion-kentucky-idUSKBN0NG0XK20150425'
p269
sg4
S'20150426\xc2\xa05:03PM UTC'
p270
sg6
S'Blast injures two at legal Kentucky moonshine distillery'
p271
sa(dp272
g2
S'http://www.reuters.com/article/2015/04/25/us-venezuela-opposition-idUSKBN0NG0XG20150425'
p273
sg4
S'20150426\xc2\xa05:02PM UTC'
p274
sg6
S'Venezuela opposition mayor Ledezma out of jail for surgery'
p275
sa(dp276
g2
S'http://www.reuters.com/article/2015/04/25/bristolmyers-hepatitis-c-idUSL4N0XL69820150425'
p277
sg4
S'20150426\xc2\xa05:00PM UTC'
p278
sg6
S'Bristol-Myers says hepatitis C drug combination succeeds in study'
p279
sa(dp280
g2
S'http://www.reuters.com/article/2015/04/25/usa-explosion-kentucky-idUSL1N0XM0LH20150425'
p281
sg4
S'20150426\xc2\xa04:55PM UTC'
p282
sg6
S'Blast injures two at legal Kentucky moonshine distillery'
p283
sa(dp284
g2
S'http://www.reuters.com/article/2015/04/25/libya-oil-idUSL8N0XM0QQ20150425'
p285
sg4
S'20150426\xc2\xa04:48PM UTC'
p286
sg6
S'UPDATE 1-Libya shuts down El Feel oilfield - field engineer'
p287
sa(dp288
g2
S'http://www.reuters.com/article/2015/04/25/ma-global-rescue-idUSnBw255011a+100+BSW20150425'
p289
sg4
S'20150426\xc2\xa04:48PM UTC'
p290
sg6
S'Global Rescue Engaged in Rescue Operations Following Nepal Earthquake'
p291
sa(dp292
g2
S'http://www.reuters.com/article/2015/04/25/us-europe-migrants-italy-idUSKBN0NG0U520150425'
p293
sg4
S'20150426\xc2\xa04:47PM UTC'
p294
sg6
S'Migrant rescue mission must extend closer to Libya: Amnesty International'
p295
sa(dp296
g2
S'http://www.reuters.com/article/2015/04/25/us-kazakhstan-election-idUSKBN0NG0WP20150425'
p297
sg4
S'20150426\xc2\xa04:37PM UTC'
p298
sg6
S'Kazakh leader seals power with stability before democratic reform'
p299
sa(dp300
g2
S'http://www.reuters.com/article/2015/04/25/us-portugal-politics-coalition-idUSKBN0NG0X520150425'
p301
sg4
S'20150426\xc2\xa04:35PM UTC'
p302
sg6
S"Portugal's ruling coalition agrees election alliance"
p303
sa(dp304
g2
S'http://www.reuters.com/article/2015/04/25/us-ghana-ivorycoast-oil-tullow-idUSKBN0NG0X120150425'
p305
sg4
S'20150426\xc2\xa04:33PM UTC'
p306
sg6
S"Tullow says 'TEN' oil project 'can move ahead' after court ruling"
p307
sa(dp308
g2
S'http://www.reuters.com/article/2015/04/25/mercy-corps-nepal-idUSnPn6vd5l0+80+PRN20150425'
p309
sg4
S'20150426\xc2\xa04:30PM UTC'
p310
sg6
S'Mercy Corps Prepares Emergency Response in Nepal'
p311
sa(dp312
g2
S'http://www.reuters.com/article/2015/04/25/britain-election-poll-yougov-idUSU8N0XL0B720150425'
p313
sg4
S'20150426\xc2\xa04:27PM UTC'
p314
sg6
S"Britain's Labour has 2 point lead ahead of election - YouGov poll for Sunday Times"
p315
sa(dp316
g2
S'http://www.reuters.com/article/2015/04/25/ajc-mourns-minister-idUSnPnYmCzV+55+PRN20150425'
p317
sg4
S'20150426\xc2\xa04:26PM UTC'
p318
sg6
S'AJC Mourns Passing of Wladyslaw Bartoszewski, former Polish Foreign Minister and a "Righteous among the Nations"'
p319
sa(dp320
g2
S'http://www.reuters.com/article/2015/04/25/us-ukraine-crisis-casualties-idUSKBN0NG0B220150425'
p321
sg4
S'20150426\xc2\xa04:25PM UTC'
p322
sg6
S'Ukraine and pro-Russian separatists trade accusations as Minsk deal frays'
p323
sa(dp324
g2
S'http://www.reuters.com/article/2015/04/25/libya-oil-idUSL8N0XM0QG20150425'
p325
sg4
S'20150426\xc2\xa04:25PM UTC'
p326
sg6
S'Libya shuts down El Feel oilfield - field engineer'
p327
sa(dp328
g2
S'http://www.reuters.com/article/2015/04/25/us-chile-volcano-idUSKBN0NG0L920150425'
p329
sg4
S'20150426\xc2\xa04:24PM UTC'
p330
sg6
S'Chile volcano ash cloud reaches Brazil; some flights canceled'
p331
sa(dp332
g2
S'http://www.reuters.com/article/2015/04/25/us-quake-nepal-usa-idUSKBN0NG0OX20150425'
p333
sg4
S'20150426\xc2\xa04:21PM UTC'
p334
sg6
S'U.S. sending disaster team, initial $1 million to Nepal: Kerry'
p335
sa(dp336
g2
S'http://www.reuters.com/article/2015/04/25/idUSnMKWT4VHna+1ec+MKW20150425'
p337
sg4
S'20150426\xc2\xa04:10PM UTC'
p338
sg6
S'Minister Findlay: Economic Action Plan 2015 Demonstrates Commitment to Jobs, Growth, and Security in Winnipeg and Across Manitoba'
p339
sa(dp340
g2
S'http://www.reuters.com/article/2015/04/25/uk-ghana-ivorycoast-oil-tullow-idUSKBN0NG0WC20150425'
p341
sg4
S'20150426\xc2\xa04:04PM UTC'
p342
sg6
S"Tullow says 'TEN' oil project 'can move ahead' after court ruling"
p343
sa(dp344
g2
S'http://www.reuters.com/article/2015/04/25/wa-nintendo-idUSnBw255013a+100+BSW20150425'
p345
sg4
S'20150426\xc2\xa04:01PM UTC'
p346
sg6
S"Photos of Nintendo Icon Mario and Kids, Parents and Fans Playing Puzzle & Dragons Z + Puzzle & Dragons Super Mario Bros. Edition at Nintendo World Store in New York are Available on Business Wire's Website and AP PhotoExpres"
p347
sa(dp348
g2
S'http://www.reuters.com/article/2015/04/25/foresters-newplaygrnd-idUSnPnbsJLBn+8e+PRN20150425'
p349
sg4
S'20150426\xc2\xa04:00PM UTC'
p350
sg6
S'Foresters, KaBOOM! and volunteers bring families together with new playground at Kittredge Park'
p351
sa(dp352
g2
S'http://www.reuters.com/article/2015/04/25/ghana-ivorycoast-oil-tullow-idUSL8N0XM0PO20150425'
p353
sg4
S'20150426\xc2\xa03:57PM UTC'
p354
sg6
S'Tullow says "TEN" oil project "can move ahead" after court ruling'
p355
sa(dp356
g2
S'http://www.reuters.com/article/2015/04/25/us-usa-indiana-hiv-idUSKBN0NF1TS20150425'
p357
sg4
S'20150426\xc2\xa03:49PM UTC'
p358
sg6
S'Indiana HIV cases reach 142 in rural outbreak, more expected'
p359
sa(dp360
g2
S'http://www.reuters.com/article/2015/04/25/us-syria-crisis-town-idUSKBN0NG09220150425'
p361
sg4
S'20150426\xc2\xa03:47PM UTC'
p362
sg6
S"Islamist fighters seize Syria's Jisr al-Shughour, army says redeploys"
p363
sa(dp364
g2
S'http://www.reuters.com/article/2015/04/25/us-venezuela-pdvsa-idUSKBN0NG0W020150425'
p365
sg4
S'20150426\xc2\xa03:42PM UTC'
p366
sg6
S"Venezuelan state firm PDVSA's oil revenue slips 7.6 percent in 2014"
p367
sa(dp368
g2
S'http://www.reuters.com/article/2015/04/25/us-turkey-gallipoli-anniversary-idUSKBN0NG06D20150425'
p369
sg4
S'20150426\xc2\xa03:26PM UTC'
p370
sg6
S'Thousands gather at dawn ceremony to mark Gallipoli centenary'
p371
sa(dp372
g2
S'http://www.reuters.com/article/2015/04/25/us-retail-abercrombie-marketing-idUSKBN0NG0V520150425'
p373
sg4
S'20150426\xc2\xa03:04PM UTC'
p374
sg6
S"Abercrombie & Fitch to ditch 'sexualized marketing': Washington Post "
p375
sa(dp376
g2
S'http://www.reuters.com/article/2015/04/25/quake-nepal-usa-idUSL1N0XM0JX20150425'
p377
sg4
S'20150426\xc2\xa02:59PM UTC'
p378
sg6
S'UPDATE 1-U.S. sending disaster team, initial $1 million to Nepal -Kerry'
p379
sa(dp380
g2
S'http://www.reuters.com/article/2015/04/25/us-india-charity-watchlist-idUSKBN0NG0UZ20150425'
p381
sg4
S'20150426\xc2\xa02:59PM UTC'
p382
sg6
S'U.S. voices concern over India action against Ford Foundation, Greenpeace'
p383
sa(dp384
g2
S'http://www.reuters.com/article/2015/04/25/us-safrica-violence-nigeria-idUSKBN0NG0UT20150425'
p385
sg4
S'20150426\xc2\xa02:58PM UTC'
p386
sg6
S'Nigeria recalls envoy to South Africa over attacks on foreigners'
p387
sa(dp388
g2
S'http://www.reuters.com/article/2015/04/25/us-baseball-suspensions-idUSKBN0NG0UH20150425'
p389
sg4
S'20150426\xc2\xa02:52PM UTC'
p390
sg6
S'Seven players disciplined after White Sox-Royals brawl'
p391
sa(dp392
g2
S'http://www.reuters.com/article/2015/04/25/us-horse-racing-mccoy-reaction-idUSKBN0NG0UB20150425'
p393
sg4
S'20150426\xc2\xa02:50PM UTC'
p394
sg6
S'McCoy says farewell was one of his hardest days'
p395
sa(dp396
g2
S'http://www.reuters.com/article/2015/04/25/us-golf-lpga-idUSKBN0NG06J20150425'
p397
sg4
S'20150426\xc2\xa02:48PM UTC'
p398
sg6
S'Canadian Henderson upstages birthday girl Ko to lead Classic'
p399
sa(dp400
g2
S'http://www.reuters.com/article/2015/04/25/us-usa-coyote-new-york-idUSKBN0NG0U920150425'
p401
sg4
S'20150426\xc2\xa02:44PM UTC'
p402
sg6
S"Hey, that's my cappuccino! Coyote captured outside lower Manhattan cafe"
p403
sa(dp404
g2
S'http://www.reuters.com/article/2015/04/25/retail-abercrombie-marketing-idUSL1N0XM0JM20150425'
p405
sg4
S'20150426\xc2\xa02:43PM UTC'
p406
sg6
S"Abercrombie & Fitch to ditch 'sexualized marketing' -Washington Post"
p407
sa(dp408
g2
S'http://www.reuters.com/article/2015/04/25/volkswagen-ceo-porsche-hldg-idUSL8N0XM0OJ20150425'
p409
sg4
S'20150426\xc2\xa02:40PM UTC'
p410
sg6
S"Porsche SE backs VW management after chairman's exit"
p411
sa(dp412
g2
S'http://www.reuters.com/article/2015/04/25/us-germany-russia-bikers-idUSKBN0NG0U220150425'
p413
sg4
S'20150426\xc2\xa02:40PM UTC'
p414
sg6
S'Germany says will deny entry to some Russian Night Wolves bikers'
p415
sa(dp416
g2
S'http://www.reuters.com/article/2015/04/25/us-usa-airline-diversion-idUSKBN0NG07J20150425'
p417
sg4
S'20150426\xc2\xa02:23PM UTC'
p418
sg6
S"Southwest Airlines flight diverted to Denver over 'pressurization': media"
p419
sa(dp420
g2
S'http://www.reuters.com/article/2015/04/25/us-starbucks-outage-idUSKBN0NG01120150425'
p421
sg4
S'20150426\xc2\xa02:13PM UTC'
p422
sg6
S'Starbucks payment system outage in U.S., Canada resolved'
p423
sa(dp424
g2
S'http://www.reuters.com/article/2015/04/25/us-tennis-women-stuttgart-idUSKBN0NG0LY20150425'
p425
sg4
S'20150426\xc2\xa02:12PM UTC'
p426
sg6
S'Wozniacki to meet Kerber in Stuttgart final'
p427
sa(dp428
g2
S'http://www.reuters.com/article/2015/04/25/us-bangladesh-ranaplaza-idUSKBN0NG0SQ20150425'
p429
sg4
S'20150426\xc2\xa02:07PM UTC'
p430
sg6
S'Up to 150,000 Bangladesh workers lost jobs after Rana Plaza safety overhaul '
p431
sa(dp432
g2
S'http://www.reuters.com/article/2015/04/25/plan-nepal-response-idUSnPnbRVJGn+9e+PRN20150425'
p433
sg4
S'20150426\xc2\xa01:53PM UTC'
p434
sg6
S'Plan International in Place to Respond to Nepal Earthquake'
p435
sa(dp436
g2
S'http://www.reuters.com/article/2015/04/25/unicef-nepal-children-idUSnPn1qTMD5+8e+PRN20150425'
p437
sg4
S'20150426\xc2\xa01:50PM UTC'
p438
sg6
S'UNICEF Mobilized to Assist Children in Nepal Affected by Powerful Earthquake'
p439
sa(dp440
g2
S'http://www.reuters.com/article/2015/04/25/eurozone-greece-dragasakis-idUSL8N0XM0KN20150425'
p441
sg4
S'20150426\xc2\xa01:46PM UTC'
p442
sg6
S'Greece, lenders must reach deal by early May, Deputy PM tells paper'
p443
sa(dp444
g2
S'http://www.reuters.com/article/2015/04/25/bangladesh-ranaplaza-idUSL4N0XM07Y20150425'
p445
sg4
S'20150426\xc2\xa01:46PM UTC'
p446
sg6
S'Up to 150,000 Bangladesh workers lost jobs after Rana Plaza safety overhaul'
p447
sa(dp448
g2
S'http://www.reuters.com/article/2015/04/25/us-quake-nepal-toll-idUSKBN0NG0S420150425'
p449
sg4
S'20150426\xc2\xa01:46PM UTC'
p450
sg6
S'Nepal earthquake toll rises to 1,341: police'
p451
sa(dp452
g2
S'http://www.reuters.com/article/2015/04/25/us-volkswagen-ceo-shareholders-idUSKBN0NG0S020150425'
p453
sg4
S'20150426\xc2\xa01:44PM UTC'
p454
sg6
S"Lower Saxony premier says VW Chairman's exit was 'unavoidable'"
p455
sa(dp456
g2
S'http://www.reuters.com/article/2015/04/25/volkswagen-ceo-shareholders-idUSL8N0XM0MF20150425'
p457
sg4
S'20150426\xc2\xa01:43PM UTC'
p458
sg6
S"Lower Saxony premier says VW Chairman's exit was 'unavoidable'"
p459
sa(dp460
g2
S'http://www.reuters.com/article/2015/04/25/us-italy-swiss-arrest-idUSKBN0NG0RO20150425'
p461
sg4
S'20150426\xc2\xa01:34PM UTC'
p462
sg6
S'Swiss police arrest Italian businessman over crimes worth billions of euros'
p463
sa(dp464
g2
S'http://www.reuters.com/article/2015/04/25/italy-swiss-arrest-idUSL8N0XM0B420150425'
p465
sg4
S'20150426\xc2\xa01:22PM UTC'
p466
sg6
S'Swiss police arrest Italian businessman over crimes worth billions of euros'
p467
sa(dp468
g2
S'http://www.reuters.com/article/2015/04/25/us-britain-election-poll-opinium-idUSKBN0NG0R620150425'
p469
sg4
S'20150426\xc2\xa01:14PM UTC'
p470
sg6
S"UK Conservatives' lead narrows to 1 point over Labour in Opinium poll"
p471
sa(dp472
g2
S'http://www.reuters.com/article/2015/04/25/us-tennis-men-barcelona-idUSKBN0NG0R220150425'
p473
sg4
S'20150426\xc2\xa01:11PM UTC'
p474
sg6
S'Nishikori faces surprise finalist Andujar in Barcelona'
p475
sa(dp476
g2
S'http://www.reuters.com/article/2015/04/25/idUSnHUGb1T4Qx+1ca+ONE20150425'
p477
sg4
S'20150426\xc2\xa01:01PM UTC'
p478
sg6
S'REG-HARLEY-DAVIDSON, INC. DECLARES DIVIDEND'
p479
sa(dp480
g2
S'http://www.reuters.com/article/2015/04/25/bbo-dodgers-playerwatch-idUSMTZEB4PDGLP3P20150425'
p481
sg4
S'20150426\xc2\xa01:01PM UTC'
p482
sg6
S'Los Angeles Dodgers - PlayerWatch'
p483
sa(dp484
g2
S'http://www.reuters.com/article/2015/04/25/bbo-brewers-playerwatch-idUSMTZEB4PDGLP3M20150425'
p485
sg4
S'20150426\xc2\xa01:01PM UTC'
p486
sg6
S'Milwaukee Brewers - PlayerWatch'
p487
sa(dp488
g2
S'http://www.reuters.com/article/2015/04/25/bbo-mariners-playerwatch-idUSMTZEB4PDGLP3920150425'
p489
sg4
S'20150426\xc2\xa01:01PM UTC'
p490
sg6
S'Seattle Mariners - PlayerWatch'
p491
sa(dp492
g2
S'http://www.reuters.com/article/2015/04/25/bbo-diamondbacks-playerwatch-idUSMTZEB4PDGLP3O20150425'
p493
sg4
S'20150426\xc2\xa01:01PM UTC'
p494
sg6
S'Arizona Diamondbacks - PlayerWatch'
p495
sa(dp496
g2
S'http://www.reuters.com/article/2015/04/25/bbo-cardinals-playerwatch-idUSMTZEB4PDGLP3J20150425'
p497
sg4
S'20150426\xc2\xa01:01PM UTC'
p498
sg6
S'St. Louis Cardinals - PlayerWatch'
p499
sa(dp500
g2
S'http://www.reuters.com/article/2015/04/25/bbo-tigers-playerwatch-idUSMTZEB4PDGLP3820150425'
p501
sg4
S'20150426\xc2\xa01:01PM UTC'
p502
sg6
S'Detroit Tigers - PlayerWatch'
p503
sa(dp504
g2
S'http://www.reuters.com/article/2015/04/25/bbo-astros-playerwatch-idUSMTZEB4PDGLP3I20150425'
p505
sg4
S'20150426\xc2\xa01:01PM UTC'
p506
sg6
S'Houston Astros - PlayerWatch'
p507
sa(dp508
g2
S'http://www.reuters.com/article/2015/04/25/bbo-indians-playerwatch-idUSMTZEB4PDGLP3720150425'
p509
sg4
S'20150426\xc2\xa01:01PM UTC'
p510
sg6
S'Cleveland Indians - PlayerWatch'
p511
sa(dp512
g2
S'http://www.reuters.com/article/2015/04/25/bbo-rays-playerwatch-idUSMTZEB4PDGLP3X20150425'
p513
sg4
S'20150426\xc2\xa01:01PM UTC'
p514
sg6
S'Tampa Bay Rays - PlayerWatch'
p515
sa(dp516
g2
S'http://www.reuters.com/article/2015/04/25/bbo-mets-playerwatch-idUSMTZEB4PDGLP3H20150425'
p517
sg4
S'20150426\xc2\xa01:01PM UTC'
p518
sg6
S'New York Mets - PlayerWatch'
p519
sa(dp520
g2
S'http://www.reuters.com/article/2015/04/25/bbo-twins-playerwatch-idUSMTZEB4PDGLP3620150425'
p521
sg4
S'20150426\xc2\xa01:01PM UTC'
p522
sg6
S'Minnesota Twins - PlayerWatch'
p523
sa(dp524
g2
S'http://www.reuters.com/article/2015/04/25/bbo-orioles-playerwatch-idUSMTZEB4PDGLP3W20150425'
p525
sg4
S'20150426\xc2\xa01:01PM UTC'
p526
sg6
S'Baltimore Orioles - PlayerWatch'
p527
sa(dp528
g2
S'http://www.reuters.com/article/2015/04/25/bbo-nationals-playerwatch-idUSMTZEB4PDGLP3G20150425'
p529
sg4
S'20150426\xc2\xa01:01PM UTC'
p530
sg6
S'Washington Nationals - PlayerWatch'
p531
sa(dp532
g2
S'http://www.reuters.com/article/2015/04/25/bbo-bluejays-playerwatch-idUSMTZEB4PDGLP3V20150425'
p533
sg4
S'20150426\xc2\xa01:01PM UTC'
p534
sg6
S'Toronto Blue Jays - PlayerWatch'
p535
sa(dp536
g2
S'http://www.reuters.com/article/2015/04/25/bbo-marlins-playerwatch-idUSMTZEB4PDGLP3F20150425'
p537
sg4
S'20150426\xc2\xa01:01PM UTC'
p538
sg6
S'Miami Marlins - PlayerWatch'
p539
sa(dp540
g2
S'http://www.reuters.com/article/2015/04/25/bbo-redsox-playerwatch-idUSMTZEB4PDGLP3U20150425'
p541
sg4
S'20150426\xc2\xa01:01PM UTC'
p542
sg6
S'Boston Red Sox - PlayerWatch'
p543
sa(dp544
g2
S'http://www.reuters.com/article/2015/04/25/bbo-phillies-playerwatch-idUSMTZEB4PDGLP3E20150425'
p545
sg4
S'20150426\xc2\xa01:01PM UTC'
p546
sg6
S'Philadelphia Phillies - PlayerWatch'
p547
sa(dp548
g2
S'http://www.reuters.com/article/2015/04/25/bbo-pirates-playerwatch-idUSMTZEB4PDGLP3T20150425'
p549
sg4
S'20150426\xc2\xa01:01PM UTC'
p550
sg6
S'Pittsburgh Pirates - PlayerWatch'
p551
sa(dp552
g2
S'http://www.reuters.com/article/2015/04/25/bbo-braves-playerwatch-idUSMTZEB4PDGLP3D20150425'
p553
sg4
S'20150426\xc2\xa01:01PM UTC'
p554
sg6
S'Atlanta Braves - PlayerWatch'
p555
sa(dp556
g2
S'http://www.reuters.com/article/2015/04/25/bbo-padres-playerwatch-idUSMTZEB4PDGLP3S20150425'
p557
sg4
S'20150426\xc2\xa01:01PM UTC'
p558
sg6
S'San Diego Padres - PlayerWatch'
p559
sa(dp560
g2
S'http://www.reuters.com/article/2015/04/25/bbo-rangers-playerwatch-idUSMTZEB4PDGLP3C20150425'
p561
sg4
S'20150426\xc2\xa01:01PM UTC'
p562
sg6
S'Texas Rangers - PlayerWatch'
p563
sa(dp564
g2
S'http://www.reuters.com/article/2015/04/25/bbo-rockies-playerwatch-idUSMTZEB4PDGLP3R20150425'
p565
sg4
S'20150426\xc2\xa01:01PM UTC'
p566
sg6
S'Colorado Rockies - PlayerWatch'
p567
sa(dp568
g2
S'http://www.reuters.com/article/2015/04/25/bbo-angels-playerwatch-idUSMTZEB4PDGLP3B20150425'
p569
sg4
S'20150426\xc2\xa01:01PM UTC'
p570
sg6
S'Los Angeles Angels - PlayerWatch'
p571
sa(dp572
g2
S'http://www.reuters.com/article/2015/04/25/bbo-yankees-playerwatch-idUSMTZEB4PDGLP3Q20150425'
p573
sg4
S'20150426\xc2\xa01:01PM UTC'
p574
sg6
S'New York Yankees - PlayerWatch'
p575
sa(dp576
g2
S'http://www.reuters.com/article/2015/04/25/bbo-giants-playerwatch-idUSMTZEB4PDGLP3N20150425'
p577
sg4
S'20150426\xc2\xa01:01PM UTC'
p578
sg6
S'San Francisco Giants - PlayerWatch'
p579
sa(dp580
g2
S'http://www.reuters.com/article/2015/04/25/bbo-athletics-playerwatch-idUSMTZEB4PDGLP3A20150425'
p581
sg4
S'20150426\xc2\xa01:01PM UTC'
p582
sg6
S'Oakland Athletics - PlayerWatch'
p583
sa(dp584
g2
S'http://www.reuters.com/article/2015/04/25/us-yemen-security-un-idUSKBN0NG0QI20150425'
p585
sg4
S'20150426\xc2\xa012:57PM UTC'
p586
sg6
S'U.N. chief appoints Mauritanian diplomat as new Yemen envoy'
p587
sa(dp588
g2
S'http://www.reuters.com/article/2015/04/25/us-germany-coal-protests-idUSKBN0NG0Q220150425'
p589
sg4
S'20150426\xc2\xa012:46PM UTC'
p590
sg6
S'Thousands of coal workers march in Berlin in protest against climate tax'
p591
sa(dp592
g2
S'http://www.reuters.com/article/2015/04/25/us-golf-pga-second-idUSKBN0NG0PV20150425'
p593
sg4
S'20150426\xc2\xa012:44PM UTC'
p594
sg6
S'Day leads after weather-hit second round in New Orleans'
p595
sa(dp596
g2
S'http://www.reuters.com/article/2015/04/25/chile-volcano-idUSL1N0XM0E920150425'
p597
sg4
S'20150426\xc2\xa012:38PM UTC'
p598
sg6
S'UPDATE 1-Chile volcano ash cloud reaches Brazil; some flights canceled'
p599
sa(dp600
g2
S'http://www.reuters.com/article/2015/04/25/us-mideast-crisis-strikes-idUSKBN0NG0PL20150425'
p601
sg4
S'20150426\xc2\xa012:33PM UTC'
p602
sg6
S'U.S., allies conduct 15 air strikes in Syria, Iraq: military'
p603
sa(dp604
g2
S'http://www.reuters.com/article/2015/04/25/us-ubi-m-a-idUSKBN0NG0K920150425'
p605
sg4
S'20150426\xc2\xa012:32PM UTC'
p606
sg6
S"UBI doesn't rule out Monte Paschi tie-up but won't be pushed into bad deal: CEO"
p607
sa(dp608
g2
S'http://www.reuters.com/article/2015/04/25/us-volkswagen-ceo-committee-idUSKBN0NG0PJ20150425'
p609
sg4
S'20150426\xc2\xa012:31PM UTC'
p610
sg6
S'Volkswagen senior board members say mutual trust was lost'
p611
sa(dp612
g2
S'http://www.reuters.com/article/2015/04/25/us-quake-nepal-witnesses-idUSKBN0NG0PC20150425'
p613
sg4
S'20150426\xc2\xa012:30PM UTC'
p614
sg6
S'Terror and panic in Kathmandu as deadly quake struck'
p615
sa(dp616
g2
S'http://www.reuters.com/article/2015/04/25/volkswagen-ceo-committee-idUSL8N0XM0KB20150425'
p617
sg4
S'20150426\xc2\xa012:30PM UTC'
p618
sg6
S'Volkswagen senior board members say mutual trust was lost'
p619
sa(dp620
g2
S'http://www.reuters.com/article/2015/04/25/us-egypt-sinai-idUSKBN0NG0OZ20150425'
p621
sg4
S'20150426\xc2\xa012:27PM UTC'
p622
sg6
S'Egypt extends state of emergency in northern Sinai by three months'
p623
sa(dp624
g2
S'http://www.reuters.com/article/2015/04/25/ubi-ma-idUSL8N0XM0FV20150425'
p625
sg4
S'20150426\xc2\xa012:26PM UTC'
p626
sg6
S"UPDATE 1-UBI doesn't rule out Monte Paschi tie-up but won't be pushed into bad deal -CEO"
p627
sa(dp628
g2
S'http://www.reuters.com/article/2015/04/25/us-nigeria-violence-idUSKBN0NG0KR20150425'
p629
sg4
S'20150426\xc2\xa012:22PM UTC'
p630
sg6
S'Two Nigerian soldiers die in accidental explosion: army'
p631
sa(dp632
g2
S'http://www.reuters.com/article/2015/04/25/us-people-brucejenner-transgender-idUSKBN0NG0NH20150425'
p633
sg4
S'20150426\xc2\xa012:08PM UTC'
p634
sg6
S'Now out, Bruce Jenner shines spotlight on transgender inequality'
p635
sa(dp636
g2
S'http://www.reuters.com/article/2015/04/25/uk-soccer-germany-idUSKBN0NG0NJ20150425'
p637
sg4
S'20150426\xc2\xa011:58AM UTC'
p638
sg6
S"Aubameyang keeps Dortmund's Europa League hopes alive"
p639
sa(dp640
g2
S'http://www.reuters.com/article/2015/04/25/us-bosnia-serbs-secession-idUSKBN0NG0NB20150425'
p641
sg4
S'20150426\xc2\xa011:55AM UTC'
p642
sg6
S'Biggest Serb party in Bosnia threatens 2018 secession'
p643
sa(dp644
g2
S'http://www.reuters.com/article/2015/04/25/people-brucejenner-transgender-idUSL1N0XL02E20150425'
p645
sg4
S'20150426\xc2\xa011:52AM UTC'
p646
sg6
S'Now out, Bruce Jenner shines spotlight on transgender inequality'
p647
sa(dp648
g2
S'http://www.reuters.com/article/2015/04/25/volkswagen-ceo-chairman-idUSFWN0XL05Q20150425'
p649
sg4
S'20150426\xc2\xa011:49AM UTC'
p650
sg6
S'Volkswagen Chairman Piech resigns amid leadership crisis'
p651
sa(dp652
g2
S'http://www.reuters.com/article/2015/04/25/regulus-ilc-idUSnPn3pZJ7G+8d+PRN20150425'
p653
sg4
S'20150426\xc2\xa011:45AM UTC'
p654
sg6
S"Late-Breaking Oral Presentation at The International Liver Congress\xe2\x84\xa2 (ILC 2015) Highlights RG-101's Potent, Durable and Pan-Genotypic Effects in Diverse HCV Population"
p655
sa(dp656
g2
S'http://www.reuters.com/article/2015/04/25/us-deutschebank-restructuring-idUSKBN0NG0MR20150425'
p657
sg4
S'20150426\xc2\xa011:44AM UTC'
p658
sg6
S'Deutsche faces tough task paring back retail, investment banking'
p659
sa(dp660
g2
S'http://www.reuters.com/article/2015/04/25/us-deutsche-bank-restructuring-factbox-idUSKBN0NG0MZ20150425'
p661
sg4
S'20150426\xc2\xa011:44AM UTC'
p662
sg6
S"Factbox: Deutsche Bank's puzzle pieces for restructuring"
p663
sa(dp664
g2
S'http://www.reuters.com/article/2015/04/25/germany-coal-protests-idUSL5N0XL3O220150425'
p665
sg4
S'20150426\xc2\xa011:41AM UTC'
p666
sg6
S'Thousands of coal workers march in Berlin in protest against climate tax'
p667
sa(dp668
g2
S'http://www.reuters.com/article/2015/04/25/us-quake-nepal-toll-police-idUSKBN0NG0MP20150425'
p669
sg4
S'20150426\xc2\xa011:37AM UTC'
p670
sg6
S'Nepal quake death toll reaches 1,130: police spokesman'
p671
sa(dp672
g2
S'http://www.reuters.com/article/2015/04/25/scania-idUSnBw255010a+100+BSW20150425'
p673
sg4
S'20150426\xc2\xa011:37AM UTC'
p674
sg6
S'Scania: Lars Sonderg\xc3\xa5rd Wins Scania\xe2\x80\x99s Young Truck Driver Competition'
p675
sa(dp676
g2
S'http://www.reuters.com/article/2015/04/25/us-europe-migrants-captain-exclsuive-idUSKBN0NG0M620150425'
p677
sg4
S'20150426\xc2\xa011:30AM UTC'
p678
sg6
S'Exclusive: Brother says accused Tunisian was forced to captain migrant boat at gunpoint'
p679
sa(dp680
g2
S'http://www.reuters.com/article/2015/04/25/deutschebank-restructuring-idUSL8N0XM0FL20150425'
p681
sg4
S'20150426\xc2\xa011:29AM UTC'
p682
sg6
S'Deutsche faces tough task paring back retail, investment banking'
p683
sa(dp684
g2
S'http://www.reuters.com/article/2015/04/25/us-croatia-protests-idUSKBN0NG0M020150425'
p685
sg4
S'20150426\xc2\xa011:26AM UTC'
p686
sg6
S'Swiss franc debtors march in Croatia, demand central bank governor to resign'
p687
sa(dp688
g2
S'http://www.reuters.com/article/2015/04/25/croatia-protests-idUSL5N0XL1YL20150425'
p689
sg4
S'20150426\xc2\xa011:09AM UTC'
p690
sg6
S'Swiss franc debtors march in Croatia, demand cen bank governor to resign'
p691
sa(dp692
g2
S'http://www.reuters.com/article/2015/04/25/ghana-ivorycoast-oil-idUSL8N0XM06820150425'
p693
sg4
S'20150426\xc2\xa011:02AM UTC'
p694
sg6
S'Ghana can continue production in Ivory Coast oil dispute'
p695
sa(dp696
g2
S'http://www.reuters.com/article/2015/04/25/us-athletics-kenya-idUSKBN0NG0L520150425'
p697
sg4
S'20150426\xc2\xa010:51AM UTC'
p698
sg6
S'Kenya team for Bahamas relays hit by withdrawals'
p699
sa(dp700
g2
S'http://www.reuters.com/article/2015/04/25/chile-volcano-idUSL8N0XM0GS20150425'
p701
sg4
S'20150426\xc2\xa010:50AM UTC'
p702
sg6
S'Chile volcano ash cloud reaches Brazil, flights cancelled'
p703
sa(dp704
g2
S'http://www.reuters.com/article/2015/04/25/us-europe-food-horsemeat-idUSKBN0NG0L120150425'
p705
sg4
S'20150426\xc2\xa010:47AM UTC'
p706
sg6
S'Dutch detain three in French-led horsemeat investigation'
p707
sa(dp708
g2
S'http://www.reuters.com/article/2015/04/25/europe-food-horsemeat-idUSL8N0XM0FW20150425'
p709
sg4
S'20150426\xc2\xa010:47AM UTC'
p710
sg6
S'Dutch detain three in French-led horsemeat investigation'
p711
sa(dp712
g2
S'http://www.reuters.com/article/2015/04/25/intl-medical-nepal-idUSnPnbNmwwk+90+PRN20150425'
p713
sg4
S'20150426\xc2\xa010:45AM UTC'
p714
sg6
S'International Medical Corps Responding to Devastating Earthquake in Nepal'
p715
sa(dp716
g2
S'http://www.reuters.com/article/2015/04/25/us-boxing-pacquiao-retail-idUSKBN0NG0DM20150425'
p717
sg4
S'20150426\xc2\xa010:21AM UTC'
p718
sg6
S'Retailers make a killing ahead of Pacquiao-Mayweather megafight'
p719
sa(dp720
g2
S'http://www.reuters.com/article/2015/04/25/austria-heta-idUSL8N0XM0DO20150425'
p721
sg4
S'20150426\xc2\xa010:16AM UTC'
p722
sg6
S"Austria's Schelling plays down talk of Heta debt buyback"
p723
sa(dp724
g2
S'http://www.reuters.com/article/2015/04/25/us-motor-racing-schumacher-mick-idUSKBN0NG0JV20150425'
p725
sg4
S'20150426\xc2\xa010:04AM UTC'
p726
sg6
S'Mick Schumacher is best rookie on F4 race debut'
p727
sa(dp728
g2
S'http://www.reuters.com/article/2015/04/25/ma-enanta-pharmaceutical-idUSnBw255008a+100+BSW20150425'
p729
sg4
S'20150426\xc2\xa010:04AM UTC'
p730
sg6
S'Enanta Pharmaceuticals Announces Preliminary Data from AbbVie\xe2\x80\x99s Phase 3b RUBY-I Study in Chronic Hepatitis C Patients with Renal Impairment Presented at The International Liver Congress\xe2\x84\xa2 2015'
p731
sa(dp732
g2
S'http://www.reuters.com/article/2015/04/25/abbvie-ilc-2015-data-idUSnPn37r2tJ+81+PRN20150425'
p733
sg4
S'20150426\xc2\xa010:00AM UTC'
p734
sg6
S'AbbVie Presents Late-Breaking, Preliminary Phase 3b Data with VIEKIRAX\xc2\xae + EXVIERA\xc2\xae in Chronic Hepatitis C Patients with Renal Impairment at The International Liver Congress\xe2\x84\xa2 2015'
p735
sa(dp736
g2
S'http://www.reuters.com/article/2015/04/25/us-indonesia-executions-notice-idUSKBN0NG0JH20150425'
p737
sg4
S'20150426\xc2\xa09:57AM UTC'
p738
sg6
S'Australians get 72-hour notice of execution in Indonesia: source'
p739
sa(dp740
g2
S'http://www.reuters.com/article/2015/04/25/ubi-ma-idUSL8N0XM0EU20150425'
p741
sg4
S'20150426\xc2\xa09:45AM UTC'
p742
sg6
S'UBI CEO says foreign banks "not queuing up" to buy in Italy'
p743
sa(dp744
g2
S'http://www.reuters.com/article/2015/04/25/us-eurozone-greece-cash-idUSKBN0NG0J320150425'
p745
sg4
S'20150426\xc2\xa09:44AM UTC'
p746
sg6
S"Greece's governors agree to lend cash to central government"
p747
sa(dp748
g2
S'http://www.reuters.com/article/2015/04/25/eurozone-greece-cash-idUSL8N0XM0FH20150425'
p749
sg4
S'20150426\xc2\xa09:43AM UTC'
p750
sg6
S"RPT-UPDATE 1-Greece's governors agree to lend cash to central government"
p751
sa(dp752
g2
S'http://www.reuters.com/article/2015/04/25/eurozone-greece-cash-idUSL8N0XM0CE20150425'
p753
sg4
S'20150426\xc2\xa09:41AM UTC'
p754
sg6
S"UPDATE 1-Greece's governors agree to lend cash to central government"
p755
sa(dp756
g2
S'http://www.reuters.com/article/2015/04/25/us-britain-election-clegg-idUSKBN0NG0HH20150425'
p757
sg4
S'20150426\xc2\xa09:38AM UTC'
p758
sg6
S"UK's Lib Dems rule out Scottish deal, potentially shunning Labour"
p759
sa(dp760
g2
S'http://www.reuters.com/article/2015/04/25/us-britain-election-cameron-football-idUSKBN0NG0IP20150425'
p761
sg4
S'20150426\xc2\xa09:38AM UTC'
p762
sg6
S"UK's Cameron scores own goal with pre-election football gaffe"
p763
sa(dp764
g2
S'http://www.reuters.com/article/2015/04/25/save-the-children-idUSnPn32b5FV+83+PRN20150425'
p765
sg4
S'20150426\xc2\xa09:31AM UTC'
p766
sg6
S'SAVE THE CHILDREN MEDIA ADVISORY - KATHMANDU EARTHQUAKE: SPOKESPEOPLE AVAILABLE'
p767
sa(dp768
g2
S'http://www.reuters.com/article/2015/04/25/idUSnGNX5Dwmdv+1d0+GNW20150425'
p769
sg4
S'20150426\xc2\xa09:30AM UTC'
p770
sg6
S'Achillion Presents Detailed Clinical Results on ACH-3102 and ACH-3422 at the International Liver Congress'
p771
sa(dp772
g2
S'http://www.reuters.com/article/2015/04/25/us-mideast-crisis-iraq-jordan-idUSKBN0NG0GX20150425'
p773
sg4
S'20150426\xc2\xa09:17AM UTC'
p774
sg6
S'Three Islamic State car bombs hit Iraq-Jordan border crossing, four dead'
p775
sa(dp776
g2
S'http://www.reuters.com/article/2015/04/25/boxing-pacquiao-retail-idUSL1N0XM0AM20150425'
p777
sg4
S'20150426\xc2\xa09:16AM UTC'
p778
sg6
S'REFILE-Boxing-Retailers make a killing ahead of Pacquiao-Mayweather megafight'
p779
sa(dp780
g2
S'http://www.reuters.com/article/2015/04/25/us-mideast-crisis-iraq-jordan-claim-idUSKBN0NG0I520150425'
p781
sg4
S'20150426\xc2\xa09:02AM UTC'
p782
sg6
S'Islamic State claims Iraqi-Jordanian border crossing attack: SITE'
p783
sa(dp784
g2
S'http://www.reuters.com/article/2015/04/25/vt-comcast-cares-day-idUSnPn7lLGn9+8c+PRN20150425'
p785
sg4
S'20150426\xc2\xa09:00AM UTC'
p786
sg6
S'Comcast Volunteers "Make Change Happen," Beautifying Four Sites Across Vermont On 14th Comcast Cares Day'
p787
sa(dp788
g2
S'http://www.reuters.com/article/2015/04/25/comcast-volunteer-day-idUSnPn6009Wp+82+PRN20150425'
p789
sg4
S'20150426\xc2\xa09:00AM UTC'
p790
sg6
S'Comcast Volunteers "Make Change Happen," Beautifying Nine Sites Across Connecticut On 14th Comcast Cares Day'
p791
sa(dp792
g2
S'http://www.reuters.com/article/2015/04/25/comcast-cable-cares-idUSnPn584d86+80+PRN20150425'
p793
sg4
S'20150426\xc2\xa09:00AM UTC'
p794
sg6
S'2,000 Volunteers Make Change Happen Across Pittsburgh Region As Part Of 14th Annual Comcast Cares Day'
p795
sa(dp796
g2
S'http://www.reuters.com/article/2015/04/25/idUSnMKWGB7NDa+1f6+MKW20150425'
p797
sg4
S'20150426\xc2\xa09:00AM UTC'
p798
sg6
S'Mayor Henry Proclaims April 25th as Indiana Ground Water Day During 2015 IGWA Spring Field Day at Franklin Electric'
p799
sa(dp800
g2
S'http://www.reuters.com/article/2015/04/25/us-mideast-crisis-jordan-idUSKBN0NG0HN20150425'
p801
sg4
S'20150426\xc2\xa08:48AM UTC'
p802
sg6
S'Jordan increases security at border crossing with Iraq after car bombs: official'
p803
sa(dp804
g2
S'http://www.reuters.com/article/2015/04/25/us-eurozone-greece-germany-idUSKBN0NG0HB20150425'
p805
sg4
S'20150426\xc2\xa08:41AM UTC'
p806
sg6
S'Germany hints at preparations of a Plan B on Greece'
p807
sa(dp808
g2
S'http://www.reuters.com/article/2015/04/25/us-quake-nepal-toll-increase-idUSKBN0NG0H920150425'
p809
sg4
S'20150426\xc2\xa08:39AM UTC'
p810
sg6
S'Nepal quake death toll reaches 758: home ministry'
p811
sa(dp812
g2
S'http://www.reuters.com/article/2015/04/25/eurozone-greece-germany-idUSL8N0XM0CH20150425'
p813
sg4
S'20150426\xc2\xa08:37AM UTC'
p814
sg6
S'Germany hints at preparations of a Plan B on Greece'
p815
sa(dp816
g2
S'http://www.reuters.com/article/2015/04/25/us-syria-lebanon-ghazali-idUSKBN0NG0GR20150425'
p817
sg4
S'20150426\xc2\xa08:33AM UTC'
p818
sg6
S"Syria's former spy chief dies in unclear circumstances: source"
p819
sa(dp820
g2
S'http://www.reuters.com/article/2015/04/25/us-burundi-politics-president-idUSKBN0NG0GP20150425'
p821
sg4
S'20150426\xc2\xa08:31AM UTC'
p822
sg6
S"Burundi's president breaks silence on third term, says no-one will stop ruling party"
p823
sa(dp824
g2
S'http://www.reuters.com/article/2015/04/25/us-mideast-crisis-iraq-idUSKBN0NG0GF20150425'
p825
sg4
S'20150426\xc2\xa08:29AM UTC'
p826
sg6
S"Islamic State takes military barracks, dam in Iraq's Anbar: sources"
p827
sa(dp828
g2
S'http://www.reuters.com/article/2015/04/25/us-eu-capital-union-idUSKBN0NG0G520150425'
p829
sg4
S'20150426\xc2\xa08:21AM UTC'
p830
sg6
S'EU ministers give strong support to capital markets union idea'
p831
sa(dp832
g2
S'http://www.reuters.com/article/2015/04/25/us-indonesia-executions-australians-idUSKBN0NG0FT20150425'
p833
sg4
S'20150426\xc2\xa08:20AM UTC'
p834
sg6
S"Execution of two Australians in Indonesia 'imminent': Australian FM"
p835
sa(dp836
g2
S'http://www.reuters.com/article/2015/04/25/us-burundi-politics-opposition-idUSKBN0NG0FN20150425'
p837
sg4
S'20150426\xc2\xa08:17AM UTC'
p838
sg6
S'Burundi opponent calls on president to change mind on bid for third term'
p839
sa(dp840
g2
S'http://www.reuters.com/article/2015/04/25/eu-capital-union-idUSL8N0XM09820150425'
p841
sg4
S'20150426\xc2\xa08:17AM UTC'
p842
sg6
S'EU ministers give strong support to capital markets union idea'
p843
sa(dp844
g2
S'http://www.reuters.com/article/2015/04/25/ma-comcast-cares-idUSnPn2p7MSz+86+PRN20150425'
p845
sg4
S'20150426\xc2\xa08:00AM UTC'
p846
sg6
S'Comcast Volunteers "Make Change Happen," Beautifying Twenty-Five Sites Across Massachusetts Today On 14th Comcast Cares Day'
p847
sa(dp848
g2
S'http://www.reuters.com/article/2015/04/25/us-ubs-group-greece-idUSKBN0NG0EQ20150425'
p849
sg4
S'20150426\xc2\xa08:00AM UTC'
p850
sg6
S'UBS chairman says Greek default increasingly seen by IMF as controllable'
p851
sa(dp852
g2
S'http://www.reuters.com/article/2015/04/25/us-eurozone-greece-varoufakis-idUSKBN0NG0EO20150425'
p853
sg4
S'20150426\xc2\xa07:56AM UTC'
p854
sg6
S'Isolated in debt talks, Greek finance rebel gets the cold shoulder'
p855
sa(dp856
g2
S'http://www.reuters.com/article/2015/04/25/us-eurozone-eurogroup-idUSKBN0NG0EI20150425'
p857
sg4
S'20150426\xc2\xa07:53AM UTC'
p858
sg6
S'Spain to bid for euro zone chair in challenge to Dijsselbloem'
p859
sa(dp860
g2
S'http://www.reuters.com/article/2015/04/25/eurozone-greece-varoufakis-idUSL8N0XM03O20150425'
p861
sg4
S'20150426\xc2\xa07:52AM UTC'
p862
sg6
S'Isolated in debt talks, Greek finance rebel gets the cold shoulder'
p863
sa(dp864
g2
S'http://www.reuters.com/article/2015/04/25/ubs-group-greece-idUSL8N0XM04W20150425'
p865
sg4
S'20150426\xc2\xa07:51AM UTC'
p866
sg6
S'UBS chairman says Greek default increasingly seen by IMF as controllable'
p867
sa(dp868
g2
S'http://www.reuters.com/article/2015/04/25/eurozone-eurogroup-idUSL8N0XM09520150425'
p869
sg4
S'20150426\xc2\xa07:50AM UTC'
p870
sg6
S'Spain to bid for euro zone chair in challenge to Dijsselbloem'
p871
sa(dp872
g2
S'http://www.reuters.com/article/2015/04/25/us-burundi-politics-nomination-idUSKBN0NG0EE20150425'
p873
sg4
S'20150426\xc2\xa07:46AM UTC'
p874
sg6
S"Burundi's ruling party picks president for third-term run: source"
p875
sa(dp876
g2
S'http://www.reuters.com/article/2015/04/25/us-quake-nepal-toll-latest-idUSKBN0NG0E820150425'
p877
sg4
S'20150426\xc2\xa07:35AM UTC'
p878
sg6
S'Nepal quake toll reaches 688: government'
p879
sa(dp880
g2
S'http://www.reuters.com/article/2015/04/25/talanx-results-idUSL8N0XM0AN20150425'
p881
sg4
S'20150426\xc2\xa07:33AM UTC'
p882
sg6
S'Talanx sticks with guidance ahead of Q1 results - Boersen-Zeitung'
p883
sa(dp884
g2
S'http://www.reuters.com/article/2015/04/25/us-sailing-oceanrace-idUSKBN0NG0E020150425'
p885
sg4
S'20150426\xc2\xa07:33AM UTC'
p886
sg6
S'Home-bound Enright leads ocean race leg to Rhode Island'
p887
sa(dp888
g2
S'http://www.reuters.com/article/2015/04/25/us-people-brucejenner-interview-idUSKBN0NG02P20150425'
p889
sg4
S'20150426\xc2\xa07:30AM UTC'
p890
sg6
S'Olympian Bruce Jenner makes transgender history by identifying as a woman'
p891
sa(dp892
g2
S'http://www.reuters.com/article/2015/04/25/us-pakistan-shooting-idUSKBN0NG0DA20150425'
p893
sg4
S'20150426\xc2\xa07:28AM UTC'
p894
sg6
S"Pakistani security agencies to investigate activist's murder"
p895
sa(dp896
g2
S'http://www.reuters.com/article/2015/04/25/us-yemen-crisis-usa-iran-idUSKBN0NF1YR20150425'
p897
sg4
S'20150426\xc2\xa07:03AM UTC'
p898
sg6
S"Iran moves ships, reducing tensions near Yemen: Pentagon's Carter"
p899
sa(dp900
g2
S'http://www.reuters.com/article/2015/04/25/us-yemen-security-saleh-idUSKBN0NF1XP20150425'
p901
sg4
S'20150426\xc2\xa07:03AM UTC'
p902
sg6
S'Former Yemeni president calls for political dialogue to end war'
p903
sa(dp904
g2
S'http://www.reuters.com/article/2015/04/25/us-yemen-security-idUSKBN0NF1ID20150425'
p905
sg4
S'20150426\xc2\xa07:03AM UTC'
p906
sg6
S'More fighting, air strikes in Yemen, civilian death toll exceeds 550'
p907
sa(dp908
g2
S'http://www.reuters.com/article/2015/04/25/bbo-dodgers-padres-preview-idUSMTZEB4PCZZK3520150425'
p909
sg4
S'20150426\xc2\xa07:02AM UTC'
p910
sg6
S'Preview: Dodgers at Padres'
p911
sa(dp912
g2
S'http://www.reuters.com/article/2015/04/25/bbo-braves-phillies-preview-idUSMTZEB4PCZZK3320150425'
p913
sg4
S'20150426\xc2\xa07:02AM UTC'
p914
sg6
S'Preview: Braves at Phillies'
p915
sa(dp916
g2
S'http://www.reuters.com/article/2015/04/25/bbo-astros-athletics-preview-idUSMTZEB4PCZZK3220150425'
p917
sg4
S'20150426\xc2\xa07:02AM UTC'
p918
sg6
S'Preview: Astros at Athletics'
p919
sa(dp920
g2
S'http://www.reuters.com/article/2015/04/25/bbo-indians-tigers-preview-idUSMTZEB4PCZZJ3020150425'
p921
sg4
S'20150426\xc2\xa07:02AM UTC'
p922
sg6
S'Preview: Indians at Tigers'
p923
sa(dp924
g2
S'http://www.reuters.com/article/2015/04/25/bbo-giants-rockies-preview-idUSMTZEB4PCZZJ2Z20150425'
p925
sg4
S'20150426\xc2\xa07:02AM UTC'
p926
sg6
S'Preview: Giants at Rockies'
p927
sa(dp928
g2
S'http://www.reuters.com/article/2015/04/25/bbo-bluejays-rays-preview-idUSMTZEB4PCZZJ2Y20150425'
p929
sg4
S'20150426\xc2\xa07:02AM UTC'
p930
sg6
S'Preview: Blue Jays at Rays'
p931
sa(dp932
g2
S'http://www.reuters.com/article/2015/04/25/bbo-mets-yankees-preview-idUSMTZEB4PCZZJ2X20150425'
p933
sg4
S'20150426\xc2\xa07:02AM UTC'
p934
sg6
S'Preview: Mets at Yankees'
p935
sa(dp936
g2
S'http://www.reuters.com/article/2015/04/25/bkn-hawks-nets-preview-idUSMTZEB4PCZZJ2W20150425'
p937
sg4
S'20150426\xc2\xa07:02AM UTC'
p938
sg6
S'Preview: Hawks at Nets'
p939
sa(dp940
g2
S'http://www.reuters.com/article/2015/04/25/bbo-nationals-marlins-preview-idUSMTZEB4PCZZJ2V20150425'
p941
sg4
S'20150426\xc2\xa07:02AM UTC'
p942
sg6
S'Preview: Nationals at Marlins'
p943
sa(dp944
g2
S'http://www.reuters.com/article/2015/04/25/bbo-twins-mariners-preview-idUSMTZEB4PCZZJ2T20150425'
p945
sg4
S'20150426\xc2\xa07:02AM UTC'
p946
sg6
S'Preview: Twins at Mariners'
p947
sa(dp948
g2
S'http://www.reuters.com/article/2015/04/25/bbo-rangers-angels-preview-idUSMTZEB4PCZZJ2S20150425'
p949
sg4
S'20150426\xc2\xa07:02AM UTC'
p950
sg6
S'Preview: Rangers at Angels'
p951
sa(dp952
g2
S'http://www.reuters.com/article/2015/04/25/hkn-predators-blackhawks-preview-idUSMTZEB4PCZZJ3120150425'
p953
sg4
S'20150426\xc2\xa07:02AM UTC'
p954
sg6
S'Preview: Predators at Blackhawks'
p955
sa(dp956
g2
S'http://www.reuters.com/article/2015/04/25/bkn-bulls-bucks-preview-idUSMTZEB4PCZZI2O20150425'
p957
sg4
S'20150426\xc2\xa07:02AM UTC'
p958
sg6
S'Preview: Bulls at Bucks'
p959
sa(dp960
g2
S'http://www.reuters.com/article/2015/04/25/hkn-capitals-islanders-preview-idUSMTZEB4PCZZI2N20150425'
p961
sg4
S'20150426\xc2\xa07:02AM UTC'
p962
sg6
S'Preview: Capitals at Islanders'
p963
sa(dp964
g2
S'http://www.reuters.com/article/2015/04/25/hkn-redwings-lightning-preview-idUSMTZEB4PCZZI2M20150425'
p965
sg4
S'20150426\xc2\xa07:02AM UTC'
p966
sg6
S'Preview: Red Wings at Lightning'
p967
sa(dp968
g2
S'http://www.reuters.com/article/2015/04/25/hkn-canucks-flames-preview-idUSMTZEB4PCZZI2L20150425'
p969
sg4
S'20150426\xc2\xa07:02AM UTC'
p970
sg6
S'Preview: Canucks at Flames'
p971
sa(dp972
g2
S'http://www.reuters.com/article/2015/04/25/bbo-redsox-orioles-preview-idUSMTZEB4PCZZI2R20150425'
p973
sg4
S'20150426\xc2\xa07:02AM UTC'
p974
sg6
S'Preview: Red Sox at Orioles'
p975
sa(dp976
g2
S'http://www.reuters.com/article/2015/04/25/bbo-cardinals-brewers-preview-idUSMTZEB4PCZZI2Q20150425'
p977
sg4
S'20150426\xc2\xa07:02AM UTC'
p978
sg6
S'Preview: Cardinals at Brewers'
p979
sa(dp980
g2
S'http://www.reuters.com/article/2015/04/25/bbo-pirates-diamondbacks-preview-idUSMTZEB4PCZZI2P20150425'
p981
sg4
S'20150426\xc2\xa07:02AM UTC'
p982
sg6
S'Preview: Pirates at Diamondbacks'
p983
sa(dp984
g2
S'http://www.reuters.com/article/2015/04/25/flashcrash-trader-skepticism-idUSL1N0XL2JE20150425'
p985
sg4
S'20150426\xc2\xa07:00AM UTC'
p986
sg6
S'RPT - INSIGHT-Flash crash charges garner increasing skepticism in high-speed world'
p987
sa(dp988
g2
S'http://www.reuters.com/article/2015/04/25/us-eurozone-greece-ecb-weidmann-idUSKBN0NG0CH20150425'
p989
sg4
S'20150426\xc2\xa06:52AM UTC'
p990
sg6
S'Bundesbank chief concerned about emergency funding for Greek banks'
p991
sa(dp992
g2
S'http://www.reuters.com/article/2015/04/25/ukraine-crisis-casualties-idUSL8N0XM08820150425'
p993
sg4
S'20150426\xc2\xa06:52AM UTC'
p994
sg6
S'UPDATE 1-Ukrainian serviceman killed in rebel attack near Mariupol - military'
p995
sa(dp996
g2
S'http://www.reuters.com/article/2015/04/25/vietnam-banks-mergers-idUSL4N0XM05U20150425'
p997
sg4
S'20150426\xc2\xa06:36AM UTC'
p998
sg6
S'Vietnam c.bank says taking over small lender'
p999
sa(dp1000
g2
S'http://www.reuters.com/article/2015/04/25/eurozone-greece-ecb-weidmann-idUSB4N0WT01M20150425'
p1001
sg4
S'20150426\xc2\xa06:31AM UTC'
p1002
sg6
S'Bundesbank chief concerned about emergency funding for Greek banks'
p1003
sa(dp1004
g2
S'http://www.reuters.com/article/2015/04/25/us-poland-dance-idUSKBN0NG0BN20150425'
p1005
sg4
S'20150426\xc2\xa06:26AM UTC'
p1006
sg6
S'Contemporary dance steps out in Poland after communism'
p1007
sa(dp1008
g2
S'http://www.reuters.com/article/2015/04/25/bc-infosys-statement-idUSnPnc5N7DT+8b+PRN20150425'
p1009
sg4
S'20150426\xc2\xa06:12AM UTC'
p1010
sg6
S'Statement: Clarification Regarding Bonus Issue and the Book Closure Date'
p1011
sa(dp1012
g2
S'http://www.reuters.com/article/2015/04/25/us-earthquake-nepal-deathtoll-idUSKBN0NG0A620150425'
p1013
sg4
S'20150426\xc2\xa06:05AM UTC'
p1014
sg6
S'Kathmandu hospital says 36 bodies counted so far from quake'
p1015
sa(dp1016
g2
S'http://www.reuters.com/article/2015/04/25/us-quake-nepal-tower-idUSKBN0NG08R20150425'
p1017
sg4
S'20150426\xc2\xa06:05AM UTC'
p1018
sg6
S'Historic tower collapses in Kathmandu after quake'
p1019
sa(dp1020
g2
S'http://www.reuters.com/article/2015/04/25/la-eldorado-resorts-idUSnBw255001a+100+BSW20150425'
p1021
sg4
S'20150426\xc2\xa06:05AM UTC'
p1022
sg6
S'Gaming Legend Jack Binion Teams up with Eldorado Resort Casino Shreveport'
p1023
sa(dp1024
g2
S'http://www.reuters.com/article/2015/04/25/yemen-crisis-usa-iran-idUSL1N0XL2HB20150425'
p1025
sg4
S'20150426\xc2\xa06:04AM UTC'
p1026
sg6
S"UPDATE 2-Iran moves ships, reducing tensions near Yemen -Pentagon's Carter"
p1027
sa(dp1028
g2
S'http://www.reuters.com/article/2015/04/25/us-orange-ceo-idUSKBN0NG0B020150425'
p1029
sg4
S'20150426\xc2\xa05:58AM UTC'
p1030
sg6
S'Orange boss sees end to French telecom price war'
p1031
sa(dp1032
g2
S'http://www.reuters.com/article/2015/04/25/idUSnMKWLF2yRa+1f2+MKW20150425'
p1033
sg4
S'20150426\xc2\xa05:46AM UTC'
p1034
sg6
S'Diamond Resorts -- Vacations for Life -- The Cancun Resort Las Vegas'
p1035
sa(dp1036
g2
S'http://www.reuters.com/article/2015/04/25/ukraine-crisis-casualties-idUSL8N0XM06O20150425'
p1037
sg4
S'20150426\xc2\xa05:45AM UTC'
p1038
sg6
S'One Ukrainian serviceman killed, two wounded near Mariupol'
p1039
sa(dp1040
g2
S'http://www.reuters.com/article/2015/04/25/orange-ceo-idUSL8N0XM03M20150425'
p1041
sg4
S'20150426\xc2\xa05:43AM UTC'
p1042
sg6
S'Orange boss sees end to French telecom price war'
p1043
sa(dp1044
g2
S'http://www.reuters.com/article/2015/04/25/bbo-bluejays-teamreport-idUSMTZEB4PCUOB1W20150425'
p1045
sg4
S'20150426\xc2\xa05:07AM UTC'
p1046
sg6
S'Toronto Blue Jays - TeamReport'
p1047
sa(dp1048
g2
S'http://www.reuters.com/article/2015/04/25/bbo-nationals-teamreport-idUSMTZEB4PCUOB1V20150425'
p1049
sg4
S'20150426\xc2\xa05:07AM UTC'
p1050
sg6
S'Washington Nationals - TeamReport'
p1051
sa(dp1052
g2
S'http://www.reuters.com/article/2015/04/25/bbo-rangers-teamreport-idUSMTZEB4PCUOA1U20150425'
p1053
sg4
S'20150426\xc2\xa05:07AM UTC'
p1054
sg6
S'Texas Rangers - TeamReport'
p1055
sa(dp1056
g2
S'http://www.reuters.com/article/2015/04/25/bbo-rays-teamreport-idUSMTZEB4PCUOA1T20150425'
p1057
sg4
S'20150426\xc2\xa05:07AM UTC'
p1058
sg6
S'Tampa Bay Rays - TeamReport'
p1059
sa(dp1060
g2
S'http://www.reuters.com/article/2015/04/25/bbo-cardinals-teamreport-idUSMTZEB4PCUO61S20150425'
p1061
sg4
S'20150426\xc2\xa05:07AM UTC'
p1062
sg6
S'St. Louis Cardinals - TeamReport'
p1063
sa(dp1064
g2
S'http://www.reuters.com/article/2015/04/25/bbo-giants-teamreport-idUSMTZEB4PCUO61R20150425'
p1065
sg4
S'20150426\xc2\xa05:07AM UTC'
p1066
sg6
S'San Francisco Giants - TeamReport'
p1067
sa(dp1068
g2
S'http://www.reuters.com/article/2015/04/25/bbo-mariners-teamreport-idUSMTZEB4PCUL81Q20150425'
p1069
sg4
S'20150426\xc2\xa05:05AM UTC'
p1070
sg6
S'Seattle Mariners - TeamReport'
p1071
sa(dp1072
g2
S'http://www.reuters.com/article/2015/04/25/bbo-padres-teamreport-idUSMTZEB4PCUL81P20150425'
p1073
sg4
S'20150426\xc2\xa05:05AM UTC'
p1074
sg6
S'San Diego Padres - TeamReport'
p1075
sa(dp1076
g2
S'http://www.reuters.com/article/2015/04/25/bbo-pirates-teamreport-idUSMTZEB4PCUIR1O20150425'
p1077
sg4
S'20150426\xc2\xa05:04AM UTC'
p1078
sg6
S'Pittsburgh Pirates - TeamReport'
p1079
sa(dp1080
g2
S'http://www.reuters.com/article/2015/04/25/bbo-athletics-teamreport-idUSMTZEB4PCUIR1N20150425'
p1081
sg4
S'20150426\xc2\xa05:04AM UTC'
p1082
sg6
S'Oakland Athletics - TeamReport'
p1083
sa(dp1084
g2
S'http://www.reuters.com/article/2015/04/25/bbo-phillies-teamreport-idUSMTZEB4PCUIR1M20150425'
p1085
sg4
S'20150426\xc2\xa05:04AM UTC'
p1086
sg6
S'Philadelphia Phillies - TeamReport'
p1087
sa(dp1088
g2
S'http://www.reuters.com/article/2015/04/25/bbo-mets-teamreport-idUSMTZEB4PCUIQ1L20150425'
p1089
sg4
S'20150426\xc2\xa05:04AM UTC'
p1090
sg6
S'New York Mets - TeamReport'
p1091
sa(dp1092
g2
S'http://www.reuters.com/article/2015/04/25/bbo-yankees-teamreport-idUSMTZEB4PCUIQ1K20150425'
p1093
sg4
S'20150426\xc2\xa05:04AM UTC'
p1094
sg6
S'New York Yankees - TeamReport'
p1095
sa(dp1096
g2
S'http://www.reuters.com/article/2015/04/25/bbo-brewers-teamreport-idUSMTZEB4PCUIP1J20150425'
p1097
sg4
S'20150426\xc2\xa05:04AM UTC'
p1098
sg6
S'Milwaukee Brewers - TeamReport'
p1099
sa(dp1100
g2
S'http://www.reuters.com/article/2015/04/25/bbo-marlins-teamreport-idUSMTZEB4PCUIP1I20150425'
p1101
sg4
S'20150426\xc2\xa05:04AM UTC'
p1102
sg6
S'Miami Marlins - TeamReport'
p1103
sa(dp1104
g2
S'http://www.reuters.com/article/2015/04/25/bbo-dodgers-teamreport-idUSMTZEB4PCUIP1H20150425'
p1105
sg4
S'20150426\xc2\xa05:04AM UTC'
p1106
sg6
S'Los Angeles Dodgers - TeamReport'
p1107
sa(dp1108
g2
S'http://www.reuters.com/article/2015/04/25/bbo-twins-teamreport-idUSMTZEB4PCUIP1G20150425'
p1109
sg4
S'20150426\xc2\xa05:04AM UTC'
p1110
sg6
S'Minnesota Twins - TeamReport'
p1111
sa(dp1112
g2
S'http://www.reuters.com/article/2015/04/25/bbo-tigers-teamreport-idUSMTZEB4PCUII1B20150425'
p1113
sg4
S'20150426\xc2\xa05:03AM UTC'
p1114
sg6
S'Detroit Tigers - TeamReport'
p1115
sa(dp1116
g2
S'http://www.reuters.com/article/2015/04/25/bbo-rockies-teamreport-idUSMTZEB4PCUII1A20150425'
p1117
sg4
S'20150426\xc2\xa05:03AM UTC'
p1118
sg6
S'Colorado Rockies - TeamReport'
p1119
sa(dp1120
g2
S'http://www.reuters.com/article/2015/04/25/bbo-cubs-teamreport-idUSMTZEB4PCUII1920150425'
p1121
sg4
S'20150426\xc2\xa05:03AM UTC'
p1122
sg6
S'Chicago Cubs - TeamReport'
p1123
sa(dp1124
g2
S'http://www.reuters.com/article/2015/04/25/bbo-royals-teamreport-idUSMTZEB4PCUII1F20150425'
p1125
sg4
S'20150426\xc2\xa05:03AM UTC'
p1126
sg6
S'Kansas City Royals - TeamReport'
p1127
sa(dp1128
g2
S'http://www.reuters.com/article/2015/04/25/bbo-astros-teamreport-idUSMTZEB4PCUII1E20150425'
p1129
sg4
S'20150426\xc2\xa05:03AM UTC'
p1130
sg6
S'Houston Astros - TeamReport'
p1131
sa(dp1132
g2
S'http://www.reuters.com/article/2015/04/25/bbo-angels-teamreport-idUSMTZEB4PCUII1D20150425'
p1133
sg4
S'20150426\xc2\xa05:03AM UTC'
p1134
sg6
S'Los Angeles Angels - TeamReport'
p1135
sa(dp1136
g2
S'http://www.reuters.com/article/2015/04/25/bbo-whitesox-teamreport-idUSMTZEB4PCUII1C20150425'
p1137
sg4
S'20150426\xc2\xa05:03AM UTC'
p1138
sg6
S'Chicago White Sox - TeamReport'
p1139
sa(dp1140
g2
S'http://www.reuters.com/article/2015/04/25/bbo-orioles-teamreport-idUSMTZEB4PCUIB1820150425'
p1141
sg4
S'20150426\xc2\xa05:03AM UTC'
p1142
sg6
S'Baltimore Orioles - TeamReport'
p1143
sa(dp1144
g2
S'http://www.reuters.com/article/2015/04/25/bbo-braves-teamreport-idUSMTZEB4PCUIB1720150425'
p1145
sg4
S'20150426\xc2\xa05:03AM UTC'
p1146
sg6
S'Atlanta Braves - TeamReport'
p1147
sa(dp1148
g2
S'http://www.reuters.com/article/2015/04/25/bbo-indians-teamreport-idUSMTZEB4PCUIA1620150425'
p1149
sg4
S'20150426\xc2\xa05:03AM UTC'
p1150
sg6
S'Cleveland Indians - TeamReport'
p1151
sa(dp1152
g2
S'http://www.reuters.com/article/2015/04/25/bbo-diamondbacks-teamreport-idUSMTZEB4PCUIA1520150425'
p1153
sg4
S'20150426\xc2\xa05:03AM UTC'
p1154
sg6
S'Arizona Diamondbacks - TeamReport'
p1155
sa(dp1156
g2
S'http://www.reuters.com/article/2015/04/25/bbo-redsox-teamreport-idUSMTZEB4PCUIA1420150425'
p1157
sg4
S'20150426\xc2\xa05:03AM UTC'
p1158
sg6
S'Boston Red Sox - TeamReport'
p1159
sa(dp1160
g2
S'http://www.reuters.com/article/2015/04/25/bbo-reds-teamreport-idUSMTZEB4PCUIA1320150425'
p1161
sg4
S'20150426\xc2\xa05:03AM UTC'
p1162
sg6
S'Cincinnati Reds - TeamReport'
p1163
sa(dp1164
g2
S'http://www.reuters.com/article/2015/04/25/us-quake-nepal-toll-idUSKBN0NG07X20150425'
p1165
sg4
S'20150426\xc2\xa04:53AM UTC'
p1166
sg6
S'At least two dead after Nepal quake'
p1167
sa(dp1168
g2
S'http://www.reuters.com/article/2015/04/25/us-china-activist-idUSKBN0NG09D20150425'
p1169
sg4
S'20150426\xc2\xa04:50AM UTC'
p1170
sg6
S'Chinese woman activist says interrogated a week after release'
p1171
sa(dp1172
g2
S'http://www.reuters.com/article/2015/04/25/turkey-airplane-emergency-idUSL8N0XM05720150425'
p1173
sg4
S'20150426\xc2\xa04:49AM UTC'
p1174
sg6
S'UPDATE 1-Turkish Airlines plane makes emergency landing after engine failure'
p1175
sa(dp1176
g2
S'http://www.reuters.com/article/2015/04/25/elekta-idUSnBw255002a+100+BSW20150425'
p1177
sg4
S'20150426\xc2\xa04:42AM UTC'
p1178
sg6
S'Elekta: New Leksell Gamma Knife to benefit more patients with brain disease'
p1179
sa(dp1180
g2
S'http://www.reuters.com/article/2015/04/25/us-turkey-airplane-emergency-idUSKBN0NG08X20150425'
p1181
sg4
S'20150426\xc2\xa04:35AM UTC'
p1182
sg6
S'Turkish Airlines plane makes emergency landing after engine failure'
p1183
sa(dp1184
g2
S'http://www.reuters.com/article/2015/04/25/turkey-airplane-emergency-idUSL8N0XM04N20150425'
p1185
sg4
S'20150426\xc2\xa04:15AM UTC'
p1186
sg6
S'Turkish Airlines plane makes emergency landing after engine failure'
p1187
sa(dp1188
g2
S'http://www.reuters.com/article/2015/04/25/elekta-gamma-knife-le-idUSnPn6h9tcv+80+PRN20150425'
p1189
sg4
S'20150426\xc2\xa04:15AM UTC'
p1190
sg6
S'New Leksell Gamma Knife to benefit more patients with brain disease'
p1191
sa(dp1192
g2
S'http://www.reuters.com/article/2015/04/25/us-usa-indiana-lockdown-idUSKBN0NG06L20150425'
p1193
sg4
S'20150426\xc2\xa04:06AM UTC'
p1194
sg6
S'Indiana university cleared after report of armed person'
p1195
sa(dp1196
g2
S'http://www.reuters.com/article/2015/04/25/poland-dance-idUSL5N0XL3A320150425'
p1197
sg4
S'20150426\xc2\xa04:00AM UTC'
p1198
sg6
S'Contemporary dance steps out in Poland after communism'
p1199
sa(dp1200
g2
S'http://www.reuters.com/article/2015/04/25/idUSnGNX3Tnmk3+1d0+GNW20150425'
p1201
sg4
S'20150426\xc2\xa03:48AM UTC'
p1202
sg6
S'VOLARIS 72 HOUR DEADLINE ALERT: Approximately 72 Hours Remain; Former Louisiana Attorney General and Kahn Swick & Foti, LLC Remind Investors of Deadline in Class Action Lawsuit Against Volaris Aviation Holding Company - VLRS'
p1203
sa(dp1204
g2
S'http://www.reuters.com/article/2015/04/25/bbo-astros-athletics-writethru-idUSMTZEB4PCM3IYM20150425'
p1205
sg4
S'20150426\xc2\xa03:16AM UTC'
p1206
sg6
S'Astros hang on for wild win over Athletics in 11 innings'
p1207
sa(dp1208
g2
S'http://www.reuters.com/article/2015/04/25/us-olympics-surfing-tokyo-idUSKBN0NG07L20150425'
p1209
sg4
S'20150426\xc2\xa02:59AM UTC'
p1210
sg6
S'Surfing hopes to ride wave of popularity into Tokyo'
p1211
sa(dp1212
g2
S'http://www.reuters.com/article/2015/04/25/olympics-surfing-tokyo-idUSL4N0XM04120150425'
p1213
sg4
S'20150426\xc2\xa02:56AM UTC'
p1214
sg6
S'Olympics-Surfing hopes to ride wave of popularity into Tokyo'
p1215
sa(dp1216
g2
S'http://www.reuters.com/article/2015/04/25/bbo-rangers-angels-writethru-idUSMTZEB4PCJS5WS20150425'
p1217
sg4
S'20150426\xc2\xa02:33AM UTC'
p1218
sg6
S"Freese's homer helps Angels beat Rangers"
p1219
sa(dp1220
g2
S'http://www.reuters.com/article/2015/04/25/bbo-dodgers-padres-writethru-idUSMTZEB4PCKSRXO20150425'
p1221
sg4
S'20150426\xc2\xa02:33AM UTC'
p1222
sg6
S'Greinke helps Dodgers end skid with win over Padres'
p1223
sa(dp1224
g2
S'http://www.reuters.com/article/2015/04/25/starbucks-outage-idUSL1N0XM01E20150425'
p1225
sg4
S'20150426\xc2\xa01:55AM UTC'
p1226
sg6
S'UPDATE 2-Starbucks payment system outage in U.S., Canada resolved'
p1227
sa(dp1228
g2
S'http://www.reuters.com/article/2015/04/25/hkn-wild-blues-recap-idUSMTZEB4PCHNJU520150425'
p1229
sg4
S'20150426\xc2\xa01:52AM UTC'
p1230
sg6
S'Wild 4, Blues 1'
p1231
sa(dp1232
g2
S'http://www.reuters.com/article/2015/04/25/us-usa-washington-marijuana-idUSKBN0NG06Z20150425'
p1233
sg4
S'20150426\xc2\xa01:44AM UTC'
p1234
sg6
S'Washington governor signs medical marijuana overhaul'
p1235
sa(dp1236
g2
S'http://www.reuters.com/article/2015/04/25/bkn-clippers-spurs-writethru-idUSMTZEB4PCH3RSF20150425'
p1237
sg4
S'20150426\xc2\xa01:44AM UTC'
p1238
sg6
S"Leonard leads Spurs' rout of Clippers"
p1239
sa(dp1240
g2
S'http://www.reuters.com/article/2015/04/25/starbucks-outage-resolution-idUSL1N0XM07J20150425'
p1241
sg4
S'20150426\xc2\xa01:43AM UTC'
p1242
sg6
S'Starbucks payment system outage in U.S., Canada resolved'
p1243
sa(dp1244
g2
S'http://www.reuters.com/article/2015/04/25/bbo-indians-tigers-writethru-idUSMTZEB4PCBRV7U20150425'
p1245
sg4
S'20150426\xc2\xa01:30AM UTC'
p1246
sg6
S'Moss helps power Indians past Tigers'
p1247
sa(dp1248
g2
S'http://www.reuters.com/article/2015/04/25/bbo-twins-mariners-writethru-idUSMTZEB4PCHVYUB20150425'
p1249
sg4
S'20150426\xc2\xa01:29AM UTC'
p1250
sg6
S"Mariners' Hernandez blanks Twins"
p1251
sa(dp1252
g2
S'http://www.reuters.com/article/2015/04/25/bbo-giants-rockies-writethru-idUSMTZEB4PCG17PD20150425'
p1253
sg4
S'20150426\xc2\xa01:02AM UTC'
p1254
sg6
S'Rockies beat Giants for third straight win'
p1255
sa(dp1256
g2
S'http://www.reuters.com/article/2015/04/25/ca-gilead-sciences-idUSnBw245946a+100+BSW20150425'
p1257
sg4
S'20150426\xc2\xa01:00AM UTC'
p1258
sg6
S'Gilead Announces Results From Studies Evaluating Sofosbuvir-Based Regimens in Chronic Hepatitis C Patients With Genotypes 2-5'
p1259
sa(dp1260
g2
S'http://www.reuters.com/article/2015/04/25/us-usa-hawaii-tobacco-idUSKBN0NG06N20150425'
p1261
sg4
S'20150426\xc2\xa012:50AM UTC'
p1262
sg6
S'Hawaii lawmakers pass bill raising smoking age to 21'
p1263
sa(dp1264
g2
S'http://www.reuters.com/article/2015/04/25/bkn-raptors-wizards-writethru-idUSMTZEB4PCEGJKJ20150425'
p1265
sg4
S'20150426\xc2\xa012:50AM UTC'
p1266
sg6
S'Wizards take 3-0 series lead with win over Raptors'
p1267
sa(dp1268
g2
S'http://www.reuters.com/article/2015/04/25/bbo-royals-whitesox-writethru-idUSMTZEB4PCIBVUV20150425'
p1269
sg4
S'20150426\xc2\xa012:50AM UTC'
p1270
sg6
S'White Sox, Royals to resume suspended game Saturday'
p1271
sa(dp1272
g2
S'http://www.reuters.com/article/2015/04/25/bbo-pirates-diamondbacks-recap-idUSMTZEB4PCI5ZUT20150425'
p1273
sg4
S'20150426\xc2\xa012:47AM UTC'
p1274
sg6
S'Pirates 4, Diamondbacks 1'
p1275
sa(dp1276
g2
S'http://www.reuters.com/article/2015/04/25/usa-hawaii-tobacco-idUSL1N0XM06420150425'
p1277
sg4
S'20150426\xc2\xa012:46AM UTC'
p1278
sg6
S'Hawaii lawmakers pass bill raising smoking age to 21'
p1279
sa(dp1280
g2
S'http://www.reuters.com/article/2015/04/25/bbo-braves-phillies-writethru-idUSMTZEB4PCAR85320150425'
p1281
sg4
S'20150426\xc2\xa012:41AM UTC'
p1282
sg6
S'Phillies take advantage of late error to defeat Braves'
p1283
sa(dp1284
g2
S'http://www.reuters.com/article/2015/04/25/bbo-cardinals-brewers-writethru-idUSMTZEB4PCDVDHU20150425'
p1285
sg4
S'20150426\xc2\xa012:28AM UTC'
p1286
sg6
S'Martinez, Cardinals blank Brewers'
p1287
sa(dp1288
g2
S'http://www.reuters.com/article/2015/04/25/bbo-cubs-reds-writethru-idUSMTZEB4PCHBASX20150425'
p1289
sg4
S'20150426\xc2\xa012:28AM UTC'
p1290
sg6
S'Cubs beat Reds in 11 innings'
p1291
sa(dp1292
g2
S'http://www.reuters.com/article/2015/04/25/idUSL4N0XM03D20150425'
p1293
sg4
S'20150426\xc2\xa012:26AM UTC'
p1294
sg6
S'MEDIA- Xiaomi to set up manufacturing in India - Economic Times'
p1295
sa(dp1296
g2
S'http://www.reuters.com/article/2015/04/25/india-farmers-idUSL4N0XM03520150425'
p1297
sg4
S'20150426\xc2\xa012:25AM UTC'
p1298
sg6
S'India cbank chief Rajan calls for formal financing routes for farmers - report'
p1299
sa(dp1300
g2
S'http://www.reuters.com/article/2015/04/25/us-alibaba-chinatelecom-idUSKBN0NG06120150425'
p1301
sg4
S'20150426\xc2\xa012:13AM UTC'
p1302
sg6
S'Alibaba, China Telecom tie up to sell phones'
p1303
sa(dp1304
g2
S'http://www.reuters.com/article/2015/04/25/bbo-redsox-orioles-writethru-idUSMTZEB4PCDFQFH20150425'
p1305
sg4
S'20150426\xc2\xa012:13AM UTC'
p1306
sg6
S"Holt's homer help Red Sox beat Orioles"
p1307
sa(dp1308
g2
S'http://www.reuters.com/article/2015/04/25/alibaba-chinatelecom-idUSL4N0XM02Q20150425'
p1309
sg4
S'20150426\xc2\xa012:10AM UTC'
p1310
sg6
S'Alibaba, China Telecom tie up to sell phones'
p1311
sa(dp1312
g2
S'http://www.reuters.com/article/2015/04/25/census-daily-feature-idUSnPn6M6dls+90+PRN20150425'
p1313
sg4
S'20150426\xc2\xa012:01AM UTC'
p1314
sg6
S'U.S. Census Bureau Daily Feature for April 25'
p1315
sa(dp1316
g2
S'http://www.reuters.com/article/2015/04/25/commonwealth-names-idUSnPn51KJs0+8c+PRN20150425'
p1317
sg4
S'20150426\xc2\xa012:00AM UTC'
p1318
sg6
S'Commonwealth Hotels Names Director of Sales and Marketing for Embassy Suites Akron-Canton Airport'
p1319
sa(dp1320
g2
S'http://www.reuters.com/news/video/videoStory?storyID=107259750'
p1321
sg4
S'20150426\xc2\xa011:45PM UTC'
p1322
sg6
S'Nepal quake toll rising'
p1323
sa(dp1324
g2
S'http://www.reuters.com/news/video/videoStory?storyID=107259637'
p1325
sg4
S'20150426\xc2\xa011:38PM UTC'
p1326
sg6
S'Obama pokes fun at himself and opponents at "nerd prom"'
p1327
sa(dp1328
g2
S'http://www.reuters.com/news/video/videoStory?storyID=107259212'
p1329
sg4
S'20150426\xc2\xa011:08PM UTC'
p1330
sg6
S'Celebrities, politicians walk "nerd prom" red carpet'
p1331
sa(dp1332
g2
S'http://www.reuters.com/news/video/videoStory?storyID=107258709'
p1333
sg4
S'20150426\xc2\xa09:55PM UTC'
p1334
sg6
S'Speedy pigs, rare baby baboon make their mark'
p1335
sa(dp1336
g2
S'http://www.reuters.com/news/video/videoStory?storyID=107256473'
p1337
sg4
S'20150426\xc2\xa07:20PM UTC'
p1338
sg6
S'Protesters smash cars, face-off with Baltimore police'
p1339
sa(dp1340
g2
S'http://www.reuters.com/news/video/videoStory?storyID=107255623'
p1341
sg4
S'20150426\xc2\xa06:25PM UTC'
p1342
sg6
S'Soccer fans clash with police at Belgrade match'
p1343
sa(dp1344
g2
S'http://www.reuters.com/news/video/videoStory?storyID=107254572'
p1345
sg4
S'20150426\xc2\xa05:04PM UTC'
p1346
sg6
S'Thousands protest in Croatian capital over government handling of hard-hit debtors'
p1347
sa(dp1348
g2
S'http://www.reuters.com/news/video/videoStory?storyID=107254177'
p1349
sg4
S'20150426\xc2\xa04:37PM UTC'
p1350
sg6
S'Day of protests in Baltimore for Freddie Gray'
p1351
sa(dp1352
g2
S'http://www.reuters.com/news/video/videoStory?storyID=107253581'
p1353
sg4
S'20150426\xc2\xa04:13PM UTC'
p1354
sg6
S'Historic handshake that marked ending of WWII in Europe re-enacted'
p1355
sa(dp1356
g2
S'http://www.reuters.com/news/video/videoStory?storyID=107253257'
p1357
sg4
S'20150426\xc2\xa03:51PM UTC'
p1358
sg6
S'Michigan couple hoping for joint adoption awaits Supreme Court same-sex marriage decision'
p1359
sa(dp1360
g2
S'http://www.reuters.com/news/video/videoStory?storyID=107253014'
p1361
sg4
S'20150426\xc2\xa03:36PM UTC'
p1362
sg6
S'Migrants in ex-US Navy base wait and hope for pass to new life'
p1363
sa(dp1364
g2
S'http://www.reuters.com/news/video/videoStory?storyID=107252716'
p1365
sg4
S'20150426\xc2\xa03:27PM UTC'
p1366
sg6
S'Supporters of traditional marriage rally in Washington'
p1367
sa(dp1368
g2
S'http://www.reuters.com/news/video/videoStory?storyID=107252659'
p1369
sg4
S'20150426\xc2\xa03:27PM UTC'
p1370
sg6
S'Supporters of traditional marriage rally in Washington'
p1371
sa(dp1372
g2
S'http://www.reuters.com/news/video/videoStory?storyID=107251953'
p1373
sg4
S'20150426\xc2\xa01:55PM UTC'
p1374
sg6
S"Islamist fighters seize Syria's Jisr Al-Shughour"
p1375
sa(dp1376
g2
S'http://www.reuters.com/news/video/videoStory?storyID=107251661'
p1377
sg4
S'20150426\xc2\xa01:36PM UTC'
p1378
sg6
S'HIV outbreak in rural Indiana grows'
p1379
sa(dp1380
g2
S'http://www.reuters.com/news/video/videoStory?storyID=107251337'
p1381
sg4
S'20150426\xc2\xa01:07PM UTC'
p1382
sg6
S'Countdown appears to start for execution of foreigners in Indonesia'
p1383
sa(dp1384
g2
S'http://www.reuters.com/news/video/videoStory?storyID=107250767'
p1385
sg4
S'20150426\xc2\xa011:46AM UTC'
p1386
sg6
S'Univ. of Florida suspends fraternity for insulting veterans'
p1387
sa(dp1388
g2
S'http://www.reuters.com/news/video/videoStory?storyID=107250556'
p1389
sg4
S'20150426\xc2\xa011:39AM UTC'
p1390
sg6
S'Starbucks payment outage resolved'
p1391
sa(dp1392
g2
S'http://www.reuters.com/news/video/videoStory?storyID=107249766'
p1393
sg4
S'20150426\xc2\xa010:34AM UTC'
p1394
sg6
S'Death prompts push for Supreme Court decision on same-sex marriage'
p1395
sa(dp1396
g2
S'http://www.reuters.com/news/video/videoStory?storyID=107249206'
p1397
sg4
S'20150426\xc2\xa010:20AM UTC'
p1398
sg6
S'Warren fights Obama on Asia trade deal'
p1399
sa(dp1400
g2
S'http://www.reuters.com/news/video/videoStory?storyID=107249248'
p1401
sg4
S'20150426\xc2\xa010:12AM UTC'
p1402
sg6
S'Death toll climbs in Nepal quake'
p1403
sa(dp1404
g2
S'http://www.reuters.com/news/video/videoStory?storyID=107248796'
p1405
sg4
S'20150426\xc2\xa09:48AM UTC'
p1406
sg6
S'Starbucks payment outage resolved'
p1407
sa(dp1408
g2
S'http://www.reuters.com/news/video/videoStory?storyID=107248552'
p1409
sg4
S'20150426\xc2\xa09:38AM UTC'
p1410
sg6
S'Cell phone video shows climber concerned over team after Nepal avalanches'
p1411
sa(dp1412
g2
S'http://www.reuters.com/news/video/videoStory?storyID=107247890'
p1413
sg4
S'20150426\xc2\xa09:07AM UTC'
p1414
sg6
S'Cargo ship undocks from ISS for descent to Earth'
p1415
sa(dp1416
g2
S'http://www.reuters.com/news/video/videoStory?storyID=107247040'
p1417
sg4
S'20150426\xc2\xa08:10AM UTC'
p1418
sg6
S"Queen marks Gallipoli centenary laying a wreath at London's Cenotaph"
p1419
sa(dp1420
g2
S'http://www.reuters.com/news/video/videoStory?storyID=107246769'
p1421
sg4
S'20150426\xc2\xa07:53AM UTC'
p1422
sg6
S'Obama: Trade deals will help American workers'
p1423
sa(dp1424
g2
S'http://www.reuters.com/news/video/videoStory?storyID=107245144'
p1425
sg4
S'20150426\xc2\xa06:33AM UTC'
p1426
sg6
S'Celebs Tweet support for Jenner'
p1427
sa(dp1428
g2
S'http://www.reuters.com/news/video/videoStory?storyID=107244602'
p1429
sg4
S'20150426\xc2\xa05:56AM UTC'
p1430
sg6
S'Luxury yachting on rise in Asia'
p1431
sa(dp1432
g2
S'http://www.reuters.com/news/video/videoStory?storyID=107244312'
p1433
sg4
S'20150426\xc2\xa05:45AM UTC'
p1434
sg6
S'Severe quake hits Nepal'
p1435
sa(dp1436
g2
S'http://www.reuters.com/news/video/videoStory?storyID=107243705'
p1437
sg4
S'20150426\xc2\xa04:47AM UTC'
p1438
sg6
S'Major quake hits Nepal'
p1439
sa(dp1440
g2
S'http://www.reuters.com/news/video/videoStory?storyID=107242670'
p1441
sg4
S'20150426\xc2\xa02:36AM UTC'
p1442
sg6
S'Thousands mark Gallipoli centenary'
p1443
sa(dp1444
g2
S'http://www.reuters.com/news/video/videoStory?storyID=107241655'
p1445
sg4
S'20150426\xc2\xa01:25AM UTC'
p1446
sg6
S'Gallipoli 100th anniversary'
p1447
sa(dp1448
g2
S'http://www.reuters.com/news/video/videoStory?storyID=107241016'
p1449
sg4
S'20150426\xc2\xa012:29AM UTC'
p1450
sg6
S"Fishermen's giant manta ray catch"
p1451
sa(dp1452
g2
S'http://www.reuters.com/news/video/videoStory?storyID=107240448'
p1453
sg4
S'20150426\xc2\xa012:11AM UTC'
p1454
sg6
S'Hellfire Pass gathering marks ANZAC centenary'
p1455
sa.