(lp0
(dp1
S'href'
p2
S'http://www.reuters.com/article/hkn-rangers-coyotes-writethru-idUSMTZEBB8HC3ROR20151108'
p3
sS'ts'
p4
S'20151108\xc2\xa011:59PM UTC'
p5
sS'title'
p6
S'Raanta nearly gets shutout for Rangers'
p7
sa(dp8
g2
S'http://www.reuters.com/article/samsung-bioepis-idUSnPn6rSPlp+8c+PRN20151108'
p9
sg4
S'20151108\xc2\xa011:58PM UTC'
p10
sg6
S"Samsung Bioepis' SB4 and SB2 Investigational Biosimilar Candidates Sustain Comparable Safety Profiles in One-Year Phase 3 Clinical Studies"
p11
sa(dp12
g2
S'http://www.reuters.com/article/us-southchinasea-usa-carter-idUSKCN0SW0SL20151108'
p13
sg4
S'20151108\xc2\xa011:56PM UTC'
p14
sg6
S'U.S. navigation moves in South China Sea will continue: Carter'
p15
sa(dp16
g2
S'http://www.reuters.com/article/bkn-grizzlies-jazz-writethru-idUSMTZEBB8HBS4OP20151108'
p17
sg4
S'20151108\xc2\xa011:50PM UTC'
p18
sg6
S'Burke carries Jazz past struggling Grizzlies'
p19
sa(dp20
g2
S'http://www.reuters.com/article/fbc-iowastate-oklahoma-writethru-idUSMTZEBB8H50X5J20151108'
p21
sg4
S'20151108\xc2\xa011:29PM UTC'
p22
sg6
S'Mayfield leads Oklahoma past Iowa State'
p23
sa(dp24
g2
S'http://www.reuters.com/article/us-usa-fed-williams-rates-idUSKCN0SX03J20151108'
p25
sg4
S'20151108\xc2\xa011:28PM UTC'
p26
sg6
S"Fed's Williams: raising interest rates would send positive signal"
p27
sa(dp28
g2
S'http://www.reuters.com/article/hkn-blues-predators-writethru-idUSMTZEBB8H9DPEZ20151108'
p29
sg4
S'20151108\xc2\xa011:27PM UTC'
p30
sg6
S'Allen leads Blues to shutout win over Predators'
p31
sa(dp32
g2
S'http://www.reuters.com/article/bkn-hornets-mavericks-writethru-idUSMTZEBB8HAARI820151108'
p33
sg4
S'20151108\xc2\xa011:27PM UTC'
p34
sg6
S'Mavericks get first home victory, keep Pelicans winless'
p35
sa(dp36
g2
S'http://www.reuters.com/article/apple-bags-ruling-idUSL1N13304F20151108'
p37
sg4
S'20151108\xc2\xa011:23PM UTC'
p38
sg6
S'Apple defeats U.S. class action lawsuit over bag searches'
p39
sa(dp40
g2
S'http://www.reuters.com/article/usa-fed-williams-rates-idUSS8N10Z00J20151108'
p41
sg4
S'20151108\xc2\xa011:22PM UTC'
p42
sg6
S"Fed's Williams: raising interest rates would send positive signal"
p43
sa(dp44
g2
S'http://www.reuters.com/article/bkn-nets-bucks-writethru-idUSMTZEBB8HA18HP20151108'
p45
sg4
S'20151108\xc2\xa011:20PM UTC'
p46
sg6
S'Monroe leads Bucks past winless Nets'
p47
sa(dp48
g2
S'http://www.reuters.com/article/hkn-lightning-wild-writethru-idUSMTZEBB8H96LE820151108'
p49
sg4
S'20151108\xc2\xa011:14PM UTC'
p50
sg6
S'Dubnyk, Wild blank Lightning'
p51
sa(dp52
g2
S'http://www.reuters.com/article/fbc-kansas-texas-writethru-idUSMTZEBB8HC10OQ20151108'
p53
sg4
S'20151108\xc2\xa010:58PM UTC'
p54
sg6
S'Texas 59, Kansas 20'
p55
sa(dp56
g2
S'http://www.reuters.com/article/us-music-johnlennon-guitar-idUSKCN0SX01C20151108'
p57
sg4
S'20151108\xc2\xa010:57PM UTC'
p58
sg6
S'John Lennon guitar sells for over $2.4 million at California auction'
p59
sa(dp60
g2
S'http://www.reuters.com/article/mideast-factors-idUSL8N1320BO20151108'
p61
sg4
S'20151108\xc2\xa010:50PM UTC'
p62
sg6
S'MIDEAST STOCKS - Factors to watch - Nov 8'
p63
sa(dp64
g2
S'http://www.reuters.com/article/bkn-wizards-hawks-writethru-idUSMTZEBB8H6YO9C20151108'
p65
sg4
S'20151108\xc2\xa010:46PM UTC'
p66
sg6
S'Hawks find enough energy to outlast Wizards'
p67
sa(dp68
g2
S'http://www.reuters.com/article/fbc-navy-memphis-writethru-idUSMTZEBB8HB92MY20151108'
p69
sg4
S'20151108\xc2\xa010:41PM UTC'
p70
sg6
S'Navy torches No. 13 Memphis'
p71
sa(dp72
g2
S'http://www.reuters.com/article/hkn-flyers-jets-writethru-idUSMTZEBB8H6YO9B20151108'
p73
sg4
S'20151108\xc2\xa010:40PM UTC'
p74
sg6
S'Neuvirth, Flyers stymie Jets, halt 6-game skid'
p75
sa(dp76
g2
S'http://www.reuters.com/article/hkn-senators-hurricanes-writethru-idUSMTZEBB8H7G3A920151108'
p77
sg4
S'20151108\xc2\xa010:39PM UTC'
p78
sg6
S'Hurricanes defeat Senators in OT'
p79
sa(dp80
g2
S'http://www.reuters.com/article/hkn-bruins-canadiens-writethru-idUSMTZEBB8H7S5AY20151108'
p81
sg4
S'20151108\xc2\xa010:38PM UTC'
p82
sg6
S'Canadiens capitalize on late penalty and beat Bruins'
p83
sa(dp84
g2
S'http://www.reuters.com/article/hkn-mapleleafs-capitals-recap-idUSMTZEBB8H80XBP20151108'
p85
sg4
S'20151108\xc2\xa010:37PM UTC'
p86
sg6
S'Capitals 3, Maple Leafs 2 (SO)'
p87
sa(dp88
g2
S'http://www.reuters.com/article/china-trade-commodities-idUSL3N13303X20151108'
p89
sg4
S'20151108\xc2\xa010:37PM UTC'
p90
sg6
S'UPDATE 1-China October iron ore imports dip 12.3 pct on month - customs'
p91
sa(dp92
g2
S'http://www.reuters.com/article/fbc-hawaii-unlv-writethru-idUSMTZEBB8H6VF8V20151108'
p93
sg4
S'20151108\xc2\xa010:29PM UTC'
p94
sg6
S'UNLV defeats Hawaii for third win of season'
p95
sa(dp96
g2
S'http://www.reuters.com/article/usa-fed-williams-idUSL1N1320MP20151108'
p97
sg4
S'20151108\xc2\xa010:10PM UTC'
p98
sg6
S"Fed rate hike 'makes sense,' says U.S. reserve bank president"
p99
sa(dp100
g2
S'http://www.reuters.com/article/us-arizona-shooting-idUSKCN0SW0R120151108'
p101
sg4
S'20151108\xc2\xa010:10PM UTC'
p102
sg6
S'Arizona woman kills son, herself in hospital room: police'
p103
sa(dp104
g2
S'http://www.reuters.com/article/soccer-england-idUSKCN0SX02P20151108'
p105
sg4
S'20151108\xc2\xa010:09PM UTC'
p106
sg6
S"Chelsea crisis after defeat in Mourinho's absence"
p107
sa(dp108
g2
S'http://www.reuters.com/article/bkn-magic-76ers-writethru-idUSMTZEBB8H6N08J20151108'
p109
sg4
S'20151108\xc2\xa010:09PM UTC'
p110
sg6
S'Payton helps Magic hold off 76ers'
p111
sa(dp112
g2
S'http://www.reuters.com/article/us-usa-election-clinton-marijuana-idUSMTZSAPEBB8H1J9KL20151108'
p113
sg4
S'20151108\xc2\xa09:47PM UTC'
p114
sg6
S'Clinton seeks looser marijuana rules to spur research: reports'
p115
sa(dp116
g2
S'http://www.reuters.com/article/us-usa-election-clinton-marijuana-idUSKCN0SX00Q20151108'
p117
sg4
S'20151108\xc2\xa09:47PM UTC'
p118
sg6
S'Clinton seeks looser marijuana rules to spur research: reports'
p119
sa(dp120
g2
S'http://www.reuters.com/article/us-myanmar-election-suukyi-idUSKCN0SX01U20151108'
p121
sg4
S'20151108\xc2\xa09:46PM UTC'
p122
sg6
S"Myanmar's Suu Kyi casts vote in landmark election"
p123
sa(dp124
g2
S'http://www.reuters.com/article/usa-election-trump-idUSL1N1320NA20151108'
p125
sg4
S'20151108\xc2\xa09:36PM UTC'
p126
sg6
S"Trump's 'Saturday Night Live' gig draws ire of Latino activists"
p127
sa(dp128
g2
S'http://www.reuters.com/article/us-alpine-skiing-vonn-idUSKCN0SX01820151108'
p129
sg4
S'20151108\xc2\xa09:28PM UTC'
p130
sg6
S"Vonn's dogs bite hand that feeds them"
p131
sa(dp132
g2
S'http://www.reuters.com/article/bkn-timberwolves-bulls-writethru-idUSMTZEBB8H4FS4O20151108'
p133
sg4
S'20151108\xc2\xa09:25PM UTC'
p134
sg6
S'Wiggins, Timberwolves get by Bulls in overtime'
p135
sa(dp136
g2
S'http://www.reuters.com/article/brazil-damburst-idUSKCN0SW0HH20151108'
p137
sg4
S'20151108\xc2\xa09:22PM UTC'
p138
sg6
S'Two dozen missing in vast mudflow of Brazil mine disaster'
p139
sa(dp140
g2
S'http://www.reuters.com/article/la-khang-khang-llp-idUSnBw075044a+100+BSW20151108'
p141
sg4
S'20151108\xc2\xa09:17PM UTC'
p142
sg6
S'FINAL NOTICE: Khang & Khang LLP Announces The Filing Of A Securities Class Action Lawsuit Against Valeant Pharmaceuticals International, Inc. And Strongly Encourages Investors To Contact The Firm'
p143
sa(dp144
g2
S'http://www.reuters.com/article/fbc-ucla-oregonstate-writethru-idUSMTZEBB8H3R63P20151108'
p145
sg4
S'20151108\xc2\xa09:16PM UTC'
p146
sg6
S'No. 23 UCLA romps in the rain'
p147
sa(dp148
g2
S'http://www.reuters.com/article/hkn-panthers-kings-writethru-idUSMTZEBB8H1EI0J20151108'
p149
sg4
S'20151108\xc2\xa08:56PM UTC'
p150
sg6
S"Kings' quick hits keep Panthers reeling"
p151
sa(dp152
g2
S'http://www.reuters.com/article/malaysia-swiftlet-eco-food-idUSL3N13300920151108'
p153
sg4
S'20151108\xc2\xa08:56PM UTC'
p154
sg6
S'Malaysian bird-nest product maker in $200 mln distribution agreements'
p155
sa(dp156
g2
S'http://www.reuters.com/article/samsung-bioepis-idUSnPn9M6Km0+94+PRN20151108'
p157
sg4
S'20151108\xc2\xa08:46PM UTC'
p158
sg6
S"Samsung Bioepis' SB4 and SB2 Investigational Biosimilar Candidates"
p159
sa(dp160
g2
S'http://www.reuters.com/article/fbc-floridastate-clemson-writethru-idUSMTZEBB8H5O07T20151108'
p161
sg4
S'20151108\xc2\xa08:41PM UTC'
p162
sg6
S'Clemson takes charge late to win ACC Atlantic'
p163
sa(dp164
g2
S'http://www.reuters.com/article/fbc-cincinnati-houston-writethru-idUSMTZEBB8H0IX0H20151108'
p165
sg4
S'20151108\xc2\xa08:17PM UTC'
p166
sg6
S'Houston edges Cincinnati to stay unbeaten'
p167
sa(dp168
g2
S'http://www.reuters.com/article/fbc-iowa-indiana-writethru-idUSMTZEBB8H4DT4D20151108'
p169
sg4
S'20151108\xc2\xa08:13PM UTC'
p170
sg6
S'No. 9 Iowa gets the jump on Indiana'
p171
sa(dp172
g2
S'http://www.reuters.com/article/us-usa-myanmar-sanctions-insight-idUSKCN0SW0TX20151108'
p173
sg4
S'20151108\xc2\xa08:10PM UTC'
p174
sg6
S'Sanctions fears choke nascent U.S. trade with Myanmar'
p175
sa(dp176
g2
S'http://www.reuters.com/article/fbc-arkansas-mississippi-writethru-idUSMTZEBB8H2I01V20151108'
p177
sg4
S'20151108\xc2\xa08:06PM UTC'
p178
sg6
S'Arkansas stuns No. 19 Ole Miss in OT'
p179
sa(dp180
g2
S'http://www.reuters.com/article/us-loeb-japan-idUSKCN0SX00M20151108'
p181
sg4
S'20151108\xc2\xa07:54PM UTC'
p182
sg6
S"Third Point's Loeb trades digs for diplomacy in Japan"
p183
sa(dp184
g2
S'http://www.reuters.com/article/usa-election-clinton-marijuana-idUSL1N1320OT20151108'
p185
sg4
S'20151108\xc2\xa07:54PM UTC'
p186
sg6
S'Clinton seeks looser marijuana rules to spur research -reports'
p187
sa(dp188
g2
S'http://www.reuters.com/article/fbc-rutgers-michigan-writethru-idUSMTZEBB8H2S82I20151108'
p189
sg4
S'20151108\xc2\xa07:38PM UTC'
p190
sg6
S'No. 17 Michigan 49, Rutgers 16'
p191
sa(dp192
g2
S'http://www.reuters.com/article/novartis-cosentyx-idUSnPn60zNjw+84+PRN20151108'
p193
sg4
S'20151108\xc2\xa07:38PM UTC'
p194
sg6
S'Up to 80% of ankylosing spondylitis patients treated with Cosentyx\xc2\xae show no spinal x-ray progression as shown in Novartis new two-year observational data'
p195
sa(dp196
g2
S'http://www.reuters.com/article/novartis-cosentyx-idUSnPnbrb5KN+83+PRN20151108'
p197
sg4
S'20151108\xc2\xa07:37PM UTC'
p198
sg6
S'Approximately 80% of psoriatic arthritis patients treated with Cosentyx\xc2\xae saw no progression of joint damage as shown in Novartis new two-year observational data'
p199
sa(dp200
g2
S'http://www.reuters.com/article/idUSnHUG3wJ6xh+1c8+ONE20151108'
p201
sg4
S'20151108\xc2\xa07:31PM UTC'
p202
sg6
S'Novartis presents new two year data for Cosentyx(R) showing no progression in joint damage in 84% of psoriatic arthritis patients'
p203
sa(dp204
g2
S'http://www.reuters.com/article/idUSnHUG5gvyfC+1c1+ONE20151108'
p205
sg4
S'20151108\xc2\xa07:31PM UTC'
p206
sg6
S"New two year data for Novartis' Cosentyx(R) show sustained response and no progression in spinal damage as shown by x-ray in up to 80% of patients with ankylosing spondylitis"
p207
sa(dp208
g2
S'http://www.reuters.com/article/eli-lilly-and-incyte-idUSnPn3M8SQC+97+PRN20151108'
p209
sg4
S'20151108\xc2\xa07:30PM UTC'
p210
sg6
S'Lilly and Incyte Announce Patients Treated with Baricitinib Demonstrated Significant Improvement in Signs and Symptoms of Rheumatoid Arthritis Compared with Methotrexate'
p211
sa(dp212
g2
S'http://www.reuters.com/article/idUSnGNX2FtVV2+1d6+GNW20151108'
p213
sg4
S'20151108\xc2\xa07:30PM UTC'
p214
sg6
S'Crescendo Bioscience Announces That New Studies With Vectra(R) DA Data Will be Presented at the American College of Rheumatology 2015 Annual Meeting'
p215
sa(dp216
g2
S'http://www.reuters.com/article/eli-lilly-incyte-data-idUSnPn80Zchm+88+PRN20151108'
p217
sg4
S'20151108\xc2\xa07:30PM UTC'
p218
sg6
S'Detailed Results Demonstrate Baricitinib Superiority to Adalimumab in Improving Signs and Symptoms of Rheumatoid Arthritis'
p219
sa(dp220
g2
S'http://www.reuters.com/article/loeb-japan-idUSL3N12Y23K20151108'
p221
sg4
S'20151108\xc2\xa07:30PM UTC'
p222
sg6
S"Third Point's Loeb trades digs for diplomacy in Japan"
p223
sa(dp224
g2
S'http://www.reuters.com/article/idUSnMKWxMrwXa+1d2+MKW20151108'
p225
sg4
S'20151108\xc2\xa07:30PM UTC'
p226
sg6
S'Lupus Research Findings Provide Evidence of Progress and Hope for Improved Quality of Life Among People With Lupus'
p227
sa(dp228
g2
S'http://www.reuters.com/article/idUSnCCN5nwzyv+1c0+MKW20151108'
p229
sg4
S'20151108\xc2\xa07:30PM UTC'
p230
sg6
S'Lupus Research Findings Provide Evidence of Progress and Hope for Improved Quality of Life Among People With Lupus'
p231
sa(dp232
g2
S'http://www.reuters.com/article/us-golf-pga-idUSKCN0SX00I20151108'
p233
sg4
S'20151108\xc2\xa07:25PM UTC'
p234
sg6
S'Rain-sodden PGA Tour event headed for Monday finish'
p235
sa(dp236
g2
S'http://www.reuters.com/article/us-europe-migrants-germany-idUSKCN0SW0LN20151108'
p237
sg4
S'20151108\xc2\xa07:11PM UTC'
p238
sg6
S"Row over refugees' status reopens divisions in German government"
p239
sa(dp240
g2
S'http://www.reuters.com/article/idUSnMKWs3BmYa+1ca+MKW20151108'
p241
sg4
S'20151108\xc2\xa07:10PM UTC'
p242
sg6
S'Diamond Resorts International(R) - Vacations for Life(R) - Malaga: Enjoy Modern Accommodation When Visiting Ancient History'
p243
sa(dp244
g2
S'http://www.reuters.com/article/fbc-arizonastate-washingtonstate-recap-idUSMTZEBB8H14M0I20151108'
p245
sg4
S'20151108\xc2\xa07:03PM UTC'
p246
sg6
S'Washington State 38, Arizona State 24'
p247
sa(dp248
g2
S'http://www.reuters.com/article/fbc-utah-washington-writethru-idUSMTZEBB8H09V0220151108'
p249
sg4
S'20151108\xc2\xa07:01PM UTC'
p250
sg6
S'Washington State 38, Arizona State 24'
p251
sa(dp252
g2
S'http://www.reuters.com/article/dubai-airshow-idUSL8N1320JS20151108'
p253
sg4
S'20151108\xc2\xa07:00PM UTC'
p254
sg6
S'AIRSHOW-Dubai Airshow opens amid drop in new jetliner orders'
p255
sa(dp256
g2
S'http://www.reuters.com/article/usa-myanmar-sanctions-idUSL1N12T1JT20151107'
p257
sg4
S'20151108\xc2\xa06:53PM UTC'
p258
sg6
S'INSIGHT-Sanctions fears choke nascent U.S. trade with Myanmar'
p259
sa(dp260
g2
S'http://www.reuters.com/article/us-myanmar-election-idUSKCN0SW0TP20151107'
p261
sg4
S'20151108\xc2\xa06:50PM UTC'
p262
sg6
S"Voting starts in Myanmar's first free election in 25 years"
p263
sa(dp264
g2
S'http://www.reuters.com/article/fbc-cincinnati-houston-recap-idUSMTZEBB8H0IX0H20151107'
p265
sg4
S'20151108\xc2\xa06:50PM UTC'
p266
sg6
S'Houston 33, Cincinnati 30'
p267
sa(dp268
g2
S'http://www.reuters.com/article/us-maryland-serial-case-idUSKCN0SW0TN20151107'
p269
sg4
S'20151108\xc2\xa06:47PM UTC'
p270
sg6
S"Baltimore judge orders review of phone records in 'Serial' case"
p271
sa(dp272
g2
S'http://www.reuters.com/article/fbc-utahstate-newmexico-recap-idUSMTZEBB8H0C80F20151107'
p273
sg4
S'20151108\xc2\xa06:46PM UTC'
p274
sg6
S'New Mexico 14, Utah State 13'
p275
sa(dp276
g2
S'http://www.reuters.com/article/fbc-utah-washington-writethru-idUSMTZEBB8H09V0220151107'
p277
sg4
S'20151108\xc2\xa06:44PM UTC'
p278
sg6
S'New Mexico 14, Utah State 13'
p279
sa(dp280
g2
S'http://www.reuters.com/article/us-usa-election-rubio-idUSMTZSAPEBB7GXPREQ20151107'
p281
sg4
S'20151108\xc2\xa06:40PM UTC'
p282
sg6
S'Presidential hopeful Rubio defends credit use with new details'
p283
sa(dp284
g2
S'http://www.reuters.com/article/us-usa-election-rubio-idUSKCN0SW0TH20151107'
p285
sg4
S'20151108\xc2\xa06:40PM UTC'
p286
sg6
S'Presidential hopeful Rubio defends credit use with new details'
p287
sa(dp288
g2
S'http://www.reuters.com/article/fbc-wisconsin-maryland-writethru-idUSMTZEBB8GZR6ZF20151107'
p289
sg4
S'20151108\xc2\xa06:33PM UTC'
p290
sg6
S'Wisconsin 31, Maryland 24'
p291
sa(dp292
g2
S'http://www.reuters.com/article/natleague-cities-pres-idUSnPn15P6Ll+8a+PRN20151107'
p293
sg4
S'20151108\xc2\xa06:16PM UTC'
p294
sg6
S'Councilmember Melodee Colbert-Kean Elected President of National League of Cities'
p295
sa(dp296
g2
S'http://www.reuters.com/article/fbc-army-airforce-writethru-idUSMTZEBB8GYP6YW20151107'
p297
sg4
S'20151108\xc2\xa06:10PM UTC'
p298
sg6
S'Air Force 20, Army 3'
p299
sa(dp300
g2
S'http://www.reuters.com/article/natl-league-cities-idUSnPn5CJHYr+9e+PRN20151107'
p301
sg4
S'20151108\xc2\xa06:06PM UTC'
p302
sg6
S'National League of Cities Announces 2016 Leadership and Board of Directors'
p303
sa(dp304
g2
S'http://www.reuters.com/article/us-myanmar-election-idUSKCN0SW0KT20151107'
p305
sg4
S'20151108\xc2\xa05:50PM UTC'
p306
sg6
S'Myanmar prepares for first free vote in 25 years'
p307
sa(dp308
g2
S'http://www.reuters.com/article/us-athletics-corruption-coe-idUSKCN0SW0SJ20151107'
p309
sg4
S'20151108\xc2\xa05:49PM UTC'
p310
sg6
S'Alleged extortion to hide dopers abhorrent: Coe'
p311
sa(dp312
g2
S'http://www.reuters.com/article/fbc-coloradostate-wyoming-recap-idUSMTZEBB7GXNXWS20151107'
p313
sg4
S'20151108\xc2\xa05:48PM UTC'
p314
sg6
S'Colorado State 26, Wyoming 7'
p315
sa(dp316
g2
S'http://www.reuters.com/article/fbc-stanford-colorado-writethru-idUSMTZEBB7GXLKWR20151107'
p317
sg4
S'20151108\xc2\xa05:46PM UTC'
p318
sg6
S'Colorado State 26, Wyoming 7'
p319
sa(dp320
g2
S'http://www.reuters.com/article/nonin-med-copd-system-idUSnPn3L8YQK+97+PRN20151107'
p321
sg4
S'20151108\xc2\xa05:44PM UTC'
p322
sg6
S"Nonin Medical's New COPD STEP\xe2\x84\xa2 Plan Designed to Reduce Hospital Readmissions, Improve Patient Outcomes and Quality of Life"
p323
sa(dp324
g2
S'http://www.reuters.com/article/fbc-virginia-miami-writethru-idUSMTZEBB7GPCTTI20151107'
p325
sg4
S'20151108\xc2\xa05:43PM UTC'
p326
sg6
S'Miami 27, Virginia 21'
p327
sa(dp328
g2
S'http://www.reuters.com/article/idUSnMKWdZsK7a+1d4+MKW20151107'
p329
sg4
S'20151108\xc2\xa05:33PM UTC'
p330
sg6
S'PIPSC Concludes 96th Annual General Meeting With Celebration of Changes to Federal Science Policy, Debi Daviau Re-Elected President'
p331
sa(dp332
g2
S'http://www.reuters.com/article/idUSnCCN8bBNlb+1cc+MKW20151107'
p333
sg4
S'20151108\xc2\xa05:33PM UTC'
p334
sg6
S'PIPSC Concludes 96th Annual General Meeting With Celebration of Changes to Federal Science Policy, Debi Daviau Re-Elected President'
p335
sa(dp336
g2
S'http://www.reuters.com/article/us-southchinasea-usa-carter-idUSKCN0SW0SL20151107'
p337
sg4
S'20151108\xc2\xa05:33PM UTC'
p338
sg6
S'U.S. navigation moves in South China Sea will continue: Carter'
p339
sa(dp340
g2
S'http://www.reuters.com/article/us-southchinasea-usa-passage-idUSKCN0SV2QK20151107'
p341
sg4
S'20151108\xc2\xa05:28PM UTC'
p342
sg6
S'U.S. patrol sought to avoid provocation, not reinforce China island claim: officials'
p343
sa(dp344
g2
S'http://www.reuters.com/article/southchinasea-usa-carter-idUSL1N1320N920151107'
p345
sg4
S'20151108\xc2\xa05:27PM UTC'
p346
sg6
S'UPDATE 1-US navigation moves in S.China Sea will continue -Carter'
p347
sa(dp348
g2
S'http://www.reuters.com/article/us-california-airport-military-idUSKCN0SW0SN20151107'
p349
sg4
S'20151108\xc2\xa05:15PM UTC'
p350
sg6
S'Military activity forces Los Angeles airport to detour night flights'
p351
sa(dp352
g2
S'http://www.reuters.com/article/california-airport-military-idUSL1N1320MQ20151107'
p353
sg4
S'20151108\xc2\xa05:13PM UTC'
p354
sg6
S'Military activity forces Los Angeles airport to detour night flights'
p355
sa(dp356
g2
S'http://www.reuters.com/article/fbc-kentucky-georgia-writethru-idUSMTZEBB7GOTKTF20151107'
p357
sg4
S'20151108\xc2\xa04:55PM UTC'
p358
sg6
S'Louisiana-Lafayette 23, Georgia State 21'
p359
sa(dp360
g2
S'http://www.reuters.com/article/us-athletics-corruption-report-idUSKCN0SW0SF20151107'
p361
sg4
S'20151108\xc2\xa04:51PM UTC'
p362
sg6
S'Russian rejects charges in athletics corruption row'
p363
sa(dp364
g2
S'http://www.reuters.com/article/athletics-corruption-report-idUSL8N1314MQ20151107'
p365
sg4
S'20151108\xc2\xa04:49PM UTC'
p366
sg6
S'Russian rejects charges in athletics corruption row'
p367
sa(dp368
g2
S'http://www.reuters.com/article/us-utah-mormons-idUSKCN0SW03K20151107'
p369
sg4
S'20151108\xc2\xa04:42PM UTC'
p370
sg6
S'Same-sex couples deemed Mormon apostates in renewed exclusion of gays'
p371
sa(dp372
g2
S'http://www.reuters.com/article/fbc-vanderbilt-florida-writethru-idUSMTZEBB7GUJQVJ20151107'
p373
sg4
S'20151108\xc2\xa04:41PM UTC'
p374
sg6
S'No. 10 Florida wins by a foot'
p375
sa(dp376
g2
S'http://www.reuters.com/article/fbc-pennstate-northwestern-writethru-idUSMTZEBB7GUG0VH20151107'
p377
sg4
S'20151108\xc2\xa04:38PM UTC'
p378
sg6
S"Mitchell's late kick lifts Northwestern past Penn State"
p379
sa(dp380
g2
S'http://www.reuters.com/article/wa-nintendo-idUSnBw075040a+100+BSW20151107'
p381
sg4
S'20151108\xc2\xa04:22PM UTC'
p382
sg6
S'Photos of YO-KAI WATCH Launch Event at Nintendo World Store, Available on Business Wire\xe2\x80\x99s Website and AP PhotoExpress'
p383
sa(dp384
g2
S'http://www.reuters.com/article/us-niger-politics-idUSKCN0SW0S720151107'
p385
sg4
S'20151108\xc2\xa04:08PM UTC'
p386
sg6
S"Niger's President Issoufou chosen to run for second term"
p387
sa(dp388
g2
S'http://www.reuters.com/article/us-romania-fire-idUSKCN0SW0JH20151107'
p389
sg4
S'20151108\xc2\xa04:04PM UTC'
p390
sg6
S'Death toll from Romania fire reaches 41, former mayor arrested'
p391
sa(dp392
g2
S'http://www.reuters.com/article/us-soccer-england-idUSKCN0SW0RV20151107'
p393
sg4
S'20151108\xc2\xa03:56PM UTC'
p394
sg6
S"Chelsea crisis after defeat in Mourinho's absence"
p395
sa(dp396
g2
S'http://www.reuters.com/article/hkn-canucks-sabres-recap-idUSMTZEBB7GQAVTL20151107'
p397
sg4
S'20151108\xc2\xa03:46PM UTC'
p398
sg6
S'Sabres 3, Canucks 2'
p399
sa(dp400
g2
S'http://www.reuters.com/article/fbc-syracuse-louisville-writethru-idUSMTZEBB7GRACUG20151107'
p401
sg4
S'20151108\xc2\xa03:30PM UTC'
p402
sg6
S'Louisville 41, Syracuse 17'
p403
sa(dp404
g2
S'http://www.reuters.com/article/us-brazil-damburst-idUSKCN0SW0ET20151107'
p405
sg4
S'20151108\xc2\xa03:10PM UTC'
p406
sg6
S'Two dozen missing in vast mudflow of Brazil mine disaster  '
p407
sa(dp408
g2
S'http://www.reuters.com/article/fbc-northcarolinastate-bostoncollege-rec-idUSMTZEBB7GQCYTM20151107'
p409
sg4
S'20151108\xc2\xa03:10PM UTC'
p410
sg6
S'North Carolina State 24, Boston College 8'
p411
sa(dp412
g2
S'http://www.reuters.com/article/brazil-damburst-idUSL1N1320B020151107'
p413
sg4
S'20151108\xc2\xa03:06PM UTC'
p414
sg6
S'UPDATE 4-Two dozen missing in vast mudflow of Brazil mine disaster'
p415
sa(dp416
g2
S'http://www.reuters.com/article/idUSnGNX1yD8XL+1cb+GNW20151107'
p417
sg4
S'20151108\xc2\xa03:00PM UTC'
p418
sg6
S'Akebia Announces Presentation of Vadadustat Phase 2 Dialysis Data at American Society of Nephrology Kidney Week 2015 Annual Meeting'
p419
sa(dp420
g2
S'http://www.reuters.com/article/amgen-presents-data-idUSnPn2FqpcQ+91+PRN20151107'
p421
sg4
S'20151108\xc2\xa03:00PM UTC'
p422
sg6
S'Amgen Presents Detailed Data Comparing Etelcalcetide With Cinacalcet In Patients With Secondary Hyperparathyroidism Receiving Hemodialysis'
p423
sa(dp424
g2
S'http://www.reuters.com/article/fbc-texastech-westvirginia-recap-idUSMTZEBB7GPQRTK20151107'
p425
sg4
S'20151108\xc2\xa02:57PM UTC'
p426
sg6
S'West Virginia 31, Texas Tech 26'
p427
sa(dp428
g2
S'http://www.reuters.com/article/fbc-illinois-purdue-writethru-idUSMTZEBB7GPPQTJ20151107'
p429
sg4
S'20151108\xc2\xa02:56PM UTC'
p430
sg6
S'Illinois 48, Purdue 14'
p431
sa(dp432
g2
S'http://www.reuters.com/article/fbc-duke-northcarolina-writethru-idUSMTZEBB7GP4RTG20151107'
p433
sg4
S'20151108\xc2\xa02:44PM UTC'
p434
sg6
S'North Carolina 66, Duke 31'
p435
sa(dp436
g2
S'http://www.reuters.com/article/us-tennis-men-paris-idUSKCN0SW0QT20151107'
p437
sg4
S'20151108\xc2\xa02:40PM UTC'
p438
sg6
S'Record-chasing Djokovic sets up Murray showdown'
p439
sa(dp440
g2
S'http://www.reuters.com/article/us-louisiana-shooting-idUSKCN0SW06L20151107'
p441
sg4
S'20151108\xc2\xa02:20PM UTC'
p442
sg6
S'Two Louisiana officers arrested in shooting of boy, 6, and father'
p443
sa(dp444
g2
S'http://www.reuters.com/article/us-egypt-crash-idUSKCN0SV22R20151107'
p445
sg4
S'20151108\xc2\xa02:19PM UTC'
p446
sg6
S'Russian plane broke up in mid-air after noise, crash investigators say'
p447
sa(dp448
g2
S'http://www.reuters.com/article/alliance-one-call-idUSnPn9Kp2NW+93+PRN20151107'
p449
sg4
S'20151108\xc2\xa02:00PM UTC'
p450
sg6
S'Alliance One International, Inc. Announces Investor Information and Arrangements for Call'
p451
sa(dp452
g2
S'http://www.reuters.com/article/us-arizona-shooting-idUSKCN0SW0R120151107'
p453
sg4
S'20151108\xc2\xa01:53PM UTC'
p454
sg6
S'Arizona woman kills son, herself in hospital room, police say'
p455
sa(dp456
g2
S'http://www.reuters.com/article/us-china-taiwan-idUSKCN0SV2PU20151107'
p457
sg4
S'20151108\xc2\xa01:33PM UTC'
p458
sg6
S"Oppose Taiwan independence, China's Xi says at historic meeting"
p459
sa(dp460
g2
S'http://www.reuters.com/article/china-taiwan-idUSKCN0SV2PQ20151107'
p461
sg4
S'20151108\xc2\xa01:27PM UTC'
p462
sg6
S"Oppose Taiwan independence, China's Xi says at historic meeting"
p463
sa(dp464
g2
S'http://www.reuters.com/article/china-taiwan-idUSL3N1316GJ20151107'
p465
sg4
S'20151108\xc2\xa01:26PM UTC'
p466
sg6
S"UPDATE 8-Oppose Taiwan independence, China's Xi says at historic meeting"
p467
sa(dp468
g2
S'http://www.reuters.com/article/us-volkswagen-emissions-idUSKCN0SW0QB20151107'
p469
sg4
S'20151108\xc2\xa01:10PM UTC'
p470
sg6
S'Volkswagen managers afraid to travel to the U.S.: paper'
p471
sa(dp472
g2
S'http://www.reuters.com/article/us-health-ebola-leone-idUSKCN0SW0CA20151107'
p473
sg4
S'20151108\xc2\xa01:03PM UTC'
p474
sg6
S'Sierra Leone celebrates end of Ebola epidemic'
p475
sa(dp476
g2
S'http://www.reuters.com/article/volkswagen-emissions-idUSL8N1320G520151107'
p477
sg4
S'20151108\xc2\xa01:03PM UTC'
p478
sg6
S'VW managers afraid to travel to the U.S. - paper'
p479
sa(dp480
g2
S'http://www.reuters.com/article/idUSnGNX36hp8f+1c0+GNW20151107'
p481
sg4
S'20151108\xc2\xa01:00PM UTC'
p482
sg6
S'ZS Pharma Announces Positive Interim Results From a Long-Term Safety Study of ZS-9'
p483
sa(dp484
g2
S'http://www.reuters.com/article/us-bangladesh-militants-idUSKCN0SW0Q320151107'
p485
sg4
S'20151108\xc2\xa012:59PM UTC'
p486
sg6
S'Bangladesh police arrest seven militants, including four Pakistanis'
p487
sa(dp488
g2
S'http://www.reuters.com/article/bangladesh-militants-idUSL3N1320BM20151107'
p489
sg4
S'20151108\xc2\xa012:57PM UTC'
p490
sg6
S'Bangladesh police arrest 7 militants, including 4 Pakistanis'
p491
sa(dp492
g2
S'http://www.reuters.com/article/idUSnHUG3g4fQB+1c3+ONE20151107'
p493
sg4
S'20151108\xc2\xa012:57PM UTC'
p494
sg6
S"Moody's Downgraded ICA"
p495
sa(dp496
g2
S'http://www.reuters.com/article/us-eu-estonianair-stateaid-idUSKCN0SW0J520151107'
p497
sg4
S'20151108\xc2\xa012:54PM UTC'
p498
sg6
S'Estonian Air closes down after EU order to pay back state money'
p499
sa(dp500
g2
S'http://www.reuters.com/article/us-bahamas-cruiseship-search-idUSKCN0SW0PQ20151107'
p501
sg4
S'20151108\xc2\xa012:49PM UTC'
p502
sg6
S'U.S. Coast Guard suspends search for man who fell from cruise ship'
p503
sa(dp504
g2
S'http://www.reuters.com/article/us-dubai-airshow-boeing-partnerships-idUSKCN0SW0AK20151107'
p505
sg4
S'20151108\xc2\xa012:48PM UTC'
p506
sg6
S'Boeing eyes new partnerships'
p507
sa(dp508
g2
S'http://www.reuters.com/article/us-egypt-crash-airport-idUSKCN0SW0PG20151107'
p509
sg4
S'20151108\xc2\xa012:47PM UTC'
p510
sg6
S'As suspicions of a bomb behind plane crash grow, chaos at an Egyptian airport'
p511
sa(dp512
g2
S'http://www.reuters.com/article/bahamas-cruiseship-search-idUSL1N1320EW20151107'
p513
sg4
S'20151108\xc2\xa012:45PM UTC'
p514
sg6
S'U.S. Coast Guard suspends search for man who fell from cruise ship'
p515
sa(dp516
g2
S'http://www.reuters.com/article/dubai-airshow-boeing-partnerships-idUSL8N13205220151107'
p517
sg4
S'20151108\xc2\xa012:45PM UTC'
p518
sg6
S'UPDATE 2-AIRSHOW-Boeing eyes new partnerships'
p519
sa(dp520
g2
S'http://www.reuters.com/article/idUSnGNX60kTdg+1c4+GNW20151107'
p521
sg4
S'20151108\xc2\xa012:45PM UTC'
p522
sg6
S'OncoMed Presents Immuno-Oncology Data for Combined Blockade of DLL4, VEGF and PD1 at the Society for Immunotherapy of Cancer Annual Meeting'
p523
sa(dp524
g2
S'http://www.reuters.com/article/us-texas-shooting-judge-idUSKCN0SW0PK20151107'
p525
sg4
S'20151108\xc2\xa012:44PM UTC'
p526
sg6
S'Texas state judge shot in front of home; shooter still at large'
p527
sa(dp528
g2
S'http://www.reuters.com/article/egypt-crash-airport-idUSL3N1320BK20151107'
p529
sg4
S'20151108\xc2\xa012:34PM UTC'
p530
sg6
S'As suspicions of a bomb behind plane crash grow, chaos at an Egyptian airport'
p531
sa(dp532
g2
S'http://www.reuters.com/article/ma-tokai-pharmaceuticals-idUSnBw075020a+100+BSW20151107'
p533
sg4
S'20151108\xc2\xa012:31PM UTC'
p534
sg6
S'Tokai Announces Presentation of Galeterone Data in Models of the AR-V7 Splice Variant at the AACR-NCI-EORTC International Conference on Molecular Targets and Cancer Therapeutics'
p535
sa(dp536
g2
S'http://www.reuters.com/article/egypt-crash-idUSKCN0SW0DG20151107'
p537
sg4
S'20151108\xc2\xa012:30PM UTC'
p538
sg6
S'Russian plane broke up in mid-air after noise, crash investigators say'
p539
sa(dp540
g2
S'http://www.reuters.com/article/ct-alexion-idUSnBw075022a+100+BSW20151107'
p541
sg4
S'20151108\xc2\xa012:30PM UTC'
p542
sg6
S'Long-Term Follow-up Study Presented at ASN 2015 Supports Effectiveness of Soliris\xc2\xae (eculizumab) in Preventing Thrombotic Microangiopathy (TMA) Events in Patients with Atypical Hemolytic Uremic Syndrome (aHUS)'
p543
sa(dp544
g2
S'http://www.reuters.com/article/egypt-crash-idUSL8N1320FJ20151107'
p545
sg4
S'20151108\xc2\xa012:29PM UTC'
p546
sg6
S'WRAPUP 3-Russian plane broke up in mid-air after noise, crash investigators say'
p547
sa(dp548
g2
S'http://www.reuters.com/article/idUSnGNXbbY3nm+1c8+GNW20151107'
p549
sg4
S'20151108\xc2\xa012:15PM UTC'
p550
sg6
S'Data from MacroGenics\xe2\x80\x99 Ongoing Phase 1 Study of Enoblituzumab (MGA271) Presented at 30th Annual SITC Meeting 2015'
p551
sa(dp552
g2
S'http://www.reuters.com/article/hkn-penguins-playerwatch-idUSMTZEBB7GI6QRH20151107'
p553
sg4
S'20151108\xc2\xa012:04PM UTC'
p554
sg6
S'Pittsburgh Penguins - PlayerWatch'
p555
sa(dp556
g2
S'http://www.reuters.com/article/hkn-rangers-playerwatch-idUSMTZEBB7GI6QRG20151107'
p557
sg4
S'20151108\xc2\xa012:04PM UTC'
p558
sg6
S'New York Rangers - PlayerWatch'
p559
sa(dp560
g2
S'http://www.reuters.com/article/hkn-ducks-playerwatch-idUSMTZEBB7GI6QRE20151107'
p561
sg4
S'20151108\xc2\xa012:04PM UTC'
p562
sg6
S'Anaheim Ducks - PlayerWatch'
p563
sa(dp564
g2
S'http://www.reuters.com/article/hkn-redwings-playerwatch-idUSMTZEBB7GI6PRB20151107'
p565
sg4
S'20151108\xc2\xa012:04PM UTC'
p566
sg6
S'Detroit Red Wings - PlayerWatch'
p567
sa(dp568
g2
S'http://www.reuters.com/article/hkn-hurricanes-playerwatch-idUSMTZEBB7GI6PR820151107'
p569
sg4
S'20151108\xc2\xa012:04PM UTC'
p570
sg6
S'Carolina Hurricanes - PlayerWatch'
p571
sa(dp572
g2
S'http://www.reuters.com/article/bkn-76ers-playerwatch-idUSMTZEBB7GI3DQM20151107'
p573
sg4
S'20151108\xc2\xa012:02PM UTC'
p574
sg6
S'Philadelphia 76ers - PlayerWatch'
p575
sa(dp576
g2
S'http://www.reuters.com/article/bkn-knicks-playerwatch-idUSMTZEBB7GI3DQL20151107'
p577
sg4
S'20151108\xc2\xa012:02PM UTC'
p578
sg6
S'New York Knicks - PlayerWatch'
p579
sa(dp580
g2
S'http://www.reuters.com/article/bkn-warriors-playerwatch-idUSMTZEBB7GI3DR020151107'
p581
sg4
S'20151108\xc2\xa012:02PM UTC'
p582
sg6
S'Golden State Warriors - PlayerWatch'
p583
sa(dp584
g2
S'http://www.reuters.com/article/bkn-lakers-playerwatch-idUSMTZEBB7GI3DQZ20151107'
p585
sg4
S'20151108\xc2\xa012:02PM UTC'
p586
sg6
S'Los Angeles Lakers - PlayerWatch'
p587
sa(dp588
g2
S'http://www.reuters.com/article/bkn-kings-playerwatch-idUSMTZEBB7GI3DQY20151107'
p589
sg4
S'20151108\xc2\xa012:02PM UTC'
p590
sg6
S'Sacramento Kings - PlayerWatch'
p591
sa(dp592
g2
S'http://www.reuters.com/article/bkn-hornets-playerwatch-idUSMTZEBB7GI3DQW20151107'
p593
sg4
S'20151108\xc2\xa012:02PM UTC'
p594
sg6
S'New Orleans Hornets - PlayerWatch'
p595
sa(dp596
g2
S'http://www.reuters.com/article/bkn-rockets-playerwatch-idUSMTZEBB7GI3DQV20151107'
p597
sg4
S'20151108\xc2\xa012:02PM UTC'
p598
sg6
S'Houston Rockets - PlayerWatch'
p599
sa(dp600
g2
S'http://www.reuters.com/article/bkn-magic-playerwatch-idUSMTZEBB7GI3DQT20151107'
p601
sg4
S'20151108\xc2\xa012:02PM UTC'
p602
sg6
S'Orlando Magic - PlayerWatch'
p603
sa(dp604
g2
S'http://www.reuters.com/article/bkn-bucks-playerwatch-idUSMTZEBB7GI3DQR20151107'
p605
sg4
S'20151108\xc2\xa012:02PM UTC'
p606
sg6
S'Milwaukee Bucks - PlayerWatch'
p607
sa(dp608
g2
S'http://www.reuters.com/article/bkn-cavaliers-playerwatch-idUSMTZEBB7GI3DQP20151107'
p609
sg4
S'20151108\xc2\xa012:02PM UTC'
p610
sg6
S'Cleveland Cavaliers - PlayerWatch'
p611
sa(dp612
g2
S'http://www.reuters.com/article/bkn-pacers-playerwatch-idUSMTZEBB7GI3DQO20151107'
p613
sg4
S'20151108\xc2\xa012:02PM UTC'
p614
sg6
S'Indiana Pacers - PlayerWatch'
p615
sa(dp616
g2
S'http://www.reuters.com/article/idUSnMKWmQR1la+1d8+MKW20151107'
p617
sg4
S'20151108\xc2\xa012:00PM UTC'
p618
sg6
S'International Luxury Real Estate Firm Launches First Brokerage in Vancouver'
p619
sa(dp620
g2
S'http://www.reuters.com/article/idUSnCCN3V9Pkd+1d4+MKW20151107'
p621
sg4
S'20151108\xc2\xa012:00PM UTC'
p622
sg6
S'International Luxury Real Estate Firm Launches First Brokerage in Vancouver'
p623
sa(dp624
g2
S'http://www.reuters.com/article/tencent-internet-plus-idUSnPn6VCh7z+98+PRN20151107'
p625
sg4
S'20151108\xc2\xa011:59AM UTC'
p626
sg6
S"Tencent's SY Lau lays out his vision for Internet Plus and its significance to China and Asia"
p627
sa(dp628
g2
S'http://www.reuters.com/article/us-egypt-crash-investigation-idUSKCN0SW0M820151107'
p629
sg4
S'20151108\xc2\xa011:52AM UTC'
p630
sg6
S'Egypt crash committee says noise heard in flight recording, too soon for conclusions'
p631
sa(dp632
g2
S'http://www.reuters.com/article/idUSnGNX9L00YN+1d3+GNW20151107'
p633
sg4
S'20151108\xc2\xa011:44AM UTC'
p634
sg6
S'Moody\xe2\x80\x99s Downgraded ICA'
p635
sa(dp636
g2
S'http://www.reuters.com/article/us-afghanistan-bank-idUSKCN0SW0O820151107'
p637
sg4
S'20151108\xc2\xa011:43AM UTC'
p638
sg6
S'Afghan government cancels property deal with convicted banker'
p639
sa(dp640
g2
S'http://www.reuters.com/article/idUSnMKWQd90Qa+1e2+MKW20151107'
p641
sg4
S'20151108\xc2\xa011:43AM UTC'
p642
sg6
S'On 40th Anniversary of Green March, King Mohammed VI Lauds Autonomy Plan, Pledges to Turn Western Sahara Into African Hub'
p643
sa(dp644
g2
S'http://www.reuters.com/article/carefusion-zenith-awd-idUSnPn9C4vSv+92+PRN20151107'
p645
sg4
S'20151108\xc2\xa011:40AM UTC'
p646
sg6
S'CareFusion Receives Zenith Award For Respiratory Product Excellence'
p647
sa(dp648
g2
S'http://www.reuters.com/article/rainforest-trust-peru-idUSnPnqwftz+40+PRN20151107'
p649
sg4
S'20151108\xc2\xa011:38AM UTC'
p650
sg6
S'Rainforest Trust and CEDIA announce protection of over 3.3 million acres of Amazon rainforest through creation of National Park in Peru'
p651
sa(dp652
g2
S'http://www.reuters.com/article/afghanistan-bank-idUSL8N1320CH20151107'
p653
sg4
S'20151108\xc2\xa011:35AM UTC'
p654
sg6
S'Afghan government cancels property deal with convicted banker'
p655
sa(dp656
g2
S'http://www.reuters.com/article/idUSnMKW41k7Ga+1c2+MKW20151107'
p657
sg4
S'20151108\xc2\xa011:32AM UTC'
p658
sg6
S'Caroline Lowe to Join KARE 11 Investigates Team on Special Wetterling Case Assignment'
p659
sa(dp660
g2
S'http://www.reuters.com/article/us-sun-pharm-results-idUSKCN0SW0NE20151107'
p661
sg4
S'20151108\xc2\xa011:16AM UTC'
p662
sg6
S'Sun Pharma profit down 30 percent over compliance costs, lower sales '
p663
sa(dp664
g2
S'http://www.reuters.com/article/sun-pharm-results-idUSKCN0SW0NC20151107'
p665
sg4
S'20151108\xc2\xa011:15AM UTC'
p666
sg6
S'Sun Pharma profit down 30 pct over compliance costs, lower sales '
p667
sa(dp668
g2
S'http://www.reuters.com/article/idUSnMKWmWM2ra+1d8+MKW20151107'
p669
sg4
S'20151108\xc2\xa011:13AM UTC'
p670
sg6
S'Elections Canada Announces Results of Judicial Recount in the Electoral District of Barrie-Springwater-Oro-Medonte'
p671
sa(dp672
g2
S'http://www.reuters.com/article/idUSnCCN25rlK0+1c2+MKW20151107'
p673
sg4
S'20151108\xc2\xa011:13AM UTC'
p674
sg6
S'Elections Canada Announces Results of Judicial Recount in the Electoral District of Barrie-Springwater-Oro-Medonte'
p675
sa(dp676
g2
S'http://www.reuters.com/article/sun-pharm-results-idUSL3N1320BF20151107'
p677
sg4
S'20151108\xc2\xa011:12AM UTC'
p678
sg6
S'Sun Pharma profit down 30 pct over compliance costs, lower sales'
p679
sa(dp680
g2
S'http://www.reuters.com/article/us-maldives-blast-arrest-idUSKCN0SW0N120151107'
p681
sg4
S'20151108\xc2\xa011:11AM UTC'
p682
sg6
S'Sri Lankan charged with new assassination plot in Maldives'
p683
sa(dp684
g2
S'http://www.reuters.com/article/egypt-crash-investigation-idUSL8N1320EU20151107'
p685
sg4
S'20151108\xc2\xa011:10AM UTC'
p686
sg6
S'UPDATE 1-Egypt crash committee says noise heard in flight recording, too soon for conclusions'
p687
sa(dp688
g2
S'http://www.reuters.com/article/us-mideast-crisis-airstrikes-idUSKCN0SW0MQ20151107'
p689
sg4
S'20151108\xc2\xa011:08AM UTC'
p690
sg6
S'Coalition carries out 20 air strikes in Iraq, Syria - U.S. military'
p691
sa(dp692
g2
S'http://www.reuters.com/article/us-venezuela-quake-idUSKCN0SW0MK20151107'
p693
sg4
S'20151108\xc2\xa010:52AM UTC'
p694
sg6
S"Magnitude 5.3 quake jolts Venezuela's west, one dead in rockfall"
p695
sa(dp696
g2
S'http://www.reuters.com/article/us-europe-migrants-germany-idUSKCN0SW0LN20151107'
p697
sg4
S'20151108\xc2\xa010:44AM UTC'
p698
sg6
S"Row over refugees' status reopens divisions in German government"
p699
sa(dp700
g2
S'http://www.reuters.com/article/egypt-crash-investigation-idUSnL8N1320D20151107'
p701
sg4
S'20151108\xc2\xa010:40AM UTC'
p702
sg6
S'Egypt crash committee says noise heard in flight recording, too soon for conclusions'
p703
sa(dp704
g2
S'http://www.reuters.com/article/us-spain-catalonia-debt-idUSKCN0SW0LD20151107'
p705
sg4
S'20151108\xc2\xa010:30AM UTC'
p706
sg6
S"Catalan pro-secession parties push for changes to region's debt"
p707
sa(dp708
g2
S'http://www.reuters.com/article/myanmar-election-idUSKCN0SW0L420151107'
p709
sg4
S'20151108\xc2\xa010:23AM UTC'
p710
sg6
S'Myanmar prepares for first free vote in 25 years'
p711
sa(dp712
g2
S'http://www.reuters.com/article/ny-kroll-bond-rating-idUSnBw075038a+100+BSW20151107'
p713
sg4
S'20151108\xc2\xa010:21AM UTC'
p714
sg6
S'Kroll Bond Rating Agency Assigns Preliminary Ratings to Sequoia Mortgage Trust 2015-4 (SEMT 2015-4)'
p715
sa(dp716
g2
S'http://www.reuters.com/article/spain-catalonia-debt-idUSL8N1320CX20151107'
p717
sg4
S'20151108\xc2\xa010:20AM UTC'
p718
sg6
S"Catalan pro-secession parties push for changes to region's debt"
p719
sa(dp720
g2
S'http://www.reuters.com/article/idUSnGNX4rSttl+1c8+GNW20151107'
p721
sg4
S'20151108\xc2\xa010:15AM UTC'
p722
sg6
S'IAAPA Attractions Expo 2015 is About to Kick Off Featured With Airwheel Electric Skateboard'
p723
sa(dp724
g2
S'http://www.reuters.com/article/bkn-magic-76ers-preview-idUSMTZEBB7GCSLPW20151107'
p725
sg4
S'20151108\xc2\xa010:07AM UTC'
p726
sg6
S'Preview: Magic at 76ers'
p727
sa(dp728
g2
S'http://www.reuters.com/article/us-egypt-crash-britain-airport-idUSKCN0SW0KN20151107'
p729
sg4
S'20151108\xc2\xa010:05AM UTC'
p730
sg6
S'Britain aims to return tourists from Sharm al-Sheikh within 10 days'
p731
sa(dp732
g2
S'http://www.reuters.com/article/egypt-crash-britain-airport-idUSL8N1320C720151107'
p733
sg4
S'20151108\xc2\xa010:03AM UTC'
p734
sg6
S'UPDATE 1-Britain aims to return tourists from Sharm al-Sheikh within 10 days'
p735
sa(dp736
g2
S'http://www.reuters.com/article/bkn-rockets-clippers-preview-idUSMTZEBB7GCIKPS20151107'
p737
sg4
S'20151108\xc2\xa010:01AM UTC'
p738
sg6
S'Preview: Rockets at Clippers'
p739
sa(dp740
g2
S'http://www.reuters.com/article/bkn-nets-bucks-preview-idUSMTZEBB7GCH4PQ20151107'
p741
sg4
S'20151108\xc2\xa010:00AM UTC'
p742
sg6
S'Preview: Nets at Bucks'
p743
sa(dp744
g2
S'http://www.reuters.com/article/bkn-warriors-kings-preview-idUSMTZEBB7GCH4PR20151107'
p745
sg4
S'20151108\xc2\xa010:00AM UTC'
p746
sg6
S'Preview: Warriors at Kings'
p747
sa(dp748
g2
S'http://www.reuters.com/article/bkn-wizards-hawks-preview-idUSMTZEBB7GCFCPO20151107'
p749
sg4
S'20151108\xc2\xa09:59AM UTC'
p750
sg6
S'Preview: Wizards at Hawks'
p751
sa(dp752
g2
S'http://www.reuters.com/article/hkn-lightning-wild-preview-idUSMTZEBB7GC80PL20151107'
p753
sg4
S'20151108\xc2\xa09:55AM UTC'
p754
sg6
S'Preview: Lightning at Wild'
p755
sa(dp756
g2
S'http://www.reuters.com/article/hkn-flyers-jets-preview-idUSMTZEBB7GC80PK20151107'
p757
sg4
S'20151108\xc2\xa09:55AM UTC'
p758
sg6
S'Preview: Flyers at Jets'
p759
sa(dp760
g2
S'http://www.reuters.com/article/hkn-mapleleafs-capitals-preview-idUSMTZEBB7GC30PH20151107'
p761
sg4
S'20151108\xc2\xa09:52AM UTC'
p762
sg6
S'Preview: Maple Leafs at Capitals'
p763
sa(dp764
g2
S'http://www.reuters.com/article/hkn-senators-hurricanes-preview-idUSMTZEBB7GC30PG20151107'
p765
sg4
S'20151108\xc2\xa09:52AM UTC'
p766
sg6
S'Preview: Senators at Hurricanes'
p767
sa(dp768
g2
S'http://www.reuters.com/article/hkn-panthers-kings-preview-idUSMTZEBB7G1FLP820151107'
p769
sg4
S'20151108\xc2\xa09:52AM UTC'
p770
sg6
S'Preview: Panthers at Kings'
p771
sa(dp772
g2
S'http://www.reuters.com/article/hkn-penguins-flames-preview-idUSMTZEBB7GC1CPE20151107'
p773
sg4
S'20151108\xc2\xa09:51AM UTC'
p774
sg6
S'Preview: Penguins at Flames'
p775
sa(dp776
g2
S'http://www.reuters.com/article/hkn-rangers-coyotes-preview-idUSMTZEBB7GBO0PC20151107'
p777
sg4
S'20151108\xc2\xa09:43AM UTC'
p778
sg6
S'Preview: Rangers at Coyotes'
p779
sa(dp780
g2
S'http://www.reuters.com/article/egypt-crash-idUSL8N13206O20151107'
p781
sg4
S'20151108\xc2\xa09:40AM UTC'
p782
sg6
S'WRAPUP 2-Egypt checking camera footage at Sharm airport, criticises West'
p783
sa(dp784
g2
S'http://www.reuters.com/article/us-dubai-airshow-boeing-commercial-idUSKCN0SW0JR20151107'
p785
sg4
S'20151108\xc2\xa09:35AM UTC'
p786
sg6
S'Boeing seeks to tough out cheap-oil impact on jet sales'
p787
sa(dp788
g2
S'http://www.reuters.com/article/us-egypt-crash-russia-flights-idUSKCN0SW0BQ20151107'
p789
sg4
S'20151108\xc2\xa09:34AM UTC'
p790
sg6
S'Russia faces evacuating 80,000 nationals from Egypt after flights suspended'
p791
sa(dp792
g2
S'http://www.reuters.com/article/us-egypt-crash-russia-egypt-idUSKCN0SW0JP20151107'
p793
sg4
S'20151108\xc2\xa09:32AM UTC'
p794
sg6
S'Russian foreign ministry discusses flight suspension with Egypt envoy'
p795
sa(dp796
g2
S'http://www.reuters.com/article/dubai-airshow-boeing-commercial-idUSL8N1320BZ20151107'
p797
sg4
S'20151108\xc2\xa09:32AM UTC'
p798
sg6
S'AIRSHOW-Boeing seeks to tough out cheap-oil impact on jet sales'
p799
sa(dp800
g2
S'http://www.reuters.com/article/egypt-crash-russia-egypt-idUSL8N1320CA20151107'
p801
sg4
S'20151108\xc2\xa09:32AM UTC'
p802
sg6
S'Russian foreign ministry discusses flight suspension with Egypt envoy'
p803
sa(dp804
g2
S'http://www.reuters.com/article/hkn-ducks-sharks-preview-idUSMTZEBB7GA9ZP920151107'
p805
sg4
S'20151108\xc2\xa09:13AM UTC'
p806
sg6
S'Preview: Ducks at Sharks'
p807
sa(dp808
g2
S'http://www.reuters.com/article/us-mideast-crisis-iraq-violence-idUSKCN0SW0IW20151107'
p809
sg4
S'20151108\xc2\xa09:02AM UTC'
p810
sg6
S'Bombs across Baghdad kill nine people: sources'
p811
sa(dp812
g2
S'http://www.reuters.com/article/egypt-crash-britain-airport-idUSL8N1320BK20151107'
p813
sg4
S'20151108\xc2\xa08:57AM UTC'
p814
sg6
S'Britain aims to return tourists from Sharm al-Sheikh within 10 days'
p815
sa(dp816
g2
S'http://www.reuters.com/article/dubai-airshow-boeing-idUSL8N13206720151107'
p817
sg4
S'20151108\xc2\xa08:55AM UTC'
p818
sg6
S'UPDATE 2-Boeing upbeat over possible Kuwait jet sale, oil price hits some deals'
p819
sa(dp820
g2
S'http://www.reuters.com/article/us-egypt-crash-cameras-idUSKCN0SW0IH20151107'
p821
sg4
S'20151108\xc2\xa08:49AM UTC'
p822
sg6
S'Egypt checking airport cameras for any activity related to crash: security officials'
p823
sa(dp824
g2
S'http://www.reuters.com/article/us-lufthansa-strike-idUSKCN0SV0O020151107'
p825
sg4
S'20151108\xc2\xa08:44AM UTC'
p826
sg6
S'Lufthansa flights hit as crew start longest-ever strike'
p827
sa(dp828
g2
S'http://www.reuters.com/article/egypt-crash-cameras-idUSL8N1320B320151107'
p829
sg4
S'20151108\xc2\xa08:42AM UTC'
p830
sg6
S'Egypt checking airport cameras for any activity related to crash-security officials'
p831
sa(dp832
g2
S'http://www.reuters.com/article/lufthansa-strike-idUSL8N1320A120151107'
p833
sg4
S'20151108\xc2\xa08:36AM UTC'
p834
sg6
S'Lufthansa cabin crew strike for second day, pause scheduled for Sunday'
p835
sa(dp836
g2
S'http://www.reuters.com/article/us-california-drought-birds-idUSKCN0SW0H720151107'
p837
sg4
S'20151108\xc2\xa08:28AM UTC'
p838
sg6
S'California drought shrinks winter digs for migratory birds'
p839
sa(dp840
g2
S'http://www.reuters.com/article/idUSL3N13206920151107'
p841
sg4
S'20151108\xc2\xa08:24AM UTC'
p842
sg6
S'Investors float alternative debt plan for China developer Kaisa, documents show'
p843
sa(dp844
g2
S'http://www.reuters.com/article/us-morocco-sahara-idUSKCN0SW0GS20151107'
p845
sg4
S'20151108\xc2\xa08:19AM UTC'
p846
sg6
S'Morocco stands fast on Western Sahara autonomy plan'
p847
sa(dp848
g2
S'http://www.reuters.com/article/koppdentalassociates-idUSnPn9Qw52P+91+PRN20151107'
p849
sg4
S'20151108\xc2\xa08:05AM UTC'
p850
sg6
S'How An All On 4 Fixed Denture Can Change Your Life'
p851
sa(dp852
g2
S'http://www.reuters.com/article/us-portugal-government-president-idUSKCN0SW0G220151107'
p853
sg4
S'20151108\xc2\xa07:49AM UTC'
p854
sg6
S"Portugal's president tries to tame political crisis"
p855
sa(dp856
g2
S'http://www.reuters.com/article/cricket-india-pitch-idUSKCN0SW0FW20151107'
p857
sg4
S'20151108\xc2\xa07:35AM UTC'
p858
sg6
S"Kohli irked by 'unnecessary hype' over Mohali pitch"
p859
sa(dp860
g2
S'http://www.reuters.com/article/portugal-government-president-idUSL8N13154N20151107'
p861
sg4
S'20151108\xc2\xa07:32AM UTC'
p862
sg6
S"Portugal's president tries to tame political crisis"
p863
sa(dp864
g2
S'http://www.reuters.com/article/idUSnGNXbLKb2V+1d9+GNW20151107'
p865
sg4
S'20151108\xc2\xa07:30AM UTC'
p866
sg6
S'Cancer Genetics to Report Biomarker Findings in Metastatic Clear Cell Renal Carcinoma Using a CGI-Designed NGS Panel at the 14th International Kidney Cancer Symposium in Miami, FL'
p867
sa(dp868
g2
S'http://www.reuters.com/article/egypt-crash-russia-flights-idUSL8N13206Z20151107'
p869
sg4
S'20151108\xc2\xa07:28AM UTC'
p870
sg6
S'UPDATE 2-Russia faces evacuating 80,000 nationals from Egypt after flights suspended'
p871
sa(dp872
g2
S'http://www.reuters.com/article/us-burundi-politics-idUSKCN0SW0FF20151107'
p873
sg4
S'20151108\xc2\xa07:25AM UTC'
p874
sg6
S"Burundi opposition fear attacks as Nkurunziza's disarmament deadline arrives"
p875
sa(dp876
g2
S'http://www.reuters.com/article/idg-award-china-idUSnPn6ZccLs+92+PRN20151107'
p877
sg4
S'20151108\xc2\xa07:20AM UTC'
p878
sg6
S'2015 Global Competitiveness Top 10 Brands from China Announced by IDG'
p879
sa(dp880
g2
S'http://www.reuters.com/article/idg-idUSnBw075014a+100+BSW20151107'
p881
sg4
S'20151108\xc2\xa07:20AM UTC'
p882
sg6
S'Sinopec Received \xe2\x80\x9cGlobal Competitiveness Brands Top 10 From China\xe2\x80\x9d Award for the Sixth Year in a Row<600028.SS>'
p883
sa(dp884
g2
S'http://www.reuters.com/article/egypt-crash-insurgency-idUSL8N1306LT20151107'
p885
sg4
S'20151108\xc2\xa07:14AM UTC'
p886
sg6
S"RPT-INSIGHT-Russian plane crash points to Egypt's counterinsurgency flaws"
p887
sa(dp888
g2
S'http://www.reuters.com/article/health-ebola-leone-idUSL8N13208S20151107'
p889
sg4
S'20151108\xc2\xa07:12AM UTC'
p890
sg6
S'UPDATE 1-Sierra Leone celebrates end of Ebola epidemic'
p891
sa(dp892
g2
S'http://www.reuters.com/article/us-china-taiwan-dpp-idUSKCN0SW0EX20151107'
p893
sg4
S'20151108\xc2\xa07:07AM UTC'
p894
sg6
S"Taiwan's main opposition leader disappointed with Xi-Ma meeting"
p895
sa(dp896
g2
S'http://www.reuters.com/article/china-taiwan-dpp-idUSS7N10O01A20151107'
p897
sg4
S'20151108\xc2\xa07:04AM UTC'
p898
sg6
S"Taiwan's main opposition leader disappointed with Xi-Ma meeting"
p899
sa(dp900
g2
S'http://www.reuters.com/article/germany-hitler-idUSKCN0SW0DK20151107'
p901
sg4
S'20151108\xc2\xa07:04AM UTC'
p902
sg6
S'Hitler was shrewd, not so hypnotic, new German biography says'
p903
sa(dp904
g2
S'http://www.reuters.com/article/idUSnGNXchBRm+e6+GNW20151107'
p905
sg4
S'20151108\xc2\xa07:03AM UTC'
p906
sg6
S'Tokyo Institute of Technology Research: A Potential Control Over Superconductivity'
p907
sa(dp908
g2
S'http://www.reuters.com/article/exxon-mobil-climatechange-idUSL1N13201G20151107'
p909
sg4
S'20151108\xc2\xa07:00AM UTC'
p910
sg6
S'RPT-NY attorney general wields powerful weapon in Exxon climate case'
p911
sa(dp912
g2
S'http://www.reuters.com/article/exxon-mobil-climatechange-idUSL1N13201E20151107'
p913
sg4
S'20151108\xc2\xa07:00AM UTC'
p914
sg6
S'RPT-NY attorney general wields powerful weapon in Exxon climate case'
p915
sa(dp916
g2
S'http://www.reuters.com/article/dc-geico-idUSnBw075018a+100+BSW20151107'
p917
sg4
S'20151108\xc2\xa07:00AM UTC'
p918
sg6
S'\xe2\x80\x98The Wall That Heals\xe2\x80\x99 ending 2015 tour; 2016 donation campaign features special match'
p919
sa(dp920
g2
S'http://www.reuters.com/article/va-geico-idUSnBw075016a+100+BSW20151107'
p921
sg4
S'20151108\xc2\xa07:00AM UTC'
p922
sg6
S'GEICO seeking recent college grads to join Management Development Program in Virginia Beach'
p923
sa(dp924
g2
S'http://www.reuters.com/article/tx-geico-idUSnBw075003a+100+BSW20151107'
p925
sg4
S'20151108\xc2\xa07:00AM UTC'
p926
sg6
S"GEICO's Dallas office looking to hire 200 in midst of relocation"
p927
sa(dp928
g2
S'http://www.reuters.com/article/us-egypt-crash-britain-cyprus-idUSKCN0SW0EL20151107'
p929
sg4
S'20151108\xc2\xa06:56AM UTC'
p930
sg6
S'British airliners on standby for stranded tourists in Egypt'
p931
sa(dp932
g2
S'http://www.reuters.com/article/brazil-damburst-idUSL1N1320AH20151107'
p933
sg4
S'20151108\xc2\xa06:56AM UTC'
p934
sg6
S'Up to 10 people missing from village near Brazil dam burst -mayor'
p935
sa(dp936
g2
S'http://www.reuters.com/article/us-egypt-crash-russia-passengers-idUSKCN0SW0E920151107'
p937
sg4
S'20151108\xc2\xa06:55AM UTC'
p938
sg6
S"Egypt's military controlling repatriation of Russian passengers: Russian deputy PM"
p939
sa(dp940
g2
S'http://www.reuters.com/article/egypt-crash-britain-cyprus-idUSL8N13208G20151107'
p941
sg4
S'20151108\xc2\xa06:52AM UTC'
p942
sg6
S'British airliners on standby for stranded tourists in Egypt'
p943
sa(dp944
g2
S'http://www.reuters.com/article/egypt-crash-russia-passengers-idUSL8N13209120151107'
p945
sg4
S'20151108\xc2\xa06:48AM UTC'
p946
sg6
S"Egypt's military controlling repatriation of Russian passengers -Russian deputy PM"
p947
sa(dp948
g2
S'http://www.reuters.com/article/us-mideast-crisis-syria-christians-idUSKCN0SW0DY20151107'
p949
sg4
S'20151108\xc2\xa06:44AM UTC'
p950
sg6
S'Islamic State frees 37 elderly Assyrian Christians: monitors'
p951
sa(dp952
g2
S'http://www.reuters.com/article/cricket-india-southafrica-mohali-test-idUSKCN0SW05W20151107'
p953
sg4
S'20151108\xc2\xa06:36AM UTC'
p954
sg6
S'Jadeja, Ashwin spin India to big win in Mohali'
p955
sa(dp956
g2
S'http://www.reuters.com/article/mideast-crisis-syria-christians-idUSL8N13208C20151107'
p957
sg4
S'20151108\xc2\xa06:32AM UTC'
p958
sg6
S'Islamic State frees 37 elderly Assyrian Christians -monitors'
p959
sa(dp960
g2
S'http://www.reuters.com/article/va-cea-idUSnBw075002a+100+BSW20151107'
p961
sg4
S'20151108\xc2\xa06:15AM UTC'
p962
sg6
S'CEA Innovate! to feature exciting panelists, speakers and keynotes'
p963
sa(dp964
g2
S'http://www.reuters.com/article/ny-cea-idUSnBw075013a+100+BSW20151107'
p965
sg4
S'20151108\xc2\xa06:15AM UTC'
p966
sg6
S'CEA Heads to the Big Apple to Host Fall Event Series'
p967
sa(dp968
g2
S'http://www.reuters.com/article/us-germany-hitler-idUSKCN0SW0D420151107'
p969
sg4
S'20151108\xc2\xa06:08AM UTC'
p970
sg6
S'Hitler was shrewd, not so hypnotic, new German biography says'
p971
sa(dp972
g2
S'http://www.reuters.com/article/fbc-cincinnati-houston-preview-idUSMTZEBB7G1FLP620151107'
p973
sg4
S'20151108\xc2\xa06:02AM UTC'
p974
sg6
S'Preview: Cincinnati at Houston'
p975
sa(dp976
g2
S'http://www.reuters.com/article/fbc-louisianastate-alabama-preview-idUSMTZEBB7G1FLP520151107'
p977
sg4
S'20151108\xc2\xa06:02AM UTC'
p978
sg6
S'Preview: LSU at Alabama'
p979
sa(dp980
g2
S'http://www.reuters.com/article/bkn-timberwolves-bulls-preview-idUSMTZEBB7G1FKP420151107'
p981
sg4
S'20151108\xc2\xa06:02AM UTC'
p982
sg6
S'Preview: Timberwolves at Bulls'
p983
sa(dp984
g2
S'http://www.reuters.com/article/fbc-ucla-oregonstate-preview-idUSMTZEBB7G1FKP120151107'
p985
sg4
S'20151108\xc2\xa06:02AM UTC'
p986
sg6
S'Preview: UCLA at Oregon State'
p987
sa(dp988
g2
S'http://www.reuters.com/article/fbc-minnesota-ohiostate-preview-idUSMTZEBB7G1FKP020151107'
p989
sg4
S'20151108\xc2\xa06:02AM UTC'
p990
sg6
S'Preview: Minnesota at Ohio State'
p991
sa(dp992
g2
S'http://www.reuters.com/article/hkn-canucks-sabres-preview-idUSMTZEBB7G1FKOZ20151107'
p993
sg4
S'20151108\xc2\xa06:02AM UTC'
p994
sg6
S'Preview: Canucks at Sabres'
p995
sa(dp996
g2
S'http://www.reuters.com/article/fbc-utah-washington-preview-idUSMTZEBB7G1FKOY20151107'
p997
sg4
S'20151108\xc2\xa06:02AM UTC'
p998
sg6
S'Preview: Utah at Washington'
p999
sa(dp1000
g2
S'http://www.reuters.com/article/fbc-stanford-colorado-preview-idUSMTZEBB7G1FKOX20151107'
p1001
sg4
S'20151108\xc2\xa06:02AM UTC'
p1002
sg6
S'Preview: Stanford at Colorado'
p1003
sa(dp1004
g2
S'http://www.reuters.com/article/fbc-texastech-westvirginia-preview-idUSMTZEBB7G1FJOV20151107'
p1005
sg4
S'20151108\xc2\xa06:02AM UTC'
p1006
sg6
S'Preview: Texas Tech at West Virginia'
p1007
sa(dp1008
g2
S'http://www.reuters.com/article/fbc-california-oregon-preview-idUSMTZEBB7G1FJOU20151107'
p1009
sg4
S'20151108\xc2\xa06:02AM UTC'
p1010
sg6
S'Preview: California at Oregon'
p1011
sa(dp1012
g2
S'http://www.reuters.com/article/fbc-duke-northcarolina-preview-idUSMTZEBB7G1FJOT20151107'
p1013
sg4
S'20151108\xc2\xa06:02AM UTC'
p1014
sg6
S'Preview: Duke at North Carolina'
p1015
sa(dp1016
g2
S'http://www.reuters.com/article/fbc-northcarolinastate-bostoncollege-pre-idUSMTZEBB7G1FJOS20151107'
p1017
sg4
S'20151108\xc2\xa06:02AM UTC'
p1018
sg6
S'Preview: North Carolina State at Boston College'
p1019
sa(dp1020
g2
S'http://www.reuters.com/article/fbc-virginia-miami-preview-idUSMTZEBB7G1FJOR20151107'
p1021
sg4
S'20151108\xc2\xa06:02AM UTC'
p1022
sg6
S'Preview: Virginia at Miami (Fla.)'
p1023
sa(dp1024
g2
S'http://www.reuters.com/article/fbc-rutgers-michigan-preview-idUSMTZEBB7G1FJOQ20151107'
p1025
sg4
S'20151108\xc2\xa06:02AM UTC'
p1026
sg6
S'Preview: Rutgers at Michigan'
p1027
sa(dp1028
g2
S'http://www.reuters.com/article/fbc-kentucky-georgia-preview-idUSMTZEBB7G1FJOP20151107'
p1029
sg4
S'20151108\xc2\xa06:02AM UTC'
p1030
sg6
S'Preview: Kentucky at Georgia'
p1031
sa(dp1032
g2
S'http://www.reuters.com/article/bkn-grizzlies-jazz-preview-idUSMTZEBB7G1FJOO20151107'
p1033
sg4
S'20151108\xc2\xa06:02AM UTC'
p1034
sg6
S'Preview: Grizzlies at Jazz'
p1035
sa(dp1036
g2
S'http://www.reuters.com/article/hkn-bruins-canadiens-preview-idUSMTZEBB7G1FJON20151107'
p1037
sg4
S'20151108\xc2\xa06:02AM UTC'
p1038
sg6
S'Preview: Bruins at Canadiens'
p1039
sa(dp1040
g2
S'http://www.reuters.com/article/fbc-illinois-purdue-preview-idUSMTZEBB7G1FJOM20151107'
p1041
sg4
S'20151108\xc2\xa06:02AM UTC'
p1042
sg6
S'Preview: Illinois at Purdue'
p1043
sa(dp1044
g2
S'http://www.reuters.com/article/fbc-kansas-texas-preview-idUSMTZEBB7G1FIOJ20151107'
p1045
sg4
S'20151108\xc2\xa06:02AM UTC'
p1046
sg6
S'Preview: Kansas at Texas'
p1047
sa(dp1048
g2
S'http://www.reuters.com/article/hkn-blues-predators-preview-idUSMTZEBB7G1FIOH20151107'
p1049
sg4
S'20151108\xc2\xa06:02AM UTC'
p1050
sg6
S'Preview: Blues at Predators'
p1051
sa(dp1052
g2
S'http://www.reuters.com/article/fbc-pennstate-northwestern-preview-idUSMTZEBB7G1FIOG20151107'
p1053
sg4
S'20151108\xc2\xa06:02AM UTC'
p1054
sg6
S'Preview: Penn State at Northwestern'
p1055
sa(dp1056
g2
S'http://www.reuters.com/article/fbc-iowastate-oklahoma-preview-idUSMTZEBB7G1FIOE20151107'
p1057
sg4
S'20151108\xc2\xa06:02AM UTC'
p1058
sg6
S'Preview: Iowa State at Oklahoma'
p1059
sa(dp1060
g2
S'http://www.reuters.com/article/fbc-floridastate-clemson-preview-idUSMTZEBB7G1FIOD20151107'
p1061
sg4
S'20151108\xc2\xa06:02AM UTC'
p1062
sg6
S'Preview: Florida State at Clemson'
p1063
sa(dp1064
g2
S'http://www.reuters.com/article/fbc-navy-memphis-preview-idUSMTZEBB7G1FHOC20151107'
p1065
sg4
S'20151108\xc2\xa06:02AM UTC'
p1066
sg6
S'Preview: Navy at Memphis'
p1067
sa(dp1068
g2
S'http://www.reuters.com/article/fbc-arizonastate-washingtonstate-preview-idUSMTZEBB7G1FIOL20151107'
p1069
sg4
S'20151108\xc2\xa06:02AM UTC'
p1070
sg6
S'Preview: Arizona State at Washington State'
p1071
sa(dp1072
g2
S'http://www.reuters.com/article/fbc-syracuse-louisville-preview-idUSMTZEBB7G1FIOK20151107'
p1073
sg4
S'20151108\xc2\xa06:02AM UTC'
p1074
sg6
S'Preview: Syracuse at Louisville'
p1075
sa(dp1076
g2
S'http://www.reuters.com/article/fbc-vanderbilt-florida-preview-idUSMTZEBB7G1FHO720151107'
p1077
sg4
S'20151108\xc2\xa06:02AM UTC'
p1078
sg6
S'Preview: Vanderbilt at Florida'
p1079
sa(dp1080
g2
S'http://www.reuters.com/article/fbc-michiganstate-nebraska-preview-idUSMTZEBB7G1FHOB20151107'
p1081
sg4
S'20151108\xc2\xa06:02AM UTC'
p1082
sg6
S'Preview: Michigan State at Nebraska'
p1083
sa(dp1084
g2
S'http://www.reuters.com/article/fbc-iowa-indiana-preview-idUSMTZEBB7G1FHOA20151107'
p1085
sg4
S'20151108\xc2\xa06:02AM UTC'
p1086
sg6
S'Preview: Iowa at Indiana'
p1087
sa(dp1088
g2
S'http://www.reuters.com/article/fbc-arizona-southerncalifornia-preview-idUSMTZEBB7G1FHO920151107'
p1089
sg4
S'20151108\xc2\xa06:02AM UTC'
p1090
sg6
S'Preview: Arizona at USC'
p1091
sa(dp1092
g2
S'http://www.reuters.com/article/fbc-wisconsin-maryland-preview-idUSMTZEBB7G1FHO820151107'
p1093
sg4
S'20151108\xc2\xa06:02AM UTC'
p1094
sg6
S'Preview: Wisconsin at Maryland'
p1095
sa(dp1096
g2
S'http://www.reuters.com/article/us-nol-cma-cmg-m-a-idUSKCN0SW0CT20151107'
p1097
sg4
S'20151108\xc2\xa06:01AM UTC'
p1098
sg6
S"Singapore's NOL says in early talks with CMA CGM, Maersk on potential acquisition"
p1099
sa(dp1100
g2
S'http://www.reuters.com/article/germany-hitler-idUSL8N1303GB20151107'
p1101
sg4
S'20151108\xc2\xa06:00AM UTC'
p1102
sg6
S'Hitler was shrewd, not so hypnotic, new German biography says'
p1103
sa(dp1104
g2
S'http://www.reuters.com/article/california-drought-birds-idUSL1N13005320151107'
p1105
sg4
S'20151108\xc2\xa06:00AM UTC'
p1106
sg6
S'FEATURE-California drought shrinks winter digs for migratory birds'
p1107
sa(dp1108
g2
S'http://www.reuters.com/article/nol-cma-cmg-ma-idUSL3N13209820151107'
p1109
sg4
S'20151108\xc2\xa05:59AM UTC'
p1110
sg6
S"Singapore's NOL says in early talks with CMA CGM, Maersk on potential acquisition"
p1111
sa(dp1112
g2
S'http://www.reuters.com/article/adib-sukuk-idUSL8N13208A20151107'
p1113
sg4
S'20151108\xc2\xa05:50AM UTC'
p1114
sg6
S'Abu Dhabi Islamic bank repays sukuk without refinancing'
p1115
sa(dp1116
g2
S'http://www.reuters.com/article/india-modi-kashmir-fund-idUSKCN0SW09Q20151107'
p1117
sg4
S'20151108\xc2\xa05:46AM UTC'
p1118
sg6
S'Modi pledges 800 billion rupees in relief and development for Kashmir '
p1119
sa(dp1120
g2
S'http://www.reuters.com/article/health-ebola-leone-idUSL8N13207F20151107'
p1121
sg4
S'20151108\xc2\xa05:43AM UTC'
p1122
sg6
S'Sierra Leone celebrates end of Ebola epidemic'
p1123
sa(dp1124
g2
S'http://www.reuters.com/article/idUSnMKW32Fq1a+1c8+MKW20151107'
p1125
sg4
S'20151108\xc2\xa05:30AM UTC'
p1126
sg6
S"Fraser Institute School Rankings Spotlight Quebec's Improving Schools"
p1127
sa(dp1128
g2
S'http://www.reuters.com/article/us-egypt-crash-britain-idUSKCN0SW0BO20151107'
p1129
sg4
S'20151108\xc2\xa05:12AM UTC'
p1130
sg6
S'British plane almost hit by rocket near Sharm al-Sheikh in August: media'
p1131
sa(dp1132
g2
S'http://www.reuters.com/article/idUSP6N12L00V20151107'
p1133
sg4
S'20151108\xc2\xa05:07AM UTC'
p1134
sg6
S'BRIEF-Boeing exec says demand for fuel-saving jets to stay robust'
p1135
sa(dp1136
g2
S'http://www.reuters.com/article/us-usa-election-carson-idUSMTZSAPEBB6EKU9HS20151107'
p1137
sg4
S'20151108\xc2\xa05:05AM UTC'
p1138
sg6
S"Ben Carson's West Point, youth recollections come under question"
p1139
sa(dp1140
g2
S'http://www.reuters.com/article/us-usa-election-carson-idUSKCN0SV2CT20151107'
p1141
sg4
S'20151108\xc2\xa05:05AM UTC'
p1142
sg6
S"Ben Carson's West Point, youth recollections come under question"
p1143
sa(dp1144
g2
S'http://www.reuters.com/article/us-china-taiwan-ma-idUSKCN0SW0BC20151107'
p1145
sg4
S'20151108\xc2\xa05:00AM UTC'
p1146
sg6
S"Taiwan's Ma says hopes China can use peace to resolve cross-strait issues"
p1147
sa(dp1148
g2
S'http://www.reuters.com/article/egypt-crash-russia-flights-idUSL8N13206G20151107'
p1149
sg4
S'20151108\xc2\xa04:32AM UTC'
p1150
sg6
S'About 79,000 Russians in Egypt after flights suspended - tourism chief'
p1151
sa(dp1152
g2
S'http://www.reuters.com/article/china-taiwan-ma-idUSS7N10O01720151107'
p1153
sg4
S'20151108\xc2\xa04:32AM UTC'
p1154
sg6
S"Taiwan's Ma says hopes China can use peace to resolve cross-strait issues"
p1155
sa(dp1156
g2
S'http://www.reuters.com/article/egypt-crash-britain-idUSKCN0SW09T20151107'
p1157
sg4
S'20151108\xc2\xa04:30AM UTC'
p1158
sg6
S'British plane almost hit by rocket near Sharm al-Sheikh in August - media'
p1159
sa(dp1160
g2
S'http://www.reuters.com/article/us-egypt-crash-minister-idUSKCN0SW09R20151107'
p1161
sg4
S'20151108\xc2\xa04:20AM UTC'
p1162
sg6
S'Egypt says foreign countries did not coordinate with Egypt on security'
p1163
sa(dp1164
g2
S'http://www.reuters.com/article/egypt-crash-britain-idUSL8N13205Q20151107'
p1165
sg4
S'20151108\xc2\xa04:15AM UTC'
p1166
sg6
S'British plane almost hit by rocket near Sharm al-Sheikh in August-media'
p1167
sa(dp1168
g2
S'http://www.reuters.com/article/india-kashmir-idUSL3N13205220151107'
p1169
sg4
S'20151108\xc2\xa04:12AM UTC'
p1170
sg6
S"India's Modi pledges $12 bln in relief and development for Kashmir"
p1171
sa(dp1172
g2
S'http://www.reuters.com/article/us-china-taiwan-zhang-idUSKCN0SW09N20151107'
p1173
sg4
S'20151108\xc2\xa04:12AM UTC'
p1174
sg6
S'China says splittist forces in Taiwan biggest threat to cross-strait peace'
p1175
sa(dp1176
g2
S'http://www.reuters.com/article/us-volkswagen-emissions-germany-tests-idUSKCN0SW09E20151107'
p1177
sg4
S'20151108\xc2\xa04:06AM UTC'
p1178
sg6
S'Germany says testing diesel cars of foreign automakers'
p1179
sa(dp1180
g2
S'http://www.reuters.com/article/dubai-airshow-boeing-idUSP6N12L00X20151107'
p1181
sg4
S'20151108\xc2\xa04:01AM UTC'
p1182
sg6
S'Boeing exec say oil price hitting some arms purchase plans'
p1183
sa(dp1184
g2
S'http://www.reuters.com/article/egypt-crash-minister-idUSL8N13205H20151107'
p1185
sg4
S'20151108\xc2\xa03:58AM UTC'
p1186
sg6
S'Egypt says foreign countries did not coordinate with Egypt on security'
p1187
sa(dp1188
g2
S'http://www.reuters.com/article/us-mideast-crisis-airstrikes-idUSKCN0SW08W20151107'
p1189
sg4
S'20151108\xc2\xa03:44AM UTC'
p1190
sg6
S'U.S. general sees air strikes against Islamic State picking up '
p1191
sa(dp1192
g2
S'http://www.reuters.com/article/china-taiwan-zhang-idUSS7N10O01820151107'
p1193
sg4
S'20151108\xc2\xa03:43AM UTC'
p1194
sg6
S'China says splittist forces in Taiwan biggest threat to cross-strait peace'
p1195
sa(dp1196
g2
S'http://www.reuters.com/article/volkswagen-emissions-germany-tests-idUSL8N13204T20151107'
p1197
sg4
S'20151108\xc2\xa03:40AM UTC'
p1198
sg6
S'Germany says testing diesel cars of foreign automakers'
p1199
sa(dp1200
g2
S'http://www.reuters.com/article/us-toshiba-results-idUSKCN0SW06020151107'
p1201
sg4
S'20151108\xc2\xa03:39AM UTC'
p1202
sg6
S'Toshiba sues former executives over scandal, swings to operating loss'
p1203
sa(dp1204
g2
S'http://www.reuters.com/article/us-chile-quake-idUSKCN0SW08S20151107'
p1205
sg4
S'20151108\xc2\xa03:36AM UTC'
p1206
sg6
S'Magnitude 6.8 earthquake strikes Chile, no tsunami seen'
p1207
sa(dp1208
g2
S'http://www.reuters.com/article/toshiba-results-idUSL3N13206T20151107'
p1209
sg4
S'20151108\xc2\xa03:29AM UTC'
p1210
sg6
S'UPDATE 1-Toshiba sues former executives over scandal, swings to operating loss'
p1211
sa(dp1212
g2
S'http://www.reuters.com/article/china-singapore-chongqing-project-idUSL3N13207220151107'
p1213
sg4
S'20151108\xc2\xa03:11AM UTC'
p1214
sg6
S'China, Singapore to launch govt-to-govt project in Chongqing'
p1215
sa(dp1216
g2
S'http://www.reuters.com/article/idUSnGNX44xgL0+1c2+GNW20151107'
p1217
sg4
S'20151108\xc2\xa03:06AM UTC'
p1218
sg6
S"goExW '50% Off' Thanksgiving Campaign Boosts Wholesale Imports Proposition"
p1219
sa(dp1220
g2
S'http://www.reuters.com/article/dubai-airshow-boeing-idUSP6N12L00W20151107'
p1221
sg4
S'20151108\xc2\xa03:05AM UTC'
p1222
sg6
S'Boeing eyes new partnerships, sees upward pressure on 737 output'
p1223
sa(dp1224
g2
S'http://www.reuters.com/article/hungary-orban-idUSL8N13133T20151107'
p1225
sg4
S'20151108\xc2\xa03:04AM UTC'
p1226
sg6
S'RPT-Orban\'s ratings rise as Hungarian fence deters migrant "invasion"'
p1227
sa(dp1228
g2
S'http://www.reuters.com/article/us-myanmar-election-suukyi-idUSKCN0SW07M20151107'
p1229
sg4
S'20151108\xc2\xa02:58AM UTC'
p1230
sg6
S"With Suu Kyi banned, Myanmar voters ponder 'proxy presidents'"
p1231
sa(dp1232
g2
S'http://www.reuters.com/article/china-taiwan-idUSKCN0SW06Q20151107'
p1233
sg4
S'20151108\xc2\xa02:39AM UTC'
p1234
sg6
S'Leaders of China, Taiwan meet for first time in six decades'
p1235
sa(dp1236
g2
S'http://www.reuters.com/article/china-taiwan-meeting-idUSKCN0SW06N20151107'
p1237
sg4
S'20151108\xc2\xa02:19AM UTC'
p1238
sg6
S'China, Taiwan leaders meet for first time since 1949'
p1239
sa(dp1240
g2
S'http://www.reuters.com/article/china-taiwan-meeting-idUSS7N10O01920151107'
p1241
sg4
S'20151108\xc2\xa02:18AM UTC'
p1242
sg6
S'China, Taiwan leaders meet for first time since 1949'
p1243
sa(dp1244
g2
S'http://www.reuters.com/article/us-toshiba-lng-exclusive-idUSKCN0SV0PW20151107'
p1245
sg4
S'20151108\xc2\xa02:13AM UTC'
p1246
sg6
S'Exclusive: Toshiba tries to sell down $7 billion U.S. gas commitment'
p1247
sa(dp1248
g2
S'http://www.reuters.com/article/britain-charts-elvis-idUSKCN0SW06H20151107'
p1249
sg4
S'20151108\xc2\xa01:59AM UTC'
p1250
sg6
S'Elvis Presley tops UK album chart again, 40 years on'
p1251
sa(dp1252
g2
S'http://www.reuters.com/article/emirates-india-taqa-idUSKCN0SW06A20151107'
p1253
sg4
S'20151108\xc2\xa01:57AM UTC'
p1254
sg6
S'UAE\xe2\x80\x99s TAQA starts selling power from India hydro project'
p1255
sa(dp1256
g2
S'http://www.reuters.com/article/china-economy-cpi-idUSL3N13205L20151107'
p1257
sg4
S'20151108\xc2\xa01:50AM UTC'
p1258
sg6
S"Think-tank: China's CPI likely to rise 1.4 pct next year"
p1259
sa(dp1260
g2
S'http://www.reuters.com/article/bkn-nuggets-warriors-writethru-idUSMTZEBB7FP4TKP20151107'
p1261
sg4
S'20151108\xc2\xa01:46AM UTC'
p1262
sg6
S'Curry, Warriors top Nuggets to stay unbeaten'
p1263
sa(dp1264
g2
S'http://www.reuters.com/article/us-nissan-airbag-takata-idUSKCN0SW06220151107'
p1265
sg4
S'20151108\xc2\xa01:43AM UTC'
p1266
sg6
S'Nissan joins automakers dropping Takata air bag inflators'
p1267
sa(dp1268
g2
S'http://www.reuters.com/article/bkn-warriors-playerwatch-idUSMTZEBB7FPBCL520151107'
p1269
sg4
S'20151108\xc2\xa01:40AM UTC'
p1270
sg6
S'Golden State Warriors - PlayerWatch'
p1271
sa(dp1272
g2
S'http://www.reuters.com/article/bkn-nuggets-playerwatch-idUSMTZEBB7FPBCL220151107'
p1273
sg4
S'20151108\xc2\xa01:40AM UTC'
p1274
sg6
S'Denver Nuggets - PlayerWatch'
p1275
sa(dp1276
g2
S'http://www.reuters.com/article/china-internet-counterfeits-idUSL3N13205G20151107'
p1277
sg4
S'20151108\xc2\xa01:34AM UTC'
p1278
sg6
S'China to go after online retail sales in fight against fakes'
p1279
sa(dp1280
g2
S'http://www.reuters.com/article/nissan-airbag-takata-idUSL3N13205820151107'
p1281
sg4
S'20151108\xc2\xa01:32AM UTC'
p1282
sg6
S'Nissan joins automakers dropping Takata air bag inflators'
p1283
sa(dp1284
g2
S'http://www.reuters.com/article/bkn-rockets-kings-writethru-idUSMTZEBB7FOCBKO20151107'
p1285
sg4
S'20151108\xc2\xa01:29AM UTC'
p1286
sg6
S"Harden's 43 lead Rockets over Kings"
p1287
sa(dp1288
g2
S'http://www.reuters.com/article/toshiba-results-idUSL3N13201H20151107'
p1289
sg4
S'20151108\xc2\xa01:28AM UTC'
p1290
sg6
S'Toshiba swings to operating loss, sues former CEOs over accounting scandal'
p1291
sa(dp1292
g2
S'http://www.reuters.com/article/hkn-bluejackets-ducks-writethru-idUSMTZEBB7FMYDJH20151107'
p1293
sg4
S'20151108\xc2\xa012:59AM UTC'
p1294
sg6
S'Perry, Getzlaf lead Ducks over Blue Jackets'
p1295
sa(dp1296
g2
S'http://www.reuters.com/article/hkn-blues-playerwatch-idUSMTZEBB7FN7JK820151107'
p1297
sg4
S'20151108\xc2\xa012:54AM UTC'
p1298
sg6
S'St. Louis Blues - PlayerWatch'
p1299
sa(dp1300
g2
S'http://www.reuters.com/article/hkn-bluejackets-playerwatch-idUSMTZEBB7FN7JK620151107'
p1301
sg4
S'20151108\xc2\xa012:54AM UTC'
p1302
sg6
S'Columbus Blue Jackets - PlayerWatch'
p1303
sa(dp1304
g2
S'http://www.reuters.com/article/hkn-ducks-playerwatch-idUSMTZEBB7FN7JKB20151107'
p1305
sg4
S'20151108\xc2\xa012:54AM UTC'
p1306
sg6
S'Anaheim Ducks - PlayerWatch'
p1307
sa(dp1308
g2
S'http://www.reuters.com/article/hkn-capitals-playerwatch-idUSMTZEBB7FN7IK420151107'
p1309
sg4
S'20151108\xc2\xa012:54AM UTC'
p1310
sg6
S'Washington Capitals - PlayerWatch'
p1311
sa(dp1312
g2
S'http://www.reuters.com/article/hkn-lightning-playerwatch-idUSMTZEBB7FN7IK320151107'
p1313
sg4
S'20151108\xc2\xa012:54AM UTC'
p1314
sg6
S'Tampa Bay Lightning - PlayerWatch'
p1315
sa(dp1316
g2
S'http://www.reuters.com/article/bkn-pistons-suns-writethru-idUSMTZEBB7FM30IR20151107'
p1317
sg4
S'20151108\xc2\xa012:50AM UTC'
p1318
sg6
S'Marcus Morris takes frustration out on Suns'
p1319
sa(dp1320
g2
S'http://www.reuters.com/article/us-nhl-redwings-idUSKCN0SW05K20151107'
p1321
sg4
S'20151108\xc2\xa012:39AM UTC'
p1322
sg6
S"Red Wings sweep aside Babcock's Leafs in overtime"
p1323
sa(dp1324
g2
S'http://www.reuters.com/article/china-gold-reserves-idUSL3N13205320151107'
p1325
sg4
S'20151108\xc2\xa012:35AM UTC'
p1326
sg6
S"China's gold reserves likely rose by 14 tonnes in October"
p1327
sa(dp1328
g2
S'http://www.reuters.com/article/us-southchinasea-china-idUSKCN0SW03W20151107'
p1329
sg4
S'20151108\xc2\xa012:28AM UTC'
p1330
sg6
S"China's Xi says wants South China Sea issue resolved peacefully"
p1331
sa(dp1332
g2
S'http://www.reuters.com/article/bkn-bucks-knicks-writethru-idUSMTZEBB7FDEJ6L20151107'
p1333
sg4
S'20151108\xc2\xa012:20AM UTC'
p1334
sg6
S'Bucks run winning streak to three'
p1335
sa(dp1336
g2
S'http://www.reuters.com/article/idUSnCCN2tS1zQ+1c9+MKW20151107'
p1337
sg4
S'20151108\xc2\xa012:17AM UTC'
p1338
sg6
S'Food Recall Warning (Allergen): Mannarich Food, Ocean Chinese Food Products and Parker Lee brand Fish and Seafood Products Recalled Due to Undeclared Eggs'
p1339
sa(dp1340
g2
S'http://www.reuters.com/article/census-daily-feature-idUSnPn6fvG40+84+PRN20151107'
p1341
sg4
S'20151108\xc2\xa012:01AM UTC'
p1342
sg6
S'U.S. Census Bureau Daily Feature for November 7: First College for Women'
p1343
sa(dp1344
g2
S'http://www.reuters.com/news/video/videoStory?storyID=113377283'
p1345
sg4
S'20151108\xc2\xa010:47PM UTC'
p1346
sg6
S'Aung San Suu Kyi votes in Myanmar election'
p1347
sa(dp1348
g2
S'http://www.reuters.com/news/video/videoStory?storyID=113377287'
p1349
sg4
S'20151108\xc2\xa010:47PM UTC'
p1350
sg6
S'Polls open in Myanmar'
p1351
sa(dp1352
g2
S'http://www.reuters.com/news/video/videoStory?storyID=113376912'
p1353
sg4
S'20151108\xc2\xa08:21PM UTC'
p1354
sg6
S'Clinton seeks looser marijuana rules to spur research'
p1355
sa(dp1356
g2
S'http://www.reuters.com/news/video/videoStory?storyID=113375584'
p1357
sg4
S'20151108\xc2\xa06:52PM UTC'
p1358
sg6
S'UAE troops return from Yemen'
p1359
sa(dp1360
g2
S'http://www.reuters.com/news/video/videoStory?storyID=113375316'
p1361
sg4
S'20151108\xc2\xa06:12PM UTC'
p1362
sg6
S'Carter: US to to continue operations in the South China Sea'
p1363
sa(dp1364
g2
S'http://www.reuters.com/news/video/videoStory?storyID=113374905'
p1365
sg4
S'20151108\xc2\xa05:41PM UTC'
p1366
sg6
S'Owners of iconic East German car rally in U.S.'
p1367
sa(dp1368
g2
S'http://www.reuters.com/news/video/videoStory?storyID=113374724'
p1369
sg4
S'20151108\xc2\xa05:14PM UTC'
p1370
sg6
S"The battle for control of Yemen's Taiz"
p1371
sa(dp1372
g2
S'http://www.reuters.com/news/video/videoStory?storyID=113374527'
p1373
sg4
S'20151108\xc2\xa04:32PM UTC'
p1374
sg6
S'Families of missing mine disaster victims losing hope'
p1375
sa(dp1376
g2
S'http://www.reuters.com/news/video/videoStory?storyID=113374275'
p1377
sg4
S'20151108\xc2\xa03:33PM UTC'
p1378
sg6
S'Strike at Lufthansa'
p1379
sa(dp1380
g2
S'http://www.reuters.com/news/video/videoStory?storyID=113373412'
p1381
sg4
S'20151108\xc2\xa01:12PM UTC'
p1382
sg6
S"Flight recorder reveals noise in plane's final seconds, Egypt says"
p1383
sa(dp1384
g2
S'http://www.reuters.com/news/video/videoStory?storyID=113373358'
p1385
sg4
S'20151108\xc2\xa012:56PM UTC'
p1386
sg6
S'Migrants arrive in Portugal'
p1387
sa(dp1388
g2
S'http://www.reuters.com/news/video/videoStory?storyID=113373197'
p1389
sg4
S'20151108\xc2\xa012:45PM UTC'
p1390
sg6
S'Two police officers arrested in shooting of 6-year-old and his father'
p1391
sa(dp1392
g2
S'http://www.reuters.com/news/video/videoStory?storyID=113372648'
p1393
sg4
S'20151108\xc2\xa011:01AM UTC'
p1394
sg6
S'Egypt crash committee says noise heard in flight recording'
p1395
sa(dp1396
g2
S'http://www.reuters.com/news/video/videoStory?storyID=113372451'
p1397
sg4
S'20151108\xc2\xa010:23AM UTC'
p1398
sg6
S'Mormon church rules same-sex couples apostates'
p1399
sa(dp1400
g2
S'http://www.reuters.com/news/video/videoStory?storyID=113372010'
p1401
sg4
S'20151108\xc2\xa09:39AM UTC'
p1402
sg6
S"China's Xi attends orchid naming ceremony in Singapore"
p1403
sa(dp1404
g2
S'http://www.reuters.com/news/video/videoStory?storyID=113371872'
p1405
sg4
S'20151108\xc2\xa09:13AM UTC'
p1406
sg6
S"Motley Crue play last UK concert of 'Final Tour'"
p1407
sa(dp1408
g2
S'http://www.reuters.com/news/video/videoStory?storyID=113371502'
p1409
sg4
S'20151108\xc2\xa08:53AM UTC'
p1410
sg6
S'Taiwanese protest historic meeting while Chinese support "friendly" ties'
p1411
sa(dp1412
g2
S'http://www.reuters.com/news/video/videoStory?storyID=113370884'
p1413
sg4
S'20151108\xc2\xa06:06AM UTC'
p1414
sg6
S'Leaders from Taiwan, China hold historic meeting'
p1415
sa(dp1416
g2
S'http://www.reuters.com/news/video/videoStory?storyID=113370734'
p1417
sg4
S'20151108\xc2\xa05:50AM UTC'
p1418
sg6
S'Charles and Camilla visit New Zealand'
p1419
sa(dp1420
g2
S'http://www.reuters.com/news/video/videoStory?storyID=113369713'
p1421
sg4
S'20151108\xc2\xa03:25AM UTC'
p1422
sg6
S'GOP presidential candidate Ben Carson criticises media'
p1423
sa(dp1424
g2
S'http://www.reuters.com/news/video/videoStory?storyID=113369620'
p1425
sg4
S'20151108\xc2\xa03:09AM UTC'
p1426
sg6
S'Russians try to return home from Egypt'
p1427
sa(dp1428
g2
S'http://www.reuters.com/news/video/videoStory?storyID=113369244'
p1429
sg4
S'20151108\xc2\xa02:17AM UTC'
p1430
sg6
S'California drought threatens habitat of migratory birds'
p1431
sa(dp1432
g2
S'http://www.reuters.com/news/video/videoStory?storyID=113368525'
p1433
sg4
S'20151108\xc2\xa012:05AM UTC'
p1434
sg6
S"Gamers get first look at 'Warcraft' movie trailer"
p1435
sa.