(lp0
(dp1
S'href'
p2
S'http://www.reuters.com/article/space-jupiter-orbit-idUSL1N19Q02G'
p3
sS'ts'
p4
S'20160705\xc2\xa011:59PM UTC'
p5
sS'title'
p6
S'Juno spacecraft loops into orbit around Jupiter - NASA'
p7
sa(dp8
g2
S'http://www.reuters.com/article/newzealand-economy-forex-idUSL4N19Q446'
p9
sg4
S'20160705\xc2\xa011:56PM UTC'
p10
sg6
S'Kiwi flies as high rates lure investors in jittery world currency markets'
p11
sa(dp12
g2
S'http://www.reuters.com/article/idUSL4N19R1MX'
p13
sg4
S'20160705\xc2\xa011:51PM UTC'
p14
sg6
S'BRIEF-Jiangnan Mould & Plastic Technology unit to buy MH Industries for $1'
p15
sa(dp16
g2
S'http://www.reuters.com/article/idUSL4N19R1M4'
p17
sg4
S'20160705\xc2\xa011:41PM UTC'
p18
sg6
S'BRIEF-Tsingtao Brewery to pay 2015 div on July 12'
p19
sa(dp20
g2
S'http://www.reuters.com/article/idUSL4N19R1M1'
p21
sg4
S'20160705\xc2\xa011:39PM UTC'
p22
sg6
S'BRIEF-Beijing Hualian Hypermarket to pay 2015 div on July 12'
p23
sa(dp24
g2
S'http://www.reuters.com/article/us-property-usa-office-idUSKCN0ZL08I'
p25
sg4
S'20160705\xc2\xa011:35PM UTC'
p26
sg6
S'U.S. office vacancy rate falls to seven-year low'
p27
sa(dp28
g2
S'http://www.reuters.com/article/idUSL4N19R1LG'
p29
sg4
S'20160705\xc2\xa011:32PM UTC'
p30
sg6
S'BRIEF-Shenzhen SDG Information to pay 2015 dividend on July 11'
p31
sa(dp32
g2
S'http://www.reuters.com/article/idUSL4N19R1LC'
p33
sg4
S'20160705\xc2\xa011:31PM UTC'
p34
sg6
S'BRIEF-Beih-Property to pay 2015 div on July 12'
p35
sa(dp36
g2
S'http://www.reuters.com/article/property-usa-office-idUSL4N19N3C8'
p37
sg4
S'20160705\xc2\xa011:31PM UTC'
p38
sg6
S'U.S. office vacancy rate falls to 7-year low'
p39
sa(dp40
g2
S'http://www.reuters.com/article/idUSL4N19R1L0'
p41
sg4
S'20160705\xc2\xa011:29PM UTC'
p42
sg6
S'BRIEF-Kunming Sinobright (Group) to pay 2015 dividend on July 13'
p43
sa(dp44
g2
S'http://www.reuters.com/article/india-cenbank-reverserepo-idUSB8N19D00Y'
p45
sg4
S'20160705\xc2\xa011:29PM UTC'
p46
sg6
S'TABLE-India cenbank says reverse repo bids fall to 185.36 bln rupees'
p47
sa(dp48
g2
S'http://www.reuters.com/article/idUSL4N19R1KR'
p49
sg4
S'20160705\xc2\xa011:26PM UTC'
p50
sg6
S'BRIEF-Ourpalm to pay 2015 dividend on July 11'
p51
sa(dp52
g2
S'http://www.reuters.com/article/idUSL4N19R1KN'
p53
sg4
S'20160705\xc2\xa011:25PM UTC'
p54
sg6
S'BRIEF-Tibet Galaxy Science and Technology Development expects 2016 H1 net profit to fall'
p55
sa(dp56
g2
S'http://www.reuters.com/article/idUSL4N19R1KE'
p57
sg4
S'20160705\xc2\xa011:22PM UTC'
p58
sg6
S'BRIEF-Shenzhen Capstone Industrial expects to post profit in 2016 H1'
p59
sa(dp60
g2
S'http://www.reuters.com/article/idUSL4N19R1KB'
p61
sg4
S'20160705\xc2\xa011:21PM UTC'
p62
sg6
S'BRIEF-Beijing Ultrapower Software to pay 2015 div on July 11'
p63
sa(dp64
g2
S'http://www.reuters.com/article/india-morningcall-idUSL4N19R1HQ'
p65
sg4
S'20160705\xc2\xa011:20PM UTC'
p66
sg6
S'Morning News Call - India, July 5'
p67
sa(dp68
g2
S'http://www.reuters.com/article/bbo-royals-bluejays-writethru-idUSMTZEC75TJ5XAZ'
p69
sg4
S'20160705\xc2\xa011:16PM UTC'
p70
sg6
S'Sanchez, Blue Jays top Royals in ALCS rematch'
p71
sa(dp72
g2
S'http://www.reuters.com/article/idUSL4N19R1JM'
p73
sg4
S'20160705\xc2\xa011:16PM UTC'
p74
sg6
S'BRIEF-China Merchants Bank to pay 2015 div on July 13'
p75
sa(dp76
g2
S'http://www.reuters.com/article/idUSWNBS02NM1'
p77
sg4
S'20160705\xc2\xa011:08PM UTC'
p78
sg6
S'BRIEF-Dhanlaxmi Bank says board approves issue of equity shares upto 2 bln rupees'
p79
sa(dp80
g2
S'http://www.reuters.com/article/idUSWNBS02NM0'
p81
sg4
S'20160705\xc2\xa011:07PM UTC'
p82
sg6
S'BRIEF-Kwality says CFO Shangle has resigned'
p83
sa(dp84
g2
S'http://www.reuters.com/article/idUSL4N19R1I9'
p85
sg4
S'20160705\xc2\xa011:06PM UTC'
p86
sg6
S'BRIEF-China Greatwall Computer Shenzhen revises share exchange ratio to merge Greatwall Information Industry'
p87
sa(dp88
g2
S'http://www.reuters.com/article/credit-suisse-gp-moves-idUSL4N19R1ER'
p89
sg4
S'20160705\xc2\xa011:02PM UTC'
p90
sg6
S'Credit Suisse names Naqvi head of fixed-income, equities biz in Asia Pacific'
p91
sa(dp92
g2
S'http://www.reuters.com/article/global-forex-idUSL4N19R1F8'
p93
sg4
S'20160705\xc2\xa011:01PM UTC'
p94
sg6
S'FOREX-Yen firms, Australian dollar slips ahead of RBA'
p95
sa(dp96
g2
S'http://www.reuters.com/article/idUSL4N19R1GG'
p97
sg4
S'20160705\xc2\xa010:57PM UTC'
p98
sg6
S'BRIEF-Zhejiang Bangjie Digital Knitting Share sets up BANGJIE MEDICAL(HONG KONG) CO., LIMITED'
p99
sa(dp100
g2
S'http://www.reuters.com/article/australia-stocks-midday-idUSL4N19R0CM'
p101
sg4
S'20160705\xc2\xa010:53PM UTC'
p102
sg6
S'NZ stocks rise on confidence, Australian shares fall on  uncertainty'
p103
sa(dp104
g2
S'http://www.reuters.com/article/idUSL4N19R1FX'
p105
sg4
S'20160705\xc2\xa010:53PM UTC'
p106
sg6
S'BRIEF-JiangSu Bicon Pharmaceutical Listed unit sets up tech sub-unit'
p107
sa(dp108
g2
S'http://www.reuters.com/article/australia-economy-vehicleregistrations-idUSL4N19R1CP'
p109
sg4
S'20160705\xc2\xa010:52PM UTC'
p110
sg6
S'Australia new vehicle sales climb to record in June-VFACTS'
p111
sa(dp112
g2
S'http://www.reuters.com/article/idUSL4N19R1FB'
p113
sg4
S'20160705\xc2\xa010:48PM UTC'
p114
sg6
S'BRIEF-Lander Sports Development to provide 300 mln yuan loan guarantee for unit'
p115
sa(dp116
g2
S'http://www.reuters.com/article/idUSL4N19R1F4'
p117
sg4
S'20160705\xc2\xa010:45PM UTC'
p118
sg6
S'BRIEF-Bank of Ningbo to pay 2015 dividend on July 12'
p119
sa(dp120
g2
S'http://www.reuters.com/article/idUSL4N19R1F2'
p121
sg4
S'20160705\xc2\xa010:45PM UTC'
p122
sg6
S'BRIEF-Agricultural Bank Of China appoints Zhou Mubing as chairman'
p123
sa(dp124
g2
S'http://www.reuters.com/article/idUSL4N19R1EN'
p125
sg4
S'20160705\xc2\xa010:42PM UTC'
p126
sg6
S'BRIEF-Beijing Jingxi Culture&Tourism; to dissolve Beijing-based units'
p127
sa(dp128
g2
S'http://www.reuters.com/article/idUSL4N19R1EL'
p129
sg4
S'20160705\xc2\xa010:41PM UTC'
p130
sg6
S'BRIEF-Bank of Beijing to pay 2015 dividend on July 11'
p131
sa(dp132
g2
S'http://www.reuters.com/article/idUSL4N19R1EH'
p133
sg4
S'20160705\xc2\xa010:40PM UTC'
p134
sg6
S'BRIEF-China Fortune Land Development signs cooperation agreement with partners'
p135
sa(dp136
g2
S'http://www.reuters.com/article/idUSL4N19R1DQ'
p137
sg4
S'20160705\xc2\xa010:34PM UTC'
p138
sg6
S'BRIEF-Beijing Honggao Creative Construciton Design to pay 2015 dividend on July 12'
p139
sa(dp140
g2
S'http://www.reuters.com/article/japan-stocks-midday-idUSL4N19R1BH'
p141
sg4
S'20160705\xc2\xa010:34PM UTC'
p142
sg6
S'Nikkei snaps 6-day winning streak on strong yen; banks underperform'
p143
sa(dp144
g2
S'http://www.reuters.com/article/usa-independenceday-security-idUSL1N19Q0EC'
p145
sg4
S'20160705\xc2\xa010:34PM UTC'
p146
sg6
S'UPDATE 4-Red, white and extra blue as tight security marks U.S. July 4th celebrations'
p147
sa(dp148
g2
S'http://www.reuters.com/article/australia-economy-retail-idUSL4N19Q3ZG'
p149
sg4
S'20160705\xc2\xa010:26PM UTC'
p150
sg6
S'Australia retailers battle deflation, RBA in reserve'
p151
sa(dp152
g2
S'http://www.reuters.com/article/us-china-corruption-idUSKCN0ZL04H'
p153
sg4
S'20160705\xc2\xa010:24PM UTC'
p154
sg6
S'Watch your families, China party says after latest graft case'
p155
sa(dp156
g2
S'http://www.reuters.com/article/samsung-elec-outlook-idUSL4N19F1EH'
p157
sg4
S'20160705\xc2\xa010:24PM UTC'
p158
sg6
S'Samsung Electronics set for best quarter in over 2 years on Q2 smartphone boost'
p159
sa(dp160
g2
S'http://www.reuters.com/article/idUSL4N19R1BQ'
p161
sg4
S'20160705\xc2\xa010:24PM UTC'
p162
sg6
S'BRIEF-Beijing Xinwei Telecom Technology Group to change co name'
p163
sa(dp164
g2
S'http://www.reuters.com/article/idUSL4N19R1BD'
p165
sg4
S'20160705\xc2\xa010:19PM UTC'
p166
sg6
S'BRIEF-Brother Enterprises Holding to pay 2015 dividend on July 11'
p167
sa(dp168
g2
S'http://www.reuters.com/article/us-japan-economy-pmi-services-idUSKCN0ZL02T'
p169
sg4
S'20160705\xc2\xa010:16PM UTC'
p170
sg6
S'Japan June services sector activity contracts as new business shrinks: PMI'
p171
sa(dp172
g2
S'http://www.reuters.com/article/idUSL4N19R1AJ'
p173
sg4
S'20160705\xc2\xa010:11PM UTC'
p174
sg6
S'BRIEF-FAWER Automotive Parts appoints Gan Xianguo as general manager'
p175
sa(dp176
g2
S'http://www.reuters.com/article/idUSL4N19R1A9'
p177
sg4
S'20160705\xc2\xa010:09PM UTC'
p178
sg6
S'BRIEF-Hiromi Miyazaki cuts stake in Serak to 8.9 pct from 12.2 pct'
p179
sa(dp180
g2
S'http://www.reuters.com/article/southkorea-markets-midday-idUSL4N19R177'
p181
sg4
S'20160705\xc2\xa010:09PM UTC'
p182
sg6
S'S.Korea stocks retreat after 6-day rally, won inches down'
p183
sa(dp184
g2
S'http://www.reuters.com/article/idUSL4N19R1A5'
p185
sg4
S'20160705\xc2\xa010:08PM UTC'
p186
sg6
S'BRIEF-ShenZhen Tellus Holding to set up jewelry investment jv'
p187
sa(dp188
g2
S'http://www.reuters.com/article/us-usa-election-trump-ernst-idUSKCN0ZL02I'
p189
sg4
S'20160705\xc2\xa010:04PM UTC'
p190
sg6
S'Trump meets Senator Ernst amid vice presidential speculation'
p191
sa(dp192
g2
S'http://www.reuters.com/article/idUSL4N19R19F'
p193
sg4
S'20160705\xc2\xa010:03PM UTC'
p194
sg6
S'BRIEF-Steyr Motors to invest 90 mln yuan to set up fund with partners'
p195
sa(dp196
g2
S'http://www.reuters.com/article/bbo-marlins-mets-writethru-idUSMTZEC75TEYB9Q'
p197
sg4
S'20160705\xc2\xa09:59PM UTC'
p198
sg6
S'Mets overcome shaky Harvey start to top Marlins'
p199
sa(dp200
g2
S'http://www.reuters.com/article/idUSL4N19R18P'
p201
sg4
S'20160705\xc2\xa09:56PM UTC'
p202
sg6
S'BRIEF-Yintai Resources to buy Shanghai-based mining investment firm'
p203
sa(dp204
g2
S'http://www.reuters.com/article/idUSL4N19R17X'
p205
sg4
S'20160705\xc2\xa09:52PM UTC'
p206
sg6
S'BRIEF-Fujian Cosunter Pharmaceutical says shareholding structure changes'
p207
sa(dp208
g2
S'http://www.reuters.com/article/idUSL4N19R17G'
p209
sg4
S'20160705\xc2\xa09:48PM UTC'
p210
sg6
S'BRIEF-Suzhou TFC Optical Communication appoints Cao Hui as CFO'
p211
sa(dp212
g2
S'http://www.reuters.com/article/idUSL4N19R172'
p213
sg4
S'20160705\xc2\xa09:46PM UTC'
p214
sg6
S'BRIEF-Sichuan Jiuzhou Electric units wins bid of China Telecom worth 41 mln yuan'
p215
sa(dp216
g2
S'http://www.reuters.com/article/philippines-economy-cenbank-idUSP9N18L022'
p217
sg4
S'20160705\xc2\xa09:32PM UTC'
p218
sg6
S'Philippine c.bank sees no need to change policy stance for now'
p219
sa(dp220
g2
S'http://www.reuters.com/article/us-china-economics-policy-idUSKCN0ZL020'
p221
sg4
S'20160705\xc2\xa09:27PM UTC'
p222
sg6
S'China has more room to fine tune monetary policy in second half: state media'
p223
sa(dp224
g2
S'http://www.reuters.com/article/taiwan-interbank-urgent-idUST8N19M015'
p225
sg4
S'20160705\xc2\xa09:24PM UTC'
p226
sg6
S'Taiwan overnight interbank rate opens fractionally lower'
p227
sa(dp228
g2
S'http://www.reuters.com/article/global-precious-idUSL4N19R0BR'
p229
sg4
S'20160705\xc2\xa09:22PM UTC'
p230
sg6
S'PRECIOUS-Gold holds near 2-yr highs on easing dollar, weaker equities'
p231
sa(dp232
g2
S'http://www.reuters.com/article/us-new-york-muslims-attack-idUSKCN0ZL01K'
p233
sg4
S'20160705\xc2\xa09:11PM UTC'
p234
sg6
S'Two Muslim teens beaten outside New York mosque: rights group'
p235
sa(dp236
g2
S'http://www.reuters.com/article/southkorea-economy-services-idUSL4N19R057'
p237
sg4
S'20160705\xc2\xa09:00PM UTC'
p238
sg6
S'S.Korea aims for bigger services industry contribution to GDP by 2020'
p239
sa(dp240
g2
S'http://www.reuters.com/article/idUSL4N19R06V'
p241
sg4
S'20160705\xc2\xa08:48PM UTC'
p242
sg6
S'BRIEF-Suntory Beverage & Food to buy two soft drink brands from GlaxoSmithKline Consumer Nigeria PLC for 7 bln yen'
p243
sa(dp244
g2
S'http://www.reuters.com/article/bbo-rockies-giants-recap-idUSMTZEC75TCTN98'
p245
sg4
S'20160705\xc2\xa08:46PM UTC'
p246
sg6
S'Peavy, Posey, Pagan power Giants past Rockies'
p247
sa(dp248
g2
S'http://www.reuters.com/article/global-oil-idUSL4N19R04P'
p249
sg4
S'20160705\xc2\xa08:40PM UTC'
p250
sg6
S'Oil prices dip on economic concerns, demand worries'
p251
sa(dp252
g2
S'http://www.reuters.com/article/us-afghanistan-military-idUSKCN0ZK15C'
p253
sg4
S'20160705\xc2\xa08:32PM UTC'
p254
sg6
S'U.S. senators warn against further troop cuts in Afghanistan'
p255
sa(dp256
g2
S'http://www.reuters.com/article/britain-press-business-idUSL1N19R00J'
p257
sg4
S'20160705\xc2\xa08:29PM UTC'
p258
sg6
S'PRESS DIGEST- British Business - July 5'
p259
sa(dp260
g2
S'http://www.reuters.com/article/britain-press-ft-idUSL4N19R022'
p261
sg4
S'20160705\xc2\xa08:25PM UTC'
p262
sg6
S'PRESS DIGEST- Financial Times - July 5'
p263
sa(dp264
g2
S'http://www.reuters.com/article/bbo-reds-cubs-writethru-idUSMTZEC74T8DOKT'
p265
sg4
S'20160705\xc2\xa08:22PM UTC'
p266
sg6
S'Cubs leave no doubt in snapping four-game losing streak'
p267
sa(dp268
g2
S'http://www.reuters.com/article/us-peru-politics-idUSKCN0ZL00B'
p269
sg4
S'20160705\xc2\xa08:19PM UTC'
p270
sg6
S"Kuczynski's key reforms in Peru could get snagged in Congress"
p271
sa(dp272
g2
S'http://www.reuters.com/article/global-forex-idUSL4N19R01D'
p273
sg4
S'20160705\xc2\xa08:19PM UTC'
p274
sg6
S'FOREX-Australian dollar inches down as RBA awaited'
p275
sa(dp276
g2
S'http://www.reuters.com/article/peru-politics-idUSL1N19Q0XP'
p277
sg4
S'20160705\xc2\xa08:13PM UTC'
p278
sg6
S"Kuczynski's key reforms in Peru could get snagged in Congress"
p279
sa(dp280
g2
S'http://www.reuters.com/article/us-olympics-rio-condoms-idUSKCN0ZK21E'
p281
sg4
S'20160705\xc2\xa08:12PM UTC'
p282
sg6
S'Free at Rio Olympics: 9 million forest-friendly condoms'
p283
sa(dp284
g2
S'http://www.reuters.com/article/us-myanmar-rights-housemaids-idUSKCN0ZL005'
p285
sg4
S'20160705\xc2\xa08:08PM UTC'
p286
sg6
S"Isolated and lacking labor rights, Myanmar's housemaids toil in silence"
p287
sa(dp288
g2
S'http://www.reuters.com/article/bbo-pirates-cardinals-writethru-idUSMTZEC75TCHW97'
p289
sg4
S'20160705\xc2\xa08:01PM UTC'
p290
sg6
S'Polanco powers Pirates past Cardinals'
p291
sa(dp292
g2
S'http://www.reuters.com/article/diary-emrg-econ-idUSL4N19Q3NN'
p293
sg4
S'20160705\xc2\xa08:01PM UTC'
p294
sg6
S'DIARY-Emerging Markets Economic Events to July 14'
p295
sa(dp296
g2
S'http://www.reuters.com/article/diary-top-econ-idUSL4N19Q3NJ'
p297
sg4
S'20160705\xc2\xa08:01PM UTC'
p298
sg6
S'DIARY-Top Economic Events to July 15'
p299
sa(dp300
g2
S'http://www.reuters.com/article/usa-gasoline-kemp-idUSL8N19Q1KX'
p301
sg4
S'20160705\xc2\xa08:00PM UTC'
p302
sg6
S'RPT-COLUMN-Hedge funds to U.S. refiners: produce more diesel, less gasoline: Kemp'
p303
sa(dp304
g2
S'http://www.reuters.com/article/us-mideast-crisis-iraq-airport-idUSKCN0ZK1WP'
p305
sg4
S'20160705\xc2\xa07:46PM UTC'
p306
sg6
S'Iranian dissidents say Baghdad camp shelled, more than 40 hurt'
p307
sa(dp308
g2
S'http://www.reuters.com/article/bbo-braves-phillies-writethru-idUSMTZEC75TBWK8X'
p309
sg4
S'20160705\xc2\xa07:42PM UTC'
p310
sg6
S'Phillies score early to breeze past Braves'
p311
sa(dp312
g2
S'http://www.reuters.com/article/us-tennis-wimbledon-murray-idUSKCN0ZK1WN'
p313
sg4
S'20160705\xc2\xa07:41PM UTC'
p314
sg6
S'Slick Murray downs Kyrgios as title expectations grow'
p315
sa(dp316
g2
S'http://www.reuters.com/article/us-tennis-wimbledon-kyrgios-idUSKCN0ZK25Z'
p317
sg4
S'20160705\xc2\xa07:40PM UTC'
p318
sg6
S"'Pretty pathetic' Kyrgios slumps out with barely a whimper"
p319
sa(dp320
g2
S'http://www.reuters.com/article/mideast-crisis-iraq-airport-idUSL8N19Q3V1'
p321
sg4
S'20160705\xc2\xa07:38PM UTC'
p322
sg6
S'UPDATE 2-Iranian dissidents say Baghdad camp shelled, more than 40 hurt'
p323
sa(dp324
g2
S'http://www.reuters.com/article/us-india-education-bond-idUSKCN0ZK25X'
p325
sg4
S'20160705\xc2\xa07:29PM UTC'
p326
sg6
S"India 'development bond' helps get girls into school, charity says"
p327
sa(dp328
g2
S'http://www.reuters.com/article/us-asia-economy-cenbank-idUSKCN0ZK25O'
p329
sg4
S'20160705\xc2\xa07:21PM UTC'
p330
sg6
S'Brexit mess boosts prospects of Asia central bank easings'
p331
sa(dp332
g2
S'http://www.reuters.com/article/idUSFWN19O01V'
p333
sg4
S'20160705\xc2\xa07:19PM UTC'
p334
sg6
S'BRIEF-Cerro Grande Mining says Pimenton mine remains closed due to severe snow storm on second, third and fourth of June'
p335
sa(dp336
g2
S'http://www.reuters.com/article/us-britain-confidence-idUSKCN0ZK25M'
p337
sg4
S'20160705\xc2\xa07:18PM UTC'
p338
sg6
S'Pessimism among UK businesses almost doubles after EU vote: survey'
p339
sa(dp340
g2
S'http://www.reuters.com/article/bbo-rangers-redsox-writethru-idUSMTZEC74T85CKS'
p341
sg4
S'20160705\xc2\xa07:16PM UTC'
p342
sg6
S'Red Sox erupt for season-high 21 hits in rout of Rangers'
p343
sa(dp344
g2
S'http://www.reuters.com/article/us-afghanistan-military-vehicles-idUSKCN0ZK25I'
p345
sg4
S'20160705\xc2\xa07:12PM UTC'
p346
sg6
S'U.S. ditched plan to give Afghan forces more armored vehicles'
p347
sa(dp348
g2
S'http://www.reuters.com/article/uk-afghanistan-military-vehicles-idUSKCN0ZK25C'
p349
sg4
S'20160705\xc2\xa07:06PM UTC'
p350
sg6
S'U.S. ditched plan to give Afghan forces more armoured vehicles'
p351
sa(dp352
g2
S'http://www.reuters.com/article/britain-gas-imports-idUSL8N19Q36D'
p353
sg4
S'20160705\xc2\xa07:01PM UTC'
p354
sg6
S'Britain could import 93 pct of its gas by 2040 - National Grid'
p355
sa(dp356
g2
S'http://www.reuters.com/article/yougov-cebr-survey-shows-49-pct-of-uk-bu-idUSL8N19Q34H'
p357
sg4
S'20160705\xc2\xa07:01PM UTC'
p358
sg6
S'YOUGOV/CEBR SURVEY SHOWS 49 PCT OF UK BUSINESSES PESSIMISTIC ON ECONOMIC OUTLOOK AFTER BREXIT VOTE RESULT VS 25 PCT BEFORE'
p359
sa(dp360
g2
S'http://www.reuters.com/article/india-education-bond-idUSL8N19L31A'
p361
sg4
S'20160705\xc2\xa07:01PM UTC'
p362
sg6
S'India "development bond" helps get girls into school, charity says'
p363
sa(dp364
g2
S'http://www.reuters.com/article/temasek-results-idUSL4N19Q31U'
p365
sg4
S'20160705\xc2\xa07:00PM UTC'
p366
sg6
S"RPT-Singapore's Temasek eyes U.S. investments to offset first portfolio drop in 7 years"
p367
sa(dp368
g2
S'http://www.reuters.com/article/asia-economy-cenbank-idUSL4N19Q1ZD'
p369
sg4
S'20160705\xc2\xa07:00PM UTC'
p370
sg6
S'Brexit mess boosts prospects of Asia central bank easings'
p371
sa(dp372
g2
S'http://www.reuters.com/article/afghanistan-military-vehicles-idUSL4N19K1Z0'
p373
sg4
S'20160705\xc2\xa07:00PM UTC'
p374
sg6
S'U.S. ditched plan to give Afghan forces more armoured vehicles'
p375
sa(dp376
g2
S'http://www.reuters.com/article/us-britain-eu-may-idUSKCN0ZK254'
p377
sg4
S'20160705\xc2\xa06:44PM UTC'
p378
sg6
S'Candidate for British PM May wants quick vote on Trident'
p379
sa(dp380
g2
S'http://www.reuters.com/article/bbo-yankees-whitesox-writethru-idUSMTZEC74T7OPKC'
p381
sg4
S'20160705\xc2\xa06:41PM UTC'
p382
sg6
S'White Sox flex muscle, blast Yankees'
p383
sa(dp384
g2
S'http://www.reuters.com/article/us-health-obesity-surgery-idUSKCN0ZK1VI'
p385
sg4
S'20160705\xc2\xa06:40PM UTC'
p386
sg6
S'Surgical skill not equal across weight-loss surgeries'
p387
sa(dp388
g2
S'http://www.reuters.com/article/australia-stocks-morning-idUSL4N19Q3XM'
p389
sg4
S'20160705\xc2\xa06:35PM UTC'
p390
sg6
S'NZ shares open higher, Australian shares seen lower'
p391
sa(dp392
g2
S'http://www.reuters.com/article/usa-election-trump-tweet-idUSL1N19Q0LJ'
p393
sg4
S'20160705\xc2\xa06:24PM UTC'
p394
sg6
S"UPDATE 2-Trump defends 'star' tweet; Clinton says it's anti-Semitic"
p395
sa(dp396
g2
S'http://www.reuters.com/article/us-guinea-rio-tinto-idUSKCN0ZK24M'
p397
sg4
S'20160705\xc2\xa06:21PM UTC'
p398
sg6
S'Rio Tinto chief shelves giant Guinea iron ore project: newspaper'
p399
sa(dp400
g2
S'http://www.reuters.com/article/guinea-rio-tinto-idUSL8N19Q429'
p401
sg4
S'20160705\xc2\xa06:18PM UTC'
p402
sg6
S'UPDATE 1-Rio Tinto chief  shelves giant Guinea iron ore project -newspaper'
p403
sa(dp404
g2
S'http://www.reuters.com/article/bbo-athletics-twins-writethru-idUSMTZEC74T71GJT'
p405
sg4
S'20160705\xc2\xa06:16PM UTC'
p406
sg6
S'Dull comes through again as Athletics top Twins'
p407
sa(dp408
g2
S'http://www.reuters.com/article/bbo-mariners-astros-writethru-idUSMTZEC74T67DJ4'
p409
sg4
S'20160705\xc2\xa06:10PM UTC'
p410
sg6
S"McCullers dominates in Astros' win over Mariners"
p411
sa(dp412
g2
S'http://www.reuters.com/article/petrobras-assets-idUSE6N18S01L'
p413
sg4
S'20160705\xc2\xa06:08PM UTC'
p414
sg6
S'Petrobras puts nine shallow water concessions up for sale'
p415
sa(dp416
g2
S'http://www.reuters.com/article/newzealand-economy-confidence-idUSL4N19Q3X9'
p417
sg4
S'20160705\xc2\xa06:06PM UTC'
p418
sg6
S'UPDATE 1-NZ businesses upbeat but low inflation may lead RBNZ to cut -think tank'
p419
sa(dp420
g2
S'http://www.reuters.com/article/us-morocco-autos-idUSKCN0ZK23A'
p421
sg4
S'20160705\xc2\xa06:05PM UTC'
p422
sg6
S'Delphi, Linamar to build new plants in Morocco: minister'
p423
sa(dp424
g2
S'http://www.reuters.com/article/morocco-autos-idUSL8N19Q41H'
p425
sg4
S'20160705\xc2\xa06:02PM UTC'
p426
sg6
S'UPDATE 1-Delphi, Linamar to build new plants in Morocco -minister'
p427
sa(dp428
g2
S'http://www.reuters.com/article/us-africa-israel-uganda-idUSKCN0ZK1DS'
p429
sg4
S'20160705\xc2\xa05:49PM UTC'
p430
sg6
S'On Africa tour, Israeli PM remembers brother killed in Entebbe rescue'
p431
sa(dp432
g2
S'http://www.reuters.com/article/britain-eu-wrapup-idUSL8N19Q1U5'
p433
sg4
S'20160705\xc2\xa05:48PM UTC'
p434
sg6
S'WRAPUP 4-Exit stage right: UKIP leader Farage announces surprise departure'
p435
sa(dp436
g2
S'http://www.reuters.com/article/us-eurozone-greece-tsakalotos-idUSKCN0ZK212'
p437
sg4
S'20160705\xc2\xa05:48PM UTC'
p438
sg6
S'Greek capital controls can be lifted when confidence restored in banking system: finance minister'
p439
sa(dp440
g2
S'http://www.reuters.com/article/us-motor-f1-hamilton-idUSKCN0ZK234'
p441
sg4
S'20160705\xc2\xa05:46PM UTC'
p442
sg6
S'Hamilton praying for real race at Silverstone'
p443
sa(dp444
g2
S'http://www.reuters.com/article/eurozone-greece-tsakalotos-idUSL8N19Q3ZS'
p445
sg4
S'20160705\xc2\xa05:46PM UTC'
p446
sg6
S'UPDATE 1-Greek capital controls can be lifted when confidence restored in banking system -finance minister'
p447
sa(dp448
g2
S'http://www.reuters.com/article/us-motor-f1-verstappen-idUSKCN0ZK23S'
p449
sg4
S'20160705\xc2\xa05:46PM UTC'
p450
sg6
S'Verstappen wins F1 driver award for third time'
p451
sa(dp452
g2
S'http://www.reuters.com/article/nigeria-oil-idUSL8N19Q3QS'
p453
sg4
S'20160705\xc2\xa05:37PM UTC'
p454
sg6
S"UPDATE 3-Nigeria's oil minister replaced as state oil company boss"
p455
sa(dp456
g2
S'http://www.reuters.com/article/us-tennis-wimbledon-pouille-idUSKCN0ZK1YK'
p457
sg4
S'20160705\xc2\xa05:35PM UTC'
p458
sg6
S'Over-achiever Pouille setting his sights higher'
p459
sa(dp460
g2
S'http://www.reuters.com/article/bbo-angels-rays-writethru-idUSMTZEC74T67DJ3'
p461
sg4
S'20160705\xc2\xa05:34PM UTC'
p462
sg6
S'Moore pitches Rays to win over Angels'
p463
sa(dp464
g2
S'http://www.reuters.com/article/us-canada-autos-idUSKCN0ZK1NC'
p465
sg4
S'20160705\xc2\xa05:28PM UTC'
p466
sg6
S"Detroit's Big Three report higher Canadian sales"
p467
sa(dp468
g2
S'http://www.reuters.com/article/morocco-autos-idUSL8N19Q40Q'
p469
sg4
S'20160705\xc2\xa05:27PM UTC'
p470
sg6
S'Delphi, Linamar to build new plants in Morocco-minister'
p471
sa(dp472
g2
S'http://www.reuters.com/article/canada-autos-idUSL1N19Q0L2'
p473
sg4
S'20160705\xc2\xa05:25PM UTC'
p474
sg6
S"UPDATE 3-Detroit's Big Three report higher Canadian sales"
p475
sa(dp476
g2
S'http://www.reuters.com/article/canada-stocks-idUSL1N19Q0O3'
p477
sg4
S'20160705\xc2\xa05:17PM UTC'
p478
sg6
S'CANADA STOCKS-TSX rallies to nearly 4-week high, led by mining stocks'
p479
sa(dp480
g2
S'http://www.reuters.com/article/us-britain-eu-migrants-idUSKCN0ZK0ZP'
p481
sg4
S'20160705\xc2\xa05:14PM UTC'
p482
sg6
S'Future of EU nationals in Britain is for Brexit talks: UK PM spokeswoman'
p483
sa(dp484
g2
S'http://www.reuters.com/article/us-britain-eu-queen-idUSKCN0ZI0KX'
p485
sg4
S'20160705\xc2\xa05:13PM UTC'
p486
sg6
S'Queen, in Scotland after Brexit vote, says staying calm can be hard'
p487
sa(dp488
g2
S'http://www.reuters.com/article/britain-eu-johnson-idUSL8N19Q3YX'
p489
sg4
S'20160705\xc2\xa05:13PM UTC'
p490
sg6
S'UPDATE 1-Ex-London Mayor Johnson backs Leadsom to be next British prime minister'
p491
sa(dp492
g2
S'http://www.reuters.com/article/us-nba-durant-warriors-analysis-idUSKCN0ZK22S'
p493
sg4
S'20160705\xc2\xa05:09PM UTC'
p494
sg6
S"Durant's decision extends Warriors' NBA title window"
p495
sa(dp496
g2
S'http://www.reuters.com/article/idUSASC08W03'
p497
sg4
S'20160705\xc2\xa05:08PM UTC'
p498
sg6
S'BRIEF-Cathedral Energy Services in talks to amend credit facility'
p499
sa(dp500
g2
S'http://www.reuters.com/article/us-brazil-monsanto-microsoft-idUSKCN0ZK22I'
p501
sg4
S'20160705\xc2\xa04:56PM UTC'
p502
sg6
S'Monsanto, Microsoft to invest in agricultural technology in Brazil'
p503
sa(dp504
g2
S'http://www.reuters.com/article/brazil-monsanto-microsoft-idUSL8N19Q3YC'
p505
sg4
S'20160705\xc2\xa04:50PM UTC'
p506
sg6
S'Monsanto, Microsoft to invest in agricultural technology in Brazil'
p507
sa(dp508
g2
S'http://www.reuters.com/article/us-minnesota-eagle-idUSKCN0ZK22A'
p509
sg4
S'20160705\xc2\xa04:45PM UTC'
p510
sg6
S'Sharpshooting U.S. veteran frees trapped bald eagle in Minnesota'
p511
sa(dp512
g2
S'http://www.reuters.com/article/us-global-oil-idUSKCN0ZJ10Z'
p513
sg4
S'20160705\xc2\xa04:37PM UTC'
p514
sg6
S'Oil eases as weak demand tempers bullish Saudi energy minister comments'
p515
sa(dp516
g2
S'http://www.reuters.com/article/idUSASC08VZZ'
p517
sg4
S'20160705\xc2\xa04:37PM UTC'
p518
sg6
S'BRIEF-MCW Energy Group to acquire controlling stake of E&P; co'
p519
sa(dp520
g2
S'http://www.reuters.com/article/canada-forex-idUSL1N19Q0JB'
p521
sg4
S'20160705\xc2\xa04:35PM UTC'
p522
sg6
S'CANADA FX DEBT-C$ strengthens to 10-day high as risk tolerance rises'
p523
sa(dp524
g2
S'http://www.reuters.com/article/idUSFWN19Q0GH'
p525
sg4
S'20160705\xc2\xa04:35PM UTC'
p526
sg6
S'BRIEF-Eastmain Resources appoints William McGuinty as Vice Rresident, Exploration'
p527
sa(dp528
g2
S'http://www.reuters.com/article/global-oil-idUSL4N19Q1N5'
p529
sg4
S'20160705\xc2\xa04:34PM UTC'
p530
sg6
S'UPDATE 7-Oil eases as weak demand tempers bullish Saudi energy minister comments'
p531
sa(dp532
g2
S'http://www.reuters.com/article/us-tennis-wimbledon-serena-idUSKCN0ZK1PO'
p533
sg4
S'20160705\xc2\xa04:25PM UTC'
p534
sg6
S'Serena powers into quarters as roof break turns match'
p535
sa(dp536
g2
S'http://www.reuters.com/article/us-tennis-wimbledon-keys-idUSKCN0ZK21S'
p537
sg4
S'20160705\xc2\xa04:25PM UTC'
p538
sg6
S'Defeated Keys not satisfied, says there is more to come'
p539
sa(dp540
g2
S'http://www.reuters.com/article/mexico-electricity-idUSL1N19Q0PK'
p541
sg4
S'20160705\xc2\xa04:17PM UTC'
p542
sg6
S'Mexican industrial power rates up nearly 3 pct in July'
p543
sa(dp544
g2
S'http://www.reuters.com/article/canada-stocks-close-idUSL1N19Q0T0'
p545
sg4
S'20160705\xc2\xa04:15PM UTC'
p546
sg6
S'CANADA STOCKS-TSX rises to nearly 4-week high, led by mining stocks'
p547
sa(dp548
g2
S'http://www.reuters.com/article/olympics-rio-condoms-idUSL8N19Q34Y'
p549
sg4
S'20160705\xc2\xa04:08PM UTC'
p550
sg6
S'WIDER IMAGE-Free at Rio Olympics: 9 million forest-friendly condoms'
p551
sa(dp552
g2
S'http://www.reuters.com/article/britain-eu-johnson-idUSL8N19Q3YG'
p553
sg4
S'20160705\xc2\xa04:07PM UTC'
p554
sg6
S"Johnson backs Leadsom to be Britain's next Prime Minister"
p555
sa(dp556
g2
S'http://www.reuters.com/article/eurozone-greece-tsakalotos-idUSS8N16N00G'
p557
sg4
S'20160705\xc2\xa04:06PM UTC'
p558
sg6
S'Greek capital controls can be lifted when confidence in banking system is fully restored -FinMin'
p559
sa(dp560
g2
S'http://www.reuters.com/article/france-total-organisation-idUSL8N19Q3Y3'
p561
sg4
S'20160705\xc2\xa04:05PM UTC'
p562
sg6
S"France's Total rehuffles management in renewables drive"
p563
sa(dp564
g2
S'http://www.reuters.com/article/us-britain-eu-corbyn-idUSKCN0ZK1SA'
p565
sg4
S'20160705\xc2\xa04:04PM UTC'
p566
sg6
S'UK Labour MP says ready for leadership challenge; Corbyn clings on'
p567
sa(dp568
g2
S'http://www.reuters.com/article/diary-washington-idUSL1N19N1VO'
p569
sg4
S'20160705\xc2\xa04:00PM UTC'
p570
sg6
S'DIARY - Today in Washington - July 5'
p571
sa(dp572
g2
S'http://www.reuters.com/article/us-emirates-eu-idUSKCN0ZK20G'
p573
sg4
S'20160705\xc2\xa03:57PM UTC'
p574
sg6
S'Emirates chief sees scant benefit from EU-level aviation deals'
p575
sa(dp576
g2
S'http://www.reuters.com/article/us-italy-banks-renzi-draghi-idUSKCN0ZK20C'
p577
sg4
S'20160705\xc2\xa03:53PM UTC'
p578
sg6
S"Draghi could have done more to help Italian banks in 90's, says PM Renzi"
p579
sa(dp580
g2
S'http://www.reuters.com/article/us-tennis-wimbledon-tsonga-idUSKCN0ZK1V6'
p581
sg4
S'20160705\xc2\xa03:51PM UTC'
p582
sg6
S'Tsonga confident he can beat Murray in last eight'
p583
sa(dp584
g2
S'http://www.reuters.com/article/us-tennis-wimbledon-raonic-idUSKCN0ZK1T6'
p585
sg4
S'20160705\xc2\xa03:51PM UTC'
p586
sg6
S'Raonic roars back to topple Goffin in five'
p587
sa(dp588
g2
S'http://www.reuters.com/article/us-tennis-wimbledon-federer-idUSKCN0ZK1EZ'
p589
sg4
S'20160705\xc2\xa03:51PM UTC'
p590
sg6
S'Roger that! Federer stays on track at Wimbledon'
p591
sa(dp592
g2
S'http://www.reuters.com/article/argentina-tax-idUSE6N0YP02R'
p593
sg4
S'20160705\xc2\xa03:51PM UTC'
p594
sg6
S'Argentina says June tax income jumps 24 pct'
p595
sa(dp596
g2
S'http://www.reuters.com/article/us-emirates-usa-arrest-idUSKCN0ZK1ZZ'
p597
sg4
S'20160705\xc2\xa03:49PM UTC'
p598
sg6
S'Charges weighed after Ohio incident triggers Emirati warning on robes'
p599
sa(dp600
g2
S'http://www.reuters.com/article/idUSFWN19O01U'
p601
sg4
S'20160705\xc2\xa03:44PM UTC'
p602
sg6
S'BRIEF-Ci Financial says AUM increased by 0.7 pct year over year and were down 0.9 pct in june'
p603
sa(dp604
g2
S'http://www.reuters.com/article/emirates-eu-idUSL8N19Q38O'
p605
sg4
S'20160705\xc2\xa03:42PM UTC'
p606
sg6
S'INTERVIEW-Emirates chief sees scant benefit from EU-level aviation deals'
p607
sa(dp608
g2
S'http://www.reuters.com/article/us-tennis-wimbledon-djokovic-rivals-idUSKCN0ZK1ZO'
p609
sg4
S'20160705\xc2\xa03:42PM UTC'
p610
sg6
S"Djokovic demise finally gives 'hope to the hopeless'"
p611
sa(dp612
g2
S'http://www.reuters.com/article/emirates-usa-arrest-idUSL1N19Q0PF'
p613
sg4
S'20160705\xc2\xa03:39PM UTC'
p614
sg6
S'Charges weighed after Ohio incident triggers Emirati warning on robes'
p615
sa(dp616
g2
S'http://www.reuters.com/article/italy-banks-renzi-draghi-idUSL8N19Q3WF'
p617
sg4
S'20160705\xc2\xa03:37PM UTC'
p618
sg6
S"Draghi could have done more to help Italian banks in 90's, says PM Renzi"
p619
sa(dp620
g2
S'http://www.reuters.com/article/idUSFWN19Q0GF'
p621
sg4
S'20160705\xc2\xa03:31PM UTC'
p622
sg6
S'BRIEF-Minsud Resources completes restructuring of Brechas Vacas Option Agreement'
p623
sa(dp624
g2
S'http://www.reuters.com/article/us-britain-eu-balkans-summit-idUSKCN0ZK1XO'
p625
sg4
S'20160705\xc2\xa03:20PM UTC'
p626
sg6
S'EU leaders tell Balkan states accession talks to go on despite Brexit'
p627
sa(dp628
g2
S'http://www.reuters.com/article/britain-eu-balkans-summit-idUSL8N19Q3UX'
p629
sg4
S'20160705\xc2\xa03:18PM UTC'
p630
sg6
S'UPDATE 1-EU leaders tell Balkan states accession talks to go on despite Brexit'
p631
sa(dp632
g2
S'http://www.reuters.com/article/us-canada-economy-pmi-idUSKCN0ZK1YU'
p633
sg4
S'20160705\xc2\xa03:16PM UTC'
p634
sg6
S'Canadian manufacturing growth slows in June'
p635
sa(dp636
g2
S'http://www.reuters.com/article/us-britain-eu-centralbanks-idUSKCN0ZK1SU'
p637
sg4
S'20160705\xc2\xa03:03PM UTC'
p638
sg6
S'Exclusive: Banks saw unprecedented step up in market supervision around UK vote'
p639
sa(dp640
g2
S'http://www.reuters.com/article/us-iran-security-islamic-state-idUSKCN0ZK1TW'
p641
sg4
S'20160705\xc2\xa02:59PM UTC'
p642
sg6
S'Islamic State militants paid to stage bomb attacks in Iran: State TV'
p643
sa(dp644
g2
S'http://www.reuters.com/article/us-eurozone-banks-ecb-idUSKCN0ZK1VC'
p645
sg4
S'20160705\xc2\xa02:51PM UTC'
p646
sg6
S'State aid for euro zone banks can be justified: Angeloni'
p647
sa(dp648
g2
S'http://www.reuters.com/article/eurozone-banks-ecb-idUSL8N19Q3S2'
p649
sg4
S'20160705\xc2\xa02:49PM UTC'
p650
sg6
S'UPDATE 1-State aid for euro zone banks can be justified: Angeloni'
p651
sa(dp652
g2
S'http://www.reuters.com/article/us-tennis-wimbeldon-venus-idUSKCN0ZK1T4'
p653
sg4
S'20160705\xc2\xa02:47PM UTC'
p654
sg6
S'Venus strides into quarter-finals despite early scare'
p655
sa(dp656
g2
S'http://www.reuters.com/article/us-tennis-wimbledon-kerber-idUSKCN0ZK14F'
p657
sg4
S'20160705\xc2\xa02:46PM UTC'
p658
sg6
S'Improving Kerber seeks inspiration from Aussie Open win'
p659
sa(dp660
g2
S'http://www.reuters.com/article/iliad-ma-italy-idUSL8N19Q3P5'
p661
sg4
S'20160705\xc2\xa02:45PM UTC'
p662
sg6
S"UPDATE 1-Iliad in exclusive talks on Hutchison's Italian concessions"
p663
sa(dp664
g2
S'http://www.reuters.com/article/us-britain-eu-france-tax-idUSKCN0ZK1XW'
p665
sg4
S'20160705\xc2\xa02:43PM UTC'
p666
sg6
S"France must 'react' to Britain corporation tax cut: presidential aspirant Juppe"
p667
sa(dp668
g2
S'http://www.reuters.com/article/bbo-brewers-nationals-recap-idUSMTZEC74SYW1DX'
p669
sg4
S'20160705\xc2\xa02:42PM UTC'
p670
sg6
S'Guerra shuts down Nats, Brewer win, 1-0'
p671
sa(dp672
g2
S'http://www.reuters.com/article/us-olympics-rio-swimming-campbell-coach-idUSKCN0ZK13K'
p673
sg4
S'20160705\xc2\xa02:41PM UTC'
p674
sg6
S'Campbell wants gold at Rio, not records: coach'
p675
sa(dp676
g2
S'http://www.reuters.com/article/us-tennis-wimbledon-halep-idUSKCN0ZK1JL'
p677
sg4
S'20160705\xc2\xa02:39PM UTC'
p678
sg6
S'Wily Halep hits back to beat hobbling Keys'
p679
sa(dp680
g2
S'http://www.reuters.com/article/idUSFWN19O01S'
p681
sg4
S'20160705\xc2\xa02:38PM UTC'
p682
sg6
S'BRIEF-Environmental Waste International says number of board members was increased from 6 to 7'
p683
sa(dp684
g2
S'http://www.reuters.com/article/us-cycling-tour-cavendish-idUSKCN0ZK1XC'
p685
sg4
S'20160705\xc2\xa02:32PM UTC'
p686
sg6
S'Dangerous for GC riders to mix with sprinters: Cavendish'
p687
sa(dp688
g2
S'http://www.reuters.com/article/us-cycling-tour-idUSKCN0ZK1P7'
p689
sg4
S'20160705\xc2\xa02:32PM UTC'
p690
sg6
S'Cavendish edges Greipel to win Tour stage three'
p691
sa(dp692
g2
S'http://www.reuters.com/article/libor-barclays-sfo-idUSL8N19642A'
p693
sg4
S'20160705\xc2\xa02:23PM UTC'
p694
sg6
S"Britain's Serious Fraud Office on a high after Libor rollercoaster"
p695
sa(dp696
g2
S'http://www.reuters.com/article/global-precious-idUSL8N19Q3GL'
p697
sg4
S'20160705\xc2\xa02:20PM UTC'
p698
sg6
S'PRECIOUS-Gold pushes back towards two-year high, silver crosses $21/oz'
p699
sa(dp700
g2
S'http://www.reuters.com/article/us-saudi-security-medina-idUSKCN0ZK1TI'
p701
sg4
S'20160705\xc2\xa02:20PM UTC'
p702
sg6
S'Suicide bomber strikes near main mosque in Medina, Saudi Arabia: Arabiya'
p703
sa(dp704
g2
S'http://www.reuters.com/article/us-saudi-security-medina-toll-idUSKCN0ZK1WV'
p705
sg4
S'20160705\xc2\xa02:19PM UTC'
p706
sg6
S'Three dead in Saudi Medina blast, including bomber: Arabiya TV'
p707
sa(dp708
g2
S'http://www.reuters.com/article/britain-eu-balkans-summit-idUSL8N19Q3QE'
p709
sg4
S'20160705\xc2\xa02:17PM UTC'
p710
sg6
S'EU leaders reassure Balkan states on accession talks despite Brexit'
p711
sa(dp712
g2
S'http://www.reuters.com/article/idUSFWN19Q0GE'
p713
sg4
S'20160705\xc2\xa02:00PM UTC'
p714
sg6
S'BRIEF-Premier Li says not easy to achieve growth rate of 6.7 pct in Q1 - Xinhua'
p715
sa(dp716
g2
S'http://www.reuters.com/article/us-health-breastcancer-followup-idUSKCN0ZK1VM'
p717
sg4
S'20160705\xc2\xa01:51PM UTC'
p718
sg6
S'Breast cancer survivors not always clear about follow up care'
p719
sa(dp720
g2
S'http://www.reuters.com/article/france-nuclear-decommissioning-idUSL8N19Q3N4'
p721
sg4
S'20160705\xc2\xa01:49PM UTC'
p722
sg6
S"France's EDF sets sights on $200 bln nuclear decommissioning market"
p723
sa(dp724
g2
S'http://www.reuters.com/article/idUSL4N19Q3QB'
p725
sg4
S'20160705\xc2\xa01:48PM UTC'
p726
sg6
S'BRIEF-Hunan Er-kang Pharmaceutical sees 2016 H1 net profit to increase'
p727
sa(dp728
g2
S'http://www.reuters.com/article/idUSL4N19Q3QA'
p729
sg4
S'20160705\xc2\xa01:45PM UTC'
p730
sg6
S'BRIEF-Guangzhou Hongli Opto-electronic sees 2016 H1 net profit to increase'
p731
sa(dp732
g2
S'http://www.reuters.com/article/eurozone-banks-ecb-idUSF9N15G01O'
p733
sg4
S'20160705\xc2\xa01:43PM UTC'
p734
sg6
S'Some state support for euro zone banks can be justified: Angeloni'
p735
sa(dp736
g2
S'http://www.reuters.com/article/us-mideast-crisis-iraq-minorities-idUSKCN0ZK1UQ'
p737
sg4
S'20160705\xc2\xa01:42PM UTC'
p738
sg6
S"Iraq's minorities 'on verge of disappearance' - rights groups"
p739
sa(dp740
g2
S'http://www.reuters.com/article/us-tanzania-childmarriage-idUSKCN0ZK1US'
p741
sg4
S'20160705\xc2\xa01:41PM UTC'
p742
sg6
S'Tanzania launches crackdown on child marriage with 30-year jail terms'
p743
sa(dp744
g2
S'http://www.reuters.com/article/idUSL4N19Q3Q0'
p745
sg4
S'20160705\xc2\xa01:40PM UTC'
p746
sg6
S'BRIEF-By-health sees 2016 H1 net profit to decrease'
p747
sa(dp748
g2
S'http://www.reuters.com/article/us-sport-doping-russia-cycling-idUSKCN0ZK1UU'
p749
sg4
S'20160705\xc2\xa01:40PM UTC'
p750
sg6
S'Russian cyclist fails test for growth hormone - UCI'
p751
sa(dp752
g2
S'http://www.reuters.com/article/us-iran-oil-contracts-idUSKCN0ZK1S6'
p753
sg4
S'20160705\xc2\xa01:38PM UTC'
p754
sg6
S'Iranian officials revive ghost of oil deals disliked by majors'
p755
sa(dp756
g2
S'http://www.reuters.com/article/idUSL4N19Q3PW'
p757
sg4
S'20160705\xc2\xa01:37PM UTC'
p758
sg6
S'BRIEF-Quantum Hi-tech China Biological sees 2016 H1 net profit to increase'
p759
sa(dp760
g2
S'http://www.reuters.com/article/nigeria-oil-idUSL8N19Q3PR'
p761
sg4
S'20160705\xc2\xa01:36PM UTC'
p762
sg6
S"Nigeria's President approves new board for state oil company NNPC"
p763
sa(dp764
g2
S'http://www.reuters.com/article/idUSFWN19Q0GD'
p765
sg4
S'20160705\xc2\xa01:33PM UTC'
p766
sg6
S'BRIEF-Huawei Technologies eyes Japanese PC debut - Nikkei'
p767
sa(dp768
g2
S'http://www.reuters.com/article/idUSFWN19Q0GC'
p769
sg4
S'20160705\xc2\xa01:31PM UTC'
p770
sg6
S'BRIEF-Dow Chemical will stop listing its shares on the Tokyo Stock Exchange - Nikkei'
p771
sa(dp772
g2
S'http://www.reuters.com/article/idUSFWN19O01R'
p773
sg4
S'20160705\xc2\xa01:28PM UTC'
p774
sg6
S"BRIEF-Otsuka Corp's group net profit apparently grew 9% for the January-June half of 2016 - Nikkei"
p775
sa(dp776
g2
S'http://www.reuters.com/article/iran-security-islamic-state-idUSL8N19Q3II'
p777
sg4
S'20160705\xc2\xa01:28PM UTC'
p778
sg6
S'Islamic State militants paid to stage bomb attacks in Iran - State TV'
p779
sa(dp780
g2
S'http://www.reuters.com/article/idUSFWN19O01Q'
p781
sg4
S'20160705\xc2\xa01:27PM UTC'
p782
sg6
S'BRIEF-JBIC providing roughly 120 billion yen in financing for Japanese consortium - nikkei'
p783
sa(dp784
g2
S'http://www.reuters.com/article/us-oil-reserves-idUSKCN0ZK1TS'
p785
sg4
S'20160705\xc2\xa01:26PM UTC'
p786
sg6
S'U.S. holds bigger oil reserves than Saudi Arabia, Russia -study'
p787
sa(dp788
g2
S'http://www.reuters.com/article/pictures-report-idUSRTX2JJXD'
p789
sg4
S'20160705\xc2\xa01:25PM UTC'
p790
sg6
S'Islamic State strikes Baghdad'
p791
sa(dp792
g2
S'http://www.reuters.com/article/idUSFWN19Q0GB'
p793
sg4
S'20160705\xc2\xa01:23PM UTC'
p794
sg6
S'BRIEF-Wacoal Holdings considering moving distribution warehouse from U.K. - Nikkei'
p795
sa(dp796
g2
S'http://www.reuters.com/article/shell-northsea-decommissioning-idUSL8N19Q3JV'
p797
sg4
S'20160705\xc2\xa01:23PM UTC'
p798
sg6
S'Shell delays North Sea Brent platform decommissioning to 2017'
p799
sa(dp800
g2
S'http://www.reuters.com/article/idUSL4N19Q3PC'
p801
sg4
S'20160705\xc2\xa01:22PM UTC'
p802
sg6
S'BRIEF-Beijing Kunlun Tech sets up investment subsidiary'
p803
sa(dp804
g2
S'http://www.reuters.com/article/us-tennis-wimbledon-cibulkova-idUSKCN0ZK1JH'
p805
sg4
S'20160705\xc2\xa01:22PM UTC'
p806
sg6
S'Cibulkova wedding plans uncertain after win over Radwanska'
p807
sa(dp808
g2
S'http://www.reuters.com/article/iliad-ma-italy-idUSL8N19Q3NI'
p809
sg4
S'20160705\xc2\xa01:21PM UTC'
p810
sg6
S'Iliad in exclusive talks with Hutchison and Vimpelcom on Italian concessions-sources'
p811
sa(dp812
g2
S'http://www.reuters.com/article/us-britain-eu-osborne-banks-idUSKCN0ZK1SC'
p813
sg4
S'20160705\xc2\xa01:16PM UTC'
p814
sg6
S"UK's Osborne says meeting major banks on Tuesday for post-Brexit talks"
p815
sa(dp816
g2
S'http://www.reuters.com/article/us-safrica-eagle-idUSKCN0ZK1S8'
p817
sg4
S'20160705\xc2\xa01:10PM UTC'
p818
sg6
S'Eagle that starred in British TV series killed by Mozambique hunters'
p819
sa(dp820
g2
S'http://www.reuters.com/article/iran-oil-contracts-idUSL8N19Q30Y'
p821
sg4
S'20160705\xc2\xa01:08PM UTC'
p822
sg6
S'Iranian officials revive ghost of oil deals disliked by majors'
p823
sa(dp824
g2
S'http://www.reuters.com/article/us-italy-usa-student-idUSKCN0ZK1NE'
p825
sg4
S'20160705\xc2\xa01:06PM UTC'
p826
sg6
S'American university student found dead in Rome in possible homicide'
p827
sa(dp828
g2
S'http://www.reuters.com/article/us-kenya-crime-idUSKCN0ZK0YC'
p829
sg4
S'20160705\xc2\xa01:05PM UTC'
p830
sg6
S'Hundreds protest in Nairobi over death of Kenyan rights lawyer'
p831
sa(dp832
g2
S'http://www.reuters.com/article/us-safrica-election-mandela-idUSKCN0ZK1R3'
p833
sg4
S'20160705\xc2\xa01:05PM UTC'
p834
sg6
S"Mandela's family angered by South Africa opposition using late leader's voice"
p835
sa(dp836
g2
S'http://www.reuters.com/article/idUSFWN19Q0GA'
p837
sg4
S'20160705\xc2\xa01:04PM UTC'
p838
sg6
S'BRIEF-ASML Holding places eurobond offerings for 1.5 billion euros'
p839
sa(dp840
g2
S'http://www.reuters.com/article/idUSL4N19Q3OT'
p841
sg4
S'20160705\xc2\xa01:04PM UTC'
p842
sg6
S'BRIEF-Yihua Healthcare sees 2016 H1 net profit to increase'
p843
sa(dp844
g2
S'http://www.reuters.com/article/us-vietnam-energy-renewables-idUSKCN0ZK0WB'
p845
sg4
S'20160705\xc2\xa01:03PM UTC'
p846
sg6
S"Plastic buckets, broken printers shine light on Hanoi's poor"
p847
sa(dp848
g2
S'http://www.reuters.com/article/bbo-whitesox-playerwatch-idUSMTZEC74SV9SD5'
p849
sg4
S'20160705\xc2\xa01:01PM UTC'
p850
sg6
S'Chicago White Sox - PlayerWatch'
p851
sa(dp852
g2
S'http://www.reuters.com/article/bbo-royals-playerwatch-idUSMTZEC74SV9RD4'
p853
sg4
S'20160705\xc2\xa01:01PM UTC'
p854
sg6
S'Kansas City Royals - PlayerWatch'
p855
sa(dp856
g2
S'http://www.reuters.com/article/bbo-rays-playerwatch-idUSMTZEC74SV9RD3'
p857
sg4
S'20160705\xc2\xa01:01PM UTC'
p858
sg6
S'Tampa Bay Rays - PlayerWatch'
p859
sa(dp860
g2
S'http://www.reuters.com/article/bbo-orioles-playerwatch-idUSMTZEC74SV9RD2'
p861
sg4
S'20160705\xc2\xa01:01PM UTC'
p862
sg6
S'Baltimore Orioles - PlayerWatch'
p863
sa(dp864
g2
S'http://www.reuters.com/article/bbo-bluejays-playerwatch-idUSMTZEC74SV9RD1'
p865
sg4
S'20160705\xc2\xa01:01PM UTC'
p866
sg6
S'Toronto Blue Jays - PlayerWatch'
p867
sa(dp868
g2
S'http://www.reuters.com/article/bbo-redsox-playerwatch-idUSMTZEC74SV9RD0'
p869
sg4
S'20160705\xc2\xa01:01PM UTC'
p870
sg6
S'Boston Red Sox - PlayerWatch'
p871
sa(dp872
g2
S'http://www.reuters.com/article/bbo-pirates-playerwatch-idUSMTZEC74SV9RCZ'
p873
sg4
S'20160705\xc2\xa01:01PM UTC'
p874
sg6
S'Pittsburgh Pirates - PlayerWatch'
p875
sa(dp876
g2
S'http://www.reuters.com/article/bbo-padres-playerwatch-idUSMTZEC74SV9RCY'
p877
sg4
S'20160705\xc2\xa01:01PM UTC'
p878
sg6
S'San Diego Padres - PlayerWatch'
p879
sa(dp880
g2
S'http://www.reuters.com/article/bbo-rockies-playerwatch-idUSMTZEC74SV9RCX'
p881
sg4
S'20160705\xc2\xa01:01PM UTC'
p882
sg6
S'Colorado Rockies - PlayerWatch'
p883
sa(dp884
g2
S'http://www.reuters.com/article/bbo-yankees-playerwatch-idUSMTZEC74SV9RCW'
p885
sg4
S'20160705\xc2\xa01:01PM UTC'
p886
sg6
S'New York Yankees - PlayerWatch'
p887
sa(dp888
g2
S'http://www.reuters.com/article/bbo-dodgers-playerwatch-idUSMTZEC74SV9RCV'
p889
sg4
S'20160705\xc2\xa01:01PM UTC'
p890
sg6
S'Los Angeles Dodgers - PlayerWatch'
p891
sa(dp892
g2
S'http://www.reuters.com/article/bbo-diamondbacks-playerwatch-idUSMTZEC74SV9RCU'
p893
sg4
S'20160705\xc2\xa01:01PM UTC'
p894
sg6
S'Arizona Diamondbacks - PlayerWatch'
p895
sa(dp896
g2
S'http://www.reuters.com/article/bbo-giants-playerwatch-idUSMTZEC74SV9RCT'
p897
sg4
S'20160705\xc2\xa01:01PM UTC'
p898
sg6
S'San Francisco Giants - PlayerWatch'
p899
sa(dp900
g2
S'http://www.reuters.com/article/bbo-brewers-playerwatch-idUSMTZEC74SV9RCS'
p901
sg4
S'20160705\xc2\xa01:01PM UTC'
p902
sg6
S'Milwaukee Brewers - PlayerWatch'
p903
sa(dp904
g2
S'http://www.reuters.com/article/bbo-reds-playerwatch-idUSMTZEC74SV9RCR'
p905
sg4
S'20160705\xc2\xa01:01PM UTC'
p906
sg6
S'Cincinnati Reds - PlayerWatch'
p907
sa(dp908
g2
S'http://www.reuters.com/article/bbo-cubs-playerwatch-idUSMTZEC74SV9RCQ'
p909
sg4
S'20160705\xc2\xa01:01PM UTC'
p910
sg6
S'Chicago Cubs - PlayerWatch'
p911
sa(dp912
g2
S'http://www.reuters.com/article/bbo-cardinals-playerwatch-idUSMTZEC74SV9RCP'
p913
sg4
S'20160705\xc2\xa01:01PM UTC'
p914
sg6
S'St. Louis Cardinals - PlayerWatch'
p915
sa(dp916
g2
S'http://www.reuters.com/article/bbo-astros-playerwatch-idUSMTZEC74SV9RCO'
p917
sg4
S'20160705\xc2\xa01:01PM UTC'
p918
sg6
S'Houston Astros - PlayerWatch'
p919
sa(dp920
g2
S'http://www.reuters.com/article/bbo-mets-playerwatch-idUSMTZEC74SV9RCN'
p921
sg4
S'20160705\xc2\xa01:01PM UTC'
p922
sg6
S'New York Mets - PlayerWatch'
p923
sa(dp924
g2
S'http://www.reuters.com/article/bbo-nationals-playerwatch-idUSMTZEC74SV9RCM'
p925
sg4
S'20160705\xc2\xa01:01PM UTC'
p926
sg6
S'Washington Nationals - PlayerWatch'
p927
sa(dp928
g2
S'http://www.reuters.com/article/bbo-marlins-playerwatch-idUSMTZEC74SV9RCL'
p929
sg4
S'20160705\xc2\xa01:01PM UTC'
p930
sg6
S'Miami Marlins - PlayerWatch'
p931
sa(dp932
g2
S'http://www.reuters.com/article/bbo-phillies-playerwatch-idUSMTZEC74SV9RCK'
p933
sg4
S'20160705\xc2\xa01:01PM UTC'
p934
sg6
S'Philadelphia Phillies - PlayerWatch'
p935
sa(dp936
g2
S'http://www.reuters.com/article/bbo-braves-playerwatch-idUSMTZEC74SV9RCJ'
p937
sg4
S'20160705\xc2\xa01:01PM UTC'
p938
sg6
S'Atlanta Braves - PlayerWatch'
p939
sa(dp940
g2
S'http://www.reuters.com/article/bbo-rangers-playerwatch-idUSMTZEC74SV9RCI'
p941
sg4
S'20160705\xc2\xa01:01PM UTC'
p942
sg6
S'Texas Rangers - PlayerWatch'
p943
sa(dp944
g2
S'http://www.reuters.com/article/bbo-angels-playerwatch-idUSMTZEC74SV9RCH'
p945
sg4
S'20160705\xc2\xa01:01PM UTC'
p946
sg6
S'Los Angeles Angels - PlayerWatch'
p947
sa(dp948
g2
S'http://www.reuters.com/article/bbo-athletics-playerwatch-idUSMTZEC74SV9RCG'
p949
sg4
S'20160705\xc2\xa01:01PM UTC'
p950
sg6
S'Oakland Athletics - PlayerWatch'
p951
sa(dp952
g2
S'http://www.reuters.com/article/bbo-mariners-playerwatch-idUSMTZEC74SV9RCF'
p953
sg4
S'20160705\xc2\xa01:01PM UTC'
p954
sg6
S'Seattle Mariners - PlayerWatch'
p955
sa(dp956
g2
S'http://www.reuters.com/article/bbo-tigers-playerwatch-idUSMTZEC74SV9RCE'
p957
sg4
S'20160705\xc2\xa01:01PM UTC'
p958
sg6
S'Detroit Tigers - PlayerWatch'
p959
sa(dp960
g2
S'http://www.reuters.com/article/bbo-indians-playerwatch-idUSMTZEC74SV9QCD'
p961
sg4
S'20160705\xc2\xa01:01PM UTC'
p962
sg6
S'Cleveland Indians - PlayerWatch'
p963
sa(dp964
g2
S'http://www.reuters.com/article/bbo-twins-playerwatch-idUSMTZEC74SV9QCC'
p965
sg4
S'20160705\xc2\xa01:01PM UTC'
p966
sg6
S'Minnesota Twins - PlayerWatch'
p967
sa(dp968
g2
S'http://www.reuters.com/article/oleo-e-gas-part-crude-restart-idUSL1N19Q0KN'
p969
sg4
S'20160705\xc2\xa01:00PM UTC'
p970
sg6
S"Brazil's Oleo e Gas restarts Tubar\xc3\xa3o Martelo oil field"
p971
sa(dp972
g2
S'http://www.reuters.com/article/safrica-eagle-idUSL8N19Q357'
p973
sg4
S'20160705\xc2\xa012:58PM UTC'
p974
sg6
S'Eagle that starred in British TV series killed by Mozambique hunters'
p975
sa(dp976
g2
S'http://www.reuters.com/article/kenya-crime-idUSL8N19Q1KL'
p977
sg4
S'20160705\xc2\xa012:57PM UTC'
p978
sg6
S'CORRECTED-Hundreds protest in Nairobi over death of Kenyan rights lawyer'
p979
sa(dp980
g2
S'http://www.reuters.com/article/idUSL4N19Q3OJ'
p981
sg4
S'20160705\xc2\xa012:55PM UTC'
p982
sg6
S'BRIEF-Castles Technology receives penalty order of T$150,000'
p983
sa(dp984
g2
S'http://www.reuters.com/article/idUSL8N19Q3LX'
p985
sg4
S'20160705\xc2\xa012:54PM UTC'
p986
sg6
S'BRIEF-Bnp paribas says q2 results to show 565 million euro after-tax gain from visa purchase of visa europe'
p987
sa(dp988
g2
S'http://www.reuters.com/article/idUSL4N19Q3OH'
p989
sg4
S'20160705\xc2\xa012:51PM UTC'
p990
sg6
S'BRIEF-TTY Biopharm to pay 2015 dividend on Aug. 26'
p991
sa(dp992
g2
S'http://www.reuters.com/article/us-tennis-wimbledon-nishikori-idUSKCN0ZK1PB'
p993
sg4
S'20160705\xc2\xa012:50PM UTC'
p994
sg6
S'Luckless Nishikori faces injury deja vu at Wimbledon'
p995
sa(dp996
g2
S'http://www.reuters.com/article/us-tennis-wimbledon-cilic-idUSKCN0ZK1DB'
p997
sg4
S'20160705\xc2\xa012:50PM UTC'
p998
sg6
S'Cilic into quarter-finals as injured Nishikori quits'
p999
sa(dp1000
g2
S'http://www.reuters.com/article/us-egypt-wheat-idUSKCN0ZK1PY'
p1001
sg4
S'20160705\xc2\xa012:50PM UTC'
p1002
sg6
S'Exclusive: After six months, Egypt finally settles wheat fungus row'
p1003
sa(dp1004
g2
S'http://www.reuters.com/article/us-tennis-wimbledon-federer-tiebreaks-idUSKCN0ZK1Q6'
p1005
sg4
S'20160705\xc2\xa012:48PM UTC'
p1006
sg6
S'Federer suggests tiebreaks at 12-12 to decide marathon matches'
p1007
sa(dp1008
g2
S'http://www.reuters.com/article/safrica-election-mandela-idUSL8N19Q3CT'
p1009
sg4
S'20160705\xc2\xa012:48PM UTC'
p1010
sg6
S"Mandela's family angered by S.Africa opposition using late leader's voice"
p1011
sa(dp1012
g2
S'http://www.reuters.com/article/idUSFWN19O01N'
p1013
sg4
S'20160705\xc2\xa012:46PM UTC'
p1014
sg6
S'BRIEF-Go Internet reaches 34,975 clients as of June 30'
p1015
sa(dp1016
g2
S'http://www.reuters.com/article/idUSFWN19Q0G8'
p1017
sg4
S'20160705\xc2\xa012:44PM UTC'
p1018
sg6
S'BRIEF-CEO Jean Marc Harion leaves Orange Belgium'
p1019
sa(dp1020
g2
S'http://www.reuters.com/article/us-turkey-blast-security-idUSKCN0ZK1QA'
p1021
sg4
S'20160705\xc2\xa012:38PM UTC'
p1022
sg6
S'Seventeen suspects to appear in court over Istanbul airport bombing-media'
p1023
sa(dp1024
g2
S'http://www.reuters.com/article/idUSFWN19O01M'
p1025
sg4
S'20160705\xc2\xa012:37PM UTC'
p1026
sg6
S'BRIEF-Methorios Capital appoints Luca Perconti as CEO'
p1027
sa(dp1028
g2
S'http://www.reuters.com/article/turkey-blast-security-idUSL8N19Q3DY'
p1029
sg4
S'20160705\xc2\xa012:34PM UTC'
p1030
sg6
S'UPDATE 1-Seventeen suspects to appear in court over Istanbul airport bombing-media'
p1031
sa(dp1032
g2
S'http://www.reuters.com/article/us-tennis-wimbeldon-querrey-idUSKCN0ZK1JN'
p1033
sg4
S'20160705\xc2\xa012:34PM UTC'
p1034
sg6
S'Fluke fears drive giant-killer Querrey to last eight'
p1035
sa(dp1036
g2
S'http://www.reuters.com/article/idUSFWN19Q0G7'
p1037
sg4
S'20160705\xc2\xa012:33PM UTC'
p1038
sg6
S'BRIEF-OneRoof Energy to sell solar project assets'
p1039
sa(dp1040
g2
S'http://www.reuters.com/article/europe-stocks-idUSL8N19Q3BK'
p1041
sg4
S'20160705\xc2\xa012:32PM UTC'
p1042
sg6
S'European shares end post-Brexit rally; Monte Paschi hits record low'
p1043
sa(dp1044
g2
S'http://www.reuters.com/article/britain-eu-fund-idUSL8N19Q3IR'
p1045
sg4
S'20160705\xc2\xa012:32PM UTC'
p1046
sg6
S'Standard Life Investments suspends trading in UK real estate fund'
p1047
sa(dp1048
g2
S'http://www.reuters.com/article/idUSFWN19O01L'
p1049
sg4
S'20160705\xc2\xa012:31PM UTC'
p1050
sg6
S'BRIEF-Endor: Court of Zaragoza ruled in favor of Spanish distributor Ardistel in secondary proceedings'
p1051
sa(dp1052
g2
S'http://www.reuters.com/article/fashion-paris-idUSL8N19Q39L'
p1053
sg4
S'20160705\xc2\xa012:28PM UTC'
p1054
sg6
S'UPDATE 1-Luxury brands show autumn creations at Paris haute couture week'
p1055
sa(dp1056
g2
S'http://www.reuters.com/article/latam-emergingmarkets-idUSL1N19Q0JQ'
p1057
sg4
S'20160705\xc2\xa012:22PM UTC'
p1058
sg6
S'EMERGING MARKETS-Brazil stocks rise as CPFL jumps in thin trade'
p1059
sa(dp1060
g2
S'http://www.reuters.com/article/britain-sterling-idUSL8N19Q367'
p1061
sg4
S'20160705\xc2\xa012:20PM UTC'
p1062
sg6
S'UPDATE 2-Struggling sterling creeps up in thin trade'
p1063
sa(dp1064
g2
S'http://www.reuters.com/article/us-britain-eu-germany-idUSKCN0ZK1NA'
p1065
sg4
S'20160705\xc2\xa012:18PM UTC'
p1066
sg6
S'Merkel ally: We should give Britain the time it needs on Brexit'
p1067
sa(dp1068
g2
S'http://www.reuters.com/article/idUSFWN19Q0G6'
p1069
sg4
S'20160705\xc2\xa012:17PM UTC'
p1070
sg6
S'BRIEF-Bastide le Confort Medical acquires 100% of Swiss group AFPM'
p1071
sa(dp1072
g2
S'http://www.reuters.com/article/idUSFWN19Q0G5'
p1073
sg4
S'20160705\xc2\xa012:14PM UTC'
p1074
sg6
S'BRIEF-Stentys appoints Christophe Lottin as new CEO'
p1075
sa(dp1076
g2
S'http://www.reuters.com/article/us-global-markets-idUSKCN0ZK00B'
p1077
sg4
S'20160705\xc2\xa012:14PM UTC'
p1078
sg6
S'European, UK shares snap winning streak, silver surges'
p1079
sa(dp1080
g2
S'http://www.reuters.com/article/idUSFWN19Q0FX'
p1081
sg4
S'20160705\xc2\xa012:13PM UTC'
p1082
sg6
S'BRIEF-New Value announces change in shareholder position'
p1083
sa(dp1084
g2
S'http://www.reuters.com/article/idUSL8N19Q3HH'
p1085
sg4
S'20160705\xc2\xa012:10PM UTC'
p1086
sg6
S'BRIEF-Europlan decides to issue bonds'
p1087
sa(dp1088
g2
S'http://www.reuters.com/article/idUSFWN19Q0G3'
p1089
sg4
S'20160705\xc2\xa012:08PM UTC'
p1090
sg6
S'BRIEF-Ecoslops reaffirms 2016 production objective of 30,000 tons'
p1091
sa(dp1092
g2
S'http://www.reuters.com/article/us-britain-eu-france-juppe-idUSKCN0ZK0ER'
p1093
sg4
S'20160705\xc2\xa012:05PM UTC'
p1094
sg6
S"France's Juppe urges talks with Britain on EU freedom of movement"
p1095
sa(dp1096
g2
S'http://www.reuters.com/article/global-markets-idUSL4N19Q3H9'
p1097
sg4
S'20160705\xc2\xa012:05PM UTC'
p1098
sg6
S'GLOBAL MARKETS-European, UK shares snap winning streak, silver surges'
p1099
sa(dp1100
g2
S'http://www.reuters.com/article/idUSFWN19O01J'
p1101
sg4
S'20160705\xc2\xa012:05PM UTC'
p1102
sg6
S'BRIEF-Kerr Mines says CEO Gregory Gibson has resigned'
p1103
sa(dp1104
g2
S'http://www.reuters.com/article/idUSFWN19O01I'
p1105
sg4
S'20160705\xc2\xa012:03PM UTC'
p1106
sg6
S'BRIEF-Aston Hill says its fund terminated and delisted'
p1107
sa(dp1108
g2
S'http://www.reuters.com/article/idUSFWN19Q0G2'
p1109
sg4
S'20160705\xc2\xa012:03PM UTC'
p1110
sg6
S'BRIEF-Eos Imaging announces corporate agreement with Sch\xc3\xb6n Kliniken hospital network'
p1111
sa(dp1112
g2
S'http://www.reuters.com/article/idUSFWN19Q0G1'
p1113
sg4
S'20160705\xc2\xa012:03PM UTC'
p1114
sg6
S'BRIEF-Coface foresees a net loss ratio of 63% to 66% for FY 2016'
p1115
sa(dp1116
g2
S'http://www.reuters.com/article/britain-eu-osborne-banks-idUSU8N18Z012'
p1117
sg4
S'20160705\xc2\xa012:02PM UTC'
p1118
sg6
S"UK's Osborne says meeting major banks on Tuesday for post-Brexit talks"
p1119
sa(dp1120
g2
S'http://www.reuters.com/article/us-theatre-rebelwilson-guysanddolls-idUSKCN0ZK1L7'
p1121
sg4
S'20160705\xc2\xa012:00PM UTC'
p1122
sg6
S"Comedienne Rebel Wilson makes London stage debut in 'Guys and Dolls'"
p1123
sa(dp1124
g2
S'http://www.reuters.com/article/slovenia-privatisation-nlb-idUSL8N19Q1PY'
p1125
sg4
S'20160705\xc2\xa012:00PM UTC'
p1126
sg6
S'UPDATE 2-Slovenia postpones NLB sale presentations due to Brexit'
p1127
sa(dp1128
g2
S'http://www.reuters.com/article/britain-stocks-idUSL8N19Q391'
p1129
sg4
S'20160705\xc2\xa011:59AM UTC'
p1130
sg6
S"FTSE's post-Brexit recovery falters as property stocks weaken"
p1131
sa(dp1132
g2
S'http://www.reuters.com/article/idUSFWN19Q0G0'
p1133
sg4
S'20160705\xc2\xa011:58AM UTC'
p1134
sg6
S'BRIEF-JCDecaux subsidiary renews contract for modernisation Paris newsstands'
p1135
sa(dp1136
g2
S'http://www.reuters.com/article/idUSFWN19Q0FZ'
p1137
sg4
S'20160705\xc2\xa011:55AM UTC'
p1138
sg6
S'BRIEF-MGI Digital Technology re-confirms 2020 objective'
p1139
sa(dp1140
g2
S'http://www.reuters.com/article/canada-autos-idUSL1N19Q0J3'
p1141
sg4
S'20160705\xc2\xa011:53AM UTC'
p1142
sg6
S'Fiat Chrysler and Honda report higher June Canadian sales'
p1143
sa(dp1144
g2
S'http://www.reuters.com/article/brazil-economy-fiscal-idUSL1N19Q0IJ'
p1145
sg4
S'20160705\xc2\xa011:53AM UTC'
p1146
sg6
S'UPDATE 1-Brazil eyes extra 10 bln reais from hydroelectric auctions -sources'
p1147
sa(dp1148
g2
S'http://www.reuters.com/article/britain-eu-heathrow-crabb-idUSS8N14Q02K'
p1149
sg4
S'20160705\xc2\xa011:50AM UTC'
p1150
sg6
S'UK PM candidate Crabb says would approve new Heathrow runway if elected'
p1151
sa(dp1152
g2
S'http://www.reuters.com/article/idUSFWN19Q0FY'
p1153
sg4
S'20160705\xc2\xa011:50AM UTC'
p1154
sg6
S'BRIEF-Ab Science: Updates on marketing authorization application of masitinib'
p1155
sa(dp1156
g2
S'http://www.reuters.com/article/britain-eu-austria-idUSL8N19Q3DH'
p1157
sg4
S'20160705\xc2\xa011:49AM UTC'
p1158
sg6
S'Austrian finmin says Britain will remain an EU member - newspaper'
p1159
sa(dp1160
g2
S'http://www.reuters.com/article/us-britain-eu-osborne-idUSKCN0ZJ0VN'
p1161
sg4
S'20160705\xc2\xa011:49AM UTC'
p1162
sg6
S'UK plans lower corporation tax to cushion hit from Brexit'
p1163
sa(dp1164
g2
S'http://www.reuters.com/article/britain-eu-spain-idUSL8N19Q31G'
p1165
sg4
S'20160705\xc2\xa011:46AM UTC'
p1166
sg6
S'Madrid says considering tax breaks to attract UK-based firms'
p1167
sa(dp1168
g2
S'http://www.reuters.com/article/russia-cenbank-reserves-idUSL8N19Q2HC'
p1169
sg4
S'20160705\xc2\xa011:43AM UTC'
p1170
sg6
S'UPDATE 3-Russian central bank started buying Chinese yuan assets last year'
p1171
sa(dp1172
g2
S'http://www.reuters.com/article/us-brazil-corruption-idUSKCN0ZK1M3'
p1173
sg4
S'20160705\xc2\xa011:41AM UTC'
p1174
sg6
S'Brazilian police target former Workers Party treasurer in Petrobras probe'
p1175
sa(dp1176
g2
S'http://www.reuters.com/article/global-precious-idUSL4N19Q2BY'
p1177
sg4
S'20160705\xc2\xa011:40AM UTC'
p1178
sg6
S'PRECIOUS-Gold pushes back towards two-year high, silver crosses $21/oz'
p1179
sa(dp1180
g2
S'http://www.reuters.com/article/us-shell-saudi-motiva-idUSKCN0ZK1FS'
p1181
sg4
S'20160705\xc2\xa011:38AM UTC'
p1182
sg6
S'Exclusive: Shell seeks $2 billion from Aramco in Motiva JV breakup'
p1183
sa(dp1184
g2
S'http://www.reuters.com/article/us-norway-ccs-idUSKCN0ZK1LW'
p1185
sg4
S'20160705\xc2\xa011:37AM UTC'
p1186
sg6
S'Norway says could achieve full carbon capture and storage by 2022'
p1187
sa(dp1188
g2
S'http://www.reuters.com/article/bangladesh-attack-idUSL4N19Q1S8'
p1189
sg4
S'20160705\xc2\xa011:35AM UTC'
p1190
sg6
S'UPDATE 3-Bangladesh says some restaurant attackers were well off and educated'
p1191
sa(dp1192
g2
S'http://www.reuters.com/article/idUSFWN19O01H'
p1193
sg4
S'20160705\xc2\xa011:35AM UTC'
p1194
sg6
S'BRIEF-Burkhalter Group acquires two electrical companies in Lachen'
p1195
sa(dp1196
g2
S'http://www.reuters.com/article/us-britain-eu-paralysis-idUSKCN0ZK1L1'
p1197
sg4
S'20160705\xc2\xa011:33AM UTC'
p1198
sg6
S'In or Out? Brexit limbo gives EU headache'
p1199
sa(dp1200
g2
S'http://www.reuters.com/article/us-britain-eu-newspaper-idUSKCN0ZK1KZ'
p1201
sg4
S'20160705\xc2\xa011:33AM UTC'
p1202
sg6
S"New 'pop-up' paper on Europe for the losing 48 percent to hit UK news stands"
p1203
sa(dp1204
g2
S'http://www.reuters.com/article/us-britain-eu-immigration-idUSKCN0ZK1KX'
p1205
sg4
S'20160705\xc2\xa011:33AM UTC'
p1206
sg6
S'No guarantees for EU citizens in UK without reciprocal deal - UK immigration minister'
p1207
sa(dp1208
g2
S'http://www.reuters.com/article/us-britain-topgear-evans-idUSKCN0ZK1KV'
p1209
sg4
S'20160705\xc2\xa011:32AM UTC'
p1210
sg6
S"New 'Top Gear' host Chris Evans steps down after just one series"
p1211
sa(dp1212
g2
S'http://www.reuters.com/article/brazil-economy-fiscal-idUSE4N15Y02P'
p1213
sg4
S'20160705\xc2\xa011:32AM UTC'
p1214
sg6
S'Brazil eyes extra 10 bln reais from hydroelectric auctions -sources'
p1215
sa(dp1216
g2
S'http://www.reuters.com/article/brazil-corruption-idUSL1N19Q0FQ'
p1217
sg4
S'20160705\xc2\xa011:30AM UTC'
p1218
sg6
S'UPDATE 1-Brazilian police target former Workers Party treasurer in Petrobras probe'
p1219
sa(dp1220
g2
S'http://www.reuters.com/article/pictures-report-idUSRTX2JNCR'
p1221
sg4
S'20160705\xc2\xa011:30AM UTC'
p1222
sg6
S'Wildlife in jeopardy as river dries up'
p1223
sa(dp1224
g2
S'http://www.reuters.com/article/theatre-rebelwilson-guysanddolls-idUSL8N19Q2IQ'
p1225
sg4
S'20160705\xc2\xa011:27AM UTC'
p1226
sg6
S'Comedienne Rebel Wilson makes London stage debut in "Guys and Dolls"'
p1227
sa(dp1228
g2
S'http://www.reuters.com/article/france-airport-sale-idUSL8N19Q36W'
p1229
sg4
S'20160705\xc2\xa011:25AM UTC'
p1230
sg6
S'UPDATE 1-French regional airports sale attracts at least 11 offers-sources'
p1231
sa(dp1232
g2
S'http://www.reuters.com/article/nigeria-skye-bank-idUSL8N19Q2KS'
p1233
sg4
S'20160705\xc2\xa011:20AM UTC'
p1234
sg6
S'UPDATE 2-Nigeria replaces Skye Bank bosses over capital failures'
p1235
sa(dp1236
g2
S'http://www.reuters.com/article/us-health-stemcells-idUSKCN0ZK1KG'
p1237
sg4
S'20160705\xc2\xa011:18AM UTC'
p1238
sg6
S'Hundreds of companies sell unapproved stem cell therapies in U.S'
p1239
sa(dp1240
g2
S'http://www.reuters.com/article/canada-cenbank-idUSL1N19Q0A7'
p1241
sg4
S'20160705\xc2\xa011:17AM UTC'
p1242
sg6
S'UPDATE 2-Bank of Canada survey shows subdued business sentiment'
p1243
sa(dp1244
g2
S'http://www.reuters.com/article/norway-ccs-idUSL8N19Q2S1'
p1245
sg4
S'20160705\xc2\xa011:13AM UTC'
p1246
sg6
S'Norway says could achieve full carbon capture and storage by 2022'
p1247
sa(dp1248
g2
S'http://www.reuters.com/article/guinea-rio-tinto-idUSL8N19Q344'
p1249
sg4
S'20160705\xc2\xa011:12AM UTC'
p1250
sg6
S'Rio Tinto chief tells Times shelves giant Guinea iron ore project'
p1251
sa(dp1252
g2
S'http://www.reuters.com/article/us-global-forex-idUSKCN0ZJ119'
p1253
sg4
S'20160705\xc2\xa011:10AM UTC'
p1254
sg6
S'Aussie recovers from shaky start as calm returns to FX markets'
p1255
sa(dp1256
g2
S'http://www.reuters.com/article/turkey-blast-security-idUSL8N19Q30J'
p1257
sg4
S'20160705\xc2\xa011:10AM UTC'
p1258
sg6
S'Seventeen suspects to appear in court over Istanbul airport bombing -media'
p1259
sa(dp1260
g2
S'http://www.reuters.com/article/gol-linhas-ae-restructuring-idUSL1N19Q0E0'
p1261
sg4
S'20160705\xc2\xa011:09AM UTC'
p1262
sg6
S"UPDATE 1-Brazil's Gol still looking for solution to debt issues -CFO"
p1263
sa(dp1264
g2
S'http://www.reuters.com/article/global-forex-idUSL8N19Q368'
p1265
sg4
S'20160705\xc2\xa011:09AM UTC'
p1266
sg6
S'FOREX-Aussie recovers from shaky start as calm returns to FX markets'
p1267
sa(dp1268
g2
S'http://www.reuters.com/article/congo-crime-idUSL8N19Q2M7'
p1269
sg4
S'20160705\xc2\xa011:07AM UTC'
p1270
sg6
S'Six disfigured corpses found along Congo river bank'
p1271
sa(dp1272
g2
S'http://www.reuters.com/article/us-tennis-wimbldeon-safarova-idUSKCN0ZK1JJ'
p1273
sg4
S'20160705\xc2\xa011:05AM UTC'
p1274
sg6
S'Shvedova pummels Safarova to reach quarter-finals'
p1275
sa(dp1276
g2
S'http://www.reuters.com/article/idUSFWN19Q0FR'
p1277
sg4
S'20160705\xc2\xa011:05AM UTC'
p1278
sg6
S'BRIEF-Induct contemplates private placement through new share issue'
p1279
sa(dp1280
g2
S'http://www.reuters.com/article/us-ikea-quality-idUSKCN0ZK1IX'
p1281
sg4
S'20160705\xc2\xa011:01AM UTC'
p1282
sg6
S'IKEA pushes for quality as shoppers get choosier'
p1283
sa(dp1284
g2
S'http://www.reuters.com/article/canada-stocks-idUSL1N19Q0GI'
p1285
sg4
S'20160705\xc2\xa011:01AM UTC'
p1286
sg6
S'CANADA STOCKS-TSX rallies to nearly 4-week high, led by mining stocks'
p1287
sa(dp1288
g2
S'http://www.reuters.com/article/us-tennis-wimbldeon-pavlyuchenkova-idUSKCN0ZK1IN'
p1289
sg4
S'20160705\xc2\xa011:00AM UTC'
p1290
sg6
S'Pavlyuchenkova overcomes Vandeweghe and fear of grass'
p1291
sa(dp1292
g2
S'http://www.reuters.com/article/pictures-report-idUSRTX2JNI9'
p1293
sg4
S'20160705\xc2\xa011:00AM UTC'
p1294
sg6
S'Farewell Farage'
p1295
sa(dp1296
g2
S'http://www.reuters.com/article/britain-eu-newspaper-idUSL8N19Q2TS'
p1297
sg4
S'20160705\xc2\xa010:54AM UTC'
p1298
sg6
S'New "pop-up" paper on Europe for the losing 48 pct to hit UK news stands'
p1299
sa(dp1300
g2
S'http://www.reuters.com/article/ikea-quality-idUSL8N1980BZ'
p1301
sg4
S'20160705\xc2\xa010:53AM UTC'
p1302
sg6
S'IKEA pushes for quality as shoppers get choosier'
p1303
sa(dp1304
g2
S'http://www.reuters.com/article/france-airport-sale-idUSL8N19Q35N'
p1305
sg4
S'20160705\xc2\xa010:52AM UTC'
p1306
sg6
S'French airports sale draws at least 11 firm offers-sources'
p1307
sa(dp1308
g2
S'http://www.reuters.com/article/us-britain-land-privatisation-idUSKCN0ZK1HR'
p1309
sg4
S'20160705\xc2\xa010:51AM UTC'
p1310
sg6
S'British government signals re-think on Land Registry sell-off'
p1311
sa(dp1312
g2
S'http://www.reuters.com/article/us-britain-eu-law-idUSKCN0ZK0HX'
p1313
sg4
S'20160705\xc2\xa010:49AM UTC'
p1314
sg6
S'Law firm Mishcon de Reya tangles Brexit in legal challenge over divorce trigger'
p1315
sa(dp1316
g2
S'http://www.reuters.com/article/britain-topgear-evans-idUSL8N19Q336'
p1317
sg4
S'20160705\xc2\xa010:49AM UTC'
p1318
sg6
S'New "Top Gear" host Chris Evans steps down after just one series'
p1319
sa(dp1320
g2
S'http://www.reuters.com/article/us-cme-wheat-idUSKCN0ZK1H7'
p1321
sg4
S'20160705\xc2\xa010:44AM UTC'
p1322
sg6
S'CME to count on French grain firms in EU wheat battle with Euronext'
p1323
sa(dp1324
g2
S'http://www.reuters.com/article/us-poland-defense-raytheon-idUSKCN0ZK1H9'
p1325
sg4
S'20160705\xc2\xa010:42AM UTC'
p1326
sg6
S'Poland closer to clinching $5 billion missile deal with Raytheon: minister'
p1327
sa(dp1328
g2
S'http://www.reuters.com/article/poland-defense-raytheon-idUSW8N18Z01M'
p1329
sg4
S'20160705\xc2\xa010:38AM UTC'
p1330
sg6
S'Poland closer to clinching $5 bln missile deal with Raytheon :minister'
p1331
sa(dp1332
g2
S'http://www.reuters.com/article/john-menzies-activist-shareholder-value-idUSL8N19Q0Z7'
p1333
sg4
S'20160705\xc2\xa010:35AM UTC'
p1334
sg6
S'UPDATE 2-John Menzies says ready for dialogue with shareholders'
p1335
sa(dp1336
g2
S'http://www.reuters.com/article/poland-pensions-idUSL8N19Q134'
p1337
sg4
S'20160705\xc2\xa010:35AM UTC'
p1338
sg6
S'UPDATE 2-Poland announces big shakeup in pension system'
p1339
sa(dp1340
g2
S'http://www.reuters.com/article/idUSFWN19Q0FP'
p1341
sg4
S'20160705\xc2\xa010:34AM UTC'
p1342
sg6
S'BRIEF-Chris Evans says "stepping down from Top Gear" - tweet'
p1343
sa(dp1344
g2
S'http://www.reuters.com/article/montedeipaschi-ecb-idUSL8N19Q10Q'
p1345
sg4
S'20160705\xc2\xa010:32AM UTC'
p1346
sg6
S"UPDATE 2-ECB asks Italy's Monte dei Paschi to slash bad loans"
p1347
sa(dp1348
g2
S'http://www.reuters.com/article/mideast-stocks-idUSL8N19Q2WA'
p1349
sg4
S'20160705\xc2\xa010:28AM UTC'
p1350
sg6
S'MIDEAST STOCKS-Egypt surges on expectations of currency devaluation'
p1351
sa(dp1352
g2
S'http://www.reuters.com/article/britain-eu-osborne-idUSL8N19P0QM'
p1353
sg4
S'20160705\xc2\xa010:25AM UTC'
p1354
sg6
S'UPDATE 4-UK plans lower corporation tax to cushion hit from Brexit'
p1355
sa(dp1356
g2
S'http://www.reuters.com/article/idUSL8N19Q321'
p1357
sg4
S'20160705\xc2\xa010:25AM UTC'
p1358
sg6
S'BRIEF-Ialbatros Group carries out mergers of its units'
p1359
sa(dp1360
g2
S'http://www.reuters.com/article/idUSFWN19Q0FO'
p1361
sg4
S'20160705\xc2\xa010:24AM UTC'
p1362
sg6
S'BRIEF-Hutchison, Vimpelcom in exclusive talks with Iliad to sell Italy assets- Bloomberg'
p1363
sa(dp1364
g2
S'http://www.reuters.com/article/us-britain-eu-conservative-leadership-fa-idUSKCN0ZK1FM'
p1365
sg4
S'20160705\xc2\xa010:22AM UTC'
p1366
sg6
S"Factbox: How does the UK's Conservative Party elect a leader, and who is running?"
p1367
sa(dp1368
g2
S'http://www.reuters.com/article/idUSFWN19Q0FN'
p1369
sg4
S'20160705\xc2\xa010:19AM UTC'
p1370
sg6
S'BRIEF-Banca Generali total net inflows in June at EUR 525 mln'
p1371
sa(dp1372
g2
S'http://www.reuters.com/article/lufthansa-outlook-idUSL8N19Q2ES'
p1373
sg4
S'20160705\xc2\xa010:18AM UTC'
p1374
sg6
S'UPDATE 2-Lufthansa sticks to profit target despite Brexit uncertainty'
p1375
sa(dp1376
g2
S'http://www.reuters.com/article/us-motor-f1-austria-idUSKCN0ZK1EY'
p1377
sg4
S'20160705\xc2\xa010:17AM UTC'
p1378
sg6
S'Mercedes have some tough choices to take'
p1379
sa(dp1380
g2
S'http://www.reuters.com/article/idUSFWN19Q0FL'
p1381
sg4
S'20160705\xc2\xa010:16AM UTC'
p1382
sg6
S'BRIEF-Skye Bank announces changes on board'
p1383
sa(dp1384
g2
S'http://www.reuters.com/article/idUSFWN19Q0FM'
p1385
sg4
S'20160705\xc2\xa010:15AM UTC'
p1386
sg6
S'BRIEF-Symbio polska says EECP I sold its entire 13.55 percent stake in the company'
p1387
sa(dp1388
g2
S'http://www.reuters.com/article/canada-forex-idUSL1N19Q0EK'
p1389
sg4
S'20160705\xc2\xa010:14AM UTC'
p1390
sg6
S'CANADA FX DEBT-C$ strengthens to 10-day high, helped by global stimulus prospects'
p1391
sa(dp1392
g2
S'http://www.reuters.com/article/edf-britain-idUSL8N19Q2FS'
p1393
sg4
S'20160705\xc2\xa010:14AM UTC'
p1394
sg6
S'UPDATE 1-EDF says has full confidence in Hinkley Point, Brexit no barrier'
p1395
sa(dp1396
g2
S'http://www.reuters.com/article/chevron-kazakhstan-idUSL8N19Q2TD'
p1397
sg4
S'20160705\xc2\xa010:13AM UTC'
p1398
sg6
S'UPDATE 1-Kazakhstan expects decision on Tuesday on Tengiz oil field expansion'
p1399
sa(dp1400
g2
S'http://www.reuters.com/article/china-cicc-idUSL4N19Q3FG'
p1401
sg4
S'20160705\xc2\xa010:13AM UTC'
p1402
sg6
S'CICC and China Investment Securities in preliminary cooperation talks'
p1403
sa(dp1404
g2
S'http://www.reuters.com/article/us-britain-eu-tax-trusts-idUSKCN0ZK1ER'
p1405
sg4
S'20160705\xc2\xa010:12AM UTC'
p1406
sg6
S'After Brexit, EU proposes tougher tax rules on trusts'
p1407
sa(dp1408
g2
S'http://www.reuters.com/article/nigeria-skye-bank-idUSL8N19Q2Y4'
p1409
sg4
S'20160705\xc2\xa010:12AM UTC'
p1410
sg6
S"Nigeria's central bank replaces Skye Bank execs over capital issues"
p1411
sa(dp1412
g2
S'http://www.reuters.com/article/denmark-reserves-idUSC7N154018'
p1413
sg4
S'20160705\xc2\xa010:10AM UTC'
p1414
sg6
S"Denmark's FX reserves rise; central bank intervened before UK referendum"
p1415
sa(dp1416
g2
S'http://www.reuters.com/article/libor-barclays-verdict-idUSL8N19Q25Q'
p1417
sg4
S'20160705\xc2\xa010:09AM UTC'
p1418
sg6
S'UPDATE 2-Three former Barclays traders found guilty in Libor rigging trial'
p1419
sa(dp1420
g2
S'http://www.reuters.com/article/britain-eu-tax-trusts-idUSL8N19Q2ZJ'
p1421
sg4
S'20160705\xc2\xa010:08AM UTC'
p1422
sg6
S'UPDATE 1-After Brexit, EU proposes tougher tax rules on trusts'
p1423
sa(dp1424
g2
S'http://www.reuters.com/article/us-swiss-art-giacometti-idUSKCN0ZK1EF'
p1425
sg4
S'20160705\xc2\xa010:05AM UTC'
p1426
sg6
S'Giacometti art trove at center of Franco-Swiss legal tussle'
p1427
sa(dp1428
g2
S'http://www.reuters.com/article/europe-budget-renzi-idUSL8N19Q2YC'
p1429
sg4
S'20160705\xc2\xa010:02AM UTC'
p1430
sg6
S"Italy's Renzi says it would be wrong to sanction Spain, Portugal over deficits"
p1431
sa(dp1432
g2
S'http://www.reuters.com/article/britain-eu-tax-trusts-idUSL8N19Q2VF'
p1433
sg4
S'20160705\xc2\xa010:00AM UTC'
p1434
sg6
S'After Brexit, EU proposes tougher tax rules on trusts'
p1435
sa(dp1436
g2
S'http://www.reuters.com/article/idUSFWN19O01F'
p1437
sg4
S'20160705\xc2\xa09:56AM UTC'
p1438
sg6
S'BRIEF-Galane Gold reports qtrly production'
p1439
sa(dp1440
g2
S'http://www.reuters.com/article/us-zimbabwe-protests-idUSKCN0ZK1DO'
p1441
sg4
S'20160705\xc2\xa09:55AM UTC'
p1442
sg6
S"Zimbabwe police fire teargas as taxi drivers' protest turns violent"
p1443
sa(dp1444
g2
S'http://www.reuters.com/article/swiss-art-giacometti-idUSL8N19M541'
p1445
sg4
S'20160705\xc2\xa09:55AM UTC'
p1446
sg6
S'Giacometti art trove at centre of Franco-Swiss legal tussle'
p1447
sa(dp1448
g2
S'http://www.reuters.com/article/us-britain-eu-almirall-idUSKCN0ZK1D7'
p1449
sg4
S'20160705\xc2\xa09:53AM UTC'
p1450
sg6
S'Top Spanish drugmaker fears disruption if EMA moves from Britain'
p1451
sa(dp1452
g2
S'http://www.reuters.com/article/idUSFWN19Q0FE'
p1453
sg4
S'20160705\xc2\xa09:47AM UTC'
p1454
sg6
S'BRIEF-SFO says has 14 days to reconsider re-trial of two defendants in Libor rigging trial'
p1455
sa(dp1456
g2
S'http://www.reuters.com/article/us-spain-almirall-valeant-idUSKCN0ZK1D9'
p1457
sg4
S'20160705\xc2\xa09:47AM UTC'
p1458
sg6
S"Spain's Almirall eyes Valeant skin drugs to boost dermatology"
p1459
sa(dp1460
g2
S'http://www.reuters.com/article/gol-linhas-ae-restructuring-outlook-idUSE6N18S01K'
p1461
sg4
S'20160705\xc2\xa09:41AM UTC'
p1462
sg6
S"Brazil's Gol still looking for solution for debt issues -CFO"
p1463
sa(dp1464
g2
S'http://www.reuters.com/article/britain-eu-almirall-idUSL8N19Q24H'
p1465
sg4
S'20160705\xc2\xa09:40AM UTC'
p1466
sg6
S'Top Spanish drugmaker fears disruption if EMA moves from Britain'
p1467
sa(dp1468
g2
S'http://www.reuters.com/article/egypt-yields-idUSL8N19Q2VU'
p1469
sg4
S'20160705\xc2\xa09:40AM UTC'
p1470
sg6
S"Yield on Egypt's 5-year bond rises at Monday's auction"
p1471
sa(dp1472
g2
S'http://www.reuters.com/article/canada-stocks-open-idUSL1N19Q0DM'
p1473
sg4
S'20160705\xc2\xa09:39AM UTC'
p1474
sg6
S'CANADA STOCKS-TSX rises to 3-week high, led by mining stocks'
p1475
sa(dp1476
g2
S'http://www.reuters.com/article/axa-ma-phoenix-group-cma-idUSL8N19Q2SQ'
p1477
sg4
S'20160705\xc2\xa09:38AM UTC'
p1478
sg6
S"UK's competition watchdog to look at AXA-Phoenix deal"
p1479
sa(dp1480
g2
S'http://www.reuters.com/article/us-poland-pensions-morawiecki-interview-idUSKCN0ZK1CA'
p1481
sg4
S'20160705\xc2\xa09:36AM UTC'
p1482
sg6
S'Poland says plans no more changes to pension system'
p1483
sa(dp1484
g2
S'http://www.reuters.com/article/idUSL8N19Q2S3'
p1485
sg4
S'20160705\xc2\xa09:36AM UTC'
p1486
sg6
S'BRIEF-PBG negotiates with creditors'
p1487
sa(dp1488
g2
S'http://www.reuters.com/article/us-poland-pensions-factbox-idUSKCN0ZK1C8'
p1489
sg4
S'20160705\xc2\xa09:35AM UTC'
p1490
sg6
S"Factbox: Details of Poland's new pension plan"
p1491
sa(dp1492
g2
S'http://www.reuters.com/article/europe-stocks-idUSL8N19Q2SH'
p1493
sg4
S'20160705\xc2\xa09:33AM UTC'
p1494
sg6
S'European shares end post-Brexit rally; Monte Paschi hits record low'
p1495
sa(dp1496
g2
S'http://www.reuters.com/article/us-chevron-kazakhstan-idUSKCN0ZK1BV'
p1497
sg4
S'20160705\xc2\xa09:32AM UTC'
p1498
sg6
S'Kazakhstan, Chevron-led group to announce Tengiz expansion decision'
p1499
sa(dp1500
g2
S'http://www.reuters.com/article/idUSL8N19Q2SU'
p1501
sg4
S'20160705\xc2\xa09:32AM UTC'
p1502
sg6
S'BRIEF-Erne Ventures to apply for listing on WSE main market'
p1503
sa(dp1504
g2
S'http://www.reuters.com/article/idUSFWN19Q0FH'
p1505
sg4
S'20160705\xc2\xa09:31AM UTC'
p1506
sg6
S"BRIEF-Morien Resources names Mike O'Keefe CFO"
p1507
sa(dp1508
g2
S'http://www.reuters.com/article/zimbabwe-protests-idUSL8N19Q27P'
p1509
sg4
S'20160705\xc2\xa09:30AM UTC'
p1510
sg6
S"Zimbabwe police fire teargas as taxi drivers' protest turns violent"
p1511
sa(dp1512
g2
S'http://www.reuters.com/article/chevron-kazakhstan-idUSL8N19Q2PU'
p1513
sg4
S'20160705\xc2\xa09:28AM UTC'
p1514
sg6
S'Kazakhstan, Chevron-led group to announce Tengiz expansion decision'
p1515
sa(dp1516
g2
S'http://www.reuters.com/article/lse-deutsche-boerse-shareholders-idUSL8N19Q2IC'
p1517
sg4
S'20160705\xc2\xa09:28AM UTC'
p1518
sg6
S'UPDATE 1-LSE shareholders back Brexit-clouded Deutsche Boerse merger'
p1519
sa(dp1520
g2
S'http://www.reuters.com/article/us-saudi-security-idUSKCN0ZK02R'
p1521
sg4
S'20160705\xc2\xa09:27AM UTC'
p1522
sg6
S'Bomber killed, two police wounded in blast outside U.S. consulate in Jeddah'
p1523
sa(dp1524
g2
S'http://www.reuters.com/article/us-nigeria-delta-idUSKCN0ZK1BG'
p1525
sg4
S'20160705\xc2\xa09:25AM UTC'
p1526
sg6
S'Twitter suspends account of Nigerian militant group Niger Delta Avengers'
p1527
sa(dp1528
g2
S'http://www.reuters.com/article/chile-cenbank-minutes-idUSL1N19Q0AN'
p1529
sg4
S'20160705\xc2\xa09:21AM UTC'
p1530
sg6
S'UPDATE 1-Chile central bank says June rate hold was only plausible option'
p1531
sa(dp1532
g2
S'http://www.reuters.com/article/idUSL4N19Q3FU'
p1533
sg4
S'20160705\xc2\xa09:20AM UTC'
p1534
sg6
S'BRIEF-Guangxi Future Technology scraps asset restructuring'
p1535
sa(dp1536
g2
S'http://www.reuters.com/article/idUSFWN19O01A'
p1537
sg4
S'20160705\xc2\xa09:18AM UTC'
p1538
sg6
S'BRIEF-StorageVault Canada to buy self storage assets in Calgary'
p1539
sa(dp1540
g2
S'http://www.reuters.com/article/nigeria-delta-idUSL8N19Q2G8'
p1541
sg4
S'20160705\xc2\xa09:17AM UTC'
p1542
sg6
S'Twitter suspends account of Nigerian militant group Niger Delta Avengers'
p1543
sa(dp1544
g2
S'http://www.reuters.com/article/idUSL4N19Q3F7'
p1545
sg4
S'20160705\xc2\xa09:16AM UTC'
p1546
sg6
S"BRIEF-China's Saturday to acquire stakes in two companies for 371.4 mln yuan"
p1547
sa(dp1548
g2
S'http://www.reuters.com/article/bnp-paribas-moves-idUSL8N19Q2LG'
p1549
sg4
S'20160705\xc2\xa09:12AM UTC'
p1550
sg6
S'MOVES-BNP Paribas makes senior appointments in retail banking division'
p1551
sa(dp1552
g2
S'http://www.reuters.com/article/us-health-sex-men-testosterone-idUSKCN0ZK1AF'
p1553
sg4
S'20160705\xc2\xa09:12AM UTC'
p1554
sg6
S'Testosterone gel boosts sexual desire and activity in older men'
p1555
sa(dp1556
g2
S'http://www.reuters.com/article/idUSFWN19Q0FC'
p1557
sg4
S'20160705\xc2\xa09:08AM UTC'
p1558
sg6
S'BRIEF-AlliancePharma to buy three companies'
p1559
sa(dp1560
g2
S'http://www.reuters.com/article/israel-dankner-court-idUSL8N19Q1QW'
p1561
sg4
S'20160705\xc2\xa09:08AM UTC'
p1562
sg6
S'Israeli business mogul Dankner found guilty of securities fraud'
p1563
sa(dp1564
g2
S'http://www.reuters.com/article/idUSL8N19Q2PE'
p1565
sg4
S'20160705\xc2\xa09:07AM UTC'
p1566
sg6
S'BRIEF-SpectraCure: Patent for dose evaluation approved in US'
p1567
sa(dp1568
g2
S'http://www.reuters.com/article/us-sport-doping-rowing-russia-appeal-idUSKCN0ZK181'
p1569
sg4
S'20160705\xc2\xa09:06AM UTC'
p1570
sg6
S'Russian rowers to appeal Rio doping ban at CAS - TASS'
p1571
sa(dp1572
g2
S'http://www.reuters.com/article/vueling-delays-idUSL8N19Q28A'
p1573
sg4
S'20160705\xc2\xa09:04AM UTC'
p1574
sg6
S'Budget airline Vueling faces inquiry over Barcelona flight chaos'
p1575
sa(dp1576
g2
S'http://www.reuters.com/article/space-station-soyuz-idUSL8N19Q2MR'
p1577
sg4
S'20160705\xc2\xa09:03AM UTC'
p1578
sg6
S'Russia prepares upgraded Soyuz spacecraft for launch'
p1579
sa(dp1580
g2
S'http://www.reuters.com/article/idUSFit966267'
p1581
sg4
S'20160705\xc2\xa09:03AM UTC'
p1582
sg6
S'Fitch: Brexit May Impact MEA Sovereigns via Markets, Trade, Aid'
p1583
sa(dp1584
g2
S'http://www.reuters.com/article/india-cenbank-khan-idUSL4N19Q3CZ'
p1585
sg4
S'20160705\xc2\xa08:59AM UTC'
p1586
sg6
S'UPDATE 1-Bundesbank concerns pushed India to halt key euro clearance - former c.bank deputy Khan'
p1587
sa(dp1588
g2
S'http://www.reuters.com/article/idUSL8N19Q2NR'
p1589
sg4
S'20160705\xc2\xa08:57AM UTC'
p1590
sg6
S'BRIEF-WSE suspends share trading of 12 companies'
p1591
sa(dp1592
g2
S'http://www.reuters.com/article/thyssenkrupp-industrialsolutions-restruc-idUSL8N19Q1PC'
p1593
sg4
S'20160705\xc2\xa08:57AM UTC'
p1594
sg6
S'UPDATE 2-Thyssenkrupp plans further shakeup of Industrial Solutions'
p1595
sa(dp1596
g2
S'http://www.reuters.com/article/us-britain-eu-fox-idUSKCN0ZK150'
p1597
sg4
S'20160705\xc2\xa08:54AM UTC'
p1598
sg6
S'British PM candidate Fox says no place for free movement in trade deal'
p1599
sa(dp1600
g2
S'http://www.reuters.com/article/cme-wheat-idUSL8N19M4VD'
p1601
sg4
S'20160705\xc2\xa08:52AM UTC'
p1602
sg6
S'CME to count on French grain firms in EU wheat battle with Euronext'
p1603
sa(dp1604
g2
S'http://www.reuters.com/article/idUSFWN19O017'
p1605
sg4
S'20160705\xc2\xa08:51AM UTC'
p1606
sg6
S'BRIEF-Tattelekom approves credit agreement for RUB 500 million'
p1607
sa(dp1608
g2
S'http://www.reuters.com/article/idUSFWN19Q0FA'
p1609
sg4
S'20160705\xc2\xa08:51AM UTC'
p1610
sg6
S'BRIEF-Infinity Trust Mortgage Bank reports HY profit before tax of 151.3 mln naira'
p1611
sa(dp1612
g2
S'http://www.reuters.com/article/idUSL8N19Q2M4'
p1613
sg4
S'20160705\xc2\xa08:49AM UTC'
p1614
sg6
S'BRIEF-SensoDetect: Private placement and warrant program fully subscribed'
p1615
sa(dp1616
g2
S'http://www.reuters.com/article/idUSL8N19Q2LN'
p1617
sg4
S'20160705\xc2\xa08:49AM UTC'
p1618
sg6
S'RPT-BRIEF-WSE excludes 4 companies from trade as of July 5'
p1619
sa(dp1620
g2
S'http://www.reuters.com/article/idUSFWN19Q0F8'
p1621
sg4
S'20160705\xc2\xa08:46AM UTC'
p1622
sg6
S'BRIEF-Greenbay Properties concludes agreement to acquire Planet Tu\x7f Shopping Centre'
p1623
sa(dp1624
g2
S'http://www.reuters.com/article/us-britain-eu-leadsom-idUSKCN0ZK0ZH'
p1625
sg4
S'20160705\xc2\xa08:44AM UTC'
p1626
sg6
S'Candidate for British PM Leadsom says Brexit talks should be short'
p1627
sa(dp1628
g2
S'http://www.reuters.com/article/idUSASM0004KS'
p1629
sg4
S'20160705\xc2\xa08:44AM UTC'
p1630
sg6
S'BRIEF-SinnerSchrader wins significant new business from car industry'
p1631
sa(dp1632
g2
S'http://www.reuters.com/article/kuka-investor-loh-idUSL8N19Q27Y'
p1633
sg4
S'20160705\xc2\xa08:43AM UTC'
p1634
sg6
S"UPDATE 2-China's Midea set to take control at German robotics firm Kuka"
p1635
sa(dp1636
g2
S'http://www.reuters.com/article/e-on-nuclear-court-idUSL8N19Q2EK'
p1637
sg4
S'20160705\xc2\xa08:43AM UTC'
p1638
sg6
S'UPDATE 1-German court rejects E.ON damages claim in nuclear lawsuit'
p1639
sa(dp1640
g2
S'http://www.reuters.com/article/nigeria-skye-bank-idUSL8N19Q2HZ'
p1641
sg4
S'20160705\xc2\xa08:42AM UTC'
p1642
sg6
S"Nigeria's cenbank sacks Skye Bank execs over capital issues - source"
p1643
sa(dp1644
g2
S'http://www.reuters.com/article/idUSFWN19O015'
p1645
sg4
S'20160705\xc2\xa08:40AM UTC'
p1646
sg6
S"BRIEF-UK's CMA probes Phoenix's purchase of UK life and savings business from AXA"
p1647
sa(dp1648
g2
S'http://www.reuters.com/article/idUSL8N19Q2JE'
p1649
sg4
S'20160705\xc2\xa08:39AM UTC'
p1650
sg6
S'BRIEF-Prague bourse says H1 trading volume falls 14.5 pct'
p1651
sa(dp1652
g2
S'http://www.reuters.com/article/sri-lanka-forex-idUSL4N19Q38M'
p1653
sg4
S'20160705\xc2\xa08:39AM UTC'
p1654
sg6
S'Sri Lanka rupee ends weaker on importer dollar demand'
p1655
sa(dp1656
g2
S'http://www.reuters.com/article/britain-eu-fox-idUSL8N19Q2E5'
p1657
sg4
S'20160705\xc2\xa08:38AM UTC'
p1658
sg6
S'UPDATE 1-British PM candidate Fox says no place for free movement in trade deal'
p1659
sa(dp1660
g2
S'http://www.reuters.com/article/chile-cenbank-minutes-idUSC0N15D01F'
p1661
sg4
S'20160705\xc2\xa08:38AM UTC'
p1662
sg6
S'Chile central bank only weighed interest rate hold as option in June'
p1663
sa(dp1664
g2
S'http://www.reuters.com/article/idUSFWN19Q0F7'
p1665
sg4
S'20160705\xc2\xa08:37AM UTC'
p1666
sg6
S'BRIEF-eQ: Transactions involving eQ shares'
p1667
sa(dp1668
g2
S'http://www.reuters.com/article/idUSL8N19Q2JW'
p1669
sg4
S'20160705\xc2\xa08:37AM UTC'
p1670
sg6
S'BRIEF-WSE excludes 4 companies from trade as of July 5'
p1671
sa(dp1672
g2
S'http://www.reuters.com/article/us-china-japan-idUSKCN0ZK17P'
p1673
sg4
S'20160705\xc2\xa08:35AM UTC'
p1674
sg6
S"China criticizes Japan over 'dangerous' jet scramble"
p1675
sa(dp1676
g2
S'http://www.reuters.com/article/sri-lanka-stocks-idUSL4N19Q36V'
p1677
sg4
S'20160705\xc2\xa08:33AM UTC'
p1678
sg6
S'Sri Lankan shares post near 3-mth closing low on policy uncertainties'
p1679
sa(dp1680
g2
S'http://www.reuters.com/article/idUSFWN19Q0F4'
p1681
sg4
S'20160705\xc2\xa08:31AM UTC'
p1682
sg6
S"BRIEF-LSE shares down 0.5 pct after co's shareholders approve LSE-Deutsche Boerse merger"
p1683
sa(dp1684
g2
S'http://www.reuters.com/article/baltic-index-idUSL4N19Q3BF'
p1685
sg4
S'20160705\xc2\xa08:31AM UTC'
p1686
sg6
S'Baltic index up as demand rises across all segments'
p1687
sa(dp1688
g2
S'http://www.reuters.com/article/idUSL8N19Q2HT'
p1689
sg4
S'20160705\xc2\xa08:31AM UTC'
p1690
sg6
S'BRIEF-LSE shareholders approve Deutsche Boerse merger'
p1691
sa(dp1692
g2
S'http://www.reuters.com/article/sport-doping-rowing-russia-appeal-idUSL8N19Q2B1'
p1693
sg4
S'20160705\xc2\xa08:31AM UTC'
p1694
sg6
S'Rowing-Russian rowers to appeal Rio doping ban at CAS - TASS'
p1695
sa(dp1696
g2
S'http://www.reuters.com/article/nigeria-landrights-idUSL5N18E3XZ'
p1697
sg4
S'20160705\xc2\xa08:31AM UTC'
p1698
sg6
S'Clarion call for Nigerian farmers to unite in the battle to save their lands'
p1699
sa(dp1700
g2
S'http://www.reuters.com/article/idUSL4N19Q3C6'
p1701
sg4
S'20160705\xc2\xa08:30AM UTC'
p1702
sg6
S"BRIEF-Shandong Linglong Tyre's share trade to debut on July 6"
p1703
sa(dp1704
g2
S'http://www.reuters.com/article/us-investment-banking-fees-idUSKCN0ZK0Y9'
p1705
sg4
S'20160705\xc2\xa08:29AM UTC'
p1706
sg6
S'Global investment banks have slowest first half since 2012'
p1707
sa(dp1708
g2
S'http://www.reuters.com/article/lse-deutsche-boerse-shareholders-vote-idUSL4N19N3EV'
p1709
sg4
S'20160705\xc2\xa08:28AM UTC'
p1710
sg6
S'LSE shareholders approve Deutsche Boerse merger'
p1711
sa(dp1712
g2
S'http://www.reuters.com/article/britain-stocks-idUSL8N19Q1EV'
p1713
sg4
S'20160705\xc2\xa08:27AM UTC'
p1714
sg6
S"Weaker property stocks halt FTSE's post-Brexit recovery"
p1715
sa(dp1716
g2
S'http://www.reuters.com/article/idUSL4N19Q3BT'
p1717
sg4
S'20160705\xc2\xa08:26AM UTC'
p1718
sg6
S'BRIEF-Suzhou New Sea Union Telecom to buy stake in battery maker for 569.4 mln yuan'
p1719
sa(dp1720
g2
S'http://www.reuters.com/article/us-olympics-swimming-ning-idUSKCN0ZK160'
p1721
sg4
S'20160705\xc2\xa08:23AM UTC'
p1722
sg6
S'Chinese swimmer Ning assures fans over Rio'
p1723
sa(dp1724
g2
S'http://www.reuters.com/article/us-britain-royals-idUSKCN0ZK16E'
p1725
sg4
S'20160705\xc2\xa08:21AM UTC'
p1726
sg6
S"Queen's wardrobe goes on display at Buckingham Palace exhibit"
p1727
sa(dp1728
g2
S'http://www.reuters.com/article/idUSL8N19Q2DK'
p1729
sg4
S'20160705\xc2\xa08:18AM UTC'
p1730
sg6
S'UPDATE 1-Norway oil service workers may strike; output unaffected'
p1731
sa(dp1732
g2
S'http://www.reuters.com/article/eu-britain-imf-idUSP6N0X502A'
p1733
sg4
S'20160705\xc2\xa08:17AM UTC'
p1734
sg6
S'EU exit could trim UK GDP by 1.5 to 4.5 pct by 2019 -IMF head'
p1735
sa(dp1736
g2
S'http://www.reuters.com/article/idUSL8N19Q1Z0'
p1737
sg4
S'20160705\xc2\xa08:14AM UTC'
p1738
sg6
S'BRIEF-Izo-Blok announces details of series D shares issuance'
p1739
sa(dp1740
g2
S'http://www.reuters.com/article/idUSFWN19Q0F0'
p1741
sg4
S'20160705\xc2\xa08:11AM UTC'
p1742
sg6
S'BRIEF-Formpipe Software receives SEK 1.4 mln order in UK'
p1743
sa(dp1744
g2
S'http://www.reuters.com/article/india-cenbank-bonds-idUSB8N19G01T'
p1745
sg4
S'20160705\xc2\xa08:11AM UTC'
p1746
sg6
S'BRIEF-India cenbank says India to sell 150 bln rupees of bonds on July 8'
p1747
sa(dp1748
g2
S'http://www.reuters.com/article/russia-onexim-idUSL8N19Q035'
p1749
sg4
S'20160705\xc2\xa08:10AM UTC'
p1750
sg6
S"UPDATE 2-Prokhorov's Onexim says not selling all Russian assets"
p1751
sa(dp1752
g2
S'http://www.reuters.com/article/idUSFWN19O014'
p1753
sg4
S'20160705\xc2\xa08:07AM UTC'
p1754
sg6
S'BRIEF-Ailleron unit signs deal with PKO BP'
p1755
sa(dp1756
g2
S'http://www.reuters.com/article/idUSL4N19Q3AW'
p1757
sg4
S'20160705\xc2\xa08:06AM UTC'
p1758
sg6
S'BRIEF-Shenzhen Sunway Communication to invest up to 300 mln yuan in acoustics business'
p1759
sa(dp1760
g2
S'http://www.reuters.com/article/edf-britain-idUSL8N19Q2B8'
p1761
sg4
S'20160705\xc2\xa08:04AM UTC'
p1762
sg6
S'EDF says has full confidence in Hinkley Point, Brexit no barrier'
p1763
sa(dp1764
g2
S'http://www.reuters.com/article/idUSFWN19Q0EZ'
p1765
sg4
S'20160705\xc2\xa08:04AM UTC'
p1766
sg6
S'BRIEF-Spectral Medical to buy back shares in normal course issuer bid'
p1767
sa(dp1768
g2
S'http://www.reuters.com/article/idUS225941476220160704'
p1769
sg4
S'20160705\xc2\xa07:58AM UTC'
p1770
sg6
S'UK\xe2\x80\x99s tax cut goal: calm business, scare Brussels'
p1771
sa(dp1772
g2
S'http://www.reuters.com/article/britain-eu-fox-idUSU8N0Z101D'
p1773
sg4
S'20160705\xc2\xa07:57AM UTC'
p1774
sg6
S'British PM candidate Fox says no place for free movement in trade deal'
p1775
sa(dp1776
g2
S'http://www.reuters.com/article/britain-royals-idUSL8N19Q25C'
p1777
sg4
S'20160705\xc2\xa07:57AM UTC'
p1778
sg6
S"Queen's wardrobe goes on display at Buckingham Palace exhibit"
p1779
sa(dp1780
g2
S'http://www.reuters.com/article/idUSL4N19Q3A7'
p1781
sg4
S'20160705\xc2\xa07:56AM UTC'
p1782
sg6
S"BRIEF-Risesun Real Estate's unit wins land auction for 365 mln yuan"
p1783
sa(dp1784
g2
S'http://www.reuters.com/article/britain-eu-leadsom-idUSL8N19Q22Y'
p1785
sg4
S'20160705\xc2\xa07:56AM UTC'
p1786
sg6
S'UPDATE 1-Candidate for British PM Leadsom says Brexit talks should be short'
p1787
sa(dp1788
g2
S'http://www.reuters.com/article/idUSL8N19Q2BV'
p1789
sg4
S'20160705\xc2\xa07:54AM UTC'
p1790
sg6
S'BRIEF-VALUE FIZ raises stake in Tesgas to above 10 pct'
p1791
sa(dp1792
g2
S'http://www.reuters.com/article/gol-linhas-ae-restructuring-idUSL1N19Q08F'
p1793
sg4
S'20160705\xc2\xa07:47AM UTC'
p1794
sg6
S"Brazil's Gol says bondholders tendered $174.7 mln of bonds in swap deal"
p1795
sa(dp1796
g2
S'http://www.reuters.com/article/china-economy-policy-idUSL4N19Q37C'
p1797
sg4
S'20160705\xc2\xa07:44AM UTC'
p1798
sg6
S'UPDATE 1-China c.bank says to keep appropriate liquidity, stable yuan'
p1799
sa(dp1800
g2
S'http://www.reuters.com/article/us-europe-migrants-italy-arrests-idUSKCN0ZK13Q'
p1801
sg4
S'20160705\xc2\xa07:43AM UTC'
p1802
sg6
S'Italian police smash suspected people-smuggling ring, arrest dozens'
p1803
sa(dp1804
g2
S'http://www.reuters.com/article/idUSFWN19Q0EV'
p1805
sg4
S'20160705\xc2\xa07:41AM UTC'
p1806
sg6
S'BRIEF-Cegedim SRH partners with Saint-Gobain on a pilot program for easy-to-read pay stubs'
p1807
sa(dp1808
g2
S'http://www.reuters.com/article/idUSFWN19Q0EU'
p1809
sg4
S'20160705\xc2\xa07:40AM UTC'
p1810
sg6
S'BRIEF-cBrain to deliver F2 to Ministry of Taxation'
p1811
sa(dp1812
g2
S'http://www.reuters.com/article/idUSFWN19O011'
p1813
sg4
S'20160705\xc2\xa07:40AM UTC'
p1814
sg6
S'BRIEF-Pavel Titov to acquire Abrau-Durso shares for RUB 2.01 billion'
p1815
sa(dp1816
g2
S'http://www.reuters.com/article/idUSL8N19Q29K'
p1817
sg4
S'20160705\xc2\xa07:39AM UTC'
p1818
sg6
S'BRIEF-Groclin signs 1.7 mln euros investment credit agreement'
p1819
sa(dp1820
g2
S'http://www.reuters.com/article/idUSL8N19Q250'
p1821
sg4
S'20160705\xc2\xa07:38AM UTC'
p1822
sg6
S'BRIEF-ZPC Otmuchow unit to be dissolved'
p1823
sa(dp1824
g2
S'http://www.reuters.com/article/idUSL4N19Q38E'
p1825
sg4
S'20160705\xc2\xa07:37AM UTC'
p1826
sg6
S'BRIEF-TCL to issue 2.0 bln yuan bonds'
p1827
sa(dp1828
g2
S'http://www.reuters.com/article/us-china-corruption-idUSKCN0ZK0M7'
p1829
sg4
S'20160705\xc2\xa07:35AM UTC'
p1830
sg6
S'China jails former aide to retired Chinese president for life'
p1831
sa(dp1832
g2
S'http://www.reuters.com/article/idUSFWN19Q0ES'
p1833
sg4
S'20160705\xc2\xa07:34AM UTC'
p1834
sg6
S'BRIEF-TSO3 says FDA clears additional claims of its sterilizer'
p1835
sa(dp1836
g2
S'http://www.reuters.com/article/us-tech-israel-employment-idUSKCN0ZK0ZF'
p1837
sg4
S'20160705\xc2\xa07:34AM UTC'
p1838
sg6
S"Israel's high tech boom threatened by shallow labor pool"
p1839
sa(dp1840
g2
S'http://www.reuters.com/article/idUSFWN19Q0ER'
p1841
sg4
S'20160705\xc2\xa07:32AM UTC'
p1842
sg6
S'BRIEF-Emera raises annual dividend by 10 pct'
p1843
sa(dp1844
g2
S'http://www.reuters.com/article/us-canada-helium-feature-idUSKCN0ZK12Y'
p1845
sg4
S'20160705\xc2\xa07:32AM UTC'
p1846
sg6
S'Full of hot air: Helium producers eye Canada as U.S. reserve shrinks'
p1847
sa(dp1848
g2
S'http://www.reuters.com/article/idUSL8N19Q27K'
p1849
sg4
S'20160705\xc2\xa07:31AM UTC'
p1850
sg6
S'Norway union says 663 oil service workers may strike from July 7'
p1851
sa(dp1852
g2
S'http://www.reuters.com/article/idUSL8N19Q1WK'
p1853
sg4
S'20160705\xc2\xa07:31AM UTC'
p1854
sg6
S'BRIEF-Coferal Enterprises sells its stake in Concept Liberty Group'
p1855
sa(dp1856
g2
S'http://www.reuters.com/article/india-ipos-idUSL4N19Q22K'
p1857
sg4
S'20160705\xc2\xa07:30AM UTC'
p1858
sg6
S'India IPO deals jump in H1, another $6 bln worth seen in the second half'
p1859
sa(dp1860
g2
S'http://www.reuters.com/article/fashion-paris-idUSL8N19Q1TR'
p1861
sg4
S'20160705\xc2\xa07:29AM UTC'
p1862
sg6
S'Luxury brands show autumn creations at Paris haute couture week'
p1863
sa(dp1864
g2
S'http://www.reuters.com/article/idUSL4N19Q383'
p1865
sg4
S'20160705\xc2\xa07:28AM UTC'
p1866
sg6
S'BRIEF-Ennoconn unit to buy 60 pct stake in AIS Cayman Technology Group'
p1867
sa(dp1868
g2
S'http://www.reuters.com/article/kuka-investor-loh-idUSF9N198011'
p1869
sg4
S'20160705\xc2\xa07:25AM UTC'
p1870
sg6
S'Kuka shareholder Loh has sold 10 pct stake to Midea - Handelsblatt'
p1871
sa(dp1872
g2
S'http://www.reuters.com/article/us-religion-ramadan-iftar-idUSKCN0ZK11A'
p1873
sg4
S'20160705\xc2\xa07:21AM UTC'
p1874
sg6
S"Ramadan's evening iftar meal"
p1875
sa(dp1876
g2
S'http://www.reuters.com/article/global-forex-idUSL8N19Q1ZC'
p1877
sg4
S'20160705\xc2\xa07:17AM UTC'
p1878
sg6
S'FOREX-Aussie recovers from shaky start as calm returns to FX markets'
p1879
sa(dp1880
g2
S'http://www.reuters.com/article/idUSL4N19Q36X'
p1881
sg4
S'20160705\xc2\xa07:15AM UTC'
p1882
sg6
S"BRIEF-Shenzhen Tellus' share trade to resume on July 5"
p1883
sa(dp1884
g2
S'http://www.reuters.com/article/libor-barclays-verdict-idUSL8N19F2D1'
p1885
sg4
S'20160705\xc2\xa07:15AM UTC'
p1886
sg6
S'Three former Barclays traders convicted in London Libor rigging trial'
p1887
sa(dp1888
g2
S'http://www.reuters.com/article/global-markets-idUSL8N19Q1WW'
p1889
sg4
S'20160705\xc2\xa07:14AM UTC'
p1890
sg6
S'GLOBAL MARKETS-European, UK shares snap winning streak, silver surges'
p1891
sa(dp1892
g2
S'http://www.reuters.com/article/idUSL4N19Q36Z'
p1893
sg4
S'20160705\xc2\xa07:13AM UTC'
p1894
sg6
S'BRIEF-Auras Technology adjusts conversion price of 2nd series domestic secured convertible corporate bonds'
p1895
sa(dp1896
g2
S'http://www.reuters.com/article/sri-lanka-cenbank-governor-idUSL4N19Q2OZ'
p1897
sg4
S'20160705\xc2\xa07:10AM UTC'
p1898
sg6
S"Sri Lanka's new c.bank chief vows to stay independent, avoid risky policies"
p1899
sa(dp1900
g2
S'http://www.reuters.com/article/idUSL4N19Q35Y'
p1901
sg4
S'20160705\xc2\xa07:10AM UTC'
p1902
sg6
S"BRIEF-Perfect World Pictures' units plan to set up buyout fund"
p1903
sa(dp1904
g2
S'http://www.reuters.com/article/idUSFWN19O010'
p1905
sg4
S'20160705\xc2\xa07:10AM UTC'
p1906
sg6
S'BRIEF-Alloycorp to be taken private by shareholder'
p1907
sa(dp1908
g2
S'http://www.reuters.com/article/idUSL4N19Q34X'
p1909
sg4
S'20160705\xc2\xa07:09AM UTC'
p1910
sg6
S"BRIEF-Changan Automobile's June sales down 0.9 pct y/y"
p1911
sa(dp1912
g2
S'http://www.reuters.com/article/idUSASC08VZS'
p1913
sg4
S'20160705\xc2\xa07:07AM UTC'
p1914
sg6
S'BRIEF-Merus says pound depreciation to marginally impact EBITDA'
p1915
sa(dp1916
g2
S'http://www.reuters.com/article/sport-doping-russia-cas-idUSL4N19Q308'
p1917
sg4
S'20160705\xc2\xa07:05AM UTC'
p1918
sg6
S"UPDATE 1-Doping-CAS to rule on Russian athletes' Olympic ban"
p1919
sa(dp1920
g2
S'http://www.reuters.com/article/idUSFWN19Q0EM'
p1921
sg4
S'20160705\xc2\xa07:05AM UTC'
p1922
sg6
S'BRIEF-TerraX to issue shares in private placement'
p1923
sa(dp1924
g2
S'http://www.reuters.com/article/bbo-royals-bluejays-preview-idUSMTZEC74SENKBX'
p1925
sg4
S'20160705\xc2\xa07:02AM UTC'
p1926
sg6
S'Preview: Royals at Blue Jays'
p1927
sa(dp1928
g2
S'http://www.reuters.com/article/bbo-padres-diamondbacks-preview-idUSMTZEC74SENKBW'
p1929
sg4
S'20160705\xc2\xa07:02AM UTC'
p1930
sg6
S'Preview: Padres at Diamondbacks'
p1931
sa(dp1932
g2
S'http://www.reuters.com/article/bbo-orioles-dodgers-preview-idUSMTZEC74SENKBV'
p1933
sg4
S'20160705\xc2\xa07:02AM UTC'
p1934
sg6
S'Preview: Orioles at Dodgers'
p1935
sa(dp1936
g2
S'http://www.reuters.com/article/bbo-tigers-indians-preview-idUSMTZEC74SENKBU'
p1937
sg4
S'20160705\xc2\xa07:02AM UTC'
p1938
sg6
S'Preview: Tigers at Indians'
p1939
sa(dp1940
g2
S'http://www.reuters.com/article/bbo-braves-phillies-preview-idUSMTZEC74SENKBT'
p1941
sg4
S'20160705\xc2\xa07:02AM UTC'
p1942
sg6
S'Preview: Braves at Phillies'
p1943
sa(dp1944
g2
S'http://www.reuters.com/article/bbo-marlins-mets-preview-idUSMTZEC74SENJBS'
p1945
sg4
S'20160705\xc2\xa07:02AM UTC'
p1946
sg6
S'Preview: Marlins at Mets'
p1947
sa(dp1948
g2
S'http://www.reuters.com/article/bbo-angels-rays-preview-idUSMTZEC74SENJBR'
p1949
sg4
S'20160705\xc2\xa07:02AM UTC'
p1950
sg6
S'Preview: Angels at Rays'
p1951
sa(dp1952
g2
S'http://www.reuters.com/article/bbo-mariners-astros-preview-idUSMTZEC74SENIBQ'
p1953
sg4
S'20160705\xc2\xa07:02AM UTC'
p1954
sg6
S'Preview: Mariners at Astros'
p1955
sa(dp1956
g2
S'http://www.reuters.com/article/bbo-brewers-nationals-preview-idUSMTZEC74SENIBP'
p1957
sg4
S'20160705\xc2\xa07:02AM UTC'
p1958
sg6
S'Preview: Brewers at Nationals'
p1959
sa(dp1960
g2
S'http://www.reuters.com/article/bbo-rangers-redsox-preview-idUSMTZEC74SENIBO'
p1961
sg4
S'20160705\xc2\xa07:02AM UTC'
p1962
sg6
S'Preview: Rangers at Red Sox'
p1963
sa(dp1964
g2
S'http://www.reuters.com/article/bbo-reds-cubs-preview-idUSMTZEC74SENIBN'
p1965
sg4
S'20160705\xc2\xa07:02AM UTC'
p1966
sg6
S'Preview: Reds at Cubs'
p1967
sa(dp1968
g2
S'http://www.reuters.com/article/bbo-pirates-cardinals-preview-idUSMTZEC74SENIBM'
p1969
sg4
S'20160705\xc2\xa07:02AM UTC'
p1970
sg6
S'Preview: Pirates at Cardinals'
p1971
sa(dp1972
g2
S'http://www.reuters.com/article/bbo-rockies-giants-preview-idUSMTZEC74SENIBL'
p1973
sg4
S'20160705\xc2\xa07:02AM UTC'
p1974
sg6
S'Preview: Rockies at Giants'
p1975
sa(dp1976
g2
S'http://www.reuters.com/article/bbo-athletics-twins-preview-idUSMTZEC74SENHBK'
p1977
sg4
S'20160705\xc2\xa07:02AM UTC'
p1978
sg6
S'Preview: Athletics at Twins'
p1979
sa(dp1980
g2
S'http://www.reuters.com/article/westchina-cement-ma-anhui-conch-idUSL4N19Q2QP'
p1981
sg4
S'20160705\xc2\xa07:00AM UTC'
p1982
sg6
S'UPDATE 1-West China Cement shares plunge after Anhui Conch scraps deal'
p1983
sa(dp1984
g2
S'http://www.reuters.com/article/religion-ramadan-iftar-idUSL8N19N31N'
p1985
sg4
S'20160705\xc2\xa07:00AM UTC'
p1986
sg6
S"WIDER IMAGE-Ramadan's evening iftar meal"
p1987
sa(dp1988
g2
S'http://www.reuters.com/article/thyssenkrupp-industrialsolutions-restruc-idUSL8N19Q1TT'
p1989
sg4
S'20160705\xc2\xa06:58AM UTC'
p1990
sg6
S'UPDATE 1-Thyssenkrupp looking at further shakeup of Industrial Solutions'
p1991
sa(dp1992
g2
S'http://www.reuters.com/article/johnston-press-divestiture-tindle-idUSL4N19Q334'
p1993
sg4
S'20160705\xc2\xa06:56AM UTC'
p1994
sg6
S'Johnston Press to sell Isle of Man titles to Tindle Newspapers'
p1995
sa(dp1996
g2
S'http://www.reuters.com/article/idUSL4N19Q34W'
p1997
sg4
S'20160705\xc2\xa06:56AM UTC'
p1998
sg6
S'BRIEF-Jetway Information says 2015 dividend record date is Aug. 3'
p1999
sa(dp2000
g2
S'http://www.reuters.com/article/britain-eu-leadsom-tariffs-idUSU8N0Z101C'
p2001
sg4
S'20160705\xc2\xa06:55AM UTC'
p2002
sg6
S'UK PM candidate Leadsom says she believes tariff-free trade with EU possible'
p2003
sa(dp2004
g2
S'http://www.reuters.com/article/us-britain-eu-scotland-idUSKCN0ZK0NG'
p2005
sg4
S'20160705\xc2\xa06:54AM UTC'
p2006
sg6
S'Top Scottish Conservative says London should not block second independence vote'
p2007
sa(dp2008
g2
S'http://www.reuters.com/article/us-britain-eu-johnson-idUSKCN0ZK0GW'
p2009
sg4
S'20160705\xc2\xa06:54AM UTC'
p2010
sg6
S'Ex-London mayor Johnson says UK government needs to spell out Brexit benefits'
p2011
sa(dp2012
g2
S'http://www.reuters.com/article/idUSFWN19Q0EK'
p2013
sg4
S'20160705\xc2\xa06:53AM UTC'
p2014
sg6
S'BRIEF-Gino Rossi June revenue at 23.4 million zlotys up 6.1 pct year on year'
p2015
sa(dp2016
g2
S'http://www.reuters.com/article/britain-eu-law-cameron-idUSL8N19Q1WH'
p2017
sg4
S'20160705\xc2\xa06:50AM UTC'
p2018
sg6
S"For next PM to trigger Brexit but parliament will have a role - Cameron's spokeswoman"
p2019
sa(dp2020
g2
S'http://www.reuters.com/article/idUSFWN19Q0EH'
p2021
sg4
S'20160705\xc2\xa06:49AM UTC'
p2022
sg6
S'BRIEF-Fitch says public funds to bolster Italian banks will be difficult'
p2023
sa(dp2024
g2
S'http://www.reuters.com/article/idUSASC08VZP'
p2025
sg4
S'20160705\xc2\xa06:48AM UTC'
p2026
sg6
S"BRIEF-Penn West regains compliance with the NYSE's listing standard"
p2027
sa(dp2028
g2
S'http://www.reuters.com/article/idUSFWN19Q0EI'
p2029
sg4
S'20160705\xc2\xa06:46AM UTC'
p2030
sg6
S'BRIEF-Putprop buys remaining stake in Neo Trend Khala-Cose Developers'
p2031
sa(dp2032
g2
S'http://www.reuters.com/article/idUSFWN19O00Z'
p2033
sg4
S'20160705\xc2\xa06:43AM UTC'
p2034
sg6
S'BRIEF-Johnston Press sells Isle of Man titles to Tindle Newspapers'
p2035
sa(dp2036
g2
S'http://www.reuters.com/article/idUSFit966251'
p2037
sg4
S'20160705\xc2\xa06:43AM UTC'
p2038
sg6
S'Fitch: Public Funds to Bolster Italian Banks Will be Difficult'
p2039
sa(dp2040
g2
S'http://www.reuters.com/article/idUSL8N19Q1OL'
p2041
sg4
S'20160705\xc2\xa06:42AM UTC'
p2042
sg6
S'BRIEF-ZUK Elzab SA to distribute FY 2015 div of 0.52 zloty/shr'
p2043
sa(dp2044
g2
S'http://www.reuters.com/article/us-doping-russia-cas-idUSKCN0ZK0W0'
p2045
sg4
S'20160705\xc2\xa06:38AM UTC'
p2046
sg6
S'CAS says to rule on Russian athletes by July 21'
p2047
sa(dp2048
g2
S'http://www.reuters.com/article/britain-eu-leadsom-idUSU8N0Z101B'
p2049
sg4
S'20160705\xc2\xa06:37AM UTC'
p2050
sg6
S'Candidate for British PM Leadsom says Brexit talks should be short'
p2051
sa(dp2052
g2
S'http://www.reuters.com/article/idUSB4N16V010'
p2053
sg4
S'20160705\xc2\xa06:35AM UTC'
p2054
sg6
S'BRIEF-Germany watching Kuka takeover but says it is a corporate issue'
p2055
sa(dp2056
g2
S'http://www.reuters.com/article/uk-economy-pmi-idUSL8N19Q1OO'
p2057
sg4
S'20160705\xc2\xa06:34AM UTC'
p2058
sg6
S'UPDATE 1-UK construction battered in June by Brexit fears - Markit'
p2059
sa(dp2060
g2
S'http://www.reuters.com/article/tech-israel-employment-idUSL8N19P02V'
p2061
sg4
S'20160705\xc2\xa06:34AM UTC'
p2062
sg6
S"Israel's high tech boom threatened by shallow labour pool"
p2063
sa(dp2064
g2
S'http://www.reuters.com/article/idUSL4N19Q304'
p2065
sg4
S'20160705\xc2\xa06:34AM UTC'
p2066
sg6
S"BRIEF-Zhengzhou Yutong Bus' June sales up 21.2 pct y/y"
p2067
sa(dp2068
g2
S'http://www.reuters.com/article/us-bangladesh-attack-india-idUSKCN0ZK0YE'
p2069
sg4
S'20160705\xc2\xa06:33AM UTC'
p2070
sg6
S'Al Qaeda urges Muslims in India to mount lone wolf attacks'
p2071
sa(dp2072
g2
S'http://www.reuters.com/article/diageo-venture-idUSL8N19Q1OM'
p2073
sg4
S'20160705\xc2\xa06:32AM UTC'
p2074
sg6
S'CORRECTED-Diageo invests in non-alcoholic spirit brand'
p2075
sa(dp2076
g2
S'http://www.reuters.com/article/zimbabwe-baobab-drought-idUSL8N19Q1WI'
p2077
sg4
S'20160705\xc2\xa06:32AM UTC'
p2078
sg6
S"Amid drought, mystery disease kills Zimbabwe's baobabs"
p2079
sa(dp2080
g2
S'http://www.reuters.com/article/temasek-results-idUSL4N19Q1KX'
p2081
sg4
S'20160705\xc2\xa06:28AM UTC'
p2082
sg6
S"Singapore's Temasek eyes U.S. investments to offset first portfolio drop in 7 years"
p2083
sa(dp2084
g2
S'http://www.reuters.com/article/investment-banking-fees-idUSL8N19Q1Q0'
p2085
sg4
S'20160705\xc2\xa06:27AM UTC'
p2086
sg6
S'Global investment banks have slowest first half since 2012'
p2087
sa(dp2088
g2
S'http://www.reuters.com/article/sainsbury-netto-idUSL8N19Q1RH'
p2089
sg4
S'20160705\xc2\xa06:23AM UTC'
p2090
sg6
S"Sainsbury's ends Netto discount chain experiment"
p2091
sa(dp2092
g2
S'http://www.reuters.com/article/lse-deutsche-boerse-shareholders-idUSL8N19Q1HL'
p2093
sg4
S'20160705\xc2\xa06:22AM UTC'
p2094
sg6
S'London exchange defends Deutsche Boerse deal after Brexit'
p2095
sa(dp2096
g2
S'http://www.reuters.com/article/britain-stocks-exdiv-idUSL8N19Q1IY'
p2097
sg4
S'20160705\xc2\xa06:22AM UTC'
p2098
sg6
S'Ex-divs to take 1.05 points off FTSE 100 on July 7'
p2099
sa(dp2100
g2
S'http://www.reuters.com/article/idUSFWN19Q0DW'
p2101
sg4
S'20160705\xc2\xa06:20AM UTC'
p2102
sg6
S'BRIEF-EMA concludes second infringement procedure inquiry against Roche'
p2103
sa(dp2104
g2
S'http://www.reuters.com/article/britain-eu-osborne-germany-idUSB4N16V02D'
p2105
sg4
S'20160705\xc2\xa06:20AM UTC'
p2106
sg6
S'Germany, responding to UK plan, says taxes in EU should be fair'
p2107
sa(dp2108
g2
S'http://www.reuters.com/article/india-stocks-idUSB8N19G024'
p2109
sg4
S'20160705\xc2\xa06:20AM UTC'
p2110
sg6
S'Indian shares end higher on global cues, Tata Motors gains'
p2111
sa(dp2112
g2
S'http://www.reuters.com/article/rhbbank-islamic-ceo-idUSL4N19Q30K'
p2113
sg4
S'20160705\xc2\xa06:18AM UTC'
p2114
sg6
S'RHB group names new Islamic banking CEO'
p2115
sa(dp2116
g2
S'http://www.reuters.com/article/britain-eu-ia-idUSL8N19Q1L9'
p2117
sg4
S'20160705\xc2\xa06:14AM UTC'
p2118
sg6
S'British fund trade body to hold Brexit planning meeting on Tuesday'
p2119
sa(dp2120
g2
S'http://www.reuters.com/article/idUSP6N11002I'
p2121
sg4
S'20160705\xc2\xa06:14AM UTC'
p2122
sg6
S'BRIEF-Michelin to build $510 mln high-end tire plant in Mexico'
p2123
sa(dp2124
g2
S'http://www.reuters.com/article/idUSFWN19Q0DX'
p2125
sg4
S'20160705\xc2\xa06:14AM UTC'
p2126
sg6
S'BRIEF-Econocom Group to merge its two companies to form Digital Security, Econocom Group'
p2127
sa(dp2128
g2
S'http://www.reuters.com/article/georgia-inflation-idUSL8N19Q1U8'
p2129
sg4
S'20160705\xc2\xa06:12AM UTC'
p2130
sg6
S'Georgia deflation at 0.9 pct m/m in June - stats service'
p2131
sa(dp2132
g2
S'http://www.reuters.com/article/idUSL4N19Q300'
p2133
sg4
S'20160705\xc2\xa06:12AM UTC'
p2134
sg6
S'BRIEF-PharmaEngine to pay cash dividend on Aug. 26'
p2135
sa(dp2136
g2
S'http://www.reuters.com/article/moves-banco-santander-elustondo-idUSL8N19Q1SQ'
p2137
sg4
S'20160705\xc2\xa06:06AM UTC'
p2138
sg6
S'MOVES-Elustondo leaves Banco Santander'
p2139
sa(dp2140
g2
S'http://www.reuters.com/article/vietnam-energy-renewables-idUSL4N19L326'
p2141
sg4
S'20160705\xc2\xa06:05AM UTC'
p2142
sg6
S"Plastic buckets, broken printers shine light on Hanoi's poor"
p2143
sa(dp2144
g2
S'http://www.reuters.com/article/idUSFWN19O00Y'
p2145
sg4
S'20160705\xc2\xa06:04AM UTC'
p2146
sg6
S'BRIEF-NuLegacy Gold to raise C$3.0 mln in private placement'
p2147
sa(dp2148
g2
S'http://www.reuters.com/article/doping-russia-cas-idUSL4N19Q2XQ'
p2149
sg4
S'20160705\xc2\xa06:04AM UTC'
p2150
sg6
S'Doping-CAS says to rule on Russian athletes by July 21'
p2151
sa(dp2152
g2
S'http://www.reuters.com/article/westchina-cement-ma-anhui-conch-idUSL4N19Q1X2'
p2153
sg4
S'20160705\xc2\xa06:03AM UTC'
p2154
sg6
S'CORRECTED-West China Cement shares plunge after Anhui Conch scraps deal'
p2155
sa(dp2156
g2
S'http://www.reuters.com/article/idUSL4N19Q2Z2'
p2157
sg4
S'20160705\xc2\xa06:02AM UTC'
p2158
sg6
S'BRIEF-China Merchants Shekou Industrial Zone Holdings to provide guarantee of 1.8 bln yuan for unit'
p2159
sa(dp2160
g2
S'http://www.reuters.com/article/idUSL4N19Q2YW'
p2161
sg4
S'20160705\xc2\xa06:00AM UTC'
p2162
sg6
S'BRIEF-Shenzhen Sunwin Intelligent signs contracts for 79.8 mln yuan during April to June'
p2163
sa(dp2164
g2
S'http://www.reuters.com/article/idUSL4N19Q2SY'
p2165
sg4
S'20160705\xc2\xa06:00AM UTC'
p2166
sg6
S'BUZZ-UK builders: Brexit concerns grow after construction data, analyst cautions'
p2167
sa(dp2168
g2
S'http://www.reuters.com/article/thyssenkrupp-industrialsolutions-restruc-idUSF9N19800Y'
p2169
sg4
S'20160705\xc2\xa06:00AM UTC'
p2170
sg6
S'Thyssenkrupp signals further Industrial Solutions shakeup'
p2171
sa(dp2172
g2
S'http://www.reuters.com/article/idUSFWN19P02N'
p2173
sg4
S'20160705\xc2\xa06:00AM UTC'
p2174
sg6
S'BRIEF-Ifa systems U.S. unit signs major contract'
p2175
sa(dp2176
g2
S'http://www.reuters.com/article/britain-eu-rbs-idUSL4N19Q2TP'
p2177
sg4
S'20160705\xc2\xa06:00AM UTC'
p2178
sg6
S'RBS would only move "tens" of employees post Brexit - CEO'
p2179
sa(dp2180
g2
S'http://www.reuters.com/article/hungary-retail-eu-idUSL8N19Q1OE'
p2181
sg4
S'20160705\xc2\xa06:00AM UTC'
p2182
sg6
S'Hungarian levy on food retail chains in breach of EU rules - Commission'
p2183
sa(dp2184
g2
S'http://www.reuters.com/article/swiss-snb-intervention-idUSL8N19M50W'
p2185
sg4
S'20160705\xc2\xa06:00AM UTC'
p2186
sg6
S'Swiss National Bank ramps up currency intervention after Brexit'
p2187
sa(dp2188
g2
S'http://www.reuters.com/article/space-jupiter-idUSL1N19Q007'
p2189
sg4
S'20160705\xc2\xa06:00AM UTC'
p2190
sg6
S"NASA's Juno spacecraft poised for one-shot try to orbit Jupiter"
p2191
sa(dp2192
g2
S'http://www.reuters.com/article/usa-independenceday-security-idUSL1N19N1AM'
p2193
sg4
S'20160705\xc2\xa06:00AM UTC'
p2194
sg6
S'Tight security at July 4th fests to counter terror fears, gun violence'
p2195
sa(dp2196
g2
S'http://www.reuters.com/article/metal-scrappers-idUSL1N18P015'
p2197
sg4
S'20160705\xc2\xa06:00AM UTC'
p2198
sg6
S'FEATURE-Low scrap metal prices hurting even U.S. garbage scavengers'
p2199
sa(dp2200
g2
S'http://www.reuters.com/article/idUSFWN19P02O'
p2201
sg4
S'20160705\xc2\xa05:59AM UTC'
p2202
sg6
S'BRIEF-Pawel Kluba sells his entire stake in E-Solution Software'
p2203
sa(dp2204
g2
S'http://www.reuters.com/article/southeast-asia-stocks-idUSL4N19Q2L3'
p2205
sg4
S'20160705\xc2\xa05:59AM UTC'
p2206
sg6
S'SE Asia Stocks-End higher; Vietnam hits over 8-yr high'
p2207
sa(dp2208
g2
S'http://www.reuters.com/article/idUSL4N19Q2YG'
p2209
sg4
S'20160705\xc2\xa05:58AM UTC'
p2210
sg6
S'BRIEF-Shandong Xingmin Wheel buys 9.17 pct stake in Autonet'
p2211
sa(dp2212
g2
S'http://www.reuters.com/article/us-florida-alligator-child-idUSKCN0ZK07T'
p2213
sg4
S'20160705\xc2\xa05:57AM UTC'
p2214
sg6
S'Father of toddler killed at Disney resort says two alligators were involved'
p2215
sa(dp2216
g2
S'http://www.reuters.com/article/russia-onexim-strategy-idUSR4N19K01D'
p2217
sg4
S'20160705\xc2\xa05:55AM UTC'
p2218
sg6
S"Russia's Onexim group denies report it plans to sell all Russian assets"
p2219
sa(dp2220
g2
S'http://www.reuters.com/article/idUSFWN19O00V'
p2221
sg4
S'20160705\xc2\xa05:55AM UTC'
p2222
sg6
S'BRIEF-BioPorto to reapply for FDA approval of NGAL Test'
p2223
sa(dp2224
g2
S'http://www.reuters.com/article/idUSL4N19Q2Y0'
p2225
sg4
S'20160705\xc2\xa05:54AM UTC'
p2226
sg6
S"BRIEF-Shenzhen Soling Industrial's share trade to resume after revising acquisition plan"
p2227
sa(dp2228
g2
S'http://www.reuters.com/article/us-philippines-duterte-drugs-idUSKCN0ZK0UG'
p2229
sg4
S'20160705\xc2\xa05:54AM UTC'
p2230
sg6
S'Thirty killed in four days in Philippine war on drugs'
p2231
sa(dp2232
g2
S'http://www.reuters.com/article/slovenia-nlb-idUSL8N19Q1N4'
p2233
sg4
S'20160705\xc2\xa05:53AM UTC'
p2234
sg6
S'Slovenia postpones NLB sale presentations due to Brexit'
p2235
sa(dp2236
g2
S'http://www.reuters.com/article/idUSR4N19K01I'
p2237
sg4
S'20160705\xc2\xa05:52AM UTC'
p2238
sg6
S"BRIEF-Russia's O'Key approves interim dividend of $0.09 per share"
p2239
sa(dp2240
g2
S'http://www.reuters.com/article/eu-deficit-germany-idUSB4N16V02B'
p2241
sg4
S'20160705\xc2\xa05:51AM UTC'
p2242
sg6
S'EU deficit rules must be adhered to, Germany says'
p2243
sa(dp2244
g2
S'http://www.reuters.com/article/us-olympics-rio-russia-idUSKCN0ZK0T4'
p2245
sg4
S'20160705\xc2\xa05:50AM UTC'
p2246
sg6
S"CAS says to rule on 68 Russian athletes' Olympic participation"
p2247
sa(dp2248
g2
S'http://www.reuters.com/article/us-malaysia-politics-idUSKCN0ZK0T6'
p2249
sg4
S'20160705\xc2\xa05:46AM UTC'
p2250
sg6
S"Malaysia ruling party VP quits, says 'no justice' amid 1MDB row"
p2251
sa(dp2252
g2
S'http://www.reuters.com/article/emerging-markets-idUSL8N19Q1JQ'
p2253
sg4
S'20160705\xc2\xa05:43AM UTC'
p2254
sg6
S'EMERGING MARKETS-EM stocks at 2-mth high, Polish pension plan hits eastern Europe'
p2255
sa(dp2256
g2
S'http://www.reuters.com/article/idUSFit966235'
p2257
sg4
S'20160705\xc2\xa05:43AM UTC'
p2258
sg6
S"Fitch Rates Chongqing Nan'an Urban Construction & Development's USD Notes 'BBB+(EXP)'"
p2259
sa(dp2260
g2
S'http://www.reuters.com/article/olympics-rio-russia-idUSZ8N18R01K'
p2261
sg4
S'20160705\xc2\xa05:43AM UTC'
p2262
sg6
S"CAS says to rule on 68 Russian athletes' Olympic participation"
p2263
sa(dp2264
g2
S'http://www.reuters.com/article/us-mideast-crisis-syria-manbij-idUSKCN0ZK0SI'
p2265
sg4
S'20160705\xc2\xa05:42AM UTC'
p2266
sg6
S'U.S.-backed militias face second Islamic State counter attack - official, monitor'
p2267
sa(dp2268
g2
S'http://www.reuters.com/article/idUSL4N19Q2WF'
p2269
sg4
S'20160705\xc2\xa05:40AM UTC'
p2270
sg6
S'BRIEF-China Shipping Network Technology to pay 2015 dividend on July 8'
p2271
sa(dp2272
g2
S'http://www.reuters.com/article/idUSFWN19P02M'
p2273
sg4
S'20160705\xc2\xa05:39AM UTC'
p2274
sg6
S'BRIEF-Sainsbury says to end Netto UK JV with Dansk Supermarked'
p2275
sa(dp2276
g2
S'http://www.reuters.com/article/idUSL4N19Q2W6'
p2277
sg4
S'20160705\xc2\xa05:37AM UTC'
p2278
sg6
S'BRIEF-Shenzhen Wongtee International Enterprise to pay 2015 dividend on July 12'
p2279
sa(dp2280
g2
S'http://www.reuters.com/article/us-usa-independenceday-nelson-idUSKCN0ZJ0JP'
p2281
sg4
S'20160705\xc2\xa05:36AM UTC'
p2282
sg6
S"It wouldn\xe2\x80\x99t be the 4th of July without Willie Nelson's moveable \xe2\x80\x98picnic\xe2\x80\x99"
p2283
sa(dp2284
g2
S'http://www.reuters.com/article/markets-asia-debt-idUSL4N19Q2VF'
p2285
sg4
S'20160705\xc2\xa05:35AM UTC'
p2286
sg6
S'ASIA CREDIT CLOSE: Markets grind tighter on US Independence Day'
p2287
sa(dp2288
g2
S'http://www.reuters.com/article/idUSL4N19Q2UE'
p2289
sg4
S'20160705\xc2\xa05:33AM UTC'
p2290
sg6
S"BRIEF-Jiangsu Olive Sensors High-tech's shares to resume trading"
p2291
sa(dp2292
g2
S'http://www.reuters.com/article/germany-vehicleregistrations-idUSL8N19Q1DM'
p2293
sg4
S'20160705\xc2\xa05:33AM UTC'
p2294
sg6
S'German carmakers eye strong H2 after June sales up 8 pct'
p2295
sa(dp2296
g2
S'http://www.reuters.com/article/britain-sterling-morning-idUSL8N19Q1FX'
p2297
sg4
S'20160705\xc2\xa05:32AM UTC'
p2298
sg6
S'UPDATE 1-Sterling hit by slump in construction sector survey'
p2299
sa(dp2300
g2
S'http://www.reuters.com/article/idUSL4N19Q2V2'
p2301
sg4
S'20160705\xc2\xa05:32AM UTC'
p2302
sg6
S'BRIEF-Zhe Jiang Dong Ri to pay 2015 dividend on July 7'
p2303
sa(dp2304
g2
S'http://www.reuters.com/article/us-golf-open-thongchai-idUSKCN0ZK0RS'
p2305
sg4
S'20160705\xc2\xa05:30AM UTC'
p2306
sg6
S'Golfer Thongchai says army training prepared him for French Open win'
p2307
sa(dp2308
g2
S'http://www.reuters.com/article/idUSFWN19O00R'
p2309
sg4
S'20160705\xc2\xa05:29AM UTC'
p2310
sg6
S'BRIEF-Intelsat and Africaonline partner to accelerate internet broadband connectivity'
p2311
sa(dp2312
g2
S'http://www.reuters.com/article/oesterreich-post-ma-aras-kargo-idUSL8N19Q14W'
p2313
sg4
S'20160705\xc2\xa05:27AM UTC'
p2314
sg6
S"Turkish parcel firm Aras Kargo wants to buy back Austrian Post's stake"
p2315
sa(dp2316
g2
S'http://www.reuters.com/article/doosan-bobcat-ipo-idUSL4N19N193'
p2317
sg4
S'20160705\xc2\xa05:27AM UTC'
p2318
sg6
S"S.Korea's Doosan Bobcat applies for IPO approval"
p2319
sa(dp2320
g2
S'http://www.reuters.com/article/usa-gasoline-kemp-idUSL8N19Q1IQ'
p2321
sg4
S'20160705\xc2\xa05:25AM UTC'
p2322
sg6
S'COLUMN-Hedge funds to U.S. refiners: produce more diesel, less gasoline: Kemp'
p2323
sa(dp2324
g2
S'http://www.reuters.com/article/idUSL4N19Q2TO'
p2325
sg4
S'20160705\xc2\xa05:24AM UTC'
p2326
sg6
S'BRIEF-Jiangxi Zhengbang Technology to pay 2015 dividend on July 11'
p2327
sa(dp2328
g2
S'http://www.reuters.com/article/idUSL4N19Q2SQ'
p2329
sg4
S'20160705\xc2\xa05:21AM UTC'
p2330
sg6
S'BRIEF-Jiangsu Lugang Culture scraps asset restructuring'
p2331
sa(dp2332
g2
S'http://www.reuters.com/article/britain-eu-threadneedle-idUSL8N19Q1JK'
p2333
sg4
S'20160705\xc2\xa05:19AM UTC'
p2334
sg6
S'Threadneedle plans to expand Luxembourg operations after Brexit'
p2335
sa(dp2336
g2
S'http://www.reuters.com/article/idUSL4N19Q2SL'
p2337
sg4
S'20160705\xc2\xa05:19AM UTC'
p2338
sg6
S"BRIEF-Shanghai Fosun Pharma, Alibaba's Alipay sign agreement on business development"
p2339
sa(dp2340
g2
S'http://www.reuters.com/article/idUSL4N19Q2SZ'
p2341
sg4
S'20160705\xc2\xa05:19AM UTC'
p2342
sg6
S'BRIEF-Shanxi Xinghuacun Fen Wine Factory to pay 2015 dividend on July 8'
p2343
sa(dp2344
g2
S'http://www.reuters.com/article/us-newzealand-china-extradition-idUSKCN0ZK0QZ'
p2345
sg4
S'20160705\xc2\xa05:19AM UTC'
p2346
sg6
S"New Zealand's first extradition bid to China faces court roadblock: lawyer"
p2347
sa(dp2348
g2
S'http://www.reuters.com/article/idUSL4N19Q2SP'
p2349
sg4
S'20160705\xc2\xa05:17AM UTC'
p2350
sg6
S'BRIEF-Jonjee Hi-tech Industrial and Commercial Holding to pay 2015 dividend on July 8'
p2351
sa(dp2352
g2
S'http://www.reuters.com/article/idUSL4N19Q2S5'
p2353
sg4
S'20160705\xc2\xa05:15AM UTC'
p2354
sg6
S'BRIEF-Jinhui Liquor scraps asset restructuring, shares to resume trade'
p2355
sa(dp2356
g2
S'http://www.reuters.com/article/idUSL4N19Q2SA'
p2357
sg4
S'20160705\xc2\xa05:15AM UTC'
p2358
sg6
S'BRIEF-Beijing Trustfar Technology to pay 2015 dividend on July 7'
p2359
sa(dp2360
g2
S'http://www.reuters.com/article/idUSL4N19Q2S1'
p2361
sg4
S'20160705\xc2\xa05:13AM UTC'
p2362
sg6
S'BRIEF-Aier Eye Hospital Group to pay 2015 dividend on July 7'
p2363
sa(dp2364
g2
S'http://www.reuters.com/article/us-southkorea-labour-idUSKCN0ZK0Q9'
p2365
sg4
S'20160705\xc2\xa05:13AM UTC'
p2366
sg6
S'South Korea labor boss jailed for 5 years over violent protest rally'
p2367
sa(dp2368
g2
S'http://www.reuters.com/article/idUSL4N19Q2RT'
p2369
sg4
S'20160705\xc2\xa05:13AM UTC'
p2370
sg6
S"BRIEF-Jiangling Motors's vehicle sales up 5.25 pct in June"
p2371
sa(dp2372
g2
S'http://www.reuters.com/article/idUSL4N19Q2RV'
p2373
sg4
S'20160705\xc2\xa05:12AM UTC'
p2374
sg6
S'BRIEF-Fusion Partners raises voting rights in Softbrain to 42.11 pct'
p2375
sa(dp2376
g2
S'http://www.reuters.com/article/novo-nordisk-plant-idUSL8N19Q1GS'
p2377
sg4
S'20160705\xc2\xa05:11AM UTC'
p2378
sg6
S'Novo Nordisk invests $60 mln to expand insulin plant in Kalundborg'
p2379
sa(dp2380
g2
S'http://www.reuters.com/article/us-japan-economy-boj-idUSKCN0ZK0DH'
p2381
sg4
S'20160705\xc2\xa05:08AM UTC'
p2382
sg6
S"Japan firms' price expectations slide, keep BOJ under pressure"
p2383
sa(dp2384
g2
S'http://www.reuters.com/article/idUSL4N19Q2R5'
p2385
sg4
S'20160705\xc2\xa05:07AM UTC'
p2386
sg6
S'BRIEF-Easywell Biomedical to issue 1st series domestic secured convertible corporate bonds of T$200 mln'
p2387
sa(dp2388
g2
S'http://www.reuters.com/article/idUSL4N19Q2R0'
p2389
sg4
S'20160705\xc2\xa05:07AM UTC'
p2390
sg6
S'BRIEF-Midea Group unit buys 80.1 pct stake in home appliance business co from Toshiba'
p2391
sa(dp2392
g2
S'http://www.reuters.com/article/idUSL4N19Q2QA'
p2393
sg4
S'20160705\xc2\xa05:04AM UTC'
p2394
sg6
S'BRIEF-Whirlpool China to receive land compensation of 687 mln yuan from Hefei govt'
p2395
sa(dp2396
g2
S'http://www.reuters.com/article/global-markets-idUSL4N19Q2BJ'
p2397
sg4
S'20160705\xc2\xa05:04AM UTC'
p2398
sg6
S'GLOBAL MARKETS-European, UK shares snap winning streak, silver surges'
p2399
sa(dp2400
g2
S'http://www.reuters.com/article/idUSFWN19O00S'
p2401
sg4
S'20160705\xc2\xa05:03AM UTC'
p2402
sg6
S'BRIEF-Tesco names new non-exec director'
p2403
sa(dp2404
g2
S'http://www.reuters.com/article/idUSL4N19Q2Q5'
p2405
sg4
S'20160705\xc2\xa05:01AM UTC'
p2406
sg6
S'BRIEF-ZheJiang Haers Vacuum Container raises 2016 H1 net profit outlook'
p2407
sa(dp2408
g2
S'http://www.reuters.com/article/us-malaysia-blast-islamic-state-idUSKCN0ZK0PK'
p2409
sg4
S'20160705\xc2\xa05:01AM UTC'
p2410
sg6
S"Malaysia's police confirm IS link to nightclub grenade attack"
p2411
sa(dp2412
g2
S'http://www.reuters.com/article/us-turkey-blast-ussr-idUSKCN0ZK0AW'
p2413
sg4
S'20160705\xc2\xa05:00AM UTC'
p2414
sg6
S'Ex-Soviet exiles give Islamic State violence a Russian accent'
p2415
sa(dp2416
g2
S'http://www.reuters.com/article/food-oecd-fao-idUSL8N19Q0TY'
p2417
sg4
S'20160705\xc2\xa05:00AM UTC'
p2418
sg6
S'Food commodity prices to remain stable over next decade - FAO/OECD'
p2419
sa(dp2420
g2
S'http://www.reuters.com/article/us-mideast-crisis-syria-israel-idUSKCN0ZK0O5'
p2421
sg4
S'20160705\xc2\xa04:58AM UTC'
p2422
sg6
S'Israeli military says attacked two Syrian army targets'
p2423
sa(dp2424
g2
S'http://www.reuters.com/article/us-olympics-rio-swimming-park-idUSKCN0ZK0OL'
p2425
sg4
S'20160705\xc2\xa04:56AM UTC'
p2426
sg6
S'KOC says will implement CAS decision on Park quickly'
p2427
sa(dp2428
g2
S'http://www.reuters.com/article/idUSL4N19Q2OV'
p2429
sg4
S'20160705\xc2\xa04:54AM UTC'
p2430
sg6
S'BRIEF-Sichuan Datong Gas Development buys 12 pct stake in two gas units'
p2431
sa(dp2432
g2
S'http://www.reuters.com/article/idUSL4N19Q2OU'
p2433
sg4
S'20160705\xc2\xa04:54AM UTC'
p2434
sg6
S'BRIEF-Lanzhou Foci Pharmaceutical revises 2016 H1 net profit outlook'
p2435
sa(dp2436
g2
S'http://www.reuters.com/article/idUSFWN19P01V'
p2437
sg4
S'20160705\xc2\xa04:53AM UTC'
p2438
sg6
S'BRIEF-WPP says Kantar signs affiliation agreement with market research agency in Iran'
p2439
sa(dp2440
g2
S'http://www.reuters.com/article/idUSL8N19Q1FR'
p2441
sg4
S'20160705\xc2\xa04:50AM UTC'
p2442
sg6
S'BRIEF-Greenwich Sp. z o.o rises stake in APN Promise to 42.18 pct'
p2443
sa(dp2444
g2
S'http://www.reuters.com/article/idUSI7N19D016'
p2445
sg4
S'20160705\xc2\xa04:50AM UTC'
p2446
sg6
S"BRIEF-Turkey's Halkbank secures $175 million and 476.5 million euros syndicated loan"
p2447
sa(dp2448
g2
S'http://www.reuters.com/article/olympics-rio-swimming-park-idUSL4N19Q2MM'
p2449
sg4
S'20160705\xc2\xa04:48AM UTC'
p2450
sg6
S'Swimming-KOC says will implement CAS decision on Park quickly'
p2451
sa(dp2452
g2
S'http://www.reuters.com/article/idUSL4N19Q2OC'
p2453
sg4
S'20160705\xc2\xa04:47AM UTC'
p2454
sg6
S'BRIEF-Dymatic Chemicals raises 2016 H1 net profit outlook'
p2455
sa(dp2456
g2
S'http://www.reuters.com/article/idUSL8N19Q185'
p2457
sg4
S'20160705\xc2\xa04:44AM UTC'
p2458
sg6
S'BRIEF-PKO BP sells its entire 9.9 pct stake in Chemoservis Dwory'
p2459
sa(dp2460
g2
S'http://www.reuters.com/article/idUSL4N19Q2NU'
p2461
sg4
S'20160705\xc2\xa04:43AM UTC'
p2462
sg6
S'BRIEF-Chengzhi Shareholding invests 322 mln yuan in Anhui-based tech firm'
p2463
sa(dp2464
g2
S'http://www.reuters.com/article/idUSL4N19Q2NL'
p2465
sg4
S'20160705\xc2\xa04:43AM UTC'
p2466
sg6
S"BRIEF-Tianjin Songjiang's unit to sell Tianjin residential project"
p2467
sa(dp2468
g2
S'http://www.reuters.com/article/india-stocks-idUSL4N19Q1VQ'
p2469
sg4
S'20160705\xc2\xa04:40AM UTC'
p2470
sg6
S"India's NSE index rises to 10-mth high; Tata Motors gains"
p2471
sa(dp2472
g2
S'http://www.reuters.com/article/idUSL4N19Q2NC'
p2473
sg4
S'20160705\xc2\xa04:39AM UTC'
p2474
sg6
S'BRIEF-Yifan Xinfu Pharmaceutical unit buys 53.8 pct stake in DHY for 1 bln yuan'
p2475
sa(dp2476
g2
S'http://www.reuters.com/article/britain-stocks-idUSL8N19Q0BT'
p2477
sg4
S'20160705\xc2\xa04:38AM UTC'
p2478
sg6
S"Britain's FTSE 100 rises to build on post-Brexit recovery"
p2479
sa(dp2480
g2
S'http://www.reuters.com/article/idUS41625069720160704'
p2481
sg4
S'20160705\xc2\xa04:36AM UTC'
p2482
sg6
S'HK has to pore over cement deal that came unstuck'
p2483
sa(dp2484
g2
S'http://www.reuters.com/article/idUSL4N19Q2N2'
p2485
sg4
S'20160705\xc2\xa04:36AM UTC'
p2486
sg6
S'BRIEF-Shanghai Runda Medical Technology to buy stake in biotechnology co'
p2487
sa(dp2488
g2
S'http://www.reuters.com/article/effissimo-jdi-idUSL4N19Q2FZ'
p2489
sg4
S'20160705\xc2\xa04:34AM UTC'
p2490
sg6
S'UPDATE 1-Activist fund Effissimo buys 5.4 pct of Japan Display'
p2491
sa(dp2492
g2
S'http://www.reuters.com/article/eurozone-economy-sentix-idUSL8N19Q0RW'
p2493
sg4
S'20160705\xc2\xa04:30AM UTC'
p2494
sg6
S'Brexit hits euro zone sentiment - Sentix index at 18-month low in July'
p2495
sa(dp2496
g2
S'http://www.reuters.com/article/denmark-atp-idUSL8N19Q1BB'
p2497
sg4
S'20160705\xc2\xa04:29AM UTC'
p2498
sg6
S'Danish funds ATP and PFA invest $150 mln in new private equity fund'
p2499
sa(dp2500
g2
S'http://www.reuters.com/article/idUSL4N19Q2LN'
p2501
sg4
S'20160705\xc2\xa04:29AM UTC'
p2502
sg6
S'BRIEF-Huons Global to raise 288.2 bln won via public offering'
p2503
sa(dp2504
g2
S'http://www.reuters.com/article/montedeipaschi-ecb-targets-idUSI6N19M00V'
p2505
sg4
S'20160705\xc2\xa04:29AM UTC'
p2506
sg6
S"ECB asks Italy's Monte dei Paschi to cut bad loans by 30 pct"
p2507
sa(dp2508
g2
S'http://www.reuters.com/article/poland-pensions-idUSFWN19Q08C'
p2509
sg4
S'20160705\xc2\xa04:28AM UTC'
p2510
sg6
S'Poland says plans to convert OFE pension funds into mutual funds'
p2511
sa(dp2512
g2
S'http://www.reuters.com/article/idUSL4N19Q2KW'
p2513
sg4
S'20160705\xc2\xa04:25AM UTC'
p2514
sg6
S'BRIEF-Noblift Equipment to acquire stake in logistics equipment firm for 540 mln yuan'
p2515
sa(dp2516
g2
S'http://www.reuters.com/article/terracom-rio-tinto-idUSL4N19Q1YI'
p2517
sg4
S'20160705\xc2\xa04:25AM UTC'
p2518
sg6
S'Rio Tinto sells Australian coal mine for a dollar'
p2519
sa(dp2520
g2
S'http://www.reuters.com/article/idUSL4N19Q2KS'
p2521
sg4
S'20160705\xc2\xa04:21AM UTC'
p2522
sg6
S'BRIEF-HYSONIC announces resignation of co-CEO'
p2523
sa(dp2524
g2
S'http://www.reuters.com/article/idUSL4N19Q2KQ'
p2525
sg4
S'20160705\xc2\xa04:21AM UTC'
p2526
sg6
S'BRIEF-Hisense Electric to pay 2015 div on July 8'
p2527
sa(dp2528
g2
S'http://www.reuters.com/article/idUSL4N19Q2KP'
p2529
sg4
S'20160705\xc2\xa04:21AM UTC'
p2530
sg6
S'BRIEF-Nantong Jinghua Pharmaceutical to offer bid for 29.73 pct stake in pharmaceutical co'
p2531
sa(dp2532
g2
S'http://www.reuters.com/article/tikehau-ffp-temasek-idUSL4N19Q2HG'
p2533
sg4
S'20160705\xc2\xa04:20AM UTC'
p2534
sg6
S"Tikehau Capital says Temasek, Peugeot's FFP invest in its parent"
p2535
sa(dp2536
g2
S'http://www.reuters.com/article/idUSL4N19Q2KI'
p2537
sg4
S'20160705\xc2\xa04:19AM UTC'
p2538
sg6
S'BRIEF-CUROHOLDINGS completes private placement for 800 mln won'
p2539
sa(dp2540
g2
S'http://www.reuters.com/article/idUSL4N19Q2KD'
p2541
sg4
S'20160705\xc2\xa04:19AM UTC'
p2542
sg6
S'BRIEF-Shanghai Wanye Enterprises to pay 2015 div on July 8'
p2543
sa(dp2544
g2
S'http://www.reuters.com/article/europe-stocks-idUSL8N19Q1A8'
p2545
sg4
S'20160705\xc2\xa04:17AM UTC'
p2546
sg6
S'Miners prop up European shares but post-Brexit rally loses momentum'
p2547
sa(dp2548
g2
S'http://www.reuters.com/article/idUSASM0004KN'
p2549
sg4
S'20160705\xc2\xa04:17AM UTC'
p2550
sg6
S'BRIEF-GK Software gains new orders from three well-known retailers'
p2551
sa(dp2552
g2
S'http://www.reuters.com/article/idUSL4N19Q2JZ'
p2553
sg4
S'20160705\xc2\xa04:15AM UTC'
p2554
sg6
S'BRIEF-Japan Excellent prices new unit issue at 134,259 yen per unit'
p2555
sa(dp2556
g2
S'http://www.reuters.com/article/idUSL4N19Q2JO'
p2557
sg4
S'20160705\xc2\xa04:12AM UTC'
p2558
sg6
S'BRIEF-Liaoning Shidai Wanheng to pay 2015 div on July 8'
p2559
sa(dp2560
g2
S'http://www.reuters.com/article/idUSL4N19Q2JA'
p2561
sg4
S'20160705\xc2\xa04:12AM UTC'
p2562
sg6
S'BRIEF-Angel Yeast sees H1 net profit up 70-90 pct'
p2563
sa(dp2564
g2
S'http://www.reuters.com/article/britain-sterling-open-idUSL8N19Q189'
p2565
sg4
S'20160705\xc2\xa04:11AM UTC'
p2566
sg6
S'Sterling stuck near post referendum lows, eyes on PMI data'
p2567
sa(dp2568
g2
S'http://www.reuters.com/article/idUSL4N19Q2J7'
p2569
sg4
S'20160705\xc2\xa04:10AM UTC'
p2570
sg6
S'BRIEF-Beibu Gulf Tourism sets up tourism development JV'
p2571
sa(dp2572
g2
S'http://www.reuters.com/article/china-stocks-hongkong-close-idUSZZN2NRW00'
p2573
sg4
S'20160705\xc2\xa04:09AM UTC'
p2574
sg6
S'HK shares up for 3rd day on stimulus hopes, higher commodity prices'
p2575
sa(dp2576
g2
S'http://www.reuters.com/article/idUSL4N19Q2J0'
p2577
sg4
S'20160705\xc2\xa04:09AM UTC'
p2578
sg6
S'BRIEF-Unizo Holdings prices new share issue at 3,552.2 yen per share'
p2579
sa(dp2580
g2
S'http://www.reuters.com/article/idUSL4N19Q2IW'
p2581
sg4
S'20160705\xc2\xa04:07AM UTC'
p2582
sg6
S'BRIEF-Easywell Biomedical to issue new shares for T$420 mln'
p2583
sa(dp2584
g2
S'http://www.reuters.com/article/sri-lanka-markets-idUSL4N19Q21D'
p2585
sg4
S'20160705\xc2\xa04:07AM UTC'
p2586
sg6
S'CORRECTED-Sri Lanka rupee weaker on importer demand, low liquidity'
p2587
sa(dp2588
g2
S'http://www.reuters.com/article/idUSL4N19Q2IQ'
p2589
sg4
S'20160705\xc2\xa04:06AM UTC'
p2590
sg6
S'BRIEF-TOBESOFT to issue convertible bonds worth 5 bln won'
p2591
sa(dp2592
g2
S'http://www.reuters.com/article/idUSFWN19P01I'
p2593
sg4
S'20160705\xc2\xa04:04AM UTC'
p2594
sg6
S'BRIEF-West International receives orders for card terminals'
p2595
sa(dp2596
g2
S'http://www.reuters.com/article/idUSL4N19Q2IB'
p2597
sg4
S'20160705\xc2\xa04:03AM UTC'
p2598
sg6
S'BRIEF-Bota Bio. completes private placement for 3.75 bln won'
p2599
sa(dp2600
g2
S'http://www.reuters.com/article/idUSL4N19Q2I3'
p2601
sg4
S'20160705\xc2\xa04:02AM UTC'
p2602
sg6
S'BRIEF-Mayinglong Pharmaceutical Group to pay 2015 div on July 8'
p2603
sa(dp2604
g2
S'http://www.reuters.com/article/idUSL4N19Q2I1'
p2605
sg4
S'20160705\xc2\xa04:02AM UTC'
p2606
sg6
S'BRIEF-Gold Stone Investment Co Ltd to sell 5.1 pct stake in Beijing Transture Technology'
p2607
sa(dp2608
g2
S'http://www.reuters.com/article/india-cenbank-deputy-idUSL4N19Q2CB'
p2609
sg4
S'20160705\xc2\xa04:01AM UTC'
p2610
sg6
S'India cenbank new deputy governor Vishwanathan takes charge'
p2611
sa(dp2612
g2
S'http://www.reuters.com/article/idUSL4N19Q2H6'
p2613
sg4
S'20160705\xc2\xa03:57AM UTC'
p2614
sg6
S'BRIEF-NCXX Group updates share repurchase status'
p2615
sa(dp2616
g2
S'http://www.reuters.com/article/idUSL4N19Q2H5'
p2617
sg4
S'20160705\xc2\xa03:57AM UTC'
p2618
sg6
S'BRIEF-Taiwan Semiconductor Manufacturing to buy machinery equipment at T$3.16 bln'
p2619
sa(dp2620
g2
S'http://www.reuters.com/article/idUSL4N19Q2H3'
p2621
sg4
S'20160705\xc2\xa03:56AM UTC'
p2622
sg6
S'BRIEF-Shanghai Jin Jiang International Hotels Development completes hotels acquisition'
p2623
sa(dp2624
g2
S'http://www.reuters.com/article/japan-idemitsu-kosan-idUSL4N19N1RG'
p2625
sg4
S'20160705\xc2\xa03:55AM UTC'
p2626
sg6
S"Idemitsu passed over concerns of founder's son to Showa Shell merger -lawyer"
p2627
sa(dp2628
g2
S'http://www.reuters.com/article/eurozone-bonds-idUSL8N19Q13X'
p2629
sg4
S'20160705\xc2\xa03:55AM UTC'
p2630
sg6
S'Euro zone yields rise as focus shifts from Brexit to supply'
p2631
sa(dp2632
g2
S'http://www.reuters.com/article/idUSL4N19Q2GO'
p2633
sg4
S'20160705\xc2\xa03:52AM UTC'
p2634
sg6
S'BRIEF-Nanjing Xinjiekou Department Store to pay 2015 div on July 11'
p2635
sa(dp2636
g2
S'http://www.reuters.com/article/idUSL4N19Q2GN'
p2637
sg4
S'20160705\xc2\xa03:52AM UTC'
p2638
sg6
S'BRIEF-Wuhu Yaxia Automobile to invest 46 mln yuan equivalent in tech firm'
p2639
sa(dp2640
g2
S'http://www.reuters.com/article/politics-bonds-idUSL8N19Q15G'
p2641
sg4
S'20160705\xc2\xa03:51AM UTC'
p2642
sg6
S'Investors prepare for more political shocks'
p2643
sa(dp2644
g2
S'http://www.reuters.com/article/britain-stocks-goldminers-idUSL9N14P026'
p2645
sg4
S'20160705\xc2\xa03:50AM UTC'
p2646
sg6
S'Precious metals miners set new peaks, Randgold hits record high'
p2647
sa(dp2648
g2
S'http://www.reuters.com/article/idUSL8N19Q0OV'
p2649
sg4
S'20160705\xc2\xa03:50AM UTC'
p2650
sg6
S'BRIEF-EBC Solicitors unit sells shares in EastSideCapital, buys in SIT'
p2651
sa(dp2652
g2
S'http://www.reuters.com/article/idUSL4N19Q2GG'
p2653
sg4
S'20160705\xc2\xa03:50AM UTC'
p2654
sg6
S'BRIEF-Avita adjusts 2015 dividend to T$1.22 per share'
p2655
sa(dp2656
g2
S'http://www.reuters.com/article/idUSL4N19Q2FW'
p2657
sg4
S'20160705\xc2\xa03:46AM UTC'
p2658
sg6
S'BRIEF-Shanghai Shenqi Pharmaceutical Investment Management to pay 2015 div on July 8'
p2659
sa(dp2660
g2
S'http://www.reuters.com/article/global-markets-qe-idUSL8N19Q158'
p2661
sg4
S'20160705\xc2\xa03:46AM UTC'
p2662
sg6
S'RPT-INVESTMENT FOCUS-Brexit revives ghost of crisis past - QE'
p2663
sa(dp2664
g2
S'http://www.reuters.com/article/us-bangladesh-attack-fbi-idUSKCN0ZK09U'
p2665
sg4
S'20160705\xc2\xa03:46AM UTC'
p2666
sg6
S"Kerry offers Bangladesh FBI help as police probe attackers' links"
p2667
sa(dp2668
g2
S'http://www.reuters.com/article/idUSL4N19Q2FA'
p2669
sg4
S'20160705\xc2\xa03:43AM UTC'
p2670
sg6
S"BRIEF-Haima Auto's vehicle sales up 64.3 pct in June"
p2671
sa(dp2672
g2
S'http://www.reuters.com/article/idUSL4N19Q2FF'
p2673
sg4
S'20160705\xc2\xa03:42AM UTC'
p2674
sg6
S'BRIEF-Landies Taipei Hotel says 2015 dividend record date is Aug. 30'
p2675
sa(dp2676
g2
S'http://www.reuters.com/article/global-forex-idUSL8N19Q0SS'
p2677
sg4
S'20160705\xc2\xa03:42AM UTC'
p2678
sg6
S'FOREX-Aussie dlr recovers from shaky start as calm returns to currency markets'
p2679
sa(dp2680
g2
S'http://www.reuters.com/article/britain-eu-trade-idUSL8N19Q13D'
p2681
sg4
S'20160705\xc2\xa03:41AM UTC'
p2682
sg6
S'Britain to hire foreign trade negotiators after Brexit, says Hammond'
p2683
sa(dp2684
g2
S'http://www.reuters.com/article/egypt-oil-debt-idUSL8N19Q0ZQ'
p2685
sg4
S'20160705\xc2\xa03:41AM UTC'
p2686
sg6
S'Egypt reduces arrears owed to foreign oil companies to $3.4 bln'
p2687
sa(dp2688
g2
S'http://www.reuters.com/article/idUSL4N19Q2F8'
p2689
sg4
S'20160705\xc2\xa03:40AM UTC'
p2690
sg6
S'BRIEF-SCI Pharmtech to pay 2015 dividend on Aug. 19'
p2691
sa(dp2692
g2
S'http://www.reuters.com/article/idUSL4N19Q2F2'
p2693
sg4
S'20160705\xc2\xa03:39AM UTC'
p2694
sg6
S'BRIEF-MIRAE ASSET No.4 SPECIAL PURPOSE ACQUISITION appoints Kang Jong Bong as CEO'
p2695
sa(dp2696
g2
S'http://www.reuters.com/article/idUSL8N19Q0KI'
p2697
sg4
S'20160705\xc2\xa03:39AM UTC'
p2698
sg6
S'BRIEF-EBC Solicitors unit negotiates sale of Stratego-Doradztwo Ksiegowe'
p2699
sa(dp2700
g2
S'http://www.reuters.com/article/idUSL4N19Q2EW'
p2701
sg4
S'20160705\xc2\xa03:39AM UTC'
p2702
sg6
S'BRIEF-Shandong Shanda Wit Science and Technology to pay 2015 dividend on July 8'
p2703
sa(dp2704
g2
S'http://www.reuters.com/article/idUSL4N19Q2EQ'
p2705
sg4
S'20160705\xc2\xa03:38AM UTC'
p2706
sg6
S'BRIEF-Kunyue Development to pay 2015 dividend on Aug. 8'
p2707
sa(dp2708
g2
S'http://www.reuters.com/article/idUSL4N19Q2EJ'
p2709
sg4
S'20160705\xc2\xa03:37AM UTC'
p2710
sg6
S"BRIEF-Harbin Dongan Auto Engine's engines sales up 144.6 pct in June"
p2711
sa(dp2712
g2
S'http://www.reuters.com/article/us-saudi-security-missile-idUSKCN0ZK0BB'
p2713
sg4
S'20160705\xc2\xa03:36AM UTC'
p2714
sg6
S'Saudi Arabia intercepts ballistic missile: Arabiya TV'
p2715
sa(dp2716
g2
S'http://www.reuters.com/article/idUSL4N19Q2ED'
p2717
sg4
S'20160705\xc2\xa03:36AM UTC'
p2718
sg6
S'BRIEF-Prince Housing & Development to pay 2015 dividend on Aug. 8'
p2719
sa(dp2720
g2
S'http://www.reuters.com/article/idUSL8N19Q0W1'
p2721
sg4
S'20160705\xc2\xa03:35AM UTC'
p2722
sg6
S'BRIEF-Prochnik June turnover up 40 pct YoY'
p2723
sa(dp2724
g2
S'http://www.reuters.com/article/us-australia-election-idUSKCN0ZJ0XG'
p2725
sg4
S'20160705\xc2\xa03:33AM UTC'
p2726
sg6
S'Far-right candidates emerge to fill vacuum after close Australia vote'
p2727
sa(dp2728
g2
S'http://www.reuters.com/article/europe-migrants-italy-idUSL8N19Q120'
p2729
sg4
S'20160705\xc2\xa03:33AM UTC'
p2730
sg6
S'Italy denies report it is ready to defy Brussels to help its banks'
p2731
sa(dp2732
g2
S'http://www.reuters.com/article/montepaschi-ecb-source-idUSI6N19M00U'
p2733
sg4
S'20160705\xc2\xa03:31AM UTC'
p2734
sg6
S'ECB asks Monte dei Paschi to speed up bad loan sales - source'
p2735
sa(dp2736
g2
S'http://www.reuters.com/article/us-china-commodities-idUSKCN0ZK0IL'
p2737
sg4
S'20160705\xc2\xa03:30AM UTC'
p2738
sg6
S'China commodities rally on hopes of stimulus to boost economy'
p2739
sa(dp2740
g2
S'http://www.reuters.com/article/idUSL4N19Q2DF'
p2741
sg4
S'20160705\xc2\xa03:30AM UTC'
p2742
sg6
S'BRIEF-Better Life Commercial Chain Share to pay 2015 dividend on July 12'
p2743
sa(dp2744
g2
S'http://www.reuters.com/article/southkorea-stocks-trading-idUSL4N19Q2CM'
p2745
sg4
S'20160705\xc2\xa03:29AM UTC'
p2746
sg6
S'TABLE-Foreign trading in South Korean stocks'
p2747
sa(dp2748
g2
S'http://www.reuters.com/article/idUSL4N19Q2D6'
p2749
sg4
S'20160705\xc2\xa03:27AM UTC'
p2750
sg6
S'BRIEF-Chongqing Zongshen Power Machinery to pay 2015 dividend on July 8'
p2751
sa(dp2752
g2
S'http://www.reuters.com/article/global-precious-idUSL4N19Q1L5'
p2753
sg4
S'20160705\xc2\xa03:26AM UTC'
p2754
sg6
S'PRECIOUS-Gold eases off near 2-yr high, silver crosses $21/oz'
p2755
sa(dp2756
g2
S'http://www.reuters.com/article/idUSL4N19Q2CH'
p2757
sg4
S'20160705\xc2\xa03:23AM UTC'
p2758
sg6
S'BRIEF-Shanghai Worth Garden says investment partnership to sell 7.3 pct stake in it'
p2759
sa(dp2760
g2
S'http://www.reuters.com/article/mideast-stocks-emirates-idUSL8N19Q0ZB'
p2761
sg4
S'20160705\xc2\xa03:21AM UTC'
p2762
sg6
S'MIDEAST STOCKS-UAE, Qatar edge up in early trade'
p2763
sa(dp2764
g2
S'http://www.reuters.com/article/idUSL4N19Q2C9'
p2765
sg4
S'20160705\xc2\xa03:19AM UTC'
p2766
sg6
S'BRIEF-Puyang Huicheng Electronic Material says investment company to sell 2.5 pct stake in it'
p2767
sa(dp2768
g2
S'http://www.reuters.com/article/europe-stocks-idUSL8N19Q0W2'
p2769
sg4
S'20160705\xc2\xa03:18AM UTC'
p2770
sg6
S'Miners help European shares rise for fifth straight day'
p2771
sa(dp2772
g2
S'http://www.reuters.com/article/britain-stocks-idUSL9N14P025'
p2773
sg4
S'20160705\xc2\xa03:18AM UTC'
p2774
sg6
S"Britain's FTSE 100 rises to build on post-Brexit fightback"
p2775
sa(dp2776
g2
S'http://www.reuters.com/article/idUSL8N19Q0Z3'
p2777
sg4
S'20160705\xc2\xa03:17AM UTC'
p2778
sg6
S'RPT-Tough regulatory fight ahead for European ABS'
p2779
sa(dp2780
g2
S'http://www.reuters.com/article/idUSL4N19Q2C2'
p2781
sg4
S'20160705\xc2\xa03:17AM UTC'
p2782
sg6
S'BRIEF-Kasai Kogyo says sub-unit establishment in China'
p2783
sa(dp2784
g2
S'http://www.reuters.com/article/poland-pensions-idUSFWN19P00T'
p2785
sg4
S'20160705\xc2\xa03:16AM UTC'
p2786
sg6
S"Polish deputy PM says plans to transfer pension funds' assets"
p2787
sa(dp2788
g2
S'http://www.reuters.com/article/montedeipaschi-ecb-stocks-idUSI6N19M00T'
p2789
sg4
S'20160705\xc2\xa03:16AM UTC'
p2790
sg6
S'Monte dei Paschi falls 3 pct after report of ECB asking to cut NPLs'
p2791
sa(dp2792
g2
S'http://www.reuters.com/article/idUSFWN19P012'
p2793
sg4
S'20160705\xc2\xa03:15AM UTC'
p2794
sg6
S'BRIEF-Amper and Fore Multi Strategy Master Fund extend maturity date of credit deal'
p2795
sa(dp2796
g2
S'http://www.reuters.com/article/australia-stocks-close-idUSL4N19Q2B0'
p2797
sg4
S'20160705\xc2\xa03:14AM UTC'
p2798
sg6
S'Australia shares end higher with help of miners'
p2799
sa(dp2800
g2
S'http://www.reuters.com/article/john-menzies-activist-shareholder-value-idUSL8N19Q0S8'
p2801
sg4
S'20160705\xc2\xa03:13AM UTC'
p2802
sg6
S'Activist investor takes 7 pct stake in John Menzies'
p2803
sa(dp2804
g2
S'http://www.reuters.com/article/idUSL4N19Q2BF'
p2805
sg4
S'20160705\xc2\xa03:13AM UTC'
p2806
sg6
S'BRIEF-Xinhu Zhongbao to pay 2015 div on July 8'
p2807
sa(dp2808
g2
S'http://www.reuters.com/article/ucb-sadaiichi-sankyo-medicine-idUSL8N19Q0T7'
p2809
sg4
S'20160705\xc2\xa03:13AM UTC'
p2810
sg6
S'REFILE-UCB receives approval for epilepsy drug Vimpat in Japan'
p2811
sa(dp2812
g2
S'http://www.reuters.com/article/motor-f1-austria-rosberg-idUSL4N19Q28B'
p2813
sg4
S'20160705\xc2\xa03:13AM UTC'
p2814
sg6
S'Motor racing-Rosberg contract talks unaffected by crash - Mercedes'
p2815
sa(dp2816
g2
S'http://www.reuters.com/article/idUSL8N19Q0X4'
p2817
sg4
S'20160705\xc2\xa03:12AM UTC'
p2818
sg6
S'BRIEF-Morphosys shares up 4.4 pct after Novartis milestone payment'
p2819
sa(dp2820
g2
S'http://www.reuters.com/article/idUSL4N19Q2B8'
p2821
sg4
S'20160705\xc2\xa03:12AM UTC'
p2822
sg6
S'BRIEF-Red Planet Japan to sell property at 8 mln yen'
p2823
sa(dp2824
g2
S'http://www.reuters.com/article/china-stocks-close-idUSZZN2RRW00'
p2825
sg4
S'20160705\xc2\xa03:12AM UTC'
p2826
sg6
S'China stocks surge on stimulus hopes, higher commodity prices'
p2827
sa(dp2828
g2
S'http://www.reuters.com/article/idUSFWN19P011'
p2829
sg4
S'20160705\xc2\xa03:10AM UTC'
p2830
sg6
S'BRIEF-FIT Biotech names Liisa Laitinen Chief Financial Officer'
p2831
sa(dp2832
g2
S'http://www.reuters.com/article/idUSFWN19O00N'
p2833
sg4
S'20160705\xc2\xa03:10AM UTC'
p2834
sg6
S'BRIEF-SES exercises call option to acquire 100 pct of O3B networks'
p2835
sa(dp2836
g2
S'http://www.reuters.com/article/idUSL8N19Q0Y7'
p2837
sg4
S'20160705\xc2\xa03:09AM UTC'
p2838
sg6
S'BRIEF-Cairo Communication relaunches tender offer for RCS Mediagroup'
p2839
sa(dp2840
g2
S'http://www.reuters.com/article/idUSL4N19Q2AY'
p2841
sg4
S'20160705\xc2\xa03:08AM UTC'
p2842
sg6
S'BRIEF-Wuhan East Lake High Technology Group to buy 49 pct stake in real estate co'
p2843
sa(dp2844
g2
S'http://www.reuters.com/article/idUSL4N19Q2AM'
p2845
sg4
S'20160705\xc2\xa03:03AM UTC'
p2846
sg6
S'BRIEF-Wuhan East Lake High Technology Group to buy 48 pct stake in unit for 24 mln yuan'
p2847
sa(dp2848
g2
S'http://www.reuters.com/article/kenya-sex-idUSL8N19L3R2'
p2849
sg4
S'20160705\xc2\xa03:01AM UTC'
p2850
sg6
S'Kenya seeks tech alternatives to break taboo over sex education in schools'
p2851
sa(dp2852
g2
S'http://www.reuters.com/article/idUSL4N19Q29U'
p2853
sg4
S'20160705\xc2\xa03:01AM UTC'
p2854
sg6
S'BRIEF-BORYUNG PHARM announces patents granted'
p2855
sa(dp2856
g2
S'http://www.reuters.com/article/britain-eu-emerging-rally-idUSL1N19N1NG'
p2857
sg4
S'20160705\xc2\xa03:00AM UTC'
p2858
sg6
S'RPT-Brexit triggers surprise emerging market asset rally'
p2859
sa(dp2860
g2
S'http://www.reuters.com/article/us-cenbank-israel-intervention-idUSKCN0ZK0E2'
p2861
sg4
S'20160705\xc2\xa02:59AM UTC'
p2862
sg6
S"Bank of Israel buying 'hundreds of millions' of dollars: sources"
p2863
sa(dp2864
g2
S'http://www.reuters.com/article/hna-group-ma-gategroup-holdg-idUSL8N19Q0SX'
p2865
sg4
S'20160705\xc2\xa02:59AM UTC'
p2866
sg6
S'HNA bid for Gategroup shares yet to reach target'
p2867
sa(dp2868
g2
S'http://www.reuters.com/article/italy-factors-july-idUSL8N1971QE'
p2869
sg4
S'20160705\xc2\xa02:59AM UTC'
p2870
sg6
S'Italy - Factors to watch on July 4'
p2871
sa(dp2872
g2
S'http://www.reuters.com/article/nordics-markets-factors-idUSL8N19Q0OF'
p2873
sg4
S'20160705\xc2\xa02:58AM UTC'
p2874
sg6
S'NORDIC STOCKS - Factors to watch on July 4'
p2875
sa(dp2876
g2
S'http://www.reuters.com/article/idUSL4N19Q299'
p2877
sg4
S'20160705\xc2\xa02:57AM UTC'
p2878
sg6
S'BRIEF-Wuhan East Lake High Technology Group appoints Yang Tao as general manager'
p2879
sa(dp2880
g2
S'http://www.reuters.com/article/idUSL4N19Q297'
p2881
sg4
S'20160705\xc2\xa02:56AM UTC'
p2882
sg6
S'BRIEF-CL International to raise 998.8 mln won via private placement'
p2883
sa(dp2884
g2
S'http://www.reuters.com/article/idUSL8N19Q0UC'
p2885
sg4
S'20160705\xc2\xa02:55AM UTC'
p2886
sg6
S'BRIEF-Zucchi 10 mln euro reserved capital increase is complete'
p2887
sa(dp2888
g2
S'http://www.reuters.com/article/global-markets-idUSL4N19Q01R'
p2889
sg4
S'20160705\xc2\xa02:54AM UTC'
p2890
sg6
S'GLOBAL MARKETS-Asian stocks climb, Aussie recovers as markets digest uncertain election'
p2891
sa(dp2892
g2
S'http://www.reuters.com/article/montedeipaschi-ecb-idUSL8N19Q0QB'
p2893
sg4
S'20160705\xc2\xa02:54AM UTC'
p2894
sg6
S"ECB asks Italy's Monte dei Paschi to do more on bad loans - paper"
p2895
sa(dp2896
g2
S'http://www.reuters.com/article/kier-group-results-idUSL4N19Q267'
p2897
sg4
S'20160705\xc2\xa02:51AM UTC'
p2898
sg6
S'REFILE-Construction firm Kier says it has seen no impact of Brexit vote'
p2899
sa(dp2900
g2
S'http://www.reuters.com/article/idUSFWN19O00J'
p2901
sg4
S'20160705\xc2\xa02:51AM UTC'
p2902
sg6
S'BRIEF-Nueva Samede 2016 tranfers 2.5 pct stake of FCC to Inversora Carso'
p2903
sa(dp2904
g2
S'http://www.reuters.com/article/kazmunaigas-ep-outlook-idUSL8N19Q0OP'
p2905
sg4
S'20160705\xc2\xa02:47AM UTC'
p2906
sg6
S'UPDATE 1-Kazmunaigas EP says cash flow stabilises'
p2907
sa(dp2908
g2
S'http://www.reuters.com/article/idUSL4N19Q27V'
p2909
sg4
S'20160705\xc2\xa02:47AM UTC'
p2910
sg6
S'BRIEF-Fujian Sunnada Communication sets up Shenzhen technology unit'
p2911
sa(dp2912
g2
S'http://www.reuters.com/article/idUSL4N19Q27U'
p2913
sg4
S'20160705\xc2\xa02:46AM UTC'
p2914
sg6
S'BRIEF-INFOMARK signs 1.3 bln won contract with Shinsei'
p2915
sa(dp2916
g2
S'http://www.reuters.com/article/idUSL8N19Q0R0'
p2917
sg4
S'20160705\xc2\xa02:46AM UTC'
p2918
sg6
S'BRIEF-EastSideCapital announces changes in management and supervisory board'
p2919
sa(dp2920
g2
S'http://www.reuters.com/article/idUSS7N18002P'
p2921
sg4
S'20160705\xc2\xa02:46AM UTC'
p2922
sg6
S'BRIEF-TSMC orders machinery equipment from KLA-Tencor, Tokyo Electron'
p2923
sa(dp2924
g2
S'http://www.reuters.com/article/us-olympics-rio-rugby-newzealand-idUSKCN0ZK0FU'
p2925
sg4
S'20160705\xc2\xa02:44AM UTC'
p2926
sg6
S'Sibling rivalry in spotlight as Sonny Bill and sister head to Rio'
p2927
sa(dp2928
g2
S'http://www.reuters.com/article/idUSL4N19Q27A'
p2929
sg4
S'20160705\xc2\xa02:43AM UTC'
p2930
sg6
S'BRIEF-Shenzhen Capstone Industrial proposes 2016 H1 dividend payment'
p2931
sa(dp2932
g2
S'http://www.reuters.com/article/idUSL8N19Q0SI'
p2933
sg4
S'20160705\xc2\xa02:43AM UTC'
p2934
sg6
S'BRIEF-NoemaLife signs contract with UniLabs'
p2935
sa(dp2936
g2
S'http://www.reuters.com/article/idUSL8N19Q0LW'
p2937
sg4
S'20160705\xc2\xa02:43AM UTC'
p2938
sg6
S'BRIEF-Techstep buys Zono AS; Zono Holding plans to bid NOK 2.20 per TECH share'
p2939
sa(dp2940
g2
S'http://www.reuters.com/article/idUSL4N19Q278'
p2941
sg4
S'20160705\xc2\xa02:43AM UTC'
p2942
sg6
S'BRIEF-SAIC Motor to pay 2015 div on July 8'
p2943
sa(dp2944
g2
S'http://www.reuters.com/article/cb-moves-ceo-idUSD5N17U01H'
p2945
sg4
S'20160705\xc2\xa02:42AM UTC'
p2946
sg6
S'MOVES-Commercial Bank of Qatar appoints Abraham as CEO - statement'
p2947
sa(dp2948
g2
S'http://www.reuters.com/article/olympics-rio-rugby-newzealand-idUSL4N19Q1YM'
p2949
sg4
S'20160705\xc2\xa02:42AM UTC'
p2950
sg6
S'Olympics-Sibling rivalry in spotlight as Sonny Bill and sister head to Rio'
p2951
sa(dp2952
g2
S'http://www.reuters.com/article/idUSASM0004KF'
p2953
sg4
S'20160705\xc2\xa02:41AM UTC'
p2954
sg6
S'BRIEF-Skanska signs building contract, worth SEK 580 mln'
p2955
sa(dp2956
g2
S'http://www.reuters.com/article/us-lottegroup-probe-hotellotte-idUSKCN0ZK0FC'
p2957
sg4
S'20160705\xc2\xa02:40AM UTC'
p2958
sg6
S"Prosecutors seek detention for Lotte Group founder's daughter: Yonhap"
p2959
sa(dp2960
g2
S'http://www.reuters.com/article/idUSL4N19Q275'
p2961
sg4
S'20160705\xc2\xa02:39AM UTC'
p2962
sg6
S'BRIEF-Nsfocus Information Technology to pay 2015 dividend on July 8'
p2963
sa(dp2964
g2
S'http://www.reuters.com/article/mtn-group-managementchanges-cfo-idUSL8N19Q0LT'
p2965
sg4
S'20160705\xc2\xa02:37AM UTC'
p2966
sg6
S"South Africa's MTN says CFO Goschen resigns, names head of M&A;"
p2967
sa(dp2968
g2
S'http://www.reuters.com/article/idUSFWN19O00H'
p2969
sg4
S'20160705\xc2\xa02:36AM UTC'
p2970
sg6
S"BRIEF-UCB's Vimpat gets Japanese approval"
p2971
sa(dp2972
g2
S'http://www.reuters.com/article/us-bangladesh-attack-militants-idUSKCN0ZK0EJ'
p2973
sg4
S'20160705\xc2\xa02:34AM UTC'
p2974
sg6
S'Bangladesh police trying to confirm ID of Dhaka attackers'
p2975
sa(dp2976
g2
S'http://www.reuters.com/article/idUSFWN19P00S'
p2977
sg4
S'20160705\xc2\xa02:33AM UTC'
p2978
sg6
S'BRIEF-Wcm Beteiligungs Und Grundbesitz: lease contract for asset in Straubing'
p2979
sa(dp2980
g2
S'http://www.reuters.com/article/line-ipo-idUST9N19901A'
p2981
sg4
S'20160705\xc2\xa02:31AM UTC'
p2982
sg6
S'Line sets higher IPO price range, to raise up to $1.3 bln -filing'
p2983
sa(dp2984
g2
S'http://www.reuters.com/article/britain-stocks-factors-idUSL4N19Q24T'
p2985
sg4
S'20160705\xc2\xa02:30AM UTC'
p2986
sg6
S'UPDATE 1-UK Stocks-Factors to watch on July 4'
p2987
sa(dp2988
g2
S'http://www.reuters.com/article/idUSL8N19Q0PQ'
p2989
sg4
S'20160705\xc2\xa02:29AM UTC'
p2990
sg6
S'BRIEF-Mahindra tender offer on Pininfarina to run from July 11 to July 29'
p2991
sa(dp2992
g2
S'http://www.reuters.com/article/japan-stocks-close-idUSL4N19Q245'
p2993
sg4
S'20160705\xc2\xa02:28AM UTC'
p2994
sg6
S'Nikkei rises for 6th day as Brexit fears recede; volume lowest since Dec'
p2995
sa(dp2996
g2
S'http://www.reuters.com/article/idUSL4N19Q23V'
p2997
sg4
S'20160705\xc2\xa02:24AM UTC'
p2998
sg6
S'BRIEF-Yinhe Electronics cuts private placement size to 1.5 bln yuan'
p2999
sa(dp3000
g2
S'http://www.reuters.com/article/idUSASM0004KD'
p3001
sg4
S'20160705\xc2\xa02:21AM UTC'
p3002
sg6
S'BRIEF-Trakm8 wins Allianz contracts to supply telematics devices'
p3003
sa(dp3004
g2
S'http://www.reuters.com/article/barwa-results-idUSD5N17T008'
p3005
sg4
S'20160705\xc2\xa02:21AM UTC'
p3006
sg6
S"Qatar's Barwa Real Estate Q2 net profit nearly trebles"
p3007
sa(dp3008
g2
S'http://www.reuters.com/article/markets-spain-factors-idUSL8N19M663'
p3009
sg4
S'20160705\xc2\xa02:20AM UTC'
p3010
sg6
S'Spanish stocks - Factors to watch on Monday'
p3011
sa(dp3012
g2
S'http://www.reuters.com/article/philippines-energy-idUSL4N19Q17Y'
p3013
sg4
S'20160705\xc2\xa02:19AM UTC'
p3014
sg6
S"New Philippine energy minister says can't afford to ditch coal"
p3015
sa(dp3016
g2
S'http://www.reuters.com/article/idUSFWN19P00J'
p3017
sg4
S'20160705\xc2\xa02:18AM UTC'
p3018
sg6
S'BRIEF-Sabvest sees H1 HEPS to be at least 20 pct lower'
p3019
sa(dp3020
g2
S'http://www.reuters.com/article/idUSL4N19Q24D'
p3021
sg4
S'20160705\xc2\xa02:18AM UTC'
p3022
sg6
S'BRIEF-Guangdong zhongsheng Pharmaceutical sets up medical technology JV in Guangzhou'
p3023
sa(dp3024
g2
S'http://www.reuters.com/article/idUSL4N19Q244'
p3025
sg4
S'20160705\xc2\xa02:16AM UTC'
p3026
sg6
S'BRIEF-Daytona says change of main shareholders'
p3027
sa(dp3028
g2
S'http://www.reuters.com/article/idUSFWN19P00O'
p3029
sg4
S'20160705\xc2\xa02:15AM UTC'
p3030
sg6
S'BRIEF-Hargreaves Services says trading ahead of year end meets expectations'
p3031
sa(dp3032
g2
S'http://www.reuters.com/article/idUSFWN19P00M'
p3033
sg4
S'20160705\xc2\xa02:15AM UTC'
p3034
sg6
S'BRIEF-WYG-led consortium wins 13.1 mln euros western balkans contract'
p3035
sa(dp3036
g2
S'http://www.reuters.com/article/idUSL4N19Q23N'
p3037
sg4
S'20160705\xc2\xa02:15AM UTC'
p3038
sg6
S'BRIEF-ESTsoft to issue convertible bonds worth 10 bln won'
p3039
sa(dp3040
g2
S'http://www.reuters.com/article/idUSFWN19P00E'
p3041
sg4
S'20160705\xc2\xa02:13AM UTC'
p3042
sg6
S'BRIEF-HSBC completes sale of Brazil business'
p3043
sa(dp3044
g2
S'http://www.reuters.com/article/germany-stocks-factors-idUSL8N19N3R2'
p3045
sg4
S'20160705\xc2\xa02:12AM UTC'
p3046
sg6
S'German stocks - Factors to watch on July 4'
p3047
sa(dp3048
g2
S'http://www.reuters.com/article/idUSL4N19Q238'
p3049
sg4
S'20160705\xc2\xa02:10AM UTC'
p3050
sg6
S'BRIEF-Gaban to delist from TSE JASDAQ on Aug. 5'
p3051
sa(dp3052
g2
S'http://www.reuters.com/article/lottegroup-probe-hotellotte-idUSS6N17L012'
p3053
sg4
S'20160705\xc2\xa02:09AM UTC'
p3054
sg6
S"Prosecutors seek detention for Lotte Group founder's daughter -Yonhap"
p3055
sa(dp3056
g2
S'http://www.reuters.com/article/idUSB9N19L01N'
p3057
sg4
S'20160705\xc2\xa02:09AM UTC'
p3058
sg6
S'BRIEF-Honda says June China vehicle sales +31.8 pct y/y'
p3059
sa(dp3060
g2
S'http://www.reuters.com/article/idUSL4N19Q22Q'
p3061
sg4
S'20160705\xc2\xa02:08AM UTC'
p3062
sg6
S'BRIEF-R&I; affirms Daido Metal\'s rating at "BBB" and stable outlook'
p3063
sa(dp3064
g2
S'http://www.reuters.com/article/idUSB9N19L01L'
p3065
sg4
S'20160705\xc2\xa02:07AM UTC'
p3066
sg6
S'BRIEF-Toyota says June China vehicle sales -3.4 percent y/y'
p3067
sa(dp3068
g2
S'http://www.reuters.com/article/idUSFWN19O00F'
p3069
sg4
S'20160705\xc2\xa02:06AM UTC'
p3070
sg6
S'BRIEF-Tie Kinetix June order intake exceeds EUR 1.6 mln'
p3071
sa(dp3072
g2
S'http://www.reuters.com/article/idUSFWN19O00D'
p3073
sg4
S'20160705\xc2\xa02:04AM UTC'
p3074
sg6
S'BRIEF-FFP is taking an equity stake in Tikehau Capital'
p3075
sa(dp3076
g2
S'http://www.reuters.com/article/idUSFWN19P00I'
p3077
sg4
S'20160705\xc2\xa02:03AM UTC'
p3078
sg6
S'BRIEF-Onxeo gets USPTO notice of allowance for AsiDNATM Patent'
p3079
sa(dp3080
g2
S'http://www.reuters.com/article/britain-eu-property-idUSL8N19N2RT'
p3081
sg4
S'20160705\xc2\xa02:02AM UTC'
p3082
sg6
S'Brexit vote shakes up London property market'
p3083
sa(dp3084
g2
S'http://www.reuters.com/article/markets-swiss-stocks-idUSL8N19N2JZ'
p3085
sg4
S'20160705\xc2\xa02:02AM UTC'
p3086
sg6
S'Swiss stocks - Factors to watch on July 4'
p3087
sa(dp3088
g2
S'http://www.reuters.com/article/idUSASC08VZO'
p3089
sg4
S'20160705\xc2\xa02:02AM UTC'
p3090
sg6
S'BRIEF-Aegon announces repurchase of shares to neutralize final stock dividend'
p3091
sa(dp3092
g2
S'http://www.reuters.com/article/idUSL4N19Q1Z9'
p3093
sg4
S'20160705\xc2\xa02:00AM UTC'
p3094
sg6
S'BRIEF-Guanfu Modern Household Wares cuts private placement size to 700 mln yuan'
p3095
sa(dp3096
g2
S'http://www.reuters.com/article/britaineurope-tax-idUSL8N19P0I7'
p3097
sg4
S'20160705\xc2\xa02:00AM UTC'
p3098
sg6
S"RPT-Tax haven route won't work for post-Brexit UK, OECD says"
p3099
sa(dp3100
g2
S'http://www.reuters.com/article/idUSL4N19Q216'
p3101
sg4
S'20160705\xc2\xa02:00AM UTC'
p3102
sg6
S'BRIEF-Hangzhou Hikvision Digital Technology to set up Hangzhou auto technology JV'
p3103
sa(dp3104
g2
S'http://www.reuters.com/article/china-infrastructure-private-idUSL8N19F168'
p3105
sg4
S'20160705\xc2\xa02:00AM UTC'
p3106
sg6
S"China's private infrastructure firms face unexpected competition"
p3107
sa(dp3108
g2
S'http://www.reuters.com/article/sweden-housing-idUSL8N19N3CT'
p3109
sg4
S'20160705\xc2\xa02:00AM UTC'
p3110
sg6
S'Sweden faces housing crunch despite government building plan'
p3111
sa(dp3112
g2
S'http://www.reuters.com/article/idUSL4N19Q20N'
p3113
sg4
S'20160705\xc2\xa01:59AM UTC'
p3114
sg6
S'BRIEF-Gree Electric Appliances to pay 2015 dividend on July 7'
p3115
sa(dp3116
g2
S'http://www.reuters.com/article/idUSFWN19O00C'
p3117
sg4
S'20160705\xc2\xa01:59AM UTC'
p3118
sg6
S'BRIEF-KAS Bank signs agreement with Atos for IT services management'
p3119
sa(dp3120
g2
S'http://www.reuters.com/article/idUSFWN19P00D'
p3121
sg4
S'20160705\xc2\xa01:58AM UTC'
p3122
sg6
S'BRIEF-Livechat Software no. of clients using paid version of LiveChat rises to 15,892 YoY'
p3123
sa(dp3124
g2
S'http://www.reuters.com/article/idUSL4N19Q1ZP'
p3125
sg4
S'20160705\xc2\xa01:53AM UTC'
p3126
sg6
S'BRIEF-Yantai Changyu Pioneer Wine to pay 2015 dividend'
p3127
sa(dp3128
g2
S'http://www.reuters.com/article/idUSFit962619'
p3129
sg4
S'20160705\xc2\xa01:53AM UTC'
p3130
sg6
S"Fitch Rates Bank of China's Green Bonds 'A(EXP)'"
p3131
sa(dp3132
g2
S'http://www.reuters.com/article/us-athletics-olympics-usa-idUSKCN0ZK007'
p3133
sg4
S'20160705\xc2\xa01:52AM UTC'
p3134
sg6
S'Felix, Gatlin storm to U.S. trials victories'
p3135
sa(dp3136
g2
S'http://www.reuters.com/article/britain-stocks-factors-idUSL4N19Q1YV'
p3137
sg4
S'20160705\xc2\xa01:52AM UTC'
p3138
sg6
S'UK Stocks-Factors to watch on July 4'
p3139
sa(dp3140
g2
S'http://www.reuters.com/article/idUSL8N19Q0F0'
p3141
sg4
S'20160705\xc2\xa01:48AM UTC'
p3142
sg6
S'BRIEF-H\xc3\xb6gkullen buys LSS properties on Gotland from Hems\xc3\xb6'
p3143
sa(dp3144
g2
S'http://www.reuters.com/article/us-india-cabinet-idUSKCN0ZK0CH'
p3145
sg4
S'20160705\xc2\xa01:48AM UTC'
p3146
sg6
S'Indian PM Modi to fill cabinet vacancies Tuesday'
p3147
sa(dp3148
g2
S'http://www.reuters.com/article/idUSL4N19Q1YX'
p3149
sg4
S'20160705\xc2\xa01:46AM UTC'
p3150
sg6
S'BRIEF-Venustech Group unit to fully buy Beijing electronic technology unit'
p3151
sa(dp3152
g2
S'http://www.reuters.com/article/idUSL8N19Q0FM'
p3153
sg4
S'20160705\xc2\xa01:45AM UTC'
p3154
sg6
S'BRIEF-Novavest Real Estate successfully placed mandatory convertible bond'
p3155
sa(dp3156
g2
S'http://www.reuters.com/article/idUSL4N19Q1YL'
p3157
sg4
S'20160705\xc2\xa01:45AM UTC'
p3158
sg6
S'BRIEF-Kedi Dairy cuts private placement size to 694.3 mln yuan'
p3159
sa(dp3160
g2
S'http://www.reuters.com/article/idUSL4N19Q1YR'
p3161
sg4
S'20160705\xc2\xa01:45AM UTC'
p3162
sg6
S'BRIEF-Beijing Hualian Hypermarket to sell 65 pct stake in biotechnology company at 43.5 mln yuan'
p3163
sa(dp3164
g2
S'http://www.reuters.com/article/idUSL4N19Q1XT'
p3165
sg4
S'20160705\xc2\xa01:43AM UTC'
p3166
sg6
S'BRIEF-Accelink Technologies says 8 killed in accident in Wuhan'
p3167
sa(dp3168
g2
S'http://www.reuters.com/article/idUSL8N19Q0D1'
p3169
sg4
S'20160705\xc2\xa01:42AM UTC'
p3170
sg6
S'BRIEF-Mindmancer: EPO intends to grant patent'
p3171
sa(dp3172
g2
S'http://www.reuters.com/article/france-benelux-markets-idUSL8N19Q0CP'
p3173
sg4
S'20160705\xc2\xa01:41AM UTC'
p3174
sg6
S'French and Benelux stocks-Factors to watch on July 4'
p3175
sa(dp3176
g2
S'http://www.reuters.com/article/idUSL4N19Q1Y9'
p3177
sg4
S'20160705\xc2\xa01:41AM UTC'
p3178
sg6
S'BRIEF-Venustech Group unit to set up information technology JV'
p3179
sa(dp3180
g2
S'http://www.reuters.com/article/idUSL8N19Q0EG'
p3181
sg4
S'20160705\xc2\xa01:39AM UTC'
p3182
sg6
S'BRIEF-GN Store closes acquisition of Audigy Group'
p3183
sa(dp3184
g2
S'http://www.reuters.com/article/mideast-stocks-emirates-idUSL8N19Q0CW'
p3185
sg4
S'20160705\xc2\xa01:38AM UTC'
p3186
sg6
S'MIDEAST STOCKS-Abu Dhabi may edge lower on profit booking'
p3187
sa(dp3188
g2
S'http://www.reuters.com/article/idUSFWN19O008'
p3189
sg4
S'20160705\xc2\xa01:36AM UTC'
p3190
sg6
S'BRIEF-Morphosys gets Novartis milestone payment for phase 1 trial'
p3191
sa(dp3192
g2
S'http://www.reuters.com/article/idUSFWN19O00A'
p3193
sg4
S'20160705\xc2\xa01:36AM UTC'
p3194
sg6
S'BRIEF-Banca Sistema finalizes acquisition of 100 pct stake in Beta Stepstone'
p3195
sa(dp3196
g2
S'http://www.reuters.com/article/idUSFWN19P00B'
p3197
sg4
S'20160705\xc2\xa01:35AM UTC'
p3198
sg6
S"BRIEF-Grenke Group Leasing's new business up 19.6 pct at EUR 762.7 mln"
p3199
sa(dp3200
g2
S'http://www.reuters.com/article/us-singapore-food-hawkercentre-idUSKCN0ZK0BW'
p3201
sg4
S'20160705\xc2\xa01:35AM UTC'
p3202
sg6
S"Serving up a solution to Singapore's retiring hawker sellers"
p3203
sa(dp3204
g2
S'http://www.reuters.com/article/idUSFWN19P00A'
p3205
sg4
S'20160705\xc2\xa01:35AM UTC'
p3206
sg6
S'BRIEF-Refresco Group increases and extends its existing syndicated loan facility'
p3207
sa(dp3208
g2
S'http://www.reuters.com/article/idUSL8N19Q0D2'
p3209
sg4
S'20160705\xc2\xa01:33AM UTC'
p3210
sg6
S'BRIEF-AFM fines Binckbank 750,000 euros'
p3211
sa(dp3212
g2
S'http://www.reuters.com/article/idUSL8N19Q0CX'
p3213
sg4
S'20160705\xc2\xa01:29AM UTC'
p3214
sg6
S'BRIEF-Borussia Dortmund: player Henrikh Mkhitaryan to be transferred to Manchester United'
p3215
sa(dp3216
g2
S'http://www.reuters.com/article/idUSL4N19Q1X1'
p3217
sg4
S'20160705\xc2\xa01:28AM UTC'
p3218
sg6
S'BRIEF-Korea Real Estate Investment Trust to list on Korea Exchange'
p3219
sa(dp3220
g2
S'http://www.reuters.com/article/idUSL4N19Q1WY'
p3221
sg4
S'20160705\xc2\xa01:27AM UTC'
p3222
sg6
S'BRIEF-China Security & Fire sets up equity investment unit'
p3223
sa(dp3224
g2
S'http://www.reuters.com/article/poland-pensions-idUSL8N19Q0CH'
p3225
sg4
S'20160705\xc2\xa01:26AM UTC'
p3226
sg6
S'RPT-Poland to rule on pension fund future on Monday -sources'
p3227
sa(dp3228
g2
S'http://www.reuters.com/article/idUSL8N19Q0CB'
p3229
sg4
S'20160705\xc2\xa01:24AM UTC'
p3230
sg6
S'BRIEF-METRIC mobility solutions: application for self-administration approved'
p3231
sa(dp3232
g2
S'http://www.reuters.com/article/japan-bonds-idUSL4N19Q1VK'
p3233
sg4
S'20160705\xc2\xa01:22AM UTC'
p3234
sg6
S'JGB yields rise from record lows ahead of auction'
p3235
sa(dp3236
g2
S'http://www.reuters.com/article/idUSL4N19Q1WC'
p3237
sg4
S'20160705\xc2\xa01:19AM UTC'
p3238
sg6
S'BRIEF-Tonghua Golden-Horse Pharmaceutical Industry to set up biotechnology unit'
p3239
sa(dp3240
g2
S'http://www.reuters.com/article/us-saudi-security-usa-idUSKCN0ZK06I'
p3241
sg4
S'20160705\xc2\xa01:17AM UTC'
p3242
sg6
S'U.S. State Department says aware of Jeddah blast; all personnel accounted for'
p3243
sa(dp3244
g2
S'http://www.reuters.com/article/idUSL4N19Q1W3'
p3245
sg4
S'20160705\xc2\xa01:16AM UTC'
p3246
sg6
S'BRIEF-Sunshine City Group unit wins auction of getting 49 pct stake in estate firm'
p3247
sa(dp3248
g2
S'http://www.reuters.com/article/idUSFWN19P007'
p3249
sg4
S'20160705\xc2\xa01:13AM UTC'
p3250
sg6
S'BRIEF-MTN Group says CFO Brett Goschen to leave co; effective Sept. 30'
p3251
sa(dp3252
g2
S'http://www.reuters.com/article/southeast-asia-stocks-idUSL4N19Q1KW'
p3253
sg4
S'20160705\xc2\xa01:11AM UTC'
p3254
sg6
S'SE Asia Stocks-Rise as markets continue post-Brexit recovery'
p3255
sa(dp3256
g2
S'http://www.reuters.com/article/idUSFWN19O004'
p3257
sg4
S'20160705\xc2\xa01:11AM UTC'
p3258
sg6
S'BRIEF-REC Silicon says fire at Moses Lake hits Q3 output forecast'
p3259
sa(dp3260
g2
S'http://www.reuters.com/article/idUSL4N19Q1VL'
p3261
sg4
S'20160705\xc2\xa01:10AM UTC'
p3262
sg6
S'BRIEF-TOBESOFT announces appointment of Lee Hong Gu  as co-CEO'
p3263
sa(dp3264
g2
S'http://www.reuters.com/article/idUSFWN19P008'
p3265
sg4
S'20160705\xc2\xa01:10AM UTC'
p3266
sg6
S'BRIEF-Famous Brands buys tomato paste manufacturing plant'
p3267
sa(dp3268
g2
S'http://www.reuters.com/article/idUSL4N19Q1US'
p3269
sg4
S'20160705\xc2\xa01:07AM UTC'
p3270
sg6
S'BRIEF-Exicon to get stakes in ceramic firm for 7 bln won'
p3271
sa(dp3272
g2
S'http://www.reuters.com/article/idUSFWN19P004'
p3273
sg4
S'20160705\xc2\xa01:07AM UTC'
p3274
sg6
S'BRIEF-NunaMinerals: Court of Greenland rules in favour of Bankruptcy petition claim'
p3275
sa(dp3276
g2
S'http://www.reuters.com/article/idUSFWN19P006'
p3277
sg4
S'20160705\xc2\xa01:06AM UTC'
p3278
sg6
S'BRIEF-Gategroup Holding: HNA releases prelim interim result of public tender offer'
p3279
sa(dp3280
g2
S'http://www.reuters.com/article/idUSL4N19Q1UP'
p3281
sg4
S'20160705\xc2\xa01:06AM UTC'
p3282
sg6
S'BRIEF-Changjiang Securities to set up 45 new branches'
p3283
sa(dp3284
g2
S'http://www.reuters.com/article/idUSFWN19O007'
p3285
sg4
S'20160705\xc2\xa01:06AM UTC'
p3286
sg6
S'BRIEF-Cafom H1 EBITDA up at 10.2 mln euros'
p3287
sa(dp3288
g2
S'http://www.reuters.com/article/idUSFWN19O003'
p3289
sg4
S'20160705\xc2\xa01:05AM UTC'
p3290
sg6
S'BRIEF-Fish farmer Bakkafrost says harvested 13,000 tonnes in Q2'
p3291
sa(dp3292
g2
S'http://www.reuters.com/article/idUSL4N19Q1U4'
p3293
sg4
S'20160705\xc2\xa01:05AM UTC'
p3294
sg6
S'BRIEF-Zhonghuan Semiconductor plans to acquire stakes in GD Solar via share issue'
p3295
sa(dp3296
g2
S'http://www.reuters.com/article/idUSFWN19O005'
p3297
sg4
S'20160705\xc2\xa01:05AM UTC'
p3298
sg6
S"BRIEF-Gemalto to supply DRC's CENI with mobile biometric enrollment solution"
p3299
sa(dp3300
g2
S'http://www.reuters.com/article/idUSFWN19P003'
p3301
sg4
S'20160705\xc2\xa01:05AM UTC'
p3302
sg6
S'BRIEF-Kungsleden and Nobis sign agreement for design hotel in Vasastan'
p3303
sa(dp3304
g2
S'http://www.reuters.com/article/idUSFWN19P005'
p3305
sg4
S'20160705\xc2\xa01:05AM UTC'
p3306
sg6
S'BRIEF-Sulzer acquires Geka and doubles size of its most profitable business unit'
p3307
sa(dp3308
g2
S'http://www.reuters.com/article/idUSFWN19P002'
p3309
sg4
S'20160705\xc2\xa01:03AM UTC'
p3310
sg6
S'BRIEF-SGS says to acquire Compliance Certification Services'
p3311
sa(dp3312
g2
S'http://www.reuters.com/article/us-hongkong-china-notification-idUSKCN0ZK0AD'
p3313
sg4
S'20160705\xc2\xa01:00AM UTC'
p3314
sg6
S'Hong Kong sending delegation to Beijing on detainee notification'
p3315
sa(dp3316
g2
S'http://www.reuters.com/article/lse-deutsche-boerse-shareholders-idUSL8N19N49C'
p3317
sg4
S'20160705\xc2\xa01:00AM UTC'
p3318
sg6
S'RPT-London stock exchange shareholders vote on merger deal under Brexit cloud'
p3319
sa(dp3320
g2
S'http://www.reuters.com/article/canada-helium-idUSL2N17B1EB'
p3321
sg4
S'20160705\xc2\xa01:00AM UTC'
p3322
sg6
S'FEATURE-Full of hot air: Helium producers eye Canada as U.S. reserve shrinks'
p3323
sa(dp3324
g2
S'http://www.reuters.com/article/petrobras-offshore-partners-idUSL1N1911RJ'
p3325
sg4
S'20160705\xc2\xa01:00AM UTC'
p3326
sg6
S"Petrobras' Indian partners fight delay in troubled Brazil oil project"
p3327
sa(dp3328
g2
S'http://www.reuters.com/article/china-stocks-midday-idUSL4N19Q1IE'
p3329
sg4
S'20160705\xc2\xa012:57AM UTC'
p3330
sg6
S'Higher commodity prices, stimulus hopes buoy shares in China, Hong Kong'
p3331
sa(dp3332
g2
S'http://www.reuters.com/article/athletics-olympics-usa-idUSL1N19P0C6'
p3333
sg4
S'20160705\xc2\xa012:54AM UTC'
p3334
sg6
S'UPDATE 1-Athletics-Felix, Gatlin storm to U.S. trials victories'
p3335
sa(dp3336
g2
S'http://www.reuters.com/article/us-thailand-politics-idUSKCN0ZK09O'
p3337
sg4
S'20160705\xc2\xa012:44AM UTC'
p3338
sg6
S'Thailand sets up security centers ahead of referendum'
p3339
sa(dp3340
g2
S'http://www.reuters.com/article/idUSL4N19Q1RL'
p3341
sg4
S'20160705\xc2\xa012:38AM UTC'
p3342
sg6
S'BRIEF-Beijing Dabeinong Technology Group updates establishment of JV'
p3343
sa(dp3344
g2
S'http://www.reuters.com/article/idUSL4N19Q1RK'
p3345
sg4
S'20160705\xc2\xa012:37AM UTC'
p3346
sg6
S"BRIEF-Greenland's indirectly owned unit sell shares in Rundong Auto Group for HK$2 bln"
p3347
sa(dp3348
g2
S'http://www.reuters.com/article/idUSL4N19Q1RG'
p3349
sg4
S'20160705\xc2\xa012:36AM UTC'
p3350
sg6
S'BRIEF-Shandong Pharmaceutical Glass to buy 28 pct stake in pharmaceutical glass company at 8.7 mln yuan'
p3351
sa(dp3352
g2
S'http://www.reuters.com/article/us-olympics-rio-zika-matsuyama-idUSKCN0ZK096'
p3353
sg4
S'20160705\xc2\xa012:27AM UTC'
p3354
sg6
S'Golfer Matsuyama to skip Olympics, cites Zika fears'
p3355
sa(dp3356
g2
S'http://www.reuters.com/article/idUSL4N19Q1QJ'
p3357
sg4
S'20160705\xc2\xa012:25AM UTC'
p3358
sg6
S'BRIEF-Beijing VRV Software says individual sells 25 mln shares of it'
p3359
sa(dp3360
g2
S'http://www.reuters.com/article/idUSFWN19O002'
p3361
sg4
S'20160705\xc2\xa012:25AM UTC'
p3362
sg6
S'BRIEF-Flour Mills of Nigeria announces late filing of audited financial statements for FY 2016'
p3363
sa(dp3364
g2
S'http://www.reuters.com/article/japan-stocks-midday-idUSL4N19Q1CX'
p3365
sg4
S'20160705\xc2\xa012:19AM UTC'
p3366
sg6
S'CORRECTED-Nikkei edges up for 6th day in choppy trade as Brexit panic fades'
p3367
sa(dp3368
g2
S'http://www.reuters.com/article/idUSL4N19Q1PU'
p3369
sg4
S'20160705\xc2\xa012:19AM UTC'
p3370
sg6
S'BRIEF-Sentronic International to pay 2015 dividend on Aug. 2'
p3371
sa(dp3372
g2
S'http://www.reuters.com/article/idUSL4N19Q1PM'
p3373
sg4
S'20160705\xc2\xa012:16AM UTC'
p3374
sg6
S'BRIEF-Universal Vision Biotechnology says 2015 dividend record date is July 25'
p3375
sa(dp3376
g2
S'http://www.reuters.com/article/idUSL4N19Q1PL'
p3377
sg4
S'20160705\xc2\xa012:16AM UTC'
p3378
sg6
S"BRIEF-China Real Estate terminates plan to boost unit's capital, plans acquisition"
p3379
sa(dp3380
g2
S'http://www.reuters.com/article/bbo-marlins-braves-writethru-idUSMTZEC74RTEP9W'
p3381
sg4
S'20160705\xc2\xa012:08AM UTC'
p3382
sg6
S'Conley, Marlins beat Braves at Fort Bragg'
p3383
sa(dp3384
g2
S'http://www.reuters.com/article/florida-alligator-child-idUSL1N19Q02D'
p3385
sg4
S'20160705\xc2\xa012:07AM UTC'
p3386
sg6
S'Father of toddler killed at Disney resort says two alligators were involved'
p3387
sa(dp3388
g2
S'http://www.reuters.com/article/idUSL4N19Q1OM'
p3389
sg4
S'20160705\xc2\xa012:06AM UTC'
p3390
sg6
S'BRIEF-Zig Sheng Industrial to pay 2015 dividend on Aug. 19'
p3391
sa(dp3392
g2
S'http://www.reuters.com/article/idUSL4N19Q1OL'
p3393
sg4
S'20160705\xc2\xa012:06AM UTC'
p3394
sg6
S"BRIEF-Yango Group's unit wins bid to acquire stakes in Guangzhou property firm"
p3395
sa(dp3396
g2
S'http://www.reuters.com/article/idUSL4N19Q1O3'
p3397
sg4
S'20160705\xc2\xa012:02AM UTC'
p3398
sg6
S'BRIEF-We&Win; Diversification says 2015 dividend record date is Aug. 17'
p3399
sa(dp3400
g2
S'http://www.reuters.com/article/diary-eci-idUSL8N19N1I4'
p3401
sg4
S'20160705\xc2\xa012:00AM UTC'
p3402
sg6
S'Economic Indicators in Germany from July 5'
p3403
sa(dp3404
g2
S'http://www.reuters.com/news/video/videoStory?storyID=120207777'
p3405
sg4
S'20160705\xc2\xa011:41PM UTC'
p3406
sg6
S'Dhaka attack: bodies of Japanese victims arrive home'
p3407
sa(dp3408
g2
S'http://www.reuters.com/news/video/videoStory?storyID=120207672'
p3409
sg4
S'20160705\xc2\xa011:21PM UTC'
p3410
sg6
S'Police and firefighters in Rio pay protest'
p3411
sa(dp3412
g2
S'http://www.reuters.com/news/video/videoStory?storyID=120206882'
p3413
sg4
S'20160705\xc2\xa08:39PM UTC'
p3414
sg6
S'Cuban waterspouts injure dozens'
p3415
sa(dp3416
g2
S'http://www.reuters.com/news/video/videoStory?storyID=120206032'
p3417
sg4
S'20160705\xc2\xa06:44PM UTC'
p3418
sg6
S'Floridians celebrate the Fourth with pie'
p3419
sa(dp3420
g2
S'http://www.reuters.com/news/video/videoStory?storyID=120205559'
p3421
sg4
S'20160705\xc2\xa05:25PM UTC'
p3422
sg6
S'U.S. senators warn against troop cuts in Afghanistan'
p3423
sa(dp3424
g2
S'http://www.reuters.com/news/video/videoStory?storyID=120205164'
p3425
sg4
S'20160705\xc2\xa04:56PM UTC'
p3426
sg6
S"Falluja's displaced struggle to celebrate Eid"
p3427
sa(dp3428
g2
S'http://www.reuters.com/news/video/videoStory?storyID=120205012'
p3429
sg4
S'20160705\xc2\xa04:48PM UTC'
p3430
sg6
S'Shelling at Iranian dissident camp near Baghdad airport'
p3431
sa(dp3432
g2
S'http://www.reuters.com/news/video/videoStory?storyID=120204701'
p3433
sg4
S'20160705\xc2\xa04:16PM UTC'
p3434
sg6
S'Netanyahu remembers brother killed in Entebbe'
p3435
sa(dp3436
g2
S'http://www.reuters.com/news/video/videoStory?storyID=120203853'
p3437
sg4
S'20160705\xc2\xa02:56PM UTC'
p3438
sg6
S'Third Saudi bomb attack in one day mars end of Ramadan'
p3439
sa(dp3440
g2
S'http://www.reuters.com/news/video/videoStory?storyID=120203772'
p3441
sg4
S'20160705\xc2\xa02:47PM UTC'
p3442
sg6
S'Russia prepares upgraded Soyuz for launch'
p3443
sa(dp3444
g2
S'http://www.reuters.com/news/video/videoStory?storyID=120203277'
p3445
sg4
S'20160705\xc2\xa01:59PM UTC'
p3446
sg6
S'Saying goodbye to Bangladesh attack victims'
p3447
sa(dp3448
g2
S'http://www.reuters.com/news/video/videoStory?storyID=120203202'
p3449
sg4
S'20160705\xc2\xa01:55PM UTC'
p3450
sg6
S'NASA probe poised for one-shot try to orbit Jupiter'
p3451
sa(dp3452
g2
S'http://www.reuters.com/news/video/videoStory?storyID=120201781'
p3453
sg4
S'20160705\xc2\xa012:21PM UTC'
p3454
sg6
S'Anti-EU champion Farage quits after Brexit vote'
p3455
sa(dp3456
g2
S'http://www.reuters.com/news/video/videoStory?storyID=120201490'
p3457
sg4
S'20160705\xc2\xa012:10PM UTC'
p3458
sg6
S'Algerian police offer free iftar meals to encourage safe driving'
p3459
sa(dp3460
g2
S'http://www.reuters.com/news/video/videoStory?storyID=120201299'
p3461
sg4
S'20160705\xc2\xa011:59AM UTC'
p3462
sg6
S'U.S. prepares for giant fireworks displays'
p3463
sa(dp3464
g2
S'http://www.reuters.com/news/video/videoStory?storyID=120200016'
p3465
sg4
S'20160705\xc2\xa011:10AM UTC'
p3466
sg6
S"Rebel Wilson makes West End debut in 'Guys and Dolls'"
p3467
sa(dp3468
g2
S'http://www.reuters.com/news/video/videoStory?storyID=120199228'
p3469
sg4
S'20160705\xc2\xa010:48AM UTC'
p3470
sg6
S'Atelier Versace kicks off Paris haute couture fashion week'
p3471
sa(dp3472
g2
S'http://www.reuters.com/news/video/videoStory?storyID=120197661'
p3473
sg4
S'20160705\xc2\xa09:54AM UTC'
p3474
sg6
S'UK to slash corporation tax after Brexit blow'
p3475
sa(dp3476
g2
S'http://www.reuters.com/news/video/videoStory?storyID=120197500'
p3477
sg4
S'20160705\xc2\xa09:52AM UTC'
p3478
sg6
S'Revelers face tight security on U.S. Independence Day'
p3479
sa(dp3480
g2
S'http://www.reuters.com/news/video/videoStory?storyID=120197594'
p3481
sg4
S'20160705\xc2\xa09:51AM UTC'
p3482
sg6
S'Iraqis call for crackdown on IS after huge bombing'
p3483
sa(dp3484
g2
S'http://www.reuters.com/news/video/videoStory?storyID=120197335'
p3485
sg4
S'20160705\xc2\xa09:44AM UTC'
p3486
sg6
S'European shares end post-Brexit rally'
p3487
sa(dp3488
g2
S'http://www.reuters.com/news/video/videoStory?storyID=120196770'
p3489
sg4
S'20160705\xc2\xa09:13AM UTC'
p3490
sg6
S'Blue whale spotted off Icelandic coast'
p3491
sa(dp3492
g2
S'http://www.reuters.com/news/video/videoStory?storyID=120195832'
p3493
sg4
S'20160705\xc2\xa08:38AM UTC'
p3494
sg6
S'Iraqis mourn victims of devastating Baghdad suicide bomb'
p3495
sa(dp3496
g2
S'http://www.reuters.com/news/video/videoStory?storyID=120195505'
p3497
sg4
S'20160705\xc2\xa08:17AM UTC'
p3498
sg6
S'Bangladesh fears for garment industry'
p3499
sa(dp3500
g2
S'http://www.reuters.com/news/video/videoStory?storyID=120195250'
p3501
sg4
S'20160705\xc2\xa08:13AM UTC'
p3502
sg6
S"Bangladesh's struggle to identify cafe killers"
p3503
sa(dp3504
g2
S'http://www.reuters.com/news/video/videoStory?storyID=120194921'
p3505
sg4
S'20160705\xc2\xa07:46AM UTC'
p3506
sg6
S'Bangladesh honors victims of cafe attack'
p3507
sa(dp3508
g2
S'http://www.reuters.com/news/video/videoStory?storyID=120193944'
p3509
sg4
S'20160705\xc2\xa07:24AM UTC'
p3510
sg6
S'Beijing cranks up South China Sea propaganda'
p3511
sa(dp3512
g2
S'http://www.reuters.com/news/video/videoStory?storyID=120193243'
p3513
sg4
S'20160705\xc2\xa06:57AM UTC'
p3514
sg6
S"Peppered moth's genetic secret"
p3515
sa(dp3516
g2
S'http://www.reuters.com/news/video/videoStory?storyID=120192210'
p3517
sg4
S'20160705\xc2\xa06:26AM UTC'
p3518
sg6
S"Britain's anti-EU leader Farage resigns following Brexit"
p3519
sa(dp3520
g2
S'http://www.reuters.com/news/video/videoStory?storyID=120191965'
p3521
sg4
S'20160705\xc2\xa06:05AM UTC'
p3522
sg6
S'Farage to quit as leader of UK Independence Party'
p3523
sa(dp3524
g2
S'http://www.reuters.com/news/video/videoStory?storyID=120191748'
p3525
sg4
S'20160705\xc2\xa06:03AM UTC'
p3526
sg6
S'Carole King headlines Hyde Park event'
p3527
sa(dp3528
g2
S'http://www.reuters.com/news/video/videoStory?storyID=120191462'
p3529
sg4
S'20160705\xc2\xa05:44AM UTC'
p3530
sg6
S'Euro 2016 fuels illegal betting craze in China'
p3531
sa(dp3532
g2
S'http://www.reuters.com/news/video/videoStory?storyID=120191276'
p3533
sg4
S'20160705\xc2\xa05:29AM UTC'
p3534
sg6
S'Explosion kills bomber, wounds two police outside U.S. consulate in Saudi Arabia'
p3535
sa(dp3536
g2
S'http://www.reuters.com/news/video/videoStory?storyID=120191064'
p3537
sg4
S'20160705\xc2\xa05:12AM UTC'
p3538
sg6
S"New wind turbine sheds light on Hanoi's slums"
p3539
sa(dp3540
g2
S'http://www.reuters.com/news/video/videoStory?storyID=120190668'
p3541
sg4
S'20160705\xc2\xa04:39AM UTC'
p3542
sg6
S'Kyrgyzstan pins hopes on tourism'
p3543
sa(dp3544
g2
S'http://www.reuters.com/news/video/videoStory?storyID=120190170'
p3545
sg4
S'20160705\xc2\xa04:28AM UTC'
p3546
sg6
S'Baghdad bomb death toll rises'
p3547
sa(dp3548
g2
S'http://www.reuters.com/news/video/videoStory?storyID=120189760'
p3549
sg4
S'20160705\xc2\xa03:55AM UTC'
p3550
sg6
S'Dhaka killings: Bangladesh mourns'
p3551
sa(dp3552
g2
S'http://www.reuters.com/news/video/videoStory?storyID=120188605'
p3553
sg4
S'20160705\xc2\xa03:07AM UTC'
p3554
sg6
S'Memorial for Dhaka restaurant victims'
p3555
sa(dp3556
g2
S'http://www.reuters.com/news/video/videoStory?storyID=120187254'
p3557
sg4
S'20160705\xc2\xa012:58AM UTC'
p3558
sg6
S'Bomber targets US consulate in Jeddah'
p3559
sa(dp3560
g2
S'http://www.reuters.com/news/video/videoStory?storyID=120187039'
p3561
sg4
S'20160705\xc2\xa012:36AM UTC'
p3562
sg6
S'Young lack appetite for Singapore hawker trade'
p3563
sa.