(lp0
(dp1
S'href'
p2
S'http://www.reuters.com/article/hkn-panthers-islanders-recap-idUSMTZEC4IT8L4VW'
p3
sS'ts'
p4
S'20160418\xc2\xa011:56PM UTC'
p5
sS'title'
p6
S'Islanders 4, Panthers 3 (OT)'
p7
sa(dp8
g2
S'http://www.reuters.com/article/bbo-phillies-teamreport-idUSMTZEC4IT9HGWH'
p9
sg4
S'20160418\xc2\xa011:53PM UTC'
p10
sg6
S'Philadelphia Phillies - TeamReport'
p11
sa(dp12
g2
S'http://www.reuters.com/article/bbo-nationals-teamreport-idUSMTZEC4IT9HFWG'
p13
sg4
S'20160418\xc2\xa011:53PM UTC'
p14
sg6
S'Washington Nationals - TeamReport'
p15
sa(dp16
g2
S'http://www.reuters.com/article/global-forex-idUSL3N17L02H'
p17
sg4
S'20160418\xc2\xa011:46PM UTC'
p18
sg6
S'FOREX-Commodity currencies hit hard, yen climbs after Doha disappoints'
p19
sa(dp20
g2
S'http://www.reuters.com/article/tokyo-steel-prices-idUSL3N17L1KP'
p21
sg4
S'20160418\xc2\xa011:45PM UTC'
p22
sg6
S'Tokyo Steel hikes product prices on international pick-up'
p23
sa(dp24
g2
S'http://www.reuters.com/article/india-morningcall-idUSL3N17L1F5'
p25
sg4
S'20160418\xc2\xa011:45PM UTC'
p26
sg6
S'Morning News Call - India, April 18'
p27
sa(dp28
g2
S'http://www.reuters.com/article/japan-quake-nuclear-idUSL3N17L1HB'
p29
sg4
S'20160418\xc2\xa011:44PM UTC'
p30
sg6
S'UPDATE 1-Japan declares nuclear reactors safe after quake'
p31
sa(dp32
g2
S'http://www.reuters.com/article/southchinasea-china-idUSL3N17L1M8'
p33
sg4
S'20160418\xc2\xa011:44PM UTC'
p34
sg6
S'Chinese military aircraft makes first public landing on disputed island'
p35
sa(dp36
g2
S'http://www.reuters.com/article/brazil-politics-markets-idUSL5N17K0NR'
p37
sg4
S'20160418\xc2\xa011:39PM UTC'
p38
sg6
S'Brazil markets set to rally after Congress backs impeachment'
p39
sa(dp40
g2
S'http://www.reuters.com/article/malaysia-scandal-cimb-idUSL3N17L1KK'
p41
sg4
S'20160418\xc2\xa011:39PM UTC'
p42
sg6
S"Malaysia's CIMB Chairman Nazir Razak takes voluntary leave of absence-source"
p43
sa(dp44
g2
S'http://www.reuters.com/article/us-peru-election-poll-idUSKCN0XF045'
p45
sg4
S'20160418\xc2\xa011:32PM UTC'
p46
sg6
S'Kuczynski seen beating Fujimori in Peru runoff election: poll'
p47
sa(dp48
g2
S'http://www.reuters.com/article/australia-stocks-midday-idUSL3N17L1EV'
p49
sg4
S'20160418\xc2\xa011:27PM UTC'
p50
sg6
S'Australia shares dip on resource weakness, Qantas slammed'
p51
sa(dp52
g2
S'http://www.reuters.com/article/hongkong-buyback-idUSL3N17L1LQ'
p53
sg4
S'20160418\xc2\xa011:22PM UTC'
p54
sg6
S'HK Exchange says seven firms buy back shares'
p55
sa(dp56
g2
S'http://www.reuters.com/article/us-usa-election-trump-china-idUSKCN0XE0Y4'
p57
sg4
S'20160418\xc2\xa011:21PM UTC'
p58
sg6
S"Chinese official calls Trump 'irrational' on trade"
p59
sa(dp60
g2
S'http://www.reuters.com/article/japan-stocks-midday-idUSL3N17L1H5'
p61
sg4
S'20160418\xc2\xa011:03PM UTC'
p62
sg6
S'Nikkei tumbles as earthquake, strong yen reduce risk appetites'
p63
sa(dp64
g2
S'http://www.reuters.com/article/us-japan-quake-economy-idUSKCN0XF07Z'
p65
sg4
S'20160418\xc2\xa011:02PM UTC'
p66
sg6
S'Japanese government promises to back quake-hit companies'
p67
sa(dp68
g2
S'http://www.reuters.com/article/us-brazil-politics-markets-idUSKCN0XF07L'
p69
sg4
S'20160418\xc2\xa010:54PM UTC'
p70
sg6
S'Brazil credit risk slips as lower house votes for Rousseff ouster'
p71
sa(dp72
g2
S'http://www.reuters.com/article/brazil-politics-idUSL2N17K098'
p73
sg4
S'20160418\xc2\xa010:50PM UTC'
p74
sg6
S"UPDATE 8-Brazil's Rousseff loses crucial impeachment vote in Congress"
p75
sa(dp76
g2
S'http://www.reuters.com/article/brazil-politics-markets-idUSL2N17L047'
p77
sg4
S'20160418\xc2\xa010:49PM UTC'
p78
sg6
S'Brazil credit risk slips as lower house votes for Rousseff ouster'
p79
sa(dp80
g2
S'http://www.reuters.com/article/china-taiwan-idUSL3N17L0RR'
p81
sg4
S'20160418\xc2\xa010:47PM UTC'
p82
sg6
S'China steps up war of words with Taiwan over fraud suspects'
p83
sa(dp84
g2
S'http://www.reuters.com/article/hkn-lightning-redwings-recap-idUSMTZEC4IT4VYTK'
p85
sg4
S'20160418\xc2\xa010:42PM UTC'
p86
sg6
S'Red Wings 2, Lightning 0'
p87
sa(dp88
g2
S'http://www.reuters.com/article/us-soccer-mls-idUSKCN0XF06E'
p89
sg4
S'20160418\xc2\xa010:40PM UTC'
p90
sg6
S'Late controversy as Orlando and New England draw 2-2'
p91
sa(dp92
g2
S'http://www.reuters.com/article/us-china-corruption-idUSKCN0XF068'
p93
sg4
S'20160418\xc2\xa010:35PM UTC'
p94
sg6
S'China to prosecute former Guangdong vice governor for graft'
p95
sa(dp96
g2
S'http://www.reuters.com/article/hyundai-motor-china-idUSL3N17L19E'
p97
sg4
S'20160418\xc2\xa010:32PM UTC'
p98
sg6
S'Hyundai Motor says March China sales down 2 pct from year earlier'
p99
sa(dp100
g2
S'http://www.reuters.com/article/taiwan-stocks-idUSL3N17L1DC'
p101
sg4
S'20160418\xc2\xa010:30PM UTC'
p102
sg6
S'Taiwan stocks lower tracking overseas markets, transport shares buck trend'
p103
sa(dp104
g2
S'http://www.reuters.com/article/japan-quake-nuclear-idUST9N12U042'
p105
sg4
S'20160418\xc2\xa010:26PM UTC'
p106
sg6
S'Japan nuclear regulator says monitoring quake situation'
p107
sa(dp108
g2
S'http://www.reuters.com/article/brazil-politics-wagner-idUSE4N15G02E'
p109
sg4
S'20160418\xc2\xa010:24PM UTC'
p110
sg6
S"Brazil's gov't says confident Senate will dismiss impeachment"
p111
sa(dp112
g2
S'http://www.reuters.com/article/us-china-property-homeprices-idUSKCN0XF058'
p113
sg4
S'20160418\xc2\xa010:21PM UTC'
p114
sg6
S'China March home prices rise at fastest rate in two years, top cities boom '
p115
sa(dp116
g2
S'http://www.reuters.com/article/us-nba-playoffs-heat-idUSKCN0XF04J'
p117
sg4
S'20160418\xc2\xa010:16PM UTC'
p118
sg6
S'Deng, Heat overpower Hornets in opener'
p119
sa(dp120
g2
S'http://www.reuters.com/article/china-property-homeprices-idUSL3N17I2WR'
p121
sg4
S'20160418\xc2\xa010:14PM UTC'
p122
sg6
S'UPDATE 1-China March home prices rise at fastest rate in 2 yrs, top cities boom'
p123
sa(dp124
g2
S'http://www.reuters.com/article/bkn-bobcats-heat-writethru-idUSMTZEC4ISZU6QS'
p125
sg4
S'20160418\xc2\xa010:12PM UTC'
p126
sg6
S'Deng, Heat overpower Hornets in opener'
p127
sa(dp128
g2
S'http://www.reuters.com/article/brazil-politics-impeachment-idUSE4N15G01Z'
p129
sg4
S'20160418\xc2\xa010:12PM UTC'
p130
sg6
S"Brazil's lower house backs Rousseff impeachment"
p131
sa(dp132
g2
S'http://www.reuters.com/article/afghanistan-orchestra-idUSL3N17L1D4'
p133
sg4
S'20160418\xc2\xa010:11PM UTC'
p134
sg6
S"UPDATE 1-WIDER IMAGE-Afghan teenager braves threats, family pressure to lead women's orchestra"
p135
sa(dp136
g2
S'http://www.reuters.com/article/us-tennis-australia-stosur-idUSKCN0XF03D'
p137
sg4
S'20160418\xc2\xa09:47PM UTC'
p138
sg6
S'Stosur splits with coach Taylor again'
p139
sa(dp140
g2
S'http://www.reuters.com/article/australia-economy-vehicleregistrations-idUSS9N16M010'
p141
sg4
S'20160418\xc2\xa09:40PM UTC'
p142
sg6
S'Australia new vehicle sales jump in March-ABS'
p143
sa(dp144
g2
S'http://www.reuters.com/article/bbo-marlins-teamreport-idUSMTZEC4IT38LSW'
p145
sg4
S'20160418\xc2\xa09:38PM UTC'
p146
sg6
S'Miami Marlins - TeamReport'
p147
sa(dp148
g2
S'http://www.reuters.com/article/china-property-homeprices-idUSENNG4C0S7'
p149
sg4
S'20160418\xc2\xa09:36PM UTC'
p150
sg6
S'China new home prices rise 4.9 pct y/y in March'
p151
sa(dp152
g2
S'http://www.reuters.com/article/japan-quake-toyota-stocks-idUSL3N17K0N2'
p153
sg4
S'20160418\xc2\xa09:32PM UTC'
p154
sg6
S'Toyota shares sink 5 pct as Japan quakes hit supply chain'
p155
sa(dp156
g2
S'http://www.reuters.com/article/us-southkorea-economy-policy-idUSKCN0XF02R'
p157
sg4
S'20160418\xc2\xa09:29PM UTC'
p158
sg6
S'South Korea finmin stresses policy consistency in wake of parliament election'
p159
sa(dp160
g2
S'http://www.reuters.com/article/us-brazil-politics-pt-idUSKCN0XF02N'
p161
sg4
S'20160418\xc2\xa09:27PM UTC'
p162
sg6
S"Brazil's ruling party concedes defeat in lower house impeachment vote"
p163
sa(dp164
g2
S'http://www.reuters.com/article/column-russell-oil-meeting-idUSL3N17L149'
p165
sg4
S'20160418\xc2\xa09:25PM UTC'
p166
sg6
S'COLUMN-Oil producers get worst possible outcome, destroy remaining credibility: Russell'
p167
sa(dp168
g2
S'http://www.reuters.com/article/singapore-economy-exports-idUSL3N17F2YY'
p169
sg4
S'20160418\xc2\xa09:24PM UTC'
p170
sg6
S'UPDATE 1-Singapore exports tumble in March, demand in key markets remains weak'
p171
sa(dp172
g2
S'http://www.reuters.com/article/idUSL3N17L16A'
p173
sg4
S'20160418\xc2\xa09:24PM UTC'
p174
sg6
S"MEDIA-Philippines' SM to build new city in Cebu - Malaya"
p175
sa(dp176
g2
S'http://www.reuters.com/article/us-japan-quake-abe-idUSKCN0XF028'
p177
sg4
S'20160418\xc2\xa09:19PM UTC'
p178
sg6
S'Japan PM Abe: Want to designate quake-hit southern region as disaster area'
p179
sa(dp180
g2
S'http://www.reuters.com/article/us-golf-pga-donald-idUSKCN0XF01K'
p181
sg4
S'20160418\xc2\xa09:09PM UTC'
p182
sg6
S'Donald in positive mood, despite lengthy title drought'
p183
sa(dp184
g2
S'http://www.reuters.com/article/idUSFit955729'
p185
sg4
S'20160418\xc2\xa09:01PM UTC'
p186
sg6
S"Fitch: Risks Emerge from Chinese Insurers' Offshore Investments"
p187
sa(dp188
g2
S'http://www.reuters.com/article/idUSFWN17K006'
p189
sg4
S'20160418\xc2\xa08:59PM UTC'
p190
sg6
S"BRIEF-Time inc won't move ahead with bid for yahoo- Dow jones, citing source"
p191
sa(dp192
g2
S'http://www.reuters.com/article/bbo-diamondbacks-padres-writethru-idUSMTZEC4ISXR5Q2'
p193
sg4
S'20160418\xc2\xa08:55PM UTC'
p194
sg6
S"D-backs' 'B-squad' handles Padres"
p195
sa(dp196
g2
S'http://www.reuters.com/article/global-precious-idUSL3N17L06U'
p197
sg4
S'20160418\xc2\xa08:46PM UTC'
p198
sg6
S'PRECIOUS-Safe-haven bids buoy gold as oil slides on failure to freeze output'
p199
sa(dp200
g2
S'http://www.reuters.com/article/bkn-pistons-cavaliers-writethru-idUSMTZEC4HSSRITO'
p201
sg4
S'20160418\xc2\xa08:41PM UTC'
p202
sg6
S'Big 3 score 81 points as Cavs edge Pistons'
p203
sa(dp204
g2
S'http://www.reuters.com/article/us-nba-playoffs-cavaliers-idUSKCN0XE14B'
p205
sg4
S'20160418\xc2\xa08:36PM UTC'
p206
sg6
S'Big 3 score 81 points as Cavs edge Pistons'
p207
sa(dp208
g2
S'http://www.reuters.com/article/afghanistan-orchestra-idUSL5N17F24W'
p209
sg4
S'20160418\xc2\xa08:30PM UTC'
p210
sg6
S"WIDER IMAGE-Afghan teenager braves threats, family pressure to lead women's orchestra"
p211
sa(dp212
g2
S'http://www.reuters.com/article/us-usa-oneweb-florida-exclusive-idUSKCN0XE17H'
p213
sg4
S'20160418\xc2\xa08:27PM UTC'
p214
sg6
S'Exclusive: Florida wins contest for OneWeb satellite manufacturing facility - sources'
p215
sa(dp216
g2
S'http://www.reuters.com/article/car-nascar-sprint-writethru-idUSMTZEC4HSR3FQT'
p217
sg4
S'20160418\xc2\xa08:24PM UTC'
p218
sg6
S'Pagenaud takes controversial Long Beach win'
p219
sa(dp220
g2
S'http://www.reuters.com/article/us-sealed-air-barron-s-idUSKCN0XF00H'
p221
sg4
S'20160418\xc2\xa08:23PM UTC'
p222
sg6
S"Bubble wrap maker Sealed Air shares could rise 30 percent: Barron's"
p223
sa(dp224
g2
S'http://www.reuters.com/article/caixabank-bpi-idUSE8N11902A'
p225
sg4
S'20160418\xc2\xa08:20PM UTC'
p226
sg6
S"Spain's Caixabank to launch takeover offer for BPI - source"
p227
sa(dp228
g2
S'http://www.reuters.com/article/sealed-air-barrons-idUSL2N17L006'
p229
sg4
S'20160418\xc2\xa08:19PM UTC'
p230
sg6
S"Bubble wrap maker Sealed Air shares could rise 30 pct -Barron's"
p231
sa(dp232
g2
S'http://www.reuters.com/article/bbo-royals-athletics-writethru-idUSMTZEC4ISWBFPG'
p233
sg4
S'20160418\xc2\xa08:15PM UTC'
p234
sg6
S"A's edge Royals for unlikely victory"
p235
sa(dp236
g2
S'http://www.reuters.com/article/britain-press-business-idUSL3N17L00M'
p237
sg4
S'20160418\xc2\xa08:06PM UTC'
p238
sg6
S'PRESS DIGEST- British Business - April 18'
p239
sa(dp240
g2
S'http://www.reuters.com/article/idUSFit955174'
p241
sg4
S'20160418\xc2\xa08:04PM UTC'
p242
sg6
S'Fitch Assigns Expected Ratings to SMART ABS Series 2016-1 Trust'
p243
sa(dp244
g2
S'http://www.reuters.com/article/diary-emrg-econ-idUSL3N17I4EY'
p245
sg4
S'20160418\xc2\xa08:02PM UTC'
p246
sg6
S'DIARY-Emerging Markets Economic Events to April 28'
p247
sa(dp248
g2
S'http://www.reuters.com/article/diary-top-econ-idUSL3N17I4FS'
p249
sg4
S'20160418\xc2\xa08:01PM UTC'
p250
sg6
S'DIARY-Top Economic Events to April 28'
p251
sa(dp252
g2
S'http://www.reuters.com/article/bbo-angels-twins-writethru-idUSMTZEC4HSUM3WO'
p253
sg4
S'20160418\xc2\xa07:48PM UTC'
p254
sg6
S'Arcia the hero again as Twins top Angels'
p255
sa(dp256
g2
S'http://www.reuters.com/article/britain-press-ft-idUSL3N17K0SL'
p257
sg4
S'20160418\xc2\xa07:48PM UTC'
p258
sg6
S'PRESS DIGEST- Financial Times - April 18'
p259
sa(dp260
g2
S'http://www.reuters.com/article/us-motor-f1-china-idUSKCN0XE0OA'
p261
sg4
S'20160418\xc2\xa07:42PM UTC'
p262
sg6
S'Dominant Rosberg extends win streak in China'
p263
sa(dp264
g2
S'http://www.reuters.com/article/us-motor-f1-china-whiting-idUSKCN0XE17F'
p265
sg4
S'20160418\xc2\xa07:42PM UTC'
p266
sg6
S'Motor racing-China pitlane incident was unacceptable: FIA'
p267
sa(dp268
g2
S'http://www.reuters.com/article/us-motor-f1-china-ferrari-idUSKCN0XE179'
p269
sg4
S'20160418\xc2\xa07:38PM UTC'
p270
sg6
S'Ferrari add embarrassment to frustration'
p271
sa(dp272
g2
S'http://www.reuters.com/article/hkn-blues-blackhawks-writethru-idUSMTZEC4HSTQJVK'
p273
sg4
S'20160418\xc2\xa07:34PM UTC'
p274
sg6
S"Schwartz's late goal gives Blues series lead"
p275
sa(dp276
g2
S'http://www.reuters.com/article/motor-f1-china-ferrari-idUSL3N17K0DZ'
p277
sg4
S'20160418\xc2\xa07:31PM UTC'
p278
sg6
S'Motor racing-Ferrari add embarrassment to frustration'
p279
sa(dp280
g2
S'http://www.reuters.com/article/chile-rains-copper-idUSL2N17K0NE'
p281
sg4
S'20160418\xc2\xa07:28PM UTC'
p282
sg6
S"UPDATE 2-Heavy Chile rains hit some of world's biggest copper mines"
p283
sa(dp284
g2
S'http://www.reuters.com/article/us-chile-rains-copper-factbox-idUSKCN0XE11L'
p285
sg4
S'20160418\xc2\xa07:22PM UTC'
p286
sg6
S"Factbox: Status of Chile's copper mines as rains batter world's top producer"
p287
sa(dp288
g2
S'http://www.reuters.com/article/chile-rains-idUSL2N17K0PF'
p289
sg4
S'20160418\xc2\xa07:21PM UTC'
p290
sg6
S'UPDATE 1-One dead, Seven missing after storms wreak havoc in central Chile'
p291
sa(dp292
g2
S'http://www.reuters.com/article/idUSFWN17K005'
p293
sg4
S'20160418\xc2\xa07:15PM UTC'
p294
sg6
S"CORRECTED-BRIEF-Remain campaign's 7 pct lead in is unchanged since March- The Sun, citing ComRes survey"
p295
sa(dp296
g2
S'http://www.reuters.com/article/australia-stocks-morning-idUSL3N17K0K8'
p297
sg4
S'20160418\xc2\xa07:09PM UTC'
p298
sg6
S'Australia shares face weaker open on resources pressure'
p299
sa(dp300
g2
S'http://www.reuters.com/article/bbo-tigers-astros-writethru-idUSMTZEC4HSS7HR3'
p301
sg4
S'20160418\xc2\xa07:04PM UTC'
p302
sg6
S"Astros hold off Tigers' comeback charge"
p303
sa(dp304
g2
S'http://www.reuters.com/article/us-india-taxes-idUSKCN0XE15H'
p305
sg4
S'20160418\xc2\xa07:03PM UTC'
p306
sg6
S'In need of cash, India chases $117 billion in elusive back taxes'
p307
sa(dp308
g2
S'http://www.reuters.com/article/britain-houseprices-idUSL5N17K09V'
p309
sg4
S'20160418\xc2\xa07:01PM UTC'
p310
sg6
S'UK rental property prices dip as tax hits, overall prices up -survey'
p311
sa(dp312
g2
S'http://www.reuters.com/article/britain-insurance-motor-idUSL5N17J0N3'
p313
sg4
S'20160418\xc2\xa07:01PM UTC'
p314
sg6
S'UK Q1 motor insurance rates flat - survey'
p315
sa(dp316
g2
S'http://www.reuters.com/article/us-golf-pga-idUSKCN0XE14J'
p317
sg4
S'20160418\xc2\xa07:00PM UTC'
p318
sg6
S'Amazing Grace wins Heritage title by two strokes'
p319
sa(dp320
g2
S'http://www.reuters.com/article/india-taxes-idUSL3N17E37G'
p321
sg4
S'20160418\xc2\xa07:00PM UTC'
p322
sg6
S'In need of cash, India chases $117 bln in elusive back taxes'
p323
sa(dp324
g2
S'http://www.reuters.com/article/us-nhl-playoffs-blackhawks-idUSKCN0XE159'
p325
sg4
S'20160418\xc2\xa06:56PM UTC'
p326
sg6
S'Blues beat Blackhawks to take 2-1 series lead'
p327
sa(dp328
g2
S'http://www.reuters.com/article/bbo-reds-cardinals-writethru-idUSMTZEC4HSRA4QU'
p329
sg4
S'20160418\xc2\xa06:54PM UTC'
p330
sg6
S'Fryer leads Cardinals past Reds'
p331
sa(dp332
g2
S'http://www.reuters.com/article/bbo-brewers-pirates-writethru-idUSMTZEC4HSRSGQY'
p333
sg4
S'20160418\xc2\xa06:50PM UTC'
p334
sg6
S'Big inning sparks Pirates to roll past Brewers'
p335
sa(dp336
g2
S'http://www.reuters.com/article/us-astrazeneca-medivation-deals-idUSKCN0XE149'
p337
sg4
S'20160418\xc2\xa06:47PM UTC'
p338
sg6
S'AstraZeneca has held internal talks for Medivation bid: Sunday Times'
p339
sa(dp340
g2
S'http://www.reuters.com/article/astrazeneca-medivation-deals-idUSL5N17K11R'
p341
sg4
S'20160418\xc2\xa06:46PM UTC'
p342
sg6
S'UPDATE 1-AstraZeneca has held internal talks for Medivation bid -Sunday Times'
p343
sa(dp344
g2
S'http://www.reuters.com/article/bbo-nationals-phillies-writethru-idUSMTZEC4HSRQRQX'
p345
sg4
S'20160418\xc2\xa06:44PM UTC'
p346
sg6
S"Phillies win on Galvis' RBI in 10th"
p347
sa(dp348
g2
S'http://www.reuters.com/article/bbo-rockies-cubs-writethru-idUSMTZEC4HSR1RQS'
p349
sg4
S'20160418\xc2\xa06:41PM UTC'
p350
sg6
S'Chatwood outpitches Lester as Rockies down Cubs'
p351
sa(dp352
g2
S'http://www.reuters.com/article/global-forex-idUSL3N17K0I5'
p353
sg4
S'20160418\xc2\xa06:36PM UTC'
p354
sg6
S'FOREX-Commodity currencies hit hard, yen rallies after Doha disappoints'
p355
sa(dp356
g2
S'http://www.reuters.com/article/japan-quake-idUSL3N17K0H4'
p357
sg4
S'20160418\xc2\xa06:23PM UTC'
p358
sg6
S'Amid search for Japan quake victims, survivors queue for food'
p359
sa(dp360
g2
S'http://www.reuters.com/article/bbo-braves-marlins-writethru-idUSMTZEC4HSQ9HQR'
p361
sg4
S'20160418\xc2\xa06:02PM UTC'
p362
sg6
S'Unlikely hero Smith allows Braves to down Marlins'
p363
sa(dp364
g2
S'http://www.reuters.com/article/us-maryland-fire-idUSKCN0XE145'
p365
sg4
S'20160418\xc2\xa06:01PM UTC'
p366
sg6
S'Man who shot Maryland firefighters thought he was stopping break-in'
p367
sa(dp368
g2
S'http://www.reuters.com/article/astrazeneca-medivation-deals-idUSL3N17K0FX'
p369
sg4
S'20160418\xc2\xa06:01PM UTC'
p370
sg6
S'AstraZeneca has held internal talks for Medivation bid -Sunday Times'
p371
sa(dp372
g2
S'http://www.reuters.com/article/us-italy-oildrilling-idUSKCN0XE086'
p373
sg4
S'20160418\xc2\xa05:58PM UTC'
p374
sg6
S'In boost for Renzi, Italy drilling referendum fails to draw quorum'
p375
sa(dp376
g2
S'http://www.reuters.com/article/bbo-mets-indians-writethru-idUSMTZEC4HSNAUOE'
p377
sg4
S'20160418\xc2\xa05:56PM UTC'
p378
sg6
S"Matz's masterpiece helps Mets blank Indians"
p379
sa(dp380
g2
S'http://www.reuters.com/article/italy-oildrilling-idUSL5N17K05S'
p381
sg4
S'20160418\xc2\xa05:56PM UTC'
p382
sg6
S'UPDATE 4-In boost for Renzi, Italy drilling referendum fails to draw quorum'
p383
sa(dp384
g2
S'http://www.reuters.com/article/products-pipeline-colonial-idUSL2N17K0P9'
p385
sg4
S'20160418\xc2\xa05:44PM UTC'
p386
sg6
S'Colonial Pipeline restarts Line 1 following day and a half shutdown'
p387
sa(dp388
g2
S'http://www.reuters.com/article/us-brazil-politics-idUSKCN0XE13O'
p389
sg4
S'20160418\xc2\xa05:43PM UTC'
p390
sg6
S"73 of Brazil's lower house vote for impeachment after 100 votes"
p391
sa(dp392
g2
S'http://www.reuters.com/article/australia-drones-postage-idUSL3N17K0FP'
p393
sg4
S'20160418\xc2\xa05:41PM UTC'
p394
sg6
S'RPT-Australia Post looks to drones as letter volumes fall'
p395
sa(dp396
g2
S'http://www.reuters.com/article/us-nba-playoffs-warriors-kerr-idUSKCN0XE13K'
p397
sg4
S'20160418\xc2\xa05:41PM UTC'
p398
sg6
S'Injured Curry misses Golden State practice on Sunday'
p399
sa(dp400
g2
S'http://www.reuters.com/article/bbo-whitesox-rays-writethru-idUSMTZEC4HSOGHOY'
p401
sg4
S'20160418\xc2\xa05:39PM UTC'
p402
sg6
S'Moore helps Rays beat White Sox'
p403
sa(dp404
g2
S'http://www.reuters.com/article/brazil-politics-idUSE4N15G023'
p405
sg4
S'20160418\xc2\xa05:39PM UTC'
p406
sg6
S"73 of Brazil's lower house vote for impeachment after 100 votes"
p407
sa(dp408
g2
S'http://www.reuters.com/article/bbo-mariners-yankees-writethru-idUSMTZEC4HSOJUP3'
p409
sg4
S'20160418\xc2\xa05:38PM UTC'
p410
sg6
S'A-Rod, Yankees stop skid vs. Mariners'
p411
sa(dp412
g2
S'http://www.reuters.com/article/us-italy-oildrilling-result-idUSKCN0XE13G'
p413
sg4
S'20160418\xc2\xa05:33PM UTC'
p414
sg6
S'Italy drilling referendum fails to draw necessary quorum: initial data'
p415
sa(dp416
g2
S'http://www.reuters.com/article/us-intel-barron-s-idUSKCN0XE13E'
p417
sg4
S'20160418\xc2\xa05:32PM UTC'
p418
sg6
S"Intel shares could rise 25 percent in next year: Barron's"
p419
sa(dp420
g2
S'http://www.reuters.com/article/chile-rains-idUSL2N17K0F0'
p421
sg4
S'20160418\xc2\xa05:23PM UTC'
p422
sg6
S'CORRECTED-Heavy rains in central Chile affect millions, hit copper output'
p423
sa(dp424
g2
S'http://www.reuters.com/article/italy-oildrilling-result-idUSL5N17K10A'
p425
sg4
S'20160418\xc2\xa05:13PM UTC'
p426
sg6
S'Italy drilling referendum fails to draw necessary quorum -initial data'
p427
sa(dp428
g2
S'http://www.reuters.com/article/intel-barrons-idUSL2N17K0NO'
p429
sg4
S'20160418\xc2\xa05:13PM UTC'
p430
sg6
S"Intel shares could rise 25 pct in next year - Barron's"
p431
sa(dp432
g2
S'http://www.reuters.com/article/britain-eu-treasury-idUSL5N17K0XD'
p433
sg4
S'20160418\xc2\xa05:00PM UTC'
p434
sg6
S'UK finance ministry to publish "sober analysis" of Brexit risk'
p435
sa(dp436
g2
S'http://www.reuters.com/article/idUSFWN17K004'
p437
sg4
S'20160418\xc2\xa04:51PM UTC'
p438
sg6
S'BRIEF-Astrazeneca has held internal talks about a bid for Medivation Inc looking very closely at an offer- Sunday Times, citing sources'
p439
sa(dp440
g2
S'http://www.reuters.com/article/us-portugal-banks-idUSKCN0XE12P'
p441
sg4
S'20160418\xc2\xa04:51PM UTC'
p442
sg6
S"Portugal gov't ends bank shareholder vote limits, move seen directed at BPI"
p443
sa(dp444
g2
S'http://www.reuters.com/article/us-pennsylvania-marijuana-idUSKCN0XA2NB'
p445
sg4
S'20160418\xc2\xa04:50PM UTC'
p446
sg6
S'Pennsylvania poised to legalize medical marijuana use'
p447
sa(dp448
g2
S'http://www.reuters.com/article/portugal-banks-idUSL5N17K0ZH'
p449
sg4
S'20160418\xc2\xa04:50PM UTC'
p450
sg6
S"Portugal gov't ends bank shareholder vote limits, move seen directed at BPI"
p451
sa(dp452
g2
S'http://www.reuters.com/article/us-people-morgan-idUSKCN0XE12D'
p453
sg4
S'20160418\xc2\xa04:49PM UTC'
p454
sg6
S'Tracy Morgan performs for medical staff who treated him: People'
p455
sa(dp456
g2
S'http://www.reuters.com/article/us-brazil-politics-vote-idUSKCN0XE12G'
p457
sg4
S'20160418\xc2\xa04:48PM UTC'
p458
sg6
S"Voting starts on Rousseff impeachment in Brazil's lower house"
p459
sa(dp460
g2
S'http://www.reuters.com/article/brazil-politics-vote-idUSE4N15G025'
p461
sg4
S'20160418\xc2\xa04:47PM UTC'
p462
sg6
S"Voting starts on Rousseff impeachment in Brazil's lower house"
p463
sa(dp464
g2
S'http://www.reuters.com/article/us-india-protests-idUSKCN0XE0Q6'
p465
sg4
S'20160418\xc2\xa04:32PM UTC'
p466
sg6
S'Hundreds detained as Indian caste protest turns violent'
p467
sa(dp468
g2
S'http://www.reuters.com/article/us-music-rock-acdc-idUSKCN0XE0BC'
p469
sg4
S'20160418\xc2\xa04:28PM UTC'
p470
sg6
S"Guns N' Roses singer Axl Rose to join Australian rock band AC/DC tour"
p471
sa(dp472
g2
S'http://www.reuters.com/article/us-nba-nets-atkinson-idUSKCN0XE123'
p473
sg4
S'20160418\xc2\xa04:14PM UTC'
p474
sg6
S'Nets appoint Hawks assistant Atkinson as new head coach'
p475
sa(dp476
g2
S'http://www.reuters.com/article/us-usa-election-idUSKCN0XE0XL'
p477
sg4
S'20160418\xc2\xa04:07PM UTC'
p478
sg6
S"Cruz adviser says Trump campaign taking 'banana republic' approach"
p479
sa(dp480
g2
S'http://www.reuters.com/article/oil-meeting-idUSL5N17K02F'
p481
sg4
S'20160418\xc2\xa04:05PM UTC'
p482
sg6
S'UPDATE 10-Saudi-Iran tensions scupper deal to freeze oil output'
p483
sa(dp484
g2
S'http://www.reuters.com/article/us-iran-markets-cosmetics-idUSKCN0XE0KI'
p485
sg4
S'20160418\xc2\xa04:04PM UTC'
p486
sg6
S'Nail polish and mascara: beauty brands eye up Iran'
p487
sa(dp488
g2
S'http://www.reuters.com/article/us-california-drowned-idUSKCN0XE11P'
p489
sg4
S'20160418\xc2\xa03:58PM UTC'
p490
sg6
S'Two teens swept out to sea from San Francisco beach presumed dead'
p491
sa(dp492
g2
S'http://www.reuters.com/article/us-oil-meeting-russia-novak-idUSKCN0XE11H'
p493
sg4
S'20160418\xc2\xa03:53PM UTC'
p494
sg6
S'Russia says door not closed for oil output freeze '
p495
sa(dp496
g2
S'http://www.reuters.com/article/auto-barrons-idUSL2N17K0LI'
p497
sg4
S'20160418\xc2\xa03:51PM UTC'
p498
sg6
S"GM, Ford shares could surge at least 25 pct -Barron's"
p499
sa(dp500
g2
S'http://www.reuters.com/article/us-mideast-crisis-opposition-idUSKCN0XE0V4'
p501
sg4
S'20160418\xc2\xa03:50PM UTC'
p502
sg6
S'Syrian opposition say rebels should retaliate against army; hint at talks exit'
p503
sa(dp504
g2
S'http://www.reuters.com/article/mideast-crisis-opposition-idUSL5N17K0RR'
p505
sg4
S'20160418\xc2\xa03:49PM UTC'
p506
sg6
S'UPDATE 1-Syrian opposition say rebels should retaliate against army; hint at talks exit'
p507
sa(dp508
g2
S'http://www.reuters.com/article/us-pennsylvania-shooting-idUSKCN0XE115'
p509
sg4
S'20160418\xc2\xa03:38PM UTC'
p510
sg6
S'Three killed in Philadelphia row house shooting'
p511
sa(dp512
g2
S'http://www.reuters.com/article/us-iran-nuclear-usa-idUSKCN0XC25I'
p513
sg4
S'20160418\xc2\xa03:37PM UTC'
p514
sg6
S'Access to U.S. financial system not part of Iran nuclear deal: White House'
p515
sa(dp516
g2
S'http://www.reuters.com/article/us-imf-g20-iran-idUSKCN0XC1U7'
p517
sg4
S'20160418\xc2\xa03:37PM UTC'
p518
sg6
S'Iran calls on U.S., EU to help it access global financial system'
p519
sa(dp520
g2
S'http://www.reuters.com/article/iran-nuclear-usa-idUSL5N17J08T'
p521
sg4
S'20160418\xc2\xa03:36PM UTC'
p522
sg6
S'CORRECTED-UPDATE 1-Iran pushes U.S. for more access to global financial system'
p523
sa(dp524
g2
S'http://www.reuters.com/article/us-ethiopia-violence-idUSKCN0XE10V'
p525
sg4
S'20160418\xc2\xa03:31PM UTC'
p526
sg6
S'Ethiopia says death toll from raid rises to 208; 108 children kidnapped'
p527
sa(dp528
g2
S'http://www.reuters.com/article/us-eurozone-greece-review-idUSKCN0XE10R'
p529
sg4
S'20160418\xc2\xa03:22PM UTC'
p530
sg6
S'Greece considers proposal to unblock bailout review talks '
p531
sa(dp532
g2
S'http://www.reuters.com/article/eurozone-greece-review-idUSL5N17K0TB'
p533
sg4
S'20160418\xc2\xa03:19PM UTC'
p534
sg6
S'Greece considers proposal to unblock bailout review talks'
p535
sa(dp536
g2
S'http://www.reuters.com/article/us-nigeria-oil-delta-idUSKCN0XE10C'
p537
sg4
S'20160418\xc2\xa03:04PM UTC'
p538
sg6
S'Nigeria pipeline saboteurs vow further Niger Delta attacks'
p539
sa(dp540
g2
S'http://www.reuters.com/article/kuwait-oil-strike-idUSL5N17K0GX'
p541
sg4
S'20160418\xc2\xa03:01PM UTC'
p542
sg6
S'UPDATE 2-Kuwait lowers crude, refining output as workers strike'
p543
sa(dp544
g2
S'http://www.reuters.com/article/nigeria-oil-delta-idUSL5N17K0SC'
p545
sg4
S'20160418\xc2\xa03:01PM UTC'
p546
sg6
S'Nigeria pipeline saboteurs vow further Niger Delta attacks'
p547
sa(dp548
g2
S'http://www.reuters.com/article/us-usa-court-immigration-chronology-idUSKCN0XE0M8'
p549
sg4
S'20160418\xc2\xa02:58PM UTC'
p550
sg6
S'Milestones in the Supreme Court immigration case'
p551
sa(dp552
g2
S'http://www.reuters.com/article/us-usa-court-immigration-questions-idUSKCN0XE0M4'
p553
sg4
S'20160418\xc2\xa02:58PM UTC'
p554
sg6
S'Factbox: Legal issues in Supreme Court immigration case'
p555
sa(dp556
g2
S'http://www.reuters.com/article/us-usa-court-immigration-idUSKCN0XE0M2'
p557
sg4
S'20160418\xc2\xa02:58PM UTC'
p558
sg6
S'Obama immigration action goes before Supreme Court'
p559
sa(dp560
g2
S'http://www.reuters.com/article/us-oil-meeting-qatar-idUSKCN0XE0ZS'
p561
sg4
S'20160418\xc2\xa02:38PM UTC'
p562
sg6
S'Qatar says OPEC needs more time for freeze deal'
p563
sa(dp564
g2
S'http://www.reuters.com/article/us-philippines-election-idUSKCN0XE0ZO'
p565
sg4
S'20160418\xc2\xa02:37PM UTC'
p566
sg6
S'Philippine frontrunner hits back as rape remark sparks fury'
p567
sa(dp568
g2
S'http://www.reuters.com/article/us-pulitzer-prizes-idUSKCN0XE0ZK'
p569
sg4
S'20160418\xc2\xa02:34PM UTC'
p570
sg6
S"Pulitzer Prizes mark 100th year with Monday's awards"
p571
sa(dp572
g2
S'http://www.reuters.com/article/us-tennis-fedcup-idUSKCN0XE0ZH'
p573
sg4
S'20160418\xc2\xa02:33PM UTC'
p574
sg6
S'France beat Dutch to set up Fed Cup final with Czechs'
p575
sa(dp576
g2
S'http://www.reuters.com/article/britain-drone-idUSL5N17K0UG'
p577
sg4
S'20160418\xc2\xa02:28PM UTC'
p578
sg6
S'British plane may have collided with drone at Heathrow, lands safely-BBC'
p579
sa(dp580
g2
S'http://www.reuters.com/article/pulitzer-prizes-idUSL2N17K0FY'
p581
sg4
S'20160418\xc2\xa02:18PM UTC'
p582
sg6
S"Pulitzer Prizes mark 100th year with Monday's awards"
p583
sa(dp584
g2
S'http://www.reuters.com/article/iran-nuclear-usa-idUSW1N14C005'
p585
sg4
S'20160418\xc2\xa02:12PM UTC'
p586
sg6
S'CORRECTED-Access to U.S. financial system not part of Iran nuclear deal -White House'
p587
sa(dp588
g2
S'http://www.reuters.com/article/iran-nuclear-usa-idUSL5N17J07X'
p589
sg4
S'20160418\xc2\xa02:07PM UTC'
p590
sg6
S'CORRECTED-Iran pushes U.S. for more access to global financial system'
p591
sa(dp592
g2
S'http://www.reuters.com/article/us-oil-meeting-result-idUSKCN0XE0YA'
p593
sg4
S'20160418\xc2\xa02:04PM UTC'
p594
sg6
S'OPEC, non-OPEC fail to reach deal on output freeze: sources'
p595
sa(dp596
g2
S'http://www.reuters.com/article/oil-meeting-result-idUSL9N0VZ01A'
p597
sg4
S'20160418\xc2\xa02:00PM UTC'
p598
sg6
S'OPEC, non-OPEC fail to reach deal on output freeze - sources'
p599
sa(dp600
g2
S'http://www.reuters.com/article/us-libya-security-politics-idUSKCN0XE0XZ'
p601
sg4
S'20160418\xc2\xa01:46PM UTC'
p602
sg6
S'New Libyan unity government says will start moving into ministries'
p603
sa(dp604
g2
S'http://www.reuters.com/article/us-iran-nuclear-usa-idUSKCN0XD0E3'
p605
sg4
S'20160418\xc2\xa01:29PM UTC'
p606
sg6
S'Iran seeks EU leverage to get financial concessions from U.S'
p607
sa(dp608
g2
S'http://www.reuters.com/article/caixabank-banco-bpi-idUSL5N17K0QC'
p609
sg4
S'20160418\xc2\xa01:23PM UTC'
p610
sg6
S'No agreement between Caixabank and dos Santos on BPI'
p611
sa(dp612
g2
S'http://www.reuters.com/article/iran-nuclear-usa-idUSL5N17J0CF'
p613
sg4
S'20160418\xc2\xa01:22PM UTC'
p614
sg6
S'CORRECTED-Iran seeks EU leverage to get financial concessions from U.S.'
p615
sa(dp616
g2
S'http://www.reuters.com/article/ecuador-quake-refinery-idUSL2N17K0GK'
p617
sg4
S'20160418\xc2\xa01:18PM UTC'
p618
sg6
S"Ecuador's Esmeraldas refinery still down after quake"
p619
sa(dp620
g2
S'http://www.reuters.com/article/hkn-ducks-playerwatch-idUSMTZEC4HSFEPK4'
p621
sg4
S'20160418\xc2\xa01:04PM UTC'
p622
sg6
S'Anaheim Ducks - PlayerWatch'
p623
sa(dp624
g2
S'http://www.reuters.com/article/bbo-whitesox-playerwatch-idUSMTZEC4HSF9SJV'
p625
sg4
S'20160418\xc2\xa01:01PM UTC'
p626
sg6
S'Chicago White Sox - PlayerWatch'
p627
sa(dp628
g2
S'http://www.reuters.com/article/bbo-royals-playerwatch-idUSMTZEC4HSF9SJU'
p629
sg4
S'20160418\xc2\xa01:01PM UTC'
p630
sg6
S'Kansas City Royals - PlayerWatch'
p631
sa(dp632
g2
S'http://www.reuters.com/article/bbo-rays-playerwatch-idUSMTZEC4HSF9SJT'
p633
sg4
S'20160418\xc2\xa01:01PM UTC'
p634
sg6
S'Tampa Bay Rays - PlayerWatch'
p635
sa(dp636
g2
S'http://www.reuters.com/article/bbo-pirates-playerwatch-idUSMTZEC4HSF9SJP'
p637
sg4
S'20160418\xc2\xa01:01PM UTC'
p638
sg6
S'Pittsburgh Pirates - PlayerWatch'
p639
sa(dp640
g2
S'http://www.reuters.com/article/bbo-padres-playerwatch-idUSMTZEC4HSF9SJO'
p641
sg4
S'20160418\xc2\xa01:01PM UTC'
p642
sg6
S'San Diego Padres - PlayerWatch'
p643
sa(dp644
g2
S'http://www.reuters.com/article/bbo-rockies-playerwatch-idUSMTZEC4HSF9RJN'
p645
sg4
S'20160418\xc2\xa01:01PM UTC'
p646
sg6
S'Colorado Rockies - PlayerWatch'
p647
sa(dp648
g2
S'http://www.reuters.com/article/bbo-yankees-playerwatch-idUSMTZEC4HSF9RJM'
p649
sg4
S'20160418\xc2\xa01:01PM UTC'
p650
sg6
S'New York Yankees - PlayerWatch'
p651
sa(dp652
g2
S'http://www.reuters.com/article/bbo-dodgers-playerwatch-idUSMTZEC4HSF9RJL'
p653
sg4
S'20160418\xc2\xa01:01PM UTC'
p654
sg6
S'Los Angeles Dodgers - PlayerWatch'
p655
sa(dp656
g2
S'http://www.reuters.com/article/bbo-diamondbacks-playerwatch-idUSMTZEC4HSF9RJK'
p657
sg4
S'20160418\xc2\xa01:01PM UTC'
p658
sg6
S'Arizona Diamondbacks - PlayerWatch'
p659
sa(dp660
g2
S'http://www.reuters.com/article/bbo-giants-playerwatch-idUSMTZEC4HSF9RJJ'
p661
sg4
S'20160418\xc2\xa01:01PM UTC'
p662
sg6
S'San Francisco Giants - PlayerWatch'
p663
sa(dp664
g2
S'http://www.reuters.com/article/bbo-brewers-playerwatch-idUSMTZEC4HSF9RJI'
p665
sg4
S'20160418\xc2\xa01:01PM UTC'
p666
sg6
S'Milwaukee Brewers - PlayerWatch'
p667
sa(dp668
g2
S'http://www.reuters.com/article/bbo-reds-playerwatch-idUSMTZEC4HSF9RJH'
p669
sg4
S'20160418\xc2\xa01:01PM UTC'
p670
sg6
S'Cincinnati Reds - PlayerWatch'
p671
sa(dp672
g2
S'http://www.reuters.com/article/bbo-cubs-playerwatch-idUSMTZEC4HSF9RJG'
p673
sg4
S'20160418\xc2\xa01:01PM UTC'
p674
sg6
S'Chicago Cubs - PlayerWatch'
p675
sa(dp676
g2
S'http://www.reuters.com/article/bbo-cardinals-playerwatch-idUSMTZEC4HSF9RJF'
p677
sg4
S'20160418\xc2\xa01:01PM UTC'
p678
sg6
S'St. Louis Cardinals - PlayerWatch'
p679
sa(dp680
g2
S'http://www.reuters.com/article/bbo-astros-playerwatch-idUSMTZEC4HSF9RJE'
p681
sg4
S'20160418\xc2\xa01:01PM UTC'
p682
sg6
S'Houston Astros - PlayerWatch'
p683
sa(dp684
g2
S'http://www.reuters.com/article/bbo-mets-playerwatch-idUSMTZEC4HSF9RJD'
p685
sg4
S'20160418\xc2\xa01:01PM UTC'
p686
sg6
S'New York Mets - PlayerWatch'
p687
sa(dp688
g2
S'http://www.reuters.com/article/bbo-nationals-playerwatch-idUSMTZEC4HSF9RJC'
p689
sg4
S'20160418\xc2\xa01:01PM UTC'
p690
sg6
S'Washington Nationals - PlayerWatch'
p691
sa(dp692
g2
S'http://www.reuters.com/article/bbo-marlins-playerwatch-idUSMTZEC4HSF9RJB'
p693
sg4
S'20160418\xc2\xa01:01PM UTC'
p694
sg6
S'Miami Marlins - PlayerWatch'
p695
sa(dp696
g2
S'http://www.reuters.com/article/bbo-phillies-playerwatch-idUSMTZEC4HSF9RJA'
p697
sg4
S'20160418\xc2\xa01:01PM UTC'
p698
sg6
S'Philadelphia Phillies - PlayerWatch'
p699
sa(dp700
g2
S'http://www.reuters.com/article/bbo-braves-playerwatch-idUSMTZEC4HSF9RJ9'
p701
sg4
S'20160418\xc2\xa01:01PM UTC'
p702
sg6
S'Atlanta Braves - PlayerWatch'
p703
sa(dp704
g2
S'http://www.reuters.com/article/bbo-angels-playerwatch-idUSMTZEC4HSF9RJ7'
p705
sg4
S'20160418\xc2\xa01:01PM UTC'
p706
sg6
S'Los Angeles Angels - PlayerWatch'
p707
sa(dp708
g2
S'http://www.reuters.com/article/bbo-athletics-playerwatch-idUSMTZEC4HSF9RJ6'
p709
sg4
S'20160418\xc2\xa01:01PM UTC'
p710
sg6
S'Oakland Athletics - PlayerWatch'
p711
sa(dp712
g2
S'http://www.reuters.com/article/bbo-mariners-playerwatch-idUSMTZEC4HSF9RJ5'
p713
sg4
S'20160418\xc2\xa01:01PM UTC'
p714
sg6
S'Seattle Mariners - PlayerWatch'
p715
sa(dp716
g2
S'http://www.reuters.com/article/bbo-tigers-playerwatch-idUSMTZEC4HSF9RJ4'
p717
sg4
S'20160418\xc2\xa01:01PM UTC'
p718
sg6
S'Detroit Tigers - PlayerWatch'
p719
sa(dp720
g2
S'http://www.reuters.com/article/bbo-indians-playerwatch-idUSMTZEC4HSF9RJ3'
p721
sg4
S'20160418\xc2\xa01:01PM UTC'
p722
sg6
S'Cleveland Indians - PlayerWatch'
p723
sa(dp724
g2
S'http://www.reuters.com/article/bbo-twins-playerwatch-idUSMTZEC4HSF9QJ2'
p725
sg4
S'20160418\xc2\xa01:01PM UTC'
p726
sg6
S'Minnesota Twins - PlayerWatch'
p727
sa(dp728
g2
S'http://www.reuters.com/article/usa-stocks-weekahead-idUSL2N17I1JV'
p729
sg4
S'20160418\xc2\xa01:00PM UTC'
p730
sg6
S'Wall St Week Ahead-Investors look for trough in profit downturn'
p731
sa(dp732
g2
S'http://www.reuters.com/article/us-oil-meeting-draft-russia-idUSKCN0XE0WF'
p733
sg4
S'20160418\xc2\xa012:58PM UTC'
p734
sg6
S'Russia, Saudi debate oil deal draft at Doha talks'
p735
sa(dp736
g2
S'http://www.reuters.com/article/us-gambia-opposition-idUSKCN0XE0U1'
p737
sg4
S'20160418\xc2\xa012:54PM UTC'
p738
sg6
S'U.N., U.S. condemn Gambian crackdown after death of opposition members'
p739
sa(dp740
g2
S'http://www.reuters.com/article/us-gambia-opposition-usa-idUSKCN0XE0VZ'
p741
sg4
S'20160418\xc2\xa012:53PM UTC'
p742
sg6
S"U.S. condemns 'severe response' to protests in tumultuous Gambia"
p743
sa(dp744
g2
S'http://www.reuters.com/article/us-mideast-crisis-talks-idUSKCN0XE0VU'
p745
sg4
S'20160418\xc2\xa012:52PM UTC'
p746
sg6
S"Senior negotiator calls on rebels to escalate attacks in 'self defense'"
p747
sa(dp748
g2
S'http://www.reuters.com/article/us-usa-boxoffice-idUSKCN0XE0VQ'
p749
sg4
S'20160418\xc2\xa012:42PM UTC'
p750
sg6
S"Box Office: 'Jungle Book' opens to smashing $103.6 million"
p751
sa(dp752
g2
S'http://www.reuters.com/article/usa-boxoffice-idUSL2N17K0GF'
p753
sg4
S'20160418\xc2\xa012:38PM UTC'
p754
sg6
S"Box Office: 'Jungle Book' Opens to Smashing $103.6 Million"
p755
sa(dp756
g2
S'http://www.reuters.com/article/us-tennis-men-monte-carlo-idUSKCN0XE0U9'
p757
sg4
S'20160418\xc2\xa012:27PM UTC'
p758
sg6
S'Nadal sees off Monfils to end four-year Monaco wait'
p759
sa(dp760
g2
S'http://www.reuters.com/article/us-usa-court-immigration-texas-idUSKCN0XE0LY'
p761
sg4
S'20160418\xc2\xa012:26PM UTC'
p762
sg6
S"Driver's license claim could put the brakes on U.S. immigration case"
p763
sa(dp764
g2
S'http://www.reuters.com/article/us-health-zika-usa-idUSKCN0XE0UV'
p765
sg4
S'20160418\xc2\xa012:26PM UTC'
p766
sg6
S"Local Zika outbreaks in United States 'likely': U.S. official"
p767
sa(dp768
g2
S'http://www.reuters.com/article/us-cuba-congress-age-idUSKCN0XE04V'
p769
sg4
S'20160418\xc2\xa012:26PM UTC'
p770
sg6
S"Castro, 84, says Cuba's leaders are too old, proposes limits"
p771
sa(dp772
g2
S'http://www.reuters.com/article/us-yemen-security-talks-idUSKCN0XE0LO'
p773
sg4
S'20160418\xc2\xa012:24PM UTC'
p774
sg6
S"Yemen's warring sides signal optimism for Kuwait peace talks"
p775
sa(dp776
g2
S'http://www.reuters.com/article/mideast-crisis-opposition-idUSL5N17K0P3'
p777
sg4
S'20160418\xc2\xa012:20PM UTC'
p778
sg6
S'Syrian mainstream opposition tell rebels will not negotiate "forever" if government attacks continue'
p779
sa(dp780
g2
S'http://www.reuters.com/article/health-zika-usa-idUSL2N17K0D8'
p781
sg4
S'20160418\xc2\xa012:10PM UTC'
p782
sg6
S'Local Zika outbreaks in United States "likely" -U.S. official'
p783
sa(dp784
g2
S'http://www.reuters.com/article/us-canada-politics-science-idUSKCN0XD0VA'
p785
sg4
S'20160418\xc2\xa011:45AM UTC'
p786
sg6
S"Internet abuzz after quantum computing lesson by Canada's Trudeau"
p787
sa(dp788
g2
S'http://www.reuters.com/article/canada-politics-science-idUSL2N17J0AU'
p789
sg4
S'20160418\xc2\xa011:43AM UTC'
p790
sg6
S"REFILE-Internet abuzz after quantum computing lesson by Canada's Trudeau"
p791
sa(dp792
g2
S'http://www.reuters.com/article/ecuador-quake-idUSL5N17K0DC'
p793
sg4
S'20160418\xc2\xa011:30AM UTC'
p794
sg6
S'UPDATE 5-Earthquake kills 233 in Ecuador, devastates coast zone'
p795
sa(dp796
g2
S'http://www.reuters.com/article/us-libya-italy-minister-idUSKCN0XE0RY'
p797
sg4
S'20160418\xc2\xa011:23AM UTC'
p798
sg6
S'Italian minister hopes Libya seals borders, offers help: TV'
p799
sa(dp800
g2
S'http://www.reuters.com/article/us-motor-f1-china-teams-idUSKCN0XE0Q2'
p801
sg4
S'20160418\xc2\xa011:14AM UTC'
p802
sg6
S'Team by team analysis of Chinese Grand Prix'
p803
sa(dp804
g2
S'http://www.reuters.com/article/us-golf-women-matthew-idUSKCN0XE0T5'
p805
sg4
S'20160418\xc2\xa011:12AM UTC'
p806
sg6
S'Matthew chasing 2019 captaincy in native Scotland'
p807
sa(dp808
g2
S'http://www.reuters.com/article/us-germany-afd-islam-idUSKCN0XE0T0'
p809
sg4
S'20160418\xc2\xa011:11AM UTC'
p810
sg6
S'Islam not compatible with German constitution, says AfD party'
p811
sa(dp812
g2
S'http://www.reuters.com/article/us-smbc-usa-investment-banking-idUSKCN0XE0SW'
p813
sg4
S'20160418\xc2\xa011:08AM UTC'
p814
sg6
S"Japan's SMBC Nikko sets up investment banking team in New York: CEO"
p815
sa(dp816
g2
S'http://www.reuters.com/article/us-europe-attacks-britain-idUSKCN0XE0RM'
p817
sg4
S'20160418\xc2\xa011:02AM UTC'
p818
sg6
S'UK police bail one of five linked to Paris, Brussels attacks'
p819
sa(dp820
g2
S'http://www.reuters.com/article/hongkong-protest-idUSL3N17K0A3'
p821
sg4
S'20160418\xc2\xa010:59AM UTC'
p822
sg6
S'Pressure builds on Hong Kong leader as many protest at airport'
p823
sa(dp824
g2
S'http://www.reuters.com/article/us-oil-meeting-draft-debate-idUSKCN0XE0RU'
p825
sg4
S'20160418\xc2\xa010:48AM UTC'
p826
sg6
S'Doha oil output debate runs into third hour: sources'
p827
sa(dp828
g2
S'http://www.reuters.com/article/mideast-stocks-idUSL5N17K0F1'
p829
sg4
S'20160418\xc2\xa010:29AM UTC'
p830
sg6
S'MIDEAST STOCKS-Saudi pulls back as Doha deal in doubt; Egypt gains'
p831
sa(dp832
g2
S'http://www.reuters.com/article/us-lse-m-a-deutsche-boerse-idUSKCN0XE0HU'
p833
sg4
S'20160418\xc2\xa010:19AM UTC'
p834
sg6
S'Deutsche Boerse says Brexit is a risk for any U.S. suitors for LSE'
p835
sa(dp836
g2
S'http://www.reuters.com/article/lse-ma-deutsche-boerse-idUSL5N17K0LE'
p837
sg4
S'20160418\xc2\xa010:18AM UTC'
p838
sg6
S'UPDATE 1-Deutsche Boerse says Brexit is a risk for any US suitors for LSE'
p839
sa(dp840
g2
S'http://www.reuters.com/article/us-britain-solar-water-idUSKCN0XE0QP'
p841
sg4
S'20160418\xc2\xa010:18AM UTC'
p842
sg6
S'Solar powered bid to bring modernity to developing world'
p843
sa(dp844
g2
S'http://www.reuters.com/article/us-snooker-davis-idUSKCN0XE0QH'
p845
sg4
S'20160418\xc2\xa010:14AM UTC'
p846
sg6
S'Former world champion Davis retires'
p847
sa(dp848
g2
S'http://www.reuters.com/article/us-motor-f1-china-grosjean-idUSKCN0XE0PY'
p849
sg4
S'20160418\xc2\xa010:01AM UTC'
p850
sg6
S'Grosjean awoken from dream debut in Chinese nightmare'
p851
sa(dp852
g2
S'http://www.reuters.com/article/us-japan-quake-toyota-idUSKCN0XE08O'
p853
sg4
S'20160418\xc2\xa09:40AM UTC'
p854
sg6
S'Toyota, other major Japanese firms hit by quake damage, supply disruptions'
p855
sa(dp856
g2
S'http://www.reuters.com/article/japan-quake-toyota-idUSL3N17K06O'
p857
sg4
S'20160418\xc2\xa09:38AM UTC'
p858
sg6
S'UPDATE 2-Toyota, other major Japanese firms hit by quake damage, supply disruptions'
p859
sa(dp860
g2
S'http://www.reuters.com/article/us-variety-tornatore-idUSKCN0XE0PI'
p861
sg4
S'20160418\xc2\xa09:34AM UTC'
p862
sg6
S"Italy's Giuseppe Tornatore to Shoot Movie for China's Alibaba Pictures"
p863
sa(dp864
g2
S'http://www.reuters.com/article/us-mideast-crisis-usa-airstrikes-idUSKCN0XE0OG'
p865
sg4
S'20160418\xc2\xa09:33AM UTC'
p866
sg6
S'U.S., allies conduct 26 strikes against Islamic State: U.S. military'
p867
sa(dp868
g2
S'http://www.reuters.com/article/variety-tornatore-idUSL2N17K0BC'
p869
sg4
S'20160418\xc2\xa09:31AM UTC'
p870
sg6
S"Italy's Giuseppe Tornatore to Shoot Movie for China's Alibaba Pictures"
p871
sa(dp872
g2
S'http://www.reuters.com/article/us-usa-weather-idUSKCN0XD11G'
p873
sg4
S'20160418\xc2\xa09:19AM UTC'
p874
sg6
S'Hundreds of flights canceled in Denver as blizzard hits Colorado'
p875
sa(dp876
g2
S'http://www.reuters.com/article/arab-nat-bank-results-idUSD5N15G01P'
p877
sg4
S'20160418\xc2\xa09:15AM UTC'
p878
sg6
S"Saudi's Arab National Bank Q1 profit beats forecasts despite 2.8 pct dip"
p879
sa(dp880
g2
S'http://www.reuters.com/article/us-burundi-violence-idUSKCN0XE0OT'
p881
sg4
S'20160418\xc2\xa09:10AM UTC'
p882
sg6
S'Gunmen claim lives of four in Burundi villages'
p883
sa(dp884
g2
S'http://www.reuters.com/article/us-russia-airbus-helicopters-idUSKCN0XE0O6'
p885
sg4
S'20160418\xc2\xa08:57AM UTC'
p886
sg6
S'Airbus says no plans to make offer for stake in Russian Helicopters'
p887
sa(dp888
g2
S'http://www.reuters.com/article/us-oman-oil-loans-idUSKCN0XE0NR'
p889
sg4
S'20160418\xc2\xa08:56AM UTC'
p890
sg6
S'Omani oil majors in talks on loans worth combined $4.35 billion: sources'
p891
sa(dp892
g2
S'http://www.reuters.com/article/russia-airbus-helicopters-idUSL5N17K0I2'
p893
sg4
S'20160418\xc2\xa08:48AM UTC'
p894
sg6
S'Airbus says no plans to make offer for stake in Russian Helicopters'
p895
sa(dp896
g2
S'http://www.reuters.com/article/us-safrica-accident-idUSKCN0XE0NC'
p897
sg4
S'20160418\xc2\xa08:34AM UTC'
p898
sg6
S'ANC supporters killed as bus overturns in South Africa'
p899
sa(dp900
g2
S'http://www.reuters.com/article/safrica-accident-idUSL5N17K0HE'
p901
sg4
S'20160418\xc2\xa08:32AM UTC'
p902
sg6
S'ANC supporters killed as bus overturns in South Africa'
p903
sa(dp904
g2
S'http://www.reuters.com/article/us-ivorycoast-attack-mali-idUSKCN0XE0N5'
p905
sg4
S'20160418\xc2\xa08:31AM UTC'
p906
sg6
S'Mali arrests third man in connection with Ivory Coast beach attack'
p907
sa(dp908
g2
S'http://www.reuters.com/article/japan-quake-idUSL3N17K07C'
p909
sg4
S'20160418\xc2\xa08:29AM UTC'
p910
sg6
S'UPDATE 6-Japan rescuers search quake rubble for survivors as manufacturers count cost'
p911
sa(dp912
g2
S'http://www.reuters.com/article/us-afghanistan-refugees-idUSKCN0XE0MV'
p913
sg4
S'20160418\xc2\xa08:26AM UTC'
p914
sg6
S'Afghan refugees outpace those returning: U.N.'
p915
sa(dp916
g2
S'http://www.reuters.com/article/us-usa-russia-intercept-idUSKCN0XE0MR'
p917
sg4
S'20160418\xc2\xa08:21AM UTC'
p918
sg6
S"Russia's military rejects U.S. criticism of new Baltic encounter "
p919
sa(dp920
g2
S'http://www.reuters.com/article/usa-russia-intercept-idUSL5N17K0CL'
p921
sg4
S'20160418\xc2\xa08:11AM UTC'
p922
sg6
S"Russia's military rejects U.S. criticism of new Baltic encounter"
p923
sa(dp924
g2
S'http://www.reuters.com/article/us-motor-f1-china-hamilton-idUSKCN0XE0MI'
p925
sg4
S'20160418\xc2\xa08:09AM UTC'
p926
sg6
S'Mercedes felt like four-poster bed, says Hamilton'
p927
sa(dp928
g2
S'http://www.reuters.com/article/us-britain-eu-scotland-idUSKCN0XE0L5'
p929
sg4
S'20160418\xc2\xa08:07AM UTC'
p930
sg6
S'Scotland should hold new referendum if forced out of EU: Sturgeon'
p931
sa(dp932
g2
S'http://www.reuters.com/article/us-europe-migrants-czech-idUSKCN0XE0LU'
p933
sg4
S'20160418\xc2\xa08:00AM UTC'
p934
sg6
S'Czechs do not rule out legal action against permanent migrant quotas'
p935
sa(dp936
g2
S'http://www.reuters.com/article/usa-court-immigration-texas-idUSL5N17I3ZU'
p937
sg4
S'20160418\xc2\xa08:00AM UTC'
p938
sg6
S"Driver's license claim could put the brakes on U.S. immigration case"
p939
sa(dp940
g2
S'http://www.reuters.com/article/saudi-ipo-tadawul-idUSL5N17K0E8'
p941
sg4
S'20160418\xc2\xa07:58AM UTC'
p942
sg6
S'Saudi stock market to hire investment bank for flotation'
p943
sa(dp944
g2
S'http://www.reuters.com/article/us-mideast-crisis-israel-russia-idUSKCN0XE0KX'
p945
sg4
S'20160418\xc2\xa07:26AM UTC'
p946
sg6
S'Israel affirms its hold on Golan ahead talks with Putin on Syria'
p947
sa(dp948
g2
S'http://www.reuters.com/article/us-china-scs-training-idUSKCN0XE0GZ'
p949
sg4
S'20160418\xc2\xa07:22AM UTC'
p950
sg6
S'China launches upgraded drills for South China Sea fleets '
p951
sa(dp952
g2
S'http://www.reuters.com/article/us-germany-turkey-idUSKCN0XE0KK'
p953
sg4
S'20160418\xc2\xa07:20AM UTC'
p954
sg6
S'Most Germans oppose Merkel on prosecution of comedian, poll shows'
p955
sa(dp956
g2
S'http://www.reuters.com/article/us-emerging-bonds-diaspora-idUSKCN0XE0ID'
p957
sg4
S'20160418\xc2\xa07:14AM UTC'
p958
sg6
S"Countries look to draw expatriate cash with 'diaspora bonds'"
p959
sa(dp960
g2
S'http://www.reuters.com/article/us-oil-meeting-draft-change-idUSKCN0XE0JR'
p961
sg4
S'20160418\xc2\xa07:12AM UTC'
p962
sg6
S'New Doha oil deal draft says all OPEC members must join: sources'
p963
sa(dp964
g2
S'http://www.reuters.com/article/us-oil-meeting-restart-idUSKCN0XE0J9'
p965
sg4
S'20160418\xc2\xa07:12AM UTC'
p966
sg6
S'Oil producers to start talks later on Sunday: sources'
p967
sa(dp968
g2
S'http://www.reuters.com/article/bbo-mariners-yankees-preview-idUSMTZEC4HRYNXOV'
p969
sg4
S'20160418\xc2\xa07:02AM UTC'
p970
sg6
S'Preview: Mariners at Yankees'
p971
sa(dp972
g2
S'http://www.reuters.com/article/bbo-brewers-pirates-preview-idUSMTZEC4HRYNXOU'
p973
sg4
S'20160418\xc2\xa07:02AM UTC'
p974
sg6
S'Preview: Brewers at Pirates'
p975
sa(dp976
g2
S'http://www.reuters.com/article/bkn-grizzlies-spurs-preview-idUSMTZEC4HRYNWOT'
p977
sg4
S'20160418\xc2\xa07:02AM UTC'
p978
sg6
S'Preview: Grizzlies at Spurs'
p979
sa(dp980
g2
S'http://www.reuters.com/article/hkn-panthers-islanders-preview-idUSMTZEC4HRYNWOS'
p981
sg4
S'20160418\xc2\xa07:02AM UTC'
p982
sg6
S'Preview: Panthers at Islanders'
p983
sa(dp984
g2
S'http://www.reuters.com/article/bbo-whitesox-rays-preview-idUSMTZEC4HRYNWOR'
p985
sg4
S'20160418\xc2\xa07:02AM UTC'
p986
sg6
S'Preview: White Sox at Rays'
p987
sa(dp988
g2
S'http://www.reuters.com/article/bbo-diamondbacks-padres-preview-idUSMTZEC4HRYNWOQ'
p989
sg4
S'20160418\xc2\xa07:02AM UTC'
p990
sg6
S'Preview: Diamondbacks at Padres'
p991
sa(dp992
g2
S'http://www.reuters.com/article/bbo-giants-dodgers-preview-idUSMTZEC4HRYNVOP'
p993
sg4
S'20160418\xc2\xa07:02AM UTC'
p994
sg6
S'Preview: Giants at Dodgers'
p995
sa(dp996
g2
S'http://www.reuters.com/article/hkn-blues-blackhawks-preview-idUSMTZEC4HRYNVOO'
p997
sg4
S'20160418\xc2\xa07:02AM UTC'
p998
sg6
S'Preview: Blues at Blackhawks'
p999
sa(dp1000
g2
S'http://www.reuters.com/article/bbo-royals-athletics-preview-idUSMTZEC4HRYNVOM'
p1001
sg4
S'20160418\xc2\xa07:02AM UTC'
p1002
sg6
S'Preview: Royals at Athletics'
p1003
sa(dp1004
g2
S'http://www.reuters.com/article/bbo-reds-cardinals-preview-idUSMTZEC4HRYNVOL'
p1005
sg4
S'20160418\xc2\xa07:02AM UTC'
p1006
sg6
S'Preview: Reds at Cardinals'
p1007
sa(dp1008
g2
S'http://www.reuters.com/article/bbo-braves-marlins-preview-idUSMTZEC4HRYNVOK'
p1009
sg4
S'20160418\xc2\xa07:02AM UTC'
p1010
sg6
S'Preview: Braves at Marlins'
p1011
sa(dp1012
g2
S'http://www.reuters.com/article/bbo-tigers-astros-preview-idUSMTZEC4HRYNVOJ'
p1013
sg4
S'20160418\xc2\xa07:02AM UTC'
p1014
sg6
S'Preview: Tigers at Astros'
p1015
sa(dp1016
g2
S'http://www.reuters.com/article/bbo-nationals-phillies-preview-idUSMTZEC4HRYNVOI'
p1017
sg4
S'20160418\xc2\xa07:02AM UTC'
p1018
sg6
S'Preview: Nationals at Phillies'
p1019
sa(dp1020
g2
S'http://www.reuters.com/article/bkn-bobcats-heat-preview-idUSMTZEC4HRYNTOG'
p1021
sg4
S'20160418\xc2\xa07:02AM UTC'
p1022
sg6
S'Preview: Hornets at Heat'
p1023
sa(dp1024
g2
S'http://www.reuters.com/article/bbo-angels-twins-preview-idUSMTZEC4HRYNTOF'
p1025
sg4
S'20160418\xc2\xa07:02AM UTC'
p1026
sg6
S'Preview: Angels at Twins'
p1027
sa(dp1028
g2
S'http://www.reuters.com/article/bkn-pistons-cavaliers-preview-idUSMTZEC4HRYNTOE'
p1029
sg4
S'20160418\xc2\xa07:02AM UTC'
p1030
sg6
S'Preview: Pistons at Cavaliers'
p1031
sa(dp1032
g2
S'http://www.reuters.com/article/bbo-rockies-cubs-preview-idUSMTZEC4HRYNTOD'
p1033
sg4
S'20160418\xc2\xa07:02AM UTC'
p1034
sg6
S'Preview: Rockies at Cubs'
p1035
sa(dp1036
g2
S'http://www.reuters.com/article/bbo-mets-indians-preview-idUSMTZEC4HRYNTOC'
p1037
sg4
S'20160418\xc2\xa07:02AM UTC'
p1038
sg6
S'Preview: Mets at Indians'
p1039
sa(dp1040
g2
S'http://www.reuters.com/article/hkn-predators-ducks-preview-idUSMTZEC4HRYNTOB'
p1041
sg4
S'20160418\xc2\xa07:02AM UTC'
p1042
sg6
S'Preview: Predators at Ducks'
p1043
sa(dp1044
g2
S'http://www.reuters.com/article/hkn-lightning-redwings-preview-idUSMTZEC4HRYNROA'
p1045
sg4
S'20160418\xc2\xa07:02AM UTC'
p1046
sg6
S'Preview: Lightning at Red Wings'
p1047
sa(dp1048
g2
S'http://www.reuters.com/article/nbk-results-idUSD5N15N01Q'
p1049
sg4
S'20160418\xc2\xa06:49AM UTC'
p1050
sg6
S'National Bank of Kuwait reports Q1 profit slide on lower investment income'
p1051
sa(dp1052
g2
S'http://www.reuters.com/article/us-swimming-africa-clos-idUSKCN0XE0IZ'
p1053
sg4
S'20160418\xc2\xa06:45AM UTC'
p1054
sg6
S'Le Clos focused on Phelps, Rio schedule blurry'
p1055
sa(dp1056
g2
S'http://www.reuters.com/article/swimming-africa-clos-idUSL3N17K093'
p1057
sg4
S'20160418\xc2\xa06:41AM UTC'
p1058
sg6
S'Swimming-Le Clos focused on Phelps, Rio schedule blurry'
p1059
sa(dp1060
g2
S'http://www.reuters.com/article/motor-f1-china-vettel-idUSKCN0XE0IF'
p1061
sg4
S'20160418\xc2\xa06:27AM UTC'
p1062
sg6
S"Vettel hits out at 'torpedo' Kvyat"
p1063
sa(dp1064
g2
S'http://www.reuters.com/article/us-japan-quake-honda-idUSKCN0XE0I1'
p1065
sg4
S'20160418\xc2\xa06:16AM UTC'
p1066
sg6
S'Honda extends output stoppage at motorcycle plant due to quake damage'
p1067
sa(dp1068
g2
S'http://www.reuters.com/article/health-polio-vaccines-idUSL5N17I3HY'
p1069
sg4
S'20160418\xc2\xa06:13AM UTC'
p1070
sg6
S'RPT-Latest battle to wipe out polio begins with vast vaccine switch'
p1071
sa(dp1072
g2
S'http://www.reuters.com/article/poland-coal-idUSL5N17I4DG'
p1073
sg4
S'20160418\xc2\xa06:11AM UTC'
p1074
sg6
S'RPT-Poland feels the pain of its love affair with coal'
p1075
sa(dp1076
g2
S'http://www.reuters.com/article/us-mozambique-imf-idUSKCN0XE0HM'
p1077
sg4
S'20160418\xc2\xa06:10AM UTC'
p1078
sg6
S"Mozambique says confusion led to IMF 'hidden debt' accusation"
p1079
sa(dp1080
g2
S'http://www.reuters.com/article/japan-quake-honda-idUSL3N17K08Y'
p1081
sg4
S'20160418\xc2\xa06:08AM UTC'
p1082
sg6
S'Honda extends output stoppage at motorcycle plant due to quake damage'
p1083
sa(dp1084
g2
S'http://www.reuters.com/article/lse-ma-deutsche-boerse-idUSL5N17K0BQ'
p1085
sg4
S'20160418\xc2\xa06:06AM UTC'
p1086
sg6
S'Deutsche Boerse sees Brexit risk for potential US suitors for LSE'
p1087
sa(dp1088
g2
S'http://www.reuters.com/article/us-mideast-crisis-iraq-politics-idUSKCN0XE0GV'
p1089
sg4
S'20160418\xc2\xa05:59AM UTC'
p1090
sg6
S'Hundreds rally in Baghdad backing Sadr deadline on cabinet change'
p1091
sa(dp1092
g2
S'http://www.reuters.com/article/us-fashion-russia-armani-idUSKCN0XC1OL'
p1093
sg4
S'20160418\xc2\xa05:57AM UTC'
p1094
sg6
S"Armani seeks to entice fashionistas in 'key market' Russia"
p1095
sa(dp1096
g2
S'http://www.reuters.com/article/us-britain-eu-macron-idUSKCN0XE0GL'
p1097
sg4
S'20160418\xc2\xa05:51AM UTC'
p1098
sg6
S"Britain would face consequences if it leaves EU: France's Macron"
p1099
sa(dp1100
g2
S'http://www.reuters.com/article/us-iran-army-rouhani-idUSKCN0XE0G7'
p1101
sg4
S'20160418\xc2\xa05:48AM UTC'
p1102
sg6
S'Iran shows off Russian S-300 defense system on Army Day'
p1103
sa(dp1104
g2
S'http://www.reuters.com/article/mideast-crisis-iraq-politics-idUSL5N17K0AP'
p1105
sg4
S'20160418\xc2\xa05:43AM UTC'
p1106
sg6
S'Hundreds rally in Baghdad backing Sadr deadline on cabinet change'
p1107
sa(dp1108
g2
S'http://www.reuters.com/article/us-serbia-election-ultranationalists-idUSKCN0XE0BL'
p1109
sg4
S'20160418\xc2\xa05:41AM UTC'
p1110
sg6
S"Ultra-nationalist resurgence could complicate Serbia's EU path"
p1111
sa(dp1112
g2
S'http://www.reuters.com/article/iran-army-rouhani-idUSL5N17K06M'
p1113
sg4
S'20160418\xc2\xa05:32AM UTC'
p1114
sg6
S'Iran shows off Russian S-300 defence system on Army Day'
p1115
sa(dp1116
g2
S'http://www.reuters.com/article/us-northkorea-nuclear-test-idUSKCN0XE05B'
p1117
sg4
S'20160418\xc2\xa05:31AM UTC'
p1118
sg6
S"North Korea's fifth nuclear test seen imminent, increased movements at site: Yonhap"
p1119
sa(dp1120
g2
S'http://www.reuters.com/article/us-gategroup-holdg-m-a-hna-group-idUSKCN0XE0DZ'
p1121
sg4
S'20160418\xc2\xa05:11AM UTC'
p1122
sg6
S'Gategroup could list shares again after HNA deal: chairman in paper'
p1123
sa(dp1124
g2
S'http://www.reuters.com/article/us-golf-women-reid-idUSKCN0XE0EK'
p1125
sg4
S'20160418\xc2\xa05:04AM UTC'
p1126
sg6
S'Olympics should be mixed matchplay event: Reid'
p1127
sa(dp1128
g2
S'http://www.reuters.com/article/golf-women-reid-idUSL3N17J06J'
p1129
sg4
S'20160418\xc2\xa05:00AM UTC'
p1130
sg6
S'INTERVIEW-Golf-Olympics should be mixed matchplay event - Reid'
p1131
sa(dp1132
g2
S'http://www.reuters.com/article/us-yemen-security-idUSKCN0XE08K'
p1133
sg4
S'20160418\xc2\xa04:53AM UTC'
p1134
sg6
S'Yemen police say foil two bomb attacks day before peace talks'
p1135
sa(dp1136
g2
S'http://www.reuters.com/article/us-afghanistan-taliban-kunduz-idUSKCN0XD0FY'
p1137
sg4
S'20160418\xc2\xa04:51AM UTC'
p1138
sg6
S'Heavy fighting continues in Afghan city Kunduz'
p1139
sa(dp1140
g2
S'http://www.reuters.com/article/yemen-security-idUSL5N17K06D'
p1141
sg4
S'20160418\xc2\xa04:50AM UTC'
p1142
sg6
S'UPDATE 2-Yemen police say foil two bomb attacks day before peace talks'
p1143
sa(dp1144
g2
S'http://www.reuters.com/article/gategroup-holdg-ma-hna-group-idUSL5N17K09F'
p1145
sg4
S'20160418\xc2\xa04:45AM UTC'
p1146
sg6
S'Gategroup could list shares again after HNA deal -chairman in paper'
p1147
sa(dp1148
g2
S'http://www.reuters.com/article/mideast-stocks-idUSL5N17K086'
p1149
sg4
S'20160418\xc2\xa04:28AM UTC'
p1150
sg6
S'MIDEAST STOCKS-Saudi shares slip on profit-taking, Gulf mixed'
p1151
sa(dp1152
g2
S'http://www.reuters.com/article/us-edf-britain-nuclear-idUSKCN0XE0BZ'
p1153
sg4
S'20160418\xc2\xa04:08AM UTC'
p1154
sg6
S'France committed to UK nuclear project: BBC cites Macron'
p1155
sa(dp1156
g2
S'http://www.reuters.com/article/edf-britain-nuclear-idUSL5N17K08U'
p1157
sg4
S'20160418\xc2\xa04:07AM UTC'
p1158
sg6
S'France committed to UK nuclear project - BBC cites Macron'
p1159
sa(dp1160
g2
S'http://www.reuters.com/article/delek-drill-avner-oil-expl-ma-idUSL5N17K08S'
p1161
sg4
S'20160418\xc2\xa04:03AM UTC'
p1162
sg6
S"Israel's Delek Drilling, Avner Oil considering merger"
p1163
sa(dp1164
g2
S'http://www.reuters.com/article/italy-politics-metro-idUSL5N17I28P'
p1165
sg4
S'20160418\xc2\xa04:00AM UTC'
p1166
sg6
S"RPT-Rome metro eternally delayed under reforming Renzi's feet"
p1167
sa(dp1168
g2
S'http://www.reuters.com/article/serbia-election-ultranationalists-idUSL5N17G4XO'
p1169
sg4
S'20160418\xc2\xa04:00AM UTC'
p1170
sg6
S"Ultra-nationalist resurgence could complicate Serbia's EU path"
p1171
sa(dp1172
g2
S'http://www.reuters.com/article/us-oil-meeting-emir-idUSKCN0XE0B1'
p1173
sg4
S'20160418\xc2\xa03:56AM UTC'
p1174
sg6
S'Oil ministers heading to see Qatari emir as freeze talks delayed'
p1175
sa(dp1176
g2
S'http://www.reuters.com/article/us-tonga-quake-idUSKCN0XE0AN'
p1177
sg4
S'20160418\xc2\xa03:47AM UTC'
p1178
sg6
S'Earthquake measuring 6.1 strikes southeast of Tonga: USGS'
p1179
sa(dp1180
g2
S'http://www.reuters.com/article/bbo-diamondbacks-padres-writethru-idUSMTZEC4HRLVXKR'
p1181
sg4
S'20160418\xc2\xa03:41AM UTC'
p1182
sg6
S"Padres prevail in 14 on Upton's homer"
p1183
sa(dp1184
g2
S'http://www.reuters.com/article/us-soccer-mls-idUSKCN0XE0AF'
p1185
sg4
S'20160418\xc2\xa03:40AM UTC'
p1186
sg6
S"Nothing artificial about Drogba's goal as Impact win"
p1187
sa(dp1188
g2
S'http://www.reuters.com/article/us-australia-politics-idUSKCN0XE0A9'
p1189
sg4
S'20160418\xc2\xa03:37AM UTC'
p1190
sg6
S'Australian July 2 poll likely, says attorney general'
p1191
sa(dp1192
g2
S'http://www.reuters.com/article/us-saudi-economy-plan-idUSKCN0XE03B'
p1193
sg4
S'20160418\xc2\xa03:33AM UTC'
p1194
sg6
S'Saudi Arabia to announce reform plan April 25: Bloomberg'
p1195
sa(dp1196
g2
S'http://www.reuters.com/article/us-nba-thunder-idUSKCN0XE04I'
p1197
sg4
S'20160418\xc2\xa03:31AM UTC'
p1198
sg6
S'Opening burst of Thunder too much for Mavs'
p1199
sa(dp1200
g2
S'http://www.reuters.com/article/us-oil-meeting-delay-idUSKCN0XE09X'
p1201
sg4
S'20160418\xc2\xa03:19AM UTC'
p1202
sg6
S'Doha oil meeting faces last-minute delays'
p1203
sa(dp1204
g2
S'http://www.reuters.com/article/us-japan-quake-sony-idUSKCN0XE09Q'
p1205
sg4
S'20160418\xc2\xa03:18AM UTC'
p1206
sg6
S'Sony extending closure of image sensor plant in quake-hit southern Japan'
p1207
sa(dp1208
g2
S'http://www.reuters.com/article/idUSC6N12401Q'
p1209
sg4
S'20160418\xc2\xa03:15AM UTC'
p1210
sg6
S"BRIEF-Egypt's Juhayna reports Q1 2016 net profit of $9 mln -statement"
p1211
sa(dp1212
g2
S'http://www.reuters.com/article/japan-quake-sony-idUSS9N17K001'
p1213
sg4
S'20160418\xc2\xa02:58AM UTC'
p1214
sg6
S'Sony extending closure of image sensor plant in quake-hit southern Japan'
p1215
sa(dp1216
g2
S'http://www.reuters.com/article/japan-quake-corrected-update-3-pix-tv-gr-idUSL3N17J0BJ'
p1217
sg4
S'20160418\xc2\xa02:58AM UTC'
p1218
sg6
S'CORRECTED-UPDATE 3-Damaged infrastructure hinders search, aid for Japan quake survivors'
p1219
sa(dp1220
g2
S'http://www.reuters.com/article/ecuador-quake-idUSL2N17K06L'
p1221
sg4
S'20160418\xc2\xa02:54AM UTC'
p1222
sg6
S'Powerful earthquake kills 77 in Ecuador'
p1223
sa(dp1224
g2
S'http://www.reuters.com/article/hkn-sharks-kings-recap-idUSMTZEC4HRJRCK9'
p1225
sg4
S'20160418\xc2\xa02:52AM UTC'
p1226
sg6
S'Sharks 2, Kings 1'
p1227
sa(dp1228
g2
S'http://www.reuters.com/article/japan-quake-toyota-idUSL3N17K066'
p1229
sg4
S'20160418\xc2\xa02:42AM UTC'
p1230
sg6
S'Toyota stops operations at Japan plants due to supply shortage from quake'
p1231
sa(dp1232
g2
S'http://www.reuters.com/article/us-papua-corruption-idUSKCN0XE08I'
p1233
sg4
S'20160418\xc2\xa02:41AM UTC'
p1234
sg6
S"Papua New Guinea's top anti-corruption cop sacked after making arrests:  ABC"
p1235
sa(dp1236
g2
S'http://www.reuters.com/article/us-drought-mekong-idUSKCN0XE00N'
p1237
sg4
S'20160418\xc2\xa02:34AM UTC'
p1238
sg6
S'Delta drought gives glimpse into bleak future for mighty Mekong'
p1239
sa(dp1240
g2
S'http://www.reuters.com/article/us-newzealand-marriage-pastafarian-idUSKCN0XE082'
p1241
sg4
S'20160418\xc2\xa02:24AM UTC'
p1242
sg6
S"New Zealand 'Pastafarians' tie knot in first recognized wedding"
p1243
sa(dp1244
g2
S'http://www.reuters.com/article/italy-oildrilling-idUSL5N17I4F6'
p1245
sg4
S'20160418\xc2\xa02:22AM UTC'
p1246
sg6
S'Italians go to polls for drilling referendum Renzi did not want'
p1247
sa(dp1248
g2
S'http://www.reuters.com/article/us-usa-election-idUSKCN0XD0Y4'
p1249
sg4
S'20160418\xc2\xa02:16AM UTC'
p1250
sg6
S'Ted Cruz wins Wyoming Republican presidential nominating contest'
p1251
sa(dp1252
g2
S'http://www.reuters.com/article/idUS9185607020160417'
p1253
sg4
S'20160418\xc2\xa02:14AM UTC'
p1254
sg6
S'India Markets Weekahead: Book some profits as markets will consolidate'
p1255
sa(dp1256
g2
S'http://www.reuters.com/article/bbo-giants-dodgers-recap-idUSMTZEC4HR2KS7H'
p1257
sg4
S'20160418\xc2\xa02:09AM UTC'
p1258
sg6
S'Giants 4, Dodgers 3'
p1259
sa(dp1260
g2
S'http://www.reuters.com/article/us-athletics-jamaica-blake-idUSKCN0XE06Y'
p1261
sg4
S'20160418\xc2\xa02:06AM UTC'
p1262
sg6
S'Former Beast Blake puts down marker on track return'
p1263
sa(dp1264
g2
S'http://www.reuters.com/article/us-oil-meeting-kuwait-idUSKCN0XE07P'
p1265
sg4
S'20160418\xc2\xa02:04AM UTC'
p1266
sg6
S'Kuwait acting oil minister says confident, optimistic on freeze'
p1267
sa(dp1268
g2
S'http://www.reuters.com/article/us-afghanistan-casualties-idUSKCN0XE07L'
p1269
sg4
S'20160418\xc2\xa02:01AM UTC'
p1270
sg6
S'Afghan child casualties soar as urban warfare intensifies: U.N.'
p1271
sa(dp1272
g2
S'http://www.reuters.com/article/bkn-mavericks-thunder-recap-idUSMTZEC4HRG8OJG'
p1273
sg4
S'20160418\xc2\xa01:58AM UTC'
p1274
sg6
S'Thunder 108, Mavericks 70'
p1275
sa(dp1276
g2
S'http://www.reuters.com/article/us-nhl-kings-idUSKCN0XE070'
p1277
sg4
S'20160418\xc2\xa01:49AM UTC'
p1278
sg6
S'Sharks hold on for 2-1 win over Kings'
p1279
sa(dp1280
g2
S'http://www.reuters.com/article/al-rajhi-bank-results-q-idUSL5N17K04D'
p1281
sg4
S'20160418\xc2\xa01:47AM UTC'
p1282
sg6
S"REFILE-Saudi's Al Rajhi Bank Q1 net profit rises 33 pct, beats forecasts"
p1283
sa(dp1284
g2
S'http://www.reuters.com/article/mideast-stocks-idUSL5N17K04L'
p1285
sg4
S'20160418\xc2\xa01:42AM UTC'
p1286
sg6
S'MIDEAST STOCKS-Gulf bourses may rise on hopes for Doha oil meeting'
p1287
sa(dp1288
g2
S'http://www.reuters.com/article/us-usa-guantanamo-idUSKCN0XD0ZU'
p1289
sg4
S'20160418\xc2\xa01:42AM UTC'
p1290
sg6
S'U.S. sends nine Yemeni prisoners from Guantanamo Bay to Saudi Arabia'
p1291
sa(dp1292
g2
S'http://www.reuters.com/article/us-myanmar-politics-prisoners-idUSKCN0XE05U'
p1293
sg4
S'20160418\xc2\xa01:40AM UTC'
p1294
sg6
S'Myanmar president frees 83 political prisoners'
p1295
sa(dp1296
g2
S'http://www.reuters.com/article/athletics-jamaica-blake-idUSL3N17K04J'
p1297
sg4
S'20160418\xc2\xa01:30AM UTC'
p1298
sg6
S'Athletics-Former Beast Blake puts down marker on track return'
p1299
sa(dp1300
g2
S'http://www.reuters.com/article/almarai-ma-emirates-idUSL5N17K041'
p1301
sg4
S'20160418\xc2\xa01:28AM UTC'
p1302
sg6
S"Saudi's Almarai says seeks controlling stake in UAE's National Food Products"
p1303
sa(dp1304
g2
S'http://www.reuters.com/article/ecuador-quake-idUSL3N17K00S'
p1305
sg4
S'20160418\xc2\xa01:11AM UTC'
p1306
sg6
S'UPDATE 7-Major earthquake rocks Ecuador, killing at least 41'
p1307
sa(dp1308
g2
S'http://www.reuters.com/article/brazil-politics-idUSL2N17J0PL'
p1309
sg4
S'20160418\xc2\xa01:00AM UTC'
p1310
sg6
S'Congress to vote on impeaching Rousseff in divided Brazil'
p1311
sa(dp1312
g2
S'http://www.reuters.com/article/us-hongkong-ship-gambling-idUSKCN0XC1KN'
p1313
sg4
S'20160418\xc2\xa012:55AM UTC'
p1314
sg6
S'Bets are off for stranded Hong Kong casino ship and forlorn crew'
p1315
sa(dp1316
g2
S'http://www.reuters.com/article/us-hongkong-ship-gambling-idUSKCN0XE056'
p1317
sg4
S'20160418\xc2\xa012:53AM UTC'
p1318
sg6
S'Bets are off for stranded Hong Kong casino ship and forlorn crew'
p1319
sa(dp1320
g2
S'http://www.reuters.com/article/northkorea-nuclear-test-idUSL3N17K04D'
p1321
sg4
S'20160418\xc2\xa012:51AM UTC'
p1322
sg6
S"N.Korea's fifth nuclear test seen imminent, increased movements at site - Yonhap"
p1323
sa(dp1324
g2
S'http://www.reuters.com/article/hongkong-ship-gambling-idUSL3N17K04T'
p1325
sg4
S'20160418\xc2\xa012:44AM UTC'
p1326
sg6
S'CORRECTED-Bets are off for stranded Hong Kong casino ship and forlorn crew'
p1327
sa(dp1328
g2
S'http://www.reuters.com/article/us-nhl-capitals-idUSKCN0XE019'
p1329
sg4
S'20160418\xc2\xa012:41AM UTC'
p1330
sg6
S'Holtby makes 41 saves as Capitals defeat Flyers again'
p1331
sa(dp1332
g2
S'http://www.reuters.com/article/us-nba-playoffs-warriors-idUSKCN0XD13G'
p1333
sg4
S'20160418\xc2\xa012:26AM UTC'
p1334
sg6
S'Golden State victory over Houston clouded by Curry injury'
p1335
sa(dp1336
g2
S'http://www.reuters.com/article/us-golf-lpga-idUSKCN0XE04E'
p1337
sg4
S'20160418\xc2\xa012:24AM UTC'
p1338
sg6
S"Australia's Lee finishes strong in Hawaii to win Lotte"
p1339
sa(dp1340
g2
S'http://www.reuters.com/article/hkn-wild-stars-recap-idUSMTZEC4HRD9ZH2'
p1341
sg4
S'20160418\xc2\xa012:23AM UTC'
p1342
sg6
S'Stars 2, Wild 1'
p1343
sa(dp1344
g2
S'http://www.reuters.com/article/us-nhl-stars-idUSKCN0XE04C'
p1345
sg4
S'20160418\xc2\xa012:20AM UTC'
p1346
sg6
S'Stars take 2-0 series lead with win over Wild'
p1347
sa(dp1348
g2
S'http://www.reuters.com/article/bbo-orioles-rangers-writethru-idUSMTZEC4HRCUVGG'
p1349
sg4
S'20160418\xc2\xa012:18AM UTC'
p1350
sg6
S"Rangers grind out win over powerful O's"
p1351
sa(dp1352
g2
S'http://www.reuters.com/news/video/videoStory?storyID=117897968'
p1353
sg4
S'20160418\xc2\xa010:57PM UTC'
p1354
sg6
S'Rio celebrates Rousseff impeachment vote'
p1355
sa(dp1356
g2
S'http://www.reuters.com/news/video/videoStory?storyID=117897964'
p1357
sg4
S'20160418\xc2\xa010:57PM UTC'
p1358
sg6
S"Brazil's lower house votes to impeach Rousseff"
p1359
sa(dp1360
g2
S'http://www.reuters.com/news/video/videoStory?storyID=117897457'
p1361
sg4
S'20160418\xc2\xa09:54PM UTC'
p1362
sg6
S'DeVito to Prospect Park masses: "We feel the Bern"'
p1363
sa(dp1364
g2
S'http://www.reuters.com/news/video/videoStory?storyID=117897349'
p1365
sg4
S'20160418\xc2\xa09:20PM UTC'
p1366
sg6
S'Correa begins tour of quake-ravaged Ecuador'
p1367
sa(dp1368
g2
S'http://www.reuters.com/news/video/videoStory?storyID=117897245'
p1369
sg4
S'20160418\xc2\xa09:14PM UTC'
p1370
sg6
S'Afghan girls pursue music passion'
p1371
sa(dp1372
g2
S'http://www.reuters.com/news/video/videoStory?storyID=117895165'
p1373
sg4
S'20160418\xc2\xa06:12PM UTC'
p1374
sg6
S'83 vote for impeaching Rousseff, 25 against'
p1375
sa(dp1376
g2
S'http://www.reuters.com/news/video/videoStory?storyID=117895043'
p1377
sg4
S'20160418\xc2\xa05:41PM UTC'
p1378
sg6
S'Supporters, opponents of Rousseff rally in Brazil'
p1379
sa(dp1380
g2
S'http://www.reuters.com/news/video/videoStory?storyID=117892972'
p1381
sg4
S'20160418\xc2\xa04:46PM UTC'
p1382
sg6
S'Thousands march against hatred and violence in Brussels'
p1383
sa(dp1384
g2
S'http://www.reuters.com/news/video/videoStory?storyID=117892805'
p1385
sg4
S'20160418\xc2\xa04:36PM UTC'
p1386
sg6
S'"The Jungle Book" wows with 103.6 million'
p1387
sa(dp1388
g2
S'http://www.reuters.com/news/video/videoStory?storyID=117892755'
p1389
sg4
S'20160418\xc2\xa04:34PM UTC'
p1390
sg6
S'Protesters rally for Democracy at U.S. Capitol'
p1391
sa(dp1392
g2
S'http://www.reuters.com/news/video/videoStory?storyID=117892580'
p1393
sg4
S'20160418\xc2\xa04:17PM UTC'
p1394
sg6
S'Clinton visits NY church ahead of big primary'
p1395
sa(dp1396
g2
S'http://www.reuters.com/news/video/videoStory?storyID=117892267'
p1397
sg4
S'20160418\xc2\xa03:52PM UTC'
p1398
sg6
S'Pennsylvania legalizes medical marijuana'
p1399
sa(dp1400
g2
S'http://www.reuters.com/news/video/videoStory?storyID=117892084'
p1401
sg4
S'20160418\xc2\xa03:48PM UTC'
p1402
sg6
S'From escaping the heat... to escaping the zoo'
p1403
sa(dp1404
g2
S'http://www.reuters.com/news/video/videoStory?storyID=117891537'
p1405
sg4
S'20160418\xc2\xa02:44PM UTC'
p1406
sg6
S'Street battle erupts at makeshift migrant camp in Paris'
p1407
sa(dp1408
g2
S'http://www.reuters.com/news/video/videoStory?storyID=117891130'
p1409
sg4
S'20160418\xc2\xa02:24PM UTC'
p1410
sg6
S'Sanders takes a "moral" look at money'
p1411
sa(dp1412
g2
S'http://www.reuters.com/news/video/videoStory?storyID=117890968'
p1413
sg4
S'20160418\xc2\xa02:07PM UTC'
p1414
sg6
S'Trump warns of voter anger if he loses convention'
p1415
sa(dp1416
g2
S'http://www.reuters.com/news/video/videoStory?storyID=117890834'
p1417
sg4
S'20160418\xc2\xa01:39PM UTC'
p1418
sg6
S'Ecuador earthquake death toll spikes to at least 235'
p1419
sa(dp1420
g2
S'http://www.reuters.com/news/video/videoStory?storyID=117890538'
p1421
sg4
S'20160418\xc2\xa012:37PM UTC'
p1422
sg6
S'Gujarat town under curfew after violent Patidar protest'
p1423
sa(dp1424
g2
S'http://www.reuters.com/news/video/videoStory?storyID=117890476'
p1425
sg4
S'20160418\xc2\xa012:31PM UTC'
p1426
sg6
S'Security tight for Boston Marathon'
p1427
sa(dp1428
g2
S'http://www.reuters.com/news/video/videoStory?storyID=117889726'
p1429
sg4
S'20160418\xc2\xa011:02AM UTC'
p1430
sg6
S'Pope: I saw so much pain at Greek migrant camp'
p1431
sa(dp1432
g2
S'http://www.reuters.com/news/video/videoStory?storyID=117889116'
p1433
sg4
S'20160418\xc2\xa010:08AM UTC'
p1434
sg6
S'No charges for man who killed firefighter'
p1435
sa(dp1436
g2
S'http://www.reuters.com/news/video/videoStory?storyID=117889057'
p1437
sg4
S'20160418\xc2\xa010:04AM UTC'
p1438
sg6
S"Guns N' Roses singer Axl Rose to join AC/DC tour"
p1439
sa(dp1440
g2
S'http://www.reuters.com/news/video/videoStory?storyID=117888775'
p1441
sg4
S'20160418\xc2\xa09:44AM UTC'
p1442
sg6
S'Solar powered bid to bring modernity to developing world'
p1443
sa(dp1444
g2
S'http://www.reuters.com/news/video/videoStory?storyID=117888667'
p1445
sg4
S'20160418\xc2\xa09:24AM UTC'
p1446
sg6
S'Bus crash kills at least 24 in Peru'
p1447
sa(dp1448
g2
S'http://www.reuters.com/news/video/videoStory?storyID=117888236'
p1449
sg4
S'20160418\xc2\xa08:30AM UTC'
p1450
sg6
S'Springtime blizzard slams Colorado'
p1451
sa(dp1452
g2
S'http://www.reuters.com/news/video/videoStory?storyID=117887257'
p1453
sg4
S'20160418\xc2\xa06:55AM UTC'
p1454
sg6
S'The competitive sport of stacking cups'
p1455
sa(dp1456
g2
S'http://www.reuters.com/news/video/videoStory?storyID=117886990'
p1457
sg4
S'20160418\xc2\xa05:47AM UTC'
p1458
sg6
S'Search for survivors after Japan quakes'
p1459
sa(dp1460
g2
S'http://www.reuters.com/news/video/videoStory?storyID=117886293'
p1461
sg4
S'20160418\xc2\xa04:02AM UTC'
p1462
sg6
S'Passersby pull out car smashed by Ecuador bridge'
p1463
sa(dp1464
g2
S'http://www.reuters.com/news/video/videoStory?storyID=117885856'
p1465
sg4
S'20160418\xc2\xa02:24AM UTC'
p1466
sg6
S'Deadly quake strikes Ecuador'
p1467
sa(dp1468
g2
S'http://www.reuters.com/news/video/videoStory?storyID=117885478'
p1469
sg4
S'20160418\xc2\xa01:41AM UTC'
p1470
sg6
S'Damage in Ecuador after deadly earthquake'
p1471
sa(dp1472
g2
S'http://www.reuters.com/news/video/videoStory?storyID=117885037'
p1473
sg4
S'20160418\xc2\xa012:32AM UTC'
p1474
sg6
S'Guantanamo prisoners reunite with families'
p1475
sa(dp1476
g2
S'http://www.reuters.com/news/video/videoStory?storyID=117885041'
p1477
sg4
S'20160418\xc2\xa012:30AM UTC'
p1478
sg6
S'Deadly earthquake hits Ecuador'
p1479
sa.